ARM GAS  C:\Users\Luke\AppData\Local\Temp\ccj7j385.s 			page 1


   1              		.syntax unified
   2              		.cpu cortex-m3
   3              		.fpu softvfp
   4              		.eabi_attribute 20, 1
   5              		.eabi_attribute 21, 1
   6              		.eabi_attribute 23, 3
   7              		.eabi_attribute 24, 1
   8              		.eabi_attribute 25, 1
   9              		.eabi_attribute 26, 1
  10              		.eabi_attribute 30, 4
  11              		.eabi_attribute 34, 1
  12              		.eabi_attribute 18, 4
  13              		.thumb
  14              		.file	"ADC_SAR_1.c"
  15              		.text
  16              	.Ltext0:
  17              		.cfi_sections	.debug_frame
  18              		.section	.text.ADC_SAR_1_Enable,"ax",%progbits
  19              		.align	1
  20              		.global	ADC_SAR_1_Enable
  21              		.thumb
  22              		.thumb_func
  23              		.type	ADC_SAR_1_Enable, %function
  24              	ADC_SAR_1_Enable:
  25              	.LFB2:
  26              		.file 1 ".\\Generated_Source\\PSoC5\\ADC_SAR_1.c"
   1:.\Generated_Source\PSoC5/ADC_SAR_1.c **** /*******************************************************************************
   2:.\Generated_Source\PSoC5/ADC_SAR_1.c **** * File Name: ADC_SAR_1.c
   3:.\Generated_Source\PSoC5/ADC_SAR_1.c **** * Version 2.10
   4:.\Generated_Source\PSoC5/ADC_SAR_1.c **** *
   5:.\Generated_Source\PSoC5/ADC_SAR_1.c **** * Description:
   6:.\Generated_Source\PSoC5/ADC_SAR_1.c **** *  This file provides the source code to the API for the Successive
   7:.\Generated_Source\PSoC5/ADC_SAR_1.c **** *  approximation ADC Component.
   8:.\Generated_Source\PSoC5/ADC_SAR_1.c **** *
   9:.\Generated_Source\PSoC5/ADC_SAR_1.c **** * Note:
  10:.\Generated_Source\PSoC5/ADC_SAR_1.c **** *
  11:.\Generated_Source\PSoC5/ADC_SAR_1.c **** ********************************************************************************
  12:.\Generated_Source\PSoC5/ADC_SAR_1.c **** * Copyright 2008-2013, Cypress Semiconductor Corporation.  All rights reserved.
  13:.\Generated_Source\PSoC5/ADC_SAR_1.c **** * You may use this file only in accordance with the license, terms, conditions,
  14:.\Generated_Source\PSoC5/ADC_SAR_1.c **** * disclaimers, and limitations in the end user license agreement accompanying
  15:.\Generated_Source\PSoC5/ADC_SAR_1.c **** * the software package with which this file was provided.
  16:.\Generated_Source\PSoC5/ADC_SAR_1.c **** *******************************************************************************/
  17:.\Generated_Source\PSoC5/ADC_SAR_1.c **** 
  18:.\Generated_Source\PSoC5/ADC_SAR_1.c **** #include "CyLib.h"
  19:.\Generated_Source\PSoC5/ADC_SAR_1.c **** #include "ADC_SAR_1.h"
  20:.\Generated_Source\PSoC5/ADC_SAR_1.c **** 
  21:.\Generated_Source\PSoC5/ADC_SAR_1.c **** #if(ADC_SAR_1_DEFAULT_INTERNAL_CLK)
  22:.\Generated_Source\PSoC5/ADC_SAR_1.c ****     #include "ADC_SAR_1_theACLK.h"
  23:.\Generated_Source\PSoC5/ADC_SAR_1.c **** #endif /* End ADC_SAR_1_DEFAULT_INTERNAL_CLK */
  24:.\Generated_Source\PSoC5/ADC_SAR_1.c **** 
  25:.\Generated_Source\PSoC5/ADC_SAR_1.c **** 
  26:.\Generated_Source\PSoC5/ADC_SAR_1.c **** /***************************************
  27:.\Generated_Source\PSoC5/ADC_SAR_1.c **** * Forward function references
  28:.\Generated_Source\PSoC5/ADC_SAR_1.c **** ***************************************/
  29:.\Generated_Source\PSoC5/ADC_SAR_1.c **** static void ADC_SAR_1_CalcGain(uint8 resolution);
  30:.\Generated_Source\PSoC5/ADC_SAR_1.c **** 
  31:.\Generated_Source\PSoC5/ADC_SAR_1.c **** 
ARM GAS  C:\Users\Luke\AppData\Local\Temp\ccj7j385.s 			page 2


  32:.\Generated_Source\PSoC5/ADC_SAR_1.c **** /***************************************
  33:.\Generated_Source\PSoC5/ADC_SAR_1.c **** * Global data allocation
  34:.\Generated_Source\PSoC5/ADC_SAR_1.c **** ***************************************/
  35:.\Generated_Source\PSoC5/ADC_SAR_1.c **** uint8 ADC_SAR_1_initVar = 0u;
  36:.\Generated_Source\PSoC5/ADC_SAR_1.c **** volatile int16 ADC_SAR_1_offset;
  37:.\Generated_Source\PSoC5/ADC_SAR_1.c **** volatile int16 ADC_SAR_1_countsPerVolt;     /* Obsolete Gain compensation */
  38:.\Generated_Source\PSoC5/ADC_SAR_1.c **** volatile int32 ADC_SAR_1_countsPer10Volt;   /* Gain compensation */
  39:.\Generated_Source\PSoC5/ADC_SAR_1.c **** volatile int16 ADC_SAR_1_shift;
  40:.\Generated_Source\PSoC5/ADC_SAR_1.c **** 
  41:.\Generated_Source\PSoC5/ADC_SAR_1.c **** 
  42:.\Generated_Source\PSoC5/ADC_SAR_1.c **** /*******************************************************************************
  43:.\Generated_Source\PSoC5/ADC_SAR_1.c **** * Function Name: ADC_SAR_1_Start
  44:.\Generated_Source\PSoC5/ADC_SAR_1.c **** ********************************************************************************
  45:.\Generated_Source\PSoC5/ADC_SAR_1.c **** *
  46:.\Generated_Source\PSoC5/ADC_SAR_1.c **** * Summary:
  47:.\Generated_Source\PSoC5/ADC_SAR_1.c **** *  This is the preferred method to begin component operation.
  48:.\Generated_Source\PSoC5/ADC_SAR_1.c **** *  ADC_SAR_1_Start() sets the initVar variable, calls the
  49:.\Generated_Source\PSoC5/ADC_SAR_1.c **** *  ADC_SAR_1_Init() function, and then calls the
  50:.\Generated_Source\PSoC5/ADC_SAR_1.c **** *  ADC_SAR_1_Enable() function.
  51:.\Generated_Source\PSoC5/ADC_SAR_1.c **** *
  52:.\Generated_Source\PSoC5/ADC_SAR_1.c **** * Parameters:
  53:.\Generated_Source\PSoC5/ADC_SAR_1.c **** *  None.
  54:.\Generated_Source\PSoC5/ADC_SAR_1.c **** *
  55:.\Generated_Source\PSoC5/ADC_SAR_1.c **** * Return:
  56:.\Generated_Source\PSoC5/ADC_SAR_1.c **** *  None.
  57:.\Generated_Source\PSoC5/ADC_SAR_1.c **** *
  58:.\Generated_Source\PSoC5/ADC_SAR_1.c **** * Global variables:
  59:.\Generated_Source\PSoC5/ADC_SAR_1.c **** *  The ADC_SAR_1_initVar variable is used to indicate when/if initial
  60:.\Generated_Source\PSoC5/ADC_SAR_1.c **** *  configuration of this component has happened. The variable is initialized to
  61:.\Generated_Source\PSoC5/ADC_SAR_1.c **** *  zero and set to 1 the first time ADC_Start() is called. This allows for
  62:.\Generated_Source\PSoC5/ADC_SAR_1.c **** *  component Re-Start without re-initialization in all subsequent calls to the
  63:.\Generated_Source\PSoC5/ADC_SAR_1.c **** *  ADC_SAR_1_Start() routine.
  64:.\Generated_Source\PSoC5/ADC_SAR_1.c **** *  If re-initialization of the component is required the variable should be set
  65:.\Generated_Source\PSoC5/ADC_SAR_1.c **** *  to zero before call of ADC_SAR_1_Start() routine, or the user may call
  66:.\Generated_Source\PSoC5/ADC_SAR_1.c **** *  ADC_SAR_1_Init() and ADC_SAR_1_Enable() as done in the
  67:.\Generated_Source\PSoC5/ADC_SAR_1.c **** *  ADC_SAR_1_Start() routine.
  68:.\Generated_Source\PSoC5/ADC_SAR_1.c **** *
  69:.\Generated_Source\PSoC5/ADC_SAR_1.c **** * Side Effect:
  70:.\Generated_Source\PSoC5/ADC_SAR_1.c **** *  If the initVar variable is already set, this function only calls the
  71:.\Generated_Source\PSoC5/ADC_SAR_1.c **** *  ADC_SAR_1_Enable() function.
  72:.\Generated_Source\PSoC5/ADC_SAR_1.c **** *
  73:.\Generated_Source\PSoC5/ADC_SAR_1.c **** *******************************************************************************/
  74:.\Generated_Source\PSoC5/ADC_SAR_1.c **** void ADC_SAR_1_Start(void)
  75:.\Generated_Source\PSoC5/ADC_SAR_1.c **** {
  76:.\Generated_Source\PSoC5/ADC_SAR_1.c **** 
  77:.\Generated_Source\PSoC5/ADC_SAR_1.c ****     /* If not Initialized then initialize all required hardware and software */
  78:.\Generated_Source\PSoC5/ADC_SAR_1.c ****     if(ADC_SAR_1_initVar == 0u)
  79:.\Generated_Source\PSoC5/ADC_SAR_1.c ****     {
  80:.\Generated_Source\PSoC5/ADC_SAR_1.c ****         ADC_SAR_1_Init();
  81:.\Generated_Source\PSoC5/ADC_SAR_1.c ****         ADC_SAR_1_initVar = 1u;
  82:.\Generated_Source\PSoC5/ADC_SAR_1.c ****     }
  83:.\Generated_Source\PSoC5/ADC_SAR_1.c ****     ADC_SAR_1_Enable();
  84:.\Generated_Source\PSoC5/ADC_SAR_1.c **** }
  85:.\Generated_Source\PSoC5/ADC_SAR_1.c **** 
  86:.\Generated_Source\PSoC5/ADC_SAR_1.c **** 
  87:.\Generated_Source\PSoC5/ADC_SAR_1.c **** /*******************************************************************************
  88:.\Generated_Source\PSoC5/ADC_SAR_1.c **** * Function Name: ADC_SAR_1_Init
ARM GAS  C:\Users\Luke\AppData\Local\Temp\ccj7j385.s 			page 3


  89:.\Generated_Source\PSoC5/ADC_SAR_1.c **** ********************************************************************************
  90:.\Generated_Source\PSoC5/ADC_SAR_1.c **** *
  91:.\Generated_Source\PSoC5/ADC_SAR_1.c **** * Summary:
  92:.\Generated_Source\PSoC5/ADC_SAR_1.c **** *  Initialize component's parameters to the parameters set by user in the
  93:.\Generated_Source\PSoC5/ADC_SAR_1.c **** *  customizer of the component placed onto schematic. Usually called in
  94:.\Generated_Source\PSoC5/ADC_SAR_1.c **** *  ADC_SAR_1_Start().
  95:.\Generated_Source\PSoC5/ADC_SAR_1.c **** *
  96:.\Generated_Source\PSoC5/ADC_SAR_1.c **** * Parameters:
  97:.\Generated_Source\PSoC5/ADC_SAR_1.c **** *  None.
  98:.\Generated_Source\PSoC5/ADC_SAR_1.c **** *
  99:.\Generated_Source\PSoC5/ADC_SAR_1.c **** * Return:
 100:.\Generated_Source\PSoC5/ADC_SAR_1.c **** *  None.
 101:.\Generated_Source\PSoC5/ADC_SAR_1.c **** *
 102:.\Generated_Source\PSoC5/ADC_SAR_1.c **** * Global variables:
 103:.\Generated_Source\PSoC5/ADC_SAR_1.c **** *  The ADC_SAR_1_offset variable is initialized to 0.
 104:.\Generated_Source\PSoC5/ADC_SAR_1.c **** *
 105:.\Generated_Source\PSoC5/ADC_SAR_1.c **** *******************************************************************************/
 106:.\Generated_Source\PSoC5/ADC_SAR_1.c **** void ADC_SAR_1_Init(void)
 107:.\Generated_Source\PSoC5/ADC_SAR_1.c **** {
 108:.\Generated_Source\PSoC5/ADC_SAR_1.c **** 
 109:.\Generated_Source\PSoC5/ADC_SAR_1.c ****     /* This is only valid if there is an internal clock */
 110:.\Generated_Source\PSoC5/ADC_SAR_1.c ****     #if(ADC_SAR_1_DEFAULT_INTERNAL_CLK)
 111:.\Generated_Source\PSoC5/ADC_SAR_1.c ****         ADC_SAR_1_theACLK_SetMode(CYCLK_DUTY);
 112:.\Generated_Source\PSoC5/ADC_SAR_1.c ****     #endif /* End ADC_SAR_1_DEFAULT_INTERNAL_CLK */
 113:.\Generated_Source\PSoC5/ADC_SAR_1.c **** 
 114:.\Generated_Source\PSoC5/ADC_SAR_1.c ****     #if(ADC_SAR_1_IRQ_REMOVE == 0u)
 115:.\Generated_Source\PSoC5/ADC_SAR_1.c ****         /* Start and set interrupt vector */
 116:.\Generated_Source\PSoC5/ADC_SAR_1.c ****         CyIntSetPriority(ADC_SAR_1_INTC_NUMBER, ADC_SAR_1_INTC_PRIOR_NUMBER);
 117:.\Generated_Source\PSoC5/ADC_SAR_1.c ****         (void)CyIntSetVector(ADC_SAR_1_INTC_NUMBER, &ADC_SAR_1_ISR);
 118:.\Generated_Source\PSoC5/ADC_SAR_1.c ****     #endif   /* End ADC_SAR_1_IRQ_REMOVE */
 119:.\Generated_Source\PSoC5/ADC_SAR_1.c **** 
 120:.\Generated_Source\PSoC5/ADC_SAR_1.c ****     /* Enable IRQ mode*/
 121:.\Generated_Source\PSoC5/ADC_SAR_1.c ****     ADC_SAR_1_SAR_CSR1_REG |= ADC_SAR_1_SAR_IRQ_MASK_EN | ADC_SAR_1_SAR_IRQ_MODE_EDGE;
 122:.\Generated_Source\PSoC5/ADC_SAR_1.c **** 
 123:.\Generated_Source\PSoC5/ADC_SAR_1.c ****     /*Set SAR ADC resolution ADC */
 124:.\Generated_Source\PSoC5/ADC_SAR_1.c ****     ADC_SAR_1_SetResolution(ADC_SAR_1_DEFAULT_RESOLUTION);
 125:.\Generated_Source\PSoC5/ADC_SAR_1.c ****     ADC_SAR_1_offset = 0;
 126:.\Generated_Source\PSoC5/ADC_SAR_1.c **** }
 127:.\Generated_Source\PSoC5/ADC_SAR_1.c **** 
 128:.\Generated_Source\PSoC5/ADC_SAR_1.c **** 
 129:.\Generated_Source\PSoC5/ADC_SAR_1.c **** /*******************************************************************************
 130:.\Generated_Source\PSoC5/ADC_SAR_1.c **** * Function Name: ADC_SAR_1_Enable
 131:.\Generated_Source\PSoC5/ADC_SAR_1.c **** ********************************************************************************
 132:.\Generated_Source\PSoC5/ADC_SAR_1.c **** *
 133:.\Generated_Source\PSoC5/ADC_SAR_1.c **** * Summary:
 134:.\Generated_Source\PSoC5/ADC_SAR_1.c **** *  Enables the reference, clock and power for SAR ADC.
 135:.\Generated_Source\PSoC5/ADC_SAR_1.c **** *
 136:.\Generated_Source\PSoC5/ADC_SAR_1.c **** * Parameters:
 137:.\Generated_Source\PSoC5/ADC_SAR_1.c **** *  None.
 138:.\Generated_Source\PSoC5/ADC_SAR_1.c **** *
 139:.\Generated_Source\PSoC5/ADC_SAR_1.c **** * Return:
 140:.\Generated_Source\PSoC5/ADC_SAR_1.c **** *  None.
 141:.\Generated_Source\PSoC5/ADC_SAR_1.c **** *
 142:.\Generated_Source\PSoC5/ADC_SAR_1.c **** *******************************************************************************/
 143:.\Generated_Source\PSoC5/ADC_SAR_1.c **** void ADC_SAR_1_Enable(void)
 144:.\Generated_Source\PSoC5/ADC_SAR_1.c **** {
  27              		.loc 1 144 0
ARM GAS  C:\Users\Luke\AppData\Local\Temp\ccj7j385.s 			page 4


  28              		.cfi_startproc
  29              		@ args = 0, pretend = 0, frame = 0
  30              		@ frame_needed = 0, uses_anonymous_args = 0
  31 0000 38B5     		push	{r3, r4, r5, lr}
  32              	.LCFI0:
  33              		.cfi_def_cfa_offset 16
  34              		.cfi_offset 3, -16
  35              		.cfi_offset 4, -12
  36              		.cfi_offset 5, -8
  37              		.cfi_offset 14, -4
 145:.\Generated_Source\PSoC5/ADC_SAR_1.c ****     uint8 tmpReg;
 146:.\Generated_Source\PSoC5/ADC_SAR_1.c ****     uint8 enableInterrupts;
 147:.\Generated_Source\PSoC5/ADC_SAR_1.c ****     enableInterrupts = CyEnterCriticalSection();
  38              		.loc 1 147 0
  39 0002 FFF7FEFF 		bl	CyEnterCriticalSection
  40              	.LVL0:
 148:.\Generated_Source\PSoC5/ADC_SAR_1.c **** 
 149:.\Generated_Source\PSoC5/ADC_SAR_1.c ****     /* Enable the SAR ADC block in Active Power Mode */
 150:.\Generated_Source\PSoC5/ADC_SAR_1.c ****     ADC_SAR_1_PWRMGR_SAR_REG |= ADC_SAR_1_ACT_PWR_SAR_EN;
  41              		.loc 1 150 0
  42 0006 1C4B     		ldr	r3, .L2
 147:.\Generated_Source\PSoC5/ADC_SAR_1.c ****     enableInterrupts = CyEnterCriticalSection();
  43              		.loc 1 147 0
  44 0008 0546     		mov	r5, r0
  45              	.LVL1:
  46              		.loc 1 150 0
  47 000a 1A78     		ldrb	r2, [r3, #0]	@ zero_extendqisi2
  48 000c 42F00200 		orr	r0, r2, #2
  49              	.LVL2:
  50 0010 1870     		strb	r0, [r3, #0]
 151:.\Generated_Source\PSoC5/ADC_SAR_1.c **** 
 152:.\Generated_Source\PSoC5/ADC_SAR_1.c ****      /* Enable the SAR ADC in Standby Power Mode*/
 153:.\Generated_Source\PSoC5/ADC_SAR_1.c ****     ADC_SAR_1_STBY_PWRMGR_SAR_REG |= ADC_SAR_1_STBY_PWR_SAR_EN;
  51              		.loc 1 153 0
  52 0012 197C     		ldrb	r1, [r3, #16]	@ zero_extendqisi2
  53 0014 41F00204 		orr	r4, r1, #2
  54 0018 1C74     		strb	r4, [r3, #16]
 154:.\Generated_Source\PSoC5/ADC_SAR_1.c **** 
 155:.\Generated_Source\PSoC5/ADC_SAR_1.c ****     /* This is only valid if there is an internal clock */
 156:.\Generated_Source\PSoC5/ADC_SAR_1.c ****     #if(ADC_SAR_1_DEFAULT_INTERNAL_CLK)
 157:.\Generated_Source\PSoC5/ADC_SAR_1.c ****         ADC_SAR_1_PWRMGR_CLK_REG |= ADC_SAR_1_ACT_PWR_CLK_EN;
  55              		.loc 1 157 0
  56 001a 13F80A2C 		ldrb	r2, [r3, #-10]	@ zero_extendqisi2
  57 001e 42F00100 		orr	r0, r2, #1
  58 0022 03F80A0C 		strb	r0, [r3, #-10]
 158:.\Generated_Source\PSoC5/ADC_SAR_1.c ****         ADC_SAR_1_STBY_PWRMGR_CLK_REG |= ADC_SAR_1_STBY_PWR_CLK_EN;
  59              		.loc 1 158 0
  60 0026 9979     		ldrb	r1, [r3, #6]	@ zero_extendqisi2
  61 0028 41F00104 		orr	r4, r1, #1
  62 002c 9C71     		strb	r4, [r3, #6]
 159:.\Generated_Source\PSoC5/ADC_SAR_1.c ****     #endif /* End ADC_SAR_1_DEFAULT_INTERNAL_CLK */
 160:.\Generated_Source\PSoC5/ADC_SAR_1.c **** 
 161:.\Generated_Source\PSoC5/ADC_SAR_1.c ****     /* Enable VCM buffer and Enable Int Ref Amp */
 162:.\Generated_Source\PSoC5/ADC_SAR_1.c ****     tmpReg = ADC_SAR_1_SAR_CSR3_REG;
  63              		.loc 1 162 0
  64 002e 134B     		ldr	r3, .L2+4
 163:.\Generated_Source\PSoC5/ADC_SAR_1.c ****     tmpReg |= ADC_SAR_1_SAR_EN_BUF_VCM_EN;
ARM GAS  C:\Users\Luke\AppData\Local\Temp\ccj7j385.s 			page 5


 164:.\Generated_Source\PSoC5/ADC_SAR_1.c ****     /* PD_BUF_VREF is OFF in External reference or Vdda reference mode */
 165:.\Generated_Source\PSoC5/ADC_SAR_1.c ****     #if((ADC_SAR_1_DEFAULT_REFERENCE == ADC_SAR_1__EXT_REF) || \
 166:.\Generated_Source\PSoC5/ADC_SAR_1.c ****         (ADC_SAR_1_DEFAULT_RANGE == ADC_SAR_1__VNEG_VDDA_DIFF))
 167:.\Generated_Source\PSoC5/ADC_SAR_1.c ****         tmpReg &= (uint8)~ADC_SAR_1_SAR_EN_BUF_VREF_EN;
 168:.\Generated_Source\PSoC5/ADC_SAR_1.c ****     #else /* In INTREF or INTREF Bypassed this buffer is ON */
 169:.\Generated_Source\PSoC5/ADC_SAR_1.c ****         tmpReg |= ADC_SAR_1_SAR_EN_BUF_VREF_EN;
 170:.\Generated_Source\PSoC5/ADC_SAR_1.c ****     #endif /* ADC_SAR_1_DEFAULT_REFERENCE == ADC_SAR_1__EXT_REF */
 171:.\Generated_Source\PSoC5/ADC_SAR_1.c ****     ADC_SAR_1_SAR_CSR3_REG = tmpReg;
 172:.\Generated_Source\PSoC5/ADC_SAR_1.c **** 
 173:.\Generated_Source\PSoC5/ADC_SAR_1.c ****     /* Set reference for ADC */
 174:.\Generated_Source\PSoC5/ADC_SAR_1.c ****     #if(ADC_SAR_1_DEFAULT_RANGE == ADC_SAR_1__VNEG_VDDA_DIFF)
 175:.\Generated_Source\PSoC5/ADC_SAR_1.c ****         #if(ADC_SAR_1_DEFAULT_REFERENCE == ADC_SAR_1__EXT_REF)
 176:.\Generated_Source\PSoC5/ADC_SAR_1.c ****             ADC_SAR_1_SAR_CSR6_REG = ADC_SAR_1_INT_BYPASS_EXT_VREF; /* S2 */
 177:.\Generated_Source\PSoC5/ADC_SAR_1.c ****         #else /* Internal Vdda reference or obsolete bypass mode */
 178:.\Generated_Source\PSoC5/ADC_SAR_1.c ****             ADC_SAR_1_SAR_CSR6_REG = ADC_SAR_1_VDDA_VREF;           /* S7 */
 179:.\Generated_Source\PSoC5/ADC_SAR_1.c ****         #endif /* ADC_SAR_1_DEFAULT_REFERENCE == ADC_SAR_1__EXT_REF */
 180:.\Generated_Source\PSoC5/ADC_SAR_1.c ****     #else  /* Reference goes through internal buffer */
 181:.\Generated_Source\PSoC5/ADC_SAR_1.c ****         #if(ADC_SAR_1_DEFAULT_REFERENCE == ADC_SAR_1__INT_REF_NOT_BYPASSED)
 182:.\Generated_Source\PSoC5/ADC_SAR_1.c ****             ADC_SAR_1_SAR_CSR6_REG = ADC_SAR_1_INT_VREF;            /* S3 + S4 */
  65              		.loc 1 182 0
  66 0030 1821     		movs	r1, #24
 162:.\Generated_Source\PSoC5/ADC_SAR_1.c ****     tmpReg = ADC_SAR_1_SAR_CSR3_REG;
  67              		.loc 1 162 0
  68 0032 1A78     		ldrb	r2, [r3, #0]	@ zero_extendqisi2
  69              	.LVL3:
 169:.\Generated_Source\PSoC5/ADC_SAR_1.c ****         tmpReg |= ADC_SAR_1_SAR_EN_BUF_VREF_EN;
  70              		.loc 1 169 0
  71 0034 42F00300 		orr	r0, r2, #3
  72              	.LVL4:
 171:.\Generated_Source\PSoC5/ADC_SAR_1.c ****     ADC_SAR_1_SAR_CSR3_REG = tmpReg;
  73              		.loc 1 171 0
  74 0038 1870     		strb	r0, [r3, #0]
  75              		.loc 1 182 0
  76 003a D970     		strb	r1, [r3, #3]
 183:.\Generated_Source\PSoC5/ADC_SAR_1.c ****         #else /* INTREF Bypassed of External */
 184:.\Generated_Source\PSoC5/ADC_SAR_1.c ****             ADC_SAR_1_SAR_CSR6_REG = ADC_SAR_1_INT_BYPASS_EXT_VREF; /* S2 */
 185:.\Generated_Source\PSoC5/ADC_SAR_1.c ****         #endif /* ADC_SAR_1_DEFAULT_REFERENCE == ADC_SAR_1__INT_REF_NOT_BYPASSED */
 186:.\Generated_Source\PSoC5/ADC_SAR_1.c ****     #endif /* VNEG_VDDA_DIFF */
 187:.\Generated_Source\PSoC5/ADC_SAR_1.c **** 
 188:.\Generated_Source\PSoC5/ADC_SAR_1.c ****     /* Low non-overlap delay for sampling clock signals (for 1MSPS) */
 189:.\Generated_Source\PSoC5/ADC_SAR_1.c ****     #if(ADC_SAR_1_HIGH_POWER_PULSE == 0u) /* MinPulseWidth <= 50 ns */
 190:.\Generated_Source\PSoC5/ADC_SAR_1.c ****         ADC_SAR_1_SAR_CSR5_REG &= (uint8)~ADC_SAR_1_SAR_DLY_INC;
 191:.\Generated_Source\PSoC5/ADC_SAR_1.c ****     #else /* Set High non-overlap delay for sampling clock signals (for <500KSPS)*/
 192:.\Generated_Source\PSoC5/ADC_SAR_1.c ****         ADC_SAR_1_SAR_CSR5_REG |= ADC_SAR_1_SAR_DLY_INC;
  77              		.loc 1 192 0
  78 003c 9C78     		ldrb	r4, [r3, #2]	@ zero_extendqisi2
  79 003e 44F04002 		orr	r2, r4, #64
  80 0042 9A70     		strb	r2, [r3, #2]
 193:.\Generated_Source\PSoC5/ADC_SAR_1.c ****     #endif /* ADC_SAR_1_CLOCK_FREQUENCY > (ADC_SAR_1_MAX_FREQUENCY / 2) */
 194:.\Generated_Source\PSoC5/ADC_SAR_1.c **** 
 195:.\Generated_Source\PSoC5/ADC_SAR_1.c ****      /* Delay control for comparator latch enable, low delay, (Default for 1MSPS) */
 196:.\Generated_Source\PSoC5/ADC_SAR_1.c ****     #if(ADC_SAR_1_HIGH_POWER_PULSE == 0u) /* MinPulseWidth <= 50 ns */
 197:.\Generated_Source\PSoC5/ADC_SAR_1.c ****         ADC_SAR_1_SAR_CSR5_REG |= ADC_SAR_1_SAR_DCEN;
 198:.\Generated_Source\PSoC5/ADC_SAR_1.c ****     #else /* Delay control for comparator latch enable, high delay (for <500ksps)*/
 199:.\Generated_Source\PSoC5/ADC_SAR_1.c ****         ADC_SAR_1_SAR_CSR5_REG &= (uint8)~ADC_SAR_1_SAR_DCEN;
  81              		.loc 1 199 0
  82 0044 9878     		ldrb	r0, [r3, #2]	@ zero_extendqisi2
ARM GAS  C:\Users\Luke\AppData\Local\Temp\ccj7j385.s 			page 6


  83              	.LVL5:
 200:.\Generated_Source\PSoC5/ADC_SAR_1.c ****     #endif /* ADC_SAR_1_CLOCK_FREQUENCY > (ADC_SAR_1_MAX_FREQUENCY / 2) */
 201:.\Generated_Source\PSoC5/ADC_SAR_1.c **** 
 202:.\Generated_Source\PSoC5/ADC_SAR_1.c ****     /* Set default power and other configurations for control register 0 in multiple lines */
 203:.\Generated_Source\PSoC5/ADC_SAR_1.c ****     ADC_SAR_1_SAR_CSR0_REG = (uint8)((uint8)ADC_SAR_1_DEFAULT_POWER << ADC_SAR_1_SAR_POWER_SHIFT)
  84              		.loc 1 203 0
  85 0046 C824     		movs	r4, #200
 199:.\Generated_Source\PSoC5/ADC_SAR_1.c ****         ADC_SAR_1_SAR_CSR5_REG &= (uint8)~ADC_SAR_1_SAR_DCEN;
  86              		.loc 1 199 0
  87 0048 00F0DF01 		and	r1, r0, #223
  88 004c 9970     		strb	r1, [r3, #2]
  89              		.loc 1 203 0
  90 004e 03F8034C 		strb	r4, [r3, #-3]
 204:.\Generated_Source\PSoC5/ADC_SAR_1.c ****     /* SAR_HIZ_CLEAR:   Should not be used for LP */
 205:.\Generated_Source\PSoC5/ADC_SAR_1.c ****     #if ((CY_PSOC5LP) || (ADC_SAR_1_DEFAULT_REFERENCE != ADC_SAR_1__EXT_REF))
 206:.\Generated_Source\PSoC5/ADC_SAR_1.c ****         | ADC_SAR_1_SAR_HIZ_CLEAR
 207:.\Generated_Source\PSoC5/ADC_SAR_1.c ****     #endif /* SAR_HIZ_CLEAR */
 208:.\Generated_Source\PSoC5/ADC_SAR_1.c ****     /*Set Convertion mode */
 209:.\Generated_Source\PSoC5/ADC_SAR_1.c ****     #if(ADC_SAR_1_DEFAULT_CONV_MODE != ADC_SAR_1__FREE_RUNNING)      /* If triggered mode */
 210:.\Generated_Source\PSoC5/ADC_SAR_1.c ****         | ADC_SAR_1_SAR_MX_SOF_UDB           /* source: UDB */
 211:.\Generated_Source\PSoC5/ADC_SAR_1.c ****         | ADC_SAR_1_SAR_SOF_MODE_EDGE        /* Set edge-sensitive sof source */
 212:.\Generated_Source\PSoC5/ADC_SAR_1.c ****     #endif /* ADC_SAR_1_DEFAULT_CONV_MODE */
 213:.\Generated_Source\PSoC5/ADC_SAR_1.c ****     ; /* end of multiple line initialization */
 214:.\Generated_Source\PSoC5/ADC_SAR_1.c **** 
 215:.\Generated_Source\PSoC5/ADC_SAR_1.c ****     ADC_SAR_1_SAR_TR0_REG = ADC_SAR_1_SAR_CAP_TRIM_2;
  91              		.loc 1 215 0
  92 0052 0B4B     		ldr	r3, .L2+8
  93 0054 0224     		movs	r4, #2
 216:.\Generated_Source\PSoC5/ADC_SAR_1.c **** 
 217:.\Generated_Source\PSoC5/ADC_SAR_1.c ****     /* Enable clock for SAR ADC*/
 218:.\Generated_Source\PSoC5/ADC_SAR_1.c ****     ADC_SAR_1_SAR_CLK_REG |= ADC_SAR_1_SAR_MX_CLK_EN;
  94              		.loc 1 218 0
  95 0056 0B48     		ldr	r0, .L2+12
 215:.\Generated_Source\PSoC5/ADC_SAR_1.c ****     ADC_SAR_1_SAR_TR0_REG = ADC_SAR_1_SAR_CAP_TRIM_2;
  96              		.loc 1 215 0
  97 0058 1C70     		strb	r4, [r3, #0]
  98              		.loc 1 218 0
  99 005a 0278     		ldrb	r2, [r0, #0]	@ zero_extendqisi2
 100 005c 42F00801 		orr	r1, r2, #8
 101 0060 0170     		strb	r1, [r0, #0]
 219:.\Generated_Source\PSoC5/ADC_SAR_1.c **** 
 220:.\Generated_Source\PSoC5/ADC_SAR_1.c ****     CyDelayUs(10u); /* The block is ready to use 10 us after the enable signal is set high. */
 102              		.loc 1 220 0
 103 0062 0A20     		movs	r0, #10
 104 0064 FFF7FEFF 		bl	CyDelayUs
 105              	.LVL6:
 221:.\Generated_Source\PSoC5/ADC_SAR_1.c **** 
 222:.\Generated_Source\PSoC5/ADC_SAR_1.c ****     #if(ADC_SAR_1_IRQ_REMOVE == 0u)
 223:.\Generated_Source\PSoC5/ADC_SAR_1.c ****         /* Clear a pending interrupt */
 224:.\Generated_Source\PSoC5/ADC_SAR_1.c ****         CyIntClearPending(ADC_SAR_1_INTC_NUMBER);
 106              		.loc 1 224 0
 107 0068 074B     		ldr	r3, .L2+16
 225:.\Generated_Source\PSoC5/ADC_SAR_1.c ****     #endif   /* End ADC_SAR_1_IRQ_REMOVE */
 226:.\Generated_Source\PSoC5/ADC_SAR_1.c **** 
 227:.\Generated_Source\PSoC5/ADC_SAR_1.c ****     CyExitCriticalSection(enableInterrupts);
 108              		.loc 1 227 0
 109 006a 2846     		mov	r0, r5
ARM GAS  C:\Users\Luke\AppData\Local\Temp\ccj7j385.s 			page 7


 224:.\Generated_Source\PSoC5/ADC_SAR_1.c ****         CyIntClearPending(ADC_SAR_1_INTC_NUMBER);
 110              		.loc 1 224 0
 111 006c 1C60     		str	r4, [r3, #0]
 228:.\Generated_Source\PSoC5/ADC_SAR_1.c **** }
 112              		.loc 1 228 0
 113 006e BDE83840 		pop	{r3, r4, r5, lr}
 227:.\Generated_Source\PSoC5/ADC_SAR_1.c ****     CyExitCriticalSection(enableInterrupts);
 114              		.loc 1 227 0
 115 0072 FFF7FEBF 		b	CyExitCriticalSection
 116              	.LVL7:
 117              	.L3:
 118 0076 00BF     		.align	2
 119              	.L2:
 120 0078 AB430040 		.word	1073759147
 121 007c 0B590040 		.word	1073764619
 122 0080 16460040 		.word	1073759766
 123 0084 2F5B0040 		.word	1073765167
 124 0088 80E200E0 		.word	-536812928
 125              		.cfi_endproc
 126              	.LFE2:
 127              		.size	ADC_SAR_1_Enable, .-ADC_SAR_1_Enable
 128              		.section	.text.ADC_SAR_1_Stop,"ax",%progbits
 129              		.align	1
 130              		.global	ADC_SAR_1_Stop
 131              		.thumb
 132              		.thumb_func
 133              		.type	ADC_SAR_1_Stop, %function
 134              	ADC_SAR_1_Stop:
 135              	.LFB3:
 229:.\Generated_Source\PSoC5/ADC_SAR_1.c **** 
 230:.\Generated_Source\PSoC5/ADC_SAR_1.c **** 
 231:.\Generated_Source\PSoC5/ADC_SAR_1.c **** /*******************************************************************************
 232:.\Generated_Source\PSoC5/ADC_SAR_1.c **** * Function Name: ADC_SAR_1_Stop
 233:.\Generated_Source\PSoC5/ADC_SAR_1.c **** ********************************************************************************
 234:.\Generated_Source\PSoC5/ADC_SAR_1.c **** *
 235:.\Generated_Source\PSoC5/ADC_SAR_1.c **** * Summary:
 236:.\Generated_Source\PSoC5/ADC_SAR_1.c **** *  Stops ADC conversions and puts the ADC into its lowest power mode.
 237:.\Generated_Source\PSoC5/ADC_SAR_1.c **** *
 238:.\Generated_Source\PSoC5/ADC_SAR_1.c **** * Parameters:
 239:.\Generated_Source\PSoC5/ADC_SAR_1.c **** *  None.
 240:.\Generated_Source\PSoC5/ADC_SAR_1.c **** *
 241:.\Generated_Source\PSoC5/ADC_SAR_1.c **** * Return:
 242:.\Generated_Source\PSoC5/ADC_SAR_1.c **** *  None.
 243:.\Generated_Source\PSoC5/ADC_SAR_1.c **** *
 244:.\Generated_Source\PSoC5/ADC_SAR_1.c **** *******************************************************************************/
 245:.\Generated_Source\PSoC5/ADC_SAR_1.c **** void ADC_SAR_1_Stop(void)
 246:.\Generated_Source\PSoC5/ADC_SAR_1.c **** {
 136              		.loc 1 246 0
 137              		.cfi_startproc
 138              		@ args = 0, pretend = 0, frame = 0
 139              		@ frame_needed = 0, uses_anonymous_args = 0
 140 0000 08B5     		push	{r3, lr}
 141              	.LCFI1:
 142              		.cfi_def_cfa_offset 8
 143              		.cfi_offset 3, -8
 144              		.cfi_offset 14, -4
 247:.\Generated_Source\PSoC5/ADC_SAR_1.c ****     uint8 enableInterrupts;
ARM GAS  C:\Users\Luke\AppData\Local\Temp\ccj7j385.s 			page 8


 248:.\Generated_Source\PSoC5/ADC_SAR_1.c ****     enableInterrupts = CyEnterCriticalSection();
 145              		.loc 1 248 0
 146 0002 FFF7FEFF 		bl	CyEnterCriticalSection
 147              	.LVL8:
 249:.\Generated_Source\PSoC5/ADC_SAR_1.c **** 
 250:.\Generated_Source\PSoC5/ADC_SAR_1.c ****     /* Stop all conversions */
 251:.\Generated_Source\PSoC5/ADC_SAR_1.c ****     ADC_SAR_1_SAR_CSR0_REG &= (uint8)~ADC_SAR_1_SAR_SOF_START_CONV;
 148              		.loc 1 251 0
 149 0006 0E4B     		ldr	r3, .L5
 150 0008 1A78     		ldrb	r2, [r3, #0]	@ zero_extendqisi2
 151 000a 02F0FE01 		and	r1, r2, #254
 152 000e 1970     		strb	r1, [r3, #0]
 252:.\Generated_Source\PSoC5/ADC_SAR_1.c ****     /* Disable the SAR ADC block in Active Power Mode */
 253:.\Generated_Source\PSoC5/ADC_SAR_1.c ****     ADC_SAR_1_PWRMGR_SAR_REG &= (uint8)~ADC_SAR_1_ACT_PWR_SAR_EN;
 153              		.loc 1 253 0
 154 0010 0C4B     		ldr	r3, .L5+4
 155 0012 1A78     		ldrb	r2, [r3, #0]	@ zero_extendqisi2
 156 0014 02F0FD01 		and	r1, r2, #253
 157 0018 1970     		strb	r1, [r3, #0]
 254:.\Generated_Source\PSoC5/ADC_SAR_1.c ****     /* Disable the SAR ADC in Standby Power Mode */
 255:.\Generated_Source\PSoC5/ADC_SAR_1.c ****     ADC_SAR_1_STBY_PWRMGR_SAR_REG &= (uint8)~ADC_SAR_1_STBY_PWR_SAR_EN;
 158              		.loc 1 255 0
 159 001a 1A7C     		ldrb	r2, [r3, #16]	@ zero_extendqisi2
 160 001c 02F0FD01 		and	r1, r2, #253
 161 0020 1974     		strb	r1, [r3, #16]
 256:.\Generated_Source\PSoC5/ADC_SAR_1.c **** 
 257:.\Generated_Source\PSoC5/ADC_SAR_1.c ****     /* This is only valid if there is an internal clock */
 258:.\Generated_Source\PSoC5/ADC_SAR_1.c ****     #if(ADC_SAR_1_DEFAULT_INTERNAL_CLK)
 259:.\Generated_Source\PSoC5/ADC_SAR_1.c ****         ADC_SAR_1_PWRMGR_CLK_REG &= (uint8)~ADC_SAR_1_ACT_PWR_CLK_EN;
 162              		.loc 1 259 0
 163 0022 13F80A2C 		ldrb	r2, [r3, #-10]	@ zero_extendqisi2
 164 0026 02F0FE01 		and	r1, r2, #254
 165 002a 03F80A1C 		strb	r1, [r3, #-10]
 260:.\Generated_Source\PSoC5/ADC_SAR_1.c ****         ADC_SAR_1_STBY_PWRMGR_CLK_REG &= (uint8)~ADC_SAR_1_STBY_PWR_CLK_EN;
 166              		.loc 1 260 0
 167 002e 9A79     		ldrb	r2, [r3, #6]	@ zero_extendqisi2
 168 0030 02F0FE01 		and	r1, r2, #254
 169 0034 9971     		strb	r1, [r3, #6]
 261:.\Generated_Source\PSoC5/ADC_SAR_1.c ****     #endif /* End ADC_SAR_1_DEFAULT_INTERNAL_CLK */
 262:.\Generated_Source\PSoC5/ADC_SAR_1.c **** 
 263:.\Generated_Source\PSoC5/ADC_SAR_1.c ****     CyExitCriticalSection(enableInterrupts);
 264:.\Generated_Source\PSoC5/ADC_SAR_1.c **** 
 265:.\Generated_Source\PSoC5/ADC_SAR_1.c **** }
 170              		.loc 1 265 0
 171 0036 BDE80840 		pop	{r3, lr}
 263:.\Generated_Source\PSoC5/ADC_SAR_1.c ****     CyExitCriticalSection(enableInterrupts);
 172              		.loc 1 263 0
 173 003a FFF7FEBF 		b	CyExitCriticalSection
 174              	.LVL9:
 175              	.L6:
 176 003e 00BF     		.align	2
 177              	.L5:
 178 0040 08590040 		.word	1073764616
 179 0044 AB430040 		.word	1073759147
 180              		.cfi_endproc
 181              	.LFE3:
 182              		.size	ADC_SAR_1_Stop, .-ADC_SAR_1_Stop
ARM GAS  C:\Users\Luke\AppData\Local\Temp\ccj7j385.s 			page 9


 183              		.section	.text.ADC_SAR_1_SetPower,"ax",%progbits
 184              		.align	1
 185              		.global	ADC_SAR_1_SetPower
 186              		.thumb
 187              		.thumb_func
 188              		.type	ADC_SAR_1_SetPower, %function
 189              	ADC_SAR_1_SetPower:
 190              	.LFB4:
 266:.\Generated_Source\PSoC5/ADC_SAR_1.c **** 
 267:.\Generated_Source\PSoC5/ADC_SAR_1.c **** 
 268:.\Generated_Source\PSoC5/ADC_SAR_1.c **** /*******************************************************************************
 269:.\Generated_Source\PSoC5/ADC_SAR_1.c **** * Function Name: ADC_SAR_1_SetPower
 270:.\Generated_Source\PSoC5/ADC_SAR_1.c **** ********************************************************************************
 271:.\Generated_Source\PSoC5/ADC_SAR_1.c **** *
 272:.\Generated_Source\PSoC5/ADC_SAR_1.c **** * Summary:
 273:.\Generated_Source\PSoC5/ADC_SAR_1.c **** *  Sets the operational power of the ADC. You should use the higher power
 274:.\Generated_Source\PSoC5/ADC_SAR_1.c **** *  settings with faster clock speeds.
 275:.\Generated_Source\PSoC5/ADC_SAR_1.c **** *
 276:.\Generated_Source\PSoC5/ADC_SAR_1.c **** * Parameters:
 277:.\Generated_Source\PSoC5/ADC_SAR_1.c **** *  power:  Power setting for ADC
 278:.\Generated_Source\PSoC5/ADC_SAR_1.c **** *  0 ->    Normal
 279:.\Generated_Source\PSoC5/ADC_SAR_1.c **** *  1 ->    Medium power
 280:.\Generated_Source\PSoC5/ADC_SAR_1.c **** *  2 ->    1.25 power
 281:.\Generated_Source\PSoC5/ADC_SAR_1.c **** *  3 ->    Minimum power.
 282:.\Generated_Source\PSoC5/ADC_SAR_1.c **** *
 283:.\Generated_Source\PSoC5/ADC_SAR_1.c **** * Return:
 284:.\Generated_Source\PSoC5/ADC_SAR_1.c **** *  None.
 285:.\Generated_Source\PSoC5/ADC_SAR_1.c **** *
 286:.\Generated_Source\PSoC5/ADC_SAR_1.c **** *******************************************************************************/
 287:.\Generated_Source\PSoC5/ADC_SAR_1.c **** void ADC_SAR_1_SetPower(uint8 power)
 288:.\Generated_Source\PSoC5/ADC_SAR_1.c **** {
 191              		.loc 1 288 0
 192              		.cfi_startproc
 193              		@ args = 0, pretend = 0, frame = 0
 194              		@ frame_needed = 0, uses_anonymous_args = 0
 195              		@ link register save eliminated.
 196              	.LVL10:
 289:.\Generated_Source\PSoC5/ADC_SAR_1.c ****     uint8 tmpReg;
 290:.\Generated_Source\PSoC5/ADC_SAR_1.c **** 
 291:.\Generated_Source\PSoC5/ADC_SAR_1.c ****     /* mask off invalid power settings */
 292:.\Generated_Source\PSoC5/ADC_SAR_1.c ****     power &= ADC_SAR_1_SAR_API_POWER_MASK;
 293:.\Generated_Source\PSoC5/ADC_SAR_1.c **** 
 294:.\Generated_Source\PSoC5/ADC_SAR_1.c ****     /* Set Power parameter  */
 295:.\Generated_Source\PSoC5/ADC_SAR_1.c ****     tmpReg = ADC_SAR_1_SAR_CSR0_REG & (uint8)~ADC_SAR_1_SAR_POWER_MASK;
 197              		.loc 1 295 0
 198 0000 044B     		ldr	r3, .L8
 292:.\Generated_Source\PSoC5/ADC_SAR_1.c ****     power &= ADC_SAR_1_SAR_API_POWER_MASK;
 199              		.loc 1 292 0
 200 0002 00F00300 		and	r0, r0, #3
 201              	.LVL11:
 202              		.loc 1 295 0
 203 0006 1A78     		ldrb	r2, [r3, #0]	@ zero_extendqisi2
 204 0008 02F03F01 		and	r1, r2, #63
 205              	.LVL12:
 296:.\Generated_Source\PSoC5/ADC_SAR_1.c ****     tmpReg |= (uint8)(power << ADC_SAR_1_SAR_POWER_SHIFT);
 206              		.loc 1 296 0
 207 000c 41EA8012 		orr	r2, r1, r0, lsl #6
ARM GAS  C:\Users\Luke\AppData\Local\Temp\ccj7j385.s 			page 10


 208              	.LVL13:
 297:.\Generated_Source\PSoC5/ADC_SAR_1.c ****     ADC_SAR_1_SAR_CSR0_REG = tmpReg;
 209              		.loc 1 297 0
 210 0010 1A70     		strb	r2, [r3, #0]
 211 0012 7047     		bx	lr
 212              	.L9:
 213              		.align	2
 214              	.L8:
 215 0014 08590040 		.word	1073764616
 216              		.cfi_endproc
 217              	.LFE4:
 218              		.size	ADC_SAR_1_SetPower, .-ADC_SAR_1_SetPower
 219              		.section	.text.ADC_SAR_1_SetResolution,"ax",%progbits
 220              		.align	1
 221              		.global	ADC_SAR_1_SetResolution
 222              		.thumb
 223              		.thumb_func
 224              		.type	ADC_SAR_1_SetResolution, %function
 225              	ADC_SAR_1_SetResolution:
 226              	.LFB5:
 298:.\Generated_Source\PSoC5/ADC_SAR_1.c **** }
 299:.\Generated_Source\PSoC5/ADC_SAR_1.c **** 
 300:.\Generated_Source\PSoC5/ADC_SAR_1.c **** 
 301:.\Generated_Source\PSoC5/ADC_SAR_1.c **** /*******************************************************************************
 302:.\Generated_Source\PSoC5/ADC_SAR_1.c **** * Function Name: ADC_SAR_1_SetResolution
 303:.\Generated_Source\PSoC5/ADC_SAR_1.c **** ********************************************************************************
 304:.\Generated_Source\PSoC5/ADC_SAR_1.c **** *
 305:.\Generated_Source\PSoC5/ADC_SAR_1.c **** * Summary:
 306:.\Generated_Source\PSoC5/ADC_SAR_1.c **** *  Sets the Relution of the SAR.
 307:.\Generated_Source\PSoC5/ADC_SAR_1.c **** *
 308:.\Generated_Source\PSoC5/ADC_SAR_1.c **** * Parameters:
 309:.\Generated_Source\PSoC5/ADC_SAR_1.c **** *  resolution:
 310:.\Generated_Source\PSoC5/ADC_SAR_1.c **** *  12 ->    RES12
 311:.\Generated_Source\PSoC5/ADC_SAR_1.c **** *  10 ->    RES10
 312:.\Generated_Source\PSoC5/ADC_SAR_1.c **** *  8  ->    RES8
 313:.\Generated_Source\PSoC5/ADC_SAR_1.c **** *
 314:.\Generated_Source\PSoC5/ADC_SAR_1.c **** * Return:
 315:.\Generated_Source\PSoC5/ADC_SAR_1.c **** *  None.
 316:.\Generated_Source\PSoC5/ADC_SAR_1.c **** *
 317:.\Generated_Source\PSoC5/ADC_SAR_1.c **** * Side Effects:
 318:.\Generated_Source\PSoC5/ADC_SAR_1.c **** *  The ADC resolution cannot be changed during a conversion cycle. The
 319:.\Generated_Source\PSoC5/ADC_SAR_1.c **** *  recommended best practice is to stop conversions with
 320:.\Generated_Source\PSoC5/ADC_SAR_1.c **** *  ADC_StopConvert(), change the resolution, then restart the
 321:.\Generated_Source\PSoC5/ADC_SAR_1.c **** *  conversions with ADC_StartConvert().
 322:.\Generated_Source\PSoC5/ADC_SAR_1.c **** *  If you decide not to stop conversions before calling this API, you
 323:.\Generated_Source\PSoC5/ADC_SAR_1.c **** *  should use ADC_IsEndConversion() to wait until conversion is complete
 324:.\Generated_Source\PSoC5/ADC_SAR_1.c **** *  before changing the resolution.
 325:.\Generated_Source\PSoC5/ADC_SAR_1.c **** *  If you call ADC_SetResolution() during a conversion, the resolution will
 326:.\Generated_Source\PSoC5/ADC_SAR_1.c **** *  not be changed until the current conversion is complete. Data will not be
 327:.\Generated_Source\PSoC5/ADC_SAR_1.c **** *  available in the new resolution for another 6 + "New Resolution(in bits)"
 328:.\Generated_Source\PSoC5/ADC_SAR_1.c **** *  clock cycles.
 329:.\Generated_Source\PSoC5/ADC_SAR_1.c **** *  You may need add a delay of this number of clock cycles after
 330:.\Generated_Source\PSoC5/ADC_SAR_1.c **** *  ADC_SetResolution() is called before data is valid again.
 331:.\Generated_Source\PSoC5/ADC_SAR_1.c **** *  Affects ADC_CountsTo_Volts(), ADC_CountsTo_mVolts(), and
 332:.\Generated_Source\PSoC5/ADC_SAR_1.c **** *  ADC_CountsTo_uVolts() by calculating the correct conversion between ADC
 333:.\Generated_Source\PSoC5/ADC_SAR_1.c **** *  counts and the applied input voltage. Calculation depends on resolution,
 334:.\Generated_Source\PSoC5/ADC_SAR_1.c **** *  input range, and voltage reference.
ARM GAS  C:\Users\Luke\AppData\Local\Temp\ccj7j385.s 			page 11


 335:.\Generated_Source\PSoC5/ADC_SAR_1.c **** *
 336:.\Generated_Source\PSoC5/ADC_SAR_1.c **** *******************************************************************************/
 337:.\Generated_Source\PSoC5/ADC_SAR_1.c **** void ADC_SAR_1_SetResolution(uint8 resolution)
 338:.\Generated_Source\PSoC5/ADC_SAR_1.c **** {
 227              		.loc 1 338 0
 228              		.cfi_startproc
 229              		@ args = 0, pretend = 0, frame = 0
 230              		@ frame_needed = 0, uses_anonymous_args = 0
 231              		@ link register save eliminated.
 232              	.LVL14:
 233 0000 0838     		subs	r0, r0, #8
 234              	.LVL15:
 235 0002 C0B2     		uxtb	r0, r0
 236 0004 0228     		cmp	r0, #2
 237 0006 98BF     		it	ls
 238 0008 0F4B     		ldrls	r3, .L15
 339:.\Generated_Source\PSoC5/ADC_SAR_1.c ****     uint8 tmpReg;
 340:.\Generated_Source\PSoC5/ADC_SAR_1.c **** 
 341:.\Generated_Source\PSoC5/ADC_SAR_1.c ****     /* Set SAR ADC resolution and sample width: 18 conversion cycles at 12bits + 1 gap */
 342:.\Generated_Source\PSoC5/ADC_SAR_1.c ****     switch (resolution)
 343:.\Generated_Source\PSoC5/ADC_SAR_1.c ****     {
 344:.\Generated_Source\PSoC5/ADC_SAR_1.c ****         case (uint8)ADC_SAR_1__BITS_12:
 345:.\Generated_Source\PSoC5/ADC_SAR_1.c ****             tmpReg = ADC_SAR_1_SAR_RESOLUTION_12BIT | ADC_SAR_1_SAR_SAMPLE_WIDTH;
 346:.\Generated_Source\PSoC5/ADC_SAR_1.c ****             break;
 347:.\Generated_Source\PSoC5/ADC_SAR_1.c ****         case (uint8)ADC_SAR_1__BITS_10:
 348:.\Generated_Source\PSoC5/ADC_SAR_1.c ****             tmpReg = ADC_SAR_1_SAR_RESOLUTION_10BIT | ADC_SAR_1_SAR_SAMPLE_WIDTH;
 349:.\Generated_Source\PSoC5/ADC_SAR_1.c ****             break;
 350:.\Generated_Source\PSoC5/ADC_SAR_1.c ****         case (uint8)ADC_SAR_1__BITS_8:
 351:.\Generated_Source\PSoC5/ADC_SAR_1.c ****             tmpReg = ADC_SAR_1_SAR_RESOLUTION_8BIT | ADC_SAR_1_SAR_SAMPLE_WIDTH;
 352:.\Generated_Source\PSoC5/ADC_SAR_1.c ****             break;
 353:.\Generated_Source\PSoC5/ADC_SAR_1.c ****         default:
 354:.\Generated_Source\PSoC5/ADC_SAR_1.c ****             tmpReg = ADC_SAR_1_SAR_RESOLUTION_12BIT | ADC_SAR_1_SAR_SAMPLE_WIDTH;
 355:.\Generated_Source\PSoC5/ADC_SAR_1.c ****             /* Halt CPU in debug mode if resolution is out of valid range */
 356:.\Generated_Source\PSoC5/ADC_SAR_1.c ****             CYASSERT(0u != 0u);
 357:.\Generated_Source\PSoC5/ADC_SAR_1.c ****             break;
 358:.\Generated_Source\PSoC5/ADC_SAR_1.c ****     }
 359:.\Generated_Source\PSoC5/ADC_SAR_1.c ****     ADC_SAR_1_SAR_CSR2_REG = tmpReg;
 239              		.loc 1 359 0
 240 000a 104A     		ldr	r2, .L15+4
 241 000c 94BF     		ite	ls
 242 000e 1B5C     		ldrbls	r3, [r3, r0]	@ zero_extendqisi2
 338:.\Generated_Source\PSoC5/ADC_SAR_1.c **** {
 243              		.loc 1 338 0
 244 0010 C423     		movhi	r3, #196
 245              	.LVL16:
 246 0012 0428     		cmp	r0, #4
 247              		.loc 1 359 0
 248 0014 1370     		strb	r3, [r2, #0]
 249              	.LBB4:
 360:.\Generated_Source\PSoC5/ADC_SAR_1.c **** 
 361:.\Generated_Source\PSoC5/ADC_SAR_1.c ****      /* Calculate gain for convert counts to volts */
 362:.\Generated_Source\PSoC5/ADC_SAR_1.c ****     ADC_SAR_1_CalcGain(resolution);
 363:.\Generated_Source\PSoC5/ADC_SAR_1.c **** }
 364:.\Generated_Source\PSoC5/ADC_SAR_1.c **** 
 365:.\Generated_Source\PSoC5/ADC_SAR_1.c **** 
 366:.\Generated_Source\PSoC5/ADC_SAR_1.c **** #if(ADC_SAR_1_DEFAULT_CONV_MODE != ADC_SAR_1__HARDWARE_TRIGGER)
 367:.\Generated_Source\PSoC5/ADC_SAR_1.c **** 
ARM GAS  C:\Users\Luke\AppData\Local\Temp\ccj7j385.s 			page 12


 368:.\Generated_Source\PSoC5/ADC_SAR_1.c **** 
 369:.\Generated_Source\PSoC5/ADC_SAR_1.c ****     /*******************************************************************************
 370:.\Generated_Source\PSoC5/ADC_SAR_1.c ****     * Function Name: ADC_SAR_1_StartConvert
 371:.\Generated_Source\PSoC5/ADC_SAR_1.c ****     ********************************************************************************
 372:.\Generated_Source\PSoC5/ADC_SAR_1.c ****     *
 373:.\Generated_Source\PSoC5/ADC_SAR_1.c ****     * Summary:
 374:.\Generated_Source\PSoC5/ADC_SAR_1.c ****     *  Forces the ADC to initiate a conversion. In free-running mode, the ADC runs
 375:.\Generated_Source\PSoC5/ADC_SAR_1.c ****     *  continuously. In software trigger mode, the function also acts as a software
 376:.\Generated_Source\PSoC5/ADC_SAR_1.c ****     *  version of the SOC and every conversion must be triggered by
 377:.\Generated_Source\PSoC5/ADC_SAR_1.c ****     *  ADC_SAR_1_StartConvert(). This function is not available when the
 378:.\Generated_Source\PSoC5/ADC_SAR_1.c ****     *  Hardware Trigger sample mode is selected.
 379:.\Generated_Source\PSoC5/ADC_SAR_1.c ****     *
 380:.\Generated_Source\PSoC5/ADC_SAR_1.c ****     * Parameters:
 381:.\Generated_Source\PSoC5/ADC_SAR_1.c ****     *  None.
 382:.\Generated_Source\PSoC5/ADC_SAR_1.c ****     *
 383:.\Generated_Source\PSoC5/ADC_SAR_1.c ****     * Return:
 384:.\Generated_Source\PSoC5/ADC_SAR_1.c ****     *  None.
 385:.\Generated_Source\PSoC5/ADC_SAR_1.c ****     *
 386:.\Generated_Source\PSoC5/ADC_SAR_1.c ****     * Theory:
 387:.\Generated_Source\PSoC5/ADC_SAR_1.c ****     *  Forces the ADC to initiate a conversion. In Free Running mode, the ADC will
 388:.\Generated_Source\PSoC5/ADC_SAR_1.c ****     *  run continuously. In a software trigger mode the function also acts as a
 389:.\Generated_Source\PSoC5/ADC_SAR_1.c ****     *  software version of the SOC. Here every conversion has to be triggered by
 390:.\Generated_Source\PSoC5/ADC_SAR_1.c ****     *  the routine. This writes into the SOC bit in SAR_CTRL reg.
 391:.\Generated_Source\PSoC5/ADC_SAR_1.c ****     *
 392:.\Generated_Source\PSoC5/ADC_SAR_1.c ****     * Side Effects:
 393:.\Generated_Source\PSoC5/ADC_SAR_1.c ****     *  In a software trigger mode the function switches source for SOF from the
 394:.\Generated_Source\PSoC5/ADC_SAR_1.c ****     *  external pin to the internal SOF generation. Application should not call
 395:.\Generated_Source\PSoC5/ADC_SAR_1.c ****     *  StartConvert if external source used for SOF.
 396:.\Generated_Source\PSoC5/ADC_SAR_1.c ****     *
 397:.\Generated_Source\PSoC5/ADC_SAR_1.c ****     *******************************************************************************/
 398:.\Generated_Source\PSoC5/ADC_SAR_1.c ****     void ADC_SAR_1_StartConvert(void)
 399:.\Generated_Source\PSoC5/ADC_SAR_1.c ****     {
 400:.\Generated_Source\PSoC5/ADC_SAR_1.c ****         #if(ADC_SAR_1_DEFAULT_CONV_MODE != ADC_SAR_1__FREE_RUNNING)  /* If software triggered mode 
 401:.\Generated_Source\PSoC5/ADC_SAR_1.c ****             ADC_SAR_1_SAR_CSR0_REG &= (uint8)~ADC_SAR_1_SAR_MX_SOF_UDB;   /* source: SOF bit */
 402:.\Generated_Source\PSoC5/ADC_SAR_1.c ****         #endif /* End ADC_SAR_1_DEFAULT_CONV_MODE */
 403:.\Generated_Source\PSoC5/ADC_SAR_1.c **** 
 404:.\Generated_Source\PSoC5/ADC_SAR_1.c ****         /* Start the conversion */
 405:.\Generated_Source\PSoC5/ADC_SAR_1.c ****         ADC_SAR_1_SAR_CSR0_REG |= ADC_SAR_1_SAR_SOF_START_CONV;
 406:.\Generated_Source\PSoC5/ADC_SAR_1.c ****     }
 407:.\Generated_Source\PSoC5/ADC_SAR_1.c **** 
 408:.\Generated_Source\PSoC5/ADC_SAR_1.c **** 
 409:.\Generated_Source\PSoC5/ADC_SAR_1.c ****     /*******************************************************************************
 410:.\Generated_Source\PSoC5/ADC_SAR_1.c ****     * Function Name: ADC_SAR_1_StopConvert
 411:.\Generated_Source\PSoC5/ADC_SAR_1.c ****     ********************************************************************************
 412:.\Generated_Source\PSoC5/ADC_SAR_1.c ****     *
 413:.\Generated_Source\PSoC5/ADC_SAR_1.c ****     * Summary:
 414:.\Generated_Source\PSoC5/ADC_SAR_1.c ****     *  Forces the ADC to stop conversions. If a conversion is currently executing,
 415:.\Generated_Source\PSoC5/ADC_SAR_1.c ****     *  that conversion will complete, but no further conversions will occur. This
 416:.\Generated_Source\PSoC5/ADC_SAR_1.c ****     *  function is not available when the Hardware Trigger sample mode is selected.
 417:.\Generated_Source\PSoC5/ADC_SAR_1.c ****     *
 418:.\Generated_Source\PSoC5/ADC_SAR_1.c ****     * Parameters:
 419:.\Generated_Source\PSoC5/ADC_SAR_1.c ****     *  None.
 420:.\Generated_Source\PSoC5/ADC_SAR_1.c ****     *
 421:.\Generated_Source\PSoC5/ADC_SAR_1.c ****     * Return:
 422:.\Generated_Source\PSoC5/ADC_SAR_1.c ****     *  None.
 423:.\Generated_Source\PSoC5/ADC_SAR_1.c ****     *
 424:.\Generated_Source\PSoC5/ADC_SAR_1.c ****     * Theory:
ARM GAS  C:\Users\Luke\AppData\Local\Temp\ccj7j385.s 			page 13


 425:.\Generated_Source\PSoC5/ADC_SAR_1.c ****     *  Stops ADC conversion in Free Running mode.
 426:.\Generated_Source\PSoC5/ADC_SAR_1.c ****     *
 427:.\Generated_Source\PSoC5/ADC_SAR_1.c ****     * Side Effects:
 428:.\Generated_Source\PSoC5/ADC_SAR_1.c ****     *  In Software Trigger sample mode, this function sets a software version of the
 429:.\Generated_Source\PSoC5/ADC_SAR_1.c ****     *  SOC to low level and switches the SOC source to hardware SOC input.
 430:.\Generated_Source\PSoC5/ADC_SAR_1.c ****     *
 431:.\Generated_Source\PSoC5/ADC_SAR_1.c ****     *******************************************************************************/
 432:.\Generated_Source\PSoC5/ADC_SAR_1.c ****     void ADC_SAR_1_StopConvert(void)
 433:.\Generated_Source\PSoC5/ADC_SAR_1.c ****     {
 434:.\Generated_Source\PSoC5/ADC_SAR_1.c ****         /* Stop all conversions */
 435:.\Generated_Source\PSoC5/ADC_SAR_1.c ****         ADC_SAR_1_SAR_CSR0_REG &= (uint8)~ADC_SAR_1_SAR_SOF_START_CONV;
 436:.\Generated_Source\PSoC5/ADC_SAR_1.c **** 
 437:.\Generated_Source\PSoC5/ADC_SAR_1.c ****         #if(ADC_SAR_1_DEFAULT_CONV_MODE != ADC_SAR_1__FREE_RUNNING)  /* If software triggered mode 
 438:.\Generated_Source\PSoC5/ADC_SAR_1.c ****             /* Return source to UDB for hardware SOF signal */
 439:.\Generated_Source\PSoC5/ADC_SAR_1.c ****             ADC_SAR_1_SAR_CSR0_REG |= ADC_SAR_1_SAR_MX_SOF_UDB;    /* source: UDB */
 440:.\Generated_Source\PSoC5/ADC_SAR_1.c ****         #endif /* End ADC_SAR_1_DEFAULT_CONV_MODE */
 441:.\Generated_Source\PSoC5/ADC_SAR_1.c **** 
 442:.\Generated_Source\PSoC5/ADC_SAR_1.c ****     }
 443:.\Generated_Source\PSoC5/ADC_SAR_1.c **** 
 444:.\Generated_Source\PSoC5/ADC_SAR_1.c **** #endif /* End ADC_SAR_1_DEFAULT_CONV_MODE != ADC_SAR_1__HARDWARE_TRIGGER */
 445:.\Generated_Source\PSoC5/ADC_SAR_1.c **** 
 446:.\Generated_Source\PSoC5/ADC_SAR_1.c **** 
 447:.\Generated_Source\PSoC5/ADC_SAR_1.c **** /*******************************************************************************
 448:.\Generated_Source\PSoC5/ADC_SAR_1.c **** * Function Name: ADC_SAR_1_IsEndConversion
 449:.\Generated_Source\PSoC5/ADC_SAR_1.c **** ********************************************************************************
 450:.\Generated_Source\PSoC5/ADC_SAR_1.c **** *
 451:.\Generated_Source\PSoC5/ADC_SAR_1.c **** * Summary:
 452:.\Generated_Source\PSoC5/ADC_SAR_1.c **** *  Immediately returns the status of the conversion or does not return
 453:.\Generated_Source\PSoC5/ADC_SAR_1.c **** *  (blocking) until the conversion completes, depending on the retMode
 454:.\Generated_Source\PSoC5/ADC_SAR_1.c **** *  parameter.
 455:.\Generated_Source\PSoC5/ADC_SAR_1.c **** *
 456:.\Generated_Source\PSoC5/ADC_SAR_1.c **** * Parameters:
 457:.\Generated_Source\PSoC5/ADC_SAR_1.c **** *  retMode:  Check conversion return mode.
 458:.\Generated_Source\PSoC5/ADC_SAR_1.c **** *   ADC_SAR_1_RETURN_STATUS: Immediately returns the status. If the
 459:.\Generated_Source\PSoC5/ADC_SAR_1.c **** *     value returned is zero, the conversion is not complete, and this function
 460:.\Generated_Source\PSoC5/ADC_SAR_1.c **** *     should be retried until a nonzero result is returned.
 461:.\Generated_Source\PSoC5/ADC_SAR_1.c **** *   ADC_SAR_1_WAIT_FOR_RESULT: Does not return a result until the ADC
 462:.\Generated_Source\PSoC5/ADC_SAR_1.c **** *     conversion is complete.
 463:.\Generated_Source\PSoC5/ADC_SAR_1.c **** *
 464:.\Generated_Source\PSoC5/ADC_SAR_1.c **** * Return:
 465:.\Generated_Source\PSoC5/ADC_SAR_1.c **** *  (uint8)  0 =>  The ADC is still calculating the last result.
 466:.\Generated_Source\PSoC5/ADC_SAR_1.c **** *           1 =>  The last conversion is complete.
 467:.\Generated_Source\PSoC5/ADC_SAR_1.c **** *
 468:.\Generated_Source\PSoC5/ADC_SAR_1.c **** * Side Effects:
 469:.\Generated_Source\PSoC5/ADC_SAR_1.c **** *  This function reads the end of conversion status, which is cleared on read.
 470:.\Generated_Source\PSoC5/ADC_SAR_1.c **** *
 471:.\Generated_Source\PSoC5/ADC_SAR_1.c **** *******************************************************************************/
 472:.\Generated_Source\PSoC5/ADC_SAR_1.c **** uint8 ADC_SAR_1_IsEndConversion(uint8 retMode)
 473:.\Generated_Source\PSoC5/ADC_SAR_1.c **** {
 474:.\Generated_Source\PSoC5/ADC_SAR_1.c ****     uint8 status;
 475:.\Generated_Source\PSoC5/ADC_SAR_1.c **** 
 476:.\Generated_Source\PSoC5/ADC_SAR_1.c ****     do
 477:.\Generated_Source\PSoC5/ADC_SAR_1.c ****     {
 478:.\Generated_Source\PSoC5/ADC_SAR_1.c ****         status = ADC_SAR_1_SAR_CSR1_REG & ADC_SAR_1_SAR_EOF_1;
 479:.\Generated_Source\PSoC5/ADC_SAR_1.c ****     } while ((status != ADC_SAR_1_SAR_EOF_1) && (retMode == ADC_SAR_1_WAIT_FOR_RESULT));
 480:.\Generated_Source\PSoC5/ADC_SAR_1.c ****     /* If convertion complete, wait until EOF bit released */
 481:.\Generated_Source\PSoC5/ADC_SAR_1.c ****     if(status == ADC_SAR_1_SAR_EOF_1)
ARM GAS  C:\Users\Luke\AppData\Local\Temp\ccj7j385.s 			page 14


 482:.\Generated_Source\PSoC5/ADC_SAR_1.c ****     {
 483:.\Generated_Source\PSoC5/ADC_SAR_1.c ****         /* wait one ADC clock to let the EOC status bit release */
 484:.\Generated_Source\PSoC5/ADC_SAR_1.c ****         CyDelayUs(1u);
 485:.\Generated_Source\PSoC5/ADC_SAR_1.c ****         /* Do the unconditional read operation of the CSR1 register to make sure the EOC bit has be
 486:.\Generated_Source\PSoC5/ADC_SAR_1.c ****         CY_GET_REG8(ADC_SAR_1_SAR_CSR1_PTR);
 487:.\Generated_Source\PSoC5/ADC_SAR_1.c ****     }
 488:.\Generated_Source\PSoC5/ADC_SAR_1.c **** 
 489:.\Generated_Source\PSoC5/ADC_SAR_1.c ****     return(status);
 490:.\Generated_Source\PSoC5/ADC_SAR_1.c **** }
 491:.\Generated_Source\PSoC5/ADC_SAR_1.c **** 
 492:.\Generated_Source\PSoC5/ADC_SAR_1.c **** 
 493:.\Generated_Source\PSoC5/ADC_SAR_1.c **** /*******************************************************************************
 494:.\Generated_Source\PSoC5/ADC_SAR_1.c **** * Function Name: ADC_SAR_1_GetResult8
 495:.\Generated_Source\PSoC5/ADC_SAR_1.c **** ********************************************************************************
 496:.\Generated_Source\PSoC5/ADC_SAR_1.c **** *
 497:.\Generated_Source\PSoC5/ADC_SAR_1.c **** * Summary:
 498:.\Generated_Source\PSoC5/ADC_SAR_1.c **** *  Returns the result of an 8-bit conversion. If the resolution is set greater
 499:.\Generated_Source\PSoC5/ADC_SAR_1.c **** *  than 8 bits, the function returns the LSB of the result.
 500:.\Generated_Source\PSoC5/ADC_SAR_1.c **** *  ADC_SAR_1_IsEndConversion() should be called to verify that the data
 501:.\Generated_Source\PSoC5/ADC_SAR_1.c **** *   sample is ready.
 502:.\Generated_Source\PSoC5/ADC_SAR_1.c **** *
 503:.\Generated_Source\PSoC5/ADC_SAR_1.c **** * Parameters:
 504:.\Generated_Source\PSoC5/ADC_SAR_1.c **** *  None.
 505:.\Generated_Source\PSoC5/ADC_SAR_1.c **** *
 506:.\Generated_Source\PSoC5/ADC_SAR_1.c **** * Return:
 507:.\Generated_Source\PSoC5/ADC_SAR_1.c **** *  The LSB of the last ADC conversion.
 508:.\Generated_Source\PSoC5/ADC_SAR_1.c **** *
 509:.\Generated_Source\PSoC5/ADC_SAR_1.c **** * Global Variables:
 510:.\Generated_Source\PSoC5/ADC_SAR_1.c **** *  ADC_SAR_1_shift - used to convert the ADC counts to the 2s
 511:.\Generated_Source\PSoC5/ADC_SAR_1.c **** *  compliment form.
 512:.\Generated_Source\PSoC5/ADC_SAR_1.c **** *
 513:.\Generated_Source\PSoC5/ADC_SAR_1.c **** * Side Effects:
 514:.\Generated_Source\PSoC5/ADC_SAR_1.c **** *  Converts the ADC counts to the 2s complement form.
 515:.\Generated_Source\PSoC5/ADC_SAR_1.c **** *
 516:.\Generated_Source\PSoC5/ADC_SAR_1.c **** *******************************************************************************/
 517:.\Generated_Source\PSoC5/ADC_SAR_1.c **** int8 ADC_SAR_1_GetResult8( void )
 518:.\Generated_Source\PSoC5/ADC_SAR_1.c **** {
 519:.\Generated_Source\PSoC5/ADC_SAR_1.c ****     return( (int8)ADC_SAR_1_SAR_WRK0_REG - (int8)ADC_SAR_1_shift);
 520:.\Generated_Source\PSoC5/ADC_SAR_1.c **** }
 521:.\Generated_Source\PSoC5/ADC_SAR_1.c **** 
 522:.\Generated_Source\PSoC5/ADC_SAR_1.c **** 
 523:.\Generated_Source\PSoC5/ADC_SAR_1.c **** /*******************************************************************************
 524:.\Generated_Source\PSoC5/ADC_SAR_1.c **** * Function Name: ADC_SAR_1_GetResult16
 525:.\Generated_Source\PSoC5/ADC_SAR_1.c **** ********************************************************************************
 526:.\Generated_Source\PSoC5/ADC_SAR_1.c **** *
 527:.\Generated_Source\PSoC5/ADC_SAR_1.c **** * Summary:
 528:.\Generated_Source\PSoC5/ADC_SAR_1.c **** *  Returns a 16-bit result for a conversion with a result that has a resolution
 529:.\Generated_Source\PSoC5/ADC_SAR_1.c **** *  of 8 to 12 bits.
 530:.\Generated_Source\PSoC5/ADC_SAR_1.c **** *  ADC_SAR_1_IsEndConversion() should be called to verify that the data
 531:.\Generated_Source\PSoC5/ADC_SAR_1.c **** *   sample is ready
 532:.\Generated_Source\PSoC5/ADC_SAR_1.c **** *
 533:.\Generated_Source\PSoC5/ADC_SAR_1.c **** * Parameters:
 534:.\Generated_Source\PSoC5/ADC_SAR_1.c **** *  None.
 535:.\Generated_Source\PSoC5/ADC_SAR_1.c **** *
 536:.\Generated_Source\PSoC5/ADC_SAR_1.c **** * Return:
 537:.\Generated_Source\PSoC5/ADC_SAR_1.c **** *  The 16-bit result of the last ADC conversion
 538:.\Generated_Source\PSoC5/ADC_SAR_1.c **** *
ARM GAS  C:\Users\Luke\AppData\Local\Temp\ccj7j385.s 			page 15


 539:.\Generated_Source\PSoC5/ADC_SAR_1.c **** * Global Variables:
 540:.\Generated_Source\PSoC5/ADC_SAR_1.c **** *  ADC_SAR_1_shift - used to convert the ADC counts to the 2s
 541:.\Generated_Source\PSoC5/ADC_SAR_1.c **** *  compliment form.
 542:.\Generated_Source\PSoC5/ADC_SAR_1.c **** *
 543:.\Generated_Source\PSoC5/ADC_SAR_1.c **** * Side Effects:
 544:.\Generated_Source\PSoC5/ADC_SAR_1.c **** *  Converts the ADC counts to the 2s complement form.
 545:.\Generated_Source\PSoC5/ADC_SAR_1.c **** *
 546:.\Generated_Source\PSoC5/ADC_SAR_1.c **** *******************************************************************************/
 547:.\Generated_Source\PSoC5/ADC_SAR_1.c **** int16 ADC_SAR_1_GetResult16( void )
 548:.\Generated_Source\PSoC5/ADC_SAR_1.c **** {
 549:.\Generated_Source\PSoC5/ADC_SAR_1.c ****     uint16 res;
 550:.\Generated_Source\PSoC5/ADC_SAR_1.c **** 
 551:.\Generated_Source\PSoC5/ADC_SAR_1.c ****     res = CY_GET_REG16(ADC_SAR_1_SAR_WRK_PTR);
 552:.\Generated_Source\PSoC5/ADC_SAR_1.c **** 
 553:.\Generated_Source\PSoC5/ADC_SAR_1.c ****     return( (int16)res - ADC_SAR_1_shift );
 554:.\Generated_Source\PSoC5/ADC_SAR_1.c **** }
 555:.\Generated_Source\PSoC5/ADC_SAR_1.c **** 
 556:.\Generated_Source\PSoC5/ADC_SAR_1.c **** 
 557:.\Generated_Source\PSoC5/ADC_SAR_1.c **** /*******************************************************************************
 558:.\Generated_Source\PSoC5/ADC_SAR_1.c **** * Function Name: ADC_SAR_1_SetOffset
 559:.\Generated_Source\PSoC5/ADC_SAR_1.c **** ********************************************************************************
 560:.\Generated_Source\PSoC5/ADC_SAR_1.c **** *
 561:.\Generated_Source\PSoC5/ADC_SAR_1.c **** * Summary:
 562:.\Generated_Source\PSoC5/ADC_SAR_1.c **** *  Sets the ADC offset, which is used by ADC_SAR_1_CountsTo_Volts(),
 563:.\Generated_Source\PSoC5/ADC_SAR_1.c **** *  ADC_SAR_1_CountsTo_mVolts(), and ADC_SAR_1_CountsTo_uVolts()
 564:.\Generated_Source\PSoC5/ADC_SAR_1.c **** *  to subtract the offset from the given reading before calculating the voltage
 565:.\Generated_Source\PSoC5/ADC_SAR_1.c **** *  conversion.
 566:.\Generated_Source\PSoC5/ADC_SAR_1.c **** *
 567:.\Generated_Source\PSoC5/ADC_SAR_1.c **** * Parameters:
 568:.\Generated_Source\PSoC5/ADC_SAR_1.c **** *  int16: This value is measured when the inputs are shorted or connected to
 569:.\Generated_Source\PSoC5/ADC_SAR_1.c ****    the same input voltage.
 570:.\Generated_Source\PSoC5/ADC_SAR_1.c **** *
 571:.\Generated_Source\PSoC5/ADC_SAR_1.c **** * Return:
 572:.\Generated_Source\PSoC5/ADC_SAR_1.c **** *  None.
 573:.\Generated_Source\PSoC5/ADC_SAR_1.c **** *
 574:.\Generated_Source\PSoC5/ADC_SAR_1.c **** * Global Variables:
 575:.\Generated_Source\PSoC5/ADC_SAR_1.c **** *  The ADC_SAR_1_offset variable modified. This variable is used for
 576:.\Generated_Source\PSoC5/ADC_SAR_1.c **** *  offset calibration purpose.
 577:.\Generated_Source\PSoC5/ADC_SAR_1.c **** *  Affects the ADC_SAR_1_CountsTo_Volts,
 578:.\Generated_Source\PSoC5/ADC_SAR_1.c **** *  ADC_SAR_1_CountsTo_mVolts, ADC_SAR_1_CountsTo_uVolts functions
 579:.\Generated_Source\PSoC5/ADC_SAR_1.c **** *  by subtracting the given offset.
 580:.\Generated_Source\PSoC5/ADC_SAR_1.c **** *
 581:.\Generated_Source\PSoC5/ADC_SAR_1.c **** *******************************************************************************/
 582:.\Generated_Source\PSoC5/ADC_SAR_1.c **** void ADC_SAR_1_SetOffset(int16 offset)
 583:.\Generated_Source\PSoC5/ADC_SAR_1.c **** {
 584:.\Generated_Source\PSoC5/ADC_SAR_1.c ****     ADC_SAR_1_offset = offset;
 585:.\Generated_Source\PSoC5/ADC_SAR_1.c **** }
 586:.\Generated_Source\PSoC5/ADC_SAR_1.c **** 
 587:.\Generated_Source\PSoC5/ADC_SAR_1.c **** 
 588:.\Generated_Source\PSoC5/ADC_SAR_1.c **** /*******************************************************************************
 589:.\Generated_Source\PSoC5/ADC_SAR_1.c **** * Function Name: ADC_SAR_1_CalcGain
 590:.\Generated_Source\PSoC5/ADC_SAR_1.c **** ********************************************************************************
 591:.\Generated_Source\PSoC5/ADC_SAR_1.c **** *
 592:.\Generated_Source\PSoC5/ADC_SAR_1.c **** * Summary:
 593:.\Generated_Source\PSoC5/ADC_SAR_1.c **** *  This function calculates the ADC gain in counts per 10 volt.
 594:.\Generated_Source\PSoC5/ADC_SAR_1.c **** *
 595:.\Generated_Source\PSoC5/ADC_SAR_1.c **** * Parameters:
ARM GAS  C:\Users\Luke\AppData\Local\Temp\ccj7j385.s 			page 16


 596:.\Generated_Source\PSoC5/ADC_SAR_1.c **** *  uint8: resolution
 597:.\Generated_Source\PSoC5/ADC_SAR_1.c **** *
 598:.\Generated_Source\PSoC5/ADC_SAR_1.c **** * Return:
 599:.\Generated_Source\PSoC5/ADC_SAR_1.c **** *  None.
 600:.\Generated_Source\PSoC5/ADC_SAR_1.c **** *
 601:.\Generated_Source\PSoC5/ADC_SAR_1.c **** * Global Variables:
 602:.\Generated_Source\PSoC5/ADC_SAR_1.c **** *  ADC_SAR_1_shift variable initialized. This variable is used to
 603:.\Generated_Source\PSoC5/ADC_SAR_1.c **** *  convert the ADC counts to the 2s compliment form.
 604:.\Generated_Source\PSoC5/ADC_SAR_1.c **** *  ADC_SAR_1_countsPer10Volt variable initialized. This variable is used
 605:.\Generated_Source\PSoC5/ADC_SAR_1.c **** *  for gain calibration purpose.
 606:.\Generated_Source\PSoC5/ADC_SAR_1.c **** *
 607:.\Generated_Source\PSoC5/ADC_SAR_1.c **** *******************************************************************************/
 608:.\Generated_Source\PSoC5/ADC_SAR_1.c **** static void ADC_SAR_1_CalcGain( uint8 resolution )
 609:.\Generated_Source\PSoC5/ADC_SAR_1.c **** {
 610:.\Generated_Source\PSoC5/ADC_SAR_1.c ****     int32 counts;
 611:.\Generated_Source\PSoC5/ADC_SAR_1.c ****     #if(!((ADC_SAR_1_DEFAULT_RANGE == ADC_SAR_1__VSS_TO_VREF) || \
 612:.\Generated_Source\PSoC5/ADC_SAR_1.c ****          (ADC_SAR_1_DEFAULT_RANGE == ADC_SAR_1__VSSA_TO_VDDA) || \
 613:.\Generated_Source\PSoC5/ADC_SAR_1.c ****          (ADC_SAR_1_DEFAULT_RANGE == ADC_SAR_1__VSSA_TO_VDAC)) )
 614:.\Generated_Source\PSoC5/ADC_SAR_1.c ****         uint16 diff_zero;
 615:.\Generated_Source\PSoC5/ADC_SAR_1.c ****     #endif /* End ADC_SAR_1_DEFAULT_RANGE */
 616:.\Generated_Source\PSoC5/ADC_SAR_1.c **** 
 617:.\Generated_Source\PSoC5/ADC_SAR_1.c ****     switch (resolution)
 618:.\Generated_Source\PSoC5/ADC_SAR_1.c ****     {
 619:.\Generated_Source\PSoC5/ADC_SAR_1.c ****         case (uint8)ADC_SAR_1__BITS_12:
 620:.\Generated_Source\PSoC5/ADC_SAR_1.c ****             counts = (int32)ADC_SAR_1_SAR_WRK_MAX_12BIT;
 621:.\Generated_Source\PSoC5/ADC_SAR_1.c ****             #if(!((ADC_SAR_1_DEFAULT_RANGE == ADC_SAR_1__VSS_TO_VREF) || \
 622:.\Generated_Source\PSoC5/ADC_SAR_1.c ****                  (ADC_SAR_1_DEFAULT_RANGE == ADC_SAR_1__VSSA_TO_VDDA) || \
 623:.\Generated_Source\PSoC5/ADC_SAR_1.c ****                  (ADC_SAR_1_DEFAULT_RANGE == ADC_SAR_1__VSSA_TO_VDAC)) )
 624:.\Generated_Source\PSoC5/ADC_SAR_1.c ****                 diff_zero = ADC_SAR_1_SAR_DIFF_SHIFT;
 625:.\Generated_Source\PSoC5/ADC_SAR_1.c ****             #endif /* End ADC_SAR_1_DEFAULT_RANGE */
 626:.\Generated_Source\PSoC5/ADC_SAR_1.c ****             break;
 627:.\Generated_Source\PSoC5/ADC_SAR_1.c ****         case (uint8)ADC_SAR_1__BITS_10:
 628:.\Generated_Source\PSoC5/ADC_SAR_1.c ****             counts = (int32)ADC_SAR_1_SAR_WRK_MAX_10BIT;
 629:.\Generated_Source\PSoC5/ADC_SAR_1.c ****             #if(!((ADC_SAR_1_DEFAULT_RANGE == ADC_SAR_1__VSS_TO_VREF) || \
 630:.\Generated_Source\PSoC5/ADC_SAR_1.c ****                  (ADC_SAR_1_DEFAULT_RANGE == ADC_SAR_1__VSSA_TO_VDDA) || \
 631:.\Generated_Source\PSoC5/ADC_SAR_1.c ****                  (ADC_SAR_1_DEFAULT_RANGE == ADC_SAR_1__VSSA_TO_VDAC)) )
 632:.\Generated_Source\PSoC5/ADC_SAR_1.c ****                 diff_zero = ADC_SAR_1_SAR_DIFF_SHIFT >> 2u;
 633:.\Generated_Source\PSoC5/ADC_SAR_1.c ****             #endif /* End ADC_SAR_1_DEFAULT_RANGE */
 634:.\Generated_Source\PSoC5/ADC_SAR_1.c ****             break;
 635:.\Generated_Source\PSoC5/ADC_SAR_1.c ****         case (uint8)ADC_SAR_1__BITS_8:
 636:.\Generated_Source\PSoC5/ADC_SAR_1.c ****             counts = (int32)ADC_SAR_1_SAR_WRK_MAX_8BIT;
 637:.\Generated_Source\PSoC5/ADC_SAR_1.c ****             #if(!((ADC_SAR_1_DEFAULT_RANGE == ADC_SAR_1__VSS_TO_VREF) || \
 638:.\Generated_Source\PSoC5/ADC_SAR_1.c ****                  (ADC_SAR_1_DEFAULT_RANGE == ADC_SAR_1__VSSA_TO_VDDA) || \
 639:.\Generated_Source\PSoC5/ADC_SAR_1.c ****                  (ADC_SAR_1_DEFAULT_RANGE == ADC_SAR_1__VSSA_TO_VDAC)) )
 640:.\Generated_Source\PSoC5/ADC_SAR_1.c ****                 diff_zero = ADC_SAR_1_SAR_DIFF_SHIFT >> 4u;
 641:.\Generated_Source\PSoC5/ADC_SAR_1.c ****             #endif /* End ADC_SAR_1_DEFAULT_RANGE */
 642:.\Generated_Source\PSoC5/ADC_SAR_1.c ****             break;
 643:.\Generated_Source\PSoC5/ADC_SAR_1.c ****         default: /* Halt CPU in debug mode if resolution is out of valid range */
 644:.\Generated_Source\PSoC5/ADC_SAR_1.c ****             counts = 0;
 645:.\Generated_Source\PSoC5/ADC_SAR_1.c ****             #if(!((ADC_SAR_1_DEFAULT_RANGE == ADC_SAR_1__VSS_TO_VREF) || \
 646:.\Generated_Source\PSoC5/ADC_SAR_1.c ****                  (ADC_SAR_1_DEFAULT_RANGE == ADC_SAR_1__VSSA_TO_VDDA) || \
 647:.\Generated_Source\PSoC5/ADC_SAR_1.c ****                  (ADC_SAR_1_DEFAULT_RANGE == ADC_SAR_1__VSSA_TO_VDAC)) )
 648:.\Generated_Source\PSoC5/ADC_SAR_1.c ****                 diff_zero = 0u;
 649:.\Generated_Source\PSoC5/ADC_SAR_1.c ****             #endif /* End ADC_SAR_1_DEFAULT_RANGE */
 650:.\Generated_Source\PSoC5/ADC_SAR_1.c ****             CYASSERT(0u != 0u);
 651:.\Generated_Source\PSoC5/ADC_SAR_1.c ****             break;
 652:.\Generated_Source\PSoC5/ADC_SAR_1.c ****     }
ARM GAS  C:\Users\Luke\AppData\Local\Temp\ccj7j385.s 			page 17


 653:.\Generated_Source\PSoC5/ADC_SAR_1.c ****     ADC_SAR_1_countsPerVolt = 0; /* Clear obsolete variable */
 654:.\Generated_Source\PSoC5/ADC_SAR_1.c ****     /* Calculate gain in counts per 10 volts with rounding */
 655:.\Generated_Source\PSoC5/ADC_SAR_1.c ****     ADC_SAR_1_countsPer10Volt = (((counts * ADC_SAR_1_10MV_COUNTS) +
 656:.\Generated_Source\PSoC5/ADC_SAR_1.c ****                         ADC_SAR_1_DEFAULT_REF_VOLTAGE_MV) / (ADC_SAR_1_DEFAULT_REF_VOLTAGE_MV * 2))
 657:.\Generated_Source\PSoC5/ADC_SAR_1.c **** 
 658:.\Generated_Source\PSoC5/ADC_SAR_1.c ****     #if( (ADC_SAR_1_DEFAULT_RANGE == ADC_SAR_1__VSS_TO_VREF) || \
 659:.\Generated_Source\PSoC5/ADC_SAR_1.c ****          (ADC_SAR_1_DEFAULT_RANGE == ADC_SAR_1__VSSA_TO_VDDA) || \
 660:.\Generated_Source\PSoC5/ADC_SAR_1.c ****          (ADC_SAR_1_DEFAULT_RANGE == ADC_SAR_1__VSSA_TO_VDAC) )
 661:.\Generated_Source\PSoC5/ADC_SAR_1.c ****         ADC_SAR_1_shift = 0;
 662:.\Generated_Source\PSoC5/ADC_SAR_1.c ****     #else
 663:.\Generated_Source\PSoC5/ADC_SAR_1.c ****         ADC_SAR_1_shift = diff_zero;
 664:.\Generated_Source\PSoC5/ADC_SAR_1.c ****     #endif /* End ADC_SAR_1_DEFAULT_RANGE */
 665:.\Generated_Source\PSoC5/ADC_SAR_1.c **** }
 666:.\Generated_Source\PSoC5/ADC_SAR_1.c **** 
 667:.\Generated_Source\PSoC5/ADC_SAR_1.c **** 
 668:.\Generated_Source\PSoC5/ADC_SAR_1.c **** /*******************************************************************************
 669:.\Generated_Source\PSoC5/ADC_SAR_1.c **** * Function Name: ADC_SAR_1_SetGain
 670:.\Generated_Source\PSoC5/ADC_SAR_1.c **** ********************************************************************************
 671:.\Generated_Source\PSoC5/ADC_SAR_1.c **** *
 672:.\Generated_Source\PSoC5/ADC_SAR_1.c **** * Summary:
 673:.\Generated_Source\PSoC5/ADC_SAR_1.c **** *  Sets the ADC gain in counts per volt for the voltage conversion functions
 674:.\Generated_Source\PSoC5/ADC_SAR_1.c **** *  that follow. This value is set by default by the reference and input range
 675:.\Generated_Source\PSoC5/ADC_SAR_1.c **** *  settings. It should only be used to further calibrate the ADC with a known
 676:.\Generated_Source\PSoC5/ADC_SAR_1.c **** *  input or if the ADC is using an external reference.
 677:.\Generated_Source\PSoC5/ADC_SAR_1.c **** *
 678:.\Generated_Source\PSoC5/ADC_SAR_1.c **** * Parameters:
 679:.\Generated_Source\PSoC5/ADC_SAR_1.c **** *  int16  adcGain  counts per volt
 680:.\Generated_Source\PSoC5/ADC_SAR_1.c **** *
 681:.\Generated_Source\PSoC5/ADC_SAR_1.c **** * Return:
 682:.\Generated_Source\PSoC5/ADC_SAR_1.c **** *  None.
 683:.\Generated_Source\PSoC5/ADC_SAR_1.c **** *
 684:.\Generated_Source\PSoC5/ADC_SAR_1.c **** * Global Variables:
 685:.\Generated_Source\PSoC5/ADC_SAR_1.c **** *  ADC_SAR_1_countsPer10Volt variable modified. This variable is used
 686:.\Generated_Source\PSoC5/ADC_SAR_1.c **** *  for gain calibration purpose.
 687:.\Generated_Source\PSoC5/ADC_SAR_1.c **** *
 688:.\Generated_Source\PSoC5/ADC_SAR_1.c **** *******************************************************************************/
 689:.\Generated_Source\PSoC5/ADC_SAR_1.c **** void ADC_SAR_1_SetGain(int16 adcGain)
 690:.\Generated_Source\PSoC5/ADC_SAR_1.c **** {
 691:.\Generated_Source\PSoC5/ADC_SAR_1.c ****     ADC_SAR_1_countsPer10Volt = (int32)adcGain * 10;
 692:.\Generated_Source\PSoC5/ADC_SAR_1.c **** }
 693:.\Generated_Source\PSoC5/ADC_SAR_1.c **** 
 694:.\Generated_Source\PSoC5/ADC_SAR_1.c **** 
 695:.\Generated_Source\PSoC5/ADC_SAR_1.c **** /*******************************************************************************
 696:.\Generated_Source\PSoC5/ADC_SAR_1.c **** * Function Name: ADC_SAR_1_SetGainPer10Volt
 697:.\Generated_Source\PSoC5/ADC_SAR_1.c **** ********************************************************************************
 698:.\Generated_Source\PSoC5/ADC_SAR_1.c **** *
 699:.\Generated_Source\PSoC5/ADC_SAR_1.c **** * Summary:
 700:.\Generated_Source\PSoC5/ADC_SAR_1.c **** *  Sets the ADC gain in counts per 10 volt for the voltage conversion functions
 701:.\Generated_Source\PSoC5/ADC_SAR_1.c **** *  that follow. This value is set by default by the reference and input range
 702:.\Generated_Source\PSoC5/ADC_SAR_1.c **** *  settings. It should only be used to further calibrate the ADC with a known
 703:.\Generated_Source\PSoC5/ADC_SAR_1.c **** *  input or if the ADC is using an external reference.
 704:.\Generated_Source\PSoC5/ADC_SAR_1.c **** *
 705:.\Generated_Source\PSoC5/ADC_SAR_1.c **** * Parameters:
 706:.\Generated_Source\PSoC5/ADC_SAR_1.c **** *  int16  adcGain  counts per 10 volt
 707:.\Generated_Source\PSoC5/ADC_SAR_1.c **** *
 708:.\Generated_Source\PSoC5/ADC_SAR_1.c **** * Return:
 709:.\Generated_Source\PSoC5/ADC_SAR_1.c **** *  None.
ARM GAS  C:\Users\Luke\AppData\Local\Temp\ccj7j385.s 			page 18


 710:.\Generated_Source\PSoC5/ADC_SAR_1.c **** *
 711:.\Generated_Source\PSoC5/ADC_SAR_1.c **** * Global Variables:
 712:.\Generated_Source\PSoC5/ADC_SAR_1.c **** *  ADC_SAR_1_countsPer10Volt variable modified. This variable is used
 713:.\Generated_Source\PSoC5/ADC_SAR_1.c **** *  for gain calibration purpose.
 714:.\Generated_Source\PSoC5/ADC_SAR_1.c **** *
 715:.\Generated_Source\PSoC5/ADC_SAR_1.c **** *******************************************************************************/
 716:.\Generated_Source\PSoC5/ADC_SAR_1.c **** void ADC_SAR_1_SetScaledGain(int32 adcGain)
 717:.\Generated_Source\PSoC5/ADC_SAR_1.c **** {
 718:.\Generated_Source\PSoC5/ADC_SAR_1.c ****     ADC_SAR_1_countsPer10Volt = adcGain;
 719:.\Generated_Source\PSoC5/ADC_SAR_1.c **** }
 720:.\Generated_Source\PSoC5/ADC_SAR_1.c **** 
 721:.\Generated_Source\PSoC5/ADC_SAR_1.c **** 
 722:.\Generated_Source\PSoC5/ADC_SAR_1.c **** /*******************************************************************************
 723:.\Generated_Source\PSoC5/ADC_SAR_1.c **** * Function Name: ADC_SAR_1_CountsTo_mVolts
 724:.\Generated_Source\PSoC5/ADC_SAR_1.c **** ********************************************************************************
 725:.\Generated_Source\PSoC5/ADC_SAR_1.c **** *
 726:.\Generated_Source\PSoC5/ADC_SAR_1.c **** * Summary:
 727:.\Generated_Source\PSoC5/ADC_SAR_1.c **** *  Converts the ADC output to millivolts as a 16-bit integer.
 728:.\Generated_Source\PSoC5/ADC_SAR_1.c **** *
 729:.\Generated_Source\PSoC5/ADC_SAR_1.c **** * Parameters:
 730:.\Generated_Source\PSoC5/ADC_SAR_1.c **** *  int16 adcCounts:  Result from the ADC conversion
 731:.\Generated_Source\PSoC5/ADC_SAR_1.c **** *
 732:.\Generated_Source\PSoC5/ADC_SAR_1.c **** * Return:
 733:.\Generated_Source\PSoC5/ADC_SAR_1.c **** *  int16 Result in mVolts
 734:.\Generated_Source\PSoC5/ADC_SAR_1.c **** *
 735:.\Generated_Source\PSoC5/ADC_SAR_1.c **** * Global Variables:
 736:.\Generated_Source\PSoC5/ADC_SAR_1.c **** *  ADC_SAR_1_offset variable used.
 737:.\Generated_Source\PSoC5/ADC_SAR_1.c **** *  ADC_SAR_1_countsPer10Volt variable used.
 738:.\Generated_Source\PSoC5/ADC_SAR_1.c **** *
 739:.\Generated_Source\PSoC5/ADC_SAR_1.c **** *******************************************************************************/
 740:.\Generated_Source\PSoC5/ADC_SAR_1.c **** int16 ADC_SAR_1_CountsTo_mVolts(int16 adcCounts)
 741:.\Generated_Source\PSoC5/ADC_SAR_1.c **** {
 742:.\Generated_Source\PSoC5/ADC_SAR_1.c ****     int16 mVolts;
 743:.\Generated_Source\PSoC5/ADC_SAR_1.c ****     int32 countsPer10Volt;
 744:.\Generated_Source\PSoC5/ADC_SAR_1.c **** 
 745:.\Generated_Source\PSoC5/ADC_SAR_1.c ****     if(ADC_SAR_1_countsPerVolt != 0)
 746:.\Generated_Source\PSoC5/ADC_SAR_1.c ****     {   /* Support obsolete method */
 747:.\Generated_Source\PSoC5/ADC_SAR_1.c ****         countsPer10Volt = (int32)ADC_SAR_1_countsPerVolt * 10;
 748:.\Generated_Source\PSoC5/ADC_SAR_1.c ****     }
 749:.\Generated_Source\PSoC5/ADC_SAR_1.c ****     else
 750:.\Generated_Source\PSoC5/ADC_SAR_1.c ****     {
 751:.\Generated_Source\PSoC5/ADC_SAR_1.c ****         countsPer10Volt = ADC_SAR_1_countsPer10Volt;
 752:.\Generated_Source\PSoC5/ADC_SAR_1.c ****     }
 753:.\Generated_Source\PSoC5/ADC_SAR_1.c **** 
 754:.\Generated_Source\PSoC5/ADC_SAR_1.c ****     /* Subtract ADC offset */
 755:.\Generated_Source\PSoC5/ADC_SAR_1.c ****     adcCounts -= ADC_SAR_1_offset;
 756:.\Generated_Source\PSoC5/ADC_SAR_1.c ****     /* Convert to millivolts with rounding */
 757:.\Generated_Source\PSoC5/ADC_SAR_1.c ****     mVolts = (int16)( (( (int32)adcCounts * ADC_SAR_1_10MV_COUNTS ) + ( (adcCounts > 0) ?
 758:.\Generated_Source\PSoC5/ADC_SAR_1.c ****                        (countsPer10Volt / 2) : (-(countsPer10Volt / 2)) )) / countsPer10Volt);
 759:.\Generated_Source\PSoC5/ADC_SAR_1.c **** 
 760:.\Generated_Source\PSoC5/ADC_SAR_1.c ****     return( mVolts );
 761:.\Generated_Source\PSoC5/ADC_SAR_1.c **** }
 762:.\Generated_Source\PSoC5/ADC_SAR_1.c **** 
 763:.\Generated_Source\PSoC5/ADC_SAR_1.c **** 
 764:.\Generated_Source\PSoC5/ADC_SAR_1.c **** /*******************************************************************************
 765:.\Generated_Source\PSoC5/ADC_SAR_1.c **** * Function Name: ADC_SAR_1_CountsTo_uVolts
 766:.\Generated_Source\PSoC5/ADC_SAR_1.c **** ********************************************************************************
ARM GAS  C:\Users\Luke\AppData\Local\Temp\ccj7j385.s 			page 19


 767:.\Generated_Source\PSoC5/ADC_SAR_1.c **** *
 768:.\Generated_Source\PSoC5/ADC_SAR_1.c **** * Summary:
 769:.\Generated_Source\PSoC5/ADC_SAR_1.c **** *  Converts the ADC output to microvolts as a 32-bit integer.
 770:.\Generated_Source\PSoC5/ADC_SAR_1.c **** *
 771:.\Generated_Source\PSoC5/ADC_SAR_1.c **** * Parameters:
 772:.\Generated_Source\PSoC5/ADC_SAR_1.c **** *  int16 adcCounts: Result from the ADC conversion
 773:.\Generated_Source\PSoC5/ADC_SAR_1.c **** *
 774:.\Generated_Source\PSoC5/ADC_SAR_1.c **** * Return:
 775:.\Generated_Source\PSoC5/ADC_SAR_1.c **** *  int32 Result in micro Volts
 776:.\Generated_Source\PSoC5/ADC_SAR_1.c **** *
 777:.\Generated_Source\PSoC5/ADC_SAR_1.c **** * Global Variables:
 778:.\Generated_Source\PSoC5/ADC_SAR_1.c **** *  ADC_SAR_1_offset variable used.
 779:.\Generated_Source\PSoC5/ADC_SAR_1.c **** *  ADC_SAR_1_countsPer10Volt used to convert ADC counts to uVolts.
 780:.\Generated_Source\PSoC5/ADC_SAR_1.c **** *
 781:.\Generated_Source\PSoC5/ADC_SAR_1.c **** *******************************************************************************/
 782:.\Generated_Source\PSoC5/ADC_SAR_1.c **** int32 ADC_SAR_1_CountsTo_uVolts(int16 adcCounts)
 783:.\Generated_Source\PSoC5/ADC_SAR_1.c **** {
 784:.\Generated_Source\PSoC5/ADC_SAR_1.c **** 
 785:.\Generated_Source\PSoC5/ADC_SAR_1.c ****     int64 uVolts;
 786:.\Generated_Source\PSoC5/ADC_SAR_1.c ****     int32 countsPer10Volt;
 787:.\Generated_Source\PSoC5/ADC_SAR_1.c **** 
 788:.\Generated_Source\PSoC5/ADC_SAR_1.c ****     if(ADC_SAR_1_countsPerVolt != 0)
 789:.\Generated_Source\PSoC5/ADC_SAR_1.c ****     {   /* Support obsolete method */
 790:.\Generated_Source\PSoC5/ADC_SAR_1.c ****         countsPer10Volt = (int32)ADC_SAR_1_countsPerVolt * 10;
 791:.\Generated_Source\PSoC5/ADC_SAR_1.c ****     }
 792:.\Generated_Source\PSoC5/ADC_SAR_1.c ****     else
 793:.\Generated_Source\PSoC5/ADC_SAR_1.c ****     {
 794:.\Generated_Source\PSoC5/ADC_SAR_1.c ****         countsPer10Volt = ADC_SAR_1_countsPer10Volt;
 795:.\Generated_Source\PSoC5/ADC_SAR_1.c ****     }
 796:.\Generated_Source\PSoC5/ADC_SAR_1.c **** 
 797:.\Generated_Source\PSoC5/ADC_SAR_1.c ****     /* Subtract ADC offset */
 798:.\Generated_Source\PSoC5/ADC_SAR_1.c ****     adcCounts -= ADC_SAR_1_offset;
 799:.\Generated_Source\PSoC5/ADC_SAR_1.c ****     /* To convert adcCounts to microVolts it is required to be multiplied
 800:.\Generated_Source\PSoC5/ADC_SAR_1.c ****     *  on 10 million and later divide on gain in counts per 10V.
 801:.\Generated_Source\PSoC5/ADC_SAR_1.c ****     */
 802:.\Generated_Source\PSoC5/ADC_SAR_1.c ****     uVolts = (( (int64)adcCounts * ADC_SAR_1_10UV_COUNTS ) / countsPer10Volt);
 803:.\Generated_Source\PSoC5/ADC_SAR_1.c **** 
 804:.\Generated_Source\PSoC5/ADC_SAR_1.c ****     return( uVolts );
 805:.\Generated_Source\PSoC5/ADC_SAR_1.c **** }
 806:.\Generated_Source\PSoC5/ADC_SAR_1.c **** 
 807:.\Generated_Source\PSoC5/ADC_SAR_1.c **** 
 808:.\Generated_Source\PSoC5/ADC_SAR_1.c **** /*******************************************************************************
 809:.\Generated_Source\PSoC5/ADC_SAR_1.c **** * Function Name: ADC_SAR_1_CountsTo_Volts
 810:.\Generated_Source\PSoC5/ADC_SAR_1.c **** ********************************************************************************
 811:.\Generated_Source\PSoC5/ADC_SAR_1.c **** *
 812:.\Generated_Source\PSoC5/ADC_SAR_1.c **** * Summary:
 813:.\Generated_Source\PSoC5/ADC_SAR_1.c **** *  Converts the ADC output to volts as a floating-point number.
 814:.\Generated_Source\PSoC5/ADC_SAR_1.c **** *
 815:.\Generated_Source\PSoC5/ADC_SAR_1.c **** * Parameters:
 816:.\Generated_Source\PSoC5/ADC_SAR_1.c **** *  int16 adcCounts: Result from the ADC conversion
 817:.\Generated_Source\PSoC5/ADC_SAR_1.c **** *
 818:.\Generated_Source\PSoC5/ADC_SAR_1.c **** * Return:
 819:.\Generated_Source\PSoC5/ADC_SAR_1.c **** *  float Result in Volts
 820:.\Generated_Source\PSoC5/ADC_SAR_1.c **** *
 821:.\Generated_Source\PSoC5/ADC_SAR_1.c **** * Global Variables:
 822:.\Generated_Source\PSoC5/ADC_SAR_1.c **** *  ADC_SAR_1_offset variable used.
 823:.\Generated_Source\PSoC5/ADC_SAR_1.c **** *  ADC_SAR_1_countsPer10Volt used to convert ADC counts to Volts.
ARM GAS  C:\Users\Luke\AppData\Local\Temp\ccj7j385.s 			page 20


 824:.\Generated_Source\PSoC5/ADC_SAR_1.c **** *
 825:.\Generated_Source\PSoC5/ADC_SAR_1.c **** *******************************************************************************/
 826:.\Generated_Source\PSoC5/ADC_SAR_1.c **** float32 ADC_SAR_1_CountsTo_Volts(int16 adcCounts)
 827:.\Generated_Source\PSoC5/ADC_SAR_1.c **** {
 828:.\Generated_Source\PSoC5/ADC_SAR_1.c ****     float32 volts;
 829:.\Generated_Source\PSoC5/ADC_SAR_1.c ****     int32 countsPer10Volt;
 830:.\Generated_Source\PSoC5/ADC_SAR_1.c **** 
 831:.\Generated_Source\PSoC5/ADC_SAR_1.c ****     if(ADC_SAR_1_countsPerVolt != 0)
 832:.\Generated_Source\PSoC5/ADC_SAR_1.c ****     {   /* Support obsolete method */
 833:.\Generated_Source\PSoC5/ADC_SAR_1.c ****         countsPer10Volt = (int32)ADC_SAR_1_countsPerVolt * 10;
 834:.\Generated_Source\PSoC5/ADC_SAR_1.c ****     }
 835:.\Generated_Source\PSoC5/ADC_SAR_1.c ****     else
 836:.\Generated_Source\PSoC5/ADC_SAR_1.c ****     {
 837:.\Generated_Source\PSoC5/ADC_SAR_1.c ****         countsPer10Volt = ADC_SAR_1_countsPer10Volt;
 838:.\Generated_Source\PSoC5/ADC_SAR_1.c ****     }
 839:.\Generated_Source\PSoC5/ADC_SAR_1.c **** 
 840:.\Generated_Source\PSoC5/ADC_SAR_1.c ****     /* Subtract ADC offset */
 841:.\Generated_Source\PSoC5/ADC_SAR_1.c ****     adcCounts -= ADC_SAR_1_offset;
 842:.\Generated_Source\PSoC5/ADC_SAR_1.c **** 
 843:.\Generated_Source\PSoC5/ADC_SAR_1.c ****     volts = ((float32)adcCounts * ADC_SAR_1_10V_COUNTS) / (float32)countsPer10Volt;
 844:.\Generated_Source\PSoC5/ADC_SAR_1.c **** 
 845:.\Generated_Source\PSoC5/ADC_SAR_1.c ****     return( volts );
 846:.\Generated_Source\PSoC5/ADC_SAR_1.c **** }
 250              		.loc 1 846 0
 251 0016 98BF     		it	ls
 252 0018 0B4B     		ldrls	r3, .L15
 253              	.LVL17:
 254              	.LBB5:
 653:.\Generated_Source\PSoC5/ADC_SAR_1.c ****     ADC_SAR_1_countsPerVolt = 0; /* Clear obsolete variable */
 255              		.loc 1 653 0
 256 001a 0D49     		ldr	r1, .L15+8
 257              	.LBE5:
 258              		.loc 1 846 0
 259 001c 9ABF     		itte	ls
 260 001e 03EB4000 		addls	r0, r3, r0, lsl #1
 261 0022 B0F90420 		ldrshls	r2, [r0, #4]
 262 0026 0022     		movhi	r2, #0
 263              	.LVL18:
 264              	.LBB6:
 655:.\Generated_Source\PSoC5/ADC_SAR_1.c ****     ADC_SAR_1_countsPer10Volt = (((counts * ADC_SAR_1_10MV_COUNTS) +
 265              		.loc 1 655 0
 266 0028 42F21070 		movw	r0, #10000
 267 002c 4243     		muls	r2, r0, r2
 268              	.LVL19:
 653:.\Generated_Source\PSoC5/ADC_SAR_1.c ****     ADC_SAR_1_countsPerVolt = 0; /* Clear obsolete variable */
 269              		.loc 1 653 0
 270 002e 0023     		movs	r3, #0
 271 0030 0B80     		strh	r3, [r1, #0]	@ movhi
 655:.\Generated_Source\PSoC5/ADC_SAR_1.c ****     ADC_SAR_1_countsPer10Volt = (((counts * ADC_SAR_1_10MV_COUNTS) +
 272              		.loc 1 655 0
 273 0032 02F6C412 		addw	r2, r2, #2500
 656:.\Generated_Source\PSoC5/ADC_SAR_1.c ****                         ADC_SAR_1_DEFAULT_REF_VOLTAGE_MV) / (ADC_SAR_1_DEFAULT_REF_VOLTAGE_MV * 2))
 274              		.loc 1 656 0
 275 0036 41F28831 		movw	r1, #5000
 276 003a 92FBF1F0 		sdiv	r0, r2, r1
 655:.\Generated_Source\PSoC5/ADC_SAR_1.c ****     ADC_SAR_1_countsPer10Volt = (((counts * ADC_SAR_1_10MV_COUNTS) +
 277              		.loc 1 655 0
ARM GAS  C:\Users\Luke\AppData\Local\Temp\ccj7j385.s 			page 21


 278 003e 054A     		ldr	r2, .L15+12
 661:.\Generated_Source\PSoC5/ADC_SAR_1.c ****         ADC_SAR_1_shift = 0;
 279              		.loc 1 661 0
 280 0040 0549     		ldr	r1, .L15+16
 655:.\Generated_Source\PSoC5/ADC_SAR_1.c ****     ADC_SAR_1_countsPer10Volt = (((counts * ADC_SAR_1_10MV_COUNTS) +
 281              		.loc 1 655 0
 282 0042 1060     		str	r0, [r2, #0]
 661:.\Generated_Source\PSoC5/ADC_SAR_1.c ****         ADC_SAR_1_shift = 0;
 283              		.loc 1 661 0
 284 0044 0B80     		strh	r3, [r1, #0]	@ movhi
 285 0046 7047     		bx	lr
 286              	.L16:
 287              		.align	2
 288              	.L15:
 289 0048 00000000 		.word	.LANCHOR0
 290 004c 0A590040 		.word	1073764618
 291 0050 00000000 		.word	ADC_SAR_1_countsPerVolt
 292 0054 00000000 		.word	ADC_SAR_1_countsPer10Volt
 293 0058 00000000 		.word	ADC_SAR_1_shift
 294              	.LBE6:
 295              	.LBE4:
 296              		.cfi_endproc
 297              	.LFE5:
 298              		.size	ADC_SAR_1_SetResolution, .-ADC_SAR_1_SetResolution
 299              		.section	.text.ADC_SAR_1_Init,"ax",%progbits
 300              		.align	1
 301              		.global	ADC_SAR_1_Init
 302              		.thumb
 303              		.thumb_func
 304              		.type	ADC_SAR_1_Init, %function
 305              	ADC_SAR_1_Init:
 306              	.LFB1:
 107:.\Generated_Source\PSoC5/ADC_SAR_1.c **** {
 307              		.loc 1 107 0
 308              		.cfi_startproc
 309              		@ args = 0, pretend = 0, frame = 0
 310              		@ frame_needed = 0, uses_anonymous_args = 0
 311 0000 08B5     		push	{r3, lr}
 312              	.LCFI2:
 313              		.cfi_def_cfa_offset 8
 314              		.cfi_offset 3, -8
 315              		.cfi_offset 14, -4
 111:.\Generated_Source\PSoC5/ADC_SAR_1.c ****         ADC_SAR_1_theACLK_SetMode(CYCLK_DUTY);
 316              		.loc 1 111 0
 317 0002 1020     		movs	r0, #16
 318 0004 FFF7FEFF 		bl	ADC_SAR_1_theACLK_SetModeRegister
 319              	.LVL20:
 116:.\Generated_Source\PSoC5/ADC_SAR_1.c ****         CyIntSetPriority(ADC_SAR_1_INTC_NUMBER, ADC_SAR_1_INTC_PRIOR_NUMBER);
 320              		.loc 1 116 0
 321 0008 0120     		movs	r0, #1
 322 000a 0721     		movs	r1, #7
 323 000c FFF7FEFF 		bl	CyIntSetPriority
 324              	.LVL21:
 117:.\Generated_Source\PSoC5/ADC_SAR_1.c ****         (void)CyIntSetVector(ADC_SAR_1_INTC_NUMBER, &ADC_SAR_1_ISR);
 325              		.loc 1 117 0
 326 0010 0749     		ldr	r1, .L18
 327 0012 0120     		movs	r0, #1
ARM GAS  C:\Users\Luke\AppData\Local\Temp\ccj7j385.s 			page 22


 328 0014 FFF7FEFF 		bl	CyIntSetVector
 329              	.LVL22:
 121:.\Generated_Source\PSoC5/ADC_SAR_1.c ****     ADC_SAR_1_SAR_CSR1_REG |= ADC_SAR_1_SAR_IRQ_MASK_EN | ADC_SAR_1_SAR_IRQ_MODE_EDGE;
 330              		.loc 1 121 0
 331 0018 064B     		ldr	r3, .L18+4
 332 001a 1A78     		ldrb	r2, [r3, #0]	@ zero_extendqisi2
 333 001c 42F00600 		orr	r0, r2, #6
 334 0020 1870     		strb	r0, [r3, #0]
 124:.\Generated_Source\PSoC5/ADC_SAR_1.c ****     ADC_SAR_1_SetResolution(ADC_SAR_1_DEFAULT_RESOLUTION);
 335              		.loc 1 124 0
 336 0022 0820     		movs	r0, #8
 337 0024 FFF7FEFF 		bl	ADC_SAR_1_SetResolution
 338              	.LVL23:
 125:.\Generated_Source\PSoC5/ADC_SAR_1.c ****     ADC_SAR_1_offset = 0;
 339              		.loc 1 125 0
 340 0028 034B     		ldr	r3, .L18+8
 341 002a 0021     		movs	r1, #0
 342 002c 1980     		strh	r1, [r3, #0]	@ movhi
 343 002e 08BD     		pop	{r3, pc}
 344              	.L19:
 345              		.align	2
 346              	.L18:
 347 0030 00000000 		.word	ADC_SAR_1_ISR
 348 0034 09590040 		.word	1073764617
 349 0038 00000000 		.word	ADC_SAR_1_offset
 350              		.cfi_endproc
 351              	.LFE1:
 352              		.size	ADC_SAR_1_Init, .-ADC_SAR_1_Init
 353              		.section	.text.ADC_SAR_1_Start,"ax",%progbits
 354              		.align	1
 355              		.global	ADC_SAR_1_Start
 356              		.thumb
 357              		.thumb_func
 358              		.type	ADC_SAR_1_Start, %function
 359              	ADC_SAR_1_Start:
 360              	.LFB0:
  75:.\Generated_Source\PSoC5/ADC_SAR_1.c **** {
 361              		.loc 1 75 0
 362              		.cfi_startproc
 363              		@ args = 0, pretend = 0, frame = 0
 364              		@ frame_needed = 0, uses_anonymous_args = 0
 365 0000 10B5     		push	{r4, lr}
 366              	.LCFI3:
 367              		.cfi_def_cfa_offset 8
 368              		.cfi_offset 4, -8
 369              		.cfi_offset 14, -4
  78:.\Generated_Source\PSoC5/ADC_SAR_1.c ****     if(ADC_SAR_1_initVar == 0u)
 370              		.loc 1 78 0
 371 0002 054C     		ldr	r4, .L23
 372 0004 2378     		ldrb	r3, [r4, #0]	@ zero_extendqisi2
 373 0006 1BB9     		cbnz	r3, .L21
  80:.\Generated_Source\PSoC5/ADC_SAR_1.c ****         ADC_SAR_1_Init();
 374              		.loc 1 80 0
 375 0008 FFF7FEFF 		bl	ADC_SAR_1_Init
 376              	.LVL24:
  81:.\Generated_Source\PSoC5/ADC_SAR_1.c ****         ADC_SAR_1_initVar = 1u;
 377              		.loc 1 81 0
ARM GAS  C:\Users\Luke\AppData\Local\Temp\ccj7j385.s 			page 23


 378 000c 0120     		movs	r0, #1
 379 000e 2070     		strb	r0, [r4, #0]
 380              	.L21:
  84:.\Generated_Source\PSoC5/ADC_SAR_1.c **** }
 381              		.loc 1 84 0
 382 0010 BDE81040 		pop	{r4, lr}
  83:.\Generated_Source\PSoC5/ADC_SAR_1.c ****     ADC_SAR_1_Enable();
 383              		.loc 1 83 0
 384 0014 FFF7FEBF 		b	ADC_SAR_1_Enable
 385              	.LVL25:
 386              	.L24:
 387              		.align	2
 388              	.L23:
 389 0018 00000000 		.word	.LANCHOR1
 390              		.cfi_endproc
 391              	.LFE0:
 392              		.size	ADC_SAR_1_Start, .-ADC_SAR_1_Start
 393              		.section	.text.ADC_SAR_1_StartConvert,"ax",%progbits
 394              		.align	1
 395              		.global	ADC_SAR_1_StartConvert
 396              		.thumb
 397              		.thumb_func
 398              		.type	ADC_SAR_1_StartConvert, %function
 399              	ADC_SAR_1_StartConvert:
 400              	.LFB6:
 399:.\Generated_Source\PSoC5/ADC_SAR_1.c ****     {
 401              		.loc 1 399 0
 402              		.cfi_startproc
 403              		@ args = 0, pretend = 0, frame = 0
 404              		@ frame_needed = 0, uses_anonymous_args = 0
 405              		@ link register save eliminated.
 405:.\Generated_Source\PSoC5/ADC_SAR_1.c ****         ADC_SAR_1_SAR_CSR0_REG |= ADC_SAR_1_SAR_SOF_START_CONV;
 406              		.loc 1 405 0
 407 0000 024B     		ldr	r3, .L26
 408 0002 1A78     		ldrb	r2, [r3, #0]	@ zero_extendqisi2
 409 0004 42F00100 		orr	r0, r2, #1
 410 0008 1870     		strb	r0, [r3, #0]
 411 000a 7047     		bx	lr
 412              	.L27:
 413              		.align	2
 414              	.L26:
 415 000c 08590040 		.word	1073764616
 416              		.cfi_endproc
 417              	.LFE6:
 418              		.size	ADC_SAR_1_StartConvert, .-ADC_SAR_1_StartConvert
 419              		.section	.text.ADC_SAR_1_StopConvert,"ax",%progbits
 420              		.align	1
 421              		.global	ADC_SAR_1_StopConvert
 422              		.thumb
 423              		.thumb_func
 424              		.type	ADC_SAR_1_StopConvert, %function
 425              	ADC_SAR_1_StopConvert:
 426              	.LFB7:
 433:.\Generated_Source\PSoC5/ADC_SAR_1.c ****     {
 427              		.loc 1 433 0
 428              		.cfi_startproc
 429              		@ args = 0, pretend = 0, frame = 0
ARM GAS  C:\Users\Luke\AppData\Local\Temp\ccj7j385.s 			page 24


 430              		@ frame_needed = 0, uses_anonymous_args = 0
 431              		@ link register save eliminated.
 435:.\Generated_Source\PSoC5/ADC_SAR_1.c ****         ADC_SAR_1_SAR_CSR0_REG &= (uint8)~ADC_SAR_1_SAR_SOF_START_CONV;
 432              		.loc 1 435 0
 433 0000 024B     		ldr	r3, .L29
 434 0002 1A78     		ldrb	r2, [r3, #0]	@ zero_extendqisi2
 435 0004 02F0FE00 		and	r0, r2, #254
 436 0008 1870     		strb	r0, [r3, #0]
 437 000a 7047     		bx	lr
 438              	.L30:
 439              		.align	2
 440              	.L29:
 441 000c 08590040 		.word	1073764616
 442              		.cfi_endproc
 443              	.LFE7:
 444              		.size	ADC_SAR_1_StopConvert, .-ADC_SAR_1_StopConvert
 445              		.section	.text.ADC_SAR_1_IsEndConversion,"ax",%progbits
 446              		.align	1
 447              		.global	ADC_SAR_1_IsEndConversion
 448              		.thumb
 449              		.thumb_func
 450              		.type	ADC_SAR_1_IsEndConversion, %function
 451              	ADC_SAR_1_IsEndConversion:
 452              	.LFB8:
 473:.\Generated_Source\PSoC5/ADC_SAR_1.c **** {
 453              		.loc 1 473 0
 454              		.cfi_startproc
 455              		@ args = 0, pretend = 0, frame = 0
 456              		@ frame_needed = 0, uses_anonymous_args = 0
 457              	.LVL26:
 458 0000 38B5     		push	{r3, r4, r5, lr}
 459              	.LCFI4:
 460              		.cfi_def_cfa_offset 16
 461              		.cfi_offset 3, -16
 462              		.cfi_offset 4, -12
 463              		.cfi_offset 5, -8
 464              		.cfi_offset 14, -4
 465              	.L33:
 478:.\Generated_Source\PSoC5/ADC_SAR_1.c ****         status = ADC_SAR_1_SAR_CSR1_REG & ADC_SAR_1_SAR_EOF_1;
 466              		.loc 1 478 0 discriminator 1
 467 0002 074D     		ldr	r5, .L40
 468 0004 2C78     		ldrb	r4, [r5, #0]	@ zero_extendqisi2
 469              	.LVL27:
 479:.\Generated_Source\PSoC5/ADC_SAR_1.c ****     } while ((status != ADC_SAR_1_SAR_EOF_1) && (retMode == ADC_SAR_1_WAIT_FOR_RESULT));
 470              		.loc 1 479 0 discriminator 1
 471 0006 14F00104 		ands	r4, r4, #1
 472              	.LVL28:
 473 000a 03D1     		bne	.L32
 474 000c 0028     		cmp	r0, #0
 475 000e F8D0     		beq	.L33
 479:.\Generated_Source\PSoC5/ADC_SAR_1.c ****     } while ((status != ADC_SAR_1_SAR_EOF_1) && (retMode == ADC_SAR_1_WAIT_FOR_RESULT));
 476              		.loc 1 479 0 is_stmt 0
 477 0010 0024     		movs	r4, #0
 478 0012 03E0     		b	.L39
 479              	.L32:
 484:.\Generated_Source\PSoC5/ADC_SAR_1.c ****         CyDelayUs(1u);
 480              		.loc 1 484 0 is_stmt 1
ARM GAS  C:\Users\Luke\AppData\Local\Temp\ccj7j385.s 			page 25


 481 0014 2046     		mov	r0, r4
 482              	.LVL29:
 483 0016 FFF7FEFF 		bl	CyDelayUs
 484              	.LVL30:
 486:.\Generated_Source\PSoC5/ADC_SAR_1.c ****         CY_GET_REG8(ADC_SAR_1_SAR_CSR1_PTR);
 485              		.loc 1 486 0
 486 001a 2B78     		ldrb	r3, [r5, #0]	@ zero_extendqisi2
 487              	.L39:
 490:.\Generated_Source\PSoC5/ADC_SAR_1.c **** }
 488              		.loc 1 490 0
 489 001c 2046     		mov	r0, r4
 490 001e 38BD     		pop	{r3, r4, r5, pc}
 491              	.L41:
 492              		.align	2
 493              	.L40:
 494 0020 09590040 		.word	1073764617
 495              		.cfi_endproc
 496              	.LFE8:
 497              		.size	ADC_SAR_1_IsEndConversion, .-ADC_SAR_1_IsEndConversion
 498              		.section	.text.ADC_SAR_1_GetResult8,"ax",%progbits
 499              		.align	1
 500              		.global	ADC_SAR_1_GetResult8
 501              		.thumb
 502              		.thumb_func
 503              		.type	ADC_SAR_1_GetResult8, %function
 504              	ADC_SAR_1_GetResult8:
 505              	.LFB9:
 518:.\Generated_Source\PSoC5/ADC_SAR_1.c **** {
 506              		.loc 1 518 0
 507              		.cfi_startproc
 508              		@ args = 0, pretend = 0, frame = 0
 509              		@ frame_needed = 0, uses_anonymous_args = 0
 510              		@ link register save eliminated.
 519:.\Generated_Source\PSoC5/ADC_SAR_1.c ****     return( (int8)ADC_SAR_1_SAR_WRK0_REG - (int8)ADC_SAR_1_shift);
 511              		.loc 1 519 0
 512 0000 034B     		ldr	r3, .L43
 513 0002 0449     		ldr	r1, .L43+4
 514 0004 1878     		ldrb	r0, [r3, #0]	@ zero_extendqisi2
 515 0006 0A88     		ldrh	r2, [r1, #0]
 516 0008 831A     		subs	r3, r0, r2
 520:.\Generated_Source\PSoC5/ADC_SAR_1.c **** }
 517              		.loc 1 520 0
 518 000a 58B2     		sxtb	r0, r3
 519 000c 7047     		bx	lr
 520              	.L44:
 521 000e 00BF     		.align	2
 522              	.L43:
 523 0010 A25B0040 		.word	1073765282
 524 0014 00000000 		.word	ADC_SAR_1_shift
 525              		.cfi_endproc
 526              	.LFE9:
 527              		.size	ADC_SAR_1_GetResult8, .-ADC_SAR_1_GetResult8
 528              		.section	.text.ADC_SAR_1_GetResult16,"ax",%progbits
 529              		.align	1
 530              		.global	ADC_SAR_1_GetResult16
 531              		.thumb
 532              		.thumb_func
ARM GAS  C:\Users\Luke\AppData\Local\Temp\ccj7j385.s 			page 26


 533              		.type	ADC_SAR_1_GetResult16, %function
 534              	ADC_SAR_1_GetResult16:
 535              	.LFB10:
 548:.\Generated_Source\PSoC5/ADC_SAR_1.c **** {
 536              		.loc 1 548 0
 537              		.cfi_startproc
 538              		@ args = 0, pretend = 0, frame = 0
 539              		@ frame_needed = 0, uses_anonymous_args = 0
 540              		@ link register save eliminated.
 551:.\Generated_Source\PSoC5/ADC_SAR_1.c ****     res = CY_GET_REG16(ADC_SAR_1_SAR_WRK_PTR);
 541              		.loc 1 551 0
 542 0000 034B     		ldr	r3, .L46
 553:.\Generated_Source\PSoC5/ADC_SAR_1.c ****     return( (int16)res - ADC_SAR_1_shift );
 543              		.loc 1 553 0
 544 0002 0449     		ldr	r1, .L46+4
 551:.\Generated_Source\PSoC5/ADC_SAR_1.c ****     res = CY_GET_REG16(ADC_SAR_1_SAR_WRK_PTR);
 545              		.loc 1 551 0
 546 0004 1888     		ldrh	r0, [r3, #0]
 547              	.LVL31:
 553:.\Generated_Source\PSoC5/ADC_SAR_1.c ****     return( (int16)res - ADC_SAR_1_shift );
 548              		.loc 1 553 0
 549 0006 0A88     		ldrh	r2, [r1, #0]
 550 0008 831A     		subs	r3, r0, r2
 554:.\Generated_Source\PSoC5/ADC_SAR_1.c **** }
 551              		.loc 1 554 0
 552 000a 18B2     		sxth	r0, r3
 553              	.LVL32:
 554 000c 7047     		bx	lr
 555              	.L47:
 556 000e 00BF     		.align	2
 557              	.L46:
 558 0010 A25B0040 		.word	1073765282
 559 0014 00000000 		.word	ADC_SAR_1_shift
 560              		.cfi_endproc
 561              	.LFE10:
 562              		.size	ADC_SAR_1_GetResult16, .-ADC_SAR_1_GetResult16
 563              		.section	.text.ADC_SAR_1_SetOffset,"ax",%progbits
 564              		.align	1
 565              		.global	ADC_SAR_1_SetOffset
 566              		.thumb
 567              		.thumb_func
 568              		.type	ADC_SAR_1_SetOffset, %function
 569              	ADC_SAR_1_SetOffset:
 570              	.LFB11:
 583:.\Generated_Source\PSoC5/ADC_SAR_1.c **** {
 571              		.loc 1 583 0
 572              		.cfi_startproc
 573              		@ args = 0, pretend = 0, frame = 0
 574              		@ frame_needed = 0, uses_anonymous_args = 0
 575              		@ link register save eliminated.
 576              	.LVL33:
 584:.\Generated_Source\PSoC5/ADC_SAR_1.c ****     ADC_SAR_1_offset = offset;
 577              		.loc 1 584 0
 578 0000 014B     		ldr	r3, .L49
 579 0002 1880     		strh	r0, [r3, #0]	@ movhi
 580 0004 7047     		bx	lr
 581              	.L50:
ARM GAS  C:\Users\Luke\AppData\Local\Temp\ccj7j385.s 			page 27


 582 0006 00BF     		.align	2
 583              	.L49:
 584 0008 00000000 		.word	ADC_SAR_1_offset
 585              		.cfi_endproc
 586              	.LFE11:
 587              		.size	ADC_SAR_1_SetOffset, .-ADC_SAR_1_SetOffset
 588              		.section	.text.ADC_SAR_1_SetGain,"ax",%progbits
 589              		.align	1
 590              		.global	ADC_SAR_1_SetGain
 591              		.thumb
 592              		.thumb_func
 593              		.type	ADC_SAR_1_SetGain, %function
 594              	ADC_SAR_1_SetGain:
 595              	.LFB13:
 690:.\Generated_Source\PSoC5/ADC_SAR_1.c **** {
 596              		.loc 1 690 0
 597              		.cfi_startproc
 598              		@ args = 0, pretend = 0, frame = 0
 599              		@ frame_needed = 0, uses_anonymous_args = 0
 600              		@ link register save eliminated.
 601              	.LVL34:
 691:.\Generated_Source\PSoC5/ADC_SAR_1.c ****     ADC_SAR_1_countsPer10Volt = (int32)adcGain * 10;
 602              		.loc 1 691 0
 603 0000 0A23     		movs	r3, #10
 604 0002 5843     		muls	r0, r3, r0
 605              	.LVL35:
 606 0004 014A     		ldr	r2, .L52
 607 0006 1060     		str	r0, [r2, #0]
 608 0008 7047     		bx	lr
 609              	.L53:
 610 000a 00BF     		.align	2
 611              	.L52:
 612 000c 00000000 		.word	ADC_SAR_1_countsPer10Volt
 613              		.cfi_endproc
 614              	.LFE13:
 615              		.size	ADC_SAR_1_SetGain, .-ADC_SAR_1_SetGain
 616              		.section	.text.ADC_SAR_1_SetScaledGain,"ax",%progbits
 617              		.align	1
 618              		.global	ADC_SAR_1_SetScaledGain
 619              		.thumb
 620              		.thumb_func
 621              		.type	ADC_SAR_1_SetScaledGain, %function
 622              	ADC_SAR_1_SetScaledGain:
 623              	.LFB14:
 717:.\Generated_Source\PSoC5/ADC_SAR_1.c **** {
 624              		.loc 1 717 0
 625              		.cfi_startproc
 626              		@ args = 0, pretend = 0, frame = 0
 627              		@ frame_needed = 0, uses_anonymous_args = 0
 628              		@ link register save eliminated.
 629              	.LVL36:
 718:.\Generated_Source\PSoC5/ADC_SAR_1.c ****     ADC_SAR_1_countsPer10Volt = adcGain;
 630              		.loc 1 718 0
 631 0000 014B     		ldr	r3, .L55
 632 0002 1860     		str	r0, [r3, #0]
 633 0004 7047     		bx	lr
 634              	.L56:
ARM GAS  C:\Users\Luke\AppData\Local\Temp\ccj7j385.s 			page 28


 635 0006 00BF     		.align	2
 636              	.L55:
 637 0008 00000000 		.word	ADC_SAR_1_countsPer10Volt
 638              		.cfi_endproc
 639              	.LFE14:
 640              		.size	ADC_SAR_1_SetScaledGain, .-ADC_SAR_1_SetScaledGain
 641              		.section	.text.ADC_SAR_1_CountsTo_mVolts,"ax",%progbits
 642              		.align	1
 643              		.global	ADC_SAR_1_CountsTo_mVolts
 644              		.thumb
 645              		.thumb_func
 646              		.type	ADC_SAR_1_CountsTo_mVolts, %function
 647              	ADC_SAR_1_CountsTo_mVolts:
 648              	.LFB15:
 741:.\Generated_Source\PSoC5/ADC_SAR_1.c **** {
 649              		.loc 1 741 0
 650              		.cfi_startproc
 651              		@ args = 0, pretend = 0, frame = 0
 652              		@ frame_needed = 0, uses_anonymous_args = 0
 653              		@ link register save eliminated.
 654              	.LVL37:
 745:.\Generated_Source\PSoC5/ADC_SAR_1.c ****     if(ADC_SAR_1_countsPerVolt != 0)
 655              		.loc 1 745 0
 656 0000 0E4B     		ldr	r3, .L62
 657 0002 1A88     		ldrh	r2, [r3, #0]
 658 0004 91B2     		uxth	r1, r2
 659 0006 21B1     		cbz	r1, .L58
 747:.\Generated_Source\PSoC5/ADC_SAR_1.c ****         countsPer10Volt = (int32)ADC_SAR_1_countsPerVolt * 10;
 660              		.loc 1 747 0
 661 0008 1A88     		ldrh	r2, [r3, #0]
 662 000a 0A21     		movs	r1, #10
 663 000c 13B2     		sxth	r3, r2
 664 000e 4B43     		muls	r3, r1, r3
 665              	.LVL38:
 666 0010 01E0     		b	.L59
 667              	.LVL39:
 668              	.L58:
 751:.\Generated_Source\PSoC5/ADC_SAR_1.c ****         countsPer10Volt = ADC_SAR_1_countsPer10Volt;
 669              		.loc 1 751 0
 670 0012 0B4B     		ldr	r3, .L62+4
 671 0014 1B68     		ldr	r3, [r3, #0]
 672              	.LVL40:
 673              	.L59:
 755:.\Generated_Source\PSoC5/ADC_SAR_1.c ****     adcCounts -= ADC_SAR_1_offset;
 674              		.loc 1 755 0
 675 0016 0B4A     		ldr	r2, .L62+8
 676 0018 1188     		ldrh	r1, [r2, #0]
 677 001a 401A     		subs	r0, r0, r1
 678              	.LVL41:
 679 001c 02B2     		sxth	r2, r0
 680              	.LVL42:
 757:.\Generated_Source\PSoC5/ADC_SAR_1.c ****     mVolts = (int16)( (( (int32)adcCounts * ADC_SAR_1_10MV_COUNTS ) + ( (adcCounts > 0) ?
 681              		.loc 1 757 0
 682 001e 42F21071 		movw	r1, #10000
 683 0022 5143     		muls	r1, r2, r1
 684 0024 4FF00200 		mov	r0, #2
 685              	.LVL43:
ARM GAS  C:\Users\Luke\AppData\Local\Temp\ccj7j385.s 			page 29


 758:.\Generated_Source\PSoC5/ADC_SAR_1.c ****                        (countsPer10Volt / 2) : (-(countsPer10Volt / 2)) )) / countsPer10Volt);
 686              		.loc 1 758 0
 687 0028 002A     		cmp	r2, #0
 688 002a 93FBF0F2 		sdiv	r2, r3, r0
 689              	.LVL44:
 690 002e D8BF     		it	le
 691 0030 5242     		negle	r2, r2
 692              	.LVL45:
 757:.\Generated_Source\PSoC5/ADC_SAR_1.c ****     mVolts = (int16)( (( (int32)adcCounts * ADC_SAR_1_10MV_COUNTS ) + ( (adcCounts > 0) ?
 693              		.loc 1 757 0
 694 0032 8918     		adds	r1, r1, r2
 695              	.LVL46:
 696 0034 91FBF3F3 		sdiv	r3, r1, r3
 697              	.LVL47:
 761:.\Generated_Source\PSoC5/ADC_SAR_1.c **** }
 698              		.loc 1 761 0
 699 0038 18B2     		sxth	r0, r3
 700 003a 7047     		bx	lr
 701              	.L63:
 702              		.align	2
 703              	.L62:
 704 003c 00000000 		.word	ADC_SAR_1_countsPerVolt
 705 0040 00000000 		.word	ADC_SAR_1_countsPer10Volt
 706 0044 00000000 		.word	ADC_SAR_1_offset
 707              		.cfi_endproc
 708              	.LFE15:
 709              		.size	ADC_SAR_1_CountsTo_mVolts, .-ADC_SAR_1_CountsTo_mVolts
 710              		.global	__aeabi_ldivmod
 711              		.section	.text.ADC_SAR_1_CountsTo_uVolts,"ax",%progbits
 712              		.align	1
 713              		.global	ADC_SAR_1_CountsTo_uVolts
 714              		.thumb
 715              		.thumb_func
 716              		.type	ADC_SAR_1_CountsTo_uVolts, %function
 717              	ADC_SAR_1_CountsTo_uVolts:
 718              	.LFB16:
 783:.\Generated_Source\PSoC5/ADC_SAR_1.c **** {
 719              		.loc 1 783 0
 720              		.cfi_startproc
 721              		@ args = 0, pretend = 0, frame = 0
 722              		@ frame_needed = 0, uses_anonymous_args = 0
 723              	.LVL48:
 788:.\Generated_Source\PSoC5/ADC_SAR_1.c ****     if(ADC_SAR_1_countsPerVolt != 0)
 724              		.loc 1 788 0
 725 0000 0D4B     		ldr	r3, .L67
 783:.\Generated_Source\PSoC5/ADC_SAR_1.c **** {
 726              		.loc 1 783 0
 727 0002 10B5     		push	{r4, lr}
 728              	.LCFI5:
 729              		.cfi_def_cfa_offset 8
 730              		.cfi_offset 4, -8
 731              		.cfi_offset 14, -4
 788:.\Generated_Source\PSoC5/ADC_SAR_1.c ****     if(ADC_SAR_1_countsPerVolt != 0)
 732              		.loc 1 788 0
 733 0004 1A88     		ldrh	r2, [r3, #0]
 734 0006 91B2     		uxth	r1, r2
 735 0008 21B1     		cbz	r1, .L65
ARM GAS  C:\Users\Luke\AppData\Local\Temp\ccj7j385.s 			page 30


 790:.\Generated_Source\PSoC5/ADC_SAR_1.c ****         countsPer10Volt = (int32)ADC_SAR_1_countsPerVolt * 10;
 736              		.loc 1 790 0
 737 000a 1B88     		ldrh	r3, [r3, #0]
 738 000c 0A22     		movs	r2, #10
 739 000e 1CB2     		sxth	r4, r3
 740 0010 5443     		muls	r4, r2, r4
 741              	.LVL49:
 742 0012 01E0     		b	.L66
 743              	.LVL50:
 744              	.L65:
 794:.\Generated_Source\PSoC5/ADC_SAR_1.c ****         countsPer10Volt = ADC_SAR_1_countsPer10Volt;
 745              		.loc 1 794 0
 746 0014 094C     		ldr	r4, .L67+4
 747 0016 2468     		ldr	r4, [r4, #0]
 748              	.LVL51:
 749              	.L66:
 798:.\Generated_Source\PSoC5/ADC_SAR_1.c ****     adcCounts -= ADC_SAR_1_offset;
 750              		.loc 1 798 0
 751 0018 094B     		ldr	r3, .L67+8
 752 001a 1B88     		ldrh	r3, [r3, #0]
 753              	.LVL52:
 802:.\Generated_Source\PSoC5/ADC_SAR_1.c ****     uVolts = (( (int64)adcCounts * ADC_SAR_1_10UV_COUNTS ) / countsPer10Volt);
 754              		.loc 1 802 0
 755 001c C21A     		subs	r2, r0, r3
 756 001e 10B2     		sxth	r0, r2
 757              	.LVL53:
 758 0020 084A     		ldr	r2, .L67+12
 759 0022 C317     		asrs	r3, r0, #31
 760 0024 A0FB0201 		umull	r0, r1, r0, r2
 761 0028 02FB0311 		mla	r1, r2, r3, r1
 762 002c 2246     		mov	r2, r4
 763 002e E317     		asrs	r3, r4, #31
 764 0030 FFF7FEFF 		bl	__aeabi_ldivmod
 765              	.LVL54:
 805:.\Generated_Source\PSoC5/ADC_SAR_1.c **** }
 766              		.loc 1 805 0
 767 0034 10BD     		pop	{r4, pc}
 768              	.L68:
 769 0036 00BF     		.align	2
 770              	.L67:
 771 0038 00000000 		.word	ADC_SAR_1_countsPerVolt
 772 003c 00000000 		.word	ADC_SAR_1_countsPer10Volt
 773 0040 00000000 		.word	ADC_SAR_1_offset
 774 0044 80969800 		.word	10000000
 775              		.cfi_endproc
 776              	.LFE16:
 777              		.size	ADC_SAR_1_CountsTo_uVolts, .-ADC_SAR_1_CountsTo_uVolts
 778              		.global	__aeabi_i2f
 779              		.global	__aeabi_fmul
 780              		.global	__aeabi_fdiv
 781              		.section	.text.ADC_SAR_1_CountsTo_Volts,"ax",%progbits
 782              		.align	1
 783              		.global	ADC_SAR_1_CountsTo_Volts
 784              		.thumb
 785              		.thumb_func
 786              		.type	ADC_SAR_1_CountsTo_Volts, %function
 787              	ADC_SAR_1_CountsTo_Volts:
ARM GAS  C:\Users\Luke\AppData\Local\Temp\ccj7j385.s 			page 31


 788              	.LFB17:
 827:.\Generated_Source\PSoC5/ADC_SAR_1.c **** {
 789              		.loc 1 827 0
 790              		.cfi_startproc
 791              		@ args = 0, pretend = 0, frame = 0
 792              		@ frame_needed = 0, uses_anonymous_args = 0
 793              	.LVL55:
 794 0000 38B5     		push	{r3, r4, r5, lr}
 795              	.LCFI6:
 796              		.cfi_def_cfa_offset 16
 797              		.cfi_offset 3, -16
 798              		.cfi_offset 4, -12
 799              		.cfi_offset 5, -8
 800              		.cfi_offset 14, -4
 831:.\Generated_Source\PSoC5/ADC_SAR_1.c ****     if(ADC_SAR_1_countsPerVolt != 0)
 801              		.loc 1 831 0
 802 0002 0E4B     		ldr	r3, .L72
 803 0004 1A88     		ldrh	r2, [r3, #0]
 804 0006 91B2     		uxth	r1, r2
 805 0008 21B1     		cbz	r1, .L70
 833:.\Generated_Source\PSoC5/ADC_SAR_1.c ****         countsPer10Volt = (int32)ADC_SAR_1_countsPerVolt * 10;
 806              		.loc 1 833 0
 807 000a 1D88     		ldrh	r5, [r3, #0]
 808 000c 0A23     		movs	r3, #10
 809 000e 2CB2     		sxth	r4, r5
 810 0010 5C43     		muls	r4, r3, r4
 811              	.LVL56:
 812 0012 01E0     		b	.L71
 813              	.LVL57:
 814              	.L70:
 837:.\Generated_Source\PSoC5/ADC_SAR_1.c ****         countsPer10Volt = ADC_SAR_1_countsPer10Volt;
 815              		.loc 1 837 0
 816 0014 0A4C     		ldr	r4, .L72+4
 817 0016 2468     		ldr	r4, [r4, #0]
 818              	.LVL58:
 819              	.L71:
 841:.\Generated_Source\PSoC5/ADC_SAR_1.c ****     adcCounts -= ADC_SAR_1_offset;
 820              		.loc 1 841 0
 821 0018 0A4A     		ldr	r2, .L72+8
 822 001a 1188     		ldrh	r1, [r2, #0]
 823 001c 401A     		subs	r0, r0, r1
 824              	.LVL59:
 843:.\Generated_Source\PSoC5/ADC_SAR_1.c ****     volts = ((float32)adcCounts * ADC_SAR_1_10V_COUNTS) / (float32)countsPer10Volt;
 825              		.loc 1 843 0
 826 001e 00B2     		sxth	r0, r0
 827              	.LVL60:
 828 0020 FFF7FEFF 		bl	__aeabi_i2f
 829              	.LVL61:
 830 0024 0849     		ldr	r1, .L72+12
 831 0026 FFF7FEFF 		bl	__aeabi_fmul
 832              	.LVL62:
 833 002a 0546     		mov	r5, r0
 834 002c 2046     		mov	r0, r4
 835 002e FFF7FEFF 		bl	__aeabi_i2f
 836              	.LVL63:
 837 0032 0146     		mov	r1, r0
 838 0034 2846     		mov	r0, r5
ARM GAS  C:\Users\Luke\AppData\Local\Temp\ccj7j385.s 			page 32


 839 0036 FFF7FEFF 		bl	__aeabi_fdiv
 840              	.LVL64:
 841              		.loc 1 846 0
 842 003a 38BD     		pop	{r3, r4, r5, pc}
 843              	.L73:
 844              		.align	2
 845              	.L72:
 846 003c 00000000 		.word	ADC_SAR_1_countsPerVolt
 847 0040 00000000 		.word	ADC_SAR_1_countsPer10Volt
 848 0044 00000000 		.word	ADC_SAR_1_offset
 849 0048 00002041 		.word	1092616192
 850              		.cfi_endproc
 851              	.LFE17:
 852              		.size	ADC_SAR_1_CountsTo_Volts, .-ADC_SAR_1_CountsTo_Volts
 853              		.comm	ADC_SAR_1_shift,2,2
 854              		.comm	ADC_SAR_1_countsPer10Volt,4,4
 855              		.comm	ADC_SAR_1_countsPerVolt,2,2
 856              		.comm	ADC_SAR_1_offset,2,2
 857              		.global	ADC_SAR_1_initVar
 858              		.section	.rodata
 859              		.align	1
 860              		.set	.LANCHOR0,. + 0
 861              		.type	CSWTCH.31, %object
 862              		.size	CSWTCH.31, 3
 863              	CSWTCH.31:
 864 0000 44       		.byte	68
 865 0001 C4       		.byte	-60
 866 0002 84       		.byte	-124
 867 0003 00       		.space	1
 868              		.type	CSWTCH.25, %object
 869              		.size	CSWTCH.25, 10
 870              	CSWTCH.25:
 871 0004 0001     		.short	256
 872 0006 0000     		.short	0
 873 0008 0004     		.short	1024
 874 000a 0000     		.short	0
 875 000c 0010     		.short	4096
 876              		.bss
 877              		.set	.LANCHOR1,. + 0
 878              		.type	ADC_SAR_1_initVar, %object
 879              		.size	ADC_SAR_1_initVar, 1
 880              	ADC_SAR_1_initVar:
 881 0000 00       		.space	1
 882              		.text
 883              	.Letext0:
 884              		.file 2 ".\\Generated_Source\\PSoC5\\cytypes.h"
 885              		.file 3 ".\\Generated_Source\\PSoC5\\CyLib.h"
 886              		.file 4 ".\\Generated_Source\\PSoC5\\ADC_SAR_1_theACLK.h"