ARM GAS  C:\Users\Luke\AppData\Local\Temp\ccJ23FQg.s 			page 1


   1              		.syntax unified
   2              		.cpu cortex-m3
   3              		.fpu softvfp
   4              		.eabi_attribute 20, 1
   5              		.eabi_attribute 21, 1
   6              		.eabi_attribute 23, 3
   7              		.eabi_attribute 24, 1
   8              		.eabi_attribute 25, 1
   9              		.eabi_attribute 26, 1
  10              		.eabi_attribute 30, 4
  11              		.eabi_attribute 34, 1
  12              		.eabi_attribute 18, 4
  13              		.thumb
  14              		.file	"ADC_SAR_2.c"
  15              		.text
  16              	.Ltext0:
  17              		.cfi_sections	.debug_frame
  18              		.section	.text.ADC_SAR_2_Enable,"ax",%progbits
  19              		.align	1
  20              		.global	ADC_SAR_2_Enable
  21              		.thumb
  22              		.thumb_func
  23              		.type	ADC_SAR_2_Enable, %function
  24              	ADC_SAR_2_Enable:
  25              	.LFB2:
  26              		.file 1 ".\\Generated_Source\\PSoC5\\ADC_SAR_2.c"
   1:.\Generated_Source\PSoC5/ADC_SAR_2.c **** /*******************************************************************************
   2:.\Generated_Source\PSoC5/ADC_SAR_2.c **** * File Name: ADC_SAR_2.c
   3:.\Generated_Source\PSoC5/ADC_SAR_2.c **** * Version 2.10
   4:.\Generated_Source\PSoC5/ADC_SAR_2.c **** *
   5:.\Generated_Source\PSoC5/ADC_SAR_2.c **** * Description:
   6:.\Generated_Source\PSoC5/ADC_SAR_2.c **** *  This file provides the source code to the API for the Successive
   7:.\Generated_Source\PSoC5/ADC_SAR_2.c **** *  approximation ADC Component.
   8:.\Generated_Source\PSoC5/ADC_SAR_2.c **** *
   9:.\Generated_Source\PSoC5/ADC_SAR_2.c **** * Note:
  10:.\Generated_Source\PSoC5/ADC_SAR_2.c **** *
  11:.\Generated_Source\PSoC5/ADC_SAR_2.c **** ********************************************************************************
  12:.\Generated_Source\PSoC5/ADC_SAR_2.c **** * Copyright 2008-2013, Cypress Semiconductor Corporation.  All rights reserved.
  13:.\Generated_Source\PSoC5/ADC_SAR_2.c **** * You may use this file only in accordance with the license, terms, conditions,
  14:.\Generated_Source\PSoC5/ADC_SAR_2.c **** * disclaimers, and limitations in the end user license agreement accompanying
  15:.\Generated_Source\PSoC5/ADC_SAR_2.c **** * the software package with which this file was provided.
  16:.\Generated_Source\PSoC5/ADC_SAR_2.c **** *******************************************************************************/
  17:.\Generated_Source\PSoC5/ADC_SAR_2.c **** 
  18:.\Generated_Source\PSoC5/ADC_SAR_2.c **** #include "CyLib.h"
  19:.\Generated_Source\PSoC5/ADC_SAR_2.c **** #include "ADC_SAR_2.h"
  20:.\Generated_Source\PSoC5/ADC_SAR_2.c **** 
  21:.\Generated_Source\PSoC5/ADC_SAR_2.c **** #if(ADC_SAR_2_DEFAULT_INTERNAL_CLK)
  22:.\Generated_Source\PSoC5/ADC_SAR_2.c ****     #include "ADC_SAR_2_theACLK.h"
  23:.\Generated_Source\PSoC5/ADC_SAR_2.c **** #endif /* End ADC_SAR_2_DEFAULT_INTERNAL_CLK */
  24:.\Generated_Source\PSoC5/ADC_SAR_2.c **** 
  25:.\Generated_Source\PSoC5/ADC_SAR_2.c **** 
  26:.\Generated_Source\PSoC5/ADC_SAR_2.c **** /***************************************
  27:.\Generated_Source\PSoC5/ADC_SAR_2.c **** * Forward function references
  28:.\Generated_Source\PSoC5/ADC_SAR_2.c **** ***************************************/
  29:.\Generated_Source\PSoC5/ADC_SAR_2.c **** static void ADC_SAR_2_CalcGain(uint8 resolution);
  30:.\Generated_Source\PSoC5/ADC_SAR_2.c **** 
  31:.\Generated_Source\PSoC5/ADC_SAR_2.c **** 
ARM GAS  C:\Users\Luke\AppData\Local\Temp\ccJ23FQg.s 			page 2


  32:.\Generated_Source\PSoC5/ADC_SAR_2.c **** /***************************************
  33:.\Generated_Source\PSoC5/ADC_SAR_2.c **** * Global data allocation
  34:.\Generated_Source\PSoC5/ADC_SAR_2.c **** ***************************************/
  35:.\Generated_Source\PSoC5/ADC_SAR_2.c **** uint8 ADC_SAR_2_initVar = 0u;
  36:.\Generated_Source\PSoC5/ADC_SAR_2.c **** volatile int16 ADC_SAR_2_offset;
  37:.\Generated_Source\PSoC5/ADC_SAR_2.c **** volatile int16 ADC_SAR_2_countsPerVolt;     /* Obsolete Gain compensation */
  38:.\Generated_Source\PSoC5/ADC_SAR_2.c **** volatile int32 ADC_SAR_2_countsPer10Volt;   /* Gain compensation */
  39:.\Generated_Source\PSoC5/ADC_SAR_2.c **** volatile int16 ADC_SAR_2_shift;
  40:.\Generated_Source\PSoC5/ADC_SAR_2.c **** 
  41:.\Generated_Source\PSoC5/ADC_SAR_2.c **** 
  42:.\Generated_Source\PSoC5/ADC_SAR_2.c **** /*******************************************************************************
  43:.\Generated_Source\PSoC5/ADC_SAR_2.c **** * Function Name: ADC_SAR_2_Start
  44:.\Generated_Source\PSoC5/ADC_SAR_2.c **** ********************************************************************************
  45:.\Generated_Source\PSoC5/ADC_SAR_2.c **** *
  46:.\Generated_Source\PSoC5/ADC_SAR_2.c **** * Summary:
  47:.\Generated_Source\PSoC5/ADC_SAR_2.c **** *  This is the preferred method to begin component operation.
  48:.\Generated_Source\PSoC5/ADC_SAR_2.c **** *  ADC_SAR_2_Start() sets the initVar variable, calls the
  49:.\Generated_Source\PSoC5/ADC_SAR_2.c **** *  ADC_SAR_2_Init() function, and then calls the
  50:.\Generated_Source\PSoC5/ADC_SAR_2.c **** *  ADC_SAR_2_Enable() function.
  51:.\Generated_Source\PSoC5/ADC_SAR_2.c **** *
  52:.\Generated_Source\PSoC5/ADC_SAR_2.c **** * Parameters:
  53:.\Generated_Source\PSoC5/ADC_SAR_2.c **** *  None.
  54:.\Generated_Source\PSoC5/ADC_SAR_2.c **** *
  55:.\Generated_Source\PSoC5/ADC_SAR_2.c **** * Return:
  56:.\Generated_Source\PSoC5/ADC_SAR_2.c **** *  None.
  57:.\Generated_Source\PSoC5/ADC_SAR_2.c **** *
  58:.\Generated_Source\PSoC5/ADC_SAR_2.c **** * Global variables:
  59:.\Generated_Source\PSoC5/ADC_SAR_2.c **** *  The ADC_SAR_2_initVar variable is used to indicate when/if initial
  60:.\Generated_Source\PSoC5/ADC_SAR_2.c **** *  configuration of this component has happened. The variable is initialized to
  61:.\Generated_Source\PSoC5/ADC_SAR_2.c **** *  zero and set to 1 the first time ADC_Start() is called. This allows for
  62:.\Generated_Source\PSoC5/ADC_SAR_2.c **** *  component Re-Start without re-initialization in all subsequent calls to the
  63:.\Generated_Source\PSoC5/ADC_SAR_2.c **** *  ADC_SAR_2_Start() routine.
  64:.\Generated_Source\PSoC5/ADC_SAR_2.c **** *  If re-initialization of the component is required the variable should be set
  65:.\Generated_Source\PSoC5/ADC_SAR_2.c **** *  to zero before call of ADC_SAR_2_Start() routine, or the user may call
  66:.\Generated_Source\PSoC5/ADC_SAR_2.c **** *  ADC_SAR_2_Init() and ADC_SAR_2_Enable() as done in the
  67:.\Generated_Source\PSoC5/ADC_SAR_2.c **** *  ADC_SAR_2_Start() routine.
  68:.\Generated_Source\PSoC5/ADC_SAR_2.c **** *
  69:.\Generated_Source\PSoC5/ADC_SAR_2.c **** * Side Effect:
  70:.\Generated_Source\PSoC5/ADC_SAR_2.c **** *  If the initVar variable is already set, this function only calls the
  71:.\Generated_Source\PSoC5/ADC_SAR_2.c **** *  ADC_SAR_2_Enable() function.
  72:.\Generated_Source\PSoC5/ADC_SAR_2.c **** *
  73:.\Generated_Source\PSoC5/ADC_SAR_2.c **** *******************************************************************************/
  74:.\Generated_Source\PSoC5/ADC_SAR_2.c **** void ADC_SAR_2_Start(void)
  75:.\Generated_Source\PSoC5/ADC_SAR_2.c **** {
  76:.\Generated_Source\PSoC5/ADC_SAR_2.c **** 
  77:.\Generated_Source\PSoC5/ADC_SAR_2.c ****     /* If not Initialized then initialize all required hardware and software */
  78:.\Generated_Source\PSoC5/ADC_SAR_2.c ****     if(ADC_SAR_2_initVar == 0u)
  79:.\Generated_Source\PSoC5/ADC_SAR_2.c ****     {
  80:.\Generated_Source\PSoC5/ADC_SAR_2.c ****         ADC_SAR_2_Init();
  81:.\Generated_Source\PSoC5/ADC_SAR_2.c ****         ADC_SAR_2_initVar = 1u;
  82:.\Generated_Source\PSoC5/ADC_SAR_2.c ****     }
  83:.\Generated_Source\PSoC5/ADC_SAR_2.c ****     ADC_SAR_2_Enable();
  84:.\Generated_Source\PSoC5/ADC_SAR_2.c **** }
  85:.\Generated_Source\PSoC5/ADC_SAR_2.c **** 
  86:.\Generated_Source\PSoC5/ADC_SAR_2.c **** 
  87:.\Generated_Source\PSoC5/ADC_SAR_2.c **** /*******************************************************************************
  88:.\Generated_Source\PSoC5/ADC_SAR_2.c **** * Function Name: ADC_SAR_2_Init
ARM GAS  C:\Users\Luke\AppData\Local\Temp\ccJ23FQg.s 			page 3


  89:.\Generated_Source\PSoC5/ADC_SAR_2.c **** ********************************************************************************
  90:.\Generated_Source\PSoC5/ADC_SAR_2.c **** *
  91:.\Generated_Source\PSoC5/ADC_SAR_2.c **** * Summary:
  92:.\Generated_Source\PSoC5/ADC_SAR_2.c **** *  Initialize component's parameters to the parameters set by user in the
  93:.\Generated_Source\PSoC5/ADC_SAR_2.c **** *  customizer of the component placed onto schematic. Usually called in
  94:.\Generated_Source\PSoC5/ADC_SAR_2.c **** *  ADC_SAR_2_Start().
  95:.\Generated_Source\PSoC5/ADC_SAR_2.c **** *
  96:.\Generated_Source\PSoC5/ADC_SAR_2.c **** * Parameters:
  97:.\Generated_Source\PSoC5/ADC_SAR_2.c **** *  None.
  98:.\Generated_Source\PSoC5/ADC_SAR_2.c **** *
  99:.\Generated_Source\PSoC5/ADC_SAR_2.c **** * Return:
 100:.\Generated_Source\PSoC5/ADC_SAR_2.c **** *  None.
 101:.\Generated_Source\PSoC5/ADC_SAR_2.c **** *
 102:.\Generated_Source\PSoC5/ADC_SAR_2.c **** * Global variables:
 103:.\Generated_Source\PSoC5/ADC_SAR_2.c **** *  The ADC_SAR_2_offset variable is initialized to 0.
 104:.\Generated_Source\PSoC5/ADC_SAR_2.c **** *
 105:.\Generated_Source\PSoC5/ADC_SAR_2.c **** *******************************************************************************/
 106:.\Generated_Source\PSoC5/ADC_SAR_2.c **** void ADC_SAR_2_Init(void)
 107:.\Generated_Source\PSoC5/ADC_SAR_2.c **** {
 108:.\Generated_Source\PSoC5/ADC_SAR_2.c **** 
 109:.\Generated_Source\PSoC5/ADC_SAR_2.c ****     /* This is only valid if there is an internal clock */
 110:.\Generated_Source\PSoC5/ADC_SAR_2.c ****     #if(ADC_SAR_2_DEFAULT_INTERNAL_CLK)
 111:.\Generated_Source\PSoC5/ADC_SAR_2.c ****         ADC_SAR_2_theACLK_SetMode(CYCLK_DUTY);
 112:.\Generated_Source\PSoC5/ADC_SAR_2.c ****     #endif /* End ADC_SAR_2_DEFAULT_INTERNAL_CLK */
 113:.\Generated_Source\PSoC5/ADC_SAR_2.c **** 
 114:.\Generated_Source\PSoC5/ADC_SAR_2.c ****     #if(ADC_SAR_2_IRQ_REMOVE == 0u)
 115:.\Generated_Source\PSoC5/ADC_SAR_2.c ****         /* Start and set interrupt vector */
 116:.\Generated_Source\PSoC5/ADC_SAR_2.c ****         CyIntSetPriority(ADC_SAR_2_INTC_NUMBER, ADC_SAR_2_INTC_PRIOR_NUMBER);
 117:.\Generated_Source\PSoC5/ADC_SAR_2.c ****         (void)CyIntSetVector(ADC_SAR_2_INTC_NUMBER, &ADC_SAR_2_ISR);
 118:.\Generated_Source\PSoC5/ADC_SAR_2.c ****     #endif   /* End ADC_SAR_2_IRQ_REMOVE */
 119:.\Generated_Source\PSoC5/ADC_SAR_2.c **** 
 120:.\Generated_Source\PSoC5/ADC_SAR_2.c ****     /* Enable IRQ mode*/
 121:.\Generated_Source\PSoC5/ADC_SAR_2.c ****     ADC_SAR_2_SAR_CSR1_REG |= ADC_SAR_2_SAR_IRQ_MASK_EN | ADC_SAR_2_SAR_IRQ_MODE_EDGE;
 122:.\Generated_Source\PSoC5/ADC_SAR_2.c **** 
 123:.\Generated_Source\PSoC5/ADC_SAR_2.c ****     /*Set SAR ADC resolution ADC */
 124:.\Generated_Source\PSoC5/ADC_SAR_2.c ****     ADC_SAR_2_SetResolution(ADC_SAR_2_DEFAULT_RESOLUTION);
 125:.\Generated_Source\PSoC5/ADC_SAR_2.c ****     ADC_SAR_2_offset = 0;
 126:.\Generated_Source\PSoC5/ADC_SAR_2.c **** }
 127:.\Generated_Source\PSoC5/ADC_SAR_2.c **** 
 128:.\Generated_Source\PSoC5/ADC_SAR_2.c **** 
 129:.\Generated_Source\PSoC5/ADC_SAR_2.c **** /*******************************************************************************
 130:.\Generated_Source\PSoC5/ADC_SAR_2.c **** * Function Name: ADC_SAR_2_Enable
 131:.\Generated_Source\PSoC5/ADC_SAR_2.c **** ********************************************************************************
 132:.\Generated_Source\PSoC5/ADC_SAR_2.c **** *
 133:.\Generated_Source\PSoC5/ADC_SAR_2.c **** * Summary:
 134:.\Generated_Source\PSoC5/ADC_SAR_2.c **** *  Enables the reference, clock and power for SAR ADC.
 135:.\Generated_Source\PSoC5/ADC_SAR_2.c **** *
 136:.\Generated_Source\PSoC5/ADC_SAR_2.c **** * Parameters:
 137:.\Generated_Source\PSoC5/ADC_SAR_2.c **** *  None.
 138:.\Generated_Source\PSoC5/ADC_SAR_2.c **** *
 139:.\Generated_Source\PSoC5/ADC_SAR_2.c **** * Return:
 140:.\Generated_Source\PSoC5/ADC_SAR_2.c **** *  None.
 141:.\Generated_Source\PSoC5/ADC_SAR_2.c **** *
 142:.\Generated_Source\PSoC5/ADC_SAR_2.c **** *******************************************************************************/
 143:.\Generated_Source\PSoC5/ADC_SAR_2.c **** void ADC_SAR_2_Enable(void)
 144:.\Generated_Source\PSoC5/ADC_SAR_2.c **** {
  27              		.loc 1 144 0
ARM GAS  C:\Users\Luke\AppData\Local\Temp\ccJ23FQg.s 			page 4


  28              		.cfi_startproc
  29              		@ args = 0, pretend = 0, frame = 0
  30              		@ frame_needed = 0, uses_anonymous_args = 0
  31 0000 10B5     		push	{r4, lr}
  32              	.LCFI0:
  33              		.cfi_def_cfa_offset 8
  34              		.cfi_offset 4, -8
  35              		.cfi_offset 14, -4
 145:.\Generated_Source\PSoC5/ADC_SAR_2.c ****     uint8 tmpReg;
 146:.\Generated_Source\PSoC5/ADC_SAR_2.c ****     uint8 enableInterrupts;
 147:.\Generated_Source\PSoC5/ADC_SAR_2.c ****     enableInterrupts = CyEnterCriticalSection();
  36              		.loc 1 147 0
  37 0002 FFF7FEFF 		bl	CyEnterCriticalSection
  38              	.LVL0:
 148:.\Generated_Source\PSoC5/ADC_SAR_2.c **** 
 149:.\Generated_Source\PSoC5/ADC_SAR_2.c ****     /* Enable the SAR ADC block in Active Power Mode */
 150:.\Generated_Source\PSoC5/ADC_SAR_2.c ****     ADC_SAR_2_PWRMGR_SAR_REG |= ADC_SAR_2_ACT_PWR_SAR_EN;
  39              		.loc 1 150 0
  40 0006 1C4B     		ldr	r3, .L2
 147:.\Generated_Source\PSoC5/ADC_SAR_2.c ****     enableInterrupts = CyEnterCriticalSection();
  41              		.loc 1 147 0
  42 0008 0446     		mov	r4, r0
  43              	.LVL1:
  44              		.loc 1 150 0
  45 000a 1A78     		ldrb	r2, [r3, #0]	@ zero_extendqisi2
  46 000c 42F00100 		orr	r0, r2, #1
  47              	.LVL2:
  48 0010 1870     		strb	r0, [r3, #0]
 151:.\Generated_Source\PSoC5/ADC_SAR_2.c **** 
 152:.\Generated_Source\PSoC5/ADC_SAR_2.c ****      /* Enable the SAR ADC in Standby Power Mode*/
 153:.\Generated_Source\PSoC5/ADC_SAR_2.c ****     ADC_SAR_2_STBY_PWRMGR_SAR_REG |= ADC_SAR_2_STBY_PWR_SAR_EN;
  49              		.loc 1 153 0
  50 0012 197C     		ldrb	r1, [r3, #16]	@ zero_extendqisi2
  51 0014 41F00102 		orr	r2, r1, #1
  52 0018 1A74     		strb	r2, [r3, #16]
 154:.\Generated_Source\PSoC5/ADC_SAR_2.c **** 
 155:.\Generated_Source\PSoC5/ADC_SAR_2.c ****     /* This is only valid if there is an internal clock */
 156:.\Generated_Source\PSoC5/ADC_SAR_2.c ****     #if(ADC_SAR_2_DEFAULT_INTERNAL_CLK)
 157:.\Generated_Source\PSoC5/ADC_SAR_2.c ****         ADC_SAR_2_PWRMGR_CLK_REG |= ADC_SAR_2_ACT_PWR_CLK_EN;
  53              		.loc 1 157 0
  54 001a 13F80A0C 		ldrb	r0, [r3, #-10]	@ zero_extendqisi2
  55 001e 40F00201 		orr	r1, r0, #2
  56 0022 03F80A1C 		strb	r1, [r3, #-10]
 158:.\Generated_Source\PSoC5/ADC_SAR_2.c ****         ADC_SAR_2_STBY_PWRMGR_CLK_REG |= ADC_SAR_2_STBY_PWR_CLK_EN;
  57              		.loc 1 158 0
  58 0026 9A79     		ldrb	r2, [r3, #6]	@ zero_extendqisi2
  59 0028 42F00200 		orr	r0, r2, #2
  60 002c 9871     		strb	r0, [r3, #6]
 159:.\Generated_Source\PSoC5/ADC_SAR_2.c ****     #endif /* End ADC_SAR_2_DEFAULT_INTERNAL_CLK */
 160:.\Generated_Source\PSoC5/ADC_SAR_2.c **** 
 161:.\Generated_Source\PSoC5/ADC_SAR_2.c ****     /* Enable VCM buffer and Enable Int Ref Amp */
 162:.\Generated_Source\PSoC5/ADC_SAR_2.c ****     tmpReg = ADC_SAR_2_SAR_CSR3_REG;
  61              		.loc 1 162 0
  62 002e 134B     		ldr	r3, .L2+4
 163:.\Generated_Source\PSoC5/ADC_SAR_2.c ****     tmpReg |= ADC_SAR_2_SAR_EN_BUF_VCM_EN;
 164:.\Generated_Source\PSoC5/ADC_SAR_2.c ****     /* PD_BUF_VREF is OFF in External reference or Vdda reference mode */
 165:.\Generated_Source\PSoC5/ADC_SAR_2.c ****     #if((ADC_SAR_2_DEFAULT_REFERENCE == ADC_SAR_2__EXT_REF) || \
ARM GAS  C:\Users\Luke\AppData\Local\Temp\ccJ23FQg.s 			page 5


 166:.\Generated_Source\PSoC5/ADC_SAR_2.c ****         (ADC_SAR_2_DEFAULT_RANGE == ADC_SAR_2__VNEG_VDDA_DIFF))
 167:.\Generated_Source\PSoC5/ADC_SAR_2.c ****         tmpReg &= (uint8)~ADC_SAR_2_SAR_EN_BUF_VREF_EN;
 168:.\Generated_Source\PSoC5/ADC_SAR_2.c ****     #else /* In INTREF or INTREF Bypassed this buffer is ON */
 169:.\Generated_Source\PSoC5/ADC_SAR_2.c ****         tmpReg |= ADC_SAR_2_SAR_EN_BUF_VREF_EN;
 170:.\Generated_Source\PSoC5/ADC_SAR_2.c ****     #endif /* ADC_SAR_2_DEFAULT_REFERENCE == ADC_SAR_2__EXT_REF */
 171:.\Generated_Source\PSoC5/ADC_SAR_2.c ****     ADC_SAR_2_SAR_CSR3_REG = tmpReg;
 172:.\Generated_Source\PSoC5/ADC_SAR_2.c **** 
 173:.\Generated_Source\PSoC5/ADC_SAR_2.c ****     /* Set reference for ADC */
 174:.\Generated_Source\PSoC5/ADC_SAR_2.c ****     #if(ADC_SAR_2_DEFAULT_RANGE == ADC_SAR_2__VNEG_VDDA_DIFF)
 175:.\Generated_Source\PSoC5/ADC_SAR_2.c ****         #if(ADC_SAR_2_DEFAULT_REFERENCE == ADC_SAR_2__EXT_REF)
 176:.\Generated_Source\PSoC5/ADC_SAR_2.c ****             ADC_SAR_2_SAR_CSR6_REG = ADC_SAR_2_INT_BYPASS_EXT_VREF; /* S2 */
 177:.\Generated_Source\PSoC5/ADC_SAR_2.c ****         #else /* Internal Vdda reference or obsolete bypass mode */
 178:.\Generated_Source\PSoC5/ADC_SAR_2.c ****             ADC_SAR_2_SAR_CSR6_REG = ADC_SAR_2_VDDA_VREF;           /* S7 */
 179:.\Generated_Source\PSoC5/ADC_SAR_2.c ****         #endif /* ADC_SAR_2_DEFAULT_REFERENCE == ADC_SAR_2__EXT_REF */
 180:.\Generated_Source\PSoC5/ADC_SAR_2.c ****     #else  /* Reference goes through internal buffer */
 181:.\Generated_Source\PSoC5/ADC_SAR_2.c ****         #if(ADC_SAR_2_DEFAULT_REFERENCE == ADC_SAR_2__INT_REF_NOT_BYPASSED)
 182:.\Generated_Source\PSoC5/ADC_SAR_2.c ****             ADC_SAR_2_SAR_CSR6_REG = ADC_SAR_2_INT_VREF;            /* S3 + S4 */
  63              		.loc 1 182 0
  64 0030 1820     		movs	r0, #24
 162:.\Generated_Source\PSoC5/ADC_SAR_2.c ****     tmpReg = ADC_SAR_2_SAR_CSR3_REG;
  65              		.loc 1 162 0
  66 0032 1978     		ldrb	r1, [r3, #0]	@ zero_extendqisi2
  67              	.LVL3:
 169:.\Generated_Source\PSoC5/ADC_SAR_2.c ****         tmpReg |= ADC_SAR_2_SAR_EN_BUF_VREF_EN;
  68              		.loc 1 169 0
  69 0034 41F00302 		orr	r2, r1, #3
  70              	.LVL4:
 171:.\Generated_Source\PSoC5/ADC_SAR_2.c ****     ADC_SAR_2_SAR_CSR3_REG = tmpReg;
  71              		.loc 1 171 0
  72 0038 1A70     		strb	r2, [r3, #0]
  73              		.loc 1 182 0
  74 003a D870     		strb	r0, [r3, #3]
 183:.\Generated_Source\PSoC5/ADC_SAR_2.c ****         #else /* INTREF Bypassed of External */
 184:.\Generated_Source\PSoC5/ADC_SAR_2.c ****             ADC_SAR_2_SAR_CSR6_REG = ADC_SAR_2_INT_BYPASS_EXT_VREF; /* S2 */
 185:.\Generated_Source\PSoC5/ADC_SAR_2.c ****         #endif /* ADC_SAR_2_DEFAULT_REFERENCE == ADC_SAR_2__INT_REF_NOT_BYPASSED */
 186:.\Generated_Source\PSoC5/ADC_SAR_2.c ****     #endif /* VNEG_VDDA_DIFF */
 187:.\Generated_Source\PSoC5/ADC_SAR_2.c **** 
 188:.\Generated_Source\PSoC5/ADC_SAR_2.c ****     /* Low non-overlap delay for sampling clock signals (for 1MSPS) */
 189:.\Generated_Source\PSoC5/ADC_SAR_2.c ****     #if(ADC_SAR_2_HIGH_POWER_PULSE == 0u) /* MinPulseWidth <= 50 ns */
 190:.\Generated_Source\PSoC5/ADC_SAR_2.c ****         ADC_SAR_2_SAR_CSR5_REG &= (uint8)~ADC_SAR_2_SAR_DLY_INC;
 191:.\Generated_Source\PSoC5/ADC_SAR_2.c ****     #else /* Set High non-overlap delay for sampling clock signals (for <500KSPS)*/
 192:.\Generated_Source\PSoC5/ADC_SAR_2.c ****         ADC_SAR_2_SAR_CSR5_REG |= ADC_SAR_2_SAR_DLY_INC;
  75              		.loc 1 192 0
  76 003c 9978     		ldrb	r1, [r3, #2]	@ zero_extendqisi2
  77 003e 41F04002 		orr	r2, r1, #64
  78              	.LVL5:
  79 0042 9A70     		strb	r2, [r3, #2]
 193:.\Generated_Source\PSoC5/ADC_SAR_2.c ****     #endif /* ADC_SAR_2_CLOCK_FREQUENCY > (ADC_SAR_2_MAX_FREQUENCY / 2) */
 194:.\Generated_Source\PSoC5/ADC_SAR_2.c **** 
 195:.\Generated_Source\PSoC5/ADC_SAR_2.c ****      /* Delay control for comparator latch enable, low delay, (Default for 1MSPS) */
 196:.\Generated_Source\PSoC5/ADC_SAR_2.c ****     #if(ADC_SAR_2_HIGH_POWER_PULSE == 0u) /* MinPulseWidth <= 50 ns */
 197:.\Generated_Source\PSoC5/ADC_SAR_2.c ****         ADC_SAR_2_SAR_CSR5_REG |= ADC_SAR_2_SAR_DCEN;
 198:.\Generated_Source\PSoC5/ADC_SAR_2.c ****     #else /* Delay control for comparator latch enable, high delay (for <500ksps)*/
 199:.\Generated_Source\PSoC5/ADC_SAR_2.c ****         ADC_SAR_2_SAR_CSR5_REG &= (uint8)~ADC_SAR_2_SAR_DCEN;
  80              		.loc 1 199 0
  81 0044 9878     		ldrb	r0, [r3, #2]	@ zero_extendqisi2
 200:.\Generated_Source\PSoC5/ADC_SAR_2.c ****     #endif /* ADC_SAR_2_CLOCK_FREQUENCY > (ADC_SAR_2_MAX_FREQUENCY / 2) */
ARM GAS  C:\Users\Luke\AppData\Local\Temp\ccJ23FQg.s 			page 6


 201:.\Generated_Source\PSoC5/ADC_SAR_2.c **** 
 202:.\Generated_Source\PSoC5/ADC_SAR_2.c ****     /* Set default power and other configurations for control register 0 in multiple lines */
 203:.\Generated_Source\PSoC5/ADC_SAR_2.c ****     ADC_SAR_2_SAR_CSR0_REG = (uint8)((uint8)ADC_SAR_2_DEFAULT_POWER << ADC_SAR_2_SAR_POWER_SHIFT)
  82              		.loc 1 203 0
  83 0046 C822     		movs	r2, #200
 199:.\Generated_Source\PSoC5/ADC_SAR_2.c ****         ADC_SAR_2_SAR_CSR5_REG &= (uint8)~ADC_SAR_2_SAR_DCEN;
  84              		.loc 1 199 0
  85 0048 00F0DF01 		and	r1, r0, #223
  86 004c 9970     		strb	r1, [r3, #2]
  87              		.loc 1 203 0
  88 004e 03F8032C 		strb	r2, [r3, #-3]
 204:.\Generated_Source\PSoC5/ADC_SAR_2.c ****     /* SAR_HIZ_CLEAR:   Should not be used for LP */
 205:.\Generated_Source\PSoC5/ADC_SAR_2.c ****     #if ((CY_PSOC5LP) || (ADC_SAR_2_DEFAULT_REFERENCE != ADC_SAR_2__EXT_REF))
 206:.\Generated_Source\PSoC5/ADC_SAR_2.c ****         | ADC_SAR_2_SAR_HIZ_CLEAR
 207:.\Generated_Source\PSoC5/ADC_SAR_2.c ****     #endif /* SAR_HIZ_CLEAR */
 208:.\Generated_Source\PSoC5/ADC_SAR_2.c ****     /*Set Convertion mode */
 209:.\Generated_Source\PSoC5/ADC_SAR_2.c ****     #if(ADC_SAR_2_DEFAULT_CONV_MODE != ADC_SAR_2__FREE_RUNNING)      /* If triggered mode */
 210:.\Generated_Source\PSoC5/ADC_SAR_2.c ****         | ADC_SAR_2_SAR_MX_SOF_UDB           /* source: UDB */
 211:.\Generated_Source\PSoC5/ADC_SAR_2.c ****         | ADC_SAR_2_SAR_SOF_MODE_EDGE        /* Set edge-sensitive sof source */
 212:.\Generated_Source\PSoC5/ADC_SAR_2.c ****     #endif /* ADC_SAR_2_DEFAULT_CONV_MODE */
 213:.\Generated_Source\PSoC5/ADC_SAR_2.c ****     ; /* end of multiple line initialization */
 214:.\Generated_Source\PSoC5/ADC_SAR_2.c **** 
 215:.\Generated_Source\PSoC5/ADC_SAR_2.c ****     ADC_SAR_2_SAR_TR0_REG = ADC_SAR_2_SAR_CAP_TRIM_2;
  89              		.loc 1 215 0
  90 0052 0B4B     		ldr	r3, .L2+8
 216:.\Generated_Source\PSoC5/ADC_SAR_2.c **** 
 217:.\Generated_Source\PSoC5/ADC_SAR_2.c ****     /* Enable clock for SAR ADC*/
 218:.\Generated_Source\PSoC5/ADC_SAR_2.c ****     ADC_SAR_2_SAR_CLK_REG |= ADC_SAR_2_SAR_MX_CLK_EN;
  91              		.loc 1 218 0
  92 0054 0B49     		ldr	r1, .L2+12
 215:.\Generated_Source\PSoC5/ADC_SAR_2.c ****     ADC_SAR_2_SAR_TR0_REG = ADC_SAR_2_SAR_CAP_TRIM_2;
  93              		.loc 1 215 0
  94 0056 0220     		movs	r0, #2
  95 0058 1870     		strb	r0, [r3, #0]
  96              		.loc 1 218 0
  97 005a 0A78     		ldrb	r2, [r1, #0]	@ zero_extendqisi2
  98 005c 42F00800 		orr	r0, r2, #8
  99 0060 0870     		strb	r0, [r1, #0]
 219:.\Generated_Source\PSoC5/ADC_SAR_2.c **** 
 220:.\Generated_Source\PSoC5/ADC_SAR_2.c ****     CyDelayUs(10u); /* The block is ready to use 10 us after the enable signal is set high. */
 100              		.loc 1 220 0
 101 0062 0A20     		movs	r0, #10
 102 0064 FFF7FEFF 		bl	CyDelayUs
 103              	.LVL6:
 221:.\Generated_Source\PSoC5/ADC_SAR_2.c **** 
 222:.\Generated_Source\PSoC5/ADC_SAR_2.c ****     #if(ADC_SAR_2_IRQ_REMOVE == 0u)
 223:.\Generated_Source\PSoC5/ADC_SAR_2.c ****         /* Clear a pending interrupt */
 224:.\Generated_Source\PSoC5/ADC_SAR_2.c ****         CyIntClearPending(ADC_SAR_2_INTC_NUMBER);
 104              		.loc 1 224 0
 105 0068 074B     		ldr	r3, .L2+16
 106 006a 0421     		movs	r1, #4
 225:.\Generated_Source\PSoC5/ADC_SAR_2.c ****     #endif   /* End ADC_SAR_2_IRQ_REMOVE */
 226:.\Generated_Source\PSoC5/ADC_SAR_2.c **** 
 227:.\Generated_Source\PSoC5/ADC_SAR_2.c ****     CyExitCriticalSection(enableInterrupts);
 107              		.loc 1 227 0
 108 006c 2046     		mov	r0, r4
 224:.\Generated_Source\PSoC5/ADC_SAR_2.c ****         CyIntClearPending(ADC_SAR_2_INTC_NUMBER);
ARM GAS  C:\Users\Luke\AppData\Local\Temp\ccJ23FQg.s 			page 7


 109              		.loc 1 224 0
 110 006e 1960     		str	r1, [r3, #0]
 228:.\Generated_Source\PSoC5/ADC_SAR_2.c **** }
 111              		.loc 1 228 0
 112 0070 BDE81040 		pop	{r4, lr}
 227:.\Generated_Source\PSoC5/ADC_SAR_2.c ****     CyExitCriticalSection(enableInterrupts);
 113              		.loc 1 227 0
 114 0074 FFF7FEBF 		b	CyExitCriticalSection
 115              	.LVL7:
 116              	.L3:
 117              		.align	2
 118              	.L2:
 119 0078 AB430040 		.word	1073759147
 120 007c 03590040 		.word	1073764611
 121 0080 14460040 		.word	1073759764
 122 0084 275B0040 		.word	1073765159
 123 0088 80E200E0 		.word	-536812928
 124              		.cfi_endproc
 125              	.LFE2:
 126              		.size	ADC_SAR_2_Enable, .-ADC_SAR_2_Enable
 127              		.section	.text.ADC_SAR_2_Stop,"ax",%progbits
 128              		.align	1
 129              		.global	ADC_SAR_2_Stop
 130              		.thumb
 131              		.thumb_func
 132              		.type	ADC_SAR_2_Stop, %function
 133              	ADC_SAR_2_Stop:
 134              	.LFB3:
 229:.\Generated_Source\PSoC5/ADC_SAR_2.c **** 
 230:.\Generated_Source\PSoC5/ADC_SAR_2.c **** 
 231:.\Generated_Source\PSoC5/ADC_SAR_2.c **** /*******************************************************************************
 232:.\Generated_Source\PSoC5/ADC_SAR_2.c **** * Function Name: ADC_SAR_2_Stop
 233:.\Generated_Source\PSoC5/ADC_SAR_2.c **** ********************************************************************************
 234:.\Generated_Source\PSoC5/ADC_SAR_2.c **** *
 235:.\Generated_Source\PSoC5/ADC_SAR_2.c **** * Summary:
 236:.\Generated_Source\PSoC5/ADC_SAR_2.c **** *  Stops ADC conversions and puts the ADC into its lowest power mode.
 237:.\Generated_Source\PSoC5/ADC_SAR_2.c **** *
 238:.\Generated_Source\PSoC5/ADC_SAR_2.c **** * Parameters:
 239:.\Generated_Source\PSoC5/ADC_SAR_2.c **** *  None.
 240:.\Generated_Source\PSoC5/ADC_SAR_2.c **** *
 241:.\Generated_Source\PSoC5/ADC_SAR_2.c **** * Return:
 242:.\Generated_Source\PSoC5/ADC_SAR_2.c **** *  None.
 243:.\Generated_Source\PSoC5/ADC_SAR_2.c **** *
 244:.\Generated_Source\PSoC5/ADC_SAR_2.c **** *******************************************************************************/
 245:.\Generated_Source\PSoC5/ADC_SAR_2.c **** void ADC_SAR_2_Stop(void)
 246:.\Generated_Source\PSoC5/ADC_SAR_2.c **** {
 135              		.loc 1 246 0
 136              		.cfi_startproc
 137              		@ args = 0, pretend = 0, frame = 0
 138              		@ frame_needed = 0, uses_anonymous_args = 0
 139 0000 08B5     		push	{r3, lr}
 140              	.LCFI1:
 141              		.cfi_def_cfa_offset 8
 142              		.cfi_offset 3, -8
 143              		.cfi_offset 14, -4
 247:.\Generated_Source\PSoC5/ADC_SAR_2.c ****     uint8 enableInterrupts;
 248:.\Generated_Source\PSoC5/ADC_SAR_2.c ****     enableInterrupts = CyEnterCriticalSection();
ARM GAS  C:\Users\Luke\AppData\Local\Temp\ccJ23FQg.s 			page 8


 144              		.loc 1 248 0
 145 0002 FFF7FEFF 		bl	CyEnterCriticalSection
 146              	.LVL8:
 249:.\Generated_Source\PSoC5/ADC_SAR_2.c **** 
 250:.\Generated_Source\PSoC5/ADC_SAR_2.c ****     /* Stop all conversions */
 251:.\Generated_Source\PSoC5/ADC_SAR_2.c ****     ADC_SAR_2_SAR_CSR0_REG &= (uint8)~ADC_SAR_2_SAR_SOF_START_CONV;
 147              		.loc 1 251 0
 148 0006 0E4B     		ldr	r3, .L5
 149 0008 1A78     		ldrb	r2, [r3, #0]	@ zero_extendqisi2
 150 000a 02F0FE01 		and	r1, r2, #254
 151 000e 1970     		strb	r1, [r3, #0]
 252:.\Generated_Source\PSoC5/ADC_SAR_2.c ****     /* Disable the SAR ADC block in Active Power Mode */
 253:.\Generated_Source\PSoC5/ADC_SAR_2.c ****     ADC_SAR_2_PWRMGR_SAR_REG &= (uint8)~ADC_SAR_2_ACT_PWR_SAR_EN;
 152              		.loc 1 253 0
 153 0010 0C4B     		ldr	r3, .L5+4
 154 0012 1A78     		ldrb	r2, [r3, #0]	@ zero_extendqisi2
 155 0014 02F0FE01 		and	r1, r2, #254
 156 0018 1970     		strb	r1, [r3, #0]
 254:.\Generated_Source\PSoC5/ADC_SAR_2.c ****     /* Disable the SAR ADC in Standby Power Mode */
 255:.\Generated_Source\PSoC5/ADC_SAR_2.c ****     ADC_SAR_2_STBY_PWRMGR_SAR_REG &= (uint8)~ADC_SAR_2_STBY_PWR_SAR_EN;
 157              		.loc 1 255 0
 158 001a 1A7C     		ldrb	r2, [r3, #16]	@ zero_extendqisi2
 159 001c 02F0FE01 		and	r1, r2, #254
 160 0020 1974     		strb	r1, [r3, #16]
 256:.\Generated_Source\PSoC5/ADC_SAR_2.c **** 
 257:.\Generated_Source\PSoC5/ADC_SAR_2.c ****     /* This is only valid if there is an internal clock */
 258:.\Generated_Source\PSoC5/ADC_SAR_2.c ****     #if(ADC_SAR_2_DEFAULT_INTERNAL_CLK)
 259:.\Generated_Source\PSoC5/ADC_SAR_2.c ****         ADC_SAR_2_PWRMGR_CLK_REG &= (uint8)~ADC_SAR_2_ACT_PWR_CLK_EN;
 161              		.loc 1 259 0
 162 0022 13F80A2C 		ldrb	r2, [r3, #-10]	@ zero_extendqisi2
 163 0026 02F0FD01 		and	r1, r2, #253
 164 002a 03F80A1C 		strb	r1, [r3, #-10]
 260:.\Generated_Source\PSoC5/ADC_SAR_2.c ****         ADC_SAR_2_STBY_PWRMGR_CLK_REG &= (uint8)~ADC_SAR_2_STBY_PWR_CLK_EN;
 165              		.loc 1 260 0
 166 002e 9A79     		ldrb	r2, [r3, #6]	@ zero_extendqisi2
 167 0030 02F0FD01 		and	r1, r2, #253
 168 0034 9971     		strb	r1, [r3, #6]
 261:.\Generated_Source\PSoC5/ADC_SAR_2.c ****     #endif /* End ADC_SAR_2_DEFAULT_INTERNAL_CLK */
 262:.\Generated_Source\PSoC5/ADC_SAR_2.c **** 
 263:.\Generated_Source\PSoC5/ADC_SAR_2.c ****     CyExitCriticalSection(enableInterrupts);
 264:.\Generated_Source\PSoC5/ADC_SAR_2.c **** 
 265:.\Generated_Source\PSoC5/ADC_SAR_2.c **** }
 169              		.loc 1 265 0
 170 0036 BDE80840 		pop	{r3, lr}
 263:.\Generated_Source\PSoC5/ADC_SAR_2.c ****     CyExitCriticalSection(enableInterrupts);
 171              		.loc 1 263 0
 172 003a FFF7FEBF 		b	CyExitCriticalSection
 173              	.LVL9:
 174              	.L6:
 175 003e 00BF     		.align	2
 176              	.L5:
 177 0040 00590040 		.word	1073764608
 178 0044 AB430040 		.word	1073759147
 179              		.cfi_endproc
 180              	.LFE3:
 181              		.size	ADC_SAR_2_Stop, .-ADC_SAR_2_Stop
 182              		.section	.text.ADC_SAR_2_SetPower,"ax",%progbits
ARM GAS  C:\Users\Luke\AppData\Local\Temp\ccJ23FQg.s 			page 9


 183              		.align	1
 184              		.global	ADC_SAR_2_SetPower
 185              		.thumb
 186              		.thumb_func
 187              		.type	ADC_SAR_2_SetPower, %function
 188              	ADC_SAR_2_SetPower:
 189              	.LFB4:
 266:.\Generated_Source\PSoC5/ADC_SAR_2.c **** 
 267:.\Generated_Source\PSoC5/ADC_SAR_2.c **** 
 268:.\Generated_Source\PSoC5/ADC_SAR_2.c **** /*******************************************************************************
 269:.\Generated_Source\PSoC5/ADC_SAR_2.c **** * Function Name: ADC_SAR_2_SetPower
 270:.\Generated_Source\PSoC5/ADC_SAR_2.c **** ********************************************************************************
 271:.\Generated_Source\PSoC5/ADC_SAR_2.c **** *
 272:.\Generated_Source\PSoC5/ADC_SAR_2.c **** * Summary:
 273:.\Generated_Source\PSoC5/ADC_SAR_2.c **** *  Sets the operational power of the ADC. You should use the higher power
 274:.\Generated_Source\PSoC5/ADC_SAR_2.c **** *  settings with faster clock speeds.
 275:.\Generated_Source\PSoC5/ADC_SAR_2.c **** *
 276:.\Generated_Source\PSoC5/ADC_SAR_2.c **** * Parameters:
 277:.\Generated_Source\PSoC5/ADC_SAR_2.c **** *  power:  Power setting for ADC
 278:.\Generated_Source\PSoC5/ADC_SAR_2.c **** *  0 ->    Normal
 279:.\Generated_Source\PSoC5/ADC_SAR_2.c **** *  1 ->    Medium power
 280:.\Generated_Source\PSoC5/ADC_SAR_2.c **** *  2 ->    1.25 power
 281:.\Generated_Source\PSoC5/ADC_SAR_2.c **** *  3 ->    Minimum power.
 282:.\Generated_Source\PSoC5/ADC_SAR_2.c **** *
 283:.\Generated_Source\PSoC5/ADC_SAR_2.c **** * Return:
 284:.\Generated_Source\PSoC5/ADC_SAR_2.c **** *  None.
 285:.\Generated_Source\PSoC5/ADC_SAR_2.c **** *
 286:.\Generated_Source\PSoC5/ADC_SAR_2.c **** *******************************************************************************/
 287:.\Generated_Source\PSoC5/ADC_SAR_2.c **** void ADC_SAR_2_SetPower(uint8 power)
 288:.\Generated_Source\PSoC5/ADC_SAR_2.c **** {
 190              		.loc 1 288 0
 191              		.cfi_startproc
 192              		@ args = 0, pretend = 0, frame = 0
 193              		@ frame_needed = 0, uses_anonymous_args = 0
 194              		@ link register save eliminated.
 195              	.LVL10:
 289:.\Generated_Source\PSoC5/ADC_SAR_2.c ****     uint8 tmpReg;
 290:.\Generated_Source\PSoC5/ADC_SAR_2.c **** 
 291:.\Generated_Source\PSoC5/ADC_SAR_2.c ****     /* mask off invalid power settings */
 292:.\Generated_Source\PSoC5/ADC_SAR_2.c ****     power &= ADC_SAR_2_SAR_API_POWER_MASK;
 293:.\Generated_Source\PSoC5/ADC_SAR_2.c **** 
 294:.\Generated_Source\PSoC5/ADC_SAR_2.c ****     /* Set Power parameter  */
 295:.\Generated_Source\PSoC5/ADC_SAR_2.c ****     tmpReg = ADC_SAR_2_SAR_CSR0_REG & (uint8)~ADC_SAR_2_SAR_POWER_MASK;
 196              		.loc 1 295 0
 197 0000 044B     		ldr	r3, .L8
 292:.\Generated_Source\PSoC5/ADC_SAR_2.c ****     power &= ADC_SAR_2_SAR_API_POWER_MASK;
 198              		.loc 1 292 0
 199 0002 00F00300 		and	r0, r0, #3
 200              	.LVL11:
 201              		.loc 1 295 0
 202 0006 1A78     		ldrb	r2, [r3, #0]	@ zero_extendqisi2
 203 0008 02F03F01 		and	r1, r2, #63
 204              	.LVL12:
 296:.\Generated_Source\PSoC5/ADC_SAR_2.c ****     tmpReg |= (uint8)(power << ADC_SAR_2_SAR_POWER_SHIFT);
 205              		.loc 1 296 0
 206 000c 41EA8012 		orr	r2, r1, r0, lsl #6
 207              	.LVL13:
ARM GAS  C:\Users\Luke\AppData\Local\Temp\ccJ23FQg.s 			page 10


 297:.\Generated_Source\PSoC5/ADC_SAR_2.c ****     ADC_SAR_2_SAR_CSR0_REG = tmpReg;
 208              		.loc 1 297 0
 209 0010 1A70     		strb	r2, [r3, #0]
 210 0012 7047     		bx	lr
 211              	.L9:
 212              		.align	2
 213              	.L8:
 214 0014 00590040 		.word	1073764608
 215              		.cfi_endproc
 216              	.LFE4:
 217              		.size	ADC_SAR_2_SetPower, .-ADC_SAR_2_SetPower
 218              		.section	.text.ADC_SAR_2_SetResolution,"ax",%progbits
 219              		.align	1
 220              		.global	ADC_SAR_2_SetResolution
 221              		.thumb
 222              		.thumb_func
 223              		.type	ADC_SAR_2_SetResolution, %function
 224              	ADC_SAR_2_SetResolution:
 225              	.LFB5:
 298:.\Generated_Source\PSoC5/ADC_SAR_2.c **** }
 299:.\Generated_Source\PSoC5/ADC_SAR_2.c **** 
 300:.\Generated_Source\PSoC5/ADC_SAR_2.c **** 
 301:.\Generated_Source\PSoC5/ADC_SAR_2.c **** /*******************************************************************************
 302:.\Generated_Source\PSoC5/ADC_SAR_2.c **** * Function Name: ADC_SAR_2_SetResolution
 303:.\Generated_Source\PSoC5/ADC_SAR_2.c **** ********************************************************************************
 304:.\Generated_Source\PSoC5/ADC_SAR_2.c **** *
 305:.\Generated_Source\PSoC5/ADC_SAR_2.c **** * Summary:
 306:.\Generated_Source\PSoC5/ADC_SAR_2.c **** *  Sets the Relution of the SAR.
 307:.\Generated_Source\PSoC5/ADC_SAR_2.c **** *
 308:.\Generated_Source\PSoC5/ADC_SAR_2.c **** * Parameters:
 309:.\Generated_Source\PSoC5/ADC_SAR_2.c **** *  resolution:
 310:.\Generated_Source\PSoC5/ADC_SAR_2.c **** *  12 ->    RES12
 311:.\Generated_Source\PSoC5/ADC_SAR_2.c **** *  10 ->    RES10
 312:.\Generated_Source\PSoC5/ADC_SAR_2.c **** *  8  ->    RES8
 313:.\Generated_Source\PSoC5/ADC_SAR_2.c **** *
 314:.\Generated_Source\PSoC5/ADC_SAR_2.c **** * Return:
 315:.\Generated_Source\PSoC5/ADC_SAR_2.c **** *  None.
 316:.\Generated_Source\PSoC5/ADC_SAR_2.c **** *
 317:.\Generated_Source\PSoC5/ADC_SAR_2.c **** * Side Effects:
 318:.\Generated_Source\PSoC5/ADC_SAR_2.c **** *  The ADC resolution cannot be changed during a conversion cycle. The
 319:.\Generated_Source\PSoC5/ADC_SAR_2.c **** *  recommended best practice is to stop conversions with
 320:.\Generated_Source\PSoC5/ADC_SAR_2.c **** *  ADC_StopConvert(), change the resolution, then restart the
 321:.\Generated_Source\PSoC5/ADC_SAR_2.c **** *  conversions with ADC_StartConvert().
 322:.\Generated_Source\PSoC5/ADC_SAR_2.c **** *  If you decide not to stop conversions before calling this API, you
 323:.\Generated_Source\PSoC5/ADC_SAR_2.c **** *  should use ADC_IsEndConversion() to wait until conversion is complete
 324:.\Generated_Source\PSoC5/ADC_SAR_2.c **** *  before changing the resolution.
 325:.\Generated_Source\PSoC5/ADC_SAR_2.c **** *  If you call ADC_SetResolution() during a conversion, the resolution will
 326:.\Generated_Source\PSoC5/ADC_SAR_2.c **** *  not be changed until the current conversion is complete. Data will not be
 327:.\Generated_Source\PSoC5/ADC_SAR_2.c **** *  available in the new resolution for another 6 + "New Resolution(in bits)"
 328:.\Generated_Source\PSoC5/ADC_SAR_2.c **** *  clock cycles.
 329:.\Generated_Source\PSoC5/ADC_SAR_2.c **** *  You may need add a delay of this number of clock cycles after
 330:.\Generated_Source\PSoC5/ADC_SAR_2.c **** *  ADC_SetResolution() is called before data is valid again.
 331:.\Generated_Source\PSoC5/ADC_SAR_2.c **** *  Affects ADC_CountsTo_Volts(), ADC_CountsTo_mVolts(), and
 332:.\Generated_Source\PSoC5/ADC_SAR_2.c **** *  ADC_CountsTo_uVolts() by calculating the correct conversion between ADC
 333:.\Generated_Source\PSoC5/ADC_SAR_2.c **** *  counts and the applied input voltage. Calculation depends on resolution,
 334:.\Generated_Source\PSoC5/ADC_SAR_2.c **** *  input range, and voltage reference.
 335:.\Generated_Source\PSoC5/ADC_SAR_2.c **** *
ARM GAS  C:\Users\Luke\AppData\Local\Temp\ccJ23FQg.s 			page 11


 336:.\Generated_Source\PSoC5/ADC_SAR_2.c **** *******************************************************************************/
 337:.\Generated_Source\PSoC5/ADC_SAR_2.c **** void ADC_SAR_2_SetResolution(uint8 resolution)
 338:.\Generated_Source\PSoC5/ADC_SAR_2.c **** {
 226              		.loc 1 338 0
 227              		.cfi_startproc
 228              		@ args = 0, pretend = 0, frame = 0
 229              		@ frame_needed = 0, uses_anonymous_args = 0
 230              		@ link register save eliminated.
 231              	.LVL14:
 232 0000 0838     		subs	r0, r0, #8
 233              	.LVL15:
 234 0002 C0B2     		uxtb	r0, r0
 235 0004 0228     		cmp	r0, #2
 236 0006 98BF     		it	ls
 237 0008 0F4B     		ldrls	r3, .L15
 339:.\Generated_Source\PSoC5/ADC_SAR_2.c ****     uint8 tmpReg;
 340:.\Generated_Source\PSoC5/ADC_SAR_2.c **** 
 341:.\Generated_Source\PSoC5/ADC_SAR_2.c ****     /* Set SAR ADC resolution and sample width: 18 conversion cycles at 12bits + 1 gap */
 342:.\Generated_Source\PSoC5/ADC_SAR_2.c ****     switch (resolution)
 343:.\Generated_Source\PSoC5/ADC_SAR_2.c ****     {
 344:.\Generated_Source\PSoC5/ADC_SAR_2.c ****         case (uint8)ADC_SAR_2__BITS_12:
 345:.\Generated_Source\PSoC5/ADC_SAR_2.c ****             tmpReg = ADC_SAR_2_SAR_RESOLUTION_12BIT | ADC_SAR_2_SAR_SAMPLE_WIDTH;
 346:.\Generated_Source\PSoC5/ADC_SAR_2.c ****             break;
 347:.\Generated_Source\PSoC5/ADC_SAR_2.c ****         case (uint8)ADC_SAR_2__BITS_10:
 348:.\Generated_Source\PSoC5/ADC_SAR_2.c ****             tmpReg = ADC_SAR_2_SAR_RESOLUTION_10BIT | ADC_SAR_2_SAR_SAMPLE_WIDTH;
 349:.\Generated_Source\PSoC5/ADC_SAR_2.c ****             break;
 350:.\Generated_Source\PSoC5/ADC_SAR_2.c ****         case (uint8)ADC_SAR_2__BITS_8:
 351:.\Generated_Source\PSoC5/ADC_SAR_2.c ****             tmpReg = ADC_SAR_2_SAR_RESOLUTION_8BIT | ADC_SAR_2_SAR_SAMPLE_WIDTH;
 352:.\Generated_Source\PSoC5/ADC_SAR_2.c ****             break;
 353:.\Generated_Source\PSoC5/ADC_SAR_2.c ****         default:
 354:.\Generated_Source\PSoC5/ADC_SAR_2.c ****             tmpReg = ADC_SAR_2_SAR_RESOLUTION_12BIT | ADC_SAR_2_SAR_SAMPLE_WIDTH;
 355:.\Generated_Source\PSoC5/ADC_SAR_2.c ****             /* Halt CPU in debug mode if resolution is out of valid range */
 356:.\Generated_Source\PSoC5/ADC_SAR_2.c ****             CYASSERT(0u != 0u);
 357:.\Generated_Source\PSoC5/ADC_SAR_2.c ****             break;
 358:.\Generated_Source\PSoC5/ADC_SAR_2.c ****     }
 359:.\Generated_Source\PSoC5/ADC_SAR_2.c ****     ADC_SAR_2_SAR_CSR2_REG = tmpReg;
 238              		.loc 1 359 0
 239 000a 104A     		ldr	r2, .L15+4
 240 000c 94BF     		ite	ls
 241 000e 1B5C     		ldrbls	r3, [r3, r0]	@ zero_extendqisi2
 338:.\Generated_Source\PSoC5/ADC_SAR_2.c **** {
 242              		.loc 1 338 0
 243 0010 C423     		movhi	r3, #196
 244              	.LVL16:
 245 0012 0428     		cmp	r0, #4
 246              		.loc 1 359 0
 247 0014 1370     		strb	r3, [r2, #0]
 248              	.LBB4:
 360:.\Generated_Source\PSoC5/ADC_SAR_2.c **** 
 361:.\Generated_Source\PSoC5/ADC_SAR_2.c ****      /* Calculate gain for convert counts to volts */
 362:.\Generated_Source\PSoC5/ADC_SAR_2.c ****     ADC_SAR_2_CalcGain(resolution);
 363:.\Generated_Source\PSoC5/ADC_SAR_2.c **** }
 364:.\Generated_Source\PSoC5/ADC_SAR_2.c **** 
 365:.\Generated_Source\PSoC5/ADC_SAR_2.c **** 
 366:.\Generated_Source\PSoC5/ADC_SAR_2.c **** #if(ADC_SAR_2_DEFAULT_CONV_MODE != ADC_SAR_2__HARDWARE_TRIGGER)
 367:.\Generated_Source\PSoC5/ADC_SAR_2.c **** 
 368:.\Generated_Source\PSoC5/ADC_SAR_2.c **** 
ARM GAS  C:\Users\Luke\AppData\Local\Temp\ccJ23FQg.s 			page 12


 369:.\Generated_Source\PSoC5/ADC_SAR_2.c ****     /*******************************************************************************
 370:.\Generated_Source\PSoC5/ADC_SAR_2.c ****     * Function Name: ADC_SAR_2_StartConvert
 371:.\Generated_Source\PSoC5/ADC_SAR_2.c ****     ********************************************************************************
 372:.\Generated_Source\PSoC5/ADC_SAR_2.c ****     *
 373:.\Generated_Source\PSoC5/ADC_SAR_2.c ****     * Summary:
 374:.\Generated_Source\PSoC5/ADC_SAR_2.c ****     *  Forces the ADC to initiate a conversion. In free-running mode, the ADC runs
 375:.\Generated_Source\PSoC5/ADC_SAR_2.c ****     *  continuously. In software trigger mode, the function also acts as a software
 376:.\Generated_Source\PSoC5/ADC_SAR_2.c ****     *  version of the SOC and every conversion must be triggered by
 377:.\Generated_Source\PSoC5/ADC_SAR_2.c ****     *  ADC_SAR_2_StartConvert(). This function is not available when the
 378:.\Generated_Source\PSoC5/ADC_SAR_2.c ****     *  Hardware Trigger sample mode is selected.
 379:.\Generated_Source\PSoC5/ADC_SAR_2.c ****     *
 380:.\Generated_Source\PSoC5/ADC_SAR_2.c ****     * Parameters:
 381:.\Generated_Source\PSoC5/ADC_SAR_2.c ****     *  None.
 382:.\Generated_Source\PSoC5/ADC_SAR_2.c ****     *
 383:.\Generated_Source\PSoC5/ADC_SAR_2.c ****     * Return:
 384:.\Generated_Source\PSoC5/ADC_SAR_2.c ****     *  None.
 385:.\Generated_Source\PSoC5/ADC_SAR_2.c ****     *
 386:.\Generated_Source\PSoC5/ADC_SAR_2.c ****     * Theory:
 387:.\Generated_Source\PSoC5/ADC_SAR_2.c ****     *  Forces the ADC to initiate a conversion. In Free Running mode, the ADC will
 388:.\Generated_Source\PSoC5/ADC_SAR_2.c ****     *  run continuously. In a software trigger mode the function also acts as a
 389:.\Generated_Source\PSoC5/ADC_SAR_2.c ****     *  software version of the SOC. Here every conversion has to be triggered by
 390:.\Generated_Source\PSoC5/ADC_SAR_2.c ****     *  the routine. This writes into the SOC bit in SAR_CTRL reg.
 391:.\Generated_Source\PSoC5/ADC_SAR_2.c ****     *
 392:.\Generated_Source\PSoC5/ADC_SAR_2.c ****     * Side Effects:
 393:.\Generated_Source\PSoC5/ADC_SAR_2.c ****     *  In a software trigger mode the function switches source for SOF from the
 394:.\Generated_Source\PSoC5/ADC_SAR_2.c ****     *  external pin to the internal SOF generation. Application should not call
 395:.\Generated_Source\PSoC5/ADC_SAR_2.c ****     *  StartConvert if external source used for SOF.
 396:.\Generated_Source\PSoC5/ADC_SAR_2.c ****     *
 397:.\Generated_Source\PSoC5/ADC_SAR_2.c ****     *******************************************************************************/
 398:.\Generated_Source\PSoC5/ADC_SAR_2.c ****     void ADC_SAR_2_StartConvert(void)
 399:.\Generated_Source\PSoC5/ADC_SAR_2.c ****     {
 400:.\Generated_Source\PSoC5/ADC_SAR_2.c ****         #if(ADC_SAR_2_DEFAULT_CONV_MODE != ADC_SAR_2__FREE_RUNNING)  /* If software triggered mode 
 401:.\Generated_Source\PSoC5/ADC_SAR_2.c ****             ADC_SAR_2_SAR_CSR0_REG &= (uint8)~ADC_SAR_2_SAR_MX_SOF_UDB;   /* source: SOF bit */
 402:.\Generated_Source\PSoC5/ADC_SAR_2.c ****         #endif /* End ADC_SAR_2_DEFAULT_CONV_MODE */
 403:.\Generated_Source\PSoC5/ADC_SAR_2.c **** 
 404:.\Generated_Source\PSoC5/ADC_SAR_2.c ****         /* Start the conversion */
 405:.\Generated_Source\PSoC5/ADC_SAR_2.c ****         ADC_SAR_2_SAR_CSR0_REG |= ADC_SAR_2_SAR_SOF_START_CONV;
 406:.\Generated_Source\PSoC5/ADC_SAR_2.c ****     }
 407:.\Generated_Source\PSoC5/ADC_SAR_2.c **** 
 408:.\Generated_Source\PSoC5/ADC_SAR_2.c **** 
 409:.\Generated_Source\PSoC5/ADC_SAR_2.c ****     /*******************************************************************************
 410:.\Generated_Source\PSoC5/ADC_SAR_2.c ****     * Function Name: ADC_SAR_2_StopConvert
 411:.\Generated_Source\PSoC5/ADC_SAR_2.c ****     ********************************************************************************
 412:.\Generated_Source\PSoC5/ADC_SAR_2.c ****     *
 413:.\Generated_Source\PSoC5/ADC_SAR_2.c ****     * Summary:
 414:.\Generated_Source\PSoC5/ADC_SAR_2.c ****     *  Forces the ADC to stop conversions. If a conversion is currently executing,
 415:.\Generated_Source\PSoC5/ADC_SAR_2.c ****     *  that conversion will complete, but no further conversions will occur. This
 416:.\Generated_Source\PSoC5/ADC_SAR_2.c ****     *  function is not available when the Hardware Trigger sample mode is selected.
 417:.\Generated_Source\PSoC5/ADC_SAR_2.c ****     *
 418:.\Generated_Source\PSoC5/ADC_SAR_2.c ****     * Parameters:
 419:.\Generated_Source\PSoC5/ADC_SAR_2.c ****     *  None.
 420:.\Generated_Source\PSoC5/ADC_SAR_2.c ****     *
 421:.\Generated_Source\PSoC5/ADC_SAR_2.c ****     * Return:
 422:.\Generated_Source\PSoC5/ADC_SAR_2.c ****     *  None.
 423:.\Generated_Source\PSoC5/ADC_SAR_2.c ****     *
 424:.\Generated_Source\PSoC5/ADC_SAR_2.c ****     * Theory:
 425:.\Generated_Source\PSoC5/ADC_SAR_2.c ****     *  Stops ADC conversion in Free Running mode.
ARM GAS  C:\Users\Luke\AppData\Local\Temp\ccJ23FQg.s 			page 13


 426:.\Generated_Source\PSoC5/ADC_SAR_2.c ****     *
 427:.\Generated_Source\PSoC5/ADC_SAR_2.c ****     * Side Effects:
 428:.\Generated_Source\PSoC5/ADC_SAR_2.c ****     *  In Software Trigger sample mode, this function sets a software version of the
 429:.\Generated_Source\PSoC5/ADC_SAR_2.c ****     *  SOC to low level and switches the SOC source to hardware SOC input.
 430:.\Generated_Source\PSoC5/ADC_SAR_2.c ****     *
 431:.\Generated_Source\PSoC5/ADC_SAR_2.c ****     *******************************************************************************/
 432:.\Generated_Source\PSoC5/ADC_SAR_2.c ****     void ADC_SAR_2_StopConvert(void)
 433:.\Generated_Source\PSoC5/ADC_SAR_2.c ****     {
 434:.\Generated_Source\PSoC5/ADC_SAR_2.c ****         /* Stop all conversions */
 435:.\Generated_Source\PSoC5/ADC_SAR_2.c ****         ADC_SAR_2_SAR_CSR0_REG &= (uint8)~ADC_SAR_2_SAR_SOF_START_CONV;
 436:.\Generated_Source\PSoC5/ADC_SAR_2.c **** 
 437:.\Generated_Source\PSoC5/ADC_SAR_2.c ****         #if(ADC_SAR_2_DEFAULT_CONV_MODE != ADC_SAR_2__FREE_RUNNING)  /* If software triggered mode 
 438:.\Generated_Source\PSoC5/ADC_SAR_2.c ****             /* Return source to UDB for hardware SOF signal */
 439:.\Generated_Source\PSoC5/ADC_SAR_2.c ****             ADC_SAR_2_SAR_CSR0_REG |= ADC_SAR_2_SAR_MX_SOF_UDB;    /* source: UDB */
 440:.\Generated_Source\PSoC5/ADC_SAR_2.c ****         #endif /* End ADC_SAR_2_DEFAULT_CONV_MODE */
 441:.\Generated_Source\PSoC5/ADC_SAR_2.c **** 
 442:.\Generated_Source\PSoC5/ADC_SAR_2.c ****     }
 443:.\Generated_Source\PSoC5/ADC_SAR_2.c **** 
 444:.\Generated_Source\PSoC5/ADC_SAR_2.c **** #endif /* End ADC_SAR_2_DEFAULT_CONV_MODE != ADC_SAR_2__HARDWARE_TRIGGER */
 445:.\Generated_Source\PSoC5/ADC_SAR_2.c **** 
 446:.\Generated_Source\PSoC5/ADC_SAR_2.c **** 
 447:.\Generated_Source\PSoC5/ADC_SAR_2.c **** /*******************************************************************************
 448:.\Generated_Source\PSoC5/ADC_SAR_2.c **** * Function Name: ADC_SAR_2_IsEndConversion
 449:.\Generated_Source\PSoC5/ADC_SAR_2.c **** ********************************************************************************
 450:.\Generated_Source\PSoC5/ADC_SAR_2.c **** *
 451:.\Generated_Source\PSoC5/ADC_SAR_2.c **** * Summary:
 452:.\Generated_Source\PSoC5/ADC_SAR_2.c **** *  Immediately returns the status of the conversion or does not return
 453:.\Generated_Source\PSoC5/ADC_SAR_2.c **** *  (blocking) until the conversion completes, depending on the retMode
 454:.\Generated_Source\PSoC5/ADC_SAR_2.c **** *  parameter.
 455:.\Generated_Source\PSoC5/ADC_SAR_2.c **** *
 456:.\Generated_Source\PSoC5/ADC_SAR_2.c **** * Parameters:
 457:.\Generated_Source\PSoC5/ADC_SAR_2.c **** *  retMode:  Check conversion return mode.
 458:.\Generated_Source\PSoC5/ADC_SAR_2.c **** *   ADC_SAR_2_RETURN_STATUS: Immediately returns the status. If the
 459:.\Generated_Source\PSoC5/ADC_SAR_2.c **** *     value returned is zero, the conversion is not complete, and this function
 460:.\Generated_Source\PSoC5/ADC_SAR_2.c **** *     should be retried until a nonzero result is returned.
 461:.\Generated_Source\PSoC5/ADC_SAR_2.c **** *   ADC_SAR_2_WAIT_FOR_RESULT: Does not return a result until the ADC
 462:.\Generated_Source\PSoC5/ADC_SAR_2.c **** *     conversion is complete.
 463:.\Generated_Source\PSoC5/ADC_SAR_2.c **** *
 464:.\Generated_Source\PSoC5/ADC_SAR_2.c **** * Return:
 465:.\Generated_Source\PSoC5/ADC_SAR_2.c **** *  (uint8)  0 =>  The ADC is still calculating the last result.
 466:.\Generated_Source\PSoC5/ADC_SAR_2.c **** *           1 =>  The last conversion is complete.
 467:.\Generated_Source\PSoC5/ADC_SAR_2.c **** *
 468:.\Generated_Source\PSoC5/ADC_SAR_2.c **** * Side Effects:
 469:.\Generated_Source\PSoC5/ADC_SAR_2.c **** *  This function reads the end of conversion status, which is cleared on read.
 470:.\Generated_Source\PSoC5/ADC_SAR_2.c **** *
 471:.\Generated_Source\PSoC5/ADC_SAR_2.c **** *******************************************************************************/
 472:.\Generated_Source\PSoC5/ADC_SAR_2.c **** uint8 ADC_SAR_2_IsEndConversion(uint8 retMode)
 473:.\Generated_Source\PSoC5/ADC_SAR_2.c **** {
 474:.\Generated_Source\PSoC5/ADC_SAR_2.c ****     uint8 status;
 475:.\Generated_Source\PSoC5/ADC_SAR_2.c **** 
 476:.\Generated_Source\PSoC5/ADC_SAR_2.c ****     do
 477:.\Generated_Source\PSoC5/ADC_SAR_2.c ****     {
 478:.\Generated_Source\PSoC5/ADC_SAR_2.c ****         status = ADC_SAR_2_SAR_CSR1_REG & ADC_SAR_2_SAR_EOF_1;
 479:.\Generated_Source\PSoC5/ADC_SAR_2.c ****     } while ((status != ADC_SAR_2_SAR_EOF_1) && (retMode == ADC_SAR_2_WAIT_FOR_RESULT));
 480:.\Generated_Source\PSoC5/ADC_SAR_2.c ****     /* If convertion complete, wait until EOF bit released */
 481:.\Generated_Source\PSoC5/ADC_SAR_2.c ****     if(status == ADC_SAR_2_SAR_EOF_1)
 482:.\Generated_Source\PSoC5/ADC_SAR_2.c ****     {
ARM GAS  C:\Users\Luke\AppData\Local\Temp\ccJ23FQg.s 			page 14


 483:.\Generated_Source\PSoC5/ADC_SAR_2.c ****         /* wait one ADC clock to let the EOC status bit release */
 484:.\Generated_Source\PSoC5/ADC_SAR_2.c ****         CyDelayUs(1u);
 485:.\Generated_Source\PSoC5/ADC_SAR_2.c ****         /* Do the unconditional read operation of the CSR1 register to make sure the EOC bit has be
 486:.\Generated_Source\PSoC5/ADC_SAR_2.c ****         CY_GET_REG8(ADC_SAR_2_SAR_CSR1_PTR);
 487:.\Generated_Source\PSoC5/ADC_SAR_2.c ****     }
 488:.\Generated_Source\PSoC5/ADC_SAR_2.c **** 
 489:.\Generated_Source\PSoC5/ADC_SAR_2.c ****     return(status);
 490:.\Generated_Source\PSoC5/ADC_SAR_2.c **** }
 491:.\Generated_Source\PSoC5/ADC_SAR_2.c **** 
 492:.\Generated_Source\PSoC5/ADC_SAR_2.c **** 
 493:.\Generated_Source\PSoC5/ADC_SAR_2.c **** /*******************************************************************************
 494:.\Generated_Source\PSoC5/ADC_SAR_2.c **** * Function Name: ADC_SAR_2_GetResult8
 495:.\Generated_Source\PSoC5/ADC_SAR_2.c **** ********************************************************************************
 496:.\Generated_Source\PSoC5/ADC_SAR_2.c **** *
 497:.\Generated_Source\PSoC5/ADC_SAR_2.c **** * Summary:
 498:.\Generated_Source\PSoC5/ADC_SAR_2.c **** *  Returns the result of an 8-bit conversion. If the resolution is set greater
 499:.\Generated_Source\PSoC5/ADC_SAR_2.c **** *  than 8 bits, the function returns the LSB of the result.
 500:.\Generated_Source\PSoC5/ADC_SAR_2.c **** *  ADC_SAR_2_IsEndConversion() should be called to verify that the data
 501:.\Generated_Source\PSoC5/ADC_SAR_2.c **** *   sample is ready.
 502:.\Generated_Source\PSoC5/ADC_SAR_2.c **** *
 503:.\Generated_Source\PSoC5/ADC_SAR_2.c **** * Parameters:
 504:.\Generated_Source\PSoC5/ADC_SAR_2.c **** *  None.
 505:.\Generated_Source\PSoC5/ADC_SAR_2.c **** *
 506:.\Generated_Source\PSoC5/ADC_SAR_2.c **** * Return:
 507:.\Generated_Source\PSoC5/ADC_SAR_2.c **** *  The LSB of the last ADC conversion.
 508:.\Generated_Source\PSoC5/ADC_SAR_2.c **** *
 509:.\Generated_Source\PSoC5/ADC_SAR_2.c **** * Global Variables:
 510:.\Generated_Source\PSoC5/ADC_SAR_2.c **** *  ADC_SAR_2_shift - used to convert the ADC counts to the 2s
 511:.\Generated_Source\PSoC5/ADC_SAR_2.c **** *  compliment form.
 512:.\Generated_Source\PSoC5/ADC_SAR_2.c **** *
 513:.\Generated_Source\PSoC5/ADC_SAR_2.c **** * Side Effects:
 514:.\Generated_Source\PSoC5/ADC_SAR_2.c **** *  Converts the ADC counts to the 2s complement form.
 515:.\Generated_Source\PSoC5/ADC_SAR_2.c **** *
 516:.\Generated_Source\PSoC5/ADC_SAR_2.c **** *******************************************************************************/
 517:.\Generated_Source\PSoC5/ADC_SAR_2.c **** int8 ADC_SAR_2_GetResult8( void )
 518:.\Generated_Source\PSoC5/ADC_SAR_2.c **** {
 519:.\Generated_Source\PSoC5/ADC_SAR_2.c ****     return( (int8)ADC_SAR_2_SAR_WRK0_REG - (int8)ADC_SAR_2_shift);
 520:.\Generated_Source\PSoC5/ADC_SAR_2.c **** }
 521:.\Generated_Source\PSoC5/ADC_SAR_2.c **** 
 522:.\Generated_Source\PSoC5/ADC_SAR_2.c **** 
 523:.\Generated_Source\PSoC5/ADC_SAR_2.c **** /*******************************************************************************
 524:.\Generated_Source\PSoC5/ADC_SAR_2.c **** * Function Name: ADC_SAR_2_GetResult16
 525:.\Generated_Source\PSoC5/ADC_SAR_2.c **** ********************************************************************************
 526:.\Generated_Source\PSoC5/ADC_SAR_2.c **** *
 527:.\Generated_Source\PSoC5/ADC_SAR_2.c **** * Summary:
 528:.\Generated_Source\PSoC5/ADC_SAR_2.c **** *  Returns a 16-bit result for a conversion with a result that has a resolution
 529:.\Generated_Source\PSoC5/ADC_SAR_2.c **** *  of 8 to 12 bits.
 530:.\Generated_Source\PSoC5/ADC_SAR_2.c **** *  ADC_SAR_2_IsEndConversion() should be called to verify that the data
 531:.\Generated_Source\PSoC5/ADC_SAR_2.c **** *   sample is ready
 532:.\Generated_Source\PSoC5/ADC_SAR_2.c **** *
 533:.\Generated_Source\PSoC5/ADC_SAR_2.c **** * Parameters:
 534:.\Generated_Source\PSoC5/ADC_SAR_2.c **** *  None.
 535:.\Generated_Source\PSoC5/ADC_SAR_2.c **** *
 536:.\Generated_Source\PSoC5/ADC_SAR_2.c **** * Return:
 537:.\Generated_Source\PSoC5/ADC_SAR_2.c **** *  The 16-bit result of the last ADC conversion
 538:.\Generated_Source\PSoC5/ADC_SAR_2.c **** *
 539:.\Generated_Source\PSoC5/ADC_SAR_2.c **** * Global Variables:
ARM GAS  C:\Users\Luke\AppData\Local\Temp\ccJ23FQg.s 			page 15


 540:.\Generated_Source\PSoC5/ADC_SAR_2.c **** *  ADC_SAR_2_shift - used to convert the ADC counts to the 2s
 541:.\Generated_Source\PSoC5/ADC_SAR_2.c **** *  compliment form.
 542:.\Generated_Source\PSoC5/ADC_SAR_2.c **** *
 543:.\Generated_Source\PSoC5/ADC_SAR_2.c **** * Side Effects:
 544:.\Generated_Source\PSoC5/ADC_SAR_2.c **** *  Converts the ADC counts to the 2s complement form.
 545:.\Generated_Source\PSoC5/ADC_SAR_2.c **** *
 546:.\Generated_Source\PSoC5/ADC_SAR_2.c **** *******************************************************************************/
 547:.\Generated_Source\PSoC5/ADC_SAR_2.c **** int16 ADC_SAR_2_GetResult16( void )
 548:.\Generated_Source\PSoC5/ADC_SAR_2.c **** {
 549:.\Generated_Source\PSoC5/ADC_SAR_2.c ****     uint16 res;
 550:.\Generated_Source\PSoC5/ADC_SAR_2.c **** 
 551:.\Generated_Source\PSoC5/ADC_SAR_2.c ****     res = CY_GET_REG16(ADC_SAR_2_SAR_WRK_PTR);
 552:.\Generated_Source\PSoC5/ADC_SAR_2.c **** 
 553:.\Generated_Source\PSoC5/ADC_SAR_2.c ****     return( (int16)res - ADC_SAR_2_shift );
 554:.\Generated_Source\PSoC5/ADC_SAR_2.c **** }
 555:.\Generated_Source\PSoC5/ADC_SAR_2.c **** 
 556:.\Generated_Source\PSoC5/ADC_SAR_2.c **** 
 557:.\Generated_Source\PSoC5/ADC_SAR_2.c **** /*******************************************************************************
 558:.\Generated_Source\PSoC5/ADC_SAR_2.c **** * Function Name: ADC_SAR_2_SetOffset
 559:.\Generated_Source\PSoC5/ADC_SAR_2.c **** ********************************************************************************
 560:.\Generated_Source\PSoC5/ADC_SAR_2.c **** *
 561:.\Generated_Source\PSoC5/ADC_SAR_2.c **** * Summary:
 562:.\Generated_Source\PSoC5/ADC_SAR_2.c **** *  Sets the ADC offset, which is used by ADC_SAR_2_CountsTo_Volts(),
 563:.\Generated_Source\PSoC5/ADC_SAR_2.c **** *  ADC_SAR_2_CountsTo_mVolts(), and ADC_SAR_2_CountsTo_uVolts()
 564:.\Generated_Source\PSoC5/ADC_SAR_2.c **** *  to subtract the offset from the given reading before calculating the voltage
 565:.\Generated_Source\PSoC5/ADC_SAR_2.c **** *  conversion.
 566:.\Generated_Source\PSoC5/ADC_SAR_2.c **** *
 567:.\Generated_Source\PSoC5/ADC_SAR_2.c **** * Parameters:
 568:.\Generated_Source\PSoC5/ADC_SAR_2.c **** *  int16: This value is measured when the inputs are shorted or connected to
 569:.\Generated_Source\PSoC5/ADC_SAR_2.c ****    the same input voltage.
 570:.\Generated_Source\PSoC5/ADC_SAR_2.c **** *
 571:.\Generated_Source\PSoC5/ADC_SAR_2.c **** * Return:
 572:.\Generated_Source\PSoC5/ADC_SAR_2.c **** *  None.
 573:.\Generated_Source\PSoC5/ADC_SAR_2.c **** *
 574:.\Generated_Source\PSoC5/ADC_SAR_2.c **** * Global Variables:
 575:.\Generated_Source\PSoC5/ADC_SAR_2.c **** *  The ADC_SAR_2_offset variable modified. This variable is used for
 576:.\Generated_Source\PSoC5/ADC_SAR_2.c **** *  offset calibration purpose.
 577:.\Generated_Source\PSoC5/ADC_SAR_2.c **** *  Affects the ADC_SAR_2_CountsTo_Volts,
 578:.\Generated_Source\PSoC5/ADC_SAR_2.c **** *  ADC_SAR_2_CountsTo_mVolts, ADC_SAR_2_CountsTo_uVolts functions
 579:.\Generated_Source\PSoC5/ADC_SAR_2.c **** *  by subtracting the given offset.
 580:.\Generated_Source\PSoC5/ADC_SAR_2.c **** *
 581:.\Generated_Source\PSoC5/ADC_SAR_2.c **** *******************************************************************************/
 582:.\Generated_Source\PSoC5/ADC_SAR_2.c **** void ADC_SAR_2_SetOffset(int16 offset)
 583:.\Generated_Source\PSoC5/ADC_SAR_2.c **** {
 584:.\Generated_Source\PSoC5/ADC_SAR_2.c ****     ADC_SAR_2_offset = offset;
 585:.\Generated_Source\PSoC5/ADC_SAR_2.c **** }
 586:.\Generated_Source\PSoC5/ADC_SAR_2.c **** 
 587:.\Generated_Source\PSoC5/ADC_SAR_2.c **** 
 588:.\Generated_Source\PSoC5/ADC_SAR_2.c **** /*******************************************************************************
 589:.\Generated_Source\PSoC5/ADC_SAR_2.c **** * Function Name: ADC_SAR_2_CalcGain
 590:.\Generated_Source\PSoC5/ADC_SAR_2.c **** ********************************************************************************
 591:.\Generated_Source\PSoC5/ADC_SAR_2.c **** *
 592:.\Generated_Source\PSoC5/ADC_SAR_2.c **** * Summary:
 593:.\Generated_Source\PSoC5/ADC_SAR_2.c **** *  This function calculates the ADC gain in counts per 10 volt.
 594:.\Generated_Source\PSoC5/ADC_SAR_2.c **** *
 595:.\Generated_Source\PSoC5/ADC_SAR_2.c **** * Parameters:
 596:.\Generated_Source\PSoC5/ADC_SAR_2.c **** *  uint8: resolution
ARM GAS  C:\Users\Luke\AppData\Local\Temp\ccJ23FQg.s 			page 16


 597:.\Generated_Source\PSoC5/ADC_SAR_2.c **** *
 598:.\Generated_Source\PSoC5/ADC_SAR_2.c **** * Return:
 599:.\Generated_Source\PSoC5/ADC_SAR_2.c **** *  None.
 600:.\Generated_Source\PSoC5/ADC_SAR_2.c **** *
 601:.\Generated_Source\PSoC5/ADC_SAR_2.c **** * Global Variables:
 602:.\Generated_Source\PSoC5/ADC_SAR_2.c **** *  ADC_SAR_2_shift variable initialized. This variable is used to
 603:.\Generated_Source\PSoC5/ADC_SAR_2.c **** *  convert the ADC counts to the 2s compliment form.
 604:.\Generated_Source\PSoC5/ADC_SAR_2.c **** *  ADC_SAR_2_countsPer10Volt variable initialized. This variable is used
 605:.\Generated_Source\PSoC5/ADC_SAR_2.c **** *  for gain calibration purpose.
 606:.\Generated_Source\PSoC5/ADC_SAR_2.c **** *
 607:.\Generated_Source\PSoC5/ADC_SAR_2.c **** *******************************************************************************/
 608:.\Generated_Source\PSoC5/ADC_SAR_2.c **** static void ADC_SAR_2_CalcGain( uint8 resolution )
 609:.\Generated_Source\PSoC5/ADC_SAR_2.c **** {
 610:.\Generated_Source\PSoC5/ADC_SAR_2.c ****     int32 counts;
 611:.\Generated_Source\PSoC5/ADC_SAR_2.c ****     #if(!((ADC_SAR_2_DEFAULT_RANGE == ADC_SAR_2__VSS_TO_VREF) || \
 612:.\Generated_Source\PSoC5/ADC_SAR_2.c ****          (ADC_SAR_2_DEFAULT_RANGE == ADC_SAR_2__VSSA_TO_VDDA) || \
 613:.\Generated_Source\PSoC5/ADC_SAR_2.c ****          (ADC_SAR_2_DEFAULT_RANGE == ADC_SAR_2__VSSA_TO_VDAC)) )
 614:.\Generated_Source\PSoC5/ADC_SAR_2.c ****         uint16 diff_zero;
 615:.\Generated_Source\PSoC5/ADC_SAR_2.c ****     #endif /* End ADC_SAR_2_DEFAULT_RANGE */
 616:.\Generated_Source\PSoC5/ADC_SAR_2.c **** 
 617:.\Generated_Source\PSoC5/ADC_SAR_2.c ****     switch (resolution)
 618:.\Generated_Source\PSoC5/ADC_SAR_2.c ****     {
 619:.\Generated_Source\PSoC5/ADC_SAR_2.c ****         case (uint8)ADC_SAR_2__BITS_12:
 620:.\Generated_Source\PSoC5/ADC_SAR_2.c ****             counts = (int32)ADC_SAR_2_SAR_WRK_MAX_12BIT;
 621:.\Generated_Source\PSoC5/ADC_SAR_2.c ****             #if(!((ADC_SAR_2_DEFAULT_RANGE == ADC_SAR_2__VSS_TO_VREF) || \
 622:.\Generated_Source\PSoC5/ADC_SAR_2.c ****                  (ADC_SAR_2_DEFAULT_RANGE == ADC_SAR_2__VSSA_TO_VDDA) || \
 623:.\Generated_Source\PSoC5/ADC_SAR_2.c ****                  (ADC_SAR_2_DEFAULT_RANGE == ADC_SAR_2__VSSA_TO_VDAC)) )
 624:.\Generated_Source\PSoC5/ADC_SAR_2.c ****                 diff_zero = ADC_SAR_2_SAR_DIFF_SHIFT;
 625:.\Generated_Source\PSoC5/ADC_SAR_2.c ****             #endif /* End ADC_SAR_2_DEFAULT_RANGE */
 626:.\Generated_Source\PSoC5/ADC_SAR_2.c ****             break;
 627:.\Generated_Source\PSoC5/ADC_SAR_2.c ****         case (uint8)ADC_SAR_2__BITS_10:
 628:.\Generated_Source\PSoC5/ADC_SAR_2.c ****             counts = (int32)ADC_SAR_2_SAR_WRK_MAX_10BIT;
 629:.\Generated_Source\PSoC5/ADC_SAR_2.c ****             #if(!((ADC_SAR_2_DEFAULT_RANGE == ADC_SAR_2__VSS_TO_VREF) || \
 630:.\Generated_Source\PSoC5/ADC_SAR_2.c ****                  (ADC_SAR_2_DEFAULT_RANGE == ADC_SAR_2__VSSA_TO_VDDA) || \
 631:.\Generated_Source\PSoC5/ADC_SAR_2.c ****                  (ADC_SAR_2_DEFAULT_RANGE == ADC_SAR_2__VSSA_TO_VDAC)) )
 632:.\Generated_Source\PSoC5/ADC_SAR_2.c ****                 diff_zero = ADC_SAR_2_SAR_DIFF_SHIFT >> 2u;
 633:.\Generated_Source\PSoC5/ADC_SAR_2.c ****             #endif /* End ADC_SAR_2_DEFAULT_RANGE */
 634:.\Generated_Source\PSoC5/ADC_SAR_2.c ****             break;
 635:.\Generated_Source\PSoC5/ADC_SAR_2.c ****         case (uint8)ADC_SAR_2__BITS_8:
 636:.\Generated_Source\PSoC5/ADC_SAR_2.c ****             counts = (int32)ADC_SAR_2_SAR_WRK_MAX_8BIT;
 637:.\Generated_Source\PSoC5/ADC_SAR_2.c ****             #if(!((ADC_SAR_2_DEFAULT_RANGE == ADC_SAR_2__VSS_TO_VREF) || \
 638:.\Generated_Source\PSoC5/ADC_SAR_2.c ****                  (ADC_SAR_2_DEFAULT_RANGE == ADC_SAR_2__VSSA_TO_VDDA) || \
 639:.\Generated_Source\PSoC5/ADC_SAR_2.c ****                  (ADC_SAR_2_DEFAULT_RANGE == ADC_SAR_2__VSSA_TO_VDAC)) )
 640:.\Generated_Source\PSoC5/ADC_SAR_2.c ****                 diff_zero = ADC_SAR_2_SAR_DIFF_SHIFT >> 4u;
 641:.\Generated_Source\PSoC5/ADC_SAR_2.c ****             #endif /* End ADC_SAR_2_DEFAULT_RANGE */
 642:.\Generated_Source\PSoC5/ADC_SAR_2.c ****             break;
 643:.\Generated_Source\PSoC5/ADC_SAR_2.c ****         default: /* Halt CPU in debug mode if resolution is out of valid range */
 644:.\Generated_Source\PSoC5/ADC_SAR_2.c ****             counts = 0;
 645:.\Generated_Source\PSoC5/ADC_SAR_2.c ****             #if(!((ADC_SAR_2_DEFAULT_RANGE == ADC_SAR_2__VSS_TO_VREF) || \
 646:.\Generated_Source\PSoC5/ADC_SAR_2.c ****                  (ADC_SAR_2_DEFAULT_RANGE == ADC_SAR_2__VSSA_TO_VDDA) || \
 647:.\Generated_Source\PSoC5/ADC_SAR_2.c ****                  (ADC_SAR_2_DEFAULT_RANGE == ADC_SAR_2__VSSA_TO_VDAC)) )
 648:.\Generated_Source\PSoC5/ADC_SAR_2.c ****                 diff_zero = 0u;
 649:.\Generated_Source\PSoC5/ADC_SAR_2.c ****             #endif /* End ADC_SAR_2_DEFAULT_RANGE */
 650:.\Generated_Source\PSoC5/ADC_SAR_2.c ****             CYASSERT(0u != 0u);
 651:.\Generated_Source\PSoC5/ADC_SAR_2.c ****             break;
 652:.\Generated_Source\PSoC5/ADC_SAR_2.c ****     }
 653:.\Generated_Source\PSoC5/ADC_SAR_2.c ****     ADC_SAR_2_countsPerVolt = 0; /* Clear obsolete variable */
ARM GAS  C:\Users\Luke\AppData\Local\Temp\ccJ23FQg.s 			page 17


 654:.\Generated_Source\PSoC5/ADC_SAR_2.c ****     /* Calculate gain in counts per 10 volts with rounding */
 655:.\Generated_Source\PSoC5/ADC_SAR_2.c ****     ADC_SAR_2_countsPer10Volt = (((counts * ADC_SAR_2_10MV_COUNTS) +
 656:.\Generated_Source\PSoC5/ADC_SAR_2.c ****                         ADC_SAR_2_DEFAULT_REF_VOLTAGE_MV) / (ADC_SAR_2_DEFAULT_REF_VOLTAGE_MV * 2))
 657:.\Generated_Source\PSoC5/ADC_SAR_2.c **** 
 658:.\Generated_Source\PSoC5/ADC_SAR_2.c ****     #if( (ADC_SAR_2_DEFAULT_RANGE == ADC_SAR_2__VSS_TO_VREF) || \
 659:.\Generated_Source\PSoC5/ADC_SAR_2.c ****          (ADC_SAR_2_DEFAULT_RANGE == ADC_SAR_2__VSSA_TO_VDDA) || \
 660:.\Generated_Source\PSoC5/ADC_SAR_2.c ****          (ADC_SAR_2_DEFAULT_RANGE == ADC_SAR_2__VSSA_TO_VDAC) )
 661:.\Generated_Source\PSoC5/ADC_SAR_2.c ****         ADC_SAR_2_shift = 0;
 662:.\Generated_Source\PSoC5/ADC_SAR_2.c ****     #else
 663:.\Generated_Source\PSoC5/ADC_SAR_2.c ****         ADC_SAR_2_shift = diff_zero;
 664:.\Generated_Source\PSoC5/ADC_SAR_2.c ****     #endif /* End ADC_SAR_2_DEFAULT_RANGE */
 665:.\Generated_Source\PSoC5/ADC_SAR_2.c **** }
 666:.\Generated_Source\PSoC5/ADC_SAR_2.c **** 
 667:.\Generated_Source\PSoC5/ADC_SAR_2.c **** 
 668:.\Generated_Source\PSoC5/ADC_SAR_2.c **** /*******************************************************************************
 669:.\Generated_Source\PSoC5/ADC_SAR_2.c **** * Function Name: ADC_SAR_2_SetGain
 670:.\Generated_Source\PSoC5/ADC_SAR_2.c **** ********************************************************************************
 671:.\Generated_Source\PSoC5/ADC_SAR_2.c **** *
 672:.\Generated_Source\PSoC5/ADC_SAR_2.c **** * Summary:
 673:.\Generated_Source\PSoC5/ADC_SAR_2.c **** *  Sets the ADC gain in counts per volt for the voltage conversion functions
 674:.\Generated_Source\PSoC5/ADC_SAR_2.c **** *  that follow. This value is set by default by the reference and input range
 675:.\Generated_Source\PSoC5/ADC_SAR_2.c **** *  settings. It should only be used to further calibrate the ADC with a known
 676:.\Generated_Source\PSoC5/ADC_SAR_2.c **** *  input or if the ADC is using an external reference.
 677:.\Generated_Source\PSoC5/ADC_SAR_2.c **** *
 678:.\Generated_Source\PSoC5/ADC_SAR_2.c **** * Parameters:
 679:.\Generated_Source\PSoC5/ADC_SAR_2.c **** *  int16  adcGain  counts per volt
 680:.\Generated_Source\PSoC5/ADC_SAR_2.c **** *
 681:.\Generated_Source\PSoC5/ADC_SAR_2.c **** * Return:
 682:.\Generated_Source\PSoC5/ADC_SAR_2.c **** *  None.
 683:.\Generated_Source\PSoC5/ADC_SAR_2.c **** *
 684:.\Generated_Source\PSoC5/ADC_SAR_2.c **** * Global Variables:
 685:.\Generated_Source\PSoC5/ADC_SAR_2.c **** *  ADC_SAR_2_countsPer10Volt variable modified. This variable is used
 686:.\Generated_Source\PSoC5/ADC_SAR_2.c **** *  for gain calibration purpose.
 687:.\Generated_Source\PSoC5/ADC_SAR_2.c **** *
 688:.\Generated_Source\PSoC5/ADC_SAR_2.c **** *******************************************************************************/
 689:.\Generated_Source\PSoC5/ADC_SAR_2.c **** void ADC_SAR_2_SetGain(int16 adcGain)
 690:.\Generated_Source\PSoC5/ADC_SAR_2.c **** {
 691:.\Generated_Source\PSoC5/ADC_SAR_2.c ****     ADC_SAR_2_countsPer10Volt = (int32)adcGain * 10;
 692:.\Generated_Source\PSoC5/ADC_SAR_2.c **** }
 693:.\Generated_Source\PSoC5/ADC_SAR_2.c **** 
 694:.\Generated_Source\PSoC5/ADC_SAR_2.c **** 
 695:.\Generated_Source\PSoC5/ADC_SAR_2.c **** /*******************************************************************************
 696:.\Generated_Source\PSoC5/ADC_SAR_2.c **** * Function Name: ADC_SAR_2_SetGainPer10Volt
 697:.\Generated_Source\PSoC5/ADC_SAR_2.c **** ********************************************************************************
 698:.\Generated_Source\PSoC5/ADC_SAR_2.c **** *
 699:.\Generated_Source\PSoC5/ADC_SAR_2.c **** * Summary:
 700:.\Generated_Source\PSoC5/ADC_SAR_2.c **** *  Sets the ADC gain in counts per 10 volt for the voltage conversion functions
 701:.\Generated_Source\PSoC5/ADC_SAR_2.c **** *  that follow. This value is set by default by the reference and input range
 702:.\Generated_Source\PSoC5/ADC_SAR_2.c **** *  settings. It should only be used to further calibrate the ADC with a known
 703:.\Generated_Source\PSoC5/ADC_SAR_2.c **** *  input or if the ADC is using an external reference.
 704:.\Generated_Source\PSoC5/ADC_SAR_2.c **** *
 705:.\Generated_Source\PSoC5/ADC_SAR_2.c **** * Parameters:
 706:.\Generated_Source\PSoC5/ADC_SAR_2.c **** *  int16  adcGain  counts per 10 volt
 707:.\Generated_Source\PSoC5/ADC_SAR_2.c **** *
 708:.\Generated_Source\PSoC5/ADC_SAR_2.c **** * Return:
 709:.\Generated_Source\PSoC5/ADC_SAR_2.c **** *  None.
 710:.\Generated_Source\PSoC5/ADC_SAR_2.c **** *
ARM GAS  C:\Users\Luke\AppData\Local\Temp\ccJ23FQg.s 			page 18


 711:.\Generated_Source\PSoC5/ADC_SAR_2.c **** * Global Variables:
 712:.\Generated_Source\PSoC5/ADC_SAR_2.c **** *  ADC_SAR_2_countsPer10Volt variable modified. This variable is used
 713:.\Generated_Source\PSoC5/ADC_SAR_2.c **** *  for gain calibration purpose.
 714:.\Generated_Source\PSoC5/ADC_SAR_2.c **** *
 715:.\Generated_Source\PSoC5/ADC_SAR_2.c **** *******************************************************************************/
 716:.\Generated_Source\PSoC5/ADC_SAR_2.c **** void ADC_SAR_2_SetScaledGain(int32 adcGain)
 717:.\Generated_Source\PSoC5/ADC_SAR_2.c **** {
 718:.\Generated_Source\PSoC5/ADC_SAR_2.c ****     ADC_SAR_2_countsPer10Volt = adcGain;
 719:.\Generated_Source\PSoC5/ADC_SAR_2.c **** }
 720:.\Generated_Source\PSoC5/ADC_SAR_2.c **** 
 721:.\Generated_Source\PSoC5/ADC_SAR_2.c **** 
 722:.\Generated_Source\PSoC5/ADC_SAR_2.c **** /*******************************************************************************
 723:.\Generated_Source\PSoC5/ADC_SAR_2.c **** * Function Name: ADC_SAR_2_CountsTo_mVolts
 724:.\Generated_Source\PSoC5/ADC_SAR_2.c **** ********************************************************************************
 725:.\Generated_Source\PSoC5/ADC_SAR_2.c **** *
 726:.\Generated_Source\PSoC5/ADC_SAR_2.c **** * Summary:
 727:.\Generated_Source\PSoC5/ADC_SAR_2.c **** *  Converts the ADC output to millivolts as a 16-bit integer.
 728:.\Generated_Source\PSoC5/ADC_SAR_2.c **** *
 729:.\Generated_Source\PSoC5/ADC_SAR_2.c **** * Parameters:
 730:.\Generated_Source\PSoC5/ADC_SAR_2.c **** *  int16 adcCounts:  Result from the ADC conversion
 731:.\Generated_Source\PSoC5/ADC_SAR_2.c **** *
 732:.\Generated_Source\PSoC5/ADC_SAR_2.c **** * Return:
 733:.\Generated_Source\PSoC5/ADC_SAR_2.c **** *  int16 Result in mVolts
 734:.\Generated_Source\PSoC5/ADC_SAR_2.c **** *
 735:.\Generated_Source\PSoC5/ADC_SAR_2.c **** * Global Variables:
 736:.\Generated_Source\PSoC5/ADC_SAR_2.c **** *  ADC_SAR_2_offset variable used.
 737:.\Generated_Source\PSoC5/ADC_SAR_2.c **** *  ADC_SAR_2_countsPer10Volt variable used.
 738:.\Generated_Source\PSoC5/ADC_SAR_2.c **** *
 739:.\Generated_Source\PSoC5/ADC_SAR_2.c **** *******************************************************************************/
 740:.\Generated_Source\PSoC5/ADC_SAR_2.c **** int16 ADC_SAR_2_CountsTo_mVolts(int16 adcCounts)
 741:.\Generated_Source\PSoC5/ADC_SAR_2.c **** {
 742:.\Generated_Source\PSoC5/ADC_SAR_2.c ****     int16 mVolts;
 743:.\Generated_Source\PSoC5/ADC_SAR_2.c ****     int32 countsPer10Volt;
 744:.\Generated_Source\PSoC5/ADC_SAR_2.c **** 
 745:.\Generated_Source\PSoC5/ADC_SAR_2.c ****     if(ADC_SAR_2_countsPerVolt != 0)
 746:.\Generated_Source\PSoC5/ADC_SAR_2.c ****     {   /* Support obsolete method */
 747:.\Generated_Source\PSoC5/ADC_SAR_2.c ****         countsPer10Volt = (int32)ADC_SAR_2_countsPerVolt * 10;
 748:.\Generated_Source\PSoC5/ADC_SAR_2.c ****     }
 749:.\Generated_Source\PSoC5/ADC_SAR_2.c ****     else
 750:.\Generated_Source\PSoC5/ADC_SAR_2.c ****     {
 751:.\Generated_Source\PSoC5/ADC_SAR_2.c ****         countsPer10Volt = ADC_SAR_2_countsPer10Volt;
 752:.\Generated_Source\PSoC5/ADC_SAR_2.c ****     }
 753:.\Generated_Source\PSoC5/ADC_SAR_2.c **** 
 754:.\Generated_Source\PSoC5/ADC_SAR_2.c ****     /* Subtract ADC offset */
 755:.\Generated_Source\PSoC5/ADC_SAR_2.c ****     adcCounts -= ADC_SAR_2_offset;
 756:.\Generated_Source\PSoC5/ADC_SAR_2.c ****     /* Convert to millivolts with rounding */
 757:.\Generated_Source\PSoC5/ADC_SAR_2.c ****     mVolts = (int16)( (( (int32)adcCounts * ADC_SAR_2_10MV_COUNTS ) + ( (adcCounts > 0) ?
 758:.\Generated_Source\PSoC5/ADC_SAR_2.c ****                        (countsPer10Volt / 2) : (-(countsPer10Volt / 2)) )) / countsPer10Volt);
 759:.\Generated_Source\PSoC5/ADC_SAR_2.c **** 
 760:.\Generated_Source\PSoC5/ADC_SAR_2.c ****     return( mVolts );
 761:.\Generated_Source\PSoC5/ADC_SAR_2.c **** }
 762:.\Generated_Source\PSoC5/ADC_SAR_2.c **** 
 763:.\Generated_Source\PSoC5/ADC_SAR_2.c **** 
 764:.\Generated_Source\PSoC5/ADC_SAR_2.c **** /*******************************************************************************
 765:.\Generated_Source\PSoC5/ADC_SAR_2.c **** * Function Name: ADC_SAR_2_CountsTo_uVolts
 766:.\Generated_Source\PSoC5/ADC_SAR_2.c **** ********************************************************************************
 767:.\Generated_Source\PSoC5/ADC_SAR_2.c **** *
ARM GAS  C:\Users\Luke\AppData\Local\Temp\ccJ23FQg.s 			page 19


 768:.\Generated_Source\PSoC5/ADC_SAR_2.c **** * Summary:
 769:.\Generated_Source\PSoC5/ADC_SAR_2.c **** *  Converts the ADC output to microvolts as a 32-bit integer.
 770:.\Generated_Source\PSoC5/ADC_SAR_2.c **** *
 771:.\Generated_Source\PSoC5/ADC_SAR_2.c **** * Parameters:
 772:.\Generated_Source\PSoC5/ADC_SAR_2.c **** *  int16 adcCounts: Result from the ADC conversion
 773:.\Generated_Source\PSoC5/ADC_SAR_2.c **** *
 774:.\Generated_Source\PSoC5/ADC_SAR_2.c **** * Return:
 775:.\Generated_Source\PSoC5/ADC_SAR_2.c **** *  int32 Result in micro Volts
 776:.\Generated_Source\PSoC5/ADC_SAR_2.c **** *
 777:.\Generated_Source\PSoC5/ADC_SAR_2.c **** * Global Variables:
 778:.\Generated_Source\PSoC5/ADC_SAR_2.c **** *  ADC_SAR_2_offset variable used.
 779:.\Generated_Source\PSoC5/ADC_SAR_2.c **** *  ADC_SAR_2_countsPer10Volt used to convert ADC counts to uVolts.
 780:.\Generated_Source\PSoC5/ADC_SAR_2.c **** *
 781:.\Generated_Source\PSoC5/ADC_SAR_2.c **** *******************************************************************************/
 782:.\Generated_Source\PSoC5/ADC_SAR_2.c **** int32 ADC_SAR_2_CountsTo_uVolts(int16 adcCounts)
 783:.\Generated_Source\PSoC5/ADC_SAR_2.c **** {
 784:.\Generated_Source\PSoC5/ADC_SAR_2.c **** 
 785:.\Generated_Source\PSoC5/ADC_SAR_2.c ****     int64 uVolts;
 786:.\Generated_Source\PSoC5/ADC_SAR_2.c ****     int32 countsPer10Volt;
 787:.\Generated_Source\PSoC5/ADC_SAR_2.c **** 
 788:.\Generated_Source\PSoC5/ADC_SAR_2.c ****     if(ADC_SAR_2_countsPerVolt != 0)
 789:.\Generated_Source\PSoC5/ADC_SAR_2.c ****     {   /* Support obsolete method */
 790:.\Generated_Source\PSoC5/ADC_SAR_2.c ****         countsPer10Volt = (int32)ADC_SAR_2_countsPerVolt * 10;
 791:.\Generated_Source\PSoC5/ADC_SAR_2.c ****     }
 792:.\Generated_Source\PSoC5/ADC_SAR_2.c ****     else
 793:.\Generated_Source\PSoC5/ADC_SAR_2.c ****     {
 794:.\Generated_Source\PSoC5/ADC_SAR_2.c ****         countsPer10Volt = ADC_SAR_2_countsPer10Volt;
 795:.\Generated_Source\PSoC5/ADC_SAR_2.c ****     }
 796:.\Generated_Source\PSoC5/ADC_SAR_2.c **** 
 797:.\Generated_Source\PSoC5/ADC_SAR_2.c ****     /* Subtract ADC offset */
 798:.\Generated_Source\PSoC5/ADC_SAR_2.c ****     adcCounts -= ADC_SAR_2_offset;
 799:.\Generated_Source\PSoC5/ADC_SAR_2.c ****     /* To convert adcCounts to microVolts it is required to be multiplied
 800:.\Generated_Source\PSoC5/ADC_SAR_2.c ****     *  on 10 million and later divide on gain in counts per 10V.
 801:.\Generated_Source\PSoC5/ADC_SAR_2.c ****     */
 802:.\Generated_Source\PSoC5/ADC_SAR_2.c ****     uVolts = (( (int64)adcCounts * ADC_SAR_2_10UV_COUNTS ) / countsPer10Volt);
 803:.\Generated_Source\PSoC5/ADC_SAR_2.c **** 
 804:.\Generated_Source\PSoC5/ADC_SAR_2.c ****     return( uVolts );
 805:.\Generated_Source\PSoC5/ADC_SAR_2.c **** }
 806:.\Generated_Source\PSoC5/ADC_SAR_2.c **** 
 807:.\Generated_Source\PSoC5/ADC_SAR_2.c **** 
 808:.\Generated_Source\PSoC5/ADC_SAR_2.c **** /*******************************************************************************
 809:.\Generated_Source\PSoC5/ADC_SAR_2.c **** * Function Name: ADC_SAR_2_CountsTo_Volts
 810:.\Generated_Source\PSoC5/ADC_SAR_2.c **** ********************************************************************************
 811:.\Generated_Source\PSoC5/ADC_SAR_2.c **** *
 812:.\Generated_Source\PSoC5/ADC_SAR_2.c **** * Summary:
 813:.\Generated_Source\PSoC5/ADC_SAR_2.c **** *  Converts the ADC output to volts as a floating-point number.
 814:.\Generated_Source\PSoC5/ADC_SAR_2.c **** *
 815:.\Generated_Source\PSoC5/ADC_SAR_2.c **** * Parameters:
 816:.\Generated_Source\PSoC5/ADC_SAR_2.c **** *  int16 adcCounts: Result from the ADC conversion
 817:.\Generated_Source\PSoC5/ADC_SAR_2.c **** *
 818:.\Generated_Source\PSoC5/ADC_SAR_2.c **** * Return:
 819:.\Generated_Source\PSoC5/ADC_SAR_2.c **** *  float Result in Volts
 820:.\Generated_Source\PSoC5/ADC_SAR_2.c **** *
 821:.\Generated_Source\PSoC5/ADC_SAR_2.c **** * Global Variables:
 822:.\Generated_Source\PSoC5/ADC_SAR_2.c **** *  ADC_SAR_2_offset variable used.
 823:.\Generated_Source\PSoC5/ADC_SAR_2.c **** *  ADC_SAR_2_countsPer10Volt used to convert ADC counts to Volts.
 824:.\Generated_Source\PSoC5/ADC_SAR_2.c **** *
ARM GAS  C:\Users\Luke\AppData\Local\Temp\ccJ23FQg.s 			page 20


 825:.\Generated_Source\PSoC5/ADC_SAR_2.c **** *******************************************************************************/
 826:.\Generated_Source\PSoC5/ADC_SAR_2.c **** float32 ADC_SAR_2_CountsTo_Volts(int16 adcCounts)
 827:.\Generated_Source\PSoC5/ADC_SAR_2.c **** {
 828:.\Generated_Source\PSoC5/ADC_SAR_2.c ****     float32 volts;
 829:.\Generated_Source\PSoC5/ADC_SAR_2.c ****     int32 countsPer10Volt;
 830:.\Generated_Source\PSoC5/ADC_SAR_2.c **** 
 831:.\Generated_Source\PSoC5/ADC_SAR_2.c ****     if(ADC_SAR_2_countsPerVolt != 0)
 832:.\Generated_Source\PSoC5/ADC_SAR_2.c ****     {   /* Support obsolete method */
 833:.\Generated_Source\PSoC5/ADC_SAR_2.c ****         countsPer10Volt = (int32)ADC_SAR_2_countsPerVolt * 10;
 834:.\Generated_Source\PSoC5/ADC_SAR_2.c ****     }
 835:.\Generated_Source\PSoC5/ADC_SAR_2.c ****     else
 836:.\Generated_Source\PSoC5/ADC_SAR_2.c ****     {
 837:.\Generated_Source\PSoC5/ADC_SAR_2.c ****         countsPer10Volt = ADC_SAR_2_countsPer10Volt;
 838:.\Generated_Source\PSoC5/ADC_SAR_2.c ****     }
 839:.\Generated_Source\PSoC5/ADC_SAR_2.c **** 
 840:.\Generated_Source\PSoC5/ADC_SAR_2.c ****     /* Subtract ADC offset */
 841:.\Generated_Source\PSoC5/ADC_SAR_2.c ****     adcCounts -= ADC_SAR_2_offset;
 842:.\Generated_Source\PSoC5/ADC_SAR_2.c **** 
 843:.\Generated_Source\PSoC5/ADC_SAR_2.c ****     volts = ((float32)adcCounts * ADC_SAR_2_10V_COUNTS) / (float32)countsPer10Volt;
 844:.\Generated_Source\PSoC5/ADC_SAR_2.c **** 
 845:.\Generated_Source\PSoC5/ADC_SAR_2.c ****     return( volts );
 846:.\Generated_Source\PSoC5/ADC_SAR_2.c **** }
 249              		.loc 1 846 0
 250 0016 98BF     		it	ls
 251 0018 0B4B     		ldrls	r3, .L15
 252              	.LVL17:
 253              	.LBB5:
 653:.\Generated_Source\PSoC5/ADC_SAR_2.c ****     ADC_SAR_2_countsPerVolt = 0; /* Clear obsolete variable */
 254              		.loc 1 653 0
 255 001a 0D49     		ldr	r1, .L15+8
 256              	.LBE5:
 257              		.loc 1 846 0
 258 001c 9ABF     		itte	ls
 259 001e 03EB4000 		addls	r0, r3, r0, lsl #1
 260 0022 B0F90420 		ldrshls	r2, [r0, #4]
 261 0026 0022     		movhi	r2, #0
 262              	.LVL18:
 263              	.LBB6:
 655:.\Generated_Source\PSoC5/ADC_SAR_2.c ****     ADC_SAR_2_countsPer10Volt = (((counts * ADC_SAR_2_10MV_COUNTS) +
 264              		.loc 1 655 0
 265 0028 42F21070 		movw	r0, #10000
 266 002c 4243     		muls	r2, r0, r2
 267              	.LVL19:
 653:.\Generated_Source\PSoC5/ADC_SAR_2.c ****     ADC_SAR_2_countsPerVolt = 0; /* Clear obsolete variable */
 268              		.loc 1 653 0
 269 002e 0023     		movs	r3, #0
 270 0030 0B80     		strh	r3, [r1, #0]	@ movhi
 655:.\Generated_Source\PSoC5/ADC_SAR_2.c ****     ADC_SAR_2_countsPer10Volt = (((counts * ADC_SAR_2_10MV_COUNTS) +
 271              		.loc 1 655 0
 272 0032 02F6C412 		addw	r2, r2, #2500
 656:.\Generated_Source\PSoC5/ADC_SAR_2.c ****                         ADC_SAR_2_DEFAULT_REF_VOLTAGE_MV) / (ADC_SAR_2_DEFAULT_REF_VOLTAGE_MV * 2))
 273              		.loc 1 656 0
 274 0036 41F28831 		movw	r1, #5000
 275 003a 92FBF1F0 		sdiv	r0, r2, r1
 655:.\Generated_Source\PSoC5/ADC_SAR_2.c ****     ADC_SAR_2_countsPer10Volt = (((counts * ADC_SAR_2_10MV_COUNTS) +
 276              		.loc 1 655 0
 277 003e 054A     		ldr	r2, .L15+12
ARM GAS  C:\Users\Luke\AppData\Local\Temp\ccJ23FQg.s 			page 21


 661:.\Generated_Source\PSoC5/ADC_SAR_2.c ****         ADC_SAR_2_shift = 0;
 278              		.loc 1 661 0
 279 0040 0549     		ldr	r1, .L15+16
 655:.\Generated_Source\PSoC5/ADC_SAR_2.c ****     ADC_SAR_2_countsPer10Volt = (((counts * ADC_SAR_2_10MV_COUNTS) +
 280              		.loc 1 655 0
 281 0042 1060     		str	r0, [r2, #0]
 661:.\Generated_Source\PSoC5/ADC_SAR_2.c ****         ADC_SAR_2_shift = 0;
 282              		.loc 1 661 0
 283 0044 0B80     		strh	r3, [r1, #0]	@ movhi
 284 0046 7047     		bx	lr
 285              	.L16:
 286              		.align	2
 287              	.L15:
 288 0048 00000000 		.word	.LANCHOR0
 289 004c 02590040 		.word	1073764610
 290 0050 00000000 		.word	ADC_SAR_2_countsPerVolt
 291 0054 00000000 		.word	ADC_SAR_2_countsPer10Volt
 292 0058 00000000 		.word	ADC_SAR_2_shift
 293              	.LBE6:
 294              	.LBE4:
 295              		.cfi_endproc
 296              	.LFE5:
 297              		.size	ADC_SAR_2_SetResolution, .-ADC_SAR_2_SetResolution
 298              		.section	.text.ADC_SAR_2_Init,"ax",%progbits
 299              		.align	1
 300              		.global	ADC_SAR_2_Init
 301              		.thumb
 302              		.thumb_func
 303              		.type	ADC_SAR_2_Init, %function
 304              	ADC_SAR_2_Init:
 305              	.LFB1:
 107:.\Generated_Source\PSoC5/ADC_SAR_2.c **** {
 306              		.loc 1 107 0
 307              		.cfi_startproc
 308              		@ args = 0, pretend = 0, frame = 0
 309              		@ frame_needed = 0, uses_anonymous_args = 0
 310 0000 08B5     		push	{r3, lr}
 311              	.LCFI2:
 312              		.cfi_def_cfa_offset 8
 313              		.cfi_offset 3, -8
 314              		.cfi_offset 14, -4
 111:.\Generated_Source\PSoC5/ADC_SAR_2.c ****         ADC_SAR_2_theACLK_SetMode(CYCLK_DUTY);
 315              		.loc 1 111 0
 316 0002 1020     		movs	r0, #16
 317 0004 FFF7FEFF 		bl	ADC_SAR_2_theACLK_SetModeRegister
 318              	.LVL20:
 116:.\Generated_Source\PSoC5/ADC_SAR_2.c ****         CyIntSetPriority(ADC_SAR_2_INTC_NUMBER, ADC_SAR_2_INTC_PRIOR_NUMBER);
 319              		.loc 1 116 0
 320 0008 0220     		movs	r0, #2
 321 000a 0721     		movs	r1, #7
 322 000c FFF7FEFF 		bl	CyIntSetPriority
 323              	.LVL21:
 117:.\Generated_Source\PSoC5/ADC_SAR_2.c ****         (void)CyIntSetVector(ADC_SAR_2_INTC_NUMBER, &ADC_SAR_2_ISR);
 324              		.loc 1 117 0
 325 0010 0749     		ldr	r1, .L18
 326 0012 0220     		movs	r0, #2
 327 0014 FFF7FEFF 		bl	CyIntSetVector
ARM GAS  C:\Users\Luke\AppData\Local\Temp\ccJ23FQg.s 			page 22


 328              	.LVL22:
 121:.\Generated_Source\PSoC5/ADC_SAR_2.c ****     ADC_SAR_2_SAR_CSR1_REG |= ADC_SAR_2_SAR_IRQ_MASK_EN | ADC_SAR_2_SAR_IRQ_MODE_EDGE;
 329              		.loc 1 121 0
 330 0018 064B     		ldr	r3, .L18+4
 331 001a 1A78     		ldrb	r2, [r3, #0]	@ zero_extendqisi2
 332 001c 42F00600 		orr	r0, r2, #6
 333 0020 1870     		strb	r0, [r3, #0]
 124:.\Generated_Source\PSoC5/ADC_SAR_2.c ****     ADC_SAR_2_SetResolution(ADC_SAR_2_DEFAULT_RESOLUTION);
 334              		.loc 1 124 0
 335 0022 0820     		movs	r0, #8
 336 0024 FFF7FEFF 		bl	ADC_SAR_2_SetResolution
 337              	.LVL23:
 125:.\Generated_Source\PSoC5/ADC_SAR_2.c ****     ADC_SAR_2_offset = 0;
 338              		.loc 1 125 0
 339 0028 034B     		ldr	r3, .L18+8
 340 002a 0021     		movs	r1, #0
 341 002c 1980     		strh	r1, [r3, #0]	@ movhi
 342 002e 08BD     		pop	{r3, pc}
 343              	.L19:
 344              		.align	2
 345              	.L18:
 346 0030 00000000 		.word	ADC_SAR_2_ISR
 347 0034 01590040 		.word	1073764609
 348 0038 00000000 		.word	ADC_SAR_2_offset
 349              		.cfi_endproc
 350              	.LFE1:
 351              		.size	ADC_SAR_2_Init, .-ADC_SAR_2_Init
 352              		.section	.text.ADC_SAR_2_Start,"ax",%progbits
 353              		.align	1
 354              		.global	ADC_SAR_2_Start
 355              		.thumb
 356              		.thumb_func
 357              		.type	ADC_SAR_2_Start, %function
 358              	ADC_SAR_2_Start:
 359              	.LFB0:
  75:.\Generated_Source\PSoC5/ADC_SAR_2.c **** {
 360              		.loc 1 75 0
 361              		.cfi_startproc
 362              		@ args = 0, pretend = 0, frame = 0
 363              		@ frame_needed = 0, uses_anonymous_args = 0
 364 0000 10B5     		push	{r4, lr}
 365              	.LCFI3:
 366              		.cfi_def_cfa_offset 8
 367              		.cfi_offset 4, -8
 368              		.cfi_offset 14, -4
  78:.\Generated_Source\PSoC5/ADC_SAR_2.c ****     if(ADC_SAR_2_initVar == 0u)
 369              		.loc 1 78 0
 370 0002 054C     		ldr	r4, .L23
 371 0004 2378     		ldrb	r3, [r4, #0]	@ zero_extendqisi2
 372 0006 1BB9     		cbnz	r3, .L21
  80:.\Generated_Source\PSoC5/ADC_SAR_2.c ****         ADC_SAR_2_Init();
 373              		.loc 1 80 0
 374 0008 FFF7FEFF 		bl	ADC_SAR_2_Init
 375              	.LVL24:
  81:.\Generated_Source\PSoC5/ADC_SAR_2.c ****         ADC_SAR_2_initVar = 1u;
 376              		.loc 1 81 0
 377 000c 0120     		movs	r0, #1
ARM GAS  C:\Users\Luke\AppData\Local\Temp\ccJ23FQg.s 			page 23


 378 000e 2070     		strb	r0, [r4, #0]
 379              	.L21:
  84:.\Generated_Source\PSoC5/ADC_SAR_2.c **** }
 380              		.loc 1 84 0
 381 0010 BDE81040 		pop	{r4, lr}
  83:.\Generated_Source\PSoC5/ADC_SAR_2.c ****     ADC_SAR_2_Enable();
 382              		.loc 1 83 0
 383 0014 FFF7FEBF 		b	ADC_SAR_2_Enable
 384              	.LVL25:
 385              	.L24:
 386              		.align	2
 387              	.L23:
 388 0018 00000000 		.word	.LANCHOR1
 389              		.cfi_endproc
 390              	.LFE0:
 391              		.size	ADC_SAR_2_Start, .-ADC_SAR_2_Start
 392              		.section	.text.ADC_SAR_2_StartConvert,"ax",%progbits
 393              		.align	1
 394              		.global	ADC_SAR_2_StartConvert
 395              		.thumb
 396              		.thumb_func
 397              		.type	ADC_SAR_2_StartConvert, %function
 398              	ADC_SAR_2_StartConvert:
 399              	.LFB6:
 399:.\Generated_Source\PSoC5/ADC_SAR_2.c ****     {
 400              		.loc 1 399 0
 401              		.cfi_startproc
 402              		@ args = 0, pretend = 0, frame = 0
 403              		@ frame_needed = 0, uses_anonymous_args = 0
 404              		@ link register save eliminated.
 405:.\Generated_Source\PSoC5/ADC_SAR_2.c ****         ADC_SAR_2_SAR_CSR0_REG |= ADC_SAR_2_SAR_SOF_START_CONV;
 405              		.loc 1 405 0
 406 0000 024B     		ldr	r3, .L26
 407 0002 1A78     		ldrb	r2, [r3, #0]	@ zero_extendqisi2
 408 0004 42F00100 		orr	r0, r2, #1
 409 0008 1870     		strb	r0, [r3, #0]
 410 000a 7047     		bx	lr
 411              	.L27:
 412              		.align	2
 413              	.L26:
 414 000c 00590040 		.word	1073764608
 415              		.cfi_endproc
 416              	.LFE6:
 417              		.size	ADC_SAR_2_StartConvert, .-ADC_SAR_2_StartConvert
 418              		.section	.text.ADC_SAR_2_StopConvert,"ax",%progbits
 419              		.align	1
 420              		.global	ADC_SAR_2_StopConvert
 421              		.thumb
 422              		.thumb_func
 423              		.type	ADC_SAR_2_StopConvert, %function
 424              	ADC_SAR_2_StopConvert:
 425              	.LFB7:
 433:.\Generated_Source\PSoC5/ADC_SAR_2.c ****     {
 426              		.loc 1 433 0
 427              		.cfi_startproc
 428              		@ args = 0, pretend = 0, frame = 0
 429              		@ frame_needed = 0, uses_anonymous_args = 0
ARM GAS  C:\Users\Luke\AppData\Local\Temp\ccJ23FQg.s 			page 24


 430              		@ link register save eliminated.
 435:.\Generated_Source\PSoC5/ADC_SAR_2.c ****         ADC_SAR_2_SAR_CSR0_REG &= (uint8)~ADC_SAR_2_SAR_SOF_START_CONV;
 431              		.loc 1 435 0
 432 0000 024B     		ldr	r3, .L29
 433 0002 1A78     		ldrb	r2, [r3, #0]	@ zero_extendqisi2
 434 0004 02F0FE00 		and	r0, r2, #254
 435 0008 1870     		strb	r0, [r3, #0]
 436 000a 7047     		bx	lr
 437              	.L30:
 438              		.align	2
 439              	.L29:
 440 000c 00590040 		.word	1073764608
 441              		.cfi_endproc
 442              	.LFE7:
 443              		.size	ADC_SAR_2_StopConvert, .-ADC_SAR_2_StopConvert
 444              		.section	.text.ADC_SAR_2_IsEndConversion,"ax",%progbits
 445              		.align	1
 446              		.global	ADC_SAR_2_IsEndConversion
 447              		.thumb
 448              		.thumb_func
 449              		.type	ADC_SAR_2_IsEndConversion, %function
 450              	ADC_SAR_2_IsEndConversion:
 451              	.LFB8:
 473:.\Generated_Source\PSoC5/ADC_SAR_2.c **** {
 452              		.loc 1 473 0
 453              		.cfi_startproc
 454              		@ args = 0, pretend = 0, frame = 0
 455              		@ frame_needed = 0, uses_anonymous_args = 0
 456              	.LVL26:
 457 0000 38B5     		push	{r3, r4, r5, lr}
 458              	.LCFI4:
 459              		.cfi_def_cfa_offset 16
 460              		.cfi_offset 3, -16
 461              		.cfi_offset 4, -12
 462              		.cfi_offset 5, -8
 463              		.cfi_offset 14, -4
 464              	.L33:
 478:.\Generated_Source\PSoC5/ADC_SAR_2.c ****         status = ADC_SAR_2_SAR_CSR1_REG & ADC_SAR_2_SAR_EOF_1;
 465              		.loc 1 478 0 discriminator 1
 466 0002 074D     		ldr	r5, .L40
 467 0004 2C78     		ldrb	r4, [r5, #0]	@ zero_extendqisi2
 468              	.LVL27:
 479:.\Generated_Source\PSoC5/ADC_SAR_2.c ****     } while ((status != ADC_SAR_2_SAR_EOF_1) && (retMode == ADC_SAR_2_WAIT_FOR_RESULT));
 469              		.loc 1 479 0 discriminator 1
 470 0006 14F00104 		ands	r4, r4, #1
 471              	.LVL28:
 472 000a 03D1     		bne	.L32
 473 000c 0028     		cmp	r0, #0
 474 000e F8D0     		beq	.L33
 479:.\Generated_Source\PSoC5/ADC_SAR_2.c ****     } while ((status != ADC_SAR_2_SAR_EOF_1) && (retMode == ADC_SAR_2_WAIT_FOR_RESULT));
 475              		.loc 1 479 0 is_stmt 0
 476 0010 0024     		movs	r4, #0
 477 0012 03E0     		b	.L39
 478              	.L32:
 484:.\Generated_Source\PSoC5/ADC_SAR_2.c ****         CyDelayUs(1u);
 479              		.loc 1 484 0 is_stmt 1
 480 0014 2046     		mov	r0, r4
ARM GAS  C:\Users\Luke\AppData\Local\Temp\ccJ23FQg.s 			page 25


 481              	.LVL29:
 482 0016 FFF7FEFF 		bl	CyDelayUs
 483              	.LVL30:
 486:.\Generated_Source\PSoC5/ADC_SAR_2.c ****         CY_GET_REG8(ADC_SAR_2_SAR_CSR1_PTR);
 484              		.loc 1 486 0
 485 001a 2B78     		ldrb	r3, [r5, #0]	@ zero_extendqisi2
 486              	.L39:
 490:.\Generated_Source\PSoC5/ADC_SAR_2.c **** }
 487              		.loc 1 490 0
 488 001c 2046     		mov	r0, r4
 489 001e 38BD     		pop	{r3, r4, r5, pc}
 490              	.L41:
 491              		.align	2
 492              	.L40:
 493 0020 01590040 		.word	1073764609
 494              		.cfi_endproc
 495              	.LFE8:
 496              		.size	ADC_SAR_2_IsEndConversion, .-ADC_SAR_2_IsEndConversion
 497              		.section	.text.ADC_SAR_2_GetResult8,"ax",%progbits
 498              		.align	1
 499              		.global	ADC_SAR_2_GetResult8
 500              		.thumb
 501              		.thumb_func
 502              		.type	ADC_SAR_2_GetResult8, %function
 503              	ADC_SAR_2_GetResult8:
 504              	.LFB9:
 518:.\Generated_Source\PSoC5/ADC_SAR_2.c **** {
 505              		.loc 1 518 0
 506              		.cfi_startproc
 507              		@ args = 0, pretend = 0, frame = 0
 508              		@ frame_needed = 0, uses_anonymous_args = 0
 509              		@ link register save eliminated.
 519:.\Generated_Source\PSoC5/ADC_SAR_2.c ****     return( (int8)ADC_SAR_2_SAR_WRK0_REG - (int8)ADC_SAR_2_shift);
 510              		.loc 1 519 0
 511 0000 034B     		ldr	r3, .L43
 512 0002 0449     		ldr	r1, .L43+4
 513 0004 1878     		ldrb	r0, [r3, #0]	@ zero_extendqisi2
 514 0006 0A88     		ldrh	r2, [r1, #0]
 515 0008 831A     		subs	r3, r0, r2
 520:.\Generated_Source\PSoC5/ADC_SAR_2.c **** }
 516              		.loc 1 520 0
 517 000a 58B2     		sxtb	r0, r3
 518 000c 7047     		bx	lr
 519              	.L44:
 520 000e 00BF     		.align	2
 521              	.L43:
 522 0010 A05B0040 		.word	1073765280
 523 0014 00000000 		.word	ADC_SAR_2_shift
 524              		.cfi_endproc
 525              	.LFE9:
 526              		.size	ADC_SAR_2_GetResult8, .-ADC_SAR_2_GetResult8
 527              		.section	.text.ADC_SAR_2_GetResult16,"ax",%progbits
 528              		.align	1
 529              		.global	ADC_SAR_2_GetResult16
 530              		.thumb
 531              		.thumb_func
 532              		.type	ADC_SAR_2_GetResult16, %function
ARM GAS  C:\Users\Luke\AppData\Local\Temp\ccJ23FQg.s 			page 26


 533              	ADC_SAR_2_GetResult16:
 534              	.LFB10:
 548:.\Generated_Source\PSoC5/ADC_SAR_2.c **** {
 535              		.loc 1 548 0
 536              		.cfi_startproc
 537              		@ args = 0, pretend = 0, frame = 0
 538              		@ frame_needed = 0, uses_anonymous_args = 0
 539              		@ link register save eliminated.
 551:.\Generated_Source\PSoC5/ADC_SAR_2.c ****     res = CY_GET_REG16(ADC_SAR_2_SAR_WRK_PTR);
 540              		.loc 1 551 0
 541 0000 034B     		ldr	r3, .L46
 553:.\Generated_Source\PSoC5/ADC_SAR_2.c ****     return( (int16)res - ADC_SAR_2_shift );
 542              		.loc 1 553 0
 543 0002 0449     		ldr	r1, .L46+4
 551:.\Generated_Source\PSoC5/ADC_SAR_2.c ****     res = CY_GET_REG16(ADC_SAR_2_SAR_WRK_PTR);
 544              		.loc 1 551 0
 545 0004 1888     		ldrh	r0, [r3, #0]
 546              	.LVL31:
 553:.\Generated_Source\PSoC5/ADC_SAR_2.c ****     return( (int16)res - ADC_SAR_2_shift );
 547              		.loc 1 553 0
 548 0006 0A88     		ldrh	r2, [r1, #0]
 549 0008 831A     		subs	r3, r0, r2
 554:.\Generated_Source\PSoC5/ADC_SAR_2.c **** }
 550              		.loc 1 554 0
 551 000a 18B2     		sxth	r0, r3
 552              	.LVL32:
 553 000c 7047     		bx	lr
 554              	.L47:
 555 000e 00BF     		.align	2
 556              	.L46:
 557 0010 A05B0040 		.word	1073765280
 558 0014 00000000 		.word	ADC_SAR_2_shift
 559              		.cfi_endproc
 560              	.LFE10:
 561              		.size	ADC_SAR_2_GetResult16, .-ADC_SAR_2_GetResult16
 562              		.section	.text.ADC_SAR_2_SetOffset,"ax",%progbits
 563              		.align	1
 564              		.global	ADC_SAR_2_SetOffset
 565              		.thumb
 566              		.thumb_func
 567              		.type	ADC_SAR_2_SetOffset, %function
 568              	ADC_SAR_2_SetOffset:
 569              	.LFB11:
 583:.\Generated_Source\PSoC5/ADC_SAR_2.c **** {
 570              		.loc 1 583 0
 571              		.cfi_startproc
 572              		@ args = 0, pretend = 0, frame = 0
 573              		@ frame_needed = 0, uses_anonymous_args = 0
 574              		@ link register save eliminated.
 575              	.LVL33:
 584:.\Generated_Source\PSoC5/ADC_SAR_2.c ****     ADC_SAR_2_offset = offset;
 576              		.loc 1 584 0
 577 0000 014B     		ldr	r3, .L49
 578 0002 1880     		strh	r0, [r3, #0]	@ movhi
 579 0004 7047     		bx	lr
 580              	.L50:
 581 0006 00BF     		.align	2
ARM GAS  C:\Users\Luke\AppData\Local\Temp\ccJ23FQg.s 			page 27


 582              	.L49:
 583 0008 00000000 		.word	ADC_SAR_2_offset
 584              		.cfi_endproc
 585              	.LFE11:
 586              		.size	ADC_SAR_2_SetOffset, .-ADC_SAR_2_SetOffset
 587              		.section	.text.ADC_SAR_2_SetGain,"ax",%progbits
 588              		.align	1
 589              		.global	ADC_SAR_2_SetGain
 590              		.thumb
 591              		.thumb_func
 592              		.type	ADC_SAR_2_SetGain, %function
 593              	ADC_SAR_2_SetGain:
 594              	.LFB13:
 690:.\Generated_Source\PSoC5/ADC_SAR_2.c **** {
 595              		.loc 1 690 0
 596              		.cfi_startproc
 597              		@ args = 0, pretend = 0, frame = 0
 598              		@ frame_needed = 0, uses_anonymous_args = 0
 599              		@ link register save eliminated.
 600              	.LVL34:
 691:.\Generated_Source\PSoC5/ADC_SAR_2.c ****     ADC_SAR_2_countsPer10Volt = (int32)adcGain * 10;
 601              		.loc 1 691 0
 602 0000 0A23     		movs	r3, #10
 603 0002 5843     		muls	r0, r3, r0
 604              	.LVL35:
 605 0004 014A     		ldr	r2, .L52
 606 0006 1060     		str	r0, [r2, #0]
 607 0008 7047     		bx	lr
 608              	.L53:
 609 000a 00BF     		.align	2
 610              	.L52:
 611 000c 00000000 		.word	ADC_SAR_2_countsPer10Volt
 612              		.cfi_endproc
 613              	.LFE13:
 614              		.size	ADC_SAR_2_SetGain, .-ADC_SAR_2_SetGain
 615              		.section	.text.ADC_SAR_2_SetScaledGain,"ax",%progbits
 616              		.align	1
 617              		.global	ADC_SAR_2_SetScaledGain
 618              		.thumb
 619              		.thumb_func
 620              		.type	ADC_SAR_2_SetScaledGain, %function
 621              	ADC_SAR_2_SetScaledGain:
 622              	.LFB14:
 717:.\Generated_Source\PSoC5/ADC_SAR_2.c **** {
 623              		.loc 1 717 0
 624              		.cfi_startproc
 625              		@ args = 0, pretend = 0, frame = 0
 626              		@ frame_needed = 0, uses_anonymous_args = 0
 627              		@ link register save eliminated.
 628              	.LVL36:
 718:.\Generated_Source\PSoC5/ADC_SAR_2.c ****     ADC_SAR_2_countsPer10Volt = adcGain;
 629              		.loc 1 718 0
 630 0000 014B     		ldr	r3, .L55
 631 0002 1860     		str	r0, [r3, #0]
 632 0004 7047     		bx	lr
 633              	.L56:
 634 0006 00BF     		.align	2
ARM GAS  C:\Users\Luke\AppData\Local\Temp\ccJ23FQg.s 			page 28


 635              	.L55:
 636 0008 00000000 		.word	ADC_SAR_2_countsPer10Volt
 637              		.cfi_endproc
 638              	.LFE14:
 639              		.size	ADC_SAR_2_SetScaledGain, .-ADC_SAR_2_SetScaledGain
 640              		.section	.text.ADC_SAR_2_CountsTo_mVolts,"ax",%progbits
 641              		.align	1
 642              		.global	ADC_SAR_2_CountsTo_mVolts
 643              		.thumb
 644              		.thumb_func
 645              		.type	ADC_SAR_2_CountsTo_mVolts, %function
 646              	ADC_SAR_2_CountsTo_mVolts:
 647              	.LFB15:
 741:.\Generated_Source\PSoC5/ADC_SAR_2.c **** {
 648              		.loc 1 741 0
 649              		.cfi_startproc
 650              		@ args = 0, pretend = 0, frame = 0
 651              		@ frame_needed = 0, uses_anonymous_args = 0
 652              		@ link register save eliminated.
 653              	.LVL37:
 745:.\Generated_Source\PSoC5/ADC_SAR_2.c ****     if(ADC_SAR_2_countsPerVolt != 0)
 654              		.loc 1 745 0
 655 0000 0E4B     		ldr	r3, .L62
 656 0002 1A88     		ldrh	r2, [r3, #0]
 657 0004 91B2     		uxth	r1, r2
 658 0006 21B1     		cbz	r1, .L58
 747:.\Generated_Source\PSoC5/ADC_SAR_2.c ****         countsPer10Volt = (int32)ADC_SAR_2_countsPerVolt * 10;
 659              		.loc 1 747 0
 660 0008 1A88     		ldrh	r2, [r3, #0]
 661 000a 0A21     		movs	r1, #10
 662 000c 13B2     		sxth	r3, r2
 663 000e 4B43     		muls	r3, r1, r3
 664              	.LVL38:
 665 0010 01E0     		b	.L59
 666              	.LVL39:
 667              	.L58:
 751:.\Generated_Source\PSoC5/ADC_SAR_2.c ****         countsPer10Volt = ADC_SAR_2_countsPer10Volt;
 668              		.loc 1 751 0
 669 0012 0B4B     		ldr	r3, .L62+4
 670 0014 1B68     		ldr	r3, [r3, #0]
 671              	.LVL40:
 672              	.L59:
 755:.\Generated_Source\PSoC5/ADC_SAR_2.c ****     adcCounts -= ADC_SAR_2_offset;
 673              		.loc 1 755 0
 674 0016 0B4A     		ldr	r2, .L62+8
 675 0018 1188     		ldrh	r1, [r2, #0]
 676 001a 401A     		subs	r0, r0, r1
 677              	.LVL41:
 678 001c 02B2     		sxth	r2, r0
 679              	.LVL42:
 757:.\Generated_Source\PSoC5/ADC_SAR_2.c ****     mVolts = (int16)( (( (int32)adcCounts * ADC_SAR_2_10MV_COUNTS ) + ( (adcCounts > 0) ?
 680              		.loc 1 757 0
 681 001e 42F21071 		movw	r1, #10000
 682 0022 5143     		muls	r1, r2, r1
 683 0024 4FF00200 		mov	r0, #2
 684              	.LVL43:
 758:.\Generated_Source\PSoC5/ADC_SAR_2.c ****                        (countsPer10Volt / 2) : (-(countsPer10Volt / 2)) )) / countsPer10Volt);
ARM GAS  C:\Users\Luke\AppData\Local\Temp\ccJ23FQg.s 			page 29


 685              		.loc 1 758 0
 686 0028 002A     		cmp	r2, #0
 687 002a 93FBF0F2 		sdiv	r2, r3, r0
 688              	.LVL44:
 689 002e D8BF     		it	le
 690 0030 5242     		negle	r2, r2
 691              	.LVL45:
 757:.\Generated_Source\PSoC5/ADC_SAR_2.c ****     mVolts = (int16)( (( (int32)adcCounts * ADC_SAR_2_10MV_COUNTS ) + ( (adcCounts > 0) ?
 692              		.loc 1 757 0
 693 0032 8918     		adds	r1, r1, r2
 694              	.LVL46:
 695 0034 91FBF3F3 		sdiv	r3, r1, r3
 696              	.LVL47:
 761:.\Generated_Source\PSoC5/ADC_SAR_2.c **** }
 697              		.loc 1 761 0
 698 0038 18B2     		sxth	r0, r3
 699 003a 7047     		bx	lr
 700              	.L63:
 701              		.align	2
 702              	.L62:
 703 003c 00000000 		.word	ADC_SAR_2_countsPerVolt
 704 0040 00000000 		.word	ADC_SAR_2_countsPer10Volt
 705 0044 00000000 		.word	ADC_SAR_2_offset
 706              		.cfi_endproc
 707              	.LFE15:
 708              		.size	ADC_SAR_2_CountsTo_mVolts, .-ADC_SAR_2_CountsTo_mVolts
 709              		.global	__aeabi_ldivmod
 710              		.section	.text.ADC_SAR_2_CountsTo_uVolts,"ax",%progbits
 711              		.align	1
 712              		.global	ADC_SAR_2_CountsTo_uVolts
 713              		.thumb
 714              		.thumb_func
 715              		.type	ADC_SAR_2_CountsTo_uVolts, %function
 716              	ADC_SAR_2_CountsTo_uVolts:
 717              	.LFB16:
 783:.\Generated_Source\PSoC5/ADC_SAR_2.c **** {
 718              		.loc 1 783 0
 719              		.cfi_startproc
 720              		@ args = 0, pretend = 0, frame = 0
 721              		@ frame_needed = 0, uses_anonymous_args = 0
 722              	.LVL48:
 788:.\Generated_Source\PSoC5/ADC_SAR_2.c ****     if(ADC_SAR_2_countsPerVolt != 0)
 723              		.loc 1 788 0
 724 0000 0D4B     		ldr	r3, .L67
 783:.\Generated_Source\PSoC5/ADC_SAR_2.c **** {
 725              		.loc 1 783 0
 726 0002 10B5     		push	{r4, lr}
 727              	.LCFI5:
 728              		.cfi_def_cfa_offset 8
 729              		.cfi_offset 4, -8
 730              		.cfi_offset 14, -4
 788:.\Generated_Source\PSoC5/ADC_SAR_2.c ****     if(ADC_SAR_2_countsPerVolt != 0)
 731              		.loc 1 788 0
 732 0004 1A88     		ldrh	r2, [r3, #0]
 733 0006 91B2     		uxth	r1, r2
 734 0008 21B1     		cbz	r1, .L65
 790:.\Generated_Source\PSoC5/ADC_SAR_2.c ****         countsPer10Volt = (int32)ADC_SAR_2_countsPerVolt * 10;
ARM GAS  C:\Users\Luke\AppData\Local\Temp\ccJ23FQg.s 			page 30


 735              		.loc 1 790 0
 736 000a 1B88     		ldrh	r3, [r3, #0]
 737 000c 0A22     		movs	r2, #10
 738 000e 1CB2     		sxth	r4, r3
 739 0010 5443     		muls	r4, r2, r4
 740              	.LVL49:
 741 0012 01E0     		b	.L66
 742              	.LVL50:
 743              	.L65:
 794:.\Generated_Source\PSoC5/ADC_SAR_2.c ****         countsPer10Volt = ADC_SAR_2_countsPer10Volt;
 744              		.loc 1 794 0
 745 0014 094C     		ldr	r4, .L67+4
 746 0016 2468     		ldr	r4, [r4, #0]
 747              	.LVL51:
 748              	.L66:
 798:.\Generated_Source\PSoC5/ADC_SAR_2.c ****     adcCounts -= ADC_SAR_2_offset;
 749              		.loc 1 798 0
 750 0018 094B     		ldr	r3, .L67+8
 751 001a 1B88     		ldrh	r3, [r3, #0]
 752              	.LVL52:
 802:.\Generated_Source\PSoC5/ADC_SAR_2.c ****     uVolts = (( (int64)adcCounts * ADC_SAR_2_10UV_COUNTS ) / countsPer10Volt);
 753              		.loc 1 802 0
 754 001c C21A     		subs	r2, r0, r3
 755 001e 10B2     		sxth	r0, r2
 756              	.LVL53:
 757 0020 084A     		ldr	r2, .L67+12
 758 0022 C317     		asrs	r3, r0, #31
 759 0024 A0FB0201 		umull	r0, r1, r0, r2
 760 0028 02FB0311 		mla	r1, r2, r3, r1
 761 002c 2246     		mov	r2, r4
 762 002e E317     		asrs	r3, r4, #31
 763 0030 FFF7FEFF 		bl	__aeabi_ldivmod
 764              	.LVL54:
 805:.\Generated_Source\PSoC5/ADC_SAR_2.c **** }
 765              		.loc 1 805 0
 766 0034 10BD     		pop	{r4, pc}
 767              	.L68:
 768 0036 00BF     		.align	2
 769              	.L67:
 770 0038 00000000 		.word	ADC_SAR_2_countsPerVolt
 771 003c 00000000 		.word	ADC_SAR_2_countsPer10Volt
 772 0040 00000000 		.word	ADC_SAR_2_offset
 773 0044 80969800 		.word	10000000
 774              		.cfi_endproc
 775              	.LFE16:
 776              		.size	ADC_SAR_2_CountsTo_uVolts, .-ADC_SAR_2_CountsTo_uVolts
 777              		.global	__aeabi_i2f
 778              		.global	__aeabi_fmul
 779              		.global	__aeabi_fdiv
 780              		.section	.text.ADC_SAR_2_CountsTo_Volts,"ax",%progbits
 781              		.align	1
 782              		.global	ADC_SAR_2_CountsTo_Volts
 783              		.thumb
 784              		.thumb_func
 785              		.type	ADC_SAR_2_CountsTo_Volts, %function
 786              	ADC_SAR_2_CountsTo_Volts:
 787              	.LFB17:
ARM GAS  C:\Users\Luke\AppData\Local\Temp\ccJ23FQg.s 			page 31


 827:.\Generated_Source\PSoC5/ADC_SAR_2.c **** {
 788              		.loc 1 827 0
 789              		.cfi_startproc
 790              		@ args = 0, pretend = 0, frame = 0
 791              		@ frame_needed = 0, uses_anonymous_args = 0
 792              	.LVL55:
 793 0000 38B5     		push	{r3, r4, r5, lr}
 794              	.LCFI6:
 795              		.cfi_def_cfa_offset 16
 796              		.cfi_offset 3, -16
 797              		.cfi_offset 4, -12
 798              		.cfi_offset 5, -8
 799              		.cfi_offset 14, -4
 831:.\Generated_Source\PSoC5/ADC_SAR_2.c ****     if(ADC_SAR_2_countsPerVolt != 0)
 800              		.loc 1 831 0
 801 0002 0E4B     		ldr	r3, .L72
 802 0004 1A88     		ldrh	r2, [r3, #0]
 803 0006 91B2     		uxth	r1, r2
 804 0008 21B1     		cbz	r1, .L70
 833:.\Generated_Source\PSoC5/ADC_SAR_2.c ****         countsPer10Volt = (int32)ADC_SAR_2_countsPerVolt * 10;
 805              		.loc 1 833 0
 806 000a 1D88     		ldrh	r5, [r3, #0]
 807 000c 0A23     		movs	r3, #10
 808 000e 2CB2     		sxth	r4, r5
 809 0010 5C43     		muls	r4, r3, r4
 810              	.LVL56:
 811 0012 01E0     		b	.L71
 812              	.LVL57:
 813              	.L70:
 837:.\Generated_Source\PSoC5/ADC_SAR_2.c ****         countsPer10Volt = ADC_SAR_2_countsPer10Volt;
 814              		.loc 1 837 0
 815 0014 0A4C     		ldr	r4, .L72+4
 816 0016 2468     		ldr	r4, [r4, #0]
 817              	.LVL58:
 818              	.L71:
 841:.\Generated_Source\PSoC5/ADC_SAR_2.c ****     adcCounts -= ADC_SAR_2_offset;
 819              		.loc 1 841 0
 820 0018 0A4A     		ldr	r2, .L72+8
 821 001a 1188     		ldrh	r1, [r2, #0]
 822 001c 401A     		subs	r0, r0, r1
 823              	.LVL59:
 843:.\Generated_Source\PSoC5/ADC_SAR_2.c ****     volts = ((float32)adcCounts * ADC_SAR_2_10V_COUNTS) / (float32)countsPer10Volt;
 824              		.loc 1 843 0
 825 001e 00B2     		sxth	r0, r0
 826              	.LVL60:
 827 0020 FFF7FEFF 		bl	__aeabi_i2f
 828              	.LVL61:
 829 0024 0849     		ldr	r1, .L72+12
 830 0026 FFF7FEFF 		bl	__aeabi_fmul
 831              	.LVL62:
 832 002a 0546     		mov	r5, r0
 833 002c 2046     		mov	r0, r4
 834 002e FFF7FEFF 		bl	__aeabi_i2f
 835              	.LVL63:
 836 0032 0146     		mov	r1, r0
 837 0034 2846     		mov	r0, r5
 838 0036 FFF7FEFF 		bl	__aeabi_fdiv
ARM GAS  C:\Users\Luke\AppData\Local\Temp\ccJ23FQg.s 			page 32


 839              	.LVL64:
 840              		.loc 1 846 0
 841 003a 38BD     		pop	{r3, r4, r5, pc}
 842              	.L73:
 843              		.align	2
 844              	.L72:
 845 003c 00000000 		.word	ADC_SAR_2_countsPerVolt
 846 0040 00000000 		.word	ADC_SAR_2_countsPer10Volt
 847 0044 00000000 		.word	ADC_SAR_2_offset
 848 0048 00002041 		.word	1092616192
 849              		.cfi_endproc
 850              	.LFE17:
 851              		.size	ADC_SAR_2_CountsTo_Volts, .-ADC_SAR_2_CountsTo_Volts
 852              		.comm	ADC_SAR_2_shift,2,2
 853              		.comm	ADC_SAR_2_countsPer10Volt,4,4
 854              		.comm	ADC_SAR_2_countsPerVolt,2,2
 855              		.comm	ADC_SAR_2_offset,2,2
 856              		.global	ADC_SAR_2_initVar
 857              		.section	.rodata
 858              		.align	1
 859              		.set	.LANCHOR0,. + 0
 860              		.type	CSWTCH.31, %object
 861              		.size	CSWTCH.31, 3
 862              	CSWTCH.31:
 863 0000 44       		.byte	68
 864 0001 C4       		.byte	-60
 865 0002 84       		.byte	-124
 866 0003 00       		.space	1
 867              		.type	CSWTCH.25, %object
 868              		.size	CSWTCH.25, 10
 869              	CSWTCH.25:
 870 0004 0001     		.short	256
 871 0006 0000     		.short	0
 872 0008 0004     		.short	1024
 873 000a 0000     		.short	0
 874 000c 0010     		.short	4096
 875              		.bss
 876              		.set	.LANCHOR1,. + 0
 877              		.type	ADC_SAR_2_initVar, %object
 878              		.size	ADC_SAR_2_initVar, 1
 879              	ADC_SAR_2_initVar:
 880 0000 00       		.space	1
 881              		.text
 882              	.Letext0:
 883              		.file 2 ".\\Generated_Source\\PSoC5\\cytypes.h"
 884              		.file 3 ".\\Generated_Source\\PSoC5\\CyLib.h"
 885              		.file 4 ".\\Generated_Source\\PSoC5\\ADC_SAR_2_theACLK.h"