ARM GAS  C:\Users\Luke\AppData\Local\Temp\ccaCAa5m.s 			page 1


   1              		.syntax unified
   2              		.cpu cortex-m3
   3              		.fpu softvfp
   4              		.eabi_attribute 20, 1
   5              		.eabi_attribute 21, 1
   6              		.eabi_attribute 23, 3
   7              		.eabi_attribute 24, 1
   8              		.eabi_attribute 25, 1
   9              		.eabi_attribute 26, 1
  10              		.eabi_attribute 30, 4
  11              		.eabi_attribute 34, 1
  12              		.eabi_attribute 18, 4
  13              		.thumb
  14              		.file	"ADC_SAR_2_IRQ.c"
  15              		.text
  16              	.Ltext0:
  17              		.cfi_sections	.debug_frame
  18              		.section	.text.ADC_SAR_2_IRQ_Interrupt,"ax",%progbits
  19              		.align	1
  20              		.global	ADC_SAR_2_IRQ_Interrupt
  21              		.thumb
  22              		.thumb_func
  23              		.type	ADC_SAR_2_IRQ_Interrupt, %function
  24              	ADC_SAR_2_IRQ_Interrupt:
  25              	.LFB3:
  26              		.file 1 ".\\Generated_Source\\PSoC5\\ADC_SAR_2_IRQ.c"
   1:.\Generated_Source\PSoC5/ADC_SAR_2_IRQ.c **** /*******************************************************************************
   2:.\Generated_Source\PSoC5/ADC_SAR_2_IRQ.c **** * File Name: ADC_SAR_2_IRQ.c  
   3:.\Generated_Source\PSoC5/ADC_SAR_2_IRQ.c **** * Version 1.70
   4:.\Generated_Source\PSoC5/ADC_SAR_2_IRQ.c **** *
   5:.\Generated_Source\PSoC5/ADC_SAR_2_IRQ.c **** *  Description:
   6:.\Generated_Source\PSoC5/ADC_SAR_2_IRQ.c **** *   API for controlling the state of an interrupt.
   7:.\Generated_Source\PSoC5/ADC_SAR_2_IRQ.c **** *
   8:.\Generated_Source\PSoC5/ADC_SAR_2_IRQ.c **** *
   9:.\Generated_Source\PSoC5/ADC_SAR_2_IRQ.c **** *  Note:
  10:.\Generated_Source\PSoC5/ADC_SAR_2_IRQ.c **** *
  11:.\Generated_Source\PSoC5/ADC_SAR_2_IRQ.c **** ********************************************************************************
  12:.\Generated_Source\PSoC5/ADC_SAR_2_IRQ.c **** * Copyright 2008-2012, Cypress Semiconductor Corporation.  All rights reserved.
  13:.\Generated_Source\PSoC5/ADC_SAR_2_IRQ.c **** * You may use this file only in accordance with the license, terms, conditions, 
  14:.\Generated_Source\PSoC5/ADC_SAR_2_IRQ.c **** * disclaimers, and limitations in the end user license agreement accompanying 
  15:.\Generated_Source\PSoC5/ADC_SAR_2_IRQ.c **** * the software package with which this file was provided.
  16:.\Generated_Source\PSoC5/ADC_SAR_2_IRQ.c **** *******************************************************************************/
  17:.\Generated_Source\PSoC5/ADC_SAR_2_IRQ.c **** 
  18:.\Generated_Source\PSoC5/ADC_SAR_2_IRQ.c **** 
  19:.\Generated_Source\PSoC5/ADC_SAR_2_IRQ.c **** #include <cydevice_trm.h>
  20:.\Generated_Source\PSoC5/ADC_SAR_2_IRQ.c **** #include <CyLib.h>
  21:.\Generated_Source\PSoC5/ADC_SAR_2_IRQ.c **** #include <ADC_SAR_2_IRQ.h>
  22:.\Generated_Source\PSoC5/ADC_SAR_2_IRQ.c **** 
  23:.\Generated_Source\PSoC5/ADC_SAR_2_IRQ.c **** #if !defined(ADC_SAR_2_IRQ__REMOVED) /* Check for removal by optimization */
  24:.\Generated_Source\PSoC5/ADC_SAR_2_IRQ.c **** 
  25:.\Generated_Source\PSoC5/ADC_SAR_2_IRQ.c **** /*******************************************************************************
  26:.\Generated_Source\PSoC5/ADC_SAR_2_IRQ.c **** *  Place your includes, defines and code here 
  27:.\Generated_Source\PSoC5/ADC_SAR_2_IRQ.c **** ********************************************************************************/
  28:.\Generated_Source\PSoC5/ADC_SAR_2_IRQ.c **** /* `#START ADC_SAR_2_IRQ_intc` */
  29:.\Generated_Source\PSoC5/ADC_SAR_2_IRQ.c **** 
  30:.\Generated_Source\PSoC5/ADC_SAR_2_IRQ.c **** /* `#END` */
  31:.\Generated_Source\PSoC5/ADC_SAR_2_IRQ.c **** 
ARM GAS  C:\Users\Luke\AppData\Local\Temp\ccaCAa5m.s 			page 2


  32:.\Generated_Source\PSoC5/ADC_SAR_2_IRQ.c **** #ifndef CYINT_IRQ_BASE
  33:.\Generated_Source\PSoC5/ADC_SAR_2_IRQ.c **** #define CYINT_IRQ_BASE      16
  34:.\Generated_Source\PSoC5/ADC_SAR_2_IRQ.c **** #endif /* CYINT_IRQ_BASE */
  35:.\Generated_Source\PSoC5/ADC_SAR_2_IRQ.c **** #ifndef CYINT_VECT_TABLE
  36:.\Generated_Source\PSoC5/ADC_SAR_2_IRQ.c **** #define CYINT_VECT_TABLE    ((cyisraddress **) CYREG_NVIC_VECT_OFFSET)
  37:.\Generated_Source\PSoC5/ADC_SAR_2_IRQ.c **** #endif /* CYINT_VECT_TABLE */
  38:.\Generated_Source\PSoC5/ADC_SAR_2_IRQ.c **** 
  39:.\Generated_Source\PSoC5/ADC_SAR_2_IRQ.c **** /* Declared in startup, used to set unused interrupts to. */
  40:.\Generated_Source\PSoC5/ADC_SAR_2_IRQ.c **** CY_ISR_PROTO(IntDefaultHandler);
  41:.\Generated_Source\PSoC5/ADC_SAR_2_IRQ.c **** 
  42:.\Generated_Source\PSoC5/ADC_SAR_2_IRQ.c **** 
  43:.\Generated_Source\PSoC5/ADC_SAR_2_IRQ.c **** /*******************************************************************************
  44:.\Generated_Source\PSoC5/ADC_SAR_2_IRQ.c **** * Function Name: ADC_SAR_2_IRQ_Start
  45:.\Generated_Source\PSoC5/ADC_SAR_2_IRQ.c **** ********************************************************************************
  46:.\Generated_Source\PSoC5/ADC_SAR_2_IRQ.c **** *
  47:.\Generated_Source\PSoC5/ADC_SAR_2_IRQ.c **** * Summary:
  48:.\Generated_Source\PSoC5/ADC_SAR_2_IRQ.c **** *  Set up the interrupt and enable it.
  49:.\Generated_Source\PSoC5/ADC_SAR_2_IRQ.c **** *
  50:.\Generated_Source\PSoC5/ADC_SAR_2_IRQ.c **** * Parameters:  
  51:.\Generated_Source\PSoC5/ADC_SAR_2_IRQ.c **** *   None
  52:.\Generated_Source\PSoC5/ADC_SAR_2_IRQ.c **** *
  53:.\Generated_Source\PSoC5/ADC_SAR_2_IRQ.c **** * Return:
  54:.\Generated_Source\PSoC5/ADC_SAR_2_IRQ.c **** *   None
  55:.\Generated_Source\PSoC5/ADC_SAR_2_IRQ.c **** *
  56:.\Generated_Source\PSoC5/ADC_SAR_2_IRQ.c **** *******************************************************************************/
  57:.\Generated_Source\PSoC5/ADC_SAR_2_IRQ.c **** void ADC_SAR_2_IRQ_Start(void)
  58:.\Generated_Source\PSoC5/ADC_SAR_2_IRQ.c **** {
  59:.\Generated_Source\PSoC5/ADC_SAR_2_IRQ.c ****     /* For all we know the interrupt is active. */
  60:.\Generated_Source\PSoC5/ADC_SAR_2_IRQ.c ****     ADC_SAR_2_IRQ_Disable();
  61:.\Generated_Source\PSoC5/ADC_SAR_2_IRQ.c **** 
  62:.\Generated_Source\PSoC5/ADC_SAR_2_IRQ.c ****     /* Set the ISR to point to the ADC_SAR_2_IRQ Interrupt. */
  63:.\Generated_Source\PSoC5/ADC_SAR_2_IRQ.c ****     ADC_SAR_2_IRQ_SetVector(&ADC_SAR_2_IRQ_Interrupt);
  64:.\Generated_Source\PSoC5/ADC_SAR_2_IRQ.c **** 
  65:.\Generated_Source\PSoC5/ADC_SAR_2_IRQ.c ****     /* Set the priority. */
  66:.\Generated_Source\PSoC5/ADC_SAR_2_IRQ.c ****     ADC_SAR_2_IRQ_SetPriority((uint8)ADC_SAR_2_IRQ_INTC_PRIOR_NUMBER);
  67:.\Generated_Source\PSoC5/ADC_SAR_2_IRQ.c **** 
  68:.\Generated_Source\PSoC5/ADC_SAR_2_IRQ.c ****     /* Enable it. */
  69:.\Generated_Source\PSoC5/ADC_SAR_2_IRQ.c ****     ADC_SAR_2_IRQ_Enable();
  70:.\Generated_Source\PSoC5/ADC_SAR_2_IRQ.c **** }
  71:.\Generated_Source\PSoC5/ADC_SAR_2_IRQ.c **** 
  72:.\Generated_Source\PSoC5/ADC_SAR_2_IRQ.c **** 
  73:.\Generated_Source\PSoC5/ADC_SAR_2_IRQ.c **** /*******************************************************************************
  74:.\Generated_Source\PSoC5/ADC_SAR_2_IRQ.c **** * Function Name: ADC_SAR_2_IRQ_StartEx
  75:.\Generated_Source\PSoC5/ADC_SAR_2_IRQ.c **** ********************************************************************************
  76:.\Generated_Source\PSoC5/ADC_SAR_2_IRQ.c **** *
  77:.\Generated_Source\PSoC5/ADC_SAR_2_IRQ.c **** * Summary:
  78:.\Generated_Source\PSoC5/ADC_SAR_2_IRQ.c **** *  Set up the interrupt and enable it.
  79:.\Generated_Source\PSoC5/ADC_SAR_2_IRQ.c **** *
  80:.\Generated_Source\PSoC5/ADC_SAR_2_IRQ.c **** * Parameters:  
  81:.\Generated_Source\PSoC5/ADC_SAR_2_IRQ.c **** *   address: Address of the ISR to set in the interrupt vector table.
  82:.\Generated_Source\PSoC5/ADC_SAR_2_IRQ.c **** *
  83:.\Generated_Source\PSoC5/ADC_SAR_2_IRQ.c **** * Return:
  84:.\Generated_Source\PSoC5/ADC_SAR_2_IRQ.c **** *   None
  85:.\Generated_Source\PSoC5/ADC_SAR_2_IRQ.c **** *
  86:.\Generated_Source\PSoC5/ADC_SAR_2_IRQ.c **** *******************************************************************************/
  87:.\Generated_Source\PSoC5/ADC_SAR_2_IRQ.c **** void ADC_SAR_2_IRQ_StartEx(cyisraddress address)
  88:.\Generated_Source\PSoC5/ADC_SAR_2_IRQ.c **** {
ARM GAS  C:\Users\Luke\AppData\Local\Temp\ccaCAa5m.s 			page 3


  89:.\Generated_Source\PSoC5/ADC_SAR_2_IRQ.c ****     /* For all we know the interrupt is active. */
  90:.\Generated_Source\PSoC5/ADC_SAR_2_IRQ.c ****     ADC_SAR_2_IRQ_Disable();
  91:.\Generated_Source\PSoC5/ADC_SAR_2_IRQ.c **** 
  92:.\Generated_Source\PSoC5/ADC_SAR_2_IRQ.c ****     /* Set the ISR to point to the ADC_SAR_2_IRQ Interrupt. */
  93:.\Generated_Source\PSoC5/ADC_SAR_2_IRQ.c ****     ADC_SAR_2_IRQ_SetVector(address);
  94:.\Generated_Source\PSoC5/ADC_SAR_2_IRQ.c **** 
  95:.\Generated_Source\PSoC5/ADC_SAR_2_IRQ.c ****     /* Set the priority. */
  96:.\Generated_Source\PSoC5/ADC_SAR_2_IRQ.c ****     ADC_SAR_2_IRQ_SetPriority((uint8)ADC_SAR_2_IRQ_INTC_PRIOR_NUMBER);
  97:.\Generated_Source\PSoC5/ADC_SAR_2_IRQ.c **** 
  98:.\Generated_Source\PSoC5/ADC_SAR_2_IRQ.c ****     /* Enable it. */
  99:.\Generated_Source\PSoC5/ADC_SAR_2_IRQ.c ****     ADC_SAR_2_IRQ_Enable();
 100:.\Generated_Source\PSoC5/ADC_SAR_2_IRQ.c **** }
 101:.\Generated_Source\PSoC5/ADC_SAR_2_IRQ.c **** 
 102:.\Generated_Source\PSoC5/ADC_SAR_2_IRQ.c **** 
 103:.\Generated_Source\PSoC5/ADC_SAR_2_IRQ.c **** /*******************************************************************************
 104:.\Generated_Source\PSoC5/ADC_SAR_2_IRQ.c **** * Function Name: ADC_SAR_2_IRQ_Stop
 105:.\Generated_Source\PSoC5/ADC_SAR_2_IRQ.c **** ********************************************************************************
 106:.\Generated_Source\PSoC5/ADC_SAR_2_IRQ.c **** *
 107:.\Generated_Source\PSoC5/ADC_SAR_2_IRQ.c **** * Summary:
 108:.\Generated_Source\PSoC5/ADC_SAR_2_IRQ.c **** *   Disables and removes the interrupt.
 109:.\Generated_Source\PSoC5/ADC_SAR_2_IRQ.c **** *
 110:.\Generated_Source\PSoC5/ADC_SAR_2_IRQ.c **** * Parameters:  
 111:.\Generated_Source\PSoC5/ADC_SAR_2_IRQ.c **** *
 112:.\Generated_Source\PSoC5/ADC_SAR_2_IRQ.c **** * Return:
 113:.\Generated_Source\PSoC5/ADC_SAR_2_IRQ.c **** *   None
 114:.\Generated_Source\PSoC5/ADC_SAR_2_IRQ.c **** *
 115:.\Generated_Source\PSoC5/ADC_SAR_2_IRQ.c **** *******************************************************************************/
 116:.\Generated_Source\PSoC5/ADC_SAR_2_IRQ.c **** void ADC_SAR_2_IRQ_Stop(void)
 117:.\Generated_Source\PSoC5/ADC_SAR_2_IRQ.c **** {
 118:.\Generated_Source\PSoC5/ADC_SAR_2_IRQ.c ****     /* Disable this interrupt. */
 119:.\Generated_Source\PSoC5/ADC_SAR_2_IRQ.c ****     ADC_SAR_2_IRQ_Disable();
 120:.\Generated_Source\PSoC5/ADC_SAR_2_IRQ.c **** 
 121:.\Generated_Source\PSoC5/ADC_SAR_2_IRQ.c ****     /* Set the ISR to point to the passive one. */
 122:.\Generated_Source\PSoC5/ADC_SAR_2_IRQ.c ****     ADC_SAR_2_IRQ_SetVector(&IntDefaultHandler);
 123:.\Generated_Source\PSoC5/ADC_SAR_2_IRQ.c **** }
 124:.\Generated_Source\PSoC5/ADC_SAR_2_IRQ.c **** 
 125:.\Generated_Source\PSoC5/ADC_SAR_2_IRQ.c **** 
 126:.\Generated_Source\PSoC5/ADC_SAR_2_IRQ.c **** /*******************************************************************************
 127:.\Generated_Source\PSoC5/ADC_SAR_2_IRQ.c **** * Function Name: ADC_SAR_2_IRQ_Interrupt
 128:.\Generated_Source\PSoC5/ADC_SAR_2_IRQ.c **** ********************************************************************************
 129:.\Generated_Source\PSoC5/ADC_SAR_2_IRQ.c **** *
 130:.\Generated_Source\PSoC5/ADC_SAR_2_IRQ.c **** * Summary:
 131:.\Generated_Source\PSoC5/ADC_SAR_2_IRQ.c **** *   The default Interrupt Service Routine for ADC_SAR_2_IRQ.
 132:.\Generated_Source\PSoC5/ADC_SAR_2_IRQ.c **** *
 133:.\Generated_Source\PSoC5/ADC_SAR_2_IRQ.c **** *   Add custom code between the coments to keep the next version of this file
 134:.\Generated_Source\PSoC5/ADC_SAR_2_IRQ.c **** *   from over writting your code.
 135:.\Generated_Source\PSoC5/ADC_SAR_2_IRQ.c **** *
 136:.\Generated_Source\PSoC5/ADC_SAR_2_IRQ.c **** * Parameters:  
 137:.\Generated_Source\PSoC5/ADC_SAR_2_IRQ.c **** *
 138:.\Generated_Source\PSoC5/ADC_SAR_2_IRQ.c **** * Return:
 139:.\Generated_Source\PSoC5/ADC_SAR_2_IRQ.c **** *   None
 140:.\Generated_Source\PSoC5/ADC_SAR_2_IRQ.c **** *
 141:.\Generated_Source\PSoC5/ADC_SAR_2_IRQ.c **** *******************************************************************************/
 142:.\Generated_Source\PSoC5/ADC_SAR_2_IRQ.c **** CY_ISR(ADC_SAR_2_IRQ_Interrupt)
 143:.\Generated_Source\PSoC5/ADC_SAR_2_IRQ.c **** {
  27              		.loc 1 143 0
  28              		.cfi_startproc
ARM GAS  C:\Users\Luke\AppData\Local\Temp\ccaCAa5m.s 			page 4


  29              		@ args = 0, pretend = 0, frame = 0
  30              		@ frame_needed = 0, uses_anonymous_args = 0
  31              		@ link register save eliminated.
  32 0000 7047     		bx	lr
  33              		.cfi_endproc
  34              	.LFE3:
  35              		.size	ADC_SAR_2_IRQ_Interrupt, .-ADC_SAR_2_IRQ_Interrupt
  36              		.section	.text.ADC_SAR_2_IRQ_Start,"ax",%progbits
  37              		.align	1
  38              		.global	ADC_SAR_2_IRQ_Start
  39              		.thumb
  40              		.thumb_func
  41              		.type	ADC_SAR_2_IRQ_Start, %function
  42              	ADC_SAR_2_IRQ_Start:
  43              	.LFB0:
  58:.\Generated_Source\PSoC5/ADC_SAR_2_IRQ.c **** {
  44              		.loc 1 58 0
  45              		.cfi_startproc
  46              		@ args = 0, pretend = 0, frame = 0
  47              		@ frame_needed = 0, uses_anonymous_args = 0
  48              		@ link register save eliminated.
  49              	.LBB22:
  50              	.LBB23:
 144:.\Generated_Source\PSoC5/ADC_SAR_2_IRQ.c ****     /*  Place your Interrupt code here. */
 145:.\Generated_Source\PSoC5/ADC_SAR_2_IRQ.c ****     /* `#START ADC_SAR_2_IRQ_Interrupt` */
 146:.\Generated_Source\PSoC5/ADC_SAR_2_IRQ.c **** 
 147:.\Generated_Source\PSoC5/ADC_SAR_2_IRQ.c ****     /* `#END` */
 148:.\Generated_Source\PSoC5/ADC_SAR_2_IRQ.c **** }
 149:.\Generated_Source\PSoC5/ADC_SAR_2_IRQ.c **** 
 150:.\Generated_Source\PSoC5/ADC_SAR_2_IRQ.c **** 
 151:.\Generated_Source\PSoC5/ADC_SAR_2_IRQ.c **** /*******************************************************************************
 152:.\Generated_Source\PSoC5/ADC_SAR_2_IRQ.c **** * Function Name: ADC_SAR_2_IRQ_SetVector
 153:.\Generated_Source\PSoC5/ADC_SAR_2_IRQ.c **** ********************************************************************************
 154:.\Generated_Source\PSoC5/ADC_SAR_2_IRQ.c **** *
 155:.\Generated_Source\PSoC5/ADC_SAR_2_IRQ.c **** * Summary:
 156:.\Generated_Source\PSoC5/ADC_SAR_2_IRQ.c **** *   Change the ISR vector for the Interrupt. Note calling ADC_SAR_2_IRQ_Start
 157:.\Generated_Source\PSoC5/ADC_SAR_2_IRQ.c **** *   will override any effect this method would have had. To set the vector 
 158:.\Generated_Source\PSoC5/ADC_SAR_2_IRQ.c **** *   before the component has been started use ADC_SAR_2_IRQ_StartEx instead.
 159:.\Generated_Source\PSoC5/ADC_SAR_2_IRQ.c **** *
 160:.\Generated_Source\PSoC5/ADC_SAR_2_IRQ.c **** * Parameters:
 161:.\Generated_Source\PSoC5/ADC_SAR_2_IRQ.c **** *   address: Address of the ISR to set in the interrupt vector table.
 162:.\Generated_Source\PSoC5/ADC_SAR_2_IRQ.c **** *
 163:.\Generated_Source\PSoC5/ADC_SAR_2_IRQ.c **** * Return:
 164:.\Generated_Source\PSoC5/ADC_SAR_2_IRQ.c **** *   None
 165:.\Generated_Source\PSoC5/ADC_SAR_2_IRQ.c **** *
 166:.\Generated_Source\PSoC5/ADC_SAR_2_IRQ.c **** *******************************************************************************/
 167:.\Generated_Source\PSoC5/ADC_SAR_2_IRQ.c **** void ADC_SAR_2_IRQ_SetVector(cyisraddress address)
 168:.\Generated_Source\PSoC5/ADC_SAR_2_IRQ.c **** {
 169:.\Generated_Source\PSoC5/ADC_SAR_2_IRQ.c ****     cyisraddress * ramVectorTable;
 170:.\Generated_Source\PSoC5/ADC_SAR_2_IRQ.c **** 
 171:.\Generated_Source\PSoC5/ADC_SAR_2_IRQ.c ****     ramVectorTable = (cyisraddress *) *CYINT_VECT_TABLE;
 172:.\Generated_Source\PSoC5/ADC_SAR_2_IRQ.c **** 
 173:.\Generated_Source\PSoC5/ADC_SAR_2_IRQ.c ****     ramVectorTable[CYINT_IRQ_BASE + (uint32)ADC_SAR_2_IRQ__INTC_NUMBER] = address;
 174:.\Generated_Source\PSoC5/ADC_SAR_2_IRQ.c **** }
 175:.\Generated_Source\PSoC5/ADC_SAR_2_IRQ.c **** 
 176:.\Generated_Source\PSoC5/ADC_SAR_2_IRQ.c **** 
 177:.\Generated_Source\PSoC5/ADC_SAR_2_IRQ.c **** /*******************************************************************************
ARM GAS  C:\Users\Luke\AppData\Local\Temp\ccaCAa5m.s 			page 5


 178:.\Generated_Source\PSoC5/ADC_SAR_2_IRQ.c **** * Function Name: ADC_SAR_2_IRQ_GetVector
 179:.\Generated_Source\PSoC5/ADC_SAR_2_IRQ.c **** ********************************************************************************
 180:.\Generated_Source\PSoC5/ADC_SAR_2_IRQ.c **** *
 181:.\Generated_Source\PSoC5/ADC_SAR_2_IRQ.c **** * Summary:
 182:.\Generated_Source\PSoC5/ADC_SAR_2_IRQ.c **** *   Gets the "address" of the current ISR vector for the Interrupt.
 183:.\Generated_Source\PSoC5/ADC_SAR_2_IRQ.c **** *
 184:.\Generated_Source\PSoC5/ADC_SAR_2_IRQ.c **** * Parameters:
 185:.\Generated_Source\PSoC5/ADC_SAR_2_IRQ.c **** *   None
 186:.\Generated_Source\PSoC5/ADC_SAR_2_IRQ.c **** *
 187:.\Generated_Source\PSoC5/ADC_SAR_2_IRQ.c **** * Return:
 188:.\Generated_Source\PSoC5/ADC_SAR_2_IRQ.c **** *   Address of the ISR in the interrupt vector table.
 189:.\Generated_Source\PSoC5/ADC_SAR_2_IRQ.c **** *
 190:.\Generated_Source\PSoC5/ADC_SAR_2_IRQ.c **** *******************************************************************************/
 191:.\Generated_Source\PSoC5/ADC_SAR_2_IRQ.c **** cyisraddress ADC_SAR_2_IRQ_GetVector(void)
 192:.\Generated_Source\PSoC5/ADC_SAR_2_IRQ.c **** {
 193:.\Generated_Source\PSoC5/ADC_SAR_2_IRQ.c ****     cyisraddress * ramVectorTable;
 194:.\Generated_Source\PSoC5/ADC_SAR_2_IRQ.c **** 
 195:.\Generated_Source\PSoC5/ADC_SAR_2_IRQ.c ****     ramVectorTable = (cyisraddress *) *CYINT_VECT_TABLE;
 196:.\Generated_Source\PSoC5/ADC_SAR_2_IRQ.c **** 
 197:.\Generated_Source\PSoC5/ADC_SAR_2_IRQ.c ****     return ramVectorTable[CYINT_IRQ_BASE + (uint32)ADC_SAR_2_IRQ__INTC_NUMBER];
 198:.\Generated_Source\PSoC5/ADC_SAR_2_IRQ.c **** }
 199:.\Generated_Source\PSoC5/ADC_SAR_2_IRQ.c **** 
 200:.\Generated_Source\PSoC5/ADC_SAR_2_IRQ.c **** 
 201:.\Generated_Source\PSoC5/ADC_SAR_2_IRQ.c **** /*******************************************************************************
 202:.\Generated_Source\PSoC5/ADC_SAR_2_IRQ.c **** * Function Name: ADC_SAR_2_IRQ_SetPriority
 203:.\Generated_Source\PSoC5/ADC_SAR_2_IRQ.c **** ********************************************************************************
 204:.\Generated_Source\PSoC5/ADC_SAR_2_IRQ.c **** *
 205:.\Generated_Source\PSoC5/ADC_SAR_2_IRQ.c **** * Summary:
 206:.\Generated_Source\PSoC5/ADC_SAR_2_IRQ.c **** *   Sets the Priority of the Interrupt. Note calling ADC_SAR_2_IRQ_Start
 207:.\Generated_Source\PSoC5/ADC_SAR_2_IRQ.c **** *   or ADC_SAR_2_IRQ_StartEx will override any effect this method 
 208:.\Generated_Source\PSoC5/ADC_SAR_2_IRQ.c **** *   would have had. This method should only be called after 
 209:.\Generated_Source\PSoC5/ADC_SAR_2_IRQ.c **** *   ADC_SAR_2_IRQ_Start or ADC_SAR_2_IRQ_StartEx has been called. To set 
 210:.\Generated_Source\PSoC5/ADC_SAR_2_IRQ.c **** *   the initial priority for the component use the cydwr file in the tool.
 211:.\Generated_Source\PSoC5/ADC_SAR_2_IRQ.c **** *
 212:.\Generated_Source\PSoC5/ADC_SAR_2_IRQ.c **** * Parameters:
 213:.\Generated_Source\PSoC5/ADC_SAR_2_IRQ.c **** *   priority: Priority of the interrupt. 0 - 7, 0 being the highest.
 214:.\Generated_Source\PSoC5/ADC_SAR_2_IRQ.c **** *
 215:.\Generated_Source\PSoC5/ADC_SAR_2_IRQ.c **** * Return:
 216:.\Generated_Source\PSoC5/ADC_SAR_2_IRQ.c **** *   None
 217:.\Generated_Source\PSoC5/ADC_SAR_2_IRQ.c **** *
 218:.\Generated_Source\PSoC5/ADC_SAR_2_IRQ.c **** *******************************************************************************/
 219:.\Generated_Source\PSoC5/ADC_SAR_2_IRQ.c **** void ADC_SAR_2_IRQ_SetPriority(uint8 priority)
 220:.\Generated_Source\PSoC5/ADC_SAR_2_IRQ.c **** {
 221:.\Generated_Source\PSoC5/ADC_SAR_2_IRQ.c ****     *ADC_SAR_2_IRQ_INTC_PRIOR = priority << 5;
 222:.\Generated_Source\PSoC5/ADC_SAR_2_IRQ.c **** }
 223:.\Generated_Source\PSoC5/ADC_SAR_2_IRQ.c **** 
 224:.\Generated_Source\PSoC5/ADC_SAR_2_IRQ.c **** 
 225:.\Generated_Source\PSoC5/ADC_SAR_2_IRQ.c **** /*******************************************************************************
 226:.\Generated_Source\PSoC5/ADC_SAR_2_IRQ.c **** * Function Name: ADC_SAR_2_IRQ_GetPriority
 227:.\Generated_Source\PSoC5/ADC_SAR_2_IRQ.c **** ********************************************************************************
 228:.\Generated_Source\PSoC5/ADC_SAR_2_IRQ.c **** *
 229:.\Generated_Source\PSoC5/ADC_SAR_2_IRQ.c **** * Summary:
 230:.\Generated_Source\PSoC5/ADC_SAR_2_IRQ.c **** *   Gets the Priority of the Interrupt.
 231:.\Generated_Source\PSoC5/ADC_SAR_2_IRQ.c **** *
 232:.\Generated_Source\PSoC5/ADC_SAR_2_IRQ.c **** * Parameters:
 233:.\Generated_Source\PSoC5/ADC_SAR_2_IRQ.c **** *   None
 234:.\Generated_Source\PSoC5/ADC_SAR_2_IRQ.c **** *
ARM GAS  C:\Users\Luke\AppData\Local\Temp\ccaCAa5m.s 			page 6


 235:.\Generated_Source\PSoC5/ADC_SAR_2_IRQ.c **** * Return:
 236:.\Generated_Source\PSoC5/ADC_SAR_2_IRQ.c **** *   Priority of the interrupt. 0 - 7, 0 being the highest.
 237:.\Generated_Source\PSoC5/ADC_SAR_2_IRQ.c **** *
 238:.\Generated_Source\PSoC5/ADC_SAR_2_IRQ.c **** *******************************************************************************/
 239:.\Generated_Source\PSoC5/ADC_SAR_2_IRQ.c **** uint8 ADC_SAR_2_IRQ_GetPriority(void)
 240:.\Generated_Source\PSoC5/ADC_SAR_2_IRQ.c **** {
 241:.\Generated_Source\PSoC5/ADC_SAR_2_IRQ.c ****     uint8 priority;
 242:.\Generated_Source\PSoC5/ADC_SAR_2_IRQ.c **** 
 243:.\Generated_Source\PSoC5/ADC_SAR_2_IRQ.c **** 
 244:.\Generated_Source\PSoC5/ADC_SAR_2_IRQ.c ****     priority = *ADC_SAR_2_IRQ_INTC_PRIOR >> 5;
 245:.\Generated_Source\PSoC5/ADC_SAR_2_IRQ.c **** 
 246:.\Generated_Source\PSoC5/ADC_SAR_2_IRQ.c ****     return priority;
 247:.\Generated_Source\PSoC5/ADC_SAR_2_IRQ.c **** }
 248:.\Generated_Source\PSoC5/ADC_SAR_2_IRQ.c **** 
 249:.\Generated_Source\PSoC5/ADC_SAR_2_IRQ.c **** 
 250:.\Generated_Source\PSoC5/ADC_SAR_2_IRQ.c **** /*******************************************************************************
 251:.\Generated_Source\PSoC5/ADC_SAR_2_IRQ.c **** * Function Name: ADC_SAR_2_IRQ_Enable
 252:.\Generated_Source\PSoC5/ADC_SAR_2_IRQ.c **** ********************************************************************************
 253:.\Generated_Source\PSoC5/ADC_SAR_2_IRQ.c **** *
 254:.\Generated_Source\PSoC5/ADC_SAR_2_IRQ.c **** * Summary:
 255:.\Generated_Source\PSoC5/ADC_SAR_2_IRQ.c **** *   Enables the interrupt.
 256:.\Generated_Source\PSoC5/ADC_SAR_2_IRQ.c **** *
 257:.\Generated_Source\PSoC5/ADC_SAR_2_IRQ.c **** * Parameters:
 258:.\Generated_Source\PSoC5/ADC_SAR_2_IRQ.c **** *   None
 259:.\Generated_Source\PSoC5/ADC_SAR_2_IRQ.c **** *
 260:.\Generated_Source\PSoC5/ADC_SAR_2_IRQ.c **** * Return:
 261:.\Generated_Source\PSoC5/ADC_SAR_2_IRQ.c **** *   None
 262:.\Generated_Source\PSoC5/ADC_SAR_2_IRQ.c **** *
 263:.\Generated_Source\PSoC5/ADC_SAR_2_IRQ.c **** *******************************************************************************/
 264:.\Generated_Source\PSoC5/ADC_SAR_2_IRQ.c **** void ADC_SAR_2_IRQ_Enable(void)
 265:.\Generated_Source\PSoC5/ADC_SAR_2_IRQ.c **** {
 266:.\Generated_Source\PSoC5/ADC_SAR_2_IRQ.c ****     /* Enable the general interrupt. */
 267:.\Generated_Source\PSoC5/ADC_SAR_2_IRQ.c ****     *ADC_SAR_2_IRQ_INTC_SET_EN = ADC_SAR_2_IRQ__INTC_MASK;
 268:.\Generated_Source\PSoC5/ADC_SAR_2_IRQ.c **** }
 269:.\Generated_Source\PSoC5/ADC_SAR_2_IRQ.c **** 
 270:.\Generated_Source\PSoC5/ADC_SAR_2_IRQ.c **** 
 271:.\Generated_Source\PSoC5/ADC_SAR_2_IRQ.c **** /*******************************************************************************
 272:.\Generated_Source\PSoC5/ADC_SAR_2_IRQ.c **** * Function Name: ADC_SAR_2_IRQ_GetState
 273:.\Generated_Source\PSoC5/ADC_SAR_2_IRQ.c **** ********************************************************************************
 274:.\Generated_Source\PSoC5/ADC_SAR_2_IRQ.c **** *
 275:.\Generated_Source\PSoC5/ADC_SAR_2_IRQ.c **** * Summary:
 276:.\Generated_Source\PSoC5/ADC_SAR_2_IRQ.c **** *   Gets the state (enabled, disabled) of the Interrupt.
 277:.\Generated_Source\PSoC5/ADC_SAR_2_IRQ.c **** *
 278:.\Generated_Source\PSoC5/ADC_SAR_2_IRQ.c **** * Parameters:
 279:.\Generated_Source\PSoC5/ADC_SAR_2_IRQ.c **** *   None
 280:.\Generated_Source\PSoC5/ADC_SAR_2_IRQ.c **** *
 281:.\Generated_Source\PSoC5/ADC_SAR_2_IRQ.c **** * Return:
 282:.\Generated_Source\PSoC5/ADC_SAR_2_IRQ.c **** *   1 if enabled, 0 if disabled.
 283:.\Generated_Source\PSoC5/ADC_SAR_2_IRQ.c **** *
 284:.\Generated_Source\PSoC5/ADC_SAR_2_IRQ.c **** *******************************************************************************/
 285:.\Generated_Source\PSoC5/ADC_SAR_2_IRQ.c **** uint8 ADC_SAR_2_IRQ_GetState(void)
 286:.\Generated_Source\PSoC5/ADC_SAR_2_IRQ.c **** {
 287:.\Generated_Source\PSoC5/ADC_SAR_2_IRQ.c ****     /* Get the state of the general interrupt. */
 288:.\Generated_Source\PSoC5/ADC_SAR_2_IRQ.c ****     return ((*ADC_SAR_2_IRQ_INTC_SET_EN & (uint32)ADC_SAR_2_IRQ__INTC_MASK) != 0u) ? 1u:0u;
 289:.\Generated_Source\PSoC5/ADC_SAR_2_IRQ.c **** }
 290:.\Generated_Source\PSoC5/ADC_SAR_2_IRQ.c **** 
 291:.\Generated_Source\PSoC5/ADC_SAR_2_IRQ.c **** 
ARM GAS  C:\Users\Luke\AppData\Local\Temp\ccaCAa5m.s 			page 7


 292:.\Generated_Source\PSoC5/ADC_SAR_2_IRQ.c **** /*******************************************************************************
 293:.\Generated_Source\PSoC5/ADC_SAR_2_IRQ.c **** * Function Name: ADC_SAR_2_IRQ_Disable
 294:.\Generated_Source\PSoC5/ADC_SAR_2_IRQ.c **** ********************************************************************************
 295:.\Generated_Source\PSoC5/ADC_SAR_2_IRQ.c **** *
 296:.\Generated_Source\PSoC5/ADC_SAR_2_IRQ.c **** * Summary:
 297:.\Generated_Source\PSoC5/ADC_SAR_2_IRQ.c **** *   Disables the Interrupt.
 298:.\Generated_Source\PSoC5/ADC_SAR_2_IRQ.c **** *
 299:.\Generated_Source\PSoC5/ADC_SAR_2_IRQ.c **** * Parameters:
 300:.\Generated_Source\PSoC5/ADC_SAR_2_IRQ.c **** *   None
 301:.\Generated_Source\PSoC5/ADC_SAR_2_IRQ.c **** *
 302:.\Generated_Source\PSoC5/ADC_SAR_2_IRQ.c **** * Return:
 303:.\Generated_Source\PSoC5/ADC_SAR_2_IRQ.c **** *   None
 304:.\Generated_Source\PSoC5/ADC_SAR_2_IRQ.c **** *
 305:.\Generated_Source\PSoC5/ADC_SAR_2_IRQ.c **** *******************************************************************************/
 306:.\Generated_Source\PSoC5/ADC_SAR_2_IRQ.c **** void ADC_SAR_2_IRQ_Disable(void)
 307:.\Generated_Source\PSoC5/ADC_SAR_2_IRQ.c **** {
 308:.\Generated_Source\PSoC5/ADC_SAR_2_IRQ.c ****     /* Disable the general interrupt. */
 309:.\Generated_Source\PSoC5/ADC_SAR_2_IRQ.c ****     *ADC_SAR_2_IRQ_INTC_CLR_EN = ADC_SAR_2_IRQ__INTC_MASK;
  51              		.loc 1 309 0
  52 0000 064A     		ldr	r2, .L3
  53              	.LBE23:
  54              	.LBE22:
  55              	.LBB25:
  56              	.LBB26:
 171:.\Generated_Source\PSoC5/ADC_SAR_2_IRQ.c ****     ramVectorTable = (cyisraddress *) *CYINT_VECT_TABLE;
  57              		.loc 1 171 0
  58 0002 0748     		ldr	r0, .L3+4
  59              	.LBE26:
  60              	.LBE25:
  61              	.LBB29:
  62              	.LBB24:
  63              		.loc 1 309 0
  64 0004 0423     		movs	r3, #4
  65 0006 1360     		str	r3, [r2, #0]
  66              	.LVL0:
  67              	.LBE24:
  68              	.LBE29:
  69              	.LBB30:
  70              	.LBB27:
 173:.\Generated_Source\PSoC5/ADC_SAR_2_IRQ.c ****     ramVectorTable[CYINT_IRQ_BASE + (uint32)ADC_SAR_2_IRQ__INTC_NUMBER] = address;
  71              		.loc 1 173 0
  72 0008 0649     		ldr	r1, .L3+8
 171:.\Generated_Source\PSoC5/ADC_SAR_2_IRQ.c ****     ramVectorTable = (cyisraddress *) *CYINT_VECT_TABLE;
  73              		.loc 1 171 0
  74 000a 0268     		ldr	r2, [r0, #0]
  75              	.LVL1:
  76              	.LBE27:
  77              	.LBE30:
  78              	.LBB31:
  79              	.LBB32:
 221:.\Generated_Source\PSoC5/ADC_SAR_2_IRQ.c ****     *ADC_SAR_2_IRQ_INTC_PRIOR = priority << 5;
  80              		.loc 1 221 0
  81 000c E020     		movs	r0, #224
  82              	.LBE32:
  83              	.LBE31:
  84              	.LBB35:
  85              	.LBB28:
ARM GAS  C:\Users\Luke\AppData\Local\Temp\ccaCAa5m.s 			page 8


 173:.\Generated_Source\PSoC5/ADC_SAR_2_IRQ.c ****     ramVectorTable[CYINT_IRQ_BASE + (uint32)ADC_SAR_2_IRQ__INTC_NUMBER] = address;
  86              		.loc 1 173 0
  87 000e 9164     		str	r1, [r2, #72]
  88              	.LVL2:
  89              	.LBE28:
  90              	.LBE35:
  91              	.LBB36:
  92              	.LBB33:
 221:.\Generated_Source\PSoC5/ADC_SAR_2_IRQ.c ****     *ADC_SAR_2_IRQ_INTC_PRIOR = priority << 5;
  93              		.loc 1 221 0
  94 0010 054A     		ldr	r2, .L3+12
  95              	.LVL3:
  96              	.LBE33:
  97              	.LBE36:
  98              	.LBB37:
  99              	.LBB38:
 267:.\Generated_Source\PSoC5/ADC_SAR_2_IRQ.c ****     *ADC_SAR_2_IRQ_INTC_SET_EN = ADC_SAR_2_IRQ__INTC_MASK;
 100              		.loc 1 267 0
 101 0012 0649     		ldr	r1, .L3+16
 102              	.LBE38:
 103              	.LBE37:
 104              	.LBB40:
 105              	.LBB34:
 221:.\Generated_Source\PSoC5/ADC_SAR_2_IRQ.c ****     *ADC_SAR_2_IRQ_INTC_PRIOR = priority << 5;
 106              		.loc 1 221 0
 107 0014 1070     		strb	r0, [r2, #0]
 108              	.LBE34:
 109              	.LBE40:
 110              	.LBB41:
 111              	.LBB39:
 267:.\Generated_Source\PSoC5/ADC_SAR_2_IRQ.c ****     *ADC_SAR_2_IRQ_INTC_SET_EN = ADC_SAR_2_IRQ__INTC_MASK;
 112              		.loc 1 267 0
 113 0016 0B60     		str	r3, [r1, #0]
 114 0018 7047     		bx	lr
 115              	.L4:
 116 001a 00BF     		.align	2
 117              	.L3:
 118 001c 80E100E0 		.word	-536813184
 119 0020 08ED00E0 		.word	-536810232
 120 0024 00000000 		.word	ADC_SAR_2_IRQ_Interrupt
 121 0028 02E400E0 		.word	-536812542
 122 002c 00E100E0 		.word	-536813312
 123              	.LBE39:
 124              	.LBE41:
 125              		.cfi_endproc
 126              	.LFE0:
 127              		.size	ADC_SAR_2_IRQ_Start, .-ADC_SAR_2_IRQ_Start
 128              		.section	.text.ADC_SAR_2_IRQ_StartEx,"ax",%progbits
 129              		.align	1
 130              		.global	ADC_SAR_2_IRQ_StartEx
 131              		.thumb
 132              		.thumb_func
 133              		.type	ADC_SAR_2_IRQ_StartEx, %function
 134              	ADC_SAR_2_IRQ_StartEx:
 135              	.LFB1:
  88:.\Generated_Source\PSoC5/ADC_SAR_2_IRQ.c **** {
 136              		.loc 1 88 0
ARM GAS  C:\Users\Luke\AppData\Local\Temp\ccaCAa5m.s 			page 9


 137              		.cfi_startproc
 138              		@ args = 0, pretend = 0, frame = 0
 139              		@ frame_needed = 0, uses_anonymous_args = 0
 140              		@ link register save eliminated.
 141              	.LVL4:
 142              	.LBB42:
 143              	.LBB43:
 144              		.loc 1 309 0
 145 0000 054A     		ldr	r2, .L6
 146              	.LBE43:
 147              	.LBE42:
 148              	.LBB45:
 149              	.LBB46:
 171:.\Generated_Source\PSoC5/ADC_SAR_2_IRQ.c ****     ramVectorTable = (cyisraddress *) *CYINT_VECT_TABLE;
 150              		.loc 1 171 0
 151 0002 0649     		ldr	r1, .L6+4
 152              	.LBE46:
 153              	.LBE45:
 154              	.LBB49:
 155              	.LBB44:
 156              		.loc 1 309 0
 157 0004 0423     		movs	r3, #4
 158 0006 1360     		str	r3, [r2, #0]
 159              	.LVL5:
 160              	.LBE44:
 161              	.LBE49:
 162              	.LBB50:
 163              	.LBB47:
 171:.\Generated_Source\PSoC5/ADC_SAR_2_IRQ.c ****     ramVectorTable = (cyisraddress *) *CYINT_VECT_TABLE;
 164              		.loc 1 171 0
 165 0008 0A68     		ldr	r2, [r1, #0]
 166              	.LVL6:
 167              	.LBE47:
 168              	.LBE50:
 169              	.LBB51:
 170              	.LBB52:
 221:.\Generated_Source\PSoC5/ADC_SAR_2_IRQ.c ****     *ADC_SAR_2_IRQ_INTC_PRIOR = priority << 5;
 171              		.loc 1 221 0
 172 000a 0549     		ldr	r1, .L6+8
 173              	.LBE52:
 174              	.LBE51:
 175              	.LBB54:
 176              	.LBB48:
 173:.\Generated_Source\PSoC5/ADC_SAR_2_IRQ.c ****     ramVectorTable[CYINT_IRQ_BASE + (uint32)ADC_SAR_2_IRQ__INTC_NUMBER] = address;
 177              		.loc 1 173 0
 178 000c 9064     		str	r0, [r2, #72]
 179              	.LVL7:
 180              	.LBE48:
 181              	.LBE54:
 182              	.LBB55:
 183              	.LBB56:
 267:.\Generated_Source\PSoC5/ADC_SAR_2_IRQ.c ****     *ADC_SAR_2_IRQ_INTC_SET_EN = ADC_SAR_2_IRQ__INTC_MASK;
 184              		.loc 1 267 0
 185 000e 054A     		ldr	r2, .L6+12
 186              	.LVL8:
 187              	.LBE56:
 188              	.LBE55:
ARM GAS  C:\Users\Luke\AppData\Local\Temp\ccaCAa5m.s 			page 10


 189              	.LBB58:
 190              	.LBB53:
 221:.\Generated_Source\PSoC5/ADC_SAR_2_IRQ.c ****     *ADC_SAR_2_IRQ_INTC_PRIOR = priority << 5;
 191              		.loc 1 221 0
 192 0010 E020     		movs	r0, #224
 193              	.LVL9:
 194 0012 0870     		strb	r0, [r1, #0]
 195              	.LBE53:
 196              	.LBE58:
 197              	.LBB59:
 198              	.LBB57:
 267:.\Generated_Source\PSoC5/ADC_SAR_2_IRQ.c ****     *ADC_SAR_2_IRQ_INTC_SET_EN = ADC_SAR_2_IRQ__INTC_MASK;
 199              		.loc 1 267 0
 200 0014 1360     		str	r3, [r2, #0]
 201 0016 7047     		bx	lr
 202              	.L7:
 203              		.align	2
 204              	.L6:
 205 0018 80E100E0 		.word	-536813184
 206 001c 08ED00E0 		.word	-536810232
 207 0020 02E400E0 		.word	-536812542
 208 0024 00E100E0 		.word	-536813312
 209              	.LBE57:
 210              	.LBE59:
 211              		.cfi_endproc
 212              	.LFE1:
 213              		.size	ADC_SAR_2_IRQ_StartEx, .-ADC_SAR_2_IRQ_StartEx
 214              		.section	.text.ADC_SAR_2_IRQ_Stop,"ax",%progbits
 215              		.align	1
 216              		.global	ADC_SAR_2_IRQ_Stop
 217              		.thumb
 218              		.thumb_func
 219              		.type	ADC_SAR_2_IRQ_Stop, %function
 220              	ADC_SAR_2_IRQ_Stop:
 221              	.LFB2:
 117:.\Generated_Source\PSoC5/ADC_SAR_2_IRQ.c **** {
 222              		.loc 1 117 0
 223              		.cfi_startproc
 224              		@ args = 0, pretend = 0, frame = 0
 225              		@ frame_needed = 0, uses_anonymous_args = 0
 226              		@ link register save eliminated.
 227              	.LBB60:
 228              	.LBB61:
 229              		.loc 1 309 0
 230 0000 034B     		ldr	r3, .L9
 231              	.LBE61:
 232              	.LBE60:
 233              	.LBB63:
 234              	.LBB64:
 171:.\Generated_Source\PSoC5/ADC_SAR_2_IRQ.c ****     ramVectorTable = (cyisraddress *) *CYINT_VECT_TABLE;
 235              		.loc 1 171 0
 236 0002 0448     		ldr	r0, .L9+4
 237              	.LBE64:
 238              	.LBE63:
 239              	.LBB66:
 240              	.LBB62:
 241              		.loc 1 309 0
ARM GAS  C:\Users\Luke\AppData\Local\Temp\ccaCAa5m.s 			page 11


 242 0004 0422     		movs	r2, #4
 243 0006 1A60     		str	r2, [r3, #0]
 244              	.LVL10:
 245              	.LBE62:
 246              	.LBE66:
 247              	.LBB67:
 248              	.LBB65:
 171:.\Generated_Source\PSoC5/ADC_SAR_2_IRQ.c ****     ramVectorTable = (cyisraddress *) *CYINT_VECT_TABLE;
 249              		.loc 1 171 0
 250 0008 0168     		ldr	r1, [r0, #0]
 251              	.LVL11:
 173:.\Generated_Source\PSoC5/ADC_SAR_2_IRQ.c ****     ramVectorTable[CYINT_IRQ_BASE + (uint32)ADC_SAR_2_IRQ__INTC_NUMBER] = address;
 252              		.loc 1 173 0
 253 000a 034A     		ldr	r2, .L9+8
 254 000c 8A64     		str	r2, [r1, #72]
 255 000e 7047     		bx	lr
 256              	.L10:
 257              		.align	2
 258              	.L9:
 259 0010 80E100E0 		.word	-536813184
 260 0014 08ED00E0 		.word	-536810232
 261 0018 00000000 		.word	IntDefaultHandler
 262              	.LBE65:
 263              	.LBE67:
 264              		.cfi_endproc
 265              	.LFE2:
 266              		.size	ADC_SAR_2_IRQ_Stop, .-ADC_SAR_2_IRQ_Stop
 267              		.section	.text.ADC_SAR_2_IRQ_SetVector,"ax",%progbits
 268              		.align	1
 269              		.global	ADC_SAR_2_IRQ_SetVector
 270              		.thumb
 271              		.thumb_func
 272              		.type	ADC_SAR_2_IRQ_SetVector, %function
 273              	ADC_SAR_2_IRQ_SetVector:
 274              	.LFB4:
 168:.\Generated_Source\PSoC5/ADC_SAR_2_IRQ.c **** {
 275              		.loc 1 168 0
 276              		.cfi_startproc
 277              		@ args = 0, pretend = 0, frame = 0
 278              		@ frame_needed = 0, uses_anonymous_args = 0
 279              		@ link register save eliminated.
 280              	.LVL12:
 171:.\Generated_Source\PSoC5/ADC_SAR_2_IRQ.c ****     ramVectorTable = (cyisraddress *) *CYINT_VECT_TABLE;
 281              		.loc 1 171 0
 282 0000 014B     		ldr	r3, .L12
 283 0002 1968     		ldr	r1, [r3, #0]
 284              	.LVL13:
 173:.\Generated_Source\PSoC5/ADC_SAR_2_IRQ.c ****     ramVectorTable[CYINT_IRQ_BASE + (uint32)ADC_SAR_2_IRQ__INTC_NUMBER] = address;
 285              		.loc 1 173 0
 286 0004 8864     		str	r0, [r1, #72]
 287 0006 7047     		bx	lr
 288              	.L13:
 289              		.align	2
 290              	.L12:
 291 0008 08ED00E0 		.word	-536810232
 292              		.cfi_endproc
 293              	.LFE4:
ARM GAS  C:\Users\Luke\AppData\Local\Temp\ccaCAa5m.s 			page 12


 294              		.size	ADC_SAR_2_IRQ_SetVector, .-ADC_SAR_2_IRQ_SetVector
 295              		.section	.text.ADC_SAR_2_IRQ_GetVector,"ax",%progbits
 296              		.align	1
 297              		.global	ADC_SAR_2_IRQ_GetVector
 298              		.thumb
 299              		.thumb_func
 300              		.type	ADC_SAR_2_IRQ_GetVector, %function
 301              	ADC_SAR_2_IRQ_GetVector:
 302              	.LFB5:
 192:.\Generated_Source\PSoC5/ADC_SAR_2_IRQ.c **** {
 303              		.loc 1 192 0
 304              		.cfi_startproc
 305              		@ args = 0, pretend = 0, frame = 0
 306              		@ frame_needed = 0, uses_anonymous_args = 0
 307              		@ link register save eliminated.
 308              	.LVL14:
 195:.\Generated_Source\PSoC5/ADC_SAR_2_IRQ.c ****     ramVectorTable = (cyisraddress *) *CYINT_VECT_TABLE;
 309              		.loc 1 195 0
 310 0000 014B     		ldr	r3, .L15
 311              	.LVL15:
 197:.\Generated_Source\PSoC5/ADC_SAR_2_IRQ.c ****     return ramVectorTable[CYINT_IRQ_BASE + (uint32)ADC_SAR_2_IRQ__INTC_NUMBER];
 312              		.loc 1 197 0
 313 0002 1868     		ldr	r0, [r3, #0]
 198:.\Generated_Source\PSoC5/ADC_SAR_2_IRQ.c **** }
 314              		.loc 1 198 0
 315 0004 806C     		ldr	r0, [r0, #72]
 316 0006 7047     		bx	lr
 317              	.L16:
 318              		.align	2
 319              	.L15:
 320 0008 08ED00E0 		.word	-536810232
 321              		.cfi_endproc
 322              	.LFE5:
 323              		.size	ADC_SAR_2_IRQ_GetVector, .-ADC_SAR_2_IRQ_GetVector
 324              		.section	.text.ADC_SAR_2_IRQ_SetPriority,"ax",%progbits
 325              		.align	1
 326              		.global	ADC_SAR_2_IRQ_SetPriority
 327              		.thumb
 328              		.thumb_func
 329              		.type	ADC_SAR_2_IRQ_SetPriority, %function
 330              	ADC_SAR_2_IRQ_SetPriority:
 331              	.LFB6:
 220:.\Generated_Source\PSoC5/ADC_SAR_2_IRQ.c **** {
 332              		.loc 1 220 0
 333              		.cfi_startproc
 334              		@ args = 0, pretend = 0, frame = 0
 335              		@ frame_needed = 0, uses_anonymous_args = 0
 336              		@ link register save eliminated.
 337              	.LVL16:
 221:.\Generated_Source\PSoC5/ADC_SAR_2_IRQ.c ****     *ADC_SAR_2_IRQ_INTC_PRIOR = priority << 5;
 338              		.loc 1 221 0
 339 0000 4001     		lsls	r0, r0, #5
 340              	.LVL17:
 341 0002 024B     		ldr	r3, .L18
 342 0004 C1B2     		uxtb	r1, r0
 343 0006 1970     		strb	r1, [r3, #0]
 344 0008 7047     		bx	lr
ARM GAS  C:\Users\Luke\AppData\Local\Temp\ccaCAa5m.s 			page 13


 345              	.L19:
 346 000a 00BF     		.align	2
 347              	.L18:
 348 000c 02E400E0 		.word	-536812542
 349              		.cfi_endproc
 350              	.LFE6:
 351              		.size	ADC_SAR_2_IRQ_SetPriority, .-ADC_SAR_2_IRQ_SetPriority
 352              		.section	.text.ADC_SAR_2_IRQ_GetPriority,"ax",%progbits
 353              		.align	1
 354              		.global	ADC_SAR_2_IRQ_GetPriority
 355              		.thumb
 356              		.thumb_func
 357              		.type	ADC_SAR_2_IRQ_GetPriority, %function
 358              	ADC_SAR_2_IRQ_GetPriority:
 359              	.LFB7:
 240:.\Generated_Source\PSoC5/ADC_SAR_2_IRQ.c **** {
 360              		.loc 1 240 0
 361              		.cfi_startproc
 362              		@ args = 0, pretend = 0, frame = 0
 363              		@ frame_needed = 0, uses_anonymous_args = 0
 364              		@ link register save eliminated.
 244:.\Generated_Source\PSoC5/ADC_SAR_2_IRQ.c ****     priority = *ADC_SAR_2_IRQ_INTC_PRIOR >> 5;
 365              		.loc 1 244 0
 366 0000 014B     		ldr	r3, .L21
 367 0002 1878     		ldrb	r0, [r3, #0]	@ zero_extendqisi2
 368              	.LVL18:
 247:.\Generated_Source\PSoC5/ADC_SAR_2_IRQ.c **** }
 369              		.loc 1 247 0
 370 0004 4009     		lsrs	r0, r0, #5
 371              	.LVL19:
 372 0006 7047     		bx	lr
 373              	.L22:
 374              		.align	2
 375              	.L21:
 376 0008 02E400E0 		.word	-536812542
 377              		.cfi_endproc
 378              	.LFE7:
 379              		.size	ADC_SAR_2_IRQ_GetPriority, .-ADC_SAR_2_IRQ_GetPriority
 380              		.section	.text.ADC_SAR_2_IRQ_Enable,"ax",%progbits
 381              		.align	1
 382              		.global	ADC_SAR_2_IRQ_Enable
 383              		.thumb
 384              		.thumb_func
 385              		.type	ADC_SAR_2_IRQ_Enable, %function
 386              	ADC_SAR_2_IRQ_Enable:
 387              	.LFB8:
 265:.\Generated_Source\PSoC5/ADC_SAR_2_IRQ.c **** {
 388              		.loc 1 265 0
 389              		.cfi_startproc
 390              		@ args = 0, pretend = 0, frame = 0
 391              		@ frame_needed = 0, uses_anonymous_args = 0
 392              		@ link register save eliminated.
 267:.\Generated_Source\PSoC5/ADC_SAR_2_IRQ.c ****     *ADC_SAR_2_IRQ_INTC_SET_EN = ADC_SAR_2_IRQ__INTC_MASK;
 393              		.loc 1 267 0
 394 0000 014B     		ldr	r3, .L24
 395 0002 0422     		movs	r2, #4
 396 0004 1A60     		str	r2, [r3, #0]
ARM GAS  C:\Users\Luke\AppData\Local\Temp\ccaCAa5m.s 			page 14


 397 0006 7047     		bx	lr
 398              	.L25:
 399              		.align	2
 400              	.L24:
 401 0008 00E100E0 		.word	-536813312
 402              		.cfi_endproc
 403              	.LFE8:
 404              		.size	ADC_SAR_2_IRQ_Enable, .-ADC_SAR_2_IRQ_Enable
 405              		.section	.text.ADC_SAR_2_IRQ_GetState,"ax",%progbits
 406              		.align	1
 407              		.global	ADC_SAR_2_IRQ_GetState
 408              		.thumb
 409              		.thumb_func
 410              		.type	ADC_SAR_2_IRQ_GetState, %function
 411              	ADC_SAR_2_IRQ_GetState:
 412              	.LFB9:
 286:.\Generated_Source\PSoC5/ADC_SAR_2_IRQ.c **** {
 413              		.loc 1 286 0
 414              		.cfi_startproc
 415              		@ args = 0, pretend = 0, frame = 0
 416              		@ frame_needed = 0, uses_anonymous_args = 0
 417              		@ link register save eliminated.
 288:.\Generated_Source\PSoC5/ADC_SAR_2_IRQ.c ****     return ((*ADC_SAR_2_IRQ_INTC_SET_EN & (uint32)ADC_SAR_2_IRQ__INTC_MASK) != 0u) ? 1u:0u;
 418              		.loc 1 288 0
 419 0000 024B     		ldr	r3, .L27
 420 0002 1868     		ldr	r0, [r3, #0]
 289:.\Generated_Source\PSoC5/ADC_SAR_2_IRQ.c **** }
 421              		.loc 1 289 0
 422 0004 C0F38000 		ubfx	r0, r0, #2, #1
 423 0008 7047     		bx	lr
 424              	.L28:
 425 000a 00BF     		.align	2
 426              	.L27:
 427 000c 00E100E0 		.word	-536813312
 428              		.cfi_endproc
 429              	.LFE9:
 430              		.size	ADC_SAR_2_IRQ_GetState, .-ADC_SAR_2_IRQ_GetState
 431              		.section	.text.ADC_SAR_2_IRQ_Disable,"ax",%progbits
 432              		.align	1
 433              		.global	ADC_SAR_2_IRQ_Disable
 434              		.thumb
 435              		.thumb_func
 436              		.type	ADC_SAR_2_IRQ_Disable, %function
 437              	ADC_SAR_2_IRQ_Disable:
 438              	.LFB10:
 307:.\Generated_Source\PSoC5/ADC_SAR_2_IRQ.c **** {
 439              		.loc 1 307 0
 440              		.cfi_startproc
 441              		@ args = 0, pretend = 0, frame = 0
 442              		@ frame_needed = 0, uses_anonymous_args = 0
 443              		@ link register save eliminated.
 444              		.loc 1 309 0
 445 0000 014B     		ldr	r3, .L30
 446 0002 0422     		movs	r2, #4
 447 0004 1A60     		str	r2, [r3, #0]
 448 0006 7047     		bx	lr
 449              	.L31:
ARM GAS  C:\Users\Luke\AppData\Local\Temp\ccaCAa5m.s 			page 15


 450              		.align	2
 451              	.L30:
 452 0008 80E100E0 		.word	-536813184
 453              		.cfi_endproc
 454              	.LFE10:
 455              		.size	ADC_SAR_2_IRQ_Disable, .-ADC_SAR_2_IRQ_Disable
 456              		.section	.text.ADC_SAR_2_IRQ_SetPending,"ax",%progbits
 457              		.align	1
 458              		.global	ADC_SAR_2_IRQ_SetPending
 459              		.thumb
 460              		.thumb_func
 461              		.type	ADC_SAR_2_IRQ_SetPending, %function
 462              	ADC_SAR_2_IRQ_SetPending:
 463              	.LFB11:
 310:.\Generated_Source\PSoC5/ADC_SAR_2_IRQ.c **** }
 311:.\Generated_Source\PSoC5/ADC_SAR_2_IRQ.c **** 
 312:.\Generated_Source\PSoC5/ADC_SAR_2_IRQ.c **** 
 313:.\Generated_Source\PSoC5/ADC_SAR_2_IRQ.c **** /*******************************************************************************
 314:.\Generated_Source\PSoC5/ADC_SAR_2_IRQ.c **** * Function Name: ADC_SAR_2_IRQ_SetPending
 315:.\Generated_Source\PSoC5/ADC_SAR_2_IRQ.c **** ********************************************************************************
 316:.\Generated_Source\PSoC5/ADC_SAR_2_IRQ.c **** *
 317:.\Generated_Source\PSoC5/ADC_SAR_2_IRQ.c **** * Summary:
 318:.\Generated_Source\PSoC5/ADC_SAR_2_IRQ.c **** *   Causes the Interrupt to enter the pending state, a software method of
 319:.\Generated_Source\PSoC5/ADC_SAR_2_IRQ.c **** *   generating the interrupt.
 320:.\Generated_Source\PSoC5/ADC_SAR_2_IRQ.c **** *
 321:.\Generated_Source\PSoC5/ADC_SAR_2_IRQ.c **** * Parameters:
 322:.\Generated_Source\PSoC5/ADC_SAR_2_IRQ.c **** *   None
 323:.\Generated_Source\PSoC5/ADC_SAR_2_IRQ.c **** *
 324:.\Generated_Source\PSoC5/ADC_SAR_2_IRQ.c **** * Return:
 325:.\Generated_Source\PSoC5/ADC_SAR_2_IRQ.c **** *   None
 326:.\Generated_Source\PSoC5/ADC_SAR_2_IRQ.c **** *
 327:.\Generated_Source\PSoC5/ADC_SAR_2_IRQ.c **** *******************************************************************************/
 328:.\Generated_Source\PSoC5/ADC_SAR_2_IRQ.c **** void ADC_SAR_2_IRQ_SetPending(void)
 329:.\Generated_Source\PSoC5/ADC_SAR_2_IRQ.c **** {
 464              		.loc 1 329 0
 465              		.cfi_startproc
 466              		@ args = 0, pretend = 0, frame = 0
 467              		@ frame_needed = 0, uses_anonymous_args = 0
 468              		@ link register save eliminated.
 330:.\Generated_Source\PSoC5/ADC_SAR_2_IRQ.c ****     *ADC_SAR_2_IRQ_INTC_SET_PD = ADC_SAR_2_IRQ__INTC_MASK;
 469              		.loc 1 330 0
 470 0000 014B     		ldr	r3, .L33
 471 0002 0422     		movs	r2, #4
 472 0004 1A60     		str	r2, [r3, #0]
 473 0006 7047     		bx	lr
 474              	.L34:
 475              		.align	2
 476              	.L33:
 477 0008 00E200E0 		.word	-536813056
 478              		.cfi_endproc
 479              	.LFE11:
 480              		.size	ADC_SAR_2_IRQ_SetPending, .-ADC_SAR_2_IRQ_SetPending
 481              		.section	.text.ADC_SAR_2_IRQ_ClearPending,"ax",%progbits
 482              		.align	1
 483              		.global	ADC_SAR_2_IRQ_ClearPending
 484              		.thumb
 485              		.thumb_func
ARM GAS  C:\Users\Luke\AppData\Local\Temp\ccaCAa5m.s 			page 16


 486              		.type	ADC_SAR_2_IRQ_ClearPending, %function
 487              	ADC_SAR_2_IRQ_ClearPending:
 488              	.LFB12:
 331:.\Generated_Source\PSoC5/ADC_SAR_2_IRQ.c **** }
 332:.\Generated_Source\PSoC5/ADC_SAR_2_IRQ.c **** 
 333:.\Generated_Source\PSoC5/ADC_SAR_2_IRQ.c **** 
 334:.\Generated_Source\PSoC5/ADC_SAR_2_IRQ.c **** /*******************************************************************************
 335:.\Generated_Source\PSoC5/ADC_SAR_2_IRQ.c **** * Function Name: ADC_SAR_2_IRQ_ClearPending
 336:.\Generated_Source\PSoC5/ADC_SAR_2_IRQ.c **** ********************************************************************************
 337:.\Generated_Source\PSoC5/ADC_SAR_2_IRQ.c **** *
 338:.\Generated_Source\PSoC5/ADC_SAR_2_IRQ.c **** * Summary:
 339:.\Generated_Source\PSoC5/ADC_SAR_2_IRQ.c **** *   Clears a pending interrupt.
 340:.\Generated_Source\PSoC5/ADC_SAR_2_IRQ.c **** *
 341:.\Generated_Source\PSoC5/ADC_SAR_2_IRQ.c **** * Parameters:
 342:.\Generated_Source\PSoC5/ADC_SAR_2_IRQ.c **** *   None
 343:.\Generated_Source\PSoC5/ADC_SAR_2_IRQ.c **** *
 344:.\Generated_Source\PSoC5/ADC_SAR_2_IRQ.c **** * Return:
 345:.\Generated_Source\PSoC5/ADC_SAR_2_IRQ.c **** *   None
 346:.\Generated_Source\PSoC5/ADC_SAR_2_IRQ.c **** *
 347:.\Generated_Source\PSoC5/ADC_SAR_2_IRQ.c **** *******************************************************************************/
 348:.\Generated_Source\PSoC5/ADC_SAR_2_IRQ.c **** void ADC_SAR_2_IRQ_ClearPending(void)
 349:.\Generated_Source\PSoC5/ADC_SAR_2_IRQ.c **** {
 489              		.loc 1 349 0
 490              		.cfi_startproc
 491              		@ args = 0, pretend = 0, frame = 0
 492              		@ frame_needed = 0, uses_anonymous_args = 0
 493              		@ link register save eliminated.
 350:.\Generated_Source\PSoC5/ADC_SAR_2_IRQ.c ****     *ADC_SAR_2_IRQ_INTC_CLR_PD = ADC_SAR_2_IRQ__INTC_MASK;
 494              		.loc 1 350 0
 495 0000 014B     		ldr	r3, .L36
 496 0002 0422     		movs	r2, #4
 497 0004 1A60     		str	r2, [r3, #0]
 498 0006 7047     		bx	lr
 499              	.L37:
 500              		.align	2
 501              	.L36:
 502 0008 80E200E0 		.word	-536812928
 503              		.cfi_endproc
 504              	.LFE12:
 505              		.size	ADC_SAR_2_IRQ_ClearPending, .-ADC_SAR_2_IRQ_ClearPending
 506              		.text
 507              	.Letext0:
 508              		.file 2 "./Generated_Source/PSoC5/cytypes.h"