ARM GAS  C:\Users\Luke\AppData\Local\Temp\ccde8Z2y.s 			page 1


   1              		.syntax unified
   2              		.cpu cortex-m3
   3              		.fpu softvfp
   4              		.eabi_attribute 20, 1
   5              		.eabi_attribute 21, 1
   6              		.eabi_attribute 23, 3
   7              		.eabi_attribute 24, 1
   8              		.eabi_attribute 25, 1
   9              		.eabi_attribute 26, 1
  10              		.eabi_attribute 30, 4
  11              		.eabi_attribute 34, 1
  12              		.eabi_attribute 18, 4
  13              		.thumb
  14              		.file	"cli.c"
  15              		.text
  16              	.Ltext0:
  17              		.cfi_sections	.debug_frame
  18              		.section	.text.i2a,"ax",%progbits
  19              		.align	1
  20              		.thumb
  21              		.thumb_func
  22              		.type	i2a, %function
  23              	i2a:
  24              	.LFB56:
  25              		.file 1 ".\\cli.c"
   1:.\cli.c       **** #include "cli.h"
   2:.\cli.c       **** #include "pid.h"
   3:.\cli.c       **** #include <stdio.h>
   4:.\cli.c       **** #include <stdint.h>
   5:.\cli.c       **** #include <stdlib.h>
   6:.\cli.c       **** #include "device.h"
   7:.\cli.c       **** 
   8:.\cli.c       **** // we unset this on 'exit'
   9:.\cli.c       **** extern uint8_t cliMode;
  10:.\cli.c       **** static void cliDefaults(char *cmdline);
  11:.\cli.c       **** static void cliExit(char *cmdline);
  12:.\cli.c       **** static void cliHelp(char *cmdline);
  13:.\cli.c       **** static void cliSave(char *cmdline);
  14:.\cli.c       **** static void cliSet(char *cmdline);
  15:.\cli.c       **** static void cliStatus(char *cmdline);
  16:.\cli.c       **** 
  17:.\cli.c       **** // from main.c
  18:.\cli.c       **** extern pid pid1;
  19:.\cli.c       **** extern uint16_t setpoint;
  20:.\cli.c       **** extern float Temperature;
  21:.\cli.c       **** extern uint32_t eventcounter;
  22:.\cli.c       **** 
  23:.\cli.c       **** // buffer
  24:.\cli.c       **** static char cliBuffer[48];
  25:.\cli.c       **** static uint32_t bufferIndex = 0;
  26:.\cli.c       **** 
  27:.\cli.c       **** static float _atof(const char *p);
  28:.\cli.c       **** static char *ftoa(float x, char *floatString);
  29:.\cli.c       **** 
  30:.\cli.c       **** 
  31:.\cli.c       **** typedef struct {
  32:.\cli.c       ****     const char *name;
ARM GAS  C:\Users\Luke\AppData\Local\Temp\ccde8Z2y.s 			page 2


  33:.\cli.c       ****     const char *param;
  34:.\cli.c       ****     void (*func)(char *cmdline);
  35:.\cli.c       **** } clicmd_t;
  36:.\cli.c       **** 
  37:.\cli.c       **** // should be sorted a..z for bsearch()
  38:.\cli.c       **** const clicmd_t cmdTable[] = {
  39:.\cli.c       ****     { "defaults", "reset to defaults and reboot", cliDefaults },
  40:.\cli.c       ****     { "exit", "", cliExit },
  41:.\cli.c       ****     { "help", "", cliHelp },
  42:.\cli.c       ****     { "save", "save and reboot", cliSave },
  43:.\cli.c       ****     { "set", "name=value or blank or * for list", cliSet },
  44:.\cli.c       ****     { "status", "show system status", cliStatus },
  45:.\cli.c       **** };
  46:.\cli.c       **** #define CMD_COUNT (sizeof(cmdTable) / sizeof(clicmd_t))
  47:.\cli.c       **** 
  48:.\cli.c       **** typedef enum {
  49:.\cli.c       ****     VAR_UINT8,
  50:.\cli.c       ****     VAR_INT8,
  51:.\cli.c       ****     VAR_UINT16,
  52:.\cli.c       ****     VAR_INT16,
  53:.\cli.c       ****     VAR_UINT32,
  54:.\cli.c       ****     VAR_FLOAT
  55:.\cli.c       **** } vartype_e;
  56:.\cli.c       **** 
  57:.\cli.c       **** typedef struct {
  58:.\cli.c       ****     const char *name;
  59:.\cli.c       ****     const uint8_t type; // vartype_e
  60:.\cli.c       ****     void *ptr;
  61:.\cli.c       ****     const int32_t min;
  62:.\cli.c       ****     const int32_t max;
  63:.\cli.c       **** } clivalue_t;
  64:.\cli.c       **** 
  65:.\cli.c       **** const clivalue_t valueTable[] = { // { "name", VAR_TYPE, &varpointer, min, max } VAR_UINT16 VAR_UIN
  66:.\cli.c       ****     { "P-term", VAR_UINT32, &pid1.P, 0, 10000 },
  67:.\cli.c       **** 	{ "I-term", VAR_UINT32, &pid1.I, 0, 10000 },
  68:.\cli.c       **** 	{ "D-term", VAR_UINT32, &pid1.D, 0, 10000 },
  69:.\cli.c       **** 	{ "setpoint", VAR_UINT32, &setpoint, 0, 5000 },
  70:.\cli.c       **** };
  71:.\cli.c       **** 
  72:.\cli.c       **** #define VALUE_COUNT (sizeof(valueTable) / sizeof(clivalue_t))
  73:.\cli.c       **** 
  74:.\cli.c       **** 
  75:.\cli.c       **** typedef union {
  76:.\cli.c       ****     int32_t int_value;
  77:.\cli.c       ****     float float_value;
  78:.\cli.c       **** } int_float_value_t;
  79:.\cli.c       **** 
  80:.\cli.c       **** static void cliSetVar(const clivalue_t *var, const int_float_value_t value);
  81:.\cli.c       **** static void cliPrintVar(const clivalue_t *var, uint32_t full);
  82:.\cli.c       **** static void cliPrint(const char *str);
  83:.\cli.c       **** static void cliWrite(uint8_t ch);
  84:.\cli.c       **** 
  85:.\cli.c       **** #ifndef HAVE_ITOA_FUNCTION
  86:.\cli.c       **** 
  87:.\cli.c       **** /*
  88:.\cli.c       **** ** The following two functions together make up an itoa()
  89:.\cli.c       **** ** implementation. Function i2a() is a 'private' function
ARM GAS  C:\Users\Luke\AppData\Local\Temp\ccde8Z2y.s 			page 3


  90:.\cli.c       **** ** called by the public itoa() function.
  91:.\cli.c       **** **
  92:.\cli.c       **** ** itoa() takes three arguments:
  93:.\cli.c       **** **        1) the integer to be converted,
  94:.\cli.c       **** **        2) a pointer to a character conversion buffer,
  95:.\cli.c       **** **        3) the radix for the conversion
  96:.\cli.c       **** **           which can range between 2 and 36 inclusive
  97:.\cli.c       **** **           range errors on the radix default it to base10
  98:.\cli.c       **** ** Code from http://groups.google.com/group/comp.lang.c/msg/66552ef8b04fe1ab?pli=1
  99:.\cli.c       **** */
 100:.\cli.c       **** 
 101:.\cli.c       **** static char *i2a(unsigned i, char *a, unsigned r)
 102:.\cli.c       **** {
  26              		.loc 1 102 0
  27              		.cfi_startproc
  28              		@ args = 0, pretend = 0, frame = 0
  29              		@ frame_needed = 0, uses_anonymous_args = 0
  30              	.LVL0:
  31 0000 70B5     		push	{r4, r5, r6, lr}
  32              	.LCFI0:
  33              		.cfi_def_cfa_offset 16
  34              		.cfi_offset 4, -16
  35              		.cfi_offset 5, -12
  36              		.cfi_offset 6, -8
  37              		.cfi_offset 14, -4
  38              		.loc 1 102 0
  39 0002 0646     		mov	r6, r0
 103:.\cli.c       ****     if (i / r > 0)
  40              		.loc 1 103 0
  41 0004 B6FBF2F4 		udiv	r4, r6, r2
 102:.\cli.c       **** {
  42              		.loc 1 102 0
  43 0008 0846     		mov	r0, r1
  44              	.LVL1:
  45 000a 1546     		mov	r5, r2
  46              		.loc 1 103 0
  47 000c 14B1     		cbz	r4, .L2
 104:.\cli.c       ****         a = i2a(i / r, a, r);
  48              		.loc 1 104 0
  49 000e 2046     		mov	r0, r4
  50 0010 FFF7F6FF 		bl	i2a
  51              	.LVL2:
  52              	.L2:
 105:.\cli.c       ****     *a = "0123456789ABCDEFGHIJKLMNOPQRSTUVWXYZ"[i % r];
  53              		.loc 1 105 0
  54 0014 05FB1464 		mls	r4, r5, r4, r6
  55 0018 024B     		ldr	r3, .L7
  56 001a 195D     		ldrb	r1, [r3, r4]	@ zero_extendqisi2
  57 001c 00F8011B 		strb	r1, [r0], #1
  58              	.LVL3:
 106:.\cli.c       ****     return a + 1;
 107:.\cli.c       **** }
  59              		.loc 1 107 0
  60 0020 70BD     		pop	{r4, r5, r6, pc}
  61              	.L8:
  62 0022 00BF     		.align	2
  63              	.L7:
ARM GAS  C:\Users\Luke\AppData\Local\Temp\ccde8Z2y.s 			page 4


  64 0024 00000000 		.word	.LC0
  65              		.cfi_endproc
  66              	.LFE56:
  67              		.size	i2a, .-i2a
  68              		.section	.text.cliSave,"ax",%progbits
  69              		.align	1
  70              		.thumb
  71              		.thumb_func
  72              		.type	cliSave, %function
  73              	cliSave:
  74              	.LFB65:
 108:.\cli.c       **** 
 109:.\cli.c       **** char *itoa(int i, char *a, int r)
 110:.\cli.c       **** {
 111:.\cli.c       ****     if ((r < 2) || (r > 36))
 112:.\cli.c       ****         r = 10;
 113:.\cli.c       ****     if (i < 0) {
 114:.\cli.c       ****         *a = '-';
 115:.\cli.c       ****         *i2a(-(unsigned)i, a + 1, r) = 0;
 116:.\cli.c       ****     } else
 117:.\cli.c       ****         *i2a(i, a, r) = 0;
 118:.\cli.c       ****     return a;
 119:.\cli.c       **** }
 120:.\cli.c       **** 
 121:.\cli.c       **** #endif
 122:.\cli.c       **** 
 123:.\cli.c       **** ////////////////////////////////////////////////////////////////////////////////
 124:.\cli.c       **** // String to Float Conversion
 125:.\cli.c       **** ///////////////////////////////////////////////////////////////////////////////
 126:.\cli.c       **** // Simple and fast atof (ascii to float) function.
 127:.\cli.c       **** //
 128:.\cli.c       **** // - Executes about 5x faster than standard MSCRT library atof().
 129:.\cli.c       **** // - An attractive alternative if the number of calls is in the millions.
 130:.\cli.c       **** // - Assumes input is a proper integer, fraction, or scientific format.
 131:.\cli.c       **** // - Matches library atof() to 15 digits (except at extreme exponents).
 132:.\cli.c       **** // - Follows atof() precedent of essentially no error checking.
 133:.\cli.c       **** //
 134:.\cli.c       **** // 09-May-2009 Tom Van Baak (tvb) www.LeapSecond.com
 135:.\cli.c       **** //
 136:.\cli.c       **** #define white_space(c) ((c) == ' ' || (c) == '\t')
 137:.\cli.c       **** #define valid_digit(c) ((c) >= '0' && (c) <= '9')
 138:.\cli.c       **** static float _atof(const char *p)
 139:.\cli.c       **** {
 140:.\cli.c       ****     int frac = 0;
 141:.\cli.c       ****     float sign, value, scale;
 142:.\cli.c       **** 
 143:.\cli.c       ****     // Skip leading white space, if any.
 144:.\cli.c       ****     while (white_space(*p) ) {
 145:.\cli.c       ****         p += 1;
 146:.\cli.c       ****     }
 147:.\cli.c       **** 
 148:.\cli.c       ****     // Get sign, if any.
 149:.\cli.c       ****     sign = 1.0f;
 150:.\cli.c       ****     if (*p == '-') {
 151:.\cli.c       ****         sign = -1.0f;
 152:.\cli.c       ****         p += 1;
 153:.\cli.c       **** 
ARM GAS  C:\Users\Luke\AppData\Local\Temp\ccde8Z2y.s 			page 5


 154:.\cli.c       ****     } else if (*p == '+') {
 155:.\cli.c       ****         p += 1;
 156:.\cli.c       ****     }
 157:.\cli.c       **** 
 158:.\cli.c       ****     // Get digits before decimal point or exponent, if any.
 159:.\cli.c       ****     value = 0.0f;
 160:.\cli.c       ****     while (valid_digit(*p)) {
 161:.\cli.c       ****         value = value * 10.0f + (*p - '0');
 162:.\cli.c       ****         p += 1;
 163:.\cli.c       ****     }
 164:.\cli.c       **** 
 165:.\cli.c       ****     // Get digits after decimal point, if any.
 166:.\cli.c       ****     if (*p == '.') {
 167:.\cli.c       ****         float pow10 = 10.0f;
 168:.\cli.c       ****         p += 1;
 169:.\cli.c       **** 
 170:.\cli.c       ****         while (valid_digit(*p)) {
 171:.\cli.c       ****             value += (*p - '0') / pow10;
 172:.\cli.c       ****             pow10 *= 10.0f;
 173:.\cli.c       ****             p += 1;
 174:.\cli.c       ****         }
 175:.\cli.c       ****     }
 176:.\cli.c       **** 
 177:.\cli.c       ****     // Handle exponent, if any.
 178:.\cli.c       ****     scale = 1.0f;
 179:.\cli.c       ****     if ((*p == 'e') || (*p == 'E')) {
 180:.\cli.c       ****         unsigned int expon;
 181:.\cli.c       ****         p += 1;
 182:.\cli.c       **** 
 183:.\cli.c       ****         // Get sign of exponent, if any.
 184:.\cli.c       ****         frac = 0;
 185:.\cli.c       ****         if (*p == '-') {
 186:.\cli.c       ****             frac = 1;
 187:.\cli.c       ****             p += 1;
 188:.\cli.c       **** 
 189:.\cli.c       ****         } else if (*p == '+') {
 190:.\cli.c       ****             p += 1;
 191:.\cli.c       ****         }
 192:.\cli.c       **** 
 193:.\cli.c       ****         // Get digits of exponent, if any.
 194:.\cli.c       ****         expon = 0;
 195:.\cli.c       ****         while (valid_digit(*p)) {
 196:.\cli.c       ****             expon = expon * 10 + (*p - '0');
 197:.\cli.c       ****             p += 1;
 198:.\cli.c       ****         }
 199:.\cli.c       ****         if (expon > 308) 
 200:.\cli.c       ****             expon = 308;
 201:.\cli.c       **** 
 202:.\cli.c       ****         // Calculate scaling factor.
 203:.\cli.c       ****         // while (expon >= 50) { scale *= 1E50f; expon -= 50; }
 204:.\cli.c       ****         while (expon >=  8) { scale *= 1E8f;  expon -=  8; }
 205:.\cli.c       ****         while (expon >   0) { scale *= 10.0f; expon -=  1; }
 206:.\cli.c       ****     }
 207:.\cli.c       **** 
 208:.\cli.c       ****     // Return signed and scaled floating point result.
 209:.\cli.c       ****     return sign * (frac ? (value / scale) : (value * scale));
 210:.\cli.c       **** }
ARM GAS  C:\Users\Luke\AppData\Local\Temp\ccde8Z2y.s 			page 6


 211:.\cli.c       **** 
 212:.\cli.c       **** ///////////////////////////////////////////////////////////////////////////////
 213:.\cli.c       **** // FTOA
 214:.\cli.c       **** ///////////////////////////////////////////////////////////////////////////////
 215:.\cli.c       **** static char *ftoa(float x, char *floatString)
 216:.\cli.c       **** {
 217:.\cli.c       ****     int32_t value;
 218:.\cli.c       ****     char intString1[12];
 219:.\cli.c       ****     char intString2[12] = { 0, };
 220:.\cli.c       ****     char *decimalPoint = ".";
 221:.\cli.c       ****     uint8_t dpLocation;
 222:.\cli.c       **** 
 223:.\cli.c       ****     if (x > 0)                  // Rounding for x.xxx display format
 224:.\cli.c       ****         x += 0.0005f;
 225:.\cli.c       ****     else
 226:.\cli.c       ****         x -= 0.0005f;
 227:.\cli.c       **** 
 228:.\cli.c       ****     value = (int32_t) (x * 1000.0f);    // Convert float * 1000 to an integer
 229:.\cli.c       **** 
 230:.\cli.c       ****     itoa(ABS(value), intString1, 10);   // Create string from abs of integer value
 231:.\cli.c       **** 
 232:.\cli.c       ****     if (value >= 0)
 233:.\cli.c       ****         intString2[0] = ' ';    // Positive number, add a pad space
 234:.\cli.c       ****     else
 235:.\cli.c       ****         intString2[0] = '-';    // Negative number, add a negative sign
 236:.\cli.c       **** 
 237:.\cli.c       ****     if (strlen(intString1) == 1) {
 238:.\cli.c       ****         intString2[1] = '0';
 239:.\cli.c       ****         intString2[2] = '0';
 240:.\cli.c       ****         intString2[3] = '0';
 241:.\cli.c       ****         strcat(intString2, intString1);
 242:.\cli.c       ****     } else if (strlen(intString1) == 2) {
 243:.\cli.c       ****         intString2[1] = '0';
 244:.\cli.c       ****         intString2[2] = '0';
 245:.\cli.c       ****         strcat(intString2, intString1);
 246:.\cli.c       ****     } else if (strlen(intString1) == 3) {
 247:.\cli.c       ****         intString2[1] = '0';
 248:.\cli.c       ****         strcat(intString2, intString1);
 249:.\cli.c       ****     } else {
 250:.\cli.c       ****         strcat(intString2, intString1);
 251:.\cli.c       ****     }
 252:.\cli.c       **** 
 253:.\cli.c       ****     dpLocation = strlen(intString2) - 3;
 254:.\cli.c       **** 
 255:.\cli.c       ****     strncpy(floatString, intString2, dpLocation);
 256:.\cli.c       ****     floatString[dpLocation] = '\0';
 257:.\cli.c       ****     strcat(floatString, decimalPoint);
 258:.\cli.c       ****     strcat(floatString, intString2 + dpLocation);
 259:.\cli.c       **** 
 260:.\cli.c       ****     return floatString;
 261:.\cli.c       **** }
 262:.\cli.c       **** 
 263:.\cli.c       **** static void cliPrompt(void)
 264:.\cli.c       **** {
 265:.\cli.c       ****     cliPrint("\r\n# ");
 266:.\cli.c       **** }
 267:.\cli.c       **** 
ARM GAS  C:\Users\Luke\AppData\Local\Temp\ccde8Z2y.s 			page 7


 268:.\cli.c       **** static int cliCompare(const void *a, const void *b)
 269:.\cli.c       **** {
 270:.\cli.c       ****     const clicmd_t *ca = a, *cb = b;
 271:.\cli.c       ****     return strncasecmp(ca->name, cb->name, strlen(cb->name));
 272:.\cli.c       **** }
 273:.\cli.c       **** 
 274:.\cli.c       **** static void cliDefaults(char *cmdline)
 275:.\cli.c       **** {
 276:.\cli.c       ****     cliPrint("Resetting to defaults...\r\n");
 277:.\cli.c       **** 
 278:.\cli.c       **** }
 279:.\cli.c       **** 
 280:.\cli.c       **** static void cliExit(char *cmdline)
 281:.\cli.c       **** {
 282:.\cli.c       ****     cliPrint("\r\nLeaving CLI mode...\r\n");
 283:.\cli.c       ****     *cliBuffer = '\0';
 284:.\cli.c       ****     bufferIndex = 0;
 285:.\cli.c       ****     cliMode = 0;
 286:.\cli.c       **** }
 287:.\cli.c       **** 
 288:.\cli.c       **** static void cliHelp(char *cmdline)
 289:.\cli.c       **** {
 290:.\cli.c       ****     uint32_t i = 0;
 291:.\cli.c       **** 	char buffer_temp[64];
 292:.\cli.c       **** 
 293:.\cli.c       ****     cliPrint("Available commands:\r\n");
 294:.\cli.c       ****     for (i = 0; i < CMD_COUNT; i++) {
 295:.\cli.c       ****         sprintf(buffer_temp, "%s\t%s\r\n", cmdTable[i].name, cmdTable[i].param);
 296:.\cli.c       **** 		cliPrint(buffer_temp);
 297:.\cli.c       ****     }
 298:.\cli.c       **** }
 299:.\cli.c       **** 
 300:.\cli.c       **** static void cliSave(char *cmdline)
 301:.\cli.c       **** {
  75              		.loc 1 301 0
  76              		.cfi_startproc
  77              		@ args = 0, pretend = 0, frame = 0
  78              		@ frame_needed = 0, uses_anonymous_args = 0
  79              		@ link register save eliminated.
  80              	.LVL4:
  81 0000 7047     		bx	lr
  82              		.cfi_endproc
  83              	.LFE65:
  84              		.size	cliSave, .-cliSave
  85              		.section	.text.cliPrint,"ax",%progbits
  86              		.align	1
  87              		.thumb
  88              		.thumb_func
  89              		.type	cliPrint, %function
  90              	cliPrint:
  91              	.LFB66:
 302:.\cli.c       ****  // todo save parameters
 303:.\cli.c       **** }
 304:.\cli.c       **** 
 305:.\cli.c       **** static void cliPrint(const char *str)
 306:.\cli.c       **** {
  92              		.loc 1 306 0
ARM GAS  C:\Users\Luke\AppData\Local\Temp\ccde8Z2y.s 			page 8


  93              		.cfi_startproc
  94              		@ args = 0, pretend = 0, frame = 0
  95              		@ frame_needed = 0, uses_anonymous_args = 0
  96              	.LVL5:
  97              		.loc 1 306 0
  98 0000 10B5     		push	{r4, lr}
  99              	.LCFI1:
 100              		.cfi_def_cfa_offset 8
 101              		.cfi_offset 4, -8
 102              		.cfi_offset 14, -4
 103 0002 0446     		mov	r4, r0
 104              	.LVL6:
 105              	.L11:
 307:.\cli.c       **** 	while(!USBUART_1_CDCIsReady());
 106              		.loc 1 307 0 discriminator 1
 107 0004 FFF7FEFF 		bl	USBUART_1_CDCIsReady
 108              	.LVL7:
 109 0008 0028     		cmp	r0, #0
 110 000a FBD0     		beq	.L11
 308:.\cli.c       **** 	USBUART_1_PutString(str);   
 111              		.loc 1 308 0
 112 000c 2046     		mov	r0, r4
 309:.\cli.c       **** }
 113              		.loc 1 309 0
 114 000e BDE81040 		pop	{r4, lr}
 308:.\cli.c       **** 	USBUART_1_PutString(str);   
 115              		.loc 1 308 0
 116 0012 FFF7FEBF 		b	USBUART_1_PutString
 117              	.LVL8:
 118              		.cfi_endproc
 119              	.LFE66:
 120              		.size	cliPrint, .-cliPrint
 121              		.section	.text.cliHelp,"ax",%progbits
 122              		.align	1
 123              		.thumb
 124              		.thumb_func
 125              		.type	cliHelp, %function
 126              	cliHelp:
 127              	.LFB64:
 289:.\cli.c       **** {
 128              		.loc 1 289 0
 129              		.cfi_startproc
 130              		@ args = 0, pretend = 0, frame = 64
 131              		@ frame_needed = 0, uses_anonymous_args = 0
 132              	.LVL9:
 133 0000 30B5     		push	{r4, r5, lr}
 134              	.LCFI2:
 135              		.cfi_def_cfa_offset 12
 136              		.cfi_offset 4, -12
 137              		.cfi_offset 5, -8
 138              		.cfi_offset 14, -4
 293:.\cli.c       ****     cliPrint("Available commands:\r\n");
 139              		.loc 1 293 0
 140 0002 0A48     		ldr	r0, .L19
 141              	.LVL10:
 289:.\cli.c       **** {
 142              		.loc 1 289 0
ARM GAS  C:\Users\Luke\AppData\Local\Temp\ccde8Z2y.s 			page 9


 143 0004 91B0     		sub	sp, sp, #68
 144              	.LCFI3:
 145              		.cfi_def_cfa_offset 80
 293:.\cli.c       ****     cliPrint("Available commands:\r\n");
 146              		.loc 1 293 0
 147 0006 FFF7FEFF 		bl	cliPrint
 148              	.LVL11:
 149 000a 0024     		movs	r4, #0
 150              	.LVL12:
 151              	.L17:
 295:.\cli.c       ****         sprintf(buffer_temp, "%s\t%s\r\n", cmdTable[i].name, cmdTable[i].param);
 152              		.loc 1 295 0 discriminator 2
 153 000c 084B     		ldr	r3, .L19+4
 154 000e 0949     		ldr	r1, .L19+8
 288:.\cli.c       **** static void cliHelp(char *cmdline)
 155              		.loc 1 288 0 discriminator 2
 156 0010 1D19     		adds	r5, r3, r4
 295:.\cli.c       ****         sprintf(buffer_temp, "%s\t%s\r\n", cmdTable[i].name, cmdTable[i].param);
 157              		.loc 1 295 0 discriminator 2
 158 0012 E258     		ldr	r2, [r4, r3]
 159 0014 6846     		mov	r0, sp
 160 0016 6B68     		ldr	r3, [r5, #4]
 161 0018 FFF7FEFF 		bl	sprintf
 162              	.LVL13:
 163 001c 0C34     		adds	r4, r4, #12
 296:.\cli.c       **** 		cliPrint(buffer_temp);
 164              		.loc 1 296 0 discriminator 2
 165 001e 6846     		mov	r0, sp
 166 0020 FFF7FEFF 		bl	cliPrint
 167              	.LVL14:
 294:.\cli.c       ****     for (i = 0; i < CMD_COUNT; i++) {
 168              		.loc 1 294 0 discriminator 2
 169 0024 482C     		cmp	r4, #72
 170 0026 F1D1     		bne	.L17
 298:.\cli.c       **** }
 171              		.loc 1 298 0
 172 0028 11B0     		add	sp, sp, #68
 173 002a 30BD     		pop	{r4, r5, pc}
 174              	.L20:
 175              		.align	2
 176              	.L19:
 177 002c 25000000 		.word	.LC1
 178 0030 00000000 		.word	.LANCHOR0
 179 0034 3B000000 		.word	.LC2
 180              		.cfi_endproc
 181              	.LFE64:
 182              		.size	cliHelp, .-cliHelp
 183              		.section	.text.cliExit,"ax",%progbits
 184              		.align	1
 185              		.thumb
 186              		.thumb_func
 187              		.type	cliExit, %function
 188              	cliExit:
 189              	.LFB63:
 281:.\cli.c       **** {
 190              		.loc 1 281 0
 191              		.cfi_startproc
ARM GAS  C:\Users\Luke\AppData\Local\Temp\ccde8Z2y.s 			page 10


 192              		@ args = 0, pretend = 0, frame = 0
 193              		@ frame_needed = 0, uses_anonymous_args = 0
 194              	.LVL15:
 195 0000 08B5     		push	{r3, lr}
 196              	.LCFI4:
 197              		.cfi_def_cfa_offset 8
 198              		.cfi_offset 3, -8
 199              		.cfi_offset 14, -4
 282:.\cli.c       ****     cliPrint("\r\nLeaving CLI mode...\r\n");
 200              		.loc 1 282 0
 201 0002 0548     		ldr	r0, .L22
 202              	.LVL16:
 203 0004 FFF7FEFF 		bl	cliPrint
 204              	.LVL17:
 283:.\cli.c       ****     *cliBuffer = '\0';
 205              		.loc 1 283 0
 206 0008 044A     		ldr	r2, .L22+4
 285:.\cli.c       ****     cliMode = 0;
 207              		.loc 1 285 0
 208 000a 0548     		ldr	r0, .L22+8
 283:.\cli.c       ****     *cliBuffer = '\0';
 209              		.loc 1 283 0
 210 000c 0023     		movs	r3, #0
 211 000e 1370     		strb	r3, [r2, #0]
 284:.\cli.c       ****     bufferIndex = 0;
 212              		.loc 1 284 0
 213 0010 1363     		str	r3, [r2, #48]
 285:.\cli.c       ****     cliMode = 0;
 214              		.loc 1 285 0
 215 0012 0370     		strb	r3, [r0, #0]
 216 0014 08BD     		pop	{r3, pc}
 217              	.L23:
 218 0016 00BF     		.align	2
 219              	.L22:
 220 0018 43000000 		.word	.LC3
 221 001c 00000000 		.word	.LANCHOR1
 222 0020 00000000 		.word	cliMode
 223              		.cfi_endproc
 224              	.LFE63:
 225              		.size	cliExit, .-cliExit
 226              		.section	.text.cliDefaults,"ax",%progbits
 227              		.align	1
 228              		.thumb
 229              		.thumb_func
 230              		.type	cliDefaults, %function
 231              	cliDefaults:
 232              	.LFB62:
 275:.\cli.c       **** {
 233              		.loc 1 275 0
 234              		.cfi_startproc
 235              		@ args = 0, pretend = 0, frame = 0
 236              		@ frame_needed = 0, uses_anonymous_args = 0
 237              		@ link register save eliminated.
 238              	.LVL18:
 276:.\cli.c       ****     cliPrint("Resetting to defaults...\r\n");
 239              		.loc 1 276 0
 240 0000 0148     		ldr	r0, .L25
ARM GAS  C:\Users\Luke\AppData\Local\Temp\ccde8Z2y.s 			page 11


 241              	.LVL19:
 278:.\cli.c       **** }
 242              		.loc 1 278 0
 276:.\cli.c       ****     cliPrint("Resetting to defaults...\r\n");
 243              		.loc 1 276 0
 244 0002 FFF7FEBF 		b	cliPrint
 245              	.LVL20:
 246              	.L26:
 247 0006 00BF     		.align	2
 248              	.L25:
 249 0008 5B000000 		.word	.LC4
 250              		.cfi_endproc
 251              	.LFE62:
 252              		.size	cliDefaults, .-cliDefaults
 253              		.section	.text.cliCompare,"ax",%progbits
 254              		.align	1
 255              		.thumb
 256              		.thumb_func
 257              		.type	cliCompare, %function
 258              	cliCompare:
 259              	.LFB61:
 269:.\cli.c       **** {
 260              		.loc 1 269 0
 261              		.cfi_startproc
 262              		@ args = 0, pretend = 0, frame = 0
 263              		@ frame_needed = 0, uses_anonymous_args = 0
 264              	.LVL21:
 265 0000 38B5     		push	{r3, r4, r5, lr}
 266              	.LCFI5:
 267              		.cfi_def_cfa_offset 16
 268              		.cfi_offset 3, -16
 269              		.cfi_offset 4, -12
 270              		.cfi_offset 5, -8
 271              		.cfi_offset 14, -4
 271:.\cli.c       ****     return strncasecmp(ca->name, cb->name, strlen(cb->name));
 272              		.loc 1 271 0
 273 0002 0C68     		ldr	r4, [r1, #0]
 269:.\cli.c       **** {
 274              		.loc 1 269 0
 275 0004 0546     		mov	r5, r0
 276              	.LVL22:
 271:.\cli.c       ****     return strncasecmp(ca->name, cb->name, strlen(cb->name));
 277              		.loc 1 271 0
 278 0006 2046     		mov	r0, r4
 279              	.LVL23:
 280 0008 FFF7FEFF 		bl	strlen
 281              	.LVL24:
 282 000c 0246     		mov	r2, r0
 283 000e 2868     		ldr	r0, [r5, #0]
 284 0010 2146     		mov	r1, r4
 272:.\cli.c       **** }
 285              		.loc 1 272 0
 286 0012 BDE83840 		pop	{r3, r4, r5, lr}
 271:.\cli.c       ****     return strncasecmp(ca->name, cb->name, strlen(cb->name));
 287              		.loc 1 271 0
 288 0016 FFF7FEBF 		b	strncasecmp
 289              	.LVL25:
ARM GAS  C:\Users\Luke\AppData\Local\Temp\ccde8Z2y.s 			page 12


 290              		.cfi_endproc
 291              	.LFE61:
 292              		.size	cliCompare, .-cliCompare
 293              		.section	.text.cliWrite,"ax",%progbits
 294              		.align	1
 295              		.thumb
 296              		.thumb_func
 297              		.type	cliWrite, %function
 298              	cliWrite:
 299              	.LFB67:
 310:.\cli.c       **** 
 311:.\cli.c       **** static void cliWrite(uint8_t ch)
 312:.\cli.c       **** {
 300              		.loc 1 312 0
 301              		.cfi_startproc
 302              		@ args = 0, pretend = 0, frame = 0
 303              		@ frame_needed = 0, uses_anonymous_args = 0
 304              	.LVL26:
 305 0000 10B5     		push	{r4, lr}
 306              	.LCFI6:
 307              		.cfi_def_cfa_offset 8
 308              		.cfi_offset 4, -8
 309              		.cfi_offset 14, -4
 310 0002 0446     		mov	r4, r0
 311              	.LVL27:
 312              	.L29:
 313:.\cli.c       **** 	while(!USBUART_1_CDCIsReady());
 313              		.loc 1 313 0 discriminator 1
 314 0004 FFF7FEFF 		bl	USBUART_1_CDCIsReady
 315              	.LVL28:
 316 0008 0028     		cmp	r0, #0
 317 000a FBD0     		beq	.L29
 314:.\cli.c       ****     USBUART_1_PutChar(ch);
 318              		.loc 1 314 0
 319 000c 2046     		mov	r0, r4
 315:.\cli.c       **** }
 320              		.loc 1 315 0
 321 000e BDE81040 		pop	{r4, lr}
 314:.\cli.c       ****     USBUART_1_PutChar(ch);
 322              		.loc 1 314 0
 323 0012 FFF7FEBF 		b	USBUART_1_PutChar
 324              	.LVL29:
 325              		.cfi_endproc
 326              	.LFE67:
 327              		.size	cliWrite, .-cliWrite
 328              		.section	.text.itoa,"ax",%progbits
 329              		.align	1
 330              		.global	itoa
 331              		.thumb
 332              		.thumb_func
 333              		.type	itoa, %function
 334              	itoa:
 335              	.LFB57:
 110:.\cli.c       **** {
 336              		.loc 1 110 0
 337              		.cfi_startproc
 338              		@ args = 0, pretend = 0, frame = 0
ARM GAS  C:\Users\Luke\AppData\Local\Temp\ccde8Z2y.s 			page 13


 339              		@ frame_needed = 0, uses_anonymous_args = 0
 340              	.LVL30:
 111:.\cli.c       ****     if ((r < 2) || (r > 36))
 341              		.loc 1 111 0
 342 0000 931E     		subs	r3, r2, #2
 112:.\cli.c       ****         r = 10;
 343              		.loc 1 112 0
 344 0002 222B     		cmp	r3, #34
 345 0004 88BF     		it	hi
 346 0006 0A22     		movhi	r2, #10
 347              	.LVL31:
 113:.\cli.c       ****     if (i < 0) {
 348              		.loc 1 113 0
 349 0008 031E     		subs	r3, r0, #0
 350              	.LVL32:
 110:.\cli.c       **** {
 351              		.loc 1 110 0
 352 000a 10B5     		push	{r4, lr}
 353              	.LCFI7:
 354              		.cfi_def_cfa_offset 8
 355              		.cfi_offset 4, -8
 356              		.cfi_offset 14, -4
 110:.\cli.c       **** {
 357              		.loc 1 110 0
 358 000c 0C46     		mov	r4, r1
 113:.\cli.c       ****     if (i < 0) {
 359              		.loc 1 113 0
 360 000e 03DA     		bge	.L36
 114:.\cli.c       ****         *a = '-';
 361              		.loc 1 114 0
 362 0010 2D20     		movs	r0, #45
 363              	.LVL33:
 364 0012 01F8010B 		strb	r0, [r1], #1
 365              	.LVL34:
 115:.\cli.c       ****         *i2a(-(unsigned)i, a + 1, r) = 0;
 366              		.loc 1 115 0
 367 0016 5842     		negs	r0, r3
 368              	.L36:
 117:.\cli.c       ****         *i2a(i, a, r) = 0;
 369              		.loc 1 117 0
 370 0018 FFF7FEFF 		bl	i2a
 371              	.LVL35:
 372 001c 0021     		movs	r1, #0
 373 001e 0170     		strb	r1, [r0, #0]
 119:.\cli.c       **** }
 374              		.loc 1 119 0
 375 0020 2046     		mov	r0, r4
 376 0022 10BD     		pop	{r4, pc}
 377              		.cfi_endproc
 378              	.LFE57:
 379              		.size	itoa, .-itoa
 380              		.global	__aeabi_fcmpgt
 381              		.global	__aeabi_fadd
 382              		.global	__aeabi_fsub
 383              		.global	__aeabi_fmul
 384              		.global	__aeabi_f2iz
 385              		.section	.text.ftoa,"ax",%progbits
ARM GAS  C:\Users\Luke\AppData\Local\Temp\ccde8Z2y.s 			page 14


 386              		.align	1
 387              		.thumb
 388              		.thumb_func
 389              		.type	ftoa, %function
 390              	ftoa:
 391              	.LFB59:
 216:.\cli.c       **** {
 392              		.loc 1 216 0
 393              		.cfi_startproc
 394              		@ args = 0, pretend = 0, frame = 24
 395              		@ frame_needed = 0, uses_anonymous_args = 0
 396              	.LVL36:
 397 0000 30B5     		push	{r4, r5, lr}
 398              	.LCFI8:
 399              		.cfi_def_cfa_offset 12
 400              		.cfi_offset 4, -12
 401              		.cfi_offset 5, -8
 402              		.cfi_offset 14, -4
 403 0002 87B0     		sub	sp, sp, #28
 404              	.LCFI9:
 405              		.cfi_def_cfa_offset 40
 216:.\cli.c       **** {
 406              		.loc 1 216 0
 407 0004 0546     		mov	r5, r0
 408 0006 0C46     		mov	r4, r1
 219:.\cli.c       ****     char intString2[12] = { 0, };
 409              		.loc 1 219 0
 410 0008 03A8     		add	r0, sp, #12
 411              	.LVL37:
 412 000a 0021     		movs	r1, #0
 413              	.LVL38:
 414 000c 0C22     		movs	r2, #12
 415 000e FFF7FEFF 		bl	memset
 416              	.LVL39:
 223:.\cli.c       ****     if (x > 0)                  // Rounding for x.xxx display format
 417              		.loc 1 223 0
 418 0012 2846     		mov	r0, r5
 419 0014 0021     		movs	r1, #0
 420 0016 FFF7FEFF 		bl	__aeabi_fcmpgt
 421              	.LVL40:
 422 001a 20B1     		cbz	r0, .L50
 224:.\cli.c       ****         x += 0.0005f;
 423              		.loc 1 224 0
 424 001c 2846     		mov	r0, r5
 425 001e 2949     		ldr	r1, .L52
 426 0020 FFF7FEFF 		bl	__aeabi_fadd
 427              	.LVL41:
 428 0024 03E0     		b	.L42
 429              	.LVL42:
 430              	.L50:
 226:.\cli.c       ****         x -= 0.0005f;
 431              		.loc 1 226 0
 432 0026 2846     		mov	r0, r5
 433 0028 2649     		ldr	r1, .L52
 434 002a FFF7FEFF 		bl	__aeabi_fsub
 435              	.LVL43:
 436              	.L42:
ARM GAS  C:\Users\Luke\AppData\Local\Temp\ccde8Z2y.s 			page 15


 228:.\cli.c       ****     value = (int32_t) (x * 1000.0f);    // Convert float * 1000 to an integer
 437              		.loc 1 228 0
 438 002e 2649     		ldr	r1, .L52+4
 439 0030 FFF7FEFF 		bl	__aeabi_fmul
 440              	.LVL44:
 441 0034 FFF7FEFF 		bl	__aeabi_f2iz
 442              	.LVL45:
 443 0038 0546     		mov	r5, r0
 444              	.LVL46:
 230:.\cli.c       ****     itoa(ABS(value), intString1, 10);   // Create string from abs of integer value
 445              		.loc 1 230 0
 446 003a 85EAE570 		eor	r0, r5, r5, asr #31
 447 003e A0EBE570 		sub	r0, r0, r5, asr #31
 448              	.LVL47:
 449 0042 0A22     		movs	r2, #10
 450 0044 6946     		mov	r1, sp
 451 0046 FFF7FEFF 		bl	itoa
 452              	.LVL48:
 232:.\cli.c       ****     if (value >= 0)
 453              		.loc 1 232 0
 454 004a 002D     		cmp	r5, #0
 455 004c 01DB     		blt	.L43
 233:.\cli.c       ****         intString2[0] = ' ';    // Positive number, add a pad space
 456              		.loc 1 233 0
 457 004e 2023     		movs	r3, #32
 458 0050 00E0     		b	.L51
 459              	.L43:
 235:.\cli.c       ****         intString2[0] = '-';    // Negative number, add a negative sign
 460              		.loc 1 235 0
 461 0052 2D23     		movs	r3, #45
 462              	.L51:
 237:.\cli.c       ****     if (strlen(intString1) == 1) {
 463              		.loc 1 237 0
 464 0054 6846     		mov	r0, sp
 235:.\cli.c       ****         intString2[0] = '-';    // Negative number, add a negative sign
 465              		.loc 1 235 0
 466 0056 8DF80C30 		strb	r3, [sp, #12]
 237:.\cli.c       ****     if (strlen(intString1) == 1) {
 467              		.loc 1 237 0
 468 005a FFF7FEFF 		bl	strlen
 469              	.LVL49:
 470 005e 0128     		cmp	r0, #1
 471 0060 07D1     		bne	.L45
 238:.\cli.c       ****         intString2[1] = '0';
 472              		.loc 1 238 0
 473 0062 3022     		movs	r2, #48
 474 0064 8DF80D20 		strb	r2, [sp, #13]
 239:.\cli.c       ****         intString2[2] = '0';
 475              		.loc 1 239 0
 476 0068 8DF80E20 		strb	r2, [sp, #14]
 240:.\cli.c       ****         intString2[3] = '0';
 477              		.loc 1 240 0
 478 006c 8DF80F20 		strb	r2, [sp, #15]
 479 0070 0CE0     		b	.L48
 480              	.L45:
 242:.\cli.c       ****     } else if (strlen(intString1) == 2) {
 481              		.loc 1 242 0
ARM GAS  C:\Users\Luke\AppData\Local\Temp\ccde8Z2y.s 			page 16


 482 0072 0228     		cmp	r0, #2
 483 0074 05D1     		bne	.L47
 243:.\cli.c       ****         intString2[1] = '0';
 484              		.loc 1 243 0
 485 0076 3021     		movs	r1, #48
 486 0078 8DF80D10 		strb	r1, [sp, #13]
 244:.\cli.c       ****         intString2[2] = '0';
 487              		.loc 1 244 0
 488 007c 8DF80E10 		strb	r1, [sp, #14]
 489 0080 04E0     		b	.L48
 490              	.L47:
 246:.\cli.c       ****     } else if (strlen(intString1) == 3) {
 491              		.loc 1 246 0
 492 0082 0328     		cmp	r0, #3
 493 0084 02D1     		bne	.L48
 247:.\cli.c       ****         intString2[1] = '0';
 494              		.loc 1 247 0
 495 0086 3020     		movs	r0, #48
 496 0088 8DF80D00 		strb	r0, [sp, #13]
 497              	.L48:
 250:.\cli.c       ****         strcat(intString2, intString1);
 498              		.loc 1 250 0
 499 008c 6946     		mov	r1, sp
 500 008e 03A8     		add	r0, sp, #12
 501 0090 FFF7FEFF 		bl	strcat
 502              	.LVL50:
 253:.\cli.c       ****     dpLocation = strlen(intString2) - 3;
 503              		.loc 1 253 0
 504 0094 03A8     		add	r0, sp, #12
 505 0096 FFF7FEFF 		bl	strlen
 506              	.LVL51:
 507 009a C51E     		subs	r5, r0, #3
 508              	.LVL52:
 255:.\cli.c       ****     strncpy(floatString, intString2, dpLocation);
 509              		.loc 1 255 0
 510 009c EDB2     		uxtb	r5, r5
 511 009e 2A46     		mov	r2, r5
 512 00a0 03A9     		add	r1, sp, #12
 513 00a2 2046     		mov	r0, r4
 514              	.LVL53:
 515 00a4 FFF7FEFF 		bl	strncpy
 516              	.LVL54:
 256:.\cli.c       ****     floatString[dpLocation] = '\0';
 517              		.loc 1 256 0
 518 00a8 0023     		movs	r3, #0
 519 00aa 6355     		strb	r3, [r4, r5]
 257:.\cli.c       ****     strcat(floatString, decimalPoint);
 520              		.loc 1 257 0
 521 00ac 2046     		mov	r0, r4
 522 00ae 0749     		ldr	r1, .L52+8
 523 00b0 FFF7FEFF 		bl	strcat
 524              	.LVL55:
 258:.\cli.c       ****     strcat(floatString, intString2 + dpLocation);
 525              		.loc 1 258 0
 526 00b4 03A9     		add	r1, sp, #12
 527 00b6 2046     		mov	r0, r4
 528 00b8 4919     		adds	r1, r1, r5
ARM GAS  C:\Users\Luke\AppData\Local\Temp\ccde8Z2y.s 			page 17


 529 00ba FFF7FEFF 		bl	strcat
 530              	.LVL56:
 261:.\cli.c       **** }
 531              		.loc 1 261 0
 532 00be 2046     		mov	r0, r4
 533 00c0 07B0     		add	sp, sp, #28
 534 00c2 30BD     		pop	{r4, r5, pc}
 535              	.L53:
 536              		.align	2
 537              	.L52:
 538 00c4 6F12033A 		.word	973279855
 539 00c8 00007A44 		.word	1148846080
 540 00cc 76000000 		.word	.LC5
 541              		.cfi_endproc
 542              	.LFE59:
 543              		.size	ftoa, .-ftoa
 544              		.section	.text.cliStatus,"ax",%progbits
 545              		.align	1
 546              		.thumb
 547              		.thumb_func
 548              		.type	cliStatus, %function
 549              	cliStatus:
 550              	.LFB71:
 316:.\cli.c       **** 
 317:.\cli.c       **** static void cliPrintVar(const clivalue_t *var, uint32_t full)
 318:.\cli.c       **** {
 319:.\cli.c       ****     int32_t value = 0;
 320:.\cli.c       **** 	char buffer_temp[64];
 321:.\cli.c       ****     char buf[8];
 322:.\cli.c       **** 
 323:.\cli.c       ****     switch (var->type) {
 324:.\cli.c       ****         case VAR_UINT8:
 325:.\cli.c       ****             value = *(uint8_t *)var->ptr;
 326:.\cli.c       ****             break;
 327:.\cli.c       **** 
 328:.\cli.c       ****         case VAR_INT8:
 329:.\cli.c       ****             value = *(int8_t *)var->ptr;
 330:.\cli.c       ****             break;
 331:.\cli.c       **** 
 332:.\cli.c       ****         case VAR_UINT16:
 333:.\cli.c       ****             value = *(uint16_t *)var->ptr;
 334:.\cli.c       ****             break;
 335:.\cli.c       **** 
 336:.\cli.c       ****         case VAR_INT16:
 337:.\cli.c       ****             value = *(int16_t *)var->ptr;
 338:.\cli.c       ****             break;
 339:.\cli.c       **** 
 340:.\cli.c       ****         case VAR_UINT32:
 341:.\cli.c       ****             value = *(uint32_t *)var->ptr;
 342:.\cli.c       ****             break;
 343:.\cli.c       **** 
 344:.\cli.c       ****         case VAR_FLOAT:
 345:.\cli.c       ****             sprintf(buffer_temp, "%s", ftoa(*(float *)var->ptr, buf));
 346:.\cli.c       **** 			cliPrint(buffer_temp);
 347:.\cli.c       ****             if (full) {
 348:.\cli.c       ****                 sprintf(buffer_temp, " %s", ftoa((float)var->min, buf));
 349:.\cli.c       **** 				cliPrint(buffer_temp);
ARM GAS  C:\Users\Luke\AppData\Local\Temp\ccde8Z2y.s 			page 18


 350:.\cli.c       ****                 sprintf(buffer_temp, " %s", ftoa((float)var->max, buf));
 351:.\cli.c       **** 				cliPrint(buffer_temp);
 352:.\cli.c       ****             }
 353:.\cli.c       ****             return; // return from case for float only
 354:.\cli.c       ****     }
 355:.\cli.c       ****     sprintf(buffer_temp, "%d", (int)value);
 356:.\cli.c       **** 	cliPrint(buffer_temp);
 357:.\cli.c       ****     if (full) {
 358:.\cli.c       ****         sprintf(buffer_temp, " %d %d", (int)var->min, (int)var->max);
 359:.\cli.c       **** 		cliPrint(buffer_temp);
 360:.\cli.c       ****     }
 361:.\cli.c       **** }
 362:.\cli.c       **** 
 363:.\cli.c       **** static void cliSetVar(const clivalue_t *var, const int_float_value_t value)
 364:.\cli.c       **** {
 365:.\cli.c       ****     switch (var->type) {
 366:.\cli.c       ****         case VAR_UINT8:
 367:.\cli.c       ****         case VAR_INT8:
 368:.\cli.c       ****             *(char *)var->ptr = (char)value.int_value;
 369:.\cli.c       ****             break;
 370:.\cli.c       **** 
 371:.\cli.c       ****         case VAR_UINT16:
 372:.\cli.c       ****         case VAR_INT16:
 373:.\cli.c       ****             *(short *)var->ptr = (short)value.int_value;
 374:.\cli.c       ****             break;
 375:.\cli.c       **** 
 376:.\cli.c       ****         case VAR_UINT32:
 377:.\cli.c       ****             *(int *)var->ptr = (int)value.int_value;
 378:.\cli.c       ****             break;
 379:.\cli.c       **** 
 380:.\cli.c       ****         case VAR_FLOAT:
 381:.\cli.c       ****             *(float *)var->ptr = (float)value.float_value;
 382:.\cli.c       ****             break;
 383:.\cli.c       ****     }
 384:.\cli.c       **** }
 385:.\cli.c       **** 
 386:.\cli.c       **** static void cliSet(char *cmdline)
 387:.\cli.c       **** {
 388:.\cli.c       ****     uint32_t i;
 389:.\cli.c       ****     uint32_t len;
 390:.\cli.c       ****     const clivalue_t *val;
 391:.\cli.c       ****     char *eqptr = NULL;
 392:.\cli.c       ****     int32_t value = 0;
 393:.\cli.c       ****     float valuef = 0;
 394:.\cli.c       **** 	char buffer_temp[64];
 395:.\cli.c       **** 
 396:.\cli.c       ****     len = strlen(cmdline);
 397:.\cli.c       **** 
 398:.\cli.c       ****     if (len == 0 || (len == 1 && cmdline[0] == '*')) {
 399:.\cli.c       ****         cliPrint("Current settings: \r\n");
 400:.\cli.c       ****         for (i = 0; i < VALUE_COUNT; i++) {
 401:.\cli.c       ****             val = &valueTable[i];
 402:.\cli.c       ****             sprintf(buffer_temp, "%s = ", valueTable[i].name);
 403:.\cli.c       **** 			cliPrint(buffer_temp);
 404:.\cli.c       ****             cliPrintVar(val, len); // when len is 1 (when * is passed as argument), it will print m
 405:.\cli.c       ****             cliPrint("\r\n");
 406:.\cli.c       ****         }
ARM GAS  C:\Users\Luke\AppData\Local\Temp\ccde8Z2y.s 			page 19


 407:.\cli.c       ****     } else if ((eqptr = strstr(cmdline, "=")) != NULL) {
 408:.\cli.c       ****         // has equal, set var
 409:.\cli.c       ****         eqptr++;
 410:.\cli.c       ****         len--;
 411:.\cli.c       ****         value = atoi(eqptr);
 412:.\cli.c       ****         valuef = _atof(eqptr);
 413:.\cli.c       ****         for (i = 0; i < VALUE_COUNT; i++) {
 414:.\cli.c       ****             val = &valueTable[i];
 415:.\cli.c       ****             if (strncasecmp(cmdline, valueTable[i].name, strlen(valueTable[i].name)) == 0) {
 416:.\cli.c       ****                 if (valuef >= valueTable[i].min && valuef <= valueTable[i].max) { // here we compar
 417:.\cli.c       ****                     int_float_value_t tmp;
 418:.\cli.c       ****                     if (valueTable[i].type == VAR_FLOAT)
 419:.\cli.c       ****                         tmp.float_value = valuef;
 420:.\cli.c       ****                     else
 421:.\cli.c       ****                         tmp.int_value = value;
 422:.\cli.c       ****                     cliSetVar(val, tmp);
 423:.\cli.c       ****                     sprintf(buffer_temp, "%s set to ", valueTable[i].name);
 424:.\cli.c       **** 					cliPrint(buffer_temp);
 425:.\cli.c       ****                     cliPrintVar(val, 0);
 426:.\cli.c       ****                 } else {
 427:.\cli.c       ****                     cliPrint("ERR: Value assignment out of range\r\n");
 428:.\cli.c       ****                 }
 429:.\cli.c       ****                 return;
 430:.\cli.c       ****             }
 431:.\cli.c       ****         }
 432:.\cli.c       ****         cliPrint("ERR: Unknown variable name\r\n");
 433:.\cli.c       ****     } else {
 434:.\cli.c       ****         // no equals, check for matching variables.
 435:.\cli.c       ****         for (i = 0; i < VALUE_COUNT; i++) {
 436:.\cli.c       ****             if (strstr(valueTable[i].name, cmdline)) {
 437:.\cli.c       ****                 val = &valueTable[i];
 438:.\cli.c       ****                 sprintf(buffer_temp, "%s = ", valueTable[i].name);
 439:.\cli.c       **** 				cliPrint(buffer_temp);
 440:.\cli.c       ****                 cliPrintVar(val, 0);
 441:.\cli.c       ****                 cliPrint("\r\n");
 442:.\cli.c       ****             }
 443:.\cli.c       ****         }
 444:.\cli.c       ****     }
 445:.\cli.c       **** }
 446:.\cli.c       **** 
 447:.\cli.c       **** static void cliStatus(char *cmdline)
 448:.\cli.c       **** {
 551              		.loc 1 448 0
 552              		.cfi_startproc
 553              		@ args = 0, pretend = 0, frame = 72
 554              		@ frame_needed = 0, uses_anonymous_args = 0
 555              	.LVL57:
 556 0000 00B5     		push	{lr}
 557              	.LCFI10:
 558              		.cfi_def_cfa_offset 4
 559              		.cfi_offset 14, -4
 449:.\cli.c       **** 	char buf[8];
 450:.\cli.c       **** 	char buffer_temp[64];
 451:.\cli.c       **** 	cliPrint("Temperature: ");
 560              		.loc 1 451 0
 561 0002 0C48     		ldr	r0, .L55
 562              	.LVL58:
ARM GAS  C:\Users\Luke\AppData\Local\Temp\ccde8Z2y.s 			page 20


 448:.\cli.c       **** {
 563              		.loc 1 448 0
 564 0004 93B0     		sub	sp, sp, #76
 565              	.LCFI11:
 566              		.cfi_def_cfa_offset 80
 567              		.loc 1 451 0
 568 0006 FFF7FEFF 		bl	cliPrint
 569              	.LVL59:
 452:.\cli.c       **** 	cliPrint(ftoa(Temperature, buf));
 570              		.loc 1 452 0
 571 000a 0B4B     		ldr	r3, .L55+4
 572 000c 6946     		mov	r1, sp
 573 000e 1868     		ldr	r0, [r3, #0]	@ float
 574 0010 FFF7FEFF 		bl	ftoa
 575              	.LVL60:
 576 0014 FFF7FEFF 		bl	cliPrint
 577              	.LVL61:
 453:.\cli.c       **** 	cliPrint("\r\nFaults: ");
 578              		.loc 1 453 0
 579 0018 0848     		ldr	r0, .L55+8
 580 001a FFF7FEFF 		bl	cliPrint
 581              	.LVL62:
 454:.\cli.c       **** 	sprintf(buffer_temp, "%d",(unsigned int)eventcounter);
 582              		.loc 1 454 0
 583 001e 084A     		ldr	r2, .L55+12
 584 0020 02A8     		add	r0, sp, #8
 585 0022 0849     		ldr	r1, .L55+16
 586 0024 1268     		ldr	r2, [r2, #0]
 587 0026 FFF7FEFF 		bl	sprintf
 588              	.LVL63:
 455:.\cli.c       **** 	cliPrint(buffer_temp);
 589              		.loc 1 455 0
 590 002a 02A8     		add	r0, sp, #8
 591 002c FFF7FEFF 		bl	cliPrint
 592              	.LVL64:
 456:.\cli.c       **** }
 593              		.loc 1 456 0
 594 0030 13B0     		add	sp, sp, #76
 595 0032 00BD     		pop	{pc}
 596              	.L56:
 597              		.align	2
 598              	.L55:
 599 0034 78000000 		.word	.LC6
 600 0038 00000000 		.word	Temperature
 601 003c 86000000 		.word	.LC7
 602 0040 00000000 		.word	eventcounter
 603 0044 91000000 		.word	.LC8
 604              		.cfi_endproc
 605              	.LFE71:
 606              		.size	cliStatus, .-cliStatus
 607              		.global	__aeabi_i2f
 608              		.section	.text.cliPrintVar,"ax",%progbits
 609              		.align	1
 610              		.thumb
 611              		.thumb_func
 612              		.type	cliPrintVar, %function
 613              	cliPrintVar:
ARM GAS  C:\Users\Luke\AppData\Local\Temp\ccde8Z2y.s 			page 21


 614              	.LFB68:
 318:.\cli.c       **** {
 615              		.loc 1 318 0
 616              		.cfi_startproc
 617              		@ args = 0, pretend = 0, frame = 72
 618              		@ frame_needed = 0, uses_anonymous_args = 0
 619              	.LVL65:
 620 0000 30B5     		push	{r4, r5, lr}
 621              	.LCFI12:
 622              		.cfi_def_cfa_offset 12
 623              		.cfi_offset 4, -12
 624              		.cfi_offset 5, -8
 625              		.cfi_offset 14, -4
 323:.\cli.c       ****     switch (var->type) {
 626              		.loc 1 323 0
 627 0002 0379     		ldrb	r3, [r0, #4]	@ zero_extendqisi2
 318:.\cli.c       **** {
 628              		.loc 1 318 0
 629 0004 93B0     		sub	sp, sp, #76
 630              	.LCFI13:
 631              		.cfi_def_cfa_offset 88
 318:.\cli.c       **** {
 632              		.loc 1 318 0
 633 0006 0446     		mov	r4, r0
 634 0008 0D46     		mov	r5, r1
 323:.\cli.c       ****     switch (var->type) {
 635              		.loc 1 323 0
 636 000a 052B     		cmp	r3, #5
 637 000c 3CD8     		bhi	.L69
 638 000e DFE803F0 		tbb	[pc, r3]
 639              	.L65:
 640 0012 03       		.byte	(.L59-.L65)/2
 641 0013 06       		.byte	(.L60-.L65)/2
 642 0014 0A       		.byte	(.L61-.L65)/2
 643 0015 0D       		.byte	(.L62-.L65)/2
 644 0016 11       		.byte	(.L63-.L65)/2
 645 0017 14       		.byte	(.L64-.L65)/2
 646              		.align	1
 647              	.L59:
 325:.\cli.c       ****             value = *(uint8_t *)var->ptr;
 648              		.loc 1 325 0
 649 0018 8168     		ldr	r1, [r0, #8]
 650              	.LVL66:
 651 001a 0A78     		ldrb	r2, [r1, #0]	@ zero_extendqisi2
 652              	.LVL67:
 326:.\cli.c       ****             break;
 653              		.loc 1 326 0
 654 001c 35E0     		b	.L58
 655              	.LVL68:
 656              	.L60:
 329:.\cli.c       ****             value = *(int8_t *)var->ptr;
 657              		.loc 1 329 0
 658 001e 8068     		ldr	r0, [r0, #8]
 659              	.LVL69:
 660 0020 90F90020 		ldrsb	r2, [r0, #0]
 661              	.LVL70:
 330:.\cli.c       ****             break;
ARM GAS  C:\Users\Luke\AppData\Local\Temp\ccde8Z2y.s 			page 22


 662              		.loc 1 330 0
 663 0024 31E0     		b	.L58
 664              	.LVL71:
 665              	.L61:
 333:.\cli.c       ****             value = *(uint16_t *)var->ptr;
 666              		.loc 1 333 0
 667 0026 8368     		ldr	r3, [r0, #8]
 668 0028 1A88     		ldrh	r2, [r3, #0]
 669              	.LVL72:
 334:.\cli.c       ****             break;
 670              		.loc 1 334 0
 671 002a 2EE0     		b	.L58
 672              	.LVL73:
 673              	.L62:
 337:.\cli.c       ****             value = *(int16_t *)var->ptr;
 674              		.loc 1 337 0
 675 002c 8268     		ldr	r2, [r0, #8]
 676 002e B2F90020 		ldrsh	r2, [r2, #0]
 677              	.LVL74:
 338:.\cli.c       ****             break;
 678              		.loc 1 338 0
 679 0032 2AE0     		b	.L58
 680              	.LVL75:
 681              	.L63:
 341:.\cli.c       ****             value = *(uint32_t *)var->ptr;
 682              		.loc 1 341 0
 683 0034 8168     		ldr	r1, [r0, #8]
 684              	.LVL76:
 685 0036 0A68     		ldr	r2, [r1, #0]
 686              	.LVL77:
 342:.\cli.c       ****             break;
 687              		.loc 1 342 0
 688 0038 27E0     		b	.L58
 689              	.LVL78:
 690              	.L64:
 345:.\cli.c       ****             sprintf(buffer_temp, "%s", ftoa(*(float *)var->ptr, buf));
 691              		.loc 1 345 0
 692 003a 8068     		ldr	r0, [r0, #8]
 693              	.LVL79:
 694 003c 6946     		mov	r1, sp
 695              	.LVL80:
 696 003e 0068     		ldr	r0, [r0, #0]	@ float
 697 0040 FFF7FEFF 		bl	ftoa
 698              	.LVL81:
 699 0044 0146     		mov	r1, r0
 700 0046 02A8     		add	r0, sp, #8
 701 0048 FFF7FEFF 		bl	strcpy
 702              	.LVL82:
 346:.\cli.c       **** 			cliPrint(buffer_temp);
 703              		.loc 1 346 0
 704 004c 02A8     		add	r0, sp, #8
 705 004e FFF7FEFF 		bl	cliPrint
 706              	.LVL83:
 347:.\cli.c       ****             if (full) {
 707              		.loc 1 347 0
 708 0052 5DB3     		cbz	r5, .L57
 348:.\cli.c       ****                 sprintf(buffer_temp, " %s", ftoa((float)var->min, buf));
ARM GAS  C:\Users\Luke\AppData\Local\Temp\ccde8Z2y.s 			page 23


 709              		.loc 1 348 0
 710 0054 E068     		ldr	r0, [r4, #12]
 711 0056 FFF7FEFF 		bl	__aeabi_i2f
 712              	.LVL84:
 713 005a 6946     		mov	r1, sp
 714 005c FFF7FEFF 		bl	ftoa
 715              	.LVL85:
 716 0060 1349     		ldr	r1, .L77
 717 0062 0246     		mov	r2, r0
 718 0064 02A8     		add	r0, sp, #8
 719 0066 FFF7FEFF 		bl	sprintf
 720              	.LVL86:
 349:.\cli.c       **** 				cliPrint(buffer_temp);
 721              		.loc 1 349 0
 722 006a 02A8     		add	r0, sp, #8
 723 006c FFF7FEFF 		bl	cliPrint
 724              	.LVL87:
 350:.\cli.c       ****                 sprintf(buffer_temp, " %s", ftoa((float)var->max, buf));
 725              		.loc 1 350 0
 726 0070 2069     		ldr	r0, [r4, #16]
 727 0072 FFF7FEFF 		bl	__aeabi_i2f
 728              	.LVL88:
 729 0076 6946     		mov	r1, sp
 730 0078 FFF7FEFF 		bl	ftoa
 731              	.LVL89:
 732 007c 0C49     		ldr	r1, .L77
 733 007e 0246     		mov	r2, r0
 734 0080 02A8     		add	r0, sp, #8
 735 0082 FFF7FEFF 		bl	sprintf
 736              	.LVL90:
 737 0086 0EE0     		b	.L76
 738              	.LVL91:
 739              	.L69:
 319:.\cli.c       ****     int32_t value = 0;
 740              		.loc 1 319 0
 741 0088 0022     		movs	r2, #0
 742              	.LVL92:
 743              	.L58:
 355:.\cli.c       ****     sprintf(buffer_temp, "%d", (int)value);
 744              		.loc 1 355 0
 745 008a 02A8     		add	r0, sp, #8
 746 008c 0949     		ldr	r1, .L77+4
 747 008e FFF7FEFF 		bl	sprintf
 748              	.LVL93:
 356:.\cli.c       **** 	cliPrint(buffer_temp);
 749              		.loc 1 356 0
 750 0092 02A8     		add	r0, sp, #8
 751 0094 FFF7FEFF 		bl	cliPrint
 752              	.LVL94:
 357:.\cli.c       ****     if (full) {
 753              		.loc 1 357 0
 754 0098 45B1     		cbz	r5, .L57
 358:.\cli.c       ****         sprintf(buffer_temp, " %d %d", (int)var->min, (int)var->max);
 755              		.loc 1 358 0
 756 009a 02A8     		add	r0, sp, #8
 757 009c 0649     		ldr	r1, .L77+8
 758 009e E268     		ldr	r2, [r4, #12]
ARM GAS  C:\Users\Luke\AppData\Local\Temp\ccde8Z2y.s 			page 24


 759 00a0 2369     		ldr	r3, [r4, #16]
 760 00a2 FFF7FEFF 		bl	sprintf
 761              	.LVL95:
 762              	.L76:
 359:.\cli.c       **** 		cliPrint(buffer_temp);
 763              		.loc 1 359 0
 764 00a6 02A8     		add	r0, sp, #8
 765 00a8 FFF7FEFF 		bl	cliPrint
 766              	.LVL96:
 767              	.L57:
 361:.\cli.c       **** }
 768              		.loc 1 361 0
 769 00ac 13B0     		add	sp, sp, #76
 770 00ae 30BD     		pop	{r4, r5, pc}
 771              	.L78:
 772              		.align	2
 773              	.L77:
 774 00b0 94000000 		.word	.LC9
 775 00b4 91000000 		.word	.LC8
 776 00b8 98000000 		.word	.LC10
 777              		.cfi_endproc
 778              	.LFE68:
 779              		.size	cliPrintVar, .-cliPrintVar
 780              		.global	__aeabi_fdiv
 781              		.global	__aeabi_fcmpge
 782              		.global	__aeabi_fcmple
 783              		.section	.text.cliSet,"ax",%progbits
 784              		.align	1
 785              		.thumb
 786              		.thumb_func
 787              		.type	cliSet, %function
 788              	cliSet:
 789              	.LFB70:
 387:.\cli.c       **** {
 790              		.loc 1 387 0
 791              		.cfi_startproc
 792              		@ args = 0, pretend = 0, frame = 72
 793              		@ frame_needed = 0, uses_anonymous_args = 0
 794              	.LVL97:
 795 0000 2DE9F04F 		push	{r4, r5, r6, r7, r8, r9, sl, fp, lr}
 796              	.LCFI14:
 797              		.cfi_def_cfa_offset 36
 798              		.cfi_offset 4, -36
 799              		.cfi_offset 5, -32
 800              		.cfi_offset 6, -28
 801              		.cfi_offset 7, -24
 802              		.cfi_offset 8, -20
 803              		.cfi_offset 9, -16
 804              		.cfi_offset 10, -12
 805              		.cfi_offset 11, -8
 806              		.cfi_offset 14, -4
 807 0004 93B0     		sub	sp, sp, #76
 808              	.LCFI15:
 809              		.cfi_def_cfa_offset 112
 387:.\cli.c       **** {
 810              		.loc 1 387 0
 811 0006 0546     		mov	r5, r0
ARM GAS  C:\Users\Luke\AppData\Local\Temp\ccde8Z2y.s 			page 25


 396:.\cli.c       ****     len = strlen(cmdline);
 812              		.loc 1 396 0
 813 0008 FFF7FEFF 		bl	strlen
 814              	.LVL98:
 398:.\cli.c       ****     if (len == 0 || (len == 1 && cmdline[0] == '*')) {
 815              		.loc 1 398 0
 816 000c 0646     		mov	r6, r0
 817 000e 20B1     		cbz	r0, .L80
 398:.\cli.c       ****     if (len == 0 || (len == 1 && cmdline[0] == '*')) {
 818              		.loc 1 398 0 is_stmt 0 discriminator 1
 819 0010 0128     		cmp	r0, #1
 820 0012 1CD1     		bne	.L81
 821 0014 2B78     		ldrb	r3, [r5, #0]	@ zero_extendqisi2
 822 0016 2A2B     		cmp	r3, #42
 823 0018 19D1     		bne	.L81
 824              	.L80:
 399:.\cli.c       ****         cliPrint("Current settings: \r\n");
 825              		.loc 1 399 0 is_stmt 1
 826 001a 9A48     		ldr	r0, .L161
 827              	.LVL99:
 828 001c FFF7FEFF 		bl	cliPrint
 829              	.LVL100:
 400:.\cli.c       ****         for (i = 0; i < VALUE_COUNT; i++) {
 830              		.loc 1 400 0
 831 0020 0024     		movs	r4, #0
 832              	.LVL101:
 833              	.L82:
 386:.\cli.c       **** static void cliSet(char *cmdline)
 834              		.loc 1 386 0 discriminator 2
 835 0022 1425     		movs	r5, #20
 836 0024 6543     		muls	r5, r4, r5
 402:.\cli.c       ****             sprintf(buffer_temp, "%s = ", valueTable[i].name);
 837              		.loc 1 402 0 discriminator 2
 838 0026 984F     		ldr	r7, .L161+4
 839 0028 9849     		ldr	r1, .L161+8
 840 002a EA59     		ldr	r2, [r5, r7]
 841 002c 02A8     		add	r0, sp, #8
 842 002e FFF7FEFF 		bl	sprintf
 843              	.LVL102:
 403:.\cli.c       **** 			cliPrint(buffer_temp);
 844              		.loc 1 403 0 discriminator 2
 845 0032 02A8     		add	r0, sp, #8
 846 0034 FFF7FEFF 		bl	cliPrint
 847              	.LVL103:
 404:.\cli.c       ****             cliPrintVar(val, len); // when len is 1 (when * is passed as argument), it will print m
 848              		.loc 1 404 0 discriminator 2
 849 0038 7819     		adds	r0, r7, r5
 850 003a 3146     		mov	r1, r6
 851 003c FFF7FEFF 		bl	cliPrintVar
 852              	.LVL104:
 400:.\cli.c       ****         for (i = 0; i < VALUE_COUNT; i++) {
 853              		.loc 1 400 0 discriminator 2
 854 0040 0134     		adds	r4, r4, #1
 855              	.LVL105:
 405:.\cli.c       ****             cliPrint("\r\n");
 856              		.loc 1 405 0 discriminator 2
 857 0042 9348     		ldr	r0, .L161+12
ARM GAS  C:\Users\Luke\AppData\Local\Temp\ccde8Z2y.s 			page 26


 858 0044 FFF7FEFF 		bl	cliPrint
 859              	.LVL106:
 400:.\cli.c       ****         for (i = 0; i < VALUE_COUNT; i++) {
 860              		.loc 1 400 0 discriminator 2
 861 0048 042C     		cmp	r4, #4
 862 004a EAD1     		bne	.L82
 863 004c 16E1     		b	.L79
 864              	.LVL107:
 865              	.L81:
 407:.\cli.c       ****     } else if ((eqptr = strstr(cmdline, "=")) != NULL) {
 866              		.loc 1 407 0
 867 004e 2846     		mov	r0, r5
 868              	.LVL108:
 869 0050 3D21     		movs	r1, #61
 870 0052 FFF7FEFF 		bl	strchr
 871              	.LVL109:
 872 0056 0028     		cmp	r0, #0
 873 0058 00F0F380 		beq	.L123
 409:.\cli.c       ****         eqptr++;
 874              		.loc 1 409 0
 875 005c 441C     		adds	r4, r0, #1
 876              	.LVL110:
 411:.\cli.c       ****         value = atoi(eqptr);
 877              		.loc 1 411 0
 878 005e 2046     		mov	r0, r4
 879 0060 FFF7FEFF 		bl	atoi
 880              	.LVL111:
 881 0064 0746     		mov	r7, r0
 882              	.LVL112:
 883 0066 2046     		mov	r0, r4
 884              	.LVL113:
 885              	.L153:
 886              	.LBB9:
 887              	.LBB10:
 144:.\cli.c       ****     while (white_space(*p) ) {
 888              		.loc 1 144 0
 889 0068 0278     		ldrb	r2, [r0, #0]	@ zero_extendqisi2
 890 006a 0146     		mov	r1, r0
 891              	.LVL114:
 892 006c 0130     		adds	r0, r0, #1
 893              	.LVL115:
 894 006e 202A     		cmp	r2, #32
 895 0070 FAD0     		beq	.L153
 896 0072 092A     		cmp	r2, #9
 897 0074 F8D0     		beq	.L153
 898              	.LVL116:
 150:.\cli.c       ****     if (*p == '-') {
 899              		.loc 1 150 0
 900 0076 2D2A     		cmp	r2, #45
 901 0078 03D1     		bne	.L87
 902              	.LVL117:
 152:.\cli.c       ****         p += 1;
 903              		.loc 1 152 0
 904 007a 0146     		mov	r1, r0
 905              	.LVL118:
 151:.\cli.c       ****         sign = -1.0f;
 906              		.loc 1 151 0
ARM GAS  C:\Users\Luke\AppData\Local\Temp\ccde8Z2y.s 			page 27


 907 007c DFF82882 		ldr	r8, .L161+36
 908 0080 04E0     		b	.L88
 909              	.LVL119:
 910              	.L87:
 154:.\cli.c       ****     } else if (*p == '+') {
 911              		.loc 1 154 0
 912 0082 2B2A     		cmp	r2, #43
 155:.\cli.c       ****         p += 1;
 913              		.loc 1 155 0
 914 0084 08BF     		it	eq
 915 0086 0146     		moveq	r1, r0
 916              	.LVL120:
 149:.\cli.c       ****     sign = 1.0f;
 917              		.loc 1 149 0
 918 0088 4FF07E58 		mov	r8, #1065353216
 919              	.LVL121:
 920              	.L88:
 921 008c 0E46     		mov	r6, r1
 159:.\cli.c       ****     value = 0.0f;
 922              		.loc 1 159 0
 923 008e 0024     		movs	r4, #0
 924              	.LVL122:
 925              	.L89:
 926 0090 3346     		mov	r3, r6
 927              	.LVL123:
 160:.\cli.c       ****     while (valid_digit(*p)) {
 928              		.loc 1 160 0
 929 0092 16F8012B 		ldrb	r2, [r6], #1	@ zero_extendqisi2
 930 0096 A2F13009 		sub	r9, r2, #48
 931 009a 5FFA89F1 		uxtb	r1, r9
 932 009e 0929     		cmp	r1, #9
 933 00a0 0DD8     		bhi	.L157
 934              	.L90:
 161:.\cli.c       ****         value = value * 10.0f + (*p - '0');
 935              		.loc 1 161 0
 936 00a2 7C49     		ldr	r1, .L161+16
 937 00a4 2046     		mov	r0, r4
 938 00a6 FFF7FEFF 		bl	__aeabi_fmul
 939              	.LVL124:
 940 00aa 0446     		mov	r4, r0
 941              	.LVL125:
 942 00ac 4846     		mov	r0, r9
 943 00ae FFF7FEFF 		bl	__aeabi_i2f
 944              	.LVL126:
 945 00b2 0146     		mov	r1, r0
 946 00b4 2046     		mov	r0, r4
 947 00b6 FFF7FEFF 		bl	__aeabi_fadd
 948              	.LVL127:
 949 00ba 0446     		mov	r4, r0
 950              	.LVL128:
 951 00bc E8E7     		b	.L89
 952              	.LVL129:
 953              	.L157:
 166:.\cli.c       ****     if (*p == '.') {
 954              		.loc 1 166 0
 955 00be 2E2A     		cmp	r2, #46
 956 00c0 18D1     		bne	.L91
ARM GAS  C:\Users\Luke\AppData\Local\Temp\ccde8Z2y.s 			page 28


 957              	.LVL130:
 958              	.LBB11:
 167:.\cli.c       ****         float pow10 = 10.0f;
 959              		.loc 1 167 0
 960 00c2 DFF8D0A1 		ldr	sl, .L161+16
 961              	.LVL131:
 962              	.L92:
 963 00c6 3346     		mov	r3, r6
 964              	.LVL132:
 170:.\cli.c       ****         while (valid_digit(*p)) {
 965              		.loc 1 170 0
 966 00c8 16F8010B 		ldrb	r0, [r6], #1	@ zero_extendqisi2
 967 00cc 3038     		subs	r0, r0, #48
 968 00ce C2B2     		uxtb	r2, r0
 969 00d0 092A     		cmp	r2, #9
 970 00d2 0FD8     		bhi	.L91
 971              	.L93:
 171:.\cli.c       ****             value += (*p - '0') / pow10;
 972              		.loc 1 171 0
 973 00d4 FFF7FEFF 		bl	__aeabi_i2f
 974              	.LVL133:
 975 00d8 5146     		mov	r1, sl
 976 00da FFF7FEFF 		bl	__aeabi_fdiv
 977              	.LVL134:
 978 00de 0146     		mov	r1, r0
 979 00e0 2046     		mov	r0, r4
 980 00e2 FFF7FEFF 		bl	__aeabi_fadd
 981              	.LVL135:
 172:.\cli.c       ****             pow10 *= 10.0f;
 982              		.loc 1 172 0
 983 00e6 6B49     		ldr	r1, .L161+16
 171:.\cli.c       ****             value += (*p - '0') / pow10;
 984              		.loc 1 171 0
 985 00e8 0446     		mov	r4, r0
 986              	.LVL136:
 172:.\cli.c       ****             pow10 *= 10.0f;
 987              		.loc 1 172 0
 988 00ea 5046     		mov	r0, sl
 989              	.LVL137:
 990 00ec FFF7FEFF 		bl	__aeabi_fmul
 991              	.LVL138:
 992 00f0 8246     		mov	sl, r0
 993              	.LVL139:
 994 00f2 E8E7     		b	.L92
 995              	.LVL140:
 996              	.L91:
 997              	.LBE11:
 179:.\cli.c       ****     if ((*p == 'e') || (*p == 'E')) {
 998              		.loc 1 179 0
 999 00f4 1E78     		ldrb	r6, [r3, #0]	@ zero_extendqisi2
 1000 00f6 652E     		cmp	r6, #101
 1001 00f8 01D0     		beq	.L94
 1002 00fa 452E     		cmp	r6, #69
 1003 00fc 3DD1     		bne	.L125
 1004              	.L94:
 1005              	.LVL141:
 1006              	.LBB12:
ARM GAS  C:\Users\Luke\AppData\Local\Temp\ccde8Z2y.s 			page 29


 185:.\cli.c       ****         if (*p == '-') {
 1007              		.loc 1 185 0
 1008 00fe 5878     		ldrb	r0, [r3, #1]	@ zero_extendqisi2
 1009 0100 2D28     		cmp	r0, #45
 1010 0102 02D1     		bne	.L96
 1011              	.LVL142:
 187:.\cli.c       ****             p += 1;
 1012              		.loc 1 187 0
 1013 0104 991C     		adds	r1, r3, #2
 1014              	.LVL143:
 186:.\cli.c       ****             frac = 1;
 1015              		.loc 1 186 0
 1016 0106 0126     		movs	r6, #1
 1017 0108 05E0     		b	.L97
 1018              	.LVL144:
 1019              	.L96:
 189:.\cli.c       ****         } else if (*p == '+') {
 1020              		.loc 1 189 0
 1021 010a 2B28     		cmp	r0, #43
 1022 010c 01D0     		beq	.L98
 181:.\cli.c       ****         p += 1;
 1023              		.loc 1 181 0
 1024 010e 591C     		adds	r1, r3, #1
 1025 0110 00E0     		b	.L154
 1026              	.L98:
 190:.\cli.c       ****             p += 1;
 1027              		.loc 1 190 0
 1028 0112 991C     		adds	r1, r3, #2
 1029              	.L154:
 1030              	.LVL145:
 184:.\cli.c       ****         frac = 0;
 1031              		.loc 1 184 0
 1032 0114 0026     		movs	r6, #0
 1033              	.LVL146:
 1034              	.L97:
 386:.\cli.c       **** static void cliSet(char *cmdline)
 1035              		.loc 1 386 0
 1036 0116 4B1E     		subs	r3, r1, #1
 194:.\cli.c       ****         expon = 0;
 1037              		.loc 1 194 0
 1038 0118 4FF00009 		mov	r9, #0
 1039              	.LVL147:
 1040              	.L99:
 195:.\cli.c       ****         while (valid_digit(*p)) {
 1041              		.loc 1 195 0
 1042 011c 13F8012F 		ldrb	r2, [r3, #1]!	@ zero_extendqisi2
 1043 0120 303A     		subs	r2, r2, #48
 1044 0122 D0B2     		uxtb	r0, r2
 1045 0124 0928     		cmp	r0, #9
 1046 0126 03D8     		bhi	.L158
 1047              	.L100:
 196:.\cli.c       ****             expon = expon * 10 + (*p - '0');
 1048              		.loc 1 196 0
 1049 0128 0A20     		movs	r0, #10
 1050 012a 00FB0929 		mla	r9, r0, r9, r2
 1051              	.LVL148:
 1052 012e F5E7     		b	.L99
ARM GAS  C:\Users\Luke\AppData\Local\Temp\ccde8Z2y.s 			page 30


 1053              	.L158:
 200:.\cli.c       ****             expon = 308;
 1054              		.loc 1 200 0
 1055 0130 B9F59A7F 		cmp	r9, #308
 1056 0134 28BF     		it	cs
 1057 0136 4FF49A79 		movcs	r9, #308
 1058              	.LVL149:
 1059 013a CB46     		mov	fp, r9
 1060 013c 4FF07E51 		mov	r1, #1065353216
 1061              	.LVL150:
 1062              	.L102:
 204:.\cli.c       ****         while (expon >=  8) { scale *= 1E8f;  expon -=  8; }
 1063              		.loc 1 204 0
 1064 0140 BBF1070F 		cmp	fp, #7
 1065 0144 07D9     		bls	.L159
 1066              	.L103:
 1067 0146 0846     		mov	r0, r1
 1068 0148 5349     		ldr	r1, .L161+20
 1069              	.LVL151:
 1070 014a FFF7FEFF 		bl	__aeabi_fmul
 1071              	.LVL152:
 1072 014e ABF1080B 		sub	fp, fp, #8
 1073              	.LVL153:
 1074 0152 0146     		mov	r1, r0
 1075              	.LVL154:
 1076 0154 F4E7     		b	.L102
 1077              	.LVL155:
 1078              	.L159:
 1079 0156 09F0070A 		and	sl, r9, #7
 1080              	.LVL156:
 1081              	.L104:
 205:.\cli.c       ****         while (expon >   0) { scale *= 10.0f; expon -=  1; }
 1082              		.loc 1 205 0
 1083 015a BAF1000F 		cmp	sl, #0
 1084 015e 07D0     		beq	.L160
 1085              	.L105:
 1086 0160 0846     		mov	r0, r1
 1087 0162 4C49     		ldr	r1, .L161+16
 1088              	.LVL157:
 1089 0164 FFF7FEFF 		bl	__aeabi_fmul
 1090              	.LVL158:
 1091 0168 0AF1FF3A 		add	sl, sl, #-1
 1092              	.LVL159:
 1093 016c 0146     		mov	r1, r0
 1094              	.LVL160:
 1095 016e F4E7     		b	.L104
 1096              	.LVL161:
 1097              	.L160:
 1098              	.LBE12:
 209:.\cli.c       ****     return sign * (frac ? (value / scale) : (value * scale));
 1099              		.loc 1 209 0
 1100 0170 2EB1     		cbz	r6, .L95
 1101 0172 2046     		mov	r0, r4
 1102 0174 FFF7FEFF 		bl	__aeabi_fdiv
 1103              	.LVL162:
 1104 0178 04E0     		b	.L155
 1105              	.LVL163:
ARM GAS  C:\Users\Luke\AppData\Local\Temp\ccde8Z2y.s 			page 31


 1106              	.L125:
 178:.\cli.c       ****     scale = 1.0f;
 1107              		.loc 1 178 0
 1108 017a 4FF07E51 		mov	r1, #1065353216
 1109              	.LVL164:
 1110              	.L95:
 209:.\cli.c       ****     return sign * (frac ? (value / scale) : (value * scale));
 1111              		.loc 1 209 0
 1112 017e 2046     		mov	r0, r4
 1113 0180 FFF7FEFF 		bl	__aeabi_fmul
 1114              	.LVL165:
 1115              	.L155:
 1116 0184 0346     		mov	r3, r0
 1117              	.LVL166:
 413:.\cli.c       ****         for (i = 0; i < VALUE_COUNT; i++) {
 1118              		.loc 1 413 0
 1119 0186 0026     		movs	r6, #0
 1120              	.LVL167:
 1121              	.L119:
 1122              	.LBE10:
 1123              	.LBE9:
 386:.\cli.c       **** static void cliSet(char *cmdline)
 1124              		.loc 1 386 0
 1125 0188 4FF0140B 		mov	fp, #20
 1126 018c 0BFB06FB 		mul	fp, fp, r6
 415:.\cli.c       ****             if (strncasecmp(cmdline, valueTable[i].name, strlen(valueTable[i].name)) == 0) {
 1127              		.loc 1 415 0
 1128 0190 DFF818A1 		ldr	sl, .L161+40
 1129 0194 0193     		str	r3, [sp, #4]
 1130 0196 0AF14804 		add	r4, sl, #72
 1131 019a 5BF80490 		ldr	r9, [fp, r4]
 1132 019e 4846     		mov	r0, r9
 1133 01a0 FFF7FEFF 		bl	strlen
 1134              	.LVL168:
 1135 01a4 4946     		mov	r1, r9
 1136 01a6 0246     		mov	r2, r0
 1137 01a8 2846     		mov	r0, r5
 1138 01aa FFF7FEFF 		bl	strncasecmp
 1139              	.LVL169:
 1140 01ae 019B     		ldr	r3, [sp, #4]
 1141 01b0 0028     		cmp	r0, #0
 1142 01b2 3FD1     		bne	.L107
 1143              	.LBB15:
 1144              	.LBB13:
 209:.\cli.c       ****     return sign * (frac ? (value / scale) : (value * scale));
 1145              		.loc 1 209 0
 1146 01b4 1946     		mov	r1, r3
 1147 01b6 4046     		mov	r0, r8
 1148 01b8 FFF7FEFF 		bl	__aeabi_fmul
 1149              	.LVL170:
 1150              	.LBE13:
 1151              	.LBE15:
 416:.\cli.c       ****                 if (valuef >= valueTable[i].min && valuef <= valueTable[i].max) { // here we compar
 1152              		.loc 1 416 0
 1153 01bc 0AEB0B06 		add	r6, sl, fp
 1154              	.LVL171:
 1155              	.LBB16:
ARM GAS  C:\Users\Luke\AppData\Local\Temp\ccde8Z2y.s 			page 32


 1156              	.LBB14:
 209:.\cli.c       ****     return sign * (frac ? (value / scale) : (value * scale));
 1157              		.loc 1 209 0
 1158 01c0 0546     		mov	r5, r0
 1159              	.LVL172:
 1160              	.LBE14:
 1161              	.LBE16:
 416:.\cli.c       ****                 if (valuef >= valueTable[i].min && valuef <= valueTable[i].max) { // here we compar
 1162              		.loc 1 416 0
 1163 01c2 706D     		ldr	r0, [r6, #84]
 1164 01c4 FFF7FEFF 		bl	__aeabi_i2f
 1165              	.LVL173:
 1166 01c8 0146     		mov	r1, r0
 1167 01ca 2846     		mov	r0, r5
 414:.\cli.c       ****             val = &valueTable[i];
 1168              		.loc 1 414 0
 1169 01cc 5C44     		add	r4, r4, fp
 416:.\cli.c       ****                 if (valuef >= valueTable[i].min && valuef <= valueTable[i].max) { // here we compar
 1170              		.loc 1 416 0
 1171 01ce FFF7FEFF 		bl	__aeabi_fcmpge
 1172              	.LVL174:
 1173 01d2 0028     		cmp	r0, #0
 1174 01d4 2CD0     		beq	.L108
 416:.\cli.c       ****                 if (valuef >= valueTable[i].min && valuef <= valueTable[i].max) { // here we compar
 1175              		.loc 1 416 0 is_stmt 0 discriminator 1
 1176 01d6 B06D     		ldr	r0, [r6, #88]
 1177 01d8 FFF7FEFF 		bl	__aeabi_i2f
 1178              	.LVL175:
 1179 01dc 0146     		mov	r1, r0
 1180 01de 2846     		mov	r0, r5
 1181 01e0 FFF7FEFF 		bl	__aeabi_fcmple
 1182              	.LVL176:
 1183 01e4 20B3     		cbz	r0, .L108
 1184              	.LBB17:
 418:.\cli.c       ****                     if (valueTable[i].type == VAR_FLOAT)
 1185              		.loc 1 418 0 is_stmt 1
 1186 01e6 96F84C10 		ldrb	r1, [r6, #76]	@ zero_extendqisi2
 1187              	.LBB18:
 1188              	.LBB19:
 365:.\cli.c       ****     switch (var->type) {
 1189              		.loc 1 365 0
 1190 01ea 2279     		ldrb	r2, [r4, #4]	@ zero_extendqisi2
 1191              	.LBE19:
 1192              	.LBE18:
 418:.\cli.c       ****                     if (valueTable[i].type == VAR_FLOAT)
 1193              		.loc 1 418 0
 1194 01ec 0529     		cmp	r1, #5
 419:.\cli.c       ****                         tmp.float_value = valuef;
 1195              		.loc 1 419 0
 1196 01ee 08BF     		it	eq
 1197 01f0 2F46     		moveq	r7, r5
 1198              	.LVL177:
 1199              	.LBB21:
 1200              	.LBB20:
 365:.\cli.c       ****     switch (var->type) {
 1201              		.loc 1 365 0
 1202 01f2 052A     		cmp	r2, #5
ARM GAS  C:\Users\Luke\AppData\Local\Temp\ccde8Z2y.s 			page 33


 1203 01f4 0FD8     		bhi	.L112
 1204 01f6 DFE802F0 		tbb	[pc, r2]
 1205              	.L117:
 1206 01fa 03       		.byte	(.L113-.L117)/2
 1207 01fb 03       		.byte	(.L113-.L117)/2
 1208 01fc 06       		.byte	(.L114-.L117)/2
 1209 01fd 06       		.byte	(.L114-.L117)/2
 1210 01fe 09       		.byte	(.L115-.L117)/2
 1211 01ff 0C       		.byte	(.L116-.L117)/2
 1212              		.align	1
 1213              	.L113:
 368:.\cli.c       ****             *(char *)var->ptr = (char)value.int_value;
 1214              		.loc 1 368 0
 1215 0200 A368     		ldr	r3, [r4, #8]
 1216 0202 1F70     		strb	r7, [r3, #0]
 1217 0204 07E0     		b	.L112
 1218              	.L114:
 373:.\cli.c       ****             *(short *)var->ptr = (short)value.int_value;
 1219              		.loc 1 373 0
 1220 0206 A268     		ldr	r2, [r4, #8]
 1221 0208 1780     		strh	r7, [r2, #0]	@ movhi
 1222 020a 04E0     		b	.L112
 1223              	.L115:
 377:.\cli.c       ****             *(int *)var->ptr = (int)value.int_value;
 1224              		.loc 1 377 0
 1225 020c A168     		ldr	r1, [r4, #8]
 1226 020e 0F60     		str	r7, [r1, #0]
 1227 0210 01E0     		b	.L112
 1228              	.L116:
 381:.\cli.c       ****             *(float *)var->ptr = (float)value.float_value;
 1229              		.loc 1 381 0
 1230 0212 A368     		ldr	r3, [r4, #8]
 1231 0214 1F60     		str	r7, [r3, #0]	@ float
 1232              	.L112:
 1233              	.LBE20:
 1234              	.LBE21:
 423:.\cli.c       ****                     sprintf(buffer_temp, "%s set to ", valueTable[i].name);
 1235              		.loc 1 423 0
 1236 0216 2149     		ldr	r1, .L161+24
 1237 0218 4A46     		mov	r2, r9
 1238 021a 02A8     		add	r0, sp, #8
 1239 021c FFF7FEFF 		bl	sprintf
 1240              	.LVL178:
 424:.\cli.c       **** 					cliPrint(buffer_temp);
 1241              		.loc 1 424 0
 1242 0220 02A8     		add	r0, sp, #8
 1243 0222 FFF7FEFF 		bl	cliPrint
 1244              	.LVL179:
 425:.\cli.c       ****                     cliPrintVar(val, 0);
 1245              		.loc 1 425 0
 1246 0226 2046     		mov	r0, r4
 1247 0228 0021     		movs	r1, #0
 1248 022a FFF7FEFF 		bl	cliPrintVar
 1249              	.LVL180:
 1250              	.LBE17:
 416:.\cli.c       ****                 if (valuef >= valueTable[i].min && valuef <= valueTable[i].max) { // here we compar
 1251              		.loc 1 416 0
ARM GAS  C:\Users\Luke\AppData\Local\Temp\ccde8Z2y.s 			page 34


 1252 022e 25E0     		b	.L79
 1253              	.LVL181:
 1254              	.L108:
 427:.\cli.c       ****                     cliPrint("ERR: Value assignment out of range\r\n");
 1255              		.loc 1 427 0
 1256 0230 1B48     		ldr	r0, .L161+28
 1257 0232 03E0     		b	.L156
 1258              	.LVL182:
 1259              	.L107:
 413:.\cli.c       ****         for (i = 0; i < VALUE_COUNT; i++) {
 1260              		.loc 1 413 0
 1261 0234 0136     		adds	r6, r6, #1
 1262              	.LVL183:
 1263 0236 042E     		cmp	r6, #4
 1264 0238 A6D1     		bne	.L119
 432:.\cli.c       ****         cliPrint("ERR: Unknown variable name\r\n");
 1265              		.loc 1 432 0
 1266 023a 1A48     		ldr	r0, .L161+32
 1267              	.LVL184:
 1268              	.L156:
 1269 023c FFF7FEFF 		bl	cliPrint
 1270              	.LVL185:
 1271 0240 1CE0     		b	.L79
 1272              	.LVL186:
 1273              	.L123:
 407:.\cli.c       ****     } else if ((eqptr = strstr(cmdline, "=")) != NULL) {
 1274              		.loc 1 407 0
 1275 0242 0446     		mov	r4, r0
 1276              	.LVL187:
 1277              	.L84:
 386:.\cli.c       **** static void cliSet(char *cmdline)
 1278              		.loc 1 386 0
 1279 0244 1426     		movs	r6, #20
 1280 0246 6643     		muls	r6, r4, r6
 436:.\cli.c       ****             if (strstr(valueTable[i].name, cmdline)) {
 1281              		.loc 1 436 0
 1282 0248 0F4F     		ldr	r7, .L161+4
 1283 024a 2946     		mov	r1, r5
 1284 024c 56F80780 		ldr	r8, [r6, r7]
 1285 0250 4046     		mov	r0, r8
 1286 0252 FFF7FEFF 		bl	strstr
 1287              	.LVL188:
 1288 0256 70B1     		cbz	r0, .L120
 1289              	.LVL189:
 438:.\cli.c       ****                 sprintf(buffer_temp, "%s = ", valueTable[i].name);
 1290              		.loc 1 438 0
 1291 0258 0C49     		ldr	r1, .L161+8
 1292 025a 4246     		mov	r2, r8
 1293 025c 02A8     		add	r0, sp, #8
 1294 025e FFF7FEFF 		bl	sprintf
 1295              	.LVL190:
 439:.\cli.c       **** 				cliPrint(buffer_temp);
 1296              		.loc 1 439 0
 1297 0262 02A8     		add	r0, sp, #8
 1298 0264 FFF7FEFF 		bl	cliPrint
 1299              	.LVL191:
 440:.\cli.c       ****                 cliPrintVar(val, 0);
ARM GAS  C:\Users\Luke\AppData\Local\Temp\ccde8Z2y.s 			page 35


 1300              		.loc 1 440 0
 1301 0268 B819     		adds	r0, r7, r6
 1302 026a 0021     		movs	r1, #0
 1303 026c FFF7FEFF 		bl	cliPrintVar
 1304              	.LVL192:
 441:.\cli.c       ****                 cliPrint("\r\n");
 1305              		.loc 1 441 0
 1306 0270 0748     		ldr	r0, .L161+12
 1307 0272 FFF7FEFF 		bl	cliPrint
 1308              	.LVL193:
 1309              	.L120:
 435:.\cli.c       ****         for (i = 0; i < VALUE_COUNT; i++) {
 1310              		.loc 1 435 0
 1311 0276 0134     		adds	r4, r4, #1
 1312              	.LVL194:
 1313 0278 042C     		cmp	r4, #4
 1314 027a E3D1     		bne	.L84
 1315              	.LVL195:
 1316              	.L79:
 445:.\cli.c       **** }
 1317              		.loc 1 445 0
 1318 027c 13B0     		add	sp, sp, #76
 1319 027e BDE8F08F 		pop	{r4, r5, r6, r7, r8, r9, sl, fp, pc}
 1320              	.L162:
 1321 0282 00BF     		.align	2
 1322              	.L161:
 1323 0284 9F000000 		.word	.LC11
 1324 0288 48000000 		.word	.LANCHOR0+72
 1325 028c B4000000 		.word	.LC12
 1326 0290 BA000000 		.word	.LC13
 1327 0294 00002041 		.word	1092616192
 1328 0298 20BCBE4C 		.word	1287568416
 1329 029c BD000000 		.word	.LC14
 1330 02a0 C8000000 		.word	.LC15
 1331 02a4 ED000000 		.word	.LC16
 1332 02a8 000080BF 		.word	-1082130432
 1333 02ac 00000000 		.word	.LANCHOR0
 1334              		.cfi_endproc
 1335              	.LFE70:
 1336              		.size	cliSet, .-cliSet
 1337              		.section	.text.cliProcess,"ax",%progbits
 1338              		.align	1
 1339              		.global	cliProcess
 1340              		.thumb
 1341              		.thumb_func
 1342              		.type	cliProcess, %function
 1343              	cliProcess:
 1344              	.LFB72:
 457:.\cli.c       **** 
 458:.\cli.c       **** void cliProcess(void)
 459:.\cli.c       **** {
 1345              		.loc 1 459 0
 1346              		.cfi_startproc
 1347              		@ args = 0, pretend = 0, frame = 80
 1348              		@ frame_needed = 0, uses_anonymous_args = 0
 1349 0000 2DE9F043 		push	{r4, r5, r6, r7, r8, r9, lr}
 1350              	.LCFI16:
ARM GAS  C:\Users\Luke\AppData\Local\Temp\ccde8Z2y.s 			page 36


 1351              		.cfi_def_cfa_offset 28
 1352              		.cfi_offset 4, -28
 1353              		.cfi_offset 5, -24
 1354              		.cfi_offset 6, -20
 1355              		.cfi_offset 7, -16
 1356              		.cfi_offset 8, -12
 1357              		.cfi_offset 9, -8
 1358              		.cfi_offset 14, -4
 460:.\cli.c       **** 	int count, i;
 461:.\cli.c       **** 	uint8_t buffer[64];
 462:.\cli.c       **** 	
 463:.\cli.c       ****     if (!cliMode) {
 1359              		.loc 1 463 0
 1360 0004 664B     		ldr	r3, .L243
 459:.\cli.c       **** {
 1361              		.loc 1 459 0
 1362 0006 97B0     		sub	sp, sp, #92
 1363              	.LCFI17:
 1364              		.cfi_def_cfa_offset 120
 1365              		.loc 1 463 0
 1366 0008 1A78     		ldrb	r2, [r3, #0]	@ zero_extendqisi2
 1367 000a 3AB9     		cbnz	r2, .L164
 464:.\cli.c       ****         cliMode = 1;
 1368              		.loc 1 464 0
 1369 000c 0120     		movs	r0, #1
 1370 000e 1870     		strb	r0, [r3, #0]
 465:.\cli.c       ****         cliPrint("\r\nEntering CLI Mode, type 'exit' to return, or 'help'\r\n");
 1371              		.loc 1 465 0
 1372 0010 6448     		ldr	r0, .L243+4
 1373 0012 FFF7FEFF 		bl	cliPrint
 1374              	.LVL196:
 1375              	.LBB33:
 1376              	.LBB34:
 265:.\cli.c       ****     cliPrint("\r\n# ");
 1377              		.loc 1 265 0
 1378 0016 6448     		ldr	r0, .L243+8
 1379 0018 FFF7FEFF 		bl	cliPrint
 1380              	.LVL197:
 1381              	.L164:
 1382              	.LBE34:
 1383              	.LBE33:
 466:.\cli.c       ****         cliPrompt();
 467:.\cli.c       ****     }
 468:.\cli.c       **** 	
 469:.\cli.c       **** 	count = USBUART_1_GetCount();
 1384              		.loc 1 469 0
 1385 001c FFF7FEFF 		bl	USBUART_1_GetCount
 1386              	.LVL198:
 470:.\cli.c       **** 	if(count)
 1387              		.loc 1 470 0
 1388 0020 8046     		mov	r8, r0
 1389 0022 0028     		cmp	r0, #0
 1390 0024 00F0B880 		beq	.L163
 471:.\cli.c       **** 	USBUART_1_GetAll(buffer);
 1391              		.loc 1 471 0
 1392 0028 06A8     		add	r0, sp, #24
 1393              	.LVL199:
ARM GAS  C:\Users\Luke\AppData\Local\Temp\ccde8Z2y.s 			page 37


 1394 002a FFF7FEFF 		bl	USBUART_1_GetAll
 1395              	.LVL200:
 472:.\cli.c       **** 	else return;
 473:.\cli.c       **** 		
 474:.\cli.c       **** 	for(i=0; i<count;i++)
 1396              		.loc 1 474 0
 1397 002e 0027     		movs	r7, #0
 1398              	.LVL201:
 1399              	.L193:
 1400              	.LBB35:
 475:.\cli.c       **** 	{	
 476:.\cli.c       ****         uint8_t c = buffer[i];
 1401              		.loc 1 476 0
 1402 0030 06A9     		add	r1, sp, #24
 1403 0032 7B5C     		ldrb	r3, [r7, r1]	@ zero_extendqisi2
 1404              	.LVL202:
 1405 0034 5D48     		ldr	r0, .L243+12
 477:.\cli.c       ****         if (c == '\t' || c == '?') {
 1406              		.loc 1 477 0
 1407 0036 092B     		cmp	r3, #9
 1408 0038 01D0     		beq	.L166
 1409              		.loc 1 477 0 is_stmt 0 discriminator 1
 1410 003a 3F2B     		cmp	r3, #63
 1411 003c 4DD1     		bne	.L167
 1412              	.L166:
 1413              	.LVL203:
 1414              	.LBB36:
 478:.\cli.c       ****             // do tab completion
 479:.\cli.c       ****             const clicmd_t *cmd, *pstart = NULL, *pend = NULL;
 1415              		.loc 1 479 0 is_stmt 1
 1416 003e 0025     		movs	r5, #0
 480:.\cli.c       ****             int i = bufferIndex;
 1417              		.loc 1 480 0
 1418 0040 D0F83090 		ldr	r9, [r0, #48]
 1419              	.LVL204:
 481:.\cli.c       ****             for (cmd = cmdTable; cmd < cmdTable + CMD_COUNT; cmd++) {
 1420              		.loc 1 481 0
 1421 0044 5A4C     		ldr	r4, .L243+16
 479:.\cli.c       ****             const clicmd_t *cmd, *pstart = NULL, *pend = NULL;
 1422              		.loc 1 479 0
 1423 0046 2E46     		mov	r6, r5
 1424              	.LVL205:
 1425              	.L170:
 482:.\cli.c       ****                 if (bufferIndex && (strncasecmp(cliBuffer, cmd->name, bufferIndex) != 0))
 1426              		.loc 1 482 0
 1427 0048 B9F1000F 		cmp	r9, #0
 1428 004c 05D0     		beq	.L168
 1429              		.loc 1 482 0 is_stmt 0 discriminator 1
 1430 004e 5748     		ldr	r0, .L243+12
 1431 0050 2168     		ldr	r1, [r4, #0]
 1432 0052 4A46     		mov	r2, r9
 1433 0054 FFF7FEFF 		bl	strncasecmp
 1434              	.LVL206:
 1435 0058 10B9     		cbnz	r0, .L169
 1436              	.L168:
 483:.\cli.c       ****                     continue;
 484:.\cli.c       ****                 if (!pstart)
ARM GAS  C:\Users\Luke\AppData\Local\Temp\ccde8Z2y.s 			page 38


 1437              		.loc 1 484 0 is_stmt 1
 1438 005a 2546     		mov	r5, r4
 1439 005c 06B9     		cbnz	r6, .L169
 1440              	.L200:
 1441 005e 2646     		mov	r6, r4
 1442              	.L169:
 1443              	.LVL207:
 481:.\cli.c       ****             for (cmd = cmdTable; cmd < cmdTable + CMD_COUNT; cmd++) {
 1444              		.loc 1 481 0
 1445 0060 544B     		ldr	r3, .L243+20
 1446 0062 0C34     		adds	r4, r4, #12
 1447              	.LVL208:
 1448 0064 9C42     		cmp	r4, r3
 1449 0066 EFD3     		bcc	.L170
 485:.\cli.c       ****                     pstart = cmd;
 486:.\cli.c       ****                 pend = cmd;
 487:.\cli.c       ****             }
 488:.\cli.c       ****             if (pstart) {    /* Buffer matches one or more commands */
 1450              		.loc 1 488 0
 1451 0068 B6B1     		cbz	r6, .L174
 489:.\cli.c       ****                 for (; ; bufferIndex++) {
 490:.\cli.c       ****                     if (pstart->name[bufferIndex] != pend->name[bufferIndex])
 1452              		.loc 1 490 0
 1453 006a 3468     		ldr	r4, [r6, #0]
 1454              	.LVL209:
 1455 006c D5F800C0 		ldr	ip, [r5, #0]
 1456 0070 4B46     		mov	r3, r9
 1457              	.L175:
 1458 0072 E05C     		ldrb	r0, [r4, r3]	@ zero_extendqisi2
 1459 0074 1CF80320 		ldrb	r2, [ip, r3]	@ zero_extendqisi2
 1460 0078 4C49     		ldr	r1, .L243+12
 1461 007a 8242     		cmp	r2, r0
 1462 007c 0BD1     		bne	.L172
 491:.\cli.c       ****                         break;
 492:.\cli.c       ****                     if (!pstart->name[bufferIndex] && bufferIndex < sizeof(cliBuffer) - 2) {
 1463              		.loc 1 492 0
 1464 007e 3AB9     		cbnz	r2, .L173
 1465              		.loc 1 492 0 is_stmt 0 discriminator 1
 1466 0080 2D2B     		cmp	r3, #45
 1467 0082 05D8     		bhi	.L173
 493:.\cli.c       ****                         /* Unambiguous -- append a space */
 494:.\cli.c       ****                         cliBuffer[bufferIndex++] = ' ';
 1468              		.loc 1 494 0 is_stmt 1
 1469 0084 581C     		adds	r0, r3, #1
 1470 0086 2024     		movs	r4, #32
 1471 0088 CC54     		strb	r4, [r1, r3]
 1472 008a 0863     		str	r0, [r1, #48]
 495:.\cli.c       ****                         cliBuffer[bufferIndex] = '\0';
 1473              		.loc 1 495 0
 1474 008c 0A54     		strb	r2, [r1, r0]
 496:.\cli.c       ****                         break;
 1475              		.loc 1 496 0
 1476 008e 03E0     		b	.L174
 1477              	.L173:
 497:.\cli.c       ****                     }
 498:.\cli.c       ****                     cliBuffer[bufferIndex] = pstart->name[bufferIndex];
 1478              		.loc 1 498 0
ARM GAS  C:\Users\Luke\AppData\Local\Temp\ccde8Z2y.s 			page 39


 1479 0090 C854     		strb	r0, [r1, r3]
 1480 0092 0133     		adds	r3, r3, #1
 499:.\cli.c       ****                 }
 1481              		.loc 1 499 0
 1482 0094 EDE7     		b	.L175
 1483              	.L172:
 1484 0096 0B63     		str	r3, [r1, #48]
 1485              	.L174:
 500:.\cli.c       ****             }
 501:.\cli.c       ****             if (!bufferIndex || pstart != pend) {
 1486              		.loc 1 501 0
 1487 0098 444A     		ldr	r2, .L243+12
 1488 009a 116B     		ldr	r1, [r2, #48]
 1489 009c 19B1     		cbz	r1, .L176
 1490              		.loc 1 501 0 is_stmt 0 discriminator 1
 1491 009e AE42     		cmp	r6, r5
 1492 00a0 01D1     		bne	.L176
 480:.\cli.c       ****             int i = bufferIndex;
 1493              		.loc 1 480 0 is_stmt 1
 1494 00a2 4C46     		mov	r4, r9
 1495 00a4 10E0     		b	.L236
 1496              	.L176:
 502:.\cli.c       ****                 /* Print list of ambiguous matches */
 503:.\cli.c       ****                 cliPrint("\r\033[K");
 1497              		.loc 1 503 0
 1498 00a6 4448     		ldr	r0, .L243+24
 1499 00a8 FFF7FEFF 		bl	cliPrint
 1500              	.LVL210:
 1501              	.L178:
 504:.\cli.c       ****                 for (cmd = pstart; cmd <= pend; cmd++) {
 1502              		.loc 1 504 0 discriminator 1
 1503 00ac AE42     		cmp	r6, r5
 1504 00ae 07D8     		bhi	.L242
 1505              	.L179:
 505:.\cli.c       ****                     cliPrint(cmd->name);
 1506              		.loc 1 505 0 discriminator 2
 1507 00b0 56F80C0B 		ldr	r0, [r6], #12
 1508              	.LVL211:
 1509 00b4 FFF7FEFF 		bl	cliPrint
 1510              	.LVL212:
 506:.\cli.c       ****                     cliWrite('\t');
 1511              		.loc 1 506 0 discriminator 2
 1512 00b8 0920     		movs	r0, #9
 1513 00ba FFF7FEFF 		bl	cliWrite
 1514              	.LVL213:
 1515 00be F5E7     		b	.L178
 1516              	.L242:
 1517              	.LBB37:
 1518              	.LBB38:
 265:.\cli.c       ****     cliPrint("\r\n# ");
 1519              		.loc 1 265 0
 1520 00c0 3948     		ldr	r0, .L243+8
 1521 00c2 FFF7FEFF 		bl	cliPrint
 1522              	.LVL214:
 507:.\cli.c       ****                 }
 508:.\cli.c       ****                 cliPrompt();
 509:.\cli.c       ****                 i = 0;    /* Redraw prompt */
ARM GAS  C:\Users\Luke\AppData\Local\Temp\ccde8Z2y.s 			page 40


 1523              		.loc 1 509 0
 1524 00c6 0024     		movs	r4, #0
 1525              	.LVL215:
 1526              	.L236:
 1527              	.LBE38:
 1528              	.LBE37:
 510:.\cli.c       ****             }
 511:.\cli.c       ****             for (; i < bufferIndex; i++)
 1529              		.loc 1 511 0 discriminator 1
 1530 00c8 384B     		ldr	r3, .L243+12
 1531 00ca 186B     		ldr	r0, [r3, #48]
 1532 00cc 8442     		cmp	r4, r0
 1533 00ce 0FD2     		bcs	.L182
 1534              	.L181:
 512:.\cli.c       ****                 cliWrite(cliBuffer[i]);
 1535              		.loc 1 512 0 discriminator 2
 1536 00d0 185D     		ldrb	r0, [r3, r4]	@ zero_extendqisi2
 1537 00d2 FFF7FEFF 		bl	cliWrite
 1538              	.LVL216:
 511:.\cli.c       ****             for (; i < bufferIndex; i++)
 1539              		.loc 1 511 0 discriminator 2
 1540 00d6 0134     		adds	r4, r4, #1
 1541              	.LVL217:
 1542 00d8 F6E7     		b	.L236
 1543              	.LVL218:
 1544              	.L167:
 1545              	.LBE36:
 513:.\cli.c       ****         } else if (!bufferIndex && c == 4) {
 1546              		.loc 1 513 0
 1547 00da 026B     		ldr	r2, [r0, #48]
 1548 00dc 62B9     		cbnz	r2, .L183
 1549              		.loc 1 513 0 is_stmt 0 discriminator 1
 1550 00de 042B     		cmp	r3, #4
 1551 00e0 02D1     		bne	.L184
 514:.\cli.c       ****             cliExit(cliBuffer);
 1552              		.loc 1 514 0 is_stmt 1
 1553 00e2 FFF7FEFF 		bl	cliExit
 1554              	.LVL219:
 1555 00e6 57E0     		b	.L163
 1556              	.LVL220:
 1557              	.L184:
 515:.\cli.c       ****             return;
 516:.\cli.c       ****         } else if (c == 12) {
 1558              		.loc 1 516 0
 1559 00e8 0C2B     		cmp	r3, #12
 1560 00ea 07D0     		beq	.L195
 1561              	.L238:
 517:.\cli.c       ****             // clear screen
 518:.\cli.c       ****             cliPrint("\033[2J\033[1;1H");
 519:.\cli.c       ****             cliPrompt();
 520:.\cli.c       ****         } else if (bufferIndex && (c == '\n' || c == '\r')) {
 521:.\cli.c       ****             // enter pressed
 522:.\cli.c       ****             clicmd_t *cmd = NULL;
 523:.\cli.c       ****             clicmd_t target;
 524:.\cli.c       ****             cliPrint("\r\n");
 525:.\cli.c       ****             cliBuffer[bufferIndex] = 0; // null terminate
 526:.\cli.c       **** 
ARM GAS  C:\Users\Luke\AppData\Local\Temp\ccde8Z2y.s 			page 41


 527:.\cli.c       ****             target.name = cliBuffer;
 528:.\cli.c       ****             target.param = NULL;
 529:.\cli.c       **** 
 530:.\cli.c       ****             cmd = bsearch(&target, cmdTable, CMD_COUNT, sizeof cmdTable[0], cliCompare);
 531:.\cli.c       ****             if (cmd)
 532:.\cli.c       ****                 cmd->func(cliBuffer + strlen(cmd->name) + 1);
 533:.\cli.c       ****             else
 534:.\cli.c       ****                 cliPrint("ERR: Unknown command, try 'help'");
 535:.\cli.c       **** 
 536:.\cli.c       ****             memset(cliBuffer, 0, sizeof(cliBuffer));
 537:.\cli.c       ****             bufferIndex = 0;
 538:.\cli.c       **** 
 539:.\cli.c       ****             // 'exit' will reset this flag, so we don't need to print prompt again
 540:.\cli.c       ****             if (!cliMode)
 541:.\cli.c       ****                 return;
 542:.\cli.c       ****             cliPrompt();
 543:.\cli.c       ****         } else if (c == 127) {
 1562              		.loc 1 543 0
 1563 00ec 7F2B     		cmp	r3, #127
 1564 00ee 44D1     		bne	.L191
 1565              	.LVL221:
 1566              	.L182:
 1567              	.LBE35:
 474:.\cli.c       **** 	for(i=0; i<count;i++)
 1568              		.loc 1 474 0
 1569 00f0 0137     		adds	r7, r7, #1
 1570              	.LVL222:
 1571 00f2 4745     		cmp	r7, r8
 1572 00f4 9CDB     		blt	.L193
 1573 00f6 4FE0     		b	.L163
 1574              	.LVL223:
 1575              	.L183:
 1576              	.LBB42:
 516:.\cli.c       ****         } else if (c == 12) {
 1577              		.loc 1 516 0
 1578 00f8 0C2B     		cmp	r3, #12
 1579 00fa 03D1     		bne	.L237
 1580              	.L195:
 518:.\cli.c       ****             cliPrint("\033[2J\033[1;1H");
 1581              		.loc 1 518 0
 1582 00fc 2F48     		ldr	r0, .L243+28
 1583 00fe FFF7FEFF 		bl	cliPrint
 1584              	.LVL224:
 1585 0102 2CE0     		b	.L240
 1586              	.LVL225:
 1587              	.L237:
 520:.\cli.c       ****         } else if (bufferIndex && (c == '\n' || c == '\r')) {
 1588              		.loc 1 520 0 discriminator 1
 1589 0104 0A2B     		cmp	r3, #10
 1590 0106 01D0     		beq	.L185
 1591 0108 0D2B     		cmp	r3, #13
 1592 010a 2AD1     		bne	.L186
 1593              	.L185:
 1594              	.LVL226:
 1595              	.LBB39:
 525:.\cli.c       ****             cliBuffer[bufferIndex] = 0; // null terminate
 1596              		.loc 1 525 0
ARM GAS  C:\Users\Luke\AppData\Local\Temp\ccde8Z2y.s 			page 42


 1597 010c 274C     		ldr	r4, .L243+12
 524:.\cli.c       ****             cliPrint("\r\n");
 1598              		.loc 1 524 0
 1599 010e 2C48     		ldr	r0, .L243+32
 1600 0110 FFF7FEFF 		bl	cliPrint
 1601              	.LVL227:
 525:.\cli.c       ****             cliBuffer[bufferIndex] = 0; // null terminate
 1602              		.loc 1 525 0
 1603 0114 256B     		ldr	r5, [r4, #48]
 530:.\cli.c       ****             cmd = bsearch(&target, cmdTable, CMD_COUNT, sizeof cmdTable[0], cliCompare);
 1604              		.loc 1 530 0
 1605 0116 2B4A     		ldr	r2, .L243+36
 525:.\cli.c       ****             cliBuffer[bufferIndex] = 0; // null terminate
 1606              		.loc 1 525 0
 1607 0118 0020     		movs	r0, #0
 1608 011a 6055     		strb	r0, [r4, r5]
 528:.\cli.c       ****             target.param = NULL;
 1609              		.loc 1 528 0
 1610 011c 0490     		str	r0, [sp, #16]
 530:.\cli.c       ****             cmd = bsearch(&target, cmdTable, CMD_COUNT, sizeof cmdTable[0], cliCompare);
 1611              		.loc 1 530 0
 1612 011e 0092     		str	r2, [sp, #0]
 1613 0120 03A8     		add	r0, sp, #12
 1614 0122 2349     		ldr	r1, .L243+16
 1615 0124 0622     		movs	r2, #6
 1616 0126 0C23     		movs	r3, #12
 527:.\cli.c       ****             target.name = cliBuffer;
 1617              		.loc 1 527 0
 1618 0128 0394     		str	r4, [sp, #12]
 530:.\cli.c       ****             cmd = bsearch(&target, cmdTable, CMD_COUNT, sizeof cmdTable[0], cliCompare);
 1619              		.loc 1 530 0
 1620 012a FFF7FEFF 		bl	bsearch
 1621              	.LVL228:
 531:.\cli.c       ****             if (cmd)
 1622              		.loc 1 531 0
 1623 012e 0546     		mov	r5, r0
 1624 0130 38B1     		cbz	r0, .L187
 532:.\cli.c       ****                 cmd->func(cliBuffer + strlen(cmd->name) + 1);
 1625              		.loc 1 532 0
 1626 0132 0068     		ldr	r0, [r0, #0]
 1627              	.LVL229:
 1628 0134 FFF7FEFF 		bl	strlen
 1629              	.LVL230:
 1630 0138 411C     		adds	r1, r0, #1
 1631 013a AB68     		ldr	r3, [r5, #8]
 1632 013c 6018     		adds	r0, r4, r1
 1633 013e 9847     		blx	r3
 1634              	.LVL231:
 1635 0140 02E0     		b	.L188
 1636              	.LVL232:
 1637              	.L187:
 534:.\cli.c       ****                 cliPrint("ERR: Unknown command, try 'help'");
 1638              		.loc 1 534 0
 1639 0142 2148     		ldr	r0, .L243+40
 1640              	.LVL233:
 1641 0144 FFF7FEFF 		bl	cliPrint
 1642              	.LVL234:
ARM GAS  C:\Users\Luke\AppData\Local\Temp\ccde8Z2y.s 			page 43


 1643              	.L188:
 536:.\cli.c       ****             memset(cliBuffer, 0, sizeof(cliBuffer));
 1644              		.loc 1 536 0
 1645 0148 184C     		ldr	r4, .L243+12
 1646 014a 0021     		movs	r1, #0
 1647 014c 3022     		movs	r2, #48
 1648 014e 2046     		mov	r0, r4
 1649 0150 FFF7FEFF 		bl	memset
 1650              	.LVL235:
 540:.\cli.c       ****             if (!cliMode)
 1651              		.loc 1 540 0
 1652 0154 124A     		ldr	r2, .L243
 537:.\cli.c       ****             bufferIndex = 0;
 1653              		.loc 1 537 0
 1654 0156 0020     		movs	r0, #0
 540:.\cli.c       ****             if (!cliMode)
 1655              		.loc 1 540 0
 1656 0158 1178     		ldrb	r1, [r2, #0]	@ zero_extendqisi2
 537:.\cli.c       ****             bufferIndex = 0;
 1657              		.loc 1 537 0
 1658 015a 2063     		str	r0, [r4, #48]
 540:.\cli.c       ****             if (!cliMode)
 1659              		.loc 1 540 0
 1660 015c E1B1     		cbz	r1, .L163
 1661              	.LVL236:
 1662              	.L240:
 1663              	.LBB40:
 1664              	.LBB41:
 265:.\cli.c       ****     cliPrint("\r\n# ");
 1665              		.loc 1 265 0
 1666 015e 1248     		ldr	r0, .L243+8
 1667 0160 06E0     		b	.L241
 1668              	.LVL237:
 1669              	.L186:
 1670              	.LBE41:
 1671              	.LBE40:
 1672              	.LBE39:
 1673              		.loc 1 543 0
 1674 0162 7F2B     		cmp	r3, #127
 1675 0164 07D1     		bne	.L239
 544:.\cli.c       ****             // backspace
 545:.\cli.c       ****             if (bufferIndex) {
 546:.\cli.c       ****                 cliBuffer[--bufferIndex] = 0;
 1676              		.loc 1 546 0
 1677 0166 511E     		subs	r1, r2, #1
 1678              	.LVL238:
 1679 0168 0023     		movs	r3, #0
 1680 016a 0163     		str	r1, [r0, #48]
 1681 016c 4354     		strb	r3, [r0, r1]
 547:.\cli.c       ****                 cliPrint("\010 \010");
 1682              		.loc 1 547 0
 1683 016e 1748     		ldr	r0, .L243+44
 1684              	.LVL239:
 1685              	.L241:
 1686 0170 FFF7FEFF 		bl	cliPrint
 1687              	.LVL240:
 1688 0174 BCE7     		b	.L182
ARM GAS  C:\Users\Luke\AppData\Local\Temp\ccde8Z2y.s 			page 44


 1689              	.LVL241:
 1690              	.L239:
 548:.\cli.c       ****             }
 549:.\cli.c       ****         } else if (bufferIndex < sizeof(cliBuffer) && c >= 32 && c <= 126) {
 1691              		.loc 1 549 0
 1692 0176 2F2A     		cmp	r2, #47
 1693 0178 BAD8     		bhi	.L182
 1694              	.L191:
 1695              		.loc 1 549 0 is_stmt 0 discriminator 1
 1696 017a 1F2B     		cmp	r3, #31
 1697 017c B8D9     		bls	.L182
 1698 017e 7E2B     		cmp	r3, #126
 1699 0180 B6D8     		bhi	.L182
 550:.\cli.c       ****             if (!bufferIndex && c == 32)
 1700              		.loc 1 550 0 is_stmt 1
 1701 0182 0AB9     		cbnz	r2, .L192
 1702              		.loc 1 550 0 is_stmt 0 discriminator 1
 1703 0184 202B     		cmp	r3, #32
 1704 0186 B3D0     		beq	.L182
 1705              	.L192:
 551:.\cli.c       **** 				continue;
 552:.\cli.c       ****             cliBuffer[bufferIndex++] = c;
 1706              		.loc 1 552 0 is_stmt 1
 1707 0188 0848     		ldr	r0, .L243+12
 1708 018a 8354     		strb	r3, [r0, r2]
 1709 018c 0132     		adds	r2, r2, #1
 1710 018e 0263     		str	r2, [r0, #48]
 553:.\cli.c       ****             cliWrite(c);
 1711              		.loc 1 553 0
 1712 0190 1846     		mov	r0, r3
 1713 0192 FFF7FEFF 		bl	cliWrite
 1714              	.LVL242:
 1715 0196 ABE7     		b	.L182
 1716              	.L163:
 1717              	.LBE42:
 554:.\cli.c       ****         }
 555:.\cli.c       **** 	}
 556:.\cli.c       **** }
 1718              		.loc 1 556 0
 1719 0198 17B0     		add	sp, sp, #92
 1720 019a BDE8F083 		pop	{r4, r5, r6, r7, r8, r9, pc}
 1721              	.L244:
 1722 019e 00BF     		.align	2
 1723              	.L243:
 1724 01a0 00000000 		.word	cliMode
 1725 01a4 0A010000 		.word	.LC17
 1726 01a8 42010000 		.word	.LC18
 1727 01ac 00000000 		.word	.LANCHOR1
 1728 01b0 00000000 		.word	.LANCHOR0
 1729 01b4 48000000 		.word	.LANCHOR0+72
 1730 01b8 47010000 		.word	.LC19
 1731 01bc 4C010000 		.word	.LC20
 1732 01c0 BA000000 		.word	.LC13
 1733 01c4 00000000 		.word	cliCompare
 1734 01c8 57010000 		.word	.LC21
 1735 01cc 78010000 		.word	.LC22
 1736              		.cfi_endproc
ARM GAS  C:\Users\Luke\AppData\Local\Temp\ccde8Z2y.s 			page 45


 1737              	.LFE72:
 1738              		.size	cliProcess, .-cliProcess
 1739              		.global	valueTable
 1740              		.global	cmdTable
 1741              		.section	.rodata
 1742              		.align	2
 1743              		.set	.LANCHOR0,. + 0
 1744              		.type	cmdTable, %object
 1745              		.size	cmdTable, 72
 1746              	cmdTable:
 1747 0000 9A010000 		.word	.LC27
 1748 0004 A3010000 		.word	.LC28
 1749 0008 00000000 		.word	cliDefaults
 1750 000c C0010000 		.word	.LC29
 1751 0010 C5010000 		.word	.LC30
 1752 0014 00000000 		.word	cliExit
 1753 0018 C6010000 		.word	.LC31
 1754 001c C5010000 		.word	.LC30
 1755 0020 00000000 		.word	cliHelp
 1756 0024 CB010000 		.word	.LC32
 1757 0028 D0010000 		.word	.LC33
 1758 002c 00000000 		.word	cliSave
 1759 0030 E0010000 		.word	.LC34
 1760 0034 E4010000 		.word	.LC35
 1761 0038 00000000 		.word	cliSet
 1762 003c 06020000 		.word	.LC36
 1763 0040 0D020000 		.word	.LC37
 1764 0044 00000000 		.word	cliStatus
 1765              		.type	valueTable, %object
 1766              		.size	valueTable, 80
 1767              	valueTable:
 1768 0048 7C010000 		.word	.LC23
 1769 004c 04       		.byte	4
 1770 004d 000000   		.space	3
 1771 0050 00000000 		.word	pid1
 1772 0054 00000000 		.word	0
 1773 0058 10270000 		.word	10000
 1774 005c 83010000 		.word	.LC24
 1775 0060 04       		.byte	4
 1776 0061 000000   		.space	3
 1777 0064 04000000 		.word	pid1+4
 1778 0068 00000000 		.word	0
 1779 006c 10270000 		.word	10000
 1780 0070 8A010000 		.word	.LC25
 1781 0074 04       		.byte	4
 1782 0075 000000   		.space	3
 1783 0078 08000000 		.word	pid1+8
 1784 007c 00000000 		.word	0
 1785 0080 10270000 		.word	10000
 1786 0084 91010000 		.word	.LC26
 1787 0088 04       		.byte	4
 1788 0089 000000   		.space	3
 1789 008c 00000000 		.word	setpoint
 1790 0090 00000000 		.word	0
 1791 0094 88130000 		.word	5000
 1792              		.section	.rodata.str1.1,"aMS",%progbits,1
 1793              	.LC0:
ARM GAS  C:\Users\Luke\AppData\Local\Temp\ccde8Z2y.s 			page 46


 1794 0000 30313233 		.ascii	"0123456789ABCDEFGHIJKLMNOPQRSTUVWXYZ\000"
 1794      34353637 
 1794      38394142 
 1794      43444546 
 1794      4748494A 
 1795              	.LC1:
 1796 0025 41766169 		.ascii	"Available commands:\015\012\000"
 1796      6C61626C 
 1796      6520636F 
 1796      6D6D616E 
 1796      64733A0D 
 1797              	.LC2:
 1798 003b 25730925 		.ascii	"%s\011%s\015\012\000"
 1798      730D0A00 
 1799              	.LC3:
 1800 0043 0D0A4C65 		.ascii	"\015\012Leaving CLI mode...\015\012\000"
 1800      6176696E 
 1800      6720434C 
 1800      49206D6F 
 1800      64652E2E 
 1801              	.LC4:
 1802 005b 52657365 		.ascii	"Resetting to defaults...\015\012\000"
 1802      7474696E 
 1802      6720746F 
 1802      20646566 
 1802      61756C74 
 1803              	.LC5:
 1804 0076 2E00     		.ascii	".\000"
 1805              	.LC6:
 1806 0078 54656D70 		.ascii	"Temperature: \000"
 1806      65726174 
 1806      7572653A 
 1806      2000
 1807              	.LC7:
 1808 0086 0D0A4661 		.ascii	"\015\012Faults: \000"
 1808      756C7473 
 1808      3A2000
 1809              	.LC8:
 1810 0091 256400   		.ascii	"%d\000"
 1811              	.LC9:
 1812 0094 20257300 		.ascii	" %s\000"
 1813              	.LC10:
 1814 0098 20256420 		.ascii	" %d %d\000"
 1814      256400
 1815              	.LC11:
 1816 009f 43757272 		.ascii	"Current settings: \015\012\000"
 1816      656E7420 
 1816      73657474 
 1816      696E6773 
 1816      3A200D0A 
 1817              	.LC12:
 1818 00b4 2573203D 		.ascii	"%s = \000"
 1818      2000
 1819              	.LC13:
 1820 00ba 0D0A00   		.ascii	"\015\012\000"
 1821              	.LC14:
 1822 00bd 25732073 		.ascii	"%s set to \000"
ARM GAS  C:\Users\Luke\AppData\Local\Temp\ccde8Z2y.s 			page 47


 1822      65742074 
 1822      6F2000
 1823              	.LC15:
 1824 00c8 4552523A 		.ascii	"ERR: Value assignment out of range\015\012\000"
 1824      2056616C 
 1824      75652061 
 1824      73736967 
 1824      6E6D656E 
 1825              	.LC16:
 1826 00ed 4552523A 		.ascii	"ERR: Unknown variable name\015\012\000"
 1826      20556E6B 
 1826      6E6F776E 
 1826      20766172 
 1826      6961626C 
 1827              	.LC17:
 1828 010a 0D0A456E 		.ascii	"\015\012Entering CLI Mode, type 'exit' to return, o"
 1828      74657269 
 1828      6E672043 
 1828      4C49204D 
 1828      6F64652C 
 1829 0137 72202768 		.ascii	"r 'help'\015\012\000"
 1829      656C7027 
 1829      0D0A00
 1830              	.LC18:
 1831 0142 0D0A2320 		.ascii	"\015\012# \000"
 1831      00
 1832              	.LC19:
 1833 0147 0D1B5B4B 		.ascii	"\015\033[K\000"
 1833      00
 1834              	.LC20:
 1835 014c 1B5B324A 		.ascii	"\033[2J\033[1;1H\000"
 1835      1B5B313B 
 1835      314800
 1836              	.LC21:
 1837 0157 4552523A 		.ascii	"ERR: Unknown command, try 'help'\000"
 1837      20556E6B 
 1837      6E6F776E 
 1837      20636F6D 
 1837      6D616E64 
 1838              	.LC22:
 1839 0178 08200800 		.ascii	"\010 \010\000"
 1840              	.LC23:
 1841 017c 502D7465 		.ascii	"P-term\000"
 1841      726D00
 1842              	.LC24:
 1843 0183 492D7465 		.ascii	"I-term\000"
 1843      726D00
 1844              	.LC25:
 1845 018a 442D7465 		.ascii	"D-term\000"
 1845      726D00
 1846              	.LC26:
 1847 0191 73657470 		.ascii	"setpoint\000"
 1847      6F696E74 
 1847      00
 1848              	.LC27:
 1849 019a 64656661 		.ascii	"defaults\000"
 1849      756C7473 
ARM GAS  C:\Users\Luke\AppData\Local\Temp\ccde8Z2y.s 			page 48


 1849      00
 1850              	.LC28:
 1851 01a3 72657365 		.ascii	"reset to defaults and reboot\000"
 1851      7420746F 
 1851      20646566 
 1851      61756C74 
 1851      7320616E 
 1852              	.LC29:
 1853 01c0 65786974 		.ascii	"exit\000"
 1853      00
 1854              	.LC30:
 1855 01c5 00       		.ascii	"\000"
 1856              	.LC31:
 1857 01c6 68656C70 		.ascii	"help\000"
 1857      00
 1858              	.LC32:
 1859 01cb 73617665 		.ascii	"save\000"
 1859      00
 1860              	.LC33:
 1861 01d0 73617665 		.ascii	"save and reboot\000"
 1861      20616E64 
 1861      20726562 
 1861      6F6F7400 
 1862              	.LC34:
 1863 01e0 73657400 		.ascii	"set\000"
 1864              	.LC35:
 1865 01e4 6E616D65 		.ascii	"name=value or blank or * for list\000"
 1865      3D76616C 
 1865      7565206F 
 1865      7220626C 
 1865      616E6B20 
 1866              	.LC36:
 1867 0206 73746174 		.ascii	"status\000"
 1867      757300
 1868              	.LC37:
 1869 020d 73686F77 		.ascii	"show system status\000"
 1869      20737973 
 1869      74656D20 
 1869      73746174 
 1869      757300
 1870              		.bss
 1871              		.align	2
 1872              		.set	.LANCHOR1,. + 0
 1873              		.type	cliBuffer, %object
 1874              		.size	cliBuffer, 48
 1875              	cliBuffer:
 1876 0000 00000000 		.space	48
 1876      00000000 
 1876      00000000 
 1876      00000000 
 1876      00000000 
 1877              		.type	bufferIndex, %object
 1878              		.size	bufferIndex, 4
 1879              	bufferIndex:
 1880 0030 00000000 		.space	4
 1881              		.text
 1882              	.Letext0:
ARM GAS  C:\Users\Luke\AppData\Local\Temp\ccde8Z2y.s 			page 49


 1883              		.file 2 "c:\\program files\\cypress\\psoc creator\\3.0\\psoc creator\\import\\gnu_cs\\arm\\4.7.3\\
 1884              		.file 3 ".\\pid.h"
 1885              		.file 4 "c:\\program files\\cypress\\psoc creator\\3.0\\psoc creator\\import\\gnu_cs\\arm\\4.7.3\\
 1886              		.file 5 "./Generated_Source/PSoC5/cytypes.h"
 1887              		.file 6 "./Generated_Source/PSoC5/core_cm3.h"
 1888              		.file 7 "c:\\program files\\cypress\\psoc creator\\3.0\\psoc creator\\import\\gnu_cs\\arm\\4.7.3\\
 1889              		.file 8 "c:\\program files\\cypress\\psoc creator\\3.0\\psoc creator\\import\\gnu_cs\\arm\\4.7.3\\
 1890              		.file 9 "./Generated_Source/PSoC5/USBUART_1_cdc.h"
 1891              		.file 10 "<built-in>"
 1892              		.file 11 "c:\\program files\\cypress\\psoc creator\\3.0\\psoc creator\\import\\gnu_cs\\arm\\4.7.3\