ARM GAS  C:\Users\Luke\AppData\Local\Temp\cciqWDmg.s 			page 1


   1              		.syntax unified
   2              		.cpu cortex-m3
   3              		.fpu softvfp
   4              		.eabi_attribute 20, 1
   5              		.eabi_attribute 21, 1
   6              		.eabi_attribute 23, 3
   7              		.eabi_attribute 24, 1
   8              		.eabi_attribute 25, 1
   9              		.eabi_attribute 26, 1
  10              		.eabi_attribute 30, 4
  11              		.eabi_attribute 34, 1
  12              		.eabi_attribute 18, 4
  13              		.thumb
  14              		.file	"Comp_3.c"
  15              		.text
  16              	.Ltext0:
  17              		.cfi_sections	.debug_frame
  18              		.section	.text.Comp_3_trimAdjust,"ax",%progbits
  19              		.align	1
  20              		.thumb
  21              		.thumb_func
  22              		.type	Comp_3_trimAdjust, %function
  23              	Comp_3_trimAdjust:
  24              	.LFB6:
  25              		.file 1 ".\\Generated_Source\\PSoC5\\Comp_3.c"
   1:.\Generated_Source\PSoC5/Comp_3.c **** /*******************************************************************************
   2:.\Generated_Source\PSoC5/Comp_3.c **** * File Name: Comp_3.c
   3:.\Generated_Source\PSoC5/Comp_3.c **** * Version 2.0
   4:.\Generated_Source\PSoC5/Comp_3.c **** *
   5:.\Generated_Source\PSoC5/Comp_3.c **** * Description:
   6:.\Generated_Source\PSoC5/Comp_3.c **** *  This file provides the source code to the API for the Comparator component
   7:.\Generated_Source\PSoC5/Comp_3.c **** *
   8:.\Generated_Source\PSoC5/Comp_3.c **** * Note:
   9:.\Generated_Source\PSoC5/Comp_3.c **** *  None
  10:.\Generated_Source\PSoC5/Comp_3.c **** *
  11:.\Generated_Source\PSoC5/Comp_3.c **** ********************************************************************************
  12:.\Generated_Source\PSoC5/Comp_3.c **** * Copyright 2008-2012, Cypress Semiconductor Corporation.  All rights reserved.
  13:.\Generated_Source\PSoC5/Comp_3.c **** * You may use this file only in accordance with the license, terms, conditions, 
  14:.\Generated_Source\PSoC5/Comp_3.c **** * disclaimers, and limitations in the end user license agreement accompanying 
  15:.\Generated_Source\PSoC5/Comp_3.c **** * the software package with which this file was provided.
  16:.\Generated_Source\PSoC5/Comp_3.c **** *******************************************************************************/
  17:.\Generated_Source\PSoC5/Comp_3.c **** 
  18:.\Generated_Source\PSoC5/Comp_3.c **** #include "Comp_3.h"
  19:.\Generated_Source\PSoC5/Comp_3.c **** 
  20:.\Generated_Source\PSoC5/Comp_3.c **** uint8 Comp_3_initVar = 0u;
  21:.\Generated_Source\PSoC5/Comp_3.c **** 
  22:.\Generated_Source\PSoC5/Comp_3.c **** /* Internal functions definitoin */
  23:.\Generated_Source\PSoC5/Comp_3.c **** static void Comp_3_trimAdjust(uint8 nibble) ;
  24:.\Generated_Source\PSoC5/Comp_3.c **** 
  25:.\Generated_Source\PSoC5/Comp_3.c **** /* static Comp_3_backupStruct  Comp_3_backup; */
  26:.\Generated_Source\PSoC5/Comp_3.c **** #if (CY_PSOC5A)
  27:.\Generated_Source\PSoC5/Comp_3.c ****     static Comp_3_LOWPOWER_BACKUP_STRUCT  Comp_3_lowPowerBackup;
  28:.\Generated_Source\PSoC5/Comp_3.c **** #endif /* CY_PSOC5A */
  29:.\Generated_Source\PSoC5/Comp_3.c **** 
  30:.\Generated_Source\PSoC5/Comp_3.c **** /* variable to decide whether or not to restore the control register in 
  31:.\Generated_Source\PSoC5/Comp_3.c ****    Enable() API for PSoC5A only */
  32:.\Generated_Source\PSoC5/Comp_3.c **** #if (CY_PSOC5A)
ARM GAS  C:\Users\Luke\AppData\Local\Temp\cciqWDmg.s 			page 2


  33:.\Generated_Source\PSoC5/Comp_3.c ****     static uint8 Comp_3_restoreReg = 0u;
  34:.\Generated_Source\PSoC5/Comp_3.c **** #endif /* CY_PSOC5A */
  35:.\Generated_Source\PSoC5/Comp_3.c **** 
  36:.\Generated_Source\PSoC5/Comp_3.c **** 
  37:.\Generated_Source\PSoC5/Comp_3.c **** /*******************************************************************************
  38:.\Generated_Source\PSoC5/Comp_3.c **** * Function Name: Comp_3_Init
  39:.\Generated_Source\PSoC5/Comp_3.c **** ********************************************************************************
  40:.\Generated_Source\PSoC5/Comp_3.c **** *
  41:.\Generated_Source\PSoC5/Comp_3.c **** * Summary:
  42:.\Generated_Source\PSoC5/Comp_3.c **** *  Initialize to the schematic state
  43:.\Generated_Source\PSoC5/Comp_3.c **** * 
  44:.\Generated_Source\PSoC5/Comp_3.c **** * Parameters:
  45:.\Generated_Source\PSoC5/Comp_3.c **** *  void
  46:.\Generated_Source\PSoC5/Comp_3.c **** *
  47:.\Generated_Source\PSoC5/Comp_3.c **** * Return:
  48:.\Generated_Source\PSoC5/Comp_3.c **** *  void
  49:.\Generated_Source\PSoC5/Comp_3.c **** *
  50:.\Generated_Source\PSoC5/Comp_3.c **** *******************************************************************************/
  51:.\Generated_Source\PSoC5/Comp_3.c **** void Comp_3_Init(void) 
  52:.\Generated_Source\PSoC5/Comp_3.c **** {
  53:.\Generated_Source\PSoC5/Comp_3.c ****     /* Set default speed/power */
  54:.\Generated_Source\PSoC5/Comp_3.c ****     Comp_3_SetSpeed(Comp_3_DEFAULT_SPEED);
  55:.\Generated_Source\PSoC5/Comp_3.c **** 
  56:.\Generated_Source\PSoC5/Comp_3.c ****     /* Set default Hysteresis */
  57:.\Generated_Source\PSoC5/Comp_3.c ****     #if ( Comp_3_DEFAULT_HYSTERESIS == 0u )
  58:.\Generated_Source\PSoC5/Comp_3.c ****         Comp_3_CR |= Comp_3_HYST_OFF;
  59:.\Generated_Source\PSoC5/Comp_3.c ****     #else
  60:.\Generated_Source\PSoC5/Comp_3.c ****         Comp_3_CR &= (uint8)(~Comp_3_HYST_OFF);
  61:.\Generated_Source\PSoC5/Comp_3.c ****     #endif /* Comp_3_DEFAULT_HYSTERESIS == 0u */
  62:.\Generated_Source\PSoC5/Comp_3.c ****     /* Power down override feature is not supported for PSoC5A. */
  63:.\Generated_Source\PSoC5/Comp_3.c ****     #if (CY_PSOC3 || CY_PSOC5LP)
  64:.\Generated_Source\PSoC5/Comp_3.c ****         /* Set default Power Down Override */
  65:.\Generated_Source\PSoC5/Comp_3.c ****         #if ( Comp_3_DEFAULT_PWRDWN_OVRD == 0u )
  66:.\Generated_Source\PSoC5/Comp_3.c ****             Comp_3_CR &= (uint8)(~Comp_3_PWRDWN_OVRD);
  67:.\Generated_Source\PSoC5/Comp_3.c ****         #else 
  68:.\Generated_Source\PSoC5/Comp_3.c ****             Comp_3_CR |= Comp_3_PWRDWN_OVRD;
  69:.\Generated_Source\PSoC5/Comp_3.c ****         #endif /* Comp_3_DEFAULT_PWRDWN_OVRD == 0u */
  70:.\Generated_Source\PSoC5/Comp_3.c ****     #endif /* CY_PSOC3 || CY_PSOC5LP */
  71:.\Generated_Source\PSoC5/Comp_3.c ****     
  72:.\Generated_Source\PSoC5/Comp_3.c ****     /* Set mux always on logic */
  73:.\Generated_Source\PSoC5/Comp_3.c ****     Comp_3_CR |= Comp_3_MX_AO;
  74:.\Generated_Source\PSoC5/Comp_3.c **** 
  75:.\Generated_Source\PSoC5/Comp_3.c ****     /* Set default sync */
  76:.\Generated_Source\PSoC5/Comp_3.c ****     Comp_3_CLK &= (uint8)(~Comp_3_SYNCCLK_MASK);
  77:.\Generated_Source\PSoC5/Comp_3.c ****     #if ( Comp_3_DEFAULT_BYPASS_SYNC == 0u )
  78:.\Generated_Source\PSoC5/Comp_3.c ****         Comp_3_CLK |= Comp_3_SYNC_CLK_EN;
  79:.\Generated_Source\PSoC5/Comp_3.c ****     #else
  80:.\Generated_Source\PSoC5/Comp_3.c ****         Comp_3_CLK |= Comp_3_BYPASS_SYNC;
  81:.\Generated_Source\PSoC5/Comp_3.c ****     #endif /* Comp_3_DEFAULT_BYPASS_SYNC == 0u */
  82:.\Generated_Source\PSoC5/Comp_3.c **** }
  83:.\Generated_Source\PSoC5/Comp_3.c **** 
  84:.\Generated_Source\PSoC5/Comp_3.c **** 
  85:.\Generated_Source\PSoC5/Comp_3.c **** /*******************************************************************************
  86:.\Generated_Source\PSoC5/Comp_3.c **** * Function Name: Comp_3_Enable
  87:.\Generated_Source\PSoC5/Comp_3.c **** ********************************************************************************
  88:.\Generated_Source\PSoC5/Comp_3.c **** *
  89:.\Generated_Source\PSoC5/Comp_3.c **** * Summary:
ARM GAS  C:\Users\Luke\AppData\Local\Temp\cciqWDmg.s 			page 3


  90:.\Generated_Source\PSoC5/Comp_3.c **** *  Enable the Comparator
  91:.\Generated_Source\PSoC5/Comp_3.c **** * 
  92:.\Generated_Source\PSoC5/Comp_3.c **** * Parameters:
  93:.\Generated_Source\PSoC5/Comp_3.c **** *  void
  94:.\Generated_Source\PSoC5/Comp_3.c **** *
  95:.\Generated_Source\PSoC5/Comp_3.c **** * Return:
  96:.\Generated_Source\PSoC5/Comp_3.c **** *  void
  97:.\Generated_Source\PSoC5/Comp_3.c **** *
  98:.\Generated_Source\PSoC5/Comp_3.c **** *******************************************************************************/
  99:.\Generated_Source\PSoC5/Comp_3.c **** void Comp_3_Enable(void) 
 100:.\Generated_Source\PSoC5/Comp_3.c **** {
 101:.\Generated_Source\PSoC5/Comp_3.c ****     Comp_3_PWRMGR |= Comp_3_ACT_PWR_EN;
 102:.\Generated_Source\PSoC5/Comp_3.c ****     Comp_3_STBY_PWRMGR |= Comp_3_STBY_PWR_EN;
 103:.\Generated_Source\PSoC5/Comp_3.c ****      
 104:.\Generated_Source\PSoC5/Comp_3.c ****      /* This is to restore the value of register CR which is saved 
 105:.\Generated_Source\PSoC5/Comp_3.c ****     in prior to the modification in stop() API */
 106:.\Generated_Source\PSoC5/Comp_3.c ****     #if (CY_PSOC5A)
 107:.\Generated_Source\PSoC5/Comp_3.c ****         if(Comp_3_restoreReg == 1u)
 108:.\Generated_Source\PSoC5/Comp_3.c ****         {
 109:.\Generated_Source\PSoC5/Comp_3.c ****             Comp_3_CR = Comp_3_lowPowerBackup.compCRReg;
 110:.\Generated_Source\PSoC5/Comp_3.c **** 
 111:.\Generated_Source\PSoC5/Comp_3.c ****             /* Clear the flag */
 112:.\Generated_Source\PSoC5/Comp_3.c ****             Comp_3_restoreReg = 0u;
 113:.\Generated_Source\PSoC5/Comp_3.c ****         }
 114:.\Generated_Source\PSoC5/Comp_3.c ****     #endif /* CY_PSOC5A */
 115:.\Generated_Source\PSoC5/Comp_3.c **** }
 116:.\Generated_Source\PSoC5/Comp_3.c **** 
 117:.\Generated_Source\PSoC5/Comp_3.c **** 
 118:.\Generated_Source\PSoC5/Comp_3.c **** /*******************************************************************************
 119:.\Generated_Source\PSoC5/Comp_3.c **** * Function Name: Comp_3_Start
 120:.\Generated_Source\PSoC5/Comp_3.c **** ********************************************************************************
 121:.\Generated_Source\PSoC5/Comp_3.c **** *
 122:.\Generated_Source\PSoC5/Comp_3.c **** * Summary:
 123:.\Generated_Source\PSoC5/Comp_3.c **** *  The start function initializes the Analog Comparator with the default values.
 124:.\Generated_Source\PSoC5/Comp_3.c **** *
 125:.\Generated_Source\PSoC5/Comp_3.c **** * Parameters:
 126:.\Generated_Source\PSoC5/Comp_3.c **** *  void
 127:.\Generated_Source\PSoC5/Comp_3.c **** *
 128:.\Generated_Source\PSoC5/Comp_3.c **** * Return:
 129:.\Generated_Source\PSoC5/Comp_3.c **** *  void 
 130:.\Generated_Source\PSoC5/Comp_3.c **** *
 131:.\Generated_Source\PSoC5/Comp_3.c **** * Global variables:
 132:.\Generated_Source\PSoC5/Comp_3.c **** *  Comp_3_initVar: Is modified when this function is called for the 
 133:.\Generated_Source\PSoC5/Comp_3.c **** *   first time. Is used to ensure that initialization happens only once.
 134:.\Generated_Source\PSoC5/Comp_3.c **** *  
 135:.\Generated_Source\PSoC5/Comp_3.c **** *******************************************************************************/
 136:.\Generated_Source\PSoC5/Comp_3.c **** void Comp_3_Start(void) 
 137:.\Generated_Source\PSoC5/Comp_3.c **** {
 138:.\Generated_Source\PSoC5/Comp_3.c **** 
 139:.\Generated_Source\PSoC5/Comp_3.c ****     if ( Comp_3_initVar == 0u )
 140:.\Generated_Source\PSoC5/Comp_3.c ****     {
 141:.\Generated_Source\PSoC5/Comp_3.c ****         Comp_3_Init();
 142:.\Generated_Source\PSoC5/Comp_3.c ****         
 143:.\Generated_Source\PSoC5/Comp_3.c ****         Comp_3_initVar = 1u;
 144:.\Generated_Source\PSoC5/Comp_3.c ****     }   
 145:.\Generated_Source\PSoC5/Comp_3.c **** 
 146:.\Generated_Source\PSoC5/Comp_3.c ****     /* Enable power to comparator */
ARM GAS  C:\Users\Luke\AppData\Local\Temp\cciqWDmg.s 			page 4


 147:.\Generated_Source\PSoC5/Comp_3.c ****     Comp_3_Enable();    
 148:.\Generated_Source\PSoC5/Comp_3.c **** }
 149:.\Generated_Source\PSoC5/Comp_3.c **** 
 150:.\Generated_Source\PSoC5/Comp_3.c **** 
 151:.\Generated_Source\PSoC5/Comp_3.c **** /*******************************************************************************
 152:.\Generated_Source\PSoC5/Comp_3.c **** * Function Name: Comp_3_Stop
 153:.\Generated_Source\PSoC5/Comp_3.c **** ********************************************************************************
 154:.\Generated_Source\PSoC5/Comp_3.c **** *
 155:.\Generated_Source\PSoC5/Comp_3.c **** * Summary:
 156:.\Generated_Source\PSoC5/Comp_3.c **** *  Powers down amplifier to lowest power state.
 157:.\Generated_Source\PSoC5/Comp_3.c **** *
 158:.\Generated_Source\PSoC5/Comp_3.c **** * Parameters:
 159:.\Generated_Source\PSoC5/Comp_3.c **** *  void
 160:.\Generated_Source\PSoC5/Comp_3.c **** *
 161:.\Generated_Source\PSoC5/Comp_3.c **** * Return:
 162:.\Generated_Source\PSoC5/Comp_3.c **** *  void
 163:.\Generated_Source\PSoC5/Comp_3.c **** *
 164:.\Generated_Source\PSoC5/Comp_3.c **** *******************************************************************************/
 165:.\Generated_Source\PSoC5/Comp_3.c **** void Comp_3_Stop(void) 
 166:.\Generated_Source\PSoC5/Comp_3.c **** {
 167:.\Generated_Source\PSoC5/Comp_3.c ****     /* Disable power to comparator */
 168:.\Generated_Source\PSoC5/Comp_3.c ****     Comp_3_PWRMGR &= (uint8)(~Comp_3_ACT_PWR_EN);
 169:.\Generated_Source\PSoC5/Comp_3.c ****     Comp_3_STBY_PWRMGR &= (uint8)(~Comp_3_STBY_PWR_EN);
 170:.\Generated_Source\PSoC5/Comp_3.c ****     
 171:.\Generated_Source\PSoC5/Comp_3.c ****     #if (CY_PSOC5A)
 172:.\Generated_Source\PSoC5/Comp_3.c ****         /* Enable the variable */
 173:.\Generated_Source\PSoC5/Comp_3.c ****         Comp_3_restoreReg = 1u;
 174:.\Generated_Source\PSoC5/Comp_3.c **** 
 175:.\Generated_Source\PSoC5/Comp_3.c ****         /* Save the control register before clearing it */
 176:.\Generated_Source\PSoC5/Comp_3.c ****         Comp_3_lowPowerBackup.compCRReg = Comp_3_CR;
 177:.\Generated_Source\PSoC5/Comp_3.c ****         Comp_3_CR = Comp_3_COMP_REG_CLR;
 178:.\Generated_Source\PSoC5/Comp_3.c ****     #endif /* CY_PSOC5A */
 179:.\Generated_Source\PSoC5/Comp_3.c **** }
 180:.\Generated_Source\PSoC5/Comp_3.c **** 
 181:.\Generated_Source\PSoC5/Comp_3.c **** 
 182:.\Generated_Source\PSoC5/Comp_3.c **** /*******************************************************************************
 183:.\Generated_Source\PSoC5/Comp_3.c **** * Function Name: Comp_3_SetSpeed
 184:.\Generated_Source\PSoC5/Comp_3.c **** ********************************************************************************
 185:.\Generated_Source\PSoC5/Comp_3.c **** *
 186:.\Generated_Source\PSoC5/Comp_3.c **** * Summary:
 187:.\Generated_Source\PSoC5/Comp_3.c **** *  This function sets the speed of the Analog Comparator. The faster the speed
 188:.\Generated_Source\PSoC5/Comp_3.c **** *  the more power that is used.
 189:.\Generated_Source\PSoC5/Comp_3.c **** *
 190:.\Generated_Source\PSoC5/Comp_3.c **** * Parameters:
 191:.\Generated_Source\PSoC5/Comp_3.c **** *  speed: (uint8) Sets operation mode of Comparator
 192:.\Generated_Source\PSoC5/Comp_3.c **** *
 193:.\Generated_Source\PSoC5/Comp_3.c **** * Return:
 194:.\Generated_Source\PSoC5/Comp_3.c **** *  void
 195:.\Generated_Source\PSoC5/Comp_3.c **** *
 196:.\Generated_Source\PSoC5/Comp_3.c **** *******************************************************************************/
 197:.\Generated_Source\PSoC5/Comp_3.c **** void Comp_3_SetSpeed(uint8 speed) 
 198:.\Generated_Source\PSoC5/Comp_3.c **** {
 199:.\Generated_Source\PSoC5/Comp_3.c ****     /* Clear and Set power level */    
 200:.\Generated_Source\PSoC5/Comp_3.c ****     Comp_3_CR = (Comp_3_CR & (uint8)(~Comp_3_PWR_MODE_MASK)) |
 201:.\Generated_Source\PSoC5/Comp_3.c ****                            (speed & Comp_3_PWR_MODE_MASK);
 202:.\Generated_Source\PSoC5/Comp_3.c **** 
 203:.\Generated_Source\PSoC5/Comp_3.c ****     /* Set trim value for high speed comparator */
ARM GAS  C:\Users\Luke\AppData\Local\Temp\cciqWDmg.s 			page 5


 204:.\Generated_Source\PSoC5/Comp_3.c ****     if(speed == Comp_3_HIGHSPEED)
 205:.\Generated_Source\PSoC5/Comp_3.c ****     {
 206:.\Generated_Source\PSoC5/Comp_3.c ****         /* PSoC5A */
 207:.\Generated_Source\PSoC5/Comp_3.c ****         #if (CY_PSOC5A)
 208:.\Generated_Source\PSoC5/Comp_3.c ****             Comp_3_TR = Comp_3_HS_TRIM_TR0;
 209:.\Generated_Source\PSoC5/Comp_3.c ****         #endif /* CY_PSOC5A */
 210:.\Generated_Source\PSoC5/Comp_3.c ****         
 211:.\Generated_Source\PSoC5/Comp_3.c ****         /* PSoC3, PSoC5LP or later */
 212:.\Generated_Source\PSoC5/Comp_3.c ****         #if (CY_PSOC3 || CY_PSOC5LP) 
 213:.\Generated_Source\PSoC5/Comp_3.c ****             Comp_3_TR0 = Comp_3_HS_TRIM_TR0;
 214:.\Generated_Source\PSoC5/Comp_3.c ****             Comp_3_TR1 = Comp_3_HS_TRIM_TR1;
 215:.\Generated_Source\PSoC5/Comp_3.c ****         #endif /* CY_PSOC3 || CY_PSOC5LP */
 216:.\Generated_Source\PSoC5/Comp_3.c ****     }
 217:.\Generated_Source\PSoC5/Comp_3.c ****     else
 218:.\Generated_Source\PSoC5/Comp_3.c ****     {
 219:.\Generated_Source\PSoC5/Comp_3.c ****     /* PSoC5A */
 220:.\Generated_Source\PSoC5/Comp_3.c ****         #if (CY_PSOC5A)
 221:.\Generated_Source\PSoC5/Comp_3.c ****             Comp_3_TR = Comp_3_LS_TRIM_TR0;
 222:.\Generated_Source\PSoC5/Comp_3.c ****         #endif /* CY_PSOC5A */
 223:.\Generated_Source\PSoC5/Comp_3.c ****         
 224:.\Generated_Source\PSoC5/Comp_3.c ****         /* PSoC3, PSoC5LP or later */
 225:.\Generated_Source\PSoC5/Comp_3.c ****         #if (CY_PSOC3 || CY_PSOC5LP) 
 226:.\Generated_Source\PSoC5/Comp_3.c ****             Comp_3_TR0 = Comp_3_LS_TRIM_TR0;
 227:.\Generated_Source\PSoC5/Comp_3.c ****             Comp_3_TR1 = Comp_3_LS_TRIM_TR1;
 228:.\Generated_Source\PSoC5/Comp_3.c ****         #endif /* CY_PSOC3 || CY_PSOC5LP */
 229:.\Generated_Source\PSoC5/Comp_3.c ****     }
 230:.\Generated_Source\PSoC5/Comp_3.c **** 
 231:.\Generated_Source\PSoC5/Comp_3.c **** }
 232:.\Generated_Source\PSoC5/Comp_3.c **** 
 233:.\Generated_Source\PSoC5/Comp_3.c **** 
 234:.\Generated_Source\PSoC5/Comp_3.c **** /*******************************************************************************
 235:.\Generated_Source\PSoC5/Comp_3.c **** * Function Name: Comp_3_GetCompare
 236:.\Generated_Source\PSoC5/Comp_3.c **** ********************************************************************************
 237:.\Generated_Source\PSoC5/Comp_3.c **** *
 238:.\Generated_Source\PSoC5/Comp_3.c **** * Summary:
 239:.\Generated_Source\PSoC5/Comp_3.c **** *  This function returns the comparator output value.
 240:.\Generated_Source\PSoC5/Comp_3.c **** *  This value is not affected by the Polarity parameter.
 241:.\Generated_Source\PSoC5/Comp_3.c **** *  This valuea lways reflects a noninverted state.
 242:.\Generated_Source\PSoC5/Comp_3.c **** *
 243:.\Generated_Source\PSoC5/Comp_3.c **** * Parameters:
 244:.\Generated_Source\PSoC5/Comp_3.c **** *   None
 245:.\Generated_Source\PSoC5/Comp_3.c **** *
 246:.\Generated_Source\PSoC5/Comp_3.c **** * Return:
 247:.\Generated_Source\PSoC5/Comp_3.c **** *  (uint8)  0     - if Pos_Input less than Neg_input
 248:.\Generated_Source\PSoC5/Comp_3.c **** *           non 0 - if Pos_Input greater than Neg_input.
 249:.\Generated_Source\PSoC5/Comp_3.c **** *
 250:.\Generated_Source\PSoC5/Comp_3.c **** *******************************************************************************/
 251:.\Generated_Source\PSoC5/Comp_3.c **** uint8 Comp_3_GetCompare(void) 
 252:.\Generated_Source\PSoC5/Comp_3.c **** {
 253:.\Generated_Source\PSoC5/Comp_3.c ****     return( Comp_3_WRK & Comp_3_CMP_OUT_MASK);
 254:.\Generated_Source\PSoC5/Comp_3.c **** }
 255:.\Generated_Source\PSoC5/Comp_3.c **** 
 256:.\Generated_Source\PSoC5/Comp_3.c **** 
 257:.\Generated_Source\PSoC5/Comp_3.c **** /*******************************************************************************
 258:.\Generated_Source\PSoC5/Comp_3.c **** * Function Name: Comp_3_trimAdjust
 259:.\Generated_Source\PSoC5/Comp_3.c **** ********************************************************************************
 260:.\Generated_Source\PSoC5/Comp_3.c **** *
ARM GAS  C:\Users\Luke\AppData\Local\Temp\cciqWDmg.s 			page 6


 261:.\Generated_Source\PSoC5/Comp_3.c **** * Summary:
 262:.\Generated_Source\PSoC5/Comp_3.c **** *  This function adjusts the value in the low nibble/high nibble of the Analog 
 263:.\Generated_Source\PSoC5/Comp_3.c **** *  Comparator trim register
 264:.\Generated_Source\PSoC5/Comp_3.c **** *
 265:.\Generated_Source\PSoC5/Comp_3.c **** * Parameters:  
 266:.\Generated_Source\PSoC5/Comp_3.c **** *  nibble:
 267:.\Generated_Source\PSoC5/Comp_3.c **** *      0 -- adjusts the value in the low nibble
 268:.\Generated_Source\PSoC5/Comp_3.c **** *      1 -- adjusts the value in the high nibble
 269:.\Generated_Source\PSoC5/Comp_3.c **** *
 270:.\Generated_Source\PSoC5/Comp_3.c **** * Return:
 271:.\Generated_Source\PSoC5/Comp_3.c **** *  None
 272:.\Generated_Source\PSoC5/Comp_3.c **** *
 273:.\Generated_Source\PSoC5/Comp_3.c **** * Theory: 
 274:.\Generated_Source\PSoC5/Comp_3.c **** *  Function assumes comparator block is setup for trim adjust.
 275:.\Generated_Source\PSoC5/Comp_3.c **** *  Intended to be called from Comp_ZeroCal()
 276:.\Generated_Source\PSoC5/Comp_3.c **** * 
 277:.\Generated_Source\PSoC5/Comp_3.c **** * Side Effects:
 278:.\Generated_Source\PSoC5/Comp_3.c **** *  Routine uses a course 1ms delay following each trim adjustment to allow 
 279:.\Generated_Source\PSoC5/Comp_3.c **** *  the comparator output to respond.
 280:.\Generated_Source\PSoC5/Comp_3.c **** *
 281:.\Generated_Source\PSoC5/Comp_3.c **** *******************************************************************************/
 282:.\Generated_Source\PSoC5/Comp_3.c **** static void Comp_3_trimAdjust(uint8 nibble) 
 283:.\Generated_Source\PSoC5/Comp_3.c **** {
  26              		.loc 1 283 0
  27              		.cfi_startproc
  28              		@ args = 0, pretend = 0, frame = 0
  29              		@ frame_needed = 0, uses_anonymous_args = 0
  30              	.LVL0:
  31 0000 F8B5     		push	{r3, r4, r5, r6, r7, lr}
  32              	.LCFI0:
  33              		.cfi_def_cfa_offset 24
  34              		.cfi_offset 3, -24
  35              		.cfi_offset 4, -20
  36              		.cfi_offset 5, -16
  37              		.cfi_offset 6, -12
  38              		.cfi_offset 7, -8
  39              		.cfi_offset 14, -4
 284:.\Generated_Source\PSoC5/Comp_3.c ****     uint8 trimCnt, trimCntMax;
 285:.\Generated_Source\PSoC5/Comp_3.c ****     uint8 cmpState;   
 286:.\Generated_Source\PSoC5/Comp_3.c **** 
 287:.\Generated_Source\PSoC5/Comp_3.c ****     /* get current state of comparator output */
 288:.\Generated_Source\PSoC5/Comp_3.c ****     cmpState = Comp_3_WRK & Comp_3_CMP_OUT_MASK;
  40              		.loc 1 288 0
  41 0002 174B     		ldr	r3, .L16
 289:.\Generated_Source\PSoC5/Comp_3.c ****     
 290:.\Generated_Source\PSoC5/Comp_3.c ****     if (nibble == 0u)
  42              		.loc 1 290 0
  43 0004 0746     		mov	r7, r0
 288:.\Generated_Source\PSoC5/Comp_3.c ****     cmpState = Comp_3_WRK & Comp_3_CMP_OUT_MASK;
  44              		.loc 1 288 0
  45 0006 1C78     		ldrb	r4, [r3, #0]	@ zero_extendqisi2
  46 0008 04F00104 		and	r4, r4, #1
  47              	.LVL1:
  48              		.loc 1 290 0
  49 000c 30B9     		cbnz	r0, .L2
 291:.\Generated_Source\PSoC5/Comp_3.c ****     {    
 292:.\Generated_Source\PSoC5/Comp_3.c ****         /* if comparator output is high, negative offset adjust is required */
ARM GAS  C:\Users\Luke\AppData\Local\Temp\cciqWDmg.s 			page 7


 293:.\Generated_Source\PSoC5/Comp_3.c ****         if ( cmpState != 0u )
  50              		.loc 1 293 0
  51 000e 1CB3     		cbz	r4, .L3
 294:.\Generated_Source\PSoC5/Comp_3.c ****         {
 295:.\Generated_Source\PSoC5/Comp_3.c ****             /* PSoC5A */
 296:.\Generated_Source\PSoC5/Comp_3.c ****             #if (CY_PSOC5A)
 297:.\Generated_Source\PSoC5/Comp_3.c ****                 Comp_3_TR |= Comp_3_CMP_TRIM1_DIR;
 298:.\Generated_Source\PSoC5/Comp_3.c ****             #endif /* CY_PSOC5A */
 299:.\Generated_Source\PSoC5/Comp_3.c ****             
 300:.\Generated_Source\PSoC5/Comp_3.c ****             /* PSoC3, PSoC5LP or later */
 301:.\Generated_Source\PSoC5/Comp_3.c ****             #if (CY_PSOC3 || CY_PSOC5LP)
 302:.\Generated_Source\PSoC5/Comp_3.c ****                 Comp_3_TR0 |= Comp_3_CMP_TR0_DIR;
  52              		.loc 1 302 0
  53 0010 144D     		ldr	r5, .L16+4
  54 0012 2E78     		ldrb	r6, [r5, #0]	@ zero_extendqisi2
  55 0014 46F01003 		orr	r3, r6, #16
  56 0018 2B70     		strb	r3, [r5, #0]
  57 001a 1DE0     		b	.L3
  58              	.L2:
 303:.\Generated_Source\PSoC5/Comp_3.c ****             #endif /* CY_PSOC3 || CY_PSOC5LP */
 304:.\Generated_Source\PSoC5/Comp_3.c ****         }
 305:.\Generated_Source\PSoC5/Comp_3.c ****     }
 306:.\Generated_Source\PSoC5/Comp_3.c ****     else
 307:.\Generated_Source\PSoC5/Comp_3.c ****     {
 308:.\Generated_Source\PSoC5/Comp_3.c ****         /* if comparator output is low, positive offset adjust is required */
 309:.\Generated_Source\PSoC5/Comp_3.c ****         if ( cmpState == 0u )
  59              		.loc 1 309 0
  60 001c 24B9     		cbnz	r4, .L4
 310:.\Generated_Source\PSoC5/Comp_3.c ****         {
 311:.\Generated_Source\PSoC5/Comp_3.c ****             /* PSoC5A */
 312:.\Generated_Source\PSoC5/Comp_3.c ****             #if (CY_PSOC5A)
 313:.\Generated_Source\PSoC5/Comp_3.c ****                 Comp_3_TR |= Comp_3_CMP_TRIM2_DIR; 
 314:.\Generated_Source\PSoC5/Comp_3.c ****             #endif /* CY_PSOC5A */
 315:.\Generated_Source\PSoC5/Comp_3.c ****             
 316:.\Generated_Source\PSoC5/Comp_3.c ****             /* PSoC3, PSoC5LP or later */
 317:.\Generated_Source\PSoC5/Comp_3.c ****             #if (CY_PSOC3 || CY_PSOC5LP)
 318:.\Generated_Source\PSoC5/Comp_3.c ****                 Comp_3_TR1 |= Comp_3_CMP_TR1_DIR;
  61              		.loc 1 318 0
  62 001e 1248     		ldr	r0, .L16+8
  63              	.LVL2:
  64 0020 0278     		ldrb	r2, [r0, #0]	@ zero_extendqisi2
  65 0022 42F01001 		orr	r1, r2, #16
  66 0026 0170     		strb	r1, [r0, #0]
  67              	.L4:
 319:.\Generated_Source\PSoC5/Comp_3.c ****             #endif /* CY_PSOC3 || CY_PSOC5LP */
 320:.\Generated_Source\PSoC5/Comp_3.c ****         }
 321:.\Generated_Source\PSoC5/Comp_3.c ****     }
 322:.\Generated_Source\PSoC5/Comp_3.c **** 
 323:.\Generated_Source\PSoC5/Comp_3.c ****     /* Increment trim value until compare output changes state */
 324:.\Generated_Source\PSoC5/Comp_3.c **** 	
 325:.\Generated_Source\PSoC5/Comp_3.c ****     /* PSoC5A */
 326:.\Generated_Source\PSoC5/Comp_3.c **** 	#if (CY_PSOC5A)
 327:.\Generated_Source\PSoC5/Comp_3.c **** 	    trimCntMax = 7u;
 328:.\Generated_Source\PSoC5/Comp_3.c ****     #endif
 329:.\Generated_Source\PSoC5/Comp_3.c **** 	
 330:.\Generated_Source\PSoC5/Comp_3.c **** 	/* PSoC3, PSoC5LP or later */
 331:.\Generated_Source\PSoC5/Comp_3.c **** 	#if (CY_PSOC3 || CY_PSOC5LP)
ARM GAS  C:\Users\Luke\AppData\Local\Temp\cciqWDmg.s 			page 8


 332:.\Generated_Source\PSoC5/Comp_3.c ****     	if(nibble == 0u)
 333:.\Generated_Source\PSoC5/Comp_3.c ****     	{
 334:.\Generated_Source\PSoC5/Comp_3.c ****     		trimCntMax = 15u;
 335:.\Generated_Source\PSoC5/Comp_3.c ****     	}
 336:.\Generated_Source\PSoC5/Comp_3.c ****     	else
 337:.\Generated_Source\PSoC5/Comp_3.c ****     	{
 338:.\Generated_Source\PSoC5/Comp_3.c ****     		trimCntMax = 7u;
  68              		.loc 1 338 0
  69 0028 0726     		movs	r6, #7
  70              	.L9:
  71              	.LVL3:
 339:.\Generated_Source\PSoC5/Comp_3.c ****     	}
 340:.\Generated_Source\PSoC5/Comp_3.c **** 	#endif
 341:.\Generated_Source\PSoC5/Comp_3.c **** 	
 342:.\Generated_Source\PSoC5/Comp_3.c ****     for ( trimCnt = 0u; trimCnt < trimCntMax; trimCnt++ )
  72              		.loc 1 342 0
  73 002a 0025     		movs	r5, #0
  74              	.LVL4:
  75              	.L8:
 343:.\Generated_Source\PSoC5/Comp_3.c **** 	{
 344:.\Generated_Source\PSoC5/Comp_3.c ****         if (nibble == 0u)
  76              		.loc 1 344 0
  77 002c 0FB9     		cbnz	r7, .L5
 345:.\Generated_Source\PSoC5/Comp_3.c ****         {
 346:.\Generated_Source\PSoC5/Comp_3.c ****             /* PSoC5A */
 347:.\Generated_Source\PSoC5/Comp_3.c ****             #if (CY_PSOC5A)
 348:.\Generated_Source\PSoC5/Comp_3.c ****                 Comp_3_TR += 1u;
 349:.\Generated_Source\PSoC5/Comp_3.c ****             #endif /* CY_PSOC5A */
 350:.\Generated_Source\PSoC5/Comp_3.c ****             
 351:.\Generated_Source\PSoC5/Comp_3.c ****             /* PSoC3, PSoC5LP or later */
 352:.\Generated_Source\PSoC5/Comp_3.c ****             #if (CY_PSOC3 || CY_PSOC5LP)
 353:.\Generated_Source\PSoC5/Comp_3.c ****                 Comp_3_TR0 += 1u;
  78              		.loc 1 353 0
  79 002e 0D48     		ldr	r0, .L16+4
  80 0030 00E0     		b	.L14
  81              	.L5:
 354:.\Generated_Source\PSoC5/Comp_3.c ****             #endif /* CY_PSOC3 || CY_PSOC5LP */
 355:.\Generated_Source\PSoC5/Comp_3.c ****         }
 356:.\Generated_Source\PSoC5/Comp_3.c ****         else
 357:.\Generated_Source\PSoC5/Comp_3.c ****         {
 358:.\Generated_Source\PSoC5/Comp_3.c ****             /* PSoC5A */
 359:.\Generated_Source\PSoC5/Comp_3.c ****             #if (CY_PSOC5A)
 360:.\Generated_Source\PSoC5/Comp_3.c ****                 Comp_3_TR += 0x10u;
 361:.\Generated_Source\PSoC5/Comp_3.c ****             #endif /* CY_PSOC5A */
 362:.\Generated_Source\PSoC5/Comp_3.c ****             
 363:.\Generated_Source\PSoC5/Comp_3.c ****             /* PSoC3, PSoC5LP or later */
 364:.\Generated_Source\PSoC5/Comp_3.c ****             #if (CY_PSOC3 || CY_PSOC5LP)
 365:.\Generated_Source\PSoC5/Comp_3.c ****                 Comp_3_TR1 += 1u;
  82              		.loc 1 365 0
  83 0032 0D48     		ldr	r0, .L16+8
  84              	.L14:
  85 0034 0278     		ldrb	r2, [r0, #0]	@ zero_extendqisi2
  86 0036 511C     		adds	r1, r2, #1
  87 0038 CBB2     		uxtb	r3, r1
  88 003a 0370     		strb	r3, [r0, #0]
 366:.\Generated_Source\PSoC5/Comp_3.c ****             #endif /* CY_PSOC3 || CY_PSOC5LP */
 367:.\Generated_Source\PSoC5/Comp_3.c ****         }
ARM GAS  C:\Users\Luke\AppData\Local\Temp\cciqWDmg.s 			page 9


 368:.\Generated_Source\PSoC5/Comp_3.c ****         
 369:.\Generated_Source\PSoC5/Comp_3.c ****         CyDelayUs(10u);
  89              		.loc 1 369 0
  90 003c 0A20     		movs	r0, #10
  91 003e FFF7FEFF 		bl	CyDelayUs
  92              	.LVL5:
 370:.\Generated_Source\PSoC5/Comp_3.c ****         
 371:.\Generated_Source\PSoC5/Comp_3.c ****         /* Check for change in comparator output */
 372:.\Generated_Source\PSoC5/Comp_3.c ****         if ((Comp_3_WRK & Comp_3_CMP_OUT_MASK) != cmpState)
  93              		.loc 1 372 0
  94 0042 0748     		ldr	r0, .L16
  95 0044 0278     		ldrb	r2, [r0, #0]	@ zero_extendqisi2
  96 0046 02F00101 		and	r1, r2, #1
  97 004a A142     		cmp	r1, r4
  98 004c 06D1     		bne	.L1
 342:.\Generated_Source\PSoC5/Comp_3.c ****     for ( trimCnt = 0u; trimCnt < trimCntMax; trimCnt++ )
  99              		.loc 1 342 0
 100 004e 0135     		adds	r5, r5, #1
 101 0050 EDB2     		uxtb	r5, r5
 102              	.LVL6:
 103 0052 B542     		cmp	r5, r6
 104 0054 EAD3     		bcc	.L8
 105 0056 F8BD     		pop	{r3, r4, r5, r6, r7, pc}
 106              	.LVL7:
 107              	.L3:
 334:.\Generated_Source\PSoC5/Comp_3.c ****     		trimCntMax = 15u;
 108              		.loc 1 334 0
 109 0058 0F26     		movs	r6, #15
 110 005a E6E7     		b	.L9
 111              	.LVL8:
 112              	.L1:
 113 005c F8BD     		pop	{r3, r4, r5, r6, r7, pc}
 114              	.L17:
 115 005e 00BF     		.align	2
 116              	.L16:
 117 0060 965B0040 		.word	1073765270
 118 0064 30460040 		.word	1073759792
 119 0068 31460040 		.word	1073759793
 120              		.cfi_endproc
 121              	.LFE6:
 122              		.size	Comp_3_trimAdjust, .-Comp_3_trimAdjust
 123              		.section	.text.Comp_3_Enable,"ax",%progbits
 124              		.align	1
 125              		.global	Comp_3_Enable
 126              		.thumb
 127              		.thumb_func
 128              		.type	Comp_3_Enable, %function
 129              	Comp_3_Enable:
 130              	.LFB1:
 100:.\Generated_Source\PSoC5/Comp_3.c **** {
 131              		.loc 1 100 0
 132              		.cfi_startproc
 133              		@ args = 0, pretend = 0, frame = 0
 134              		@ frame_needed = 0, uses_anonymous_args = 0
 135              		@ link register save eliminated.
 101:.\Generated_Source\PSoC5/Comp_3.c ****     Comp_3_PWRMGR |= Comp_3_ACT_PWR_EN;
 136              		.loc 1 101 0
ARM GAS  C:\Users\Luke\AppData\Local\Temp\cciqWDmg.s 			page 10


 137 0000 044B     		ldr	r3, .L19
 138 0002 1A78     		ldrb	r2, [r3, #0]	@ zero_extendqisi2
 139 0004 42F00100 		orr	r0, r2, #1
 140 0008 1870     		strb	r0, [r3, #0]
 102:.\Generated_Source\PSoC5/Comp_3.c ****     Comp_3_STBY_PWRMGR |= Comp_3_STBY_PWR_EN;
 141              		.loc 1 102 0
 142 000a 197C     		ldrb	r1, [r3, #16]	@ zero_extendqisi2
 143 000c 41F00102 		orr	r2, r1, #1
 144 0010 1A74     		strb	r2, [r3, #16]
 145 0012 7047     		bx	lr
 146              	.L20:
 147              		.align	2
 148              	.L19:
 149 0014 A7430040 		.word	1073759143
 150              		.cfi_endproc
 151              	.LFE1:
 152              		.size	Comp_3_Enable, .-Comp_3_Enable
 153              		.section	.text.Comp_3_Stop,"ax",%progbits
 154              		.align	1
 155              		.global	Comp_3_Stop
 156              		.thumb
 157              		.thumb_func
 158              		.type	Comp_3_Stop, %function
 159              	Comp_3_Stop:
 160              	.LFB3:
 166:.\Generated_Source\PSoC5/Comp_3.c **** {
 161              		.loc 1 166 0
 162              		.cfi_startproc
 163              		@ args = 0, pretend = 0, frame = 0
 164              		@ frame_needed = 0, uses_anonymous_args = 0
 165              		@ link register save eliminated.
 168:.\Generated_Source\PSoC5/Comp_3.c ****     Comp_3_PWRMGR &= (uint8)(~Comp_3_ACT_PWR_EN);
 166              		.loc 1 168 0
 167 0000 044B     		ldr	r3, .L22
 168 0002 1A78     		ldrb	r2, [r3, #0]	@ zero_extendqisi2
 169 0004 02F0FE00 		and	r0, r2, #254
 170 0008 1870     		strb	r0, [r3, #0]
 169:.\Generated_Source\PSoC5/Comp_3.c ****     Comp_3_STBY_PWRMGR &= (uint8)(~Comp_3_STBY_PWR_EN);
 171              		.loc 1 169 0
 172 000a 197C     		ldrb	r1, [r3, #16]	@ zero_extendqisi2
 173 000c 01F0FE02 		and	r2, r1, #254
 174 0010 1A74     		strb	r2, [r3, #16]
 175 0012 7047     		bx	lr
 176              	.L23:
 177              		.align	2
 178              	.L22:
 179 0014 A7430040 		.word	1073759143
 180              		.cfi_endproc
 181              	.LFE3:
 182              		.size	Comp_3_Stop, .-Comp_3_Stop
 183              		.section	.text.Comp_3_SetSpeed,"ax",%progbits
 184              		.align	1
 185              		.global	Comp_3_SetSpeed
 186              		.thumb
 187              		.thumb_func
 188              		.type	Comp_3_SetSpeed, %function
 189              	Comp_3_SetSpeed:
ARM GAS  C:\Users\Luke\AppData\Local\Temp\cciqWDmg.s 			page 11


 190              	.LFB4:
 198:.\Generated_Source\PSoC5/Comp_3.c **** {
 191              		.loc 1 198 0
 192              		.cfi_startproc
 193              		@ args = 0, pretend = 0, frame = 0
 194              		@ frame_needed = 0, uses_anonymous_args = 0
 195              		@ link register save eliminated.
 196              	.LVL9:
 200:.\Generated_Source\PSoC5/Comp_3.c ****     Comp_3_CR = (Comp_3_CR & (uint8)(~Comp_3_PWR_MODE_MASK)) |
 197              		.loc 1 200 0
 198 0000 0C4B     		ldr	r3, .L28
 199 0002 00F00301 		and	r1, r0, #3
 200 0006 1A78     		ldrb	r2, [r3, #0]	@ zero_extendqisi2
 204:.\Generated_Source\PSoC5/Comp_3.c ****     if(speed == Comp_3_HIGHSPEED)
 201              		.loc 1 204 0
 202 0008 0128     		cmp	r0, #1
 200:.\Generated_Source\PSoC5/Comp_3.c ****     Comp_3_CR = (Comp_3_CR & (uint8)(~Comp_3_PWR_MODE_MASK)) |
 203              		.loc 1 200 0
 204 000a 22F00302 		bic	r2, r2, #3
 205 000e 41EA0201 		orr	r1, r1, r2
 206 0012 1970     		strb	r1, [r3, #0]
 207 0014 0848     		ldr	r0, .L28+4
 208              	.LVL10:
 204:.\Generated_Source\PSoC5/Comp_3.c ****     if(speed == Comp_3_HIGHSPEED)
 209              		.loc 1 204 0
 210 0016 04D1     		bne	.L25
 213:.\Generated_Source\PSoC5/Comp_3.c ****             Comp_3_TR0 = Comp_3_HS_TRIM_TR0;
 211              		.loc 1 213 0
 212 0018 084B     		ldr	r3, .L28+8
 214:.\Generated_Source\PSoC5/Comp_3.c ****             Comp_3_TR1 = Comp_3_HS_TRIM_TR1;
 213              		.loc 1 214 0
 214 001a 0949     		ldr	r1, .L28+12
 213:.\Generated_Source\PSoC5/Comp_3.c ****             Comp_3_TR0 = Comp_3_HS_TRIM_TR0;
 215              		.loc 1 213 0
 216 001c 1A78     		ldrb	r2, [r3, #0]	@ zero_extendqisi2
 217 001e 0270     		strb	r2, [r0, #0]
 218 0020 03E0     		b	.L27
 219              	.L25:
 226:.\Generated_Source\PSoC5/Comp_3.c ****             Comp_3_TR0 = Comp_3_LS_TRIM_TR0;
 220              		.loc 1 226 0
 221 0022 084B     		ldr	r3, .L28+16
 227:.\Generated_Source\PSoC5/Comp_3.c ****             Comp_3_TR1 = Comp_3_LS_TRIM_TR1;
 222              		.loc 1 227 0
 223 0024 0849     		ldr	r1, .L28+20
 226:.\Generated_Source\PSoC5/Comp_3.c ****             Comp_3_TR0 = Comp_3_LS_TRIM_TR0;
 224              		.loc 1 226 0
 225 0026 1A78     		ldrb	r2, [r3, #0]	@ zero_extendqisi2
 226 0028 0270     		strb	r2, [r0, #0]
 227              	.L27:
 227:.\Generated_Source\PSoC5/Comp_3.c ****             Comp_3_TR1 = Comp_3_LS_TRIM_TR1;
 228              		.loc 1 227 0
 229 002a 0878     		ldrb	r0, [r1, #0]	@ zero_extendqisi2
 230 002c 0749     		ldr	r1, .L28+24
 231 002e 0870     		strb	r0, [r1, #0]
 232 0030 7047     		bx	lr
 233              	.L29:
 234 0032 00BF     		.align	2
ARM GAS  C:\Users\Luke\AppData\Local\Temp\cciqWDmg.s 			page 12


 235              	.L28:
 236 0034 40580040 		.word	1073764416
 237 0038 30460040 		.word	1073759792
 238 003c 10010049 		.word	1224737040
 239 0040 14010049 		.word	1224737044
 240 0044 AD010049 		.word	1224737197
 241 0048 B5010049 		.word	1224737205
 242 004c 31460040 		.word	1073759793
 243              		.cfi_endproc
 244              	.LFE4:
 245              		.size	Comp_3_SetSpeed, .-Comp_3_SetSpeed
 246              		.section	.text.Comp_3_Init,"ax",%progbits
 247              		.align	1
 248              		.global	Comp_3_Init
 249              		.thumb
 250              		.thumb_func
 251              		.type	Comp_3_Init, %function
 252              	Comp_3_Init:
 253              	.LFB0:
  52:.\Generated_Source\PSoC5/Comp_3.c **** {
 254              		.loc 1 52 0
 255              		.cfi_startproc
 256              		@ args = 0, pretend = 0, frame = 0
 257              		@ frame_needed = 0, uses_anonymous_args = 0
 258 0000 08B5     		push	{r3, lr}
 259              	.LCFI1:
 260              		.cfi_def_cfa_offset 8
 261              		.cfi_offset 3, -8
 262              		.cfi_offset 14, -4
  54:.\Generated_Source\PSoC5/Comp_3.c ****     Comp_3_SetSpeed(Comp_3_DEFAULT_SPEED);
 263              		.loc 1 54 0
 264 0002 0120     		movs	r0, #1
 265 0004 FFF7FEFF 		bl	Comp_3_SetSpeed
 266              	.LVL11:
  60:.\Generated_Source\PSoC5/Comp_3.c ****         Comp_3_CR &= (uint8)(~Comp_3_HYST_OFF);
 267              		.loc 1 60 0
 268 0008 0B4B     		ldr	r3, .L31
 269 000a 1A78     		ldrb	r2, [r3, #0]	@ zero_extendqisi2
 270 000c 02F0DF00 		and	r0, r2, #223
 271 0010 1870     		strb	r0, [r3, #0]
  66:.\Generated_Source\PSoC5/Comp_3.c ****             Comp_3_CR &= (uint8)(~Comp_3_PWRDWN_OVRD);
 272              		.loc 1 66 0
 273 0012 1978     		ldrb	r1, [r3, #0]	@ zero_extendqisi2
 274 0014 01F0FB02 		and	r2, r1, #251
 275 0018 1A70     		strb	r2, [r3, #0]
  73:.\Generated_Source\PSoC5/Comp_3.c ****     Comp_3_CR |= Comp_3_MX_AO;
 276              		.loc 1 73 0
 277 001a 1878     		ldrb	r0, [r3, #0]	@ zero_extendqisi2
 278 001c 40F00801 		orr	r1, r0, #8
 279 0020 1970     		strb	r1, [r3, #0]
  76:.\Generated_Source\PSoC5/Comp_3.c ****     Comp_3_CLK &= (uint8)(~Comp_3_SYNCCLK_MASK);
 280              		.loc 1 76 0
 281 0022 064B     		ldr	r3, .L31+4
 282 0024 1A78     		ldrb	r2, [r3, #0]	@ zero_extendqisi2
 283 0026 02F0E700 		and	r0, r2, #231
 284 002a 1870     		strb	r0, [r3, #0]
  78:.\Generated_Source\PSoC5/Comp_3.c ****         Comp_3_CLK |= Comp_3_SYNC_CLK_EN;
ARM GAS  C:\Users\Luke\AppData\Local\Temp\cciqWDmg.s 			page 13


 285              		.loc 1 78 0
 286 002c 1978     		ldrb	r1, [r3, #0]	@ zero_extendqisi2
 287 002e 41F00802 		orr	r2, r1, #8
 288 0032 1A70     		strb	r2, [r3, #0]
 289 0034 08BD     		pop	{r3, pc}
 290              	.L32:
 291 0036 00BF     		.align	2
 292              	.L31:
 293 0038 40580040 		.word	1073764416
 294 003c C75A0040 		.word	1073765063
 295              		.cfi_endproc
 296              	.LFE0:
 297              		.size	Comp_3_Init, .-Comp_3_Init
 298              		.section	.text.Comp_3_Start,"ax",%progbits
 299              		.align	1
 300              		.global	Comp_3_Start
 301              		.thumb
 302              		.thumb_func
 303              		.type	Comp_3_Start, %function
 304              	Comp_3_Start:
 305              	.LFB2:
 137:.\Generated_Source\PSoC5/Comp_3.c **** {
 306              		.loc 1 137 0
 307              		.cfi_startproc
 308              		@ args = 0, pretend = 0, frame = 0
 309              		@ frame_needed = 0, uses_anonymous_args = 0
 310 0000 10B5     		push	{r4, lr}
 311              	.LCFI2:
 312              		.cfi_def_cfa_offset 8
 313              		.cfi_offset 4, -8
 314              		.cfi_offset 14, -4
 139:.\Generated_Source\PSoC5/Comp_3.c ****     if ( Comp_3_initVar == 0u )
 315              		.loc 1 139 0
 316 0002 054C     		ldr	r4, .L35
 317 0004 2378     		ldrb	r3, [r4, #0]	@ zero_extendqisi2
 318 0006 1BB9     		cbnz	r3, .L34
 141:.\Generated_Source\PSoC5/Comp_3.c ****         Comp_3_Init();
 319              		.loc 1 141 0
 320 0008 FFF7FEFF 		bl	Comp_3_Init
 321              	.LVL12:
 143:.\Generated_Source\PSoC5/Comp_3.c ****         Comp_3_initVar = 1u;
 322              		.loc 1 143 0
 323 000c 0120     		movs	r0, #1
 324 000e 2070     		strb	r0, [r4, #0]
 325              	.L34:
 148:.\Generated_Source\PSoC5/Comp_3.c **** }
 326              		.loc 1 148 0
 327 0010 BDE81040 		pop	{r4, lr}
 147:.\Generated_Source\PSoC5/Comp_3.c ****     Comp_3_Enable();    
 328              		.loc 1 147 0
 329 0014 FFF7FEBF 		b	Comp_3_Enable
 330              	.LVL13:
 331              	.L36:
 332              		.align	2
 333              	.L35:
 334 0018 00000000 		.word	.LANCHOR0
 335              		.cfi_endproc
ARM GAS  C:\Users\Luke\AppData\Local\Temp\cciqWDmg.s 			page 14


 336              	.LFE2:
 337              		.size	Comp_3_Start, .-Comp_3_Start
 338              		.section	.text.Comp_3_GetCompare,"ax",%progbits
 339              		.align	1
 340              		.global	Comp_3_GetCompare
 341              		.thumb
 342              		.thumb_func
 343              		.type	Comp_3_GetCompare, %function
 344              	Comp_3_GetCompare:
 345              	.LFB5:
 252:.\Generated_Source\PSoC5/Comp_3.c **** {
 346              		.loc 1 252 0
 347              		.cfi_startproc
 348              		@ args = 0, pretend = 0, frame = 0
 349              		@ frame_needed = 0, uses_anonymous_args = 0
 350              		@ link register save eliminated.
 253:.\Generated_Source\PSoC5/Comp_3.c ****     return( Comp_3_WRK & Comp_3_CMP_OUT_MASK);
 351              		.loc 1 253 0
 352 0000 024B     		ldr	r3, .L38
 353 0002 1878     		ldrb	r0, [r3, #0]	@ zero_extendqisi2
 254:.\Generated_Source\PSoC5/Comp_3.c **** }
 354              		.loc 1 254 0
 355 0004 00F00100 		and	r0, r0, #1
 356 0008 7047     		bx	lr
 357              	.L39:
 358 000a 00BF     		.align	2
 359              	.L38:
 360 000c 965B0040 		.word	1073765270
 361              		.cfi_endproc
 362              	.LFE5:
 363              		.size	Comp_3_GetCompare, .-Comp_3_GetCompare
 364              		.section	.text.Comp_3_ZeroCal,"ax",%progbits
 365              		.align	1
 366              		.global	Comp_3_ZeroCal
 367              		.thumb
 368              		.thumb_func
 369              		.type	Comp_3_ZeroCal, %function
 370              	Comp_3_ZeroCal:
 371              	.LFB7:
 373:.\Generated_Source\PSoC5/Comp_3.c ****         {
 374:.\Generated_Source\PSoC5/Comp_3.c ****             break;      /* output changed state, trim phase is complete */
 375:.\Generated_Source\PSoC5/Comp_3.c ****         }        
 376:.\Generated_Source\PSoC5/Comp_3.c ****     }    
 377:.\Generated_Source\PSoC5/Comp_3.c **** }
 378:.\Generated_Source\PSoC5/Comp_3.c **** 
 379:.\Generated_Source\PSoC5/Comp_3.c **** 
 380:.\Generated_Source\PSoC5/Comp_3.c **** /*******************************************************************************
 381:.\Generated_Source\PSoC5/Comp_3.c **** * Function Name: Comp_3_ZeroCal
 382:.\Generated_Source\PSoC5/Comp_3.c **** ********************************************************************************
 383:.\Generated_Source\PSoC5/Comp_3.c **** *
 384:.\Generated_Source\PSoC5/Comp_3.c **** * Summary:
 385:.\Generated_Source\PSoC5/Comp_3.c **** *  This function calibrates the offset of the Analog Comparator.
 386:.\Generated_Source\PSoC5/Comp_3.c **** *
 387:.\Generated_Source\PSoC5/Comp_3.c **** * Parameters:
 388:.\Generated_Source\PSoC5/Comp_3.c **** *  None
 389:.\Generated_Source\PSoC5/Comp_3.c **** *
 390:.\Generated_Source\PSoC5/Comp_3.c **** * Return:
ARM GAS  C:\Users\Luke\AppData\Local\Temp\cciqWDmg.s 			page 15


 391:.\Generated_Source\PSoC5/Comp_3.c **** *  (uint16)  value written in trim register when calibration complete.
 392:.\Generated_Source\PSoC5/Comp_3.c **** *
 393:.\Generated_Source\PSoC5/Comp_3.c **** * Theory: 
 394:.\Generated_Source\PSoC5/Comp_3.c **** *  This function is used to optimize the calibration for user specific voltage
 395:.\Generated_Source\PSoC5/Comp_3.c **** *  range.  The comparator trim is adjusted to counter transistor offsets
 396:.\Generated_Source\PSoC5/Comp_3.c **** *   - offset is defined as positive if the output transitions to high before inP
 397:.\Generated_Source\PSoC5/Comp_3.c **** *     is greater than inN
 398:.\Generated_Source\PSoC5/Comp_3.c **** *   - offset is defined as negative if the output transitions to high after inP
 399:.\Generated_Source\PSoC5/Comp_3.c **** *     is greater than inP
 400:.\Generated_Source\PSoC5/Comp_3.c **** *
 401:.\Generated_Source\PSoC5/Comp_3.c **** *  PSoC5A
 402:.\Generated_Source\PSoC5/Comp_3.c **** *  The Analog Comparator provides 1 byte for offset trim.  The byte contains two
 403:.\Generated_Source\PSoC5/Comp_3.c **** *  4 bit trim fields - one is a course trim and the other allows smaller
 404:.\Generated_Source\PSoC5/Comp_3.c **** *  offset adjustments only for slow modes.
 405:.\Generated_Source\PSoC5/Comp_3.c **** *  - low nibble - fine trim
 406:.\Generated_Source\PSoC5/Comp_3.c **** *  - high nibble - course trim
 407:.\Generated_Source\PSoC5/Comp_3.c **** *  PSoC3, PSoC5LP or later
 408:.\Generated_Source\PSoC5/Comp_3.c **** *  The Analog Comparator provides 2 bytes for offset trim.  The bytes contain two
 409:.\Generated_Source\PSoC5/Comp_3.c **** *  5 bit trim fields - one is a course trim and the other allows smaller
 410:.\Generated_Source\PSoC5/Comp_3.c **** *  offset adjustments only for slow modes.
 411:.\Generated_Source\PSoC5/Comp_3.c **** *  - TR0 - fine trim
 412:.\Generated_Source\PSoC5/Comp_3.c **** *  - TR1 - course trim
 413:.\Generated_Source\PSoC5/Comp_3.c **** *
 414:.\Generated_Source\PSoC5/Comp_3.c **** *  Trim algorithm is a two phase process
 415:.\Generated_Source\PSoC5/Comp_3.c **** *  The first phase performs course offset adjustment
 416:.\Generated_Source\PSoC5/Comp_3.c **** *  The second phase serves one of two purposes depending on the outcome of the
 417:.\Generated_Source\PSoC5/Comp_3.c **** *  first phase
 418:.\Generated_Source\PSoC5/Comp_3.c **** *  - if the first trim value was maxed out without a comparator output 
 419:.\Generated_Source\PSoC5/Comp_3.c **** *    transition, more offset will be added by adjusting the second trim value.
 420:.\Generated_Source\PSoC5/Comp_3.c **** *  - if the first trim phase resulted in a comparator output transition, the
 421:.\Generated_Source\PSoC5/Comp_3.c **** *    second trim value will serve as fine trim (in the opposite direction)to
 422:.\Generated_Source\PSoC5/Comp_3.c **** *    ensure the offset is < 1 mV.
 423:.\Generated_Source\PSoC5/Comp_3.c **** *
 424:.\Generated_Source\PSoC5/Comp_3.c **** * Trim Process:   
 425:.\Generated_Source\PSoC5/Comp_3.c **** *  1) User applies a voltage to the negative input.  Voltage should be in the
 426:.\Generated_Source\PSoC5/Comp_3.c **** *     comparator operating range or an average of the operating voltage range.
 427:.\Generated_Source\PSoC5/Comp_3.c **** *  2) Clear registers associated with analog routing to the positive input.
 428:.\Generated_Source\PSoC5/Comp_3.c **** *  3) Disable Hysteresis
 429:.\Generated_Source\PSoC5/Comp_3.c **** *  4) Set the calibration bit to short the negative and positive inputs to
 430:.\Generated_Source\PSoC5/Comp_3.c **** *     the users calibration voltage.
 431:.\Generated_Source\PSoC5/Comp_3.c **** *  5) Clear the TR register  ( TR = 0x00 )
 432:.\Generated_Source\PSoC5/Comp_3.c **** *  ** LOW MODES
 433:.\Generated_Source\PSoC5/Comp_3.c **** *  6) Check if compare output is high, if so, set the MSb of course trim field 
 434:.\Generated_Source\PSoC5/Comp_3.c **** *     to a 1.
 435:.\Generated_Source\PSoC5/Comp_3.c **** *  7) Increment the course trim field until the compare output changes
 436:.\Generated_Source\PSoC5/Comp_3.c **** *  8) Check if compare output is low, if so, set the MSb of fine trim field
 437:.\Generated_Source\PSoC5/Comp_3.c **** *     to a 1.
 438:.\Generated_Source\PSoC5/Comp_3.c **** *  9) Increment the fine trim field until the compare output changes
 439:.\Generated_Source\PSoC5/Comp_3.c **** *  ** FAST MODE - skip the steps 8,9
 440:.\Generated_Source\PSoC5/Comp_3.c **** *
 441:.\Generated_Source\PSoC5/Comp_3.c **** * Side Effects:
 442:.\Generated_Source\PSoC5/Comp_3.c **** *  Routine clears analog routing associated with the comparator positive input.  
 443:.\Generated_Source\PSoC5/Comp_3.c **** *  This may affect routing of signals from other components that are connected
 444:.\Generated_Source\PSoC5/Comp_3.c **** *  to the positive input of the comparator.
 445:.\Generated_Source\PSoC5/Comp_3.c **** *
 446:.\Generated_Source\PSoC5/Comp_3.c **** *******************************************************************************/
 447:.\Generated_Source\PSoC5/Comp_3.c **** uint16 Comp_3_ZeroCal(void) 
ARM GAS  C:\Users\Luke\AppData\Local\Temp\cciqWDmg.s 			page 16


 448:.\Generated_Source\PSoC5/Comp_3.c **** {
 372              		.loc 1 448 0
 373              		.cfi_startproc
 374              		@ args = 0, pretend = 0, frame = 0
 375              		@ frame_needed = 0, uses_anonymous_args = 0
 376 0000 2DE9F047 		push	{r4, r5, r6, r7, r8, r9, sl, lr}
 377              	.LCFI3:
 378              		.cfi_def_cfa_offset 32
 379              		.cfi_offset 4, -32
 380              		.cfi_offset 5, -28
 381              		.cfi_offset 6, -24
 382              		.cfi_offset 7, -20
 383              		.cfi_offset 8, -16
 384              		.cfi_offset 9, -12
 385              		.cfi_offset 10, -8
 386              		.cfi_offset 14, -4
 449:.\Generated_Source\PSoC5/Comp_3.c ****     uint8 tmpSW0;
 450:.\Generated_Source\PSoC5/Comp_3.c ****     uint8 tmpSW2;
 451:.\Generated_Source\PSoC5/Comp_3.c ****     uint8 tmpSW3;
 452:.\Generated_Source\PSoC5/Comp_3.c ****     uint8 tmpCR;
 453:.\Generated_Source\PSoC5/Comp_3.c **** 
 454:.\Generated_Source\PSoC5/Comp_3.c ****     /* Save a copy of routing registers associated with inP */
 455:.\Generated_Source\PSoC5/Comp_3.c ****     tmpSW0 = Comp_3_SW0;
 387              		.loc 1 455 0
 388 0004 184A     		ldr	r2, .L44
 456:.\Generated_Source\PSoC5/Comp_3.c ****     tmpSW2 = Comp_3_SW2;
 389              		.loc 1 456 0
 390 0006 1949     		ldr	r1, .L44+4
 457:.\Generated_Source\PSoC5/Comp_3.c ****     tmpSW3 = Comp_3_SW3;
 391              		.loc 1 457 0
 392 0008 194B     		ldr	r3, .L44+8
 455:.\Generated_Source\PSoC5/Comp_3.c ****     tmpSW0 = Comp_3_SW0;
 393              		.loc 1 455 0
 394 000a 1778     		ldrb	r7, [r2, #0]	@ zero_extendqisi2
 395              	.LVL14:
 456:.\Generated_Source\PSoC5/Comp_3.c ****     tmpSW2 = Comp_3_SW2;
 396              		.loc 1 456 0
 397 000c 0E78     		ldrb	r6, [r1, #0]	@ zero_extendqisi2
 398              	.LVL15:
 399              		.loc 1 457 0
 400 000e 1D78     		ldrb	r5, [r3, #0]	@ zero_extendqisi2
 401              	.LVL16:
 458:.\Generated_Source\PSoC5/Comp_3.c **** 
 459:.\Generated_Source\PSoC5/Comp_3.c ****      /* Clear routing for inP, retain routing for inN */
 460:.\Generated_Source\PSoC5/Comp_3.c ****     Comp_3_SW0 = 0x00u;
 402              		.loc 1 460 0
 403 0010 0024     		movs	r4, #0
 461:.\Generated_Source\PSoC5/Comp_3.c ****     Comp_3_SW2 = 0x00u;
 462:.\Generated_Source\PSoC5/Comp_3.c ****     Comp_3_SW3 = tmpSW3 & (uint8)(~Comp_3_CMP_SW3_INPCTL_MASK);
 404              		.loc 1 462 0
 405 0012 05F0F600 		and	r0, r5, #246
 460:.\Generated_Source\PSoC5/Comp_3.c ****     Comp_3_SW0 = 0x00u;
 406              		.loc 1 460 0
 407 0016 1470     		strb	r4, [r2, #0]
 461:.\Generated_Source\PSoC5/Comp_3.c ****     Comp_3_SW2 = 0x00u;
 408              		.loc 1 461 0
 409 0018 0C70     		strb	r4, [r1, #0]
ARM GAS  C:\Users\Luke\AppData\Local\Temp\cciqWDmg.s 			page 17


 410              		.loc 1 462 0
 411 001a 1870     		strb	r0, [r3, #0]
 463:.\Generated_Source\PSoC5/Comp_3.c **** 
 464:.\Generated_Source\PSoC5/Comp_3.c ****     /* Preserve original configuration
 465:.\Generated_Source\PSoC5/Comp_3.c ****      * - turn off Hysteresis
 466:.\Generated_Source\PSoC5/Comp_3.c ****      * - set calibration bit - shorts inN to inP
 467:.\Generated_Source\PSoC5/Comp_3.c ****     */
 468:.\Generated_Source\PSoC5/Comp_3.c ****     tmpCR = Comp_3_CR;
 412              		.loc 1 468 0
 413 001c 154B     		ldr	r3, .L44+12
 414 001e 9046     		mov	r8, r2
 415 0020 93F80090 		ldrb	r9, [r3, #0]	@ zero_extendqisi2
 416              	.LVL17:
 469:.\Generated_Source\PSoC5/Comp_3.c ****     Comp_3_CR |= (Comp_3_CAL_ON | Comp_3_HYST_OFF);
 417              		.loc 1 469 0
 418 0024 1978     		ldrb	r1, [r3, #0]	@ zero_extendqisi2
 419 0026 9A46     		mov	sl, r3
 420 0028 41F03000 		orr	r0, r1, #48
 470:.\Generated_Source\PSoC5/Comp_3.c ****     
 471:.\Generated_Source\PSoC5/Comp_3.c ****     /* Write default low values to trim register - no offset adjust */
 472:.\Generated_Source\PSoC5/Comp_3.c ****     /* PSoC5A */
 473:.\Generated_Source\PSoC5/Comp_3.c ****     #if (CY_PSOC5A)
 474:.\Generated_Source\PSoC5/Comp_3.c ****         Comp_3_TR = Comp_3_DEFAULT_CMP_TRIM;
 475:.\Generated_Source\PSoC5/Comp_3.c ****     #endif /* CY_PSOC5A */
 476:.\Generated_Source\PSoC5/Comp_3.c ****     
 477:.\Generated_Source\PSoC5/Comp_3.c ****     /* PSoC3, PSoC5LP or later */
 478:.\Generated_Source\PSoC5/Comp_3.c ****     #if (CY_PSOC3 || CY_PSOC5LP)
 479:.\Generated_Source\PSoC5/Comp_3.c ****         Comp_3_TR0 = Comp_3_DEFAULT_CMP_TRIM;
 421              		.loc 1 479 0
 422 002c 1249     		ldr	r1, .L44+16
 469:.\Generated_Source\PSoC5/Comp_3.c ****     Comp_3_CR |= (Comp_3_CAL_ON | Comp_3_HYST_OFF);
 423              		.loc 1 469 0
 424 002e 1870     		strb	r0, [r3, #0]
 425              		.loc 1 479 0
 426 0030 0C70     		strb	r4, [r1, #0]
 480:.\Generated_Source\PSoC5/Comp_3.c ****         Comp_3_TR1 = Comp_3_DEFAULT_CMP_TRIM;
 427              		.loc 1 480 0
 428 0032 4C70     		strb	r4, [r1, #1]
 481:.\Generated_Source\PSoC5/Comp_3.c ****     #endif /* CY_PSOC3 || CY_PSOC5LP */
 482:.\Generated_Source\PSoC5/Comp_3.c **** 	
 483:.\Generated_Source\PSoC5/Comp_3.c **** 	/* Two phase trim - slow modes, one phase trim - for fast */ 
 484:.\Generated_Source\PSoC5/Comp_3.c ****     if ( (Comp_3_CR & Comp_3_PWR_MODE_MASK) == Comp_3_PWR_MODE_FAST)
 429              		.loc 1 484 0
 430 0034 1878     		ldrb	r0, [r3, #0]	@ zero_extendqisi2
 431 0036 00F00301 		and	r1, r0, #3
 432 003a 0129     		cmp	r1, #1
 433 003c 02D0     		beq	.L43
 434              	.L41:
 485:.\Generated_Source\PSoC5/Comp_3.c ****     {
 486:.\Generated_Source\PSoC5/Comp_3.c ****         Comp_3_trimAdjust(0u);
 487:.\Generated_Source\PSoC5/Comp_3.c ****     }
 488:.\Generated_Source\PSoC5/Comp_3.c ****     else /* default to trim for fast modes */
 489:.\Generated_Source\PSoC5/Comp_3.c ****     {
 490:.\Generated_Source\PSoC5/Comp_3.c ****         Comp_3_trimAdjust(1u);
 435              		.loc 1 490 0
 436 003e 0120     		movs	r0, #1
 437 0040 FFF7FEFF 		bl	Comp_3_trimAdjust
ARM GAS  C:\Users\Luke\AppData\Local\Temp\cciqWDmg.s 			page 18


 438              	.LVL18:
 439              	.L43:
 491:.\Generated_Source\PSoC5/Comp_3.c **** 		Comp_3_trimAdjust(0u);
 440              		.loc 1 491 0
 441 0044 2046     		mov	r0, r4
 442 0046 FFF7FEFF 		bl	Comp_3_trimAdjust
 443              	.LVL19:
 492:.\Generated_Source\PSoC5/Comp_3.c ****     }
 493:.\Generated_Source\PSoC5/Comp_3.c ****    
 494:.\Generated_Source\PSoC5/Comp_3.c ****     /* Restore Config Register */
 495:.\Generated_Source\PSoC5/Comp_3.c ****     Comp_3_CR = tmpCR;
 496:.\Generated_Source\PSoC5/Comp_3.c ****     
 497:.\Generated_Source\PSoC5/Comp_3.c ****     /* Restore routing registers for inP */
 498:.\Generated_Source\PSoC5/Comp_3.c ****     Comp_3_SW0 = tmpSW0;
 499:.\Generated_Source\PSoC5/Comp_3.c ****     Comp_3_SW2 = tmpSW2;
 444              		.loc 1 499 0
 445 004a 084A     		ldr	r2, .L44+4
 500:.\Generated_Source\PSoC5/Comp_3.c ****     Comp_3_SW3 = tmpSW3;
 501:.\Generated_Source\PSoC5/Comp_3.c ****     
 502:.\Generated_Source\PSoC5/Comp_3.c ****     /* PSoC5A */
 503:.\Generated_Source\PSoC5/Comp_3.c ****     #if (CY_PSOC5A)
 504:.\Generated_Source\PSoC5/Comp_3.c ****         return (uint16) Comp_3_TR;
 505:.\Generated_Source\PSoC5/Comp_3.c ****     #endif /* CY_PSOC5A */
 506:.\Generated_Source\PSoC5/Comp_3.c ****     
 507:.\Generated_Source\PSoC5/Comp_3.c ****     /* PSoC3, PSoC5LP or later */
 508:.\Generated_Source\PSoC5/Comp_3.c ****     #if (CY_PSOC3 || CY_PSOC5LP)
 509:.\Generated_Source\PSoC5/Comp_3.c ****         return ((uint16)((uint16)Comp_3_TR1 << 8u) | (Comp_3_TR0));        
 446              		.loc 1 509 0
 447 004c 0B4B     		ldr	r3, .L44+20
 495:.\Generated_Source\PSoC5/Comp_3.c ****     Comp_3_CR = tmpCR;
 448              		.loc 1 495 0
 449 004e 8AF80090 		strb	r9, [sl, #0]
 450              		.loc 1 509 0
 451 0052 591E     		subs	r1, r3, #1
 498:.\Generated_Source\PSoC5/Comp_3.c ****     Comp_3_SW0 = tmpSW0;
 452              		.loc 1 498 0
 453 0054 88F80070 		strb	r7, [r8, #0]
 499:.\Generated_Source\PSoC5/Comp_3.c ****     Comp_3_SW2 = tmpSW2;
 454              		.loc 1 499 0
 455 0058 1670     		strb	r6, [r2, #0]
 500:.\Generated_Source\PSoC5/Comp_3.c ****     Comp_3_SW3 = tmpSW3;
 456              		.loc 1 500 0
 457 005a 5570     		strb	r5, [r2, #1]
 458              		.loc 1 509 0
 459 005c 1878     		ldrb	r0, [r3, #0]	@ zero_extendqisi2
 460 005e 0A78     		ldrb	r2, [r1, #0]	@ zero_extendqisi2
 510:.\Generated_Source\PSoC5/Comp_3.c ****     #endif /* CY_PSOC3 || CY_PSOC5LP */
 511:.\Generated_Source\PSoC5/Comp_3.c **** }
 461              		.loc 1 511 0
 462 0060 42EA0020 		orr	r0, r2, r0, lsl #8
 463 0064 BDE8F087 		pop	{r4, r5, r6, r7, r8, r9, sl, pc}
 464              	.L45:
 465              		.align	2
 466              	.L44:
 467 0068 C05A0040 		.word	1073765056
 468 006c C25A0040 		.word	1073765058
 469 0070 C35A0040 		.word	1073765059
ARM GAS  C:\Users\Luke\AppData\Local\Temp\cciqWDmg.s 			page 19


 470 0074 40580040 		.word	1073764416
 471 0078 30460040 		.word	1073759792
 472 007c 31460040 		.word	1073759793
 473              		.cfi_endproc
 474              	.LFE7:
 475              		.size	Comp_3_ZeroCal, .-Comp_3_ZeroCal
 476              		.section	.text.Comp_3_LoadTrim,"ax",%progbits
 477              		.align	1
 478              		.global	Comp_3_LoadTrim
 479              		.thumb
 480              		.thumb_func
 481              		.type	Comp_3_LoadTrim, %function
 482              	Comp_3_LoadTrim:
 483              	.LFB8:
 512:.\Generated_Source\PSoC5/Comp_3.c **** 
 513:.\Generated_Source\PSoC5/Comp_3.c **** 
 514:.\Generated_Source\PSoC5/Comp_3.c **** /*******************************************************************************
 515:.\Generated_Source\PSoC5/Comp_3.c **** * Function Name: Comp_3_LoadTrim
 516:.\Generated_Source\PSoC5/Comp_3.c **** ********************************************************************************
 517:.\Generated_Source\PSoC5/Comp_3.c **** *
 518:.\Generated_Source\PSoC5/Comp_3.c **** * Summary:
 519:.\Generated_Source\PSoC5/Comp_3.c **** *  This function stores a value in the Analog Comparator trim register.
 520:.\Generated_Source\PSoC5/Comp_3.c **** *
 521:.\Generated_Source\PSoC5/Comp_3.c **** * Parameters:  
 522:.\Generated_Source\PSoC5/Comp_3.c **** *  uint8 trimVal - trim value.  This value is the same format as the value 
 523:.\Generated_Source\PSoC5/Comp_3.c **** *  returned by the _ZeroCal routine.
 524:.\Generated_Source\PSoC5/Comp_3.c **** *
 525:.\Generated_Source\PSoC5/Comp_3.c **** * Return:
 526:.\Generated_Source\PSoC5/Comp_3.c **** *  None
 527:.\Generated_Source\PSoC5/Comp_3.c **** *
 528:.\Generated_Source\PSoC5/Comp_3.c **** *******************************************************************************/
 529:.\Generated_Source\PSoC5/Comp_3.c **** void Comp_3_LoadTrim(uint16 trimVal) 
 530:.\Generated_Source\PSoC5/Comp_3.c **** {
 484              		.loc 1 530 0
 485              		.cfi_startproc
 486              		@ args = 0, pretend = 0, frame = 0
 487              		@ frame_needed = 0, uses_anonymous_args = 0
 488              		@ link register save eliminated.
 489              	.LVL20:
 531:.\Generated_Source\PSoC5/Comp_3.c ****     /* Stores value in the Analog Comparator trim register */
 532:.\Generated_Source\PSoC5/Comp_3.c ****     /* PSoC5A */
 533:.\Generated_Source\PSoC5/Comp_3.c ****     #if (CY_PSOC5A)
 534:.\Generated_Source\PSoC5/Comp_3.c ****         Comp_3_TR = (uint8) trimVal;
 535:.\Generated_Source\PSoC5/Comp_3.c ****     #endif /* CY_PSOC5A */
 536:.\Generated_Source\PSoC5/Comp_3.c ****     
 537:.\Generated_Source\PSoC5/Comp_3.c ****     /* PSoC3, PSoC5LP or later */
 538:.\Generated_Source\PSoC5/Comp_3.c ****     #if (CY_PSOC3 || CY_PSOC5LP)
 539:.\Generated_Source\PSoC5/Comp_3.c ****         /* Stores value in the Analog Comparator trim register for P-type load */
 540:.\Generated_Source\PSoC5/Comp_3.c ****         Comp_3_TR0 = (uint8) trimVal;
 490              		.loc 1 540 0
 491 0000 024B     		ldr	r3, .L47
 492 0002 C2B2     		uxtb	r2, r0
 541:.\Generated_Source\PSoC5/Comp_3.c ****         
 542:.\Generated_Source\PSoC5/Comp_3.c ****         /* Stores value in the Analog Comparator trim register for N-type load */
 543:.\Generated_Source\PSoC5/Comp_3.c ****         Comp_3_TR1 = (uint8) (trimVal >> 8); 
 493              		.loc 1 543 0
 494 0004 000A     		lsrs	r0, r0, #8
ARM GAS  C:\Users\Luke\AppData\Local\Temp\cciqWDmg.s 			page 20


 495              	.LVL21:
 540:.\Generated_Source\PSoC5/Comp_3.c ****         Comp_3_TR0 = (uint8) trimVal;
 496              		.loc 1 540 0
 497 0006 1A70     		strb	r2, [r3, #0]
 498              		.loc 1 543 0
 499 0008 5870     		strb	r0, [r3, #1]
 500 000a 7047     		bx	lr
 501              	.L48:
 502              		.align	2
 503              	.L47:
 504 000c 30460040 		.word	1073759792
 505              		.cfi_endproc
 506              	.LFE8:
 507              		.size	Comp_3_LoadTrim, .-Comp_3_LoadTrim
 508              		.section	.text.Comp_3_PwrDwnOverrideEnable,"ax",%progbits
 509              		.align	1
 510              		.global	Comp_3_PwrDwnOverrideEnable
 511              		.thumb
 512              		.thumb_func
 513              		.type	Comp_3_PwrDwnOverrideEnable, %function
 514              	Comp_3_PwrDwnOverrideEnable:
 515              	.LFB9:
 544:.\Generated_Source\PSoC5/Comp_3.c ****     #endif /* CY_PSOC3 || CY_PSOC5LP */
 545:.\Generated_Source\PSoC5/Comp_3.c **** }
 546:.\Generated_Source\PSoC5/Comp_3.c **** 
 547:.\Generated_Source\PSoC5/Comp_3.c **** 
 548:.\Generated_Source\PSoC5/Comp_3.c **** #if (CY_PSOC3 || CY_PSOC5LP)
 549:.\Generated_Source\PSoC5/Comp_3.c **** 
 550:.\Generated_Source\PSoC5/Comp_3.c ****     /*******************************************************************************
 551:.\Generated_Source\PSoC5/Comp_3.c ****     * Function Name: Comp_3_PwrDwnOverrideEnable
 552:.\Generated_Source\PSoC5/Comp_3.c ****     ********************************************************************************
 553:.\Generated_Source\PSoC5/Comp_3.c ****     *
 554:.\Generated_Source\PSoC5/Comp_3.c ****     * Summary:
 555:.\Generated_Source\PSoC5/Comp_3.c ****     *  This is the power down over-ride feature. This function ignores sleep 
 556:.\Generated_Source\PSoC5/Comp_3.c ****     *  parameter and allows the component to stay active during sleep mode.
 557:.\Generated_Source\PSoC5/Comp_3.c ****     *
 558:.\Generated_Source\PSoC5/Comp_3.c ****     * Parameters:
 559:.\Generated_Source\PSoC5/Comp_3.c ****     *  None
 560:.\Generated_Source\PSoC5/Comp_3.c ****     *
 561:.\Generated_Source\PSoC5/Comp_3.c ****     * Return:
 562:.\Generated_Source\PSoC5/Comp_3.c ****     *  None
 563:.\Generated_Source\PSoC5/Comp_3.c ****     *
 564:.\Generated_Source\PSoC5/Comp_3.c ****     *******************************************************************************/
 565:.\Generated_Source\PSoC5/Comp_3.c ****     void Comp_3_PwrDwnOverrideEnable(void) 
 566:.\Generated_Source\PSoC5/Comp_3.c ****     {
 516              		.loc 1 566 0
 517              		.cfi_startproc
 518              		@ args = 0, pretend = 0, frame = 0
 519              		@ frame_needed = 0, uses_anonymous_args = 0
 520              		@ link register save eliminated.
 567:.\Generated_Source\PSoC5/Comp_3.c ****         /* Set the pd_override bit in CMP_CR register */
 568:.\Generated_Source\PSoC5/Comp_3.c ****         Comp_3_CR |= Comp_3_PWRDWN_OVRD;
 521              		.loc 1 568 0
 522 0000 024B     		ldr	r3, .L50
 523 0002 1A78     		ldrb	r2, [r3, #0]	@ zero_extendqisi2
 524 0004 42F00400 		orr	r0, r2, #4
 525 0008 1870     		strb	r0, [r3, #0]
ARM GAS  C:\Users\Luke\AppData\Local\Temp\cciqWDmg.s 			page 21


 526 000a 7047     		bx	lr
 527              	.L51:
 528              		.align	2
 529              	.L50:
 530 000c 40580040 		.word	1073764416
 531              		.cfi_endproc
 532              	.LFE9:
 533              		.size	Comp_3_PwrDwnOverrideEnable, .-Comp_3_PwrDwnOverrideEnable
 534              		.section	.text.Comp_3_PwrDwnOverrideDisable,"ax",%progbits
 535              		.align	1
 536              		.global	Comp_3_PwrDwnOverrideDisable
 537              		.thumb
 538              		.thumb_func
 539              		.type	Comp_3_PwrDwnOverrideDisable, %function
 540              	Comp_3_PwrDwnOverrideDisable:
 541              	.LFB10:
 569:.\Generated_Source\PSoC5/Comp_3.c ****     }
 570:.\Generated_Source\PSoC5/Comp_3.c **** 
 571:.\Generated_Source\PSoC5/Comp_3.c **** 
 572:.\Generated_Source\PSoC5/Comp_3.c ****     /*******************************************************************************
 573:.\Generated_Source\PSoC5/Comp_3.c ****     * Function Name: Comp_3_PwrDwnOverrideDisable
 574:.\Generated_Source\PSoC5/Comp_3.c ****     ********************************************************************************
 575:.\Generated_Source\PSoC5/Comp_3.c ****     *
 576:.\Generated_Source\PSoC5/Comp_3.c ****     * Summary:
 577:.\Generated_Source\PSoC5/Comp_3.c ****     *  This is the power down over-ride feature. This allows the component to stay
 578:.\Generated_Source\PSoC5/Comp_3.c ****     *  inactive during sleep.
 579:.\Generated_Source\PSoC5/Comp_3.c ****     *
 580:.\Generated_Source\PSoC5/Comp_3.c ****     * Parameters:
 581:.\Generated_Source\PSoC5/Comp_3.c ****     *  None
 582:.\Generated_Source\PSoC5/Comp_3.c ****     *
 583:.\Generated_Source\PSoC5/Comp_3.c ****     * Return:
 584:.\Generated_Source\PSoC5/Comp_3.c ****     *  None
 585:.\Generated_Source\PSoC5/Comp_3.c ****     *
 586:.\Generated_Source\PSoC5/Comp_3.c ****     *******************************************************************************/
 587:.\Generated_Source\PSoC5/Comp_3.c ****     void Comp_3_PwrDwnOverrideDisable(void) 
 588:.\Generated_Source\PSoC5/Comp_3.c ****     {
 542              		.loc 1 588 0
 543              		.cfi_startproc
 544              		@ args = 0, pretend = 0, frame = 0
 545              		@ frame_needed = 0, uses_anonymous_args = 0
 546              		@ link register save eliminated.
 589:.\Generated_Source\PSoC5/Comp_3.c ****         /* Reset the pd_override bit in CMP_CR register */
 590:.\Generated_Source\PSoC5/Comp_3.c ****         Comp_3_CR &= (uint8)(~Comp_3_PWRDWN_OVRD);
 547              		.loc 1 590 0
 548 0000 024B     		ldr	r3, .L53
 549 0002 1A78     		ldrb	r2, [r3, #0]	@ zero_extendqisi2
 550 0004 02F0FB00 		and	r0, r2, #251
 551 0008 1870     		strb	r0, [r3, #0]
 552 000a 7047     		bx	lr
 553              	.L54:
 554              		.align	2
 555              	.L53:
 556 000c 40580040 		.word	1073764416
 557              		.cfi_endproc
 558              	.LFE10:
 559              		.size	Comp_3_PwrDwnOverrideDisable, .-Comp_3_PwrDwnOverrideDisable
 560              		.global	Comp_3_initVar
ARM GAS  C:\Users\Luke\AppData\Local\Temp\cciqWDmg.s 			page 22


 561              		.bss
 562              		.set	.LANCHOR0,. + 0
 563              		.type	Comp_3_initVar, %object
 564              		.size	Comp_3_initVar, 1
 565              	Comp_3_initVar:
 566 0000 00       		.space	1
 567              		.text
 568              	.Letext0:
 569              		.file 2 ".\\Generated_Source\\PSoC5\\cytypes.h"
 570              		.file 3 ".\\Generated_Source\\PSoC5\\CyLib.h"