ARM GAS  C:\Users\Luke\AppData\Local\Temp\ccvIQUmx.s 			page 1


   1              		.syntax unified
   2              		.cpu cortex-m3
   3              		.fpu softvfp
   4              		.eabi_attribute 20, 1
   5              		.eabi_attribute 21, 1
   6              		.eabi_attribute 23, 3
   7              		.eabi_attribute 24, 1
   8              		.eabi_attribute 25, 1
   9              		.eabi_attribute 26, 1
  10              		.eabi_attribute 30, 4
  11              		.eabi_attribute 34, 1
  12              		.eabi_attribute 18, 4
  13              		.thumb
  14              		.file	"Comp_3_PM.c"
  15              		.text
  16              	.Ltext0:
  17              		.cfi_sections	.debug_frame
  18              		.section	.text.Comp_3_SaveConfig,"ax",%progbits
  19              		.align	1
  20              		.global	Comp_3_SaveConfig
  21              		.thumb
  22              		.thumb_func
  23              		.type	Comp_3_SaveConfig, %function
  24              	Comp_3_SaveConfig:
  25              	.LFB0:
  26              		.file 1 ".\\Generated_Source\\PSoC5\\Comp_3_PM.c"
   1:.\Generated_Source\PSoC5/Comp_3_PM.c **** /*******************************************************************************
   2:.\Generated_Source\PSoC5/Comp_3_PM.c **** * File Name: Comp_3.c
   3:.\Generated_Source\PSoC5/Comp_3_PM.c **** * Version 2.0
   4:.\Generated_Source\PSoC5/Comp_3_PM.c **** *
   5:.\Generated_Source\PSoC5/Comp_3_PM.c **** * Description:
   6:.\Generated_Source\PSoC5/Comp_3_PM.c **** *  This file provides the power management source code APIs for the
   7:.\Generated_Source\PSoC5/Comp_3_PM.c **** *  Comparator.
   8:.\Generated_Source\PSoC5/Comp_3_PM.c **** *
   9:.\Generated_Source\PSoC5/Comp_3_PM.c **** * Note:
  10:.\Generated_Source\PSoC5/Comp_3_PM.c **** *  None
  11:.\Generated_Source\PSoC5/Comp_3_PM.c **** *
  12:.\Generated_Source\PSoC5/Comp_3_PM.c **** ********************************************************************************
  13:.\Generated_Source\PSoC5/Comp_3_PM.c **** * Copyright 2008-2012, Cypress Semiconductor Corporation.  All rights reserved.
  14:.\Generated_Source\PSoC5/Comp_3_PM.c **** * You may use this file only in accordance with the license, terms, conditions, 
  15:.\Generated_Source\PSoC5/Comp_3_PM.c **** * disclaimers, and limitations in the end user license agreement accompanying 
  16:.\Generated_Source\PSoC5/Comp_3_PM.c **** * the software package with which this file was provided.
  17:.\Generated_Source\PSoC5/Comp_3_PM.c **** *******************************************************************************/
  18:.\Generated_Source\PSoC5/Comp_3_PM.c **** 
  19:.\Generated_Source\PSoC5/Comp_3_PM.c **** #include "Comp_3.h"
  20:.\Generated_Source\PSoC5/Comp_3_PM.c **** 
  21:.\Generated_Source\PSoC5/Comp_3_PM.c **** static Comp_3_backupStruct Comp_3_backup;
  22:.\Generated_Source\PSoC5/Comp_3_PM.c **** 
  23:.\Generated_Source\PSoC5/Comp_3_PM.c **** 
  24:.\Generated_Source\PSoC5/Comp_3_PM.c **** /*******************************************************************************
  25:.\Generated_Source\PSoC5/Comp_3_PM.c **** * Function Name: Comp_3_SaveConfig
  26:.\Generated_Source\PSoC5/Comp_3_PM.c **** ********************************************************************************
  27:.\Generated_Source\PSoC5/Comp_3_PM.c **** *
  28:.\Generated_Source\PSoC5/Comp_3_PM.c **** * Summary:
  29:.\Generated_Source\PSoC5/Comp_3_PM.c **** *  Save the current user configuration
  30:.\Generated_Source\PSoC5/Comp_3_PM.c **** *
  31:.\Generated_Source\PSoC5/Comp_3_PM.c **** * Parameters:
ARM GAS  C:\Users\Luke\AppData\Local\Temp\ccvIQUmx.s 			page 2


  32:.\Generated_Source\PSoC5/Comp_3_PM.c **** *  void:
  33:.\Generated_Source\PSoC5/Comp_3_PM.c **** *
  34:.\Generated_Source\PSoC5/Comp_3_PM.c **** * Return:
  35:.\Generated_Source\PSoC5/Comp_3_PM.c **** *  void
  36:.\Generated_Source\PSoC5/Comp_3_PM.c **** *
  37:.\Generated_Source\PSoC5/Comp_3_PM.c **** *******************************************************************************/
  38:.\Generated_Source\PSoC5/Comp_3_PM.c **** void Comp_3_SaveConfig(void) 
  39:.\Generated_Source\PSoC5/Comp_3_PM.c **** {
  27              		.loc 1 39 0
  28              		.cfi_startproc
  29              		@ args = 0, pretend = 0, frame = 0
  30              		@ frame_needed = 0, uses_anonymous_args = 0
  31              		@ link register save eliminated.
  32 0000 7047     		bx	lr
  33              		.cfi_endproc
  34              	.LFE0:
  35              		.size	Comp_3_SaveConfig, .-Comp_3_SaveConfig
  36              		.section	.text.Comp_3_RestoreConfig,"ax",%progbits
  37              		.align	1
  38              		.global	Comp_3_RestoreConfig
  39              		.thumb
  40              		.thumb_func
  41              		.type	Comp_3_RestoreConfig, %function
  42              	Comp_3_RestoreConfig:
  43              	.LFB1:
  40:.\Generated_Source\PSoC5/Comp_3_PM.c ****     /* Empty since all are system reset for retention flops */
  41:.\Generated_Source\PSoC5/Comp_3_PM.c **** }
  42:.\Generated_Source\PSoC5/Comp_3_PM.c **** 
  43:.\Generated_Source\PSoC5/Comp_3_PM.c **** 
  44:.\Generated_Source\PSoC5/Comp_3_PM.c **** /*******************************************************************************
  45:.\Generated_Source\PSoC5/Comp_3_PM.c **** * Function Name: Comp_3_RestoreConfig
  46:.\Generated_Source\PSoC5/Comp_3_PM.c **** ********************************************************************************
  47:.\Generated_Source\PSoC5/Comp_3_PM.c **** *
  48:.\Generated_Source\PSoC5/Comp_3_PM.c **** * Summary:
  49:.\Generated_Source\PSoC5/Comp_3_PM.c **** *  Restores the current user configuration.
  50:.\Generated_Source\PSoC5/Comp_3_PM.c **** *
  51:.\Generated_Source\PSoC5/Comp_3_PM.c **** * Parameters:
  52:.\Generated_Source\PSoC5/Comp_3_PM.c **** *  void
  53:.\Generated_Source\PSoC5/Comp_3_PM.c **** *
  54:.\Generated_Source\PSoC5/Comp_3_PM.c **** * Return:
  55:.\Generated_Source\PSoC5/Comp_3_PM.c **** *  void
  56:.\Generated_Source\PSoC5/Comp_3_PM.c **** *
  57:.\Generated_Source\PSoC5/Comp_3_PM.c **** ********************************************************************************/
  58:.\Generated_Source\PSoC5/Comp_3_PM.c **** void Comp_3_RestoreConfig(void) 
  59:.\Generated_Source\PSoC5/Comp_3_PM.c **** {
  44              		.loc 1 59 0
  45              		.cfi_startproc
  46              		@ args = 0, pretend = 0, frame = 0
  47              		@ frame_needed = 0, uses_anonymous_args = 0
  48              		@ link register save eliminated.
  49 0000 7047     		bx	lr
  50              		.cfi_endproc
  51              	.LFE1:
  52              		.size	Comp_3_RestoreConfig, .-Comp_3_RestoreConfig
  53              		.section	.text.Comp_3_Sleep,"ax",%progbits
  54              		.align	1
  55              		.global	Comp_3_Sleep
ARM GAS  C:\Users\Luke\AppData\Local\Temp\ccvIQUmx.s 			page 3


  56              		.thumb
  57              		.thumb_func
  58              		.type	Comp_3_Sleep, %function
  59              	Comp_3_Sleep:
  60              	.LFB2:
  60:.\Generated_Source\PSoC5/Comp_3_PM.c ****     /* Empty since all are system reset for retention flops */    
  61:.\Generated_Source\PSoC5/Comp_3_PM.c **** }
  62:.\Generated_Source\PSoC5/Comp_3_PM.c **** 
  63:.\Generated_Source\PSoC5/Comp_3_PM.c **** 
  64:.\Generated_Source\PSoC5/Comp_3_PM.c **** /*******************************************************************************
  65:.\Generated_Source\PSoC5/Comp_3_PM.c **** * Function Name: Comp_3_Sleep
  66:.\Generated_Source\PSoC5/Comp_3_PM.c **** ********************************************************************************
  67:.\Generated_Source\PSoC5/Comp_3_PM.c **** *
  68:.\Generated_Source\PSoC5/Comp_3_PM.c **** * Summary:
  69:.\Generated_Source\PSoC5/Comp_3_PM.c **** *  Stop and Save the user configuration
  70:.\Generated_Source\PSoC5/Comp_3_PM.c **** *
  71:.\Generated_Source\PSoC5/Comp_3_PM.c **** * Parameters:
  72:.\Generated_Source\PSoC5/Comp_3_PM.c **** *  void:
  73:.\Generated_Source\PSoC5/Comp_3_PM.c **** *
  74:.\Generated_Source\PSoC5/Comp_3_PM.c **** * Return:
  75:.\Generated_Source\PSoC5/Comp_3_PM.c **** *  void
  76:.\Generated_Source\PSoC5/Comp_3_PM.c **** *
  77:.\Generated_Source\PSoC5/Comp_3_PM.c **** * Global variables:
  78:.\Generated_Source\PSoC5/Comp_3_PM.c **** *  Comp_3_backup.enableState:  Is modified depending on the enable 
  79:.\Generated_Source\PSoC5/Comp_3_PM.c **** *   state of the block before entering sleep mode.
  80:.\Generated_Source\PSoC5/Comp_3_PM.c **** *
  81:.\Generated_Source\PSoC5/Comp_3_PM.c **** *******************************************************************************/
  82:.\Generated_Source\PSoC5/Comp_3_PM.c **** void Comp_3_Sleep(void) 
  83:.\Generated_Source\PSoC5/Comp_3_PM.c **** {
  61              		.loc 1 83 0
  62              		.cfi_startproc
  63              		@ args = 0, pretend = 0, frame = 0
  64              		@ frame_needed = 0, uses_anonymous_args = 0
  65              		@ link register save eliminated.
  84:.\Generated_Source\PSoC5/Comp_3_PM.c ****     /* Save Comp's enable state */    
  85:.\Generated_Source\PSoC5/Comp_3_PM.c ****     if(Comp_3_ACT_PWR_EN == (Comp_3_PWRMGR & Comp_3_ACT_PWR_EN))
  66              		.loc 1 85 0
  67 0000 044B     		ldr	r3, .L6
  68 0002 0549     		ldr	r1, .L6+4
  69 0004 1878     		ldrb	r0, [r3, #0]	@ zero_extendqisi2
  70 0006 10F00102 		ands	r2, r0, #1
  86:.\Generated_Source\PSoC5/Comp_3_PM.c ****     {
  87:.\Generated_Source\PSoC5/Comp_3_PM.c ****         /* Comp is enabled */
  88:.\Generated_Source\PSoC5/Comp_3_PM.c ****         Comp_3_backup.enableState = 1u;
  71              		.loc 1 88 0
  72 000a 18BF     		it	ne
  73 000c 0122     		movne	r2, #1
  89:.\Generated_Source\PSoC5/Comp_3_PM.c ****     }
  90:.\Generated_Source\PSoC5/Comp_3_PM.c ****     else
  91:.\Generated_Source\PSoC5/Comp_3_PM.c ****     {
  92:.\Generated_Source\PSoC5/Comp_3_PM.c ****         /* Comp is disabled */
  93:.\Generated_Source\PSoC5/Comp_3_PM.c ****         Comp_3_backup.enableState = 0u;
  74              		.loc 1 93 0
  75 000e 0A70     		strb	r2, [r1, #0]
  94:.\Generated_Source\PSoC5/Comp_3_PM.c ****     }    
  95:.\Generated_Source\PSoC5/Comp_3_PM.c ****     
  96:.\Generated_Source\PSoC5/Comp_3_PM.c ****     Comp_3_Stop();
ARM GAS  C:\Users\Luke\AppData\Local\Temp\ccvIQUmx.s 			page 4


  97:.\Generated_Source\PSoC5/Comp_3_PM.c ****     Comp_3_SaveConfig();
  98:.\Generated_Source\PSoC5/Comp_3_PM.c **** }
  76              		.loc 1 98 0
  96:.\Generated_Source\PSoC5/Comp_3_PM.c ****     Comp_3_Stop();
  77              		.loc 1 96 0
  78 0010 FFF7FEBF 		b	Comp_3_Stop
  79              	.LVL0:
  80              	.L7:
  81              		.align	2
  82              	.L6:
  83 0014 A7430040 		.word	1073759143
  84 0018 00000000 		.word	.LANCHOR0
  85              		.cfi_endproc
  86              	.LFE2:
  87              		.size	Comp_3_Sleep, .-Comp_3_Sleep
  88              		.section	.text.Comp_3_Wakeup,"ax",%progbits
  89              		.align	1
  90              		.global	Comp_3_Wakeup
  91              		.thumb
  92              		.thumb_func
  93              		.type	Comp_3_Wakeup, %function
  94              	Comp_3_Wakeup:
  95              	.LFB3:
  99:.\Generated_Source\PSoC5/Comp_3_PM.c **** 
 100:.\Generated_Source\PSoC5/Comp_3_PM.c **** 
 101:.\Generated_Source\PSoC5/Comp_3_PM.c **** /*******************************************************************************
 102:.\Generated_Source\PSoC5/Comp_3_PM.c **** * Function Name: Comp_3_Wakeup
 103:.\Generated_Source\PSoC5/Comp_3_PM.c **** ********************************************************************************
 104:.\Generated_Source\PSoC5/Comp_3_PM.c **** *
 105:.\Generated_Source\PSoC5/Comp_3_PM.c **** * Summary:
 106:.\Generated_Source\PSoC5/Comp_3_PM.c **** *  Restores and enables the user configuration
 107:.\Generated_Source\PSoC5/Comp_3_PM.c **** *  
 108:.\Generated_Source\PSoC5/Comp_3_PM.c **** * Parameters:
 109:.\Generated_Source\PSoC5/Comp_3_PM.c **** *  void
 110:.\Generated_Source\PSoC5/Comp_3_PM.c **** *
 111:.\Generated_Source\PSoC5/Comp_3_PM.c **** * Return:
 112:.\Generated_Source\PSoC5/Comp_3_PM.c **** *  void
 113:.\Generated_Source\PSoC5/Comp_3_PM.c **** *
 114:.\Generated_Source\PSoC5/Comp_3_PM.c **** * Global variables:
 115:.\Generated_Source\PSoC5/Comp_3_PM.c **** *  Comp_3_backup.enableState:  Is used to restore the enable state of 
 116:.\Generated_Source\PSoC5/Comp_3_PM.c **** *  block on wakeup from sleep mode.
 117:.\Generated_Source\PSoC5/Comp_3_PM.c **** *
 118:.\Generated_Source\PSoC5/Comp_3_PM.c **** *******************************************************************************/
 119:.\Generated_Source\PSoC5/Comp_3_PM.c **** void Comp_3_Wakeup(void) 
 120:.\Generated_Source\PSoC5/Comp_3_PM.c **** {
  96              		.loc 1 120 0
  97              		.cfi_startproc
  98              		@ args = 0, pretend = 0, frame = 0
  99              		@ frame_needed = 0, uses_anonymous_args = 0
 100              		@ link register save eliminated.
 121:.\Generated_Source\PSoC5/Comp_3_PM.c ****     Comp_3_RestoreConfig();
 122:.\Generated_Source\PSoC5/Comp_3_PM.c ****     
 123:.\Generated_Source\PSoC5/Comp_3_PM.c ****     if(Comp_3_backup.enableState == 1u)
 101              		.loc 1 123 0
 102 0000 034B     		ldr	r3, .L11
 103 0002 1878     		ldrb	r0, [r3, #0]	@ zero_extendqisi2
 104 0004 0128     		cmp	r0, #1
ARM GAS  C:\Users\Luke\AppData\Local\Temp\ccvIQUmx.s 			page 5


 105 0006 01D1     		bne	.L8
 124:.\Generated_Source\PSoC5/Comp_3_PM.c ****     {
 125:.\Generated_Source\PSoC5/Comp_3_PM.c ****         /* Enable Comp's operation */
 126:.\Generated_Source\PSoC5/Comp_3_PM.c ****         Comp_3_Enable();
 127:.\Generated_Source\PSoC5/Comp_3_PM.c **** 
 128:.\Generated_Source\PSoC5/Comp_3_PM.c ****     } /* Do nothing if Comp was disabled before */ 
 129:.\Generated_Source\PSoC5/Comp_3_PM.c **** }
 106              		.loc 1 129 0
 126:.\Generated_Source\PSoC5/Comp_3_PM.c ****         Comp_3_Enable();
 107              		.loc 1 126 0
 108 0008 FFF7FEBF 		b	Comp_3_Enable
 109              	.LVL1:
 110              	.L8:
 111 000c 7047     		bx	lr
 112              	.L12:
 113 000e 00BF     		.align	2
 114              	.L11:
 115 0010 00000000 		.word	.LANCHOR0
 116              		.cfi_endproc
 117              	.LFE3:
 118              		.size	Comp_3_Wakeup, .-Comp_3_Wakeup
 119              		.bss
 120              		.set	.LANCHOR0,. + 0
 121              		.type	Comp_3_backup, %object
 122              		.size	Comp_3_backup, 1
 123              	Comp_3_backup:
 124 0000 00       		.space	1
 125              		.text
 126              	.Letext0:
 127              		.file 2 ".\\Generated_Source\\PSoC5\\cytypes.h"
 128              		.file 3 ".\\Generated_Source\\PSoC5\\Comp_3.h"