ARM GAS  C:\Users\Luke\AppData\Local\Temp\ccBtEEbl.s 			page 1


   1              		.syntax unified
   2              		.cpu cortex-m3
   3              		.fpu softvfp
   4              		.eabi_attribute 20, 1
   5              		.eabi_attribute 21, 1
   6              		.eabi_attribute 23, 3
   7              		.eabi_attribute 24, 1
   8              		.eabi_attribute 25, 1
   9              		.eabi_attribute 26, 1
  10              		.eabi_attribute 30, 4
  11              		.eabi_attribute 34, 1
  12              		.eabi_attribute 18, 4
  13              		.thumb
  14              		.file	"Counter_1_PM.c"
  15              		.text
  16              	.Ltext0:
  17              		.cfi_sections	.debug_frame
  18              		.section	.text.Counter_1_SaveConfig,"ax",%progbits
  19              		.align	1
  20              		.global	Counter_1_SaveConfig
  21              		.thumb
  22              		.thumb_func
  23              		.type	Counter_1_SaveConfig, %function
  24              	Counter_1_SaveConfig:
  25              	.LFB0:
  26              		.file 1 ".\\Generated_Source\\PSoC5\\Counter_1_PM.c"
   1:.\Generated_Source\PSoC5/Counter_1_PM.c **** /*******************************************************************************
   2:.\Generated_Source\PSoC5/Counter_1_PM.c **** * File Name: Counter_1_PM.c  
   3:.\Generated_Source\PSoC5/Counter_1_PM.c **** * Version 2.40
   4:.\Generated_Source\PSoC5/Counter_1_PM.c **** *
   5:.\Generated_Source\PSoC5/Counter_1_PM.c **** *  Description:
   6:.\Generated_Source\PSoC5/Counter_1_PM.c **** *    This file provides the power management source code to API for the
   7:.\Generated_Source\PSoC5/Counter_1_PM.c **** *    Counter.  
   8:.\Generated_Source\PSoC5/Counter_1_PM.c **** *
   9:.\Generated_Source\PSoC5/Counter_1_PM.c **** *   Note:
  10:.\Generated_Source\PSoC5/Counter_1_PM.c **** *     None
  11:.\Generated_Source\PSoC5/Counter_1_PM.c **** *
  12:.\Generated_Source\PSoC5/Counter_1_PM.c **** *******************************************************************************
  13:.\Generated_Source\PSoC5/Counter_1_PM.c **** * Copyright 2008-2012, Cypress Semiconductor Corporation.  All rights reserved.
  14:.\Generated_Source\PSoC5/Counter_1_PM.c **** * You may use this file only in accordance with the license, terms, conditions, 
  15:.\Generated_Source\PSoC5/Counter_1_PM.c **** * disclaimers, and limitations in the end user license agreement accompanying 
  16:.\Generated_Source\PSoC5/Counter_1_PM.c **** * the software package with which this file was provided.
  17:.\Generated_Source\PSoC5/Counter_1_PM.c **** ********************************************************************************/
  18:.\Generated_Source\PSoC5/Counter_1_PM.c **** 
  19:.\Generated_Source\PSoC5/Counter_1_PM.c **** #include "Counter_1.h"
  20:.\Generated_Source\PSoC5/Counter_1_PM.c **** 
  21:.\Generated_Source\PSoC5/Counter_1_PM.c **** static Counter_1_backupStruct Counter_1_backup;
  22:.\Generated_Source\PSoC5/Counter_1_PM.c **** 
  23:.\Generated_Source\PSoC5/Counter_1_PM.c **** 
  24:.\Generated_Source\PSoC5/Counter_1_PM.c **** /*******************************************************************************
  25:.\Generated_Source\PSoC5/Counter_1_PM.c **** * Function Name: Counter_1_SaveConfig
  26:.\Generated_Source\PSoC5/Counter_1_PM.c **** ********************************************************************************
  27:.\Generated_Source\PSoC5/Counter_1_PM.c **** * Summary:
  28:.\Generated_Source\PSoC5/Counter_1_PM.c **** *     Save the current user configuration
  29:.\Generated_Source\PSoC5/Counter_1_PM.c **** *
  30:.\Generated_Source\PSoC5/Counter_1_PM.c **** * Parameters:  
  31:.\Generated_Source\PSoC5/Counter_1_PM.c **** *  void
ARM GAS  C:\Users\Luke\AppData\Local\Temp\ccBtEEbl.s 			page 2


  32:.\Generated_Source\PSoC5/Counter_1_PM.c **** *
  33:.\Generated_Source\PSoC5/Counter_1_PM.c **** * Return: 
  34:.\Generated_Source\PSoC5/Counter_1_PM.c **** *  void
  35:.\Generated_Source\PSoC5/Counter_1_PM.c **** *
  36:.\Generated_Source\PSoC5/Counter_1_PM.c **** * Global variables:
  37:.\Generated_Source\PSoC5/Counter_1_PM.c **** *  Counter_1_backup:  Variables of this global structure are modified to 
  38:.\Generated_Source\PSoC5/Counter_1_PM.c **** *  store the values of non retention configuration registers when Sleep() API is 
  39:.\Generated_Source\PSoC5/Counter_1_PM.c **** *  called.
  40:.\Generated_Source\PSoC5/Counter_1_PM.c **** *
  41:.\Generated_Source\PSoC5/Counter_1_PM.c **** *******************************************************************************/
  42:.\Generated_Source\PSoC5/Counter_1_PM.c **** void Counter_1_SaveConfig(void) 
  43:.\Generated_Source\PSoC5/Counter_1_PM.c **** {
  27              		.loc 1 43 0
  28              		.cfi_startproc
  29              		@ args = 0, pretend = 0, frame = 0
  30              		@ frame_needed = 0, uses_anonymous_args = 0
  31              		@ link register save eliminated.
  32 0000 7047     		bx	lr
  33              		.cfi_endproc
  34              	.LFE0:
  35              		.size	Counter_1_SaveConfig, .-Counter_1_SaveConfig
  36              		.section	.text.Counter_1_RestoreConfig,"ax",%progbits
  37              		.align	1
  38              		.global	Counter_1_RestoreConfig
  39              		.thumb
  40              		.thumb_func
  41              		.type	Counter_1_RestoreConfig, %function
  42              	Counter_1_RestoreConfig:
  43              	.LFB1:
  44:.\Generated_Source\PSoC5/Counter_1_PM.c ****     #if (!Counter_1_UsingFixedFunction)
  45:.\Generated_Source\PSoC5/Counter_1_PM.c **** 
  46:.\Generated_Source\PSoC5/Counter_1_PM.c ****         Counter_1_backup.CounterUdb = Counter_1_ReadCounter();
  47:.\Generated_Source\PSoC5/Counter_1_PM.c **** 
  48:.\Generated_Source\PSoC5/Counter_1_PM.c ****         #if (CY_UDB_V0)
  49:.\Generated_Source\PSoC5/Counter_1_PM.c ****             Counter_1_backup.CounterPeriod = Counter_1_ReadPeriod();
  50:.\Generated_Source\PSoC5/Counter_1_PM.c ****             Counter_1_backup.CompareValue = Counter_1_ReadCompare();
  51:.\Generated_Source\PSoC5/Counter_1_PM.c ****             Counter_1_backup.InterruptMaskValue = Counter_1_STATUS_MASK;
  52:.\Generated_Source\PSoC5/Counter_1_PM.c ****         #endif /* CY_UDB_V0 */
  53:.\Generated_Source\PSoC5/Counter_1_PM.c **** 
  54:.\Generated_Source\PSoC5/Counter_1_PM.c ****         #if(!Counter_1_ControlRegRemoved)
  55:.\Generated_Source\PSoC5/Counter_1_PM.c ****             Counter_1_backup.CounterControlRegister = Counter_1_ReadControlRegister();
  56:.\Generated_Source\PSoC5/Counter_1_PM.c ****         #endif /* (!Counter_1_ControlRegRemoved) */
  57:.\Generated_Source\PSoC5/Counter_1_PM.c **** 
  58:.\Generated_Source\PSoC5/Counter_1_PM.c ****     #endif /* (!Counter_1_UsingFixedFunction) */
  59:.\Generated_Source\PSoC5/Counter_1_PM.c **** }
  60:.\Generated_Source\PSoC5/Counter_1_PM.c **** 
  61:.\Generated_Source\PSoC5/Counter_1_PM.c **** 
  62:.\Generated_Source\PSoC5/Counter_1_PM.c **** /*******************************************************************************
  63:.\Generated_Source\PSoC5/Counter_1_PM.c **** * Function Name: Counter_1_RestoreConfig
  64:.\Generated_Source\PSoC5/Counter_1_PM.c **** ********************************************************************************
  65:.\Generated_Source\PSoC5/Counter_1_PM.c **** *
  66:.\Generated_Source\PSoC5/Counter_1_PM.c **** * Summary:
  67:.\Generated_Source\PSoC5/Counter_1_PM.c **** *  Restores the current user configuration.
  68:.\Generated_Source\PSoC5/Counter_1_PM.c **** *
  69:.\Generated_Source\PSoC5/Counter_1_PM.c **** * Parameters:  
  70:.\Generated_Source\PSoC5/Counter_1_PM.c **** *  void
  71:.\Generated_Source\PSoC5/Counter_1_PM.c **** *
ARM GAS  C:\Users\Luke\AppData\Local\Temp\ccBtEEbl.s 			page 3


  72:.\Generated_Source\PSoC5/Counter_1_PM.c **** * Return: 
  73:.\Generated_Source\PSoC5/Counter_1_PM.c **** *  void
  74:.\Generated_Source\PSoC5/Counter_1_PM.c **** *
  75:.\Generated_Source\PSoC5/Counter_1_PM.c **** * Global variables:
  76:.\Generated_Source\PSoC5/Counter_1_PM.c **** *  Counter_1_backup:  Variables of this global structure are used to 
  77:.\Generated_Source\PSoC5/Counter_1_PM.c **** *  restore the values of non retention registers on wakeup from sleep mode.
  78:.\Generated_Source\PSoC5/Counter_1_PM.c **** *
  79:.\Generated_Source\PSoC5/Counter_1_PM.c **** *******************************************************************************/
  80:.\Generated_Source\PSoC5/Counter_1_PM.c **** void Counter_1_RestoreConfig(void) 
  81:.\Generated_Source\PSoC5/Counter_1_PM.c **** {      
  44              		.loc 1 81 0
  45              		.cfi_startproc
  46              		@ args = 0, pretend = 0, frame = 0
  47              		@ frame_needed = 0, uses_anonymous_args = 0
  48              		@ link register save eliminated.
  49 0000 7047     		bx	lr
  50              		.cfi_endproc
  51              	.LFE1:
  52              		.size	Counter_1_RestoreConfig, .-Counter_1_RestoreConfig
  53              		.section	.text.Counter_1_Sleep,"ax",%progbits
  54              		.align	1
  55              		.global	Counter_1_Sleep
  56              		.thumb
  57              		.thumb_func
  58              		.type	Counter_1_Sleep, %function
  59              	Counter_1_Sleep:
  60              	.LFB2:
  82:.\Generated_Source\PSoC5/Counter_1_PM.c ****     #if (!Counter_1_UsingFixedFunction)
  83:.\Generated_Source\PSoC5/Counter_1_PM.c **** 
  84:.\Generated_Source\PSoC5/Counter_1_PM.c ****         #if (CY_UDB_V0)
  85:.\Generated_Source\PSoC5/Counter_1_PM.c ****             uint8 Counter_1_interruptState;
  86:.\Generated_Source\PSoC5/Counter_1_PM.c ****         #endif  /* (CY_UDB_V0) */
  87:.\Generated_Source\PSoC5/Counter_1_PM.c **** 
  88:.\Generated_Source\PSoC5/Counter_1_PM.c ****        Counter_1_WriteCounter(Counter_1_backup.CounterUdb);
  89:.\Generated_Source\PSoC5/Counter_1_PM.c **** 
  90:.\Generated_Source\PSoC5/Counter_1_PM.c ****         #if (CY_UDB_V0)
  91:.\Generated_Source\PSoC5/Counter_1_PM.c ****             Counter_1_WritePeriod(Counter_1_backup.CounterPeriod);
  92:.\Generated_Source\PSoC5/Counter_1_PM.c ****             Counter_1_WriteCompare(Counter_1_backup.CompareValue);
  93:.\Generated_Source\PSoC5/Counter_1_PM.c **** 
  94:.\Generated_Source\PSoC5/Counter_1_PM.c ****             Counter_1_interruptState = CyEnterCriticalSection();
  95:.\Generated_Source\PSoC5/Counter_1_PM.c ****             Counter_1_STATUS_AUX_CTRL |= Counter_1_STATUS_ACTL_INT_EN_MASK;
  96:.\Generated_Source\PSoC5/Counter_1_PM.c ****             CyExitCriticalSection(Counter_1_interruptState);
  97:.\Generated_Source\PSoC5/Counter_1_PM.c **** 
  98:.\Generated_Source\PSoC5/Counter_1_PM.c ****             Counter_1_STATUS_MASK = Counter_1_backup.InterruptMaskValue;
  99:.\Generated_Source\PSoC5/Counter_1_PM.c ****         #endif  /* (CY_UDB_V0) */
 100:.\Generated_Source\PSoC5/Counter_1_PM.c **** 
 101:.\Generated_Source\PSoC5/Counter_1_PM.c ****         #if(!Counter_1_ControlRegRemoved)
 102:.\Generated_Source\PSoC5/Counter_1_PM.c ****             Counter_1_WriteControlRegister(Counter_1_backup.CounterControlRegister);
 103:.\Generated_Source\PSoC5/Counter_1_PM.c ****         #endif /* (!Counter_1_ControlRegRemoved) */
 104:.\Generated_Source\PSoC5/Counter_1_PM.c **** 
 105:.\Generated_Source\PSoC5/Counter_1_PM.c ****     #endif /* (!Counter_1_UsingFixedFunction) */
 106:.\Generated_Source\PSoC5/Counter_1_PM.c **** }
 107:.\Generated_Source\PSoC5/Counter_1_PM.c **** 
 108:.\Generated_Source\PSoC5/Counter_1_PM.c **** 
 109:.\Generated_Source\PSoC5/Counter_1_PM.c **** /*******************************************************************************
 110:.\Generated_Source\PSoC5/Counter_1_PM.c **** * Function Name: Counter_1_Sleep
 111:.\Generated_Source\PSoC5/Counter_1_PM.c **** ********************************************************************************
ARM GAS  C:\Users\Luke\AppData\Local\Temp\ccBtEEbl.s 			page 4


 112:.\Generated_Source\PSoC5/Counter_1_PM.c **** * Summary:
 113:.\Generated_Source\PSoC5/Counter_1_PM.c **** *     Stop and Save the user configuration
 114:.\Generated_Source\PSoC5/Counter_1_PM.c **** *
 115:.\Generated_Source\PSoC5/Counter_1_PM.c **** * Parameters:  
 116:.\Generated_Source\PSoC5/Counter_1_PM.c **** *  void
 117:.\Generated_Source\PSoC5/Counter_1_PM.c **** *
 118:.\Generated_Source\PSoC5/Counter_1_PM.c **** * Return: 
 119:.\Generated_Source\PSoC5/Counter_1_PM.c **** *  void
 120:.\Generated_Source\PSoC5/Counter_1_PM.c **** *
 121:.\Generated_Source\PSoC5/Counter_1_PM.c **** * Global variables:
 122:.\Generated_Source\PSoC5/Counter_1_PM.c **** *  Counter_1_backup.enableState:  Is modified depending on the enable 
 123:.\Generated_Source\PSoC5/Counter_1_PM.c **** *  state of the block before entering sleep mode.
 124:.\Generated_Source\PSoC5/Counter_1_PM.c **** *
 125:.\Generated_Source\PSoC5/Counter_1_PM.c **** *******************************************************************************/
 126:.\Generated_Source\PSoC5/Counter_1_PM.c **** void Counter_1_Sleep(void) 
 127:.\Generated_Source\PSoC5/Counter_1_PM.c **** {
  61              		.loc 1 127 0
  62              		.cfi_startproc
  63              		@ args = 0, pretend = 0, frame = 0
  64              		@ frame_needed = 0, uses_anonymous_args = 0
  65              		@ link register save eliminated.
 128:.\Generated_Source\PSoC5/Counter_1_PM.c ****     #if(!Counter_1_ControlRegRemoved)
 129:.\Generated_Source\PSoC5/Counter_1_PM.c ****         /* Save Counter's enable state */
 130:.\Generated_Source\PSoC5/Counter_1_PM.c ****         if(Counter_1_CTRL_ENABLE == (Counter_1_CONTROL & Counter_1_CTRL_ENABLE))
  66              		.loc 1 130 0
  67 0000 044B     		ldr	r3, .L6
  68 0002 0549     		ldr	r1, .L6+4
  69 0004 1878     		ldrb	r0, [r3, #0]	@ zero_extendqisi2
  70 0006 10F00102 		ands	r2, r0, #1
 131:.\Generated_Source\PSoC5/Counter_1_PM.c ****         {
 132:.\Generated_Source\PSoC5/Counter_1_PM.c ****             /* Counter is enabled */
 133:.\Generated_Source\PSoC5/Counter_1_PM.c ****             Counter_1_backup.CounterEnableState = 1u;
  71              		.loc 1 133 0
  72 000a 18BF     		it	ne
  73 000c 0122     		movne	r2, #1
 134:.\Generated_Source\PSoC5/Counter_1_PM.c ****         }
 135:.\Generated_Source\PSoC5/Counter_1_PM.c ****         else
 136:.\Generated_Source\PSoC5/Counter_1_PM.c ****         {
 137:.\Generated_Source\PSoC5/Counter_1_PM.c ****             /* Counter is disabled */
 138:.\Generated_Source\PSoC5/Counter_1_PM.c ****             Counter_1_backup.CounterEnableState = 0u;
  74              		.loc 1 138 0
  75 000e 0A70     		strb	r2, [r1, #0]
 139:.\Generated_Source\PSoC5/Counter_1_PM.c ****         }
 140:.\Generated_Source\PSoC5/Counter_1_PM.c ****     #else
 141:.\Generated_Source\PSoC5/Counter_1_PM.c ****         Counter_1_backup.CounterEnableState = 1u;
 142:.\Generated_Source\PSoC5/Counter_1_PM.c ****         if(Counter_1_backup.CounterEnableState != 0u)
 143:.\Generated_Source\PSoC5/Counter_1_PM.c ****         {
 144:.\Generated_Source\PSoC5/Counter_1_PM.c ****             Counter_1_backup.CounterEnableState = 0u;
 145:.\Generated_Source\PSoC5/Counter_1_PM.c ****         }
 146:.\Generated_Source\PSoC5/Counter_1_PM.c ****     #endif /* (!Counter_1_ControlRegRemoved) */
 147:.\Generated_Source\PSoC5/Counter_1_PM.c ****     
 148:.\Generated_Source\PSoC5/Counter_1_PM.c ****     Counter_1_Stop();
 149:.\Generated_Source\PSoC5/Counter_1_PM.c ****     Counter_1_SaveConfig();
 150:.\Generated_Source\PSoC5/Counter_1_PM.c **** }
  76              		.loc 1 150 0
 148:.\Generated_Source\PSoC5/Counter_1_PM.c ****     Counter_1_Stop();
  77              		.loc 1 148 0
ARM GAS  C:\Users\Luke\AppData\Local\Temp\ccBtEEbl.s 			page 5


  78 0010 FFF7FEBF 		b	Counter_1_Stop
  79              	.LVL0:
  80              	.L7:
  81              		.align	2
  82              	.L6:
  83 0014 004F0040 		.word	1073762048
  84 0018 00000000 		.word	.LANCHOR0
  85              		.cfi_endproc
  86              	.LFE2:
  87              		.size	Counter_1_Sleep, .-Counter_1_Sleep
  88              		.section	.text.Counter_1_Wakeup,"ax",%progbits
  89              		.align	1
  90              		.global	Counter_1_Wakeup
  91              		.thumb
  92              		.thumb_func
  93              		.type	Counter_1_Wakeup, %function
  94              	Counter_1_Wakeup:
  95              	.LFB3:
 151:.\Generated_Source\PSoC5/Counter_1_PM.c **** 
 152:.\Generated_Source\PSoC5/Counter_1_PM.c **** 
 153:.\Generated_Source\PSoC5/Counter_1_PM.c **** /*******************************************************************************
 154:.\Generated_Source\PSoC5/Counter_1_PM.c **** * Function Name: Counter_1_Wakeup
 155:.\Generated_Source\PSoC5/Counter_1_PM.c **** ********************************************************************************
 156:.\Generated_Source\PSoC5/Counter_1_PM.c **** *
 157:.\Generated_Source\PSoC5/Counter_1_PM.c **** * Summary:
 158:.\Generated_Source\PSoC5/Counter_1_PM.c **** *  Restores and enables the user configuration
 159:.\Generated_Source\PSoC5/Counter_1_PM.c **** *  
 160:.\Generated_Source\PSoC5/Counter_1_PM.c **** * Parameters:  
 161:.\Generated_Source\PSoC5/Counter_1_PM.c **** *  void
 162:.\Generated_Source\PSoC5/Counter_1_PM.c **** *
 163:.\Generated_Source\PSoC5/Counter_1_PM.c **** * Return: 
 164:.\Generated_Source\PSoC5/Counter_1_PM.c **** *  void
 165:.\Generated_Source\PSoC5/Counter_1_PM.c **** *
 166:.\Generated_Source\PSoC5/Counter_1_PM.c **** * Global variables:
 167:.\Generated_Source\PSoC5/Counter_1_PM.c **** *  Counter_1_backup.enableState:  Is used to restore the enable state of 
 168:.\Generated_Source\PSoC5/Counter_1_PM.c **** *  block on wakeup from sleep mode.
 169:.\Generated_Source\PSoC5/Counter_1_PM.c **** *
 170:.\Generated_Source\PSoC5/Counter_1_PM.c **** *******************************************************************************/
 171:.\Generated_Source\PSoC5/Counter_1_PM.c **** void Counter_1_Wakeup(void) 
 172:.\Generated_Source\PSoC5/Counter_1_PM.c **** {
  96              		.loc 1 172 0
  97              		.cfi_startproc
  98              		@ args = 0, pretend = 0, frame = 0
  99              		@ frame_needed = 0, uses_anonymous_args = 0
 100              		@ link register save eliminated.
 173:.\Generated_Source\PSoC5/Counter_1_PM.c ****     Counter_1_RestoreConfig();
 174:.\Generated_Source\PSoC5/Counter_1_PM.c ****     #if(!Counter_1_ControlRegRemoved)
 175:.\Generated_Source\PSoC5/Counter_1_PM.c ****         if(Counter_1_backup.CounterEnableState == 1u)
 101              		.loc 1 175 0
 102 0000 034B     		ldr	r3, .L11
 103 0002 1878     		ldrb	r0, [r3, #0]	@ zero_extendqisi2
 104 0004 0128     		cmp	r0, #1
 105 0006 01D1     		bne	.L8
 176:.\Generated_Source\PSoC5/Counter_1_PM.c ****         {
 177:.\Generated_Source\PSoC5/Counter_1_PM.c ****             /* Enable Counter's operation */
 178:.\Generated_Source\PSoC5/Counter_1_PM.c ****             Counter_1_Enable();
 179:.\Generated_Source\PSoC5/Counter_1_PM.c ****         } /* Do nothing if Counter was disabled before */    
ARM GAS  C:\Users\Luke\AppData\Local\Temp\ccBtEEbl.s 			page 6


 180:.\Generated_Source\PSoC5/Counter_1_PM.c ****     #endif /* (!Counter_1_ControlRegRemoved) */
 181:.\Generated_Source\PSoC5/Counter_1_PM.c ****     
 182:.\Generated_Source\PSoC5/Counter_1_PM.c **** }
 106              		.loc 1 182 0
 178:.\Generated_Source\PSoC5/Counter_1_PM.c ****             Counter_1_Enable();
 107              		.loc 1 178 0
 108 0008 FFF7FEBF 		b	Counter_1_Enable
 109              	.LVL1:
 110              	.L8:
 111 000c 7047     		bx	lr
 112              	.L12:
 113 000e 00BF     		.align	2
 114              	.L11:
 115 0010 00000000 		.word	.LANCHOR0
 116              		.cfi_endproc
 117              	.LFE3:
 118              		.size	Counter_1_Wakeup, .-Counter_1_Wakeup
 119              		.bss
 120              		.align	1
 121              		.set	.LANCHOR0,. + 0
 122              		.type	Counter_1_backup, %object
 123              		.size	Counter_1_backup, 6
 124              	Counter_1_backup:
 125 0000 00000000 		.space	6
 125      0000
 126              		.text
 127              	.Letext0:
 128              		.file 2 ".\\Generated_Source\\PSoC5\\cytypes.h"
 129              		.file 3 ".\\Generated_Source\\PSoC5\\Counter_1.h"