ARM GAS  C:\Users\Luke\AppData\Local\Temp\cc2GM1uX.s 			page 1


   1              		.syntax unified
   2              		.cpu cortex-m3
   3              		.fpu softvfp
   4              		.eabi_attribute 20, 1
   5              		.eabi_attribute 21, 1
   6              		.eabi_attribute 23, 3
   7              		.eabi_attribute 24, 1
   8              		.eabi_attribute 25, 1
   9              		.eabi_attribute 26, 1
  10              		.eabi_attribute 30, 4
  11              		.eabi_attribute 34, 1
  12              		.eabi_attribute 18, 4
  13              		.thumb
  14              		.file	"DAC_Current.c"
  15              		.text
  16              	.Ltext0:
  17              		.cfi_sections	.debug_frame
  18              		.section	.text.DAC_Current_Write,"ax",%progbits
  19              		.align	1
  20              		.global	DAC_Current_Write
  21              		.thumb
  22              		.thumb_func
  23              		.type	DAC_Current_Write, %function
  24              	DAC_Current_Write:
  25              	.LFB0:
  26              		.file 1 ".\\Generated_Source\\PSoC5\\DAC_Current.c"
   1:.\Generated_Source\PSoC5/DAC_Current.c **** /*******************************************************************************
   2:.\Generated_Source\PSoC5/DAC_Current.c **** * File Name: DAC_Current.c  
   3:.\Generated_Source\PSoC5/DAC_Current.c **** * Version 1.90
   4:.\Generated_Source\PSoC5/DAC_Current.c **** *
   5:.\Generated_Source\PSoC5/DAC_Current.c **** * Description:
   6:.\Generated_Source\PSoC5/DAC_Current.c **** *  This file contains API to enable firmware control of a Pins component.
   7:.\Generated_Source\PSoC5/DAC_Current.c **** *
   8:.\Generated_Source\PSoC5/DAC_Current.c **** * Note:
   9:.\Generated_Source\PSoC5/DAC_Current.c **** *
  10:.\Generated_Source\PSoC5/DAC_Current.c **** ********************************************************************************
  11:.\Generated_Source\PSoC5/DAC_Current.c **** * Copyright 2008-2012, Cypress Semiconductor Corporation.  All rights reserved.
  12:.\Generated_Source\PSoC5/DAC_Current.c **** * You may use this file only in accordance with the license, terms, conditions, 
  13:.\Generated_Source\PSoC5/DAC_Current.c **** * disclaimers, and limitations in the end user license agreement accompanying 
  14:.\Generated_Source\PSoC5/DAC_Current.c **** * the software package with which this file was provided.
  15:.\Generated_Source\PSoC5/DAC_Current.c **** *******************************************************************************/
  16:.\Generated_Source\PSoC5/DAC_Current.c **** 
  17:.\Generated_Source\PSoC5/DAC_Current.c **** #include "cytypes.h"
  18:.\Generated_Source\PSoC5/DAC_Current.c **** #include "DAC_Current.h"
  19:.\Generated_Source\PSoC5/DAC_Current.c **** 
  20:.\Generated_Source\PSoC5/DAC_Current.c **** /* APIs are not generated for P15[7:6] on PSoC 5 */
  21:.\Generated_Source\PSoC5/DAC_Current.c **** #if !(CY_PSOC5A &&\
  22:.\Generated_Source\PSoC5/DAC_Current.c **** 	 DAC_Current__PORT == 15 && ((DAC_Current__MASK & 0xC0) != 0))
  23:.\Generated_Source\PSoC5/DAC_Current.c **** 
  24:.\Generated_Source\PSoC5/DAC_Current.c **** 
  25:.\Generated_Source\PSoC5/DAC_Current.c **** /*******************************************************************************
  26:.\Generated_Source\PSoC5/DAC_Current.c **** * Function Name: DAC_Current_Write
  27:.\Generated_Source\PSoC5/DAC_Current.c **** ********************************************************************************
  28:.\Generated_Source\PSoC5/DAC_Current.c **** *
  29:.\Generated_Source\PSoC5/DAC_Current.c **** * Summary:
  30:.\Generated_Source\PSoC5/DAC_Current.c **** *  Assign a new value to the digital port's data output register.  
  31:.\Generated_Source\PSoC5/DAC_Current.c **** *
ARM GAS  C:\Users\Luke\AppData\Local\Temp\cc2GM1uX.s 			page 2


  32:.\Generated_Source\PSoC5/DAC_Current.c **** * Parameters:  
  33:.\Generated_Source\PSoC5/DAC_Current.c **** *  prtValue:  The value to be assigned to the Digital Port. 
  34:.\Generated_Source\PSoC5/DAC_Current.c **** *
  35:.\Generated_Source\PSoC5/DAC_Current.c **** * Return: 
  36:.\Generated_Source\PSoC5/DAC_Current.c **** *  None
  37:.\Generated_Source\PSoC5/DAC_Current.c **** *  
  38:.\Generated_Source\PSoC5/DAC_Current.c **** *******************************************************************************/
  39:.\Generated_Source\PSoC5/DAC_Current.c **** void DAC_Current_Write(uint8 value) 
  40:.\Generated_Source\PSoC5/DAC_Current.c **** {
  27              		.loc 1 40 0
  28              		.cfi_startproc
  29              		@ args = 0, pretend = 0, frame = 0
  30              		@ frame_needed = 0, uses_anonymous_args = 0
  31              		@ link register save eliminated.
  32              	.LVL0:
  41:.\Generated_Source\PSoC5/DAC_Current.c ****     uint8 staticBits = (DAC_Current_DR & (uint8)(~DAC_Current_MASK));
  33              		.loc 1 41 0
  34 0000 044B     		ldr	r3, .L2
  42:.\Generated_Source\PSoC5/DAC_Current.c ****     DAC_Current_DR = staticBits | ((uint8)(value << DAC_Current_SHIFT) & DAC_Current_MASK);
  35              		.loc 1 42 0
  36 0002 00F00100 		and	r0, r0, #1
  37              	.LVL1:
  41:.\Generated_Source\PSoC5/DAC_Current.c ****     uint8 staticBits = (DAC_Current_DR & (uint8)(~DAC_Current_MASK));
  38              		.loc 1 41 0
  39 0006 1A78     		ldrb	r2, [r3, #0]	@ zero_extendqisi2
  40              	.LVL2:
  41 0008 02F0FE01 		and	r1, r2, #254
  42              		.loc 1 42 0
  43 000c 40EA0102 		orr	r2, r0, r1
  44              	.LVL3:
  45 0010 1A70     		strb	r2, [r3, #0]
  46 0012 7047     		bx	lr
  47              	.L3:
  48              		.align	2
  49              	.L2:
  50 0014 30510040 		.word	1073762608
  51              		.cfi_endproc
  52              	.LFE0:
  53              		.size	DAC_Current_Write, .-DAC_Current_Write
  54              		.section	.text.DAC_Current_SetDriveMode,"ax",%progbits
  55              		.align	1
  56              		.global	DAC_Current_SetDriveMode
  57              		.thumb
  58              		.thumb_func
  59              		.type	DAC_Current_SetDriveMode, %function
  60              	DAC_Current_SetDriveMode:
  61              	.LFB1:
  43:.\Generated_Source\PSoC5/DAC_Current.c **** }
  44:.\Generated_Source\PSoC5/DAC_Current.c **** 
  45:.\Generated_Source\PSoC5/DAC_Current.c **** 
  46:.\Generated_Source\PSoC5/DAC_Current.c **** /*******************************************************************************
  47:.\Generated_Source\PSoC5/DAC_Current.c **** * Function Name: DAC_Current_SetDriveMode
  48:.\Generated_Source\PSoC5/DAC_Current.c **** ********************************************************************************
  49:.\Generated_Source\PSoC5/DAC_Current.c **** *
  50:.\Generated_Source\PSoC5/DAC_Current.c **** * Summary:
  51:.\Generated_Source\PSoC5/DAC_Current.c **** *  Change the drive mode on the pins of the port.
  52:.\Generated_Source\PSoC5/DAC_Current.c **** * 
ARM GAS  C:\Users\Luke\AppData\Local\Temp\cc2GM1uX.s 			page 3


  53:.\Generated_Source\PSoC5/DAC_Current.c **** * Parameters:  
  54:.\Generated_Source\PSoC5/DAC_Current.c **** *  mode:  Change the pins to this drive mode.
  55:.\Generated_Source\PSoC5/DAC_Current.c **** *
  56:.\Generated_Source\PSoC5/DAC_Current.c **** * Return: 
  57:.\Generated_Source\PSoC5/DAC_Current.c **** *  None
  58:.\Generated_Source\PSoC5/DAC_Current.c **** *
  59:.\Generated_Source\PSoC5/DAC_Current.c **** *******************************************************************************/
  60:.\Generated_Source\PSoC5/DAC_Current.c **** void DAC_Current_SetDriveMode(uint8 mode) 
  61:.\Generated_Source\PSoC5/DAC_Current.c **** {
  62              		.loc 1 61 0
  63              		.cfi_startproc
  64              		@ args = 0, pretend = 0, frame = 0
  65              		@ frame_needed = 0, uses_anonymous_args = 0
  66              		@ link register save eliminated.
  67              	.LVL4:
  62:.\Generated_Source\PSoC5/DAC_Current.c **** 	CyPins_SetPinDriveMode(DAC_Current_0, mode);
  68              		.loc 1 62 0
  69 0000 044B     		ldr	r3, .L5
  70 0002 00F00E00 		and	r0, r0, #14
  71              	.LVL5:
  72 0006 1A78     		ldrb	r2, [r3, #0]	@ zero_extendqisi2
  73 0008 22F00E01 		bic	r1, r2, #14
  74 000c 40EA0102 		orr	r2, r0, r1
  75 0010 1A70     		strb	r2, [r3, #0]
  76 0012 7047     		bx	lr
  77              	.L6:
  78              		.align	2
  79              	.L5:
  80 0014 18500040 		.word	1073762328
  81              		.cfi_endproc
  82              	.LFE1:
  83              		.size	DAC_Current_SetDriveMode, .-DAC_Current_SetDriveMode
  84              		.section	.text.DAC_Current_Read,"ax",%progbits
  85              		.align	1
  86              		.global	DAC_Current_Read
  87              		.thumb
  88              		.thumb_func
  89              		.type	DAC_Current_Read, %function
  90              	DAC_Current_Read:
  91              	.LFB2:
  63:.\Generated_Source\PSoC5/DAC_Current.c **** }
  64:.\Generated_Source\PSoC5/DAC_Current.c **** 
  65:.\Generated_Source\PSoC5/DAC_Current.c **** 
  66:.\Generated_Source\PSoC5/DAC_Current.c **** /*******************************************************************************
  67:.\Generated_Source\PSoC5/DAC_Current.c **** * Function Name: DAC_Current_Read
  68:.\Generated_Source\PSoC5/DAC_Current.c **** ********************************************************************************
  69:.\Generated_Source\PSoC5/DAC_Current.c **** *
  70:.\Generated_Source\PSoC5/DAC_Current.c **** * Summary:
  71:.\Generated_Source\PSoC5/DAC_Current.c **** *  Read the current value on the pins of the Digital Port in right justified 
  72:.\Generated_Source\PSoC5/DAC_Current.c **** *  form.
  73:.\Generated_Source\PSoC5/DAC_Current.c **** *
  74:.\Generated_Source\PSoC5/DAC_Current.c **** * Parameters:  
  75:.\Generated_Source\PSoC5/DAC_Current.c **** *  None
  76:.\Generated_Source\PSoC5/DAC_Current.c **** *
  77:.\Generated_Source\PSoC5/DAC_Current.c **** * Return: 
  78:.\Generated_Source\PSoC5/DAC_Current.c **** *  Returns the current value of the Digital Port as a right justified number
  79:.\Generated_Source\PSoC5/DAC_Current.c **** *  
ARM GAS  C:\Users\Luke\AppData\Local\Temp\cc2GM1uX.s 			page 4


  80:.\Generated_Source\PSoC5/DAC_Current.c **** * Note:
  81:.\Generated_Source\PSoC5/DAC_Current.c **** *  Macro DAC_Current_ReadPS calls this function. 
  82:.\Generated_Source\PSoC5/DAC_Current.c **** *  
  83:.\Generated_Source\PSoC5/DAC_Current.c **** *******************************************************************************/
  84:.\Generated_Source\PSoC5/DAC_Current.c **** uint8 DAC_Current_Read(void) 
  85:.\Generated_Source\PSoC5/DAC_Current.c **** {
  92              		.loc 1 85 0
  93              		.cfi_startproc
  94              		@ args = 0, pretend = 0, frame = 0
  95              		@ frame_needed = 0, uses_anonymous_args = 0
  96              		@ link register save eliminated.
  86:.\Generated_Source\PSoC5/DAC_Current.c ****     return (DAC_Current_PS & DAC_Current_MASK) >> DAC_Current_SHIFT;
  97              		.loc 1 86 0
  98 0000 024B     		ldr	r3, .L8
  99 0002 1878     		ldrb	r0, [r3, #0]	@ zero_extendqisi2
  87:.\Generated_Source\PSoC5/DAC_Current.c **** }
 100              		.loc 1 87 0
 101 0004 00F00100 		and	r0, r0, #1
 102 0008 7047     		bx	lr
 103              	.L9:
 104 000a 00BF     		.align	2
 105              	.L8:
 106 000c 31510040 		.word	1073762609
 107              		.cfi_endproc
 108              	.LFE2:
 109              		.size	DAC_Current_Read, .-DAC_Current_Read
 110              		.section	.text.DAC_Current_ReadDataReg,"ax",%progbits
 111              		.align	1
 112              		.global	DAC_Current_ReadDataReg
 113              		.thumb
 114              		.thumb_func
 115              		.type	DAC_Current_ReadDataReg, %function
 116              	DAC_Current_ReadDataReg:
 117              	.LFB3:
  88:.\Generated_Source\PSoC5/DAC_Current.c **** 
  89:.\Generated_Source\PSoC5/DAC_Current.c **** 
  90:.\Generated_Source\PSoC5/DAC_Current.c **** /*******************************************************************************
  91:.\Generated_Source\PSoC5/DAC_Current.c **** * Function Name: DAC_Current_ReadDataReg
  92:.\Generated_Source\PSoC5/DAC_Current.c **** ********************************************************************************
  93:.\Generated_Source\PSoC5/DAC_Current.c **** *
  94:.\Generated_Source\PSoC5/DAC_Current.c **** * Summary:
  95:.\Generated_Source\PSoC5/DAC_Current.c **** *  Read the current value assigned to a Digital Port's data output register
  96:.\Generated_Source\PSoC5/DAC_Current.c **** *
  97:.\Generated_Source\PSoC5/DAC_Current.c **** * Parameters:  
  98:.\Generated_Source\PSoC5/DAC_Current.c **** *  None 
  99:.\Generated_Source\PSoC5/DAC_Current.c **** *
 100:.\Generated_Source\PSoC5/DAC_Current.c **** * Return: 
 101:.\Generated_Source\PSoC5/DAC_Current.c **** *  Returns the current value assigned to the Digital Port's data output register
 102:.\Generated_Source\PSoC5/DAC_Current.c **** *  
 103:.\Generated_Source\PSoC5/DAC_Current.c **** *******************************************************************************/
 104:.\Generated_Source\PSoC5/DAC_Current.c **** uint8 DAC_Current_ReadDataReg(void) 
 105:.\Generated_Source\PSoC5/DAC_Current.c **** {
 118              		.loc 1 105 0
 119              		.cfi_startproc
 120              		@ args = 0, pretend = 0, frame = 0
 121              		@ frame_needed = 0, uses_anonymous_args = 0
 122              		@ link register save eliminated.
ARM GAS  C:\Users\Luke\AppData\Local\Temp\cc2GM1uX.s 			page 5


 106:.\Generated_Source\PSoC5/DAC_Current.c ****     return (DAC_Current_DR & DAC_Current_MASK) >> DAC_Current_SHIFT;
 123              		.loc 1 106 0
 124 0000 024B     		ldr	r3, .L11
 125 0002 1878     		ldrb	r0, [r3, #0]	@ zero_extendqisi2
 107:.\Generated_Source\PSoC5/DAC_Current.c **** }
 126              		.loc 1 107 0
 127 0004 00F00100 		and	r0, r0, #1
 128 0008 7047     		bx	lr
 129              	.L12:
 130 000a 00BF     		.align	2
 131              	.L11:
 132 000c 30510040 		.word	1073762608
 133              		.cfi_endproc
 134              	.LFE3:
 135              		.size	DAC_Current_ReadDataReg, .-DAC_Current_ReadDataReg
 136              		.text
 137              	.Letext0:
 138              		.file 2 ".\\Generated_Source\\PSoC5\\cytypes.h"