ARM GAS  C:\Users\Luke\AppData\Local\Temp\ccAkN35c.s 			page 1


   1              		.syntax unified
   2              		.cpu cortex-m3
   3              		.fpu softvfp
   4              		.eabi_attribute 20, 1
   5              		.eabi_attribute 21, 1
   6              		.eabi_attribute 23, 3
   7              		.eabi_attribute 24, 1
   8              		.eabi_attribute 25, 1
   9              		.eabi_attribute 26, 1
  10              		.eabi_attribute 30, 4
  11              		.eabi_attribute 34, 1
  12              		.eabi_attribute 18, 4
  13              		.thumb
  14              		.file	"Filter_PM.c"
  15              		.text
  16              	.Ltext0:
  17              		.cfi_sections	.debug_frame
  18              		.section	.text.Filter_SaveConfig,"ax",%progbits
  19              		.align	1
  20              		.global	Filter_SaveConfig
  21              		.thumb
  22              		.thumb_func
  23              		.type	Filter_SaveConfig, %function
  24              	Filter_SaveConfig:
  25              	.LFB0:
  26              		.file 1 ".\\Generated_Source\\PSoC5\\Filter_PM.c"
   1:.\Generated_Source\PSoC5/Filter_PM.c **** /*******************************************************************************
   2:.\Generated_Source\PSoC5/Filter_PM.c **** * File Name: Filter_PM.c
   3:.\Generated_Source\PSoC5/Filter_PM.c **** * Version 2.20
   4:.\Generated_Source\PSoC5/Filter_PM.c **** *
   5:.\Generated_Source\PSoC5/Filter_PM.c **** * Description:
   6:.\Generated_Source\PSoC5/Filter_PM.c **** *  This file provides the power managaer API source code for the FILT component.
   7:.\Generated_Source\PSoC5/Filter_PM.c **** *
   8:.\Generated_Source\PSoC5/Filter_PM.c **** * Note:
   9:.\Generated_Source\PSoC5/Filter_PM.c **** *  
  10:.\Generated_Source\PSoC5/Filter_PM.c **** *******************************************************************************
  11:.\Generated_Source\PSoC5/Filter_PM.c **** * Copyright 2008-2013, Cypress Semiconductor Corporation.  All rights reserved.
  12:.\Generated_Source\PSoC5/Filter_PM.c **** * You may use this file only in accordance with the license, terms, conditions, 
  13:.\Generated_Source\PSoC5/Filter_PM.c **** * disclaimers, and limitations in the end user license agreement accompanying 
  14:.\Generated_Source\PSoC5/Filter_PM.c **** * the software package with which this file was provided.
  15:.\Generated_Source\PSoC5/Filter_PM.c **** ********************************************************************************/
  16:.\Generated_Source\PSoC5/Filter_PM.c **** 
  17:.\Generated_Source\PSoC5/Filter_PM.c **** #include "Filter_PVT.h"
  18:.\Generated_Source\PSoC5/Filter_PM.c **** 
  19:.\Generated_Source\PSoC5/Filter_PM.c **** static Filter_backupStruct  Filter_backup = 
  20:.\Generated_Source\PSoC5/Filter_PM.c **** {
  21:.\Generated_Source\PSoC5/Filter_PM.c ****     Filter_DISABLED,
  22:.\Generated_Source\PSoC5/Filter_PM.c ****     Filter_RUN_MASK,
  23:.\Generated_Source\PSoC5/Filter_PM.c ****     
  24:.\Generated_Source\PSoC5/Filter_PM.c **** };
  25:.\Generated_Source\PSoC5/Filter_PM.c **** 
  26:.\Generated_Source\PSoC5/Filter_PM.c **** 
  27:.\Generated_Source\PSoC5/Filter_PM.c **** /*******************************************************************************
  28:.\Generated_Source\PSoC5/Filter_PM.c **** * Function Name: Filter_SaveConfig
  29:.\Generated_Source\PSoC5/Filter_PM.c **** ********************************************************************************
  30:.\Generated_Source\PSoC5/Filter_PM.c **** *
  31:.\Generated_Source\PSoC5/Filter_PM.c **** * Summary:
ARM GAS  C:\Users\Luke\AppData\Local\Temp\ccAkN35c.s 			page 2


  32:.\Generated_Source\PSoC5/Filter_PM.c **** *  Saves the current user configuration.
  33:.\Generated_Source\PSoC5/Filter_PM.c **** *  
  34:.\Generated_Source\PSoC5/Filter_PM.c **** * Parameters:  
  35:.\Generated_Source\PSoC5/Filter_PM.c **** *  void
  36:.\Generated_Source\PSoC5/Filter_PM.c **** *
  37:.\Generated_Source\PSoC5/Filter_PM.c **** * Return: 
  38:.\Generated_Source\PSoC5/Filter_PM.c **** *  void
  39:.\Generated_Source\PSoC5/Filter_PM.c **** *
  40:.\Generated_Source\PSoC5/Filter_PM.c **** * Global variables:
  41:.\Generated_Source\PSoC5/Filter_PM.c **** *  Filter_backup:  This global structure variable is used to store 
  42:.\Generated_Source\PSoC5/Filter_PM.c **** *  configuration registers which are non retention whenever user wants to go 
  43:.\Generated_Source\PSoC5/Filter_PM.c **** *  sleep mode by calling Sleep() API.
  44:.\Generated_Source\PSoC5/Filter_PM.c **** *
  45:.\Generated_Source\PSoC5/Filter_PM.c **** *******************************************************************************/
  46:.\Generated_Source\PSoC5/Filter_PM.c **** void Filter_SaveConfig(void) 
  47:.\Generated_Source\PSoC5/Filter_PM.c **** {
  27              		.loc 1 47 0
  28              		.cfi_startproc
  29              		@ args = 0, pretend = 0, frame = 0
  30              		@ frame_needed = 0, uses_anonymous_args = 0
  31 0000 10B5     		push	{r4, lr}
  32              	.LCFI0:
  33              		.cfi_def_cfa_offset 8
  34              		.cfi_offset 4, -8
  35              		.cfi_offset 14, -4
  48:.\Generated_Source\PSoC5/Filter_PM.c ****     Filter_backup.cr = Filter_CR_REG;
  36              		.loc 1 48 0
  37 0002 0C4B     		ldr	r3, .L5
  38 0004 0C48     		ldr	r0, .L5+4
  39 0006 1A78     		ldrb	r2, [r3, #0]	@ zero_extendqisi2
  49:.\Generated_Source\PSoC5/Filter_PM.c ****     Filter_backup.sr = Filter_SR_REG;
  40              		.loc 1 49 0
  41 0008 0C49     		ldr	r1, .L5+8
  48:.\Generated_Source\PSoC5/Filter_PM.c ****     Filter_backup.cr = Filter_CR_REG;
  42              		.loc 1 48 0
  43 000a 4270     		strb	r2, [r0, #1]
  44              		.loc 1 49 0
  45 000c 0C78     		ldrb	r4, [r1, #0]	@ zero_extendqisi2
  50:.\Generated_Source\PSoC5/Filter_PM.c ****     Filter_backup.sema = Filter_SEMA_REG;
  46              		.loc 1 50 0
  47 000e 0C4B     		ldr	r3, .L5+12
  49:.\Generated_Source\PSoC5/Filter_PM.c ****     Filter_backup.sr = Filter_SR_REG;
  48              		.loc 1 49 0
  49 0010 8470     		strb	r4, [r0, #2]
  50              		.loc 1 50 0
  51 0012 1A78     		ldrb	r2, [r3, #0]	@ zero_extendqisi2
  51:.\Generated_Source\PSoC5/Filter_PM.c **** 
  52:.\Generated_Source\PSoC5/Filter_PM.c ****     /* Put DFB RAM on the bus */
  53:.\Generated_Source\PSoC5/Filter_PM.c ****     Filter_RAM_DIR_REG = Filter_RAM_DIR_BUS;
  52              		.loc 1 53 0
  53 0014 0B49     		ldr	r1, .L5+16
  50:.\Generated_Source\PSoC5/Filter_PM.c ****     Filter_backup.sema = Filter_SEMA_REG;
  54              		.loc 1 50 0
  55 0016 C270     		strb	r2, [r0, #3]
  56              		.loc 1 53 0
  57 0018 3F24     		movs	r4, #63
  54:.\Generated_Source\PSoC5/Filter_PM.c **** 
ARM GAS  C:\Users\Luke\AppData\Local\Temp\ccAkN35c.s 			page 3


  55:.\Generated_Source\PSoC5/Filter_PM.c ****     /* Save the ACU RAM as this is not retension */
  56:.\Generated_Source\PSoC5/Filter_PM.c ****     (void)memcpy(Filter_backup.saveAcu,
  58              		.loc 1 56 0
  59 001a 031D     		adds	r3, r0, #4
  60 001c 0A4A     		ldr	r2, .L5+20
  61 001e 0B48     		ldr	r0, .L5+24
  53:.\Generated_Source\PSoC5/Filter_PM.c ****     Filter_RAM_DIR_REG = Filter_RAM_DIR_BUS;
  62              		.loc 1 53 0
  63 0020 0C70     		strb	r4, [r1, #0]
  64              	.L2:
  65              		.loc 1 56 0
  66 0022 52F8044B 		ldr	r4, [r2], #4	@ unaligned
  67 0026 8242     		cmp	r2, r0
  68 0028 43F8044B 		str	r4, [r3], #4	@ unaligned
  69 002c F9D1     		bne	.L2
  57:.\Generated_Source\PSoC5/Filter_PM.c ****         Filter_ACU_RAM, Filter_ACU_RAM_SIZE); 
  58:.\Generated_Source\PSoC5/Filter_PM.c **** 
  59:.\Generated_Source\PSoC5/Filter_PM.c ****     /* Take DFB RAM off the bus */
  60:.\Generated_Source\PSoC5/Filter_PM.c ****     Filter_RAM_DIR_REG = Filter_RAM_DIR_DFB;
  70              		.loc 1 60 0
  71 002e 0022     		movs	r2, #0
  72 0030 0A70     		strb	r2, [r1, #0]
  73 0032 10BD     		pop	{r4, pc}
  74              	.L6:
  75              		.align	2
  76              	.L5:
  77 0034 80C70040 		.word	1073792896
  78 0038 00000000 		.word	.LANCHOR0
  79 003c 84C70040 		.word	1073792900
  80 0040 90C70040 		.word	1073792912
  81 0044 8CC70040 		.word	1073792908
  82 0048 00C70040 		.word	1073792768
  83 004c 40C70040 		.word	1073792832
  84              		.cfi_endproc
  85              	.LFE0:
  86              		.size	Filter_SaveConfig, .-Filter_SaveConfig
  87              		.section	.text.Filter_RestoreConfig,"ax",%progbits
  88              		.align	1
  89              		.global	Filter_RestoreConfig
  90              		.thumb
  91              		.thumb_func
  92              		.type	Filter_RestoreConfig, %function
  93              	Filter_RestoreConfig:
  94              	.LFB1:
  61:.\Generated_Source\PSoC5/Filter_PM.c **** }
  62:.\Generated_Source\PSoC5/Filter_PM.c **** 
  63:.\Generated_Source\PSoC5/Filter_PM.c **** 
  64:.\Generated_Source\PSoC5/Filter_PM.c **** /*******************************************************************************
  65:.\Generated_Source\PSoC5/Filter_PM.c **** * Function Name: Filter_RestoreConfig
  66:.\Generated_Source\PSoC5/Filter_PM.c **** ********************************************************************************
  67:.\Generated_Source\PSoC5/Filter_PM.c **** *
  68:.\Generated_Source\PSoC5/Filter_PM.c **** * Summary:
  69:.\Generated_Source\PSoC5/Filter_PM.c **** *  Restores the current user configuration.
  70:.\Generated_Source\PSoC5/Filter_PM.c **** *
  71:.\Generated_Source\PSoC5/Filter_PM.c **** * Parameters:  
  72:.\Generated_Source\PSoC5/Filter_PM.c **** *  void
  73:.\Generated_Source\PSoC5/Filter_PM.c **** *
ARM GAS  C:\Users\Luke\AppData\Local\Temp\ccAkN35c.s 			page 4


  74:.\Generated_Source\PSoC5/Filter_PM.c **** * Return: 
  75:.\Generated_Source\PSoC5/Filter_PM.c **** *  void
  76:.\Generated_Source\PSoC5/Filter_PM.c **** *
  77:.\Generated_Source\PSoC5/Filter_PM.c **** * Global variables:
  78:.\Generated_Source\PSoC5/Filter_PM.c **** *  Filter_backup:  This global structure variable is used to restore 
  79:.\Generated_Source\PSoC5/Filter_PM.c **** *  configuration registers which are non retention whenever user wants to switch 
  80:.\Generated_Source\PSoC5/Filter_PM.c **** *  to active power mode by calling Wakeup() API.
  81:.\Generated_Source\PSoC5/Filter_PM.c **** *
  82:.\Generated_Source\PSoC5/Filter_PM.c **** *******************************************************************************/
  83:.\Generated_Source\PSoC5/Filter_PM.c **** void Filter_RestoreConfig(void) 
  84:.\Generated_Source\PSoC5/Filter_PM.c **** {
  95              		.loc 1 84 0
  96              		.cfi_startproc
  97              		@ args = 0, pretend = 0, frame = 0
  98              		@ frame_needed = 0, uses_anonymous_args = 0
  99 0000 10B5     		push	{r4, lr}
 100              	.LCFI1:
 101              		.cfi_def_cfa_offset 8
 102              		.cfi_offset 4, -8
 103              		.cfi_offset 14, -4
  85:.\Generated_Source\PSoC5/Filter_PM.c ****     Filter_CR_REG = Filter_backup.cr;
 104              		.loc 1 85 0
 105 0002 0E4B     		ldr	r3, .L10
 106 0004 0E4A     		ldr	r2, .L10+4
 107 0006 5978     		ldrb	r1, [r3, #1]	@ zero_extendqisi2
 108 0008 1170     		strb	r1, [r2, #0]
  86:.\Generated_Source\PSoC5/Filter_PM.c ****     Filter_SR_REG = Filter_backup.sr;
 109              		.loc 1 86 0
 110 000a 9878     		ldrb	r0, [r3, #2]	@ zero_extendqisi2
 111 000c 1071     		strb	r0, [r2, #4]
  87:.\Generated_Source\PSoC5/Filter_PM.c ****     Filter_SEMA_REG = Filter_backup.sema;
 112              		.loc 1 87 0
 113 000e DC78     		ldrb	r4, [r3, #3]	@ zero_extendqisi2
 114 0010 1474     		strb	r4, [r2, #16]
  88:.\Generated_Source\PSoC5/Filter_PM.c ****     
  89:.\Generated_Source\PSoC5/Filter_PM.c ****     /* Power on DFB before initializing the RAMs */
  90:.\Generated_Source\PSoC5/Filter_PM.c ****     Filter_PM_ACT_CFG_REG |= Filter_PM_ACT_MSK;
 115              		.loc 1 90 0
 116 0012 0C4A     		ldr	r2, .L10+8
  91:.\Generated_Source\PSoC5/Filter_PM.c **** 
  92:.\Generated_Source\PSoC5/Filter_PM.c ****     /* Put DFB RAM on the bus */
  93:.\Generated_Source\PSoC5/Filter_PM.c ****     Filter_RAM_DIR_REG = Filter_RAM_DIR_BUS;
 117              		.loc 1 93 0
 118 0014 3F24     		movs	r4, #63
  90:.\Generated_Source\PSoC5/Filter_PM.c ****     Filter_PM_ACT_CFG_REG |= Filter_PM_ACT_MSK;
 119              		.loc 1 90 0
 120 0016 1178     		ldrb	r1, [r2, #0]	@ zero_extendqisi2
 121 0018 41F01000 		orr	r0, r1, #16
 122 001c 1070     		strb	r0, [r2, #0]
 123              		.loc 1 93 0
 124 001e 0A48     		ldr	r0, .L10+12
  94:.\Generated_Source\PSoC5/Filter_PM.c **** 
  95:.\Generated_Source\PSoC5/Filter_PM.c ****     /* Restore ACU RAM as this is not retension */
  96:.\Generated_Source\PSoC5/Filter_PM.c ****     (void)memcpy(Filter_ACU_RAM,
 125              		.loc 1 96 0
 126 0020 0A49     		ldr	r1, .L10+16
 127 0022 1A1D     		adds	r2, r3, #4
ARM GAS  C:\Users\Luke\AppData\Local\Temp\ccAkN35c.s 			page 5


  93:.\Generated_Source\PSoC5/Filter_PM.c ****     Filter_RAM_DIR_REG = Filter_RAM_DIR_BUS;
 128              		.loc 1 93 0
 129 0024 0470     		strb	r4, [r0, #0]
 130              		.loc 1 96 0
 131 0026 4433     		adds	r3, r3, #68
 132              	.L8:
 133 0028 52F8044B 		ldr	r4, [r2], #4	@ unaligned
 134 002c 9A42     		cmp	r2, r3
 135 002e 41F8044B 		str	r4, [r1], #4	@ unaligned
 136 0032 F9D1     		bne	.L8
  97:.\Generated_Source\PSoC5/Filter_PM.c ****         Filter_backup.saveAcu, Filter_ACU_RAM_SIZE); 
  98:.\Generated_Source\PSoC5/Filter_PM.c **** 
  99:.\Generated_Source\PSoC5/Filter_PM.c ****     /* Take DFB RAM off the bus */
 100:.\Generated_Source\PSoC5/Filter_PM.c ****     Filter_RAM_DIR_REG = Filter_RAM_DIR_DFB;
 137              		.loc 1 100 0
 138 0034 0023     		movs	r3, #0
 139 0036 0370     		strb	r3, [r0, #0]
 140 0038 10BD     		pop	{r4, pc}
 141              	.L11:
 142 003a 00BF     		.align	2
 143              	.L10:
 144 003c 00000000 		.word	.LANCHOR0
 145 0040 80C70040 		.word	1073792896
 146 0044 A6430040 		.word	1073759142
 147 0048 8CC70040 		.word	1073792908
 148 004c 00C70040 		.word	1073792768
 149              		.cfi_endproc
 150              	.LFE1:
 151              		.size	Filter_RestoreConfig, .-Filter_RestoreConfig
 152              		.section	.text.Filter_Sleep,"ax",%progbits
 153              		.align	1
 154              		.global	Filter_Sleep
 155              		.thumb
 156              		.thumb_func
 157              		.type	Filter_Sleep, %function
 158              	Filter_Sleep:
 159              	.LFB2:
 101:.\Generated_Source\PSoC5/Filter_PM.c **** }
 102:.\Generated_Source\PSoC5/Filter_PM.c **** 
 103:.\Generated_Source\PSoC5/Filter_PM.c **** 
 104:.\Generated_Source\PSoC5/Filter_PM.c **** /*******************************************************************************
 105:.\Generated_Source\PSoC5/Filter_PM.c **** * Function Name: Filter_Sleep
 106:.\Generated_Source\PSoC5/Filter_PM.c **** ********************************************************************************
 107:.\Generated_Source\PSoC5/Filter_PM.c **** *
 108:.\Generated_Source\PSoC5/Filter_PM.c **** * Summary:
 109:.\Generated_Source\PSoC5/Filter_PM.c **** *  Disables block's operation and saves its configuration. Should be called 
 110:.\Generated_Source\PSoC5/Filter_PM.c **** *  just prior to entering sleep.
 111:.\Generated_Source\PSoC5/Filter_PM.c **** *  
 112:.\Generated_Source\PSoC5/Filter_PM.c **** * Parameters:  
 113:.\Generated_Source\PSoC5/Filter_PM.c **** *  void
 114:.\Generated_Source\PSoC5/Filter_PM.c **** *
 115:.\Generated_Source\PSoC5/Filter_PM.c **** * Return: 
 116:.\Generated_Source\PSoC5/Filter_PM.c **** *  void
 117:.\Generated_Source\PSoC5/Filter_PM.c **** *
 118:.\Generated_Source\PSoC5/Filter_PM.c **** * Global variables:
 119:.\Generated_Source\PSoC5/Filter_PM.c **** *  Filter_backup:  The structure field 'enableState' is modified 
 120:.\Generated_Source\PSoC5/Filter_PM.c **** *  depending on the enable state of the block before entering to sleep mode.
ARM GAS  C:\Users\Luke\AppData\Local\Temp\ccAkN35c.s 			page 6


 121:.\Generated_Source\PSoC5/Filter_PM.c **** *
 122:.\Generated_Source\PSoC5/Filter_PM.c **** *******************************************************************************/
 123:.\Generated_Source\PSoC5/Filter_PM.c **** void Filter_Sleep(void) 
 124:.\Generated_Source\PSoC5/Filter_PM.c **** {
 160              		.loc 1 124 0
 161              		.cfi_startproc
 162              		@ args = 0, pretend = 0, frame = 0
 163              		@ frame_needed = 0, uses_anonymous_args = 0
 164 0000 08B5     		push	{r3, lr}
 165              	.LCFI2:
 166              		.cfi_def_cfa_offset 8
 167              		.cfi_offset 3, -8
 168              		.cfi_offset 14, -4
 125:.\Generated_Source\PSoC5/Filter_PM.c ****     /* Save Filter enable state */
 126:.\Generated_Source\PSoC5/Filter_PM.c ****     if(Filter_PM_ACT_MSK == (Filter_PM_ACT_CFG_REG & Filter_PM_ACT_MSK))
 169              		.loc 1 126 0
 170 0002 074B     		ldr	r3, .L15
 171 0004 0749     		ldr	r1, .L15+4
 172 0006 1878     		ldrb	r0, [r3, #0]	@ zero_extendqisi2
 173 0008 10F01002 		ands	r2, r0, #16
 127:.\Generated_Source\PSoC5/Filter_PM.c ****     {
 128:.\Generated_Source\PSoC5/Filter_PM.c ****         /* Component is enabled */
 129:.\Generated_Source\PSoC5/Filter_PM.c ****         Filter_backup.enableState = Filter_ENABLED;
 174              		.loc 1 129 0
 175 000c 18BF     		it	ne
 176 000e 0122     		movne	r2, #1
 130:.\Generated_Source\PSoC5/Filter_PM.c ****     }
 131:.\Generated_Source\PSoC5/Filter_PM.c ****     else
 132:.\Generated_Source\PSoC5/Filter_PM.c ****     {
 133:.\Generated_Source\PSoC5/Filter_PM.c ****         /* Component is disabled */
 134:.\Generated_Source\PSoC5/Filter_PM.c ****         Filter_backup.enableState = Filter_DISABLED;
 177              		.loc 1 134 0
 178 0010 0A70     		strb	r2, [r1, #0]
 135:.\Generated_Source\PSoC5/Filter_PM.c ****     }
 136:.\Generated_Source\PSoC5/Filter_PM.c **** 
 137:.\Generated_Source\PSoC5/Filter_PM.c ****     /* Save the configuration */
 138:.\Generated_Source\PSoC5/Filter_PM.c ****     Filter_SaveConfig();
 179              		.loc 1 138 0
 180 0012 FFF7FEFF 		bl	Filter_SaveConfig
 181              	.LVL0:
 139:.\Generated_Source\PSoC5/Filter_PM.c ****     
 140:.\Generated_Source\PSoC5/Filter_PM.c ****     /* Stop the component */
 141:.\Generated_Source\PSoC5/Filter_PM.c ****     Filter_Stop();
 142:.\Generated_Source\PSoC5/Filter_PM.c **** }
 182              		.loc 1 142 0
 183 0016 BDE80840 		pop	{r3, lr}
 141:.\Generated_Source\PSoC5/Filter_PM.c ****     Filter_Stop();
 184              		.loc 1 141 0
 185 001a FFF7FEBF 		b	Filter_Stop
 186              	.LVL1:
 187              	.L16:
 188 001e 00BF     		.align	2
 189              	.L15:
 190 0020 A6430040 		.word	1073759142
 191 0024 00000000 		.word	.LANCHOR0
 192              		.cfi_endproc
 193              	.LFE2:
ARM GAS  C:\Users\Luke\AppData\Local\Temp\ccAkN35c.s 			page 7


 194              		.size	Filter_Sleep, .-Filter_Sleep
 195              		.section	.text.Filter_Wakeup,"ax",%progbits
 196              		.align	1
 197              		.global	Filter_Wakeup
 198              		.thumb
 199              		.thumb_func
 200              		.type	Filter_Wakeup, %function
 201              	Filter_Wakeup:
 202              	.LFB3:
 143:.\Generated_Source\PSoC5/Filter_PM.c **** 
 144:.\Generated_Source\PSoC5/Filter_PM.c **** 
 145:.\Generated_Source\PSoC5/Filter_PM.c **** /*******************************************************************************
 146:.\Generated_Source\PSoC5/Filter_PM.c **** * Function Name: Filter_Wakeup
 147:.\Generated_Source\PSoC5/Filter_PM.c **** ********************************************************************************
 148:.\Generated_Source\PSoC5/Filter_PM.c **** *
 149:.\Generated_Source\PSoC5/Filter_PM.c **** * Summary:
 150:.\Generated_Source\PSoC5/Filter_PM.c **** *  Enables block's operation and restores its configuration. Should be called
 151:.\Generated_Source\PSoC5/Filter_PM.c **** *  just after awaking from sleep.
 152:.\Generated_Source\PSoC5/Filter_PM.c **** *  
 153:.\Generated_Source\PSoC5/Filter_PM.c **** * Parameters:  
 154:.\Generated_Source\PSoC5/Filter_PM.c **** *  void
 155:.\Generated_Source\PSoC5/Filter_PM.c **** *
 156:.\Generated_Source\PSoC5/Filter_PM.c **** * Return: 
 157:.\Generated_Source\PSoC5/Filter_PM.c **** *  void
 158:.\Generated_Source\PSoC5/Filter_PM.c **** *
 159:.\Generated_Source\PSoC5/Filter_PM.c **** * Global variables:
 160:.\Generated_Source\PSoC5/Filter_PM.c **** *  Filter_backup:  The structure field 'enableState' is used to 
 161:.\Generated_Source\PSoC5/Filter_PM.c **** *  restore the enable state of block after wakeup from sleep mode.
 162:.\Generated_Source\PSoC5/Filter_PM.c **** *
 163:.\Generated_Source\PSoC5/Filter_PM.c **** *******************************************************************************/
 164:.\Generated_Source\PSoC5/Filter_PM.c **** void Filter_Wakeup(void) 
 165:.\Generated_Source\PSoC5/Filter_PM.c **** {
 203              		.loc 1 165 0
 204              		.cfi_startproc
 205              		@ args = 0, pretend = 0, frame = 0
 206              		@ frame_needed = 0, uses_anonymous_args = 0
 207 0000 08B5     		push	{r3, lr}
 208              	.LCFI3:
 209              		.cfi_def_cfa_offset 8
 210              		.cfi_offset 3, -8
 211              		.cfi_offset 14, -4
 166:.\Generated_Source\PSoC5/Filter_PM.c ****     /* Restore the configuration */
 167:.\Generated_Source\PSoC5/Filter_PM.c ****     Filter_RestoreConfig();
 212              		.loc 1 167 0
 213 0002 FFF7FEFF 		bl	Filter_RestoreConfig
 214              	.LVL2:
 168:.\Generated_Source\PSoC5/Filter_PM.c ****     
 169:.\Generated_Source\PSoC5/Filter_PM.c ****     /* Enable's the component operation */
 170:.\Generated_Source\PSoC5/Filter_PM.c ****     if(Filter_backup.enableState == Filter_ENABLED)
 215              		.loc 1 170 0
 216 0006 044B     		ldr	r3, .L19
 217 0008 1878     		ldrb	r0, [r3, #0]	@ zero_extendqisi2
 218 000a 0128     		cmp	r0, #1
 219 000c 03D1     		bne	.L17
 171:.\Generated_Source\PSoC5/Filter_PM.c ****     {
 172:.\Generated_Source\PSoC5/Filter_PM.c ****         Filter_Enable();
 173:.\Generated_Source\PSoC5/Filter_PM.c ****     } /* Do nothing if component was disable before */
ARM GAS  C:\Users\Luke\AppData\Local\Temp\ccAkN35c.s 			page 8


 174:.\Generated_Source\PSoC5/Filter_PM.c **** }
 220              		.loc 1 174 0
 221 000e BDE80840 		pop	{r3, lr}
 172:.\Generated_Source\PSoC5/Filter_PM.c ****         Filter_Enable();
 222              		.loc 1 172 0
 223 0012 FFF7FEBF 		b	Filter_Enable
 224              	.LVL3:
 225              	.L17:
 226 0016 08BD     		pop	{r3, pc}
 227              	.L20:
 228              		.align	2
 229              	.L19:
 230 0018 00000000 		.word	.LANCHOR0
 231              		.cfi_endproc
 232              	.LFE3:
 233              		.size	Filter_Wakeup, .-Filter_Wakeup
 234              		.data
 235              		.set	.LANCHOR0,. + 0
 236              		.type	Filter_backup, %object
 237              		.size	Filter_backup, 68
 238              	Filter_backup:
 239 0000 00       		.byte	0
 240 0001 01       		.byte	1
 241 0002 00000000 		.space	66
 241      00000000 
 241      00000000 
 241      00000000 
 241      00000000 
 242              		.text
 243              	.Letext0:
 244              		.file 2 ".\\Generated_Source\\PSoC5\\cytypes.h"
 245              		.file 3 ".\\Generated_Source\\PSoC5\\Filter.H"