ARM GAS  C:\Users\Luke\AppData\Local\Temp\ccR7nmQ0.s 			page 1


   1              		.syntax unified
   2              		.cpu cortex-m3
   3              		.fpu softvfp
   4              		.eabi_attribute 20, 1
   5              		.eabi_attribute 21, 1
   6              		.eabi_attribute 23, 3
   7              		.eabi_attribute 24, 1
   8              		.eabi_attribute 25, 1
   9              		.eabi_attribute 26, 1
  10              		.eabi_attribute 30, 4
  11              		.eabi_attribute 34, 1
  12              		.eabi_attribute 18, 4
  13              		.thumb
  14              		.file	"Filter.c"
  15              		.text
  16              	.Ltext0:
  17              		.cfi_sections	.debug_frame
  18              		.section	.text.Filter_Init,"ax",%progbits
  19              		.align	1
  20              		.global	Filter_Init
  21              		.thumb
  22              		.thumb_func
  23              		.type	Filter_Init, %function
  24              	Filter_Init:
  25              	.LFB0:
  26              		.file 1 ".\\Generated_Source\\PSoC5\\Filter.c"
   1:.\Generated_Source\PSoC5/Filter.c **** /*******************************************************************************
   2:.\Generated_Source\PSoC5/Filter.c **** * File Name: Filter.c
   3:.\Generated_Source\PSoC5/Filter.c **** * Version 2.20
   4:.\Generated_Source\PSoC5/Filter.c **** *
   5:.\Generated_Source\PSoC5/Filter.c **** * Description:
   6:.\Generated_Source\PSoC5/Filter.c **** *  This file provides the API source code for the FILT component.
   7:.\Generated_Source\PSoC5/Filter.c **** *
   8:.\Generated_Source\PSoC5/Filter.c **** * Note:
   9:.\Generated_Source\PSoC5/Filter.c **** *  
  10:.\Generated_Source\PSoC5/Filter.c **** *******************************************************************************
  11:.\Generated_Source\PSoC5/Filter.c **** * Copyright 2008-2013, Cypress Semiconductor Corporation.  All rights reserved.
  12:.\Generated_Source\PSoC5/Filter.c **** * You may use this file only in accordance with the license, terms, conditions, 
  13:.\Generated_Source\PSoC5/Filter.c **** * disclaimers, and limitations in the end user license agreement accompanying 
  14:.\Generated_Source\PSoC5/Filter.c **** * the software package with which this file was provided.
  15:.\Generated_Source\PSoC5/Filter.c **** ********************************************************************************/
  16:.\Generated_Source\PSoC5/Filter.c **** 
  17:.\Generated_Source\PSoC5/Filter.c **** #include "Filter_PVT.h"
  18:.\Generated_Source\PSoC5/Filter.c **** 
  19:.\Generated_Source\PSoC5/Filter.c **** 
  20:.\Generated_Source\PSoC5/Filter.c **** /*******************************************************************************
  21:.\Generated_Source\PSoC5/Filter.c **** * FILT component internal variables.
  22:.\Generated_Source\PSoC5/Filter.c **** *******************************************************************************/
  23:.\Generated_Source\PSoC5/Filter.c **** 
  24:.\Generated_Source\PSoC5/Filter.c **** uint8 Filter_initVar = 0x0u;
  25:.\Generated_Source\PSoC5/Filter.c **** 
  26:.\Generated_Source\PSoC5/Filter.c **** 
  27:.\Generated_Source\PSoC5/Filter.c **** /*******************************************************************************
  28:.\Generated_Source\PSoC5/Filter.c **** * Function Name: Filter_Init
  29:.\Generated_Source\PSoC5/Filter.c **** ********************************************************************************
  30:.\Generated_Source\PSoC5/Filter.c **** *
  31:.\Generated_Source\PSoC5/Filter.c **** * Summary:
ARM GAS  C:\Users\Luke\AppData\Local\Temp\ccR7nmQ0.s 			page 2


  32:.\Generated_Source\PSoC5/Filter.c **** *  Initialize component's parameters to the parameters set by user in the 
  33:.\Generated_Source\PSoC5/Filter.c **** *  customizer of the component placed onto schematic. Usually called in 
  34:.\Generated_Source\PSoC5/Filter.c **** *  Filter_Start().
  35:.\Generated_Source\PSoC5/Filter.c **** *
  36:.\Generated_Source\PSoC5/Filter.c **** * Parameters:  
  37:.\Generated_Source\PSoC5/Filter.c **** *  void
  38:.\Generated_Source\PSoC5/Filter.c **** *
  39:.\Generated_Source\PSoC5/Filter.c **** * Return: 
  40:.\Generated_Source\PSoC5/Filter.c **** *  void
  41:.\Generated_Source\PSoC5/Filter.c **** *
  42:.\Generated_Source\PSoC5/Filter.c **** *******************************************************************************/
  43:.\Generated_Source\PSoC5/Filter.c **** void Filter_Init(void) 
  44:.\Generated_Source\PSoC5/Filter.c **** {
  27              		.loc 1 44 0
  28              		.cfi_startproc
  29              		@ args = 0, pretend = 0, frame = 0
  30              		@ frame_needed = 0, uses_anonymous_args = 0
  31 0000 38B5     		push	{r3, r4, r5, lr}
  32              	.LCFI0:
  33              		.cfi_def_cfa_offset 16
  34              		.cfi_offset 3, -16
  35              		.cfi_offset 4, -12
  36              		.cfi_offset 5, -8
  37              		.cfi_offset 14, -4
  45:.\Generated_Source\PSoC5/Filter.c ****         /* Power on DFB before initializing the RAMs */
  46:.\Generated_Source\PSoC5/Filter.c ****     Filter_PM_ACT_CFG_REG |= Filter_PM_ACT_MSK;
  38              		.loc 1 46 0
  39 0002 214B     		ldr	r3, .L5
  47:.\Generated_Source\PSoC5/Filter.c **** 
  48:.\Generated_Source\PSoC5/Filter.c ****     /* Turn off Run Bit */
  49:.\Generated_Source\PSoC5/Filter.c ****     Filter_CR_REG &= (uint8)~Filter_RUN_MASK;
  40              		.loc 1 49 0
  41 0004 2149     		ldr	r1, .L5+4
  46:.\Generated_Source\PSoC5/Filter.c ****     Filter_PM_ACT_CFG_REG |= Filter_PM_ACT_MSK;
  42              		.loc 1 46 0
  43 0006 1A78     		ldrb	r2, [r3, #0]	@ zero_extendqisi2
  44 0008 42F01000 		orr	r0, r2, #16
  45 000c 1870     		strb	r0, [r3, #0]
  46              		.loc 1 49 0
  47 000e 0C78     		ldrb	r4, [r1, #0]	@ zero_extendqisi2
  50:.\Generated_Source\PSoC5/Filter.c ****                 
  51:.\Generated_Source\PSoC5/Filter.c ****     /* Enable the DFB RAMS */
  52:.\Generated_Source\PSoC5/Filter.c ****     Filter_RAM_EN_REG = Filter_RAM_DIR_BUS;
  48              		.loc 1 52 0
  49 0010 1F4A     		ldr	r2, .L5+8
  49:.\Generated_Source\PSoC5/Filter.c ****     Filter_CR_REG &= (uint8)~Filter_RUN_MASK;
  50              		.loc 1 49 0
  51 0012 04F0FE05 		and	r5, r4, #254
  53:.\Generated_Source\PSoC5/Filter.c ****         
  54:.\Generated_Source\PSoC5/Filter.c ****     /* Put DFB RAM on the bus */
  55:.\Generated_Source\PSoC5/Filter.c ****     Filter_RAM_DIR_REG = Filter_RAM_DIR_BUS;
  52              		.loc 1 55 0
  53 0016 1F4C     		ldr	r4, .L5+12
  52:.\Generated_Source\PSoC5/Filter.c ****     Filter_RAM_EN_REG = Filter_RAM_DIR_BUS;
  54              		.loc 1 52 0
  55 0018 3F23     		movs	r3, #63
  49:.\Generated_Source\PSoC5/Filter.c ****     Filter_CR_REG &= (uint8)~Filter_RUN_MASK;
ARM GAS  C:\Users\Luke\AppData\Local\Temp\ccR7nmQ0.s 			page 3


  56              		.loc 1 49 0
  57 001a 0D70     		strb	r5, [r1, #0]
  56:.\Generated_Source\PSoC5/Filter.c ****         
  57:.\Generated_Source\PSoC5/Filter.c ****     /* Write DFB RAMs */
  58:.\Generated_Source\PSoC5/Filter.c ****     /* Control Store RAMs */
  59:.\Generated_Source\PSoC5/Filter.c ****     (void)memcpy( Filter_CSA_RAM,
  58              		.loc 1 59 0
  59 001c 1E48     		ldr	r0, .L5+16
  52:.\Generated_Source\PSoC5/Filter.c ****     Filter_RAM_EN_REG = Filter_RAM_DIR_BUS;
  60              		.loc 1 52 0
  61 001e 1370     		strb	r3, [r2, #0]
  62              		.loc 1 59 0
  63 0020 1E49     		ldr	r1, .L5+20
  55:.\Generated_Source\PSoC5/Filter.c ****     Filter_RAM_DIR_REG = Filter_RAM_DIR_BUS;
  64              		.loc 1 55 0
  65 0022 2370     		strb	r3, [r4, #0]
  66              		.loc 1 59 0
  67 0024 4FF48072 		mov	r2, #256
  68 0028 FFF7FEFF 		bl	memcpy
  69              	.LVL0:
  60:.\Generated_Source\PSoC5/Filter.c ****         Filter_control, Filter_CSA_RAM_SIZE); 
  61:.\Generated_Source\PSoC5/Filter.c ****     (void)memcpy(Filter_CSB_RAM,
  70              		.loc 1 61 0
  71 002c 1B49     		ldr	r1, .L5+20
  72 002e 4FF48072 		mov	r2, #256
  73 0032 1B48     		ldr	r0, .L5+24
  74 0034 FFF7FEFF 		bl	memcpy
  75              	.LVL1:
  62:.\Generated_Source\PSoC5/Filter.c ****         Filter_control, Filter_CSB_RAM_SIZE); 
  63:.\Generated_Source\PSoC5/Filter.c ****     /* CFSM RAM */
  64:.\Generated_Source\PSoC5/Filter.c ****     (void)memcpy(Filter_CFSM_RAM,
  76              		.loc 1 64 0
  77 0038 1A49     		ldr	r1, .L5+28
  78 003a 4FF48072 		mov	r2, #256
  79 003e 1A48     		ldr	r0, .L5+32
  80 0040 FFF7FEFF 		bl	memcpy
  81              	.LVL2:
  65:.\Generated_Source\PSoC5/Filter.c ****         Filter_cfsm, Filter_CFSM_RAM_SIZE); 
  66:.\Generated_Source\PSoC5/Filter.c ****     /* Data RAMs */
  67:.\Generated_Source\PSoC5/Filter.c ****     (void)memcpy(Filter_DA_RAM,
  82              		.loc 1 67 0
  83 0044 1949     		ldr	r1, .L5+36
  84 0046 4FF40072 		mov	r2, #512
  85 004a 1948     		ldr	r0, .L5+40
  86 004c FFF7FEFF 		bl	memcpy
  87              	.LVL3:
  68:.\Generated_Source\PSoC5/Filter.c ****         Filter_data_a, Filter_DA_RAM_SIZE); 
  69:.\Generated_Source\PSoC5/Filter.c ****     (void)memcpy(Filter_DB_RAM,
  70:.\Generated_Source\PSoC5/Filter.c ****         Filter_data_b, Filter_DB_RAM_SIZE); 
  71:.\Generated_Source\PSoC5/Filter.c ****     /* ACU RAM */
  72:.\Generated_Source\PSoC5/Filter.c ****     (void)memcpy(Filter_ACU_RAM,
  88              		.loc 1 72 0
  89 0050 184D     		ldr	r5, .L5+44
  69:.\Generated_Source\PSoC5/Filter.c ****     (void)memcpy(Filter_DB_RAM,
  90              		.loc 1 69 0
  91 0052 1949     		ldr	r1, .L5+48
  92 0054 1948     		ldr	r0, .L5+52
ARM GAS  C:\Users\Luke\AppData\Local\Temp\ccR7nmQ0.s 			page 4


  93 0056 4FF40072 		mov	r2, #512
  94 005a FFF7FEFF 		bl	memcpy
  95              	.LVL4:
  96              		.loc 1 72 0
  97 005e 184B     		ldr	r3, .L5+56
  98 0060 05F14001 		add	r1, r5, #64
  99              	.L2:
 100 0064 55F8040B 		ldr	r0, [r5], #4	@ unaligned
 101 0068 8D42     		cmp	r5, r1
 102 006a 43F8040B 		str	r0, [r3], #4	@ unaligned
 103 006e F9D1     		bne	.L2
  73:.\Generated_Source\PSoC5/Filter.c ****         Filter_acu, Filter_ACU_RAM_SIZE); 
  74:.\Generated_Source\PSoC5/Filter.c **** 
  75:.\Generated_Source\PSoC5/Filter.c ****     /* Take DFB RAM off the bus */
  76:.\Generated_Source\PSoC5/Filter.c ****     Filter_RAM_DIR_REG = Filter_RAM_DIR_DFB;
 104              		.loc 1 76 0
 105 0070 0025     		movs	r5, #0
  77:.\Generated_Source\PSoC5/Filter.c **** 
  78:.\Generated_Source\PSoC5/Filter.c ****     /* Set up interrupt and DMA events */
  79:.\Generated_Source\PSoC5/Filter.c ****     Filter_SetInterruptMode(Filter_INIT_INTERRUPT_MODE);
 106              		.loc 1 79 0
 107 0072 0120     		movs	r0, #1
  76:.\Generated_Source\PSoC5/Filter.c ****     Filter_RAM_DIR_REG = Filter_RAM_DIR_DFB;
 108              		.loc 1 76 0
 109 0074 2570     		strb	r5, [r4, #0]
 110              		.loc 1 79 0
 111 0076 FFF7FEFF 		bl	Filter_SetInterruptMode
 112              	.LVL5:
  80:.\Generated_Source\PSoC5/Filter.c ****     Filter_SetDMAMode(Filter_INIT_DMA_MODE);
 113              		.loc 1 80 0
 114 007a 2846     		mov	r0, r5
 115 007c FFF7FEFF 		bl	Filter_SetDMAMode
 116              	.LVL6:
  81:.\Generated_Source\PSoC5/Filter.c ****         
  82:.\Generated_Source\PSoC5/Filter.c ****     /* Clear any pending interrupts */
  83:.\Generated_Source\PSoC5/Filter.c ****     /* Bits [2..0] of this register are readonly. */
  84:.\Generated_Source\PSoC5/Filter.c ****     Filter_SR_REG = 0xf8u;   
 117              		.loc 1 84 0
 118 0080 104B     		ldr	r3, .L5+60
 119 0082 F822     		movs	r2, #248
 120 0084 1A70     		strb	r2, [r3, #0]
 121 0086 38BD     		pop	{r3, r4, r5, pc}
 122              	.L6:
 123              		.align	2
 124              	.L5:
 125 0088 A6430040 		.word	1073759142
 126 008c 80C70040 		.word	1073792896
 127 0090 88C70040 		.word	1073792904
 128 0094 8CC70040 		.word	1073792908
 129 0098 00C40040 		.word	1073792000
 130 009c 00000000 		.word	Filter_control
 131 00a0 00C50040 		.word	1073792256
 132 00a4 00000000 		.word	Filter_cfsm
 133 00a8 00C60040 		.word	1073792512
 134 00ac 00000000 		.word	Filter_data_a
 135 00b0 00C00040 		.word	1073790976
 136 00b4 00000000 		.word	Filter_acu
ARM GAS  C:\Users\Luke\AppData\Local\Temp\ccR7nmQ0.s 			page 5


 137 00b8 00000000 		.word	Filter_data_b
 138 00bc 00C20040 		.word	1073791488
 139 00c0 00C70040 		.word	1073792768
 140 00c4 84C70040 		.word	1073792900
 141              		.cfi_endproc
 142              	.LFE0:
 143              		.size	Filter_Init, .-Filter_Init
 144              		.section	.text.Filter_Enable,"ax",%progbits
 145              		.align	1
 146              		.global	Filter_Enable
 147              		.thumb
 148              		.thumb_func
 149              		.type	Filter_Enable, %function
 150              	Filter_Enable:
 151              	.LFB1:
  85:.\Generated_Source\PSoC5/Filter.c **** }
  86:.\Generated_Source\PSoC5/Filter.c **** 
  87:.\Generated_Source\PSoC5/Filter.c **** 
  88:.\Generated_Source\PSoC5/Filter.c **** /*******************************************************************************
  89:.\Generated_Source\PSoC5/Filter.c **** * Function Name: Filter_Enable
  90:.\Generated_Source\PSoC5/Filter.c **** ********************************************************************************
  91:.\Generated_Source\PSoC5/Filter.c **** *  
  92:.\Generated_Source\PSoC5/Filter.c **** * Summary: 
  93:.\Generated_Source\PSoC5/Filter.c **** *  Enables the DFB run bit.
  94:.\Generated_Source\PSoC5/Filter.c **** *
  95:.\Generated_Source\PSoC5/Filter.c **** * Parameters:  
  96:.\Generated_Source\PSoC5/Filter.c **** *  void
  97:.\Generated_Source\PSoC5/Filter.c **** *
  98:.\Generated_Source\PSoC5/Filter.c **** * Return: 
  99:.\Generated_Source\PSoC5/Filter.c **** *  void
 100:.\Generated_Source\PSoC5/Filter.c **** *
 101:.\Generated_Source\PSoC5/Filter.c **** *******************************************************************************/
 102:.\Generated_Source\PSoC5/Filter.c **** void Filter_Enable(void) 
 103:.\Generated_Source\PSoC5/Filter.c **** {
 152              		.loc 1 103 0
 153              		.cfi_startproc
 154              		@ args = 0, pretend = 0, frame = 0
 155              		@ frame_needed = 0, uses_anonymous_args = 0
 156              		@ link register save eliminated.
 104:.\Generated_Source\PSoC5/Filter.c ****     /* Power on DFB in Active mode */
 105:.\Generated_Source\PSoC5/Filter.c ****     Filter_PM_ACT_CFG_REG |= Filter_PM_ACT_MSK;
 157              		.loc 1 105 0
 158 0000 074B     		ldr	r3, .L8
 159 0002 1A78     		ldrb	r2, [r3, #0]	@ zero_extendqisi2
 160 0004 42F01000 		orr	r0, r2, #16
 161 0008 1870     		strb	r0, [r3, #0]
 106:.\Generated_Source\PSoC5/Filter.c ****         
 107:.\Generated_Source\PSoC5/Filter.c ****     /* Power on DFB in Alternative Active mode */
 108:.\Generated_Source\PSoC5/Filter.c ****     Filter_PM_STBY_CFG_REG |= Filter_PM_STBY_MSK;
 162              		.loc 1 108 0
 163 000a 197C     		ldrb	r1, [r3, #16]	@ zero_extendqisi2
 164 000c 41F01002 		orr	r2, r1, #16
 165 0010 1A74     		strb	r2, [r3, #16]
 109:.\Generated_Source\PSoC5/Filter.c **** 
 110:.\Generated_Source\PSoC5/Filter.c ****     /* Turn on Run Bit */
 111:.\Generated_Source\PSoC5/Filter.c ****     Filter_CR_REG |= Filter_RUN_MASK;
 166              		.loc 1 111 0
ARM GAS  C:\Users\Luke\AppData\Local\Temp\ccR7nmQ0.s 			page 6


 167 0012 044B     		ldr	r3, .L8+4
 168 0014 1878     		ldrb	r0, [r3, #0]	@ zero_extendqisi2
 169 0016 40F00101 		orr	r1, r0, #1
 170 001a 1970     		strb	r1, [r3, #0]
 171 001c 7047     		bx	lr
 172              	.L9:
 173 001e 00BF     		.align	2
 174              	.L8:
 175 0020 A6430040 		.word	1073759142
 176 0024 80C70040 		.word	1073792896
 177              		.cfi_endproc
 178              	.LFE1:
 179              		.size	Filter_Enable, .-Filter_Enable
 180              		.section	.text.Filter_Start,"ax",%progbits
 181              		.align	1
 182              		.global	Filter_Start
 183              		.thumb
 184              		.thumb_func
 185              		.type	Filter_Start, %function
 186              	Filter_Start:
 187              	.LFB2:
 112:.\Generated_Source\PSoC5/Filter.c **** }
 113:.\Generated_Source\PSoC5/Filter.c **** 
 114:.\Generated_Source\PSoC5/Filter.c **** 
 115:.\Generated_Source\PSoC5/Filter.c **** /*******************************************************************************
 116:.\Generated_Source\PSoC5/Filter.c **** * Function Name: Filter_Start
 117:.\Generated_Source\PSoC5/Filter.c **** ********************************************************************************
 118:.\Generated_Source\PSoC5/Filter.c **** *
 119:.\Generated_Source\PSoC5/Filter.c **** * Summary:
 120:.\Generated_Source\PSoC5/Filter.c **** *  This method does the prep work necessary to setup DFB.  This includes loading 
 121:.\Generated_Source\PSoC5/Filter.c **** *
 122:.\Generated_Source\PSoC5/Filter.c **** * Parameters:  
 123:.\Generated_Source\PSoC5/Filter.c **** *  void
 124:.\Generated_Source\PSoC5/Filter.c **** * 
 125:.\Generated_Source\PSoC5/Filter.c **** * Return: 
 126:.\Generated_Source\PSoC5/Filter.c **** *  void
 127:.\Generated_Source\PSoC5/Filter.c **** *
 128:.\Generated_Source\PSoC5/Filter.c **** * Global variables:
 129:.\Generated_Source\PSoC5/Filter.c **** *  Filter_initVar:  Used to check the initial configuration,
 130:.\Generated_Source\PSoC5/Filter.c **** *  modified when this function is called for the first time.
 131:.\Generated_Source\PSoC5/Filter.c **** *
 132:.\Generated_Source\PSoC5/Filter.c **** * Note: 
 133:.\Generated_Source\PSoC5/Filter.c **** *  Use Filter_InterruptConfig to control which events trigger 
 134:.\Generated_Source\PSoC5/Filter.c **** *  interrupts in the DFB. 
 135:.\Generated_Source\PSoC5/Filter.c **** *
 136:.\Generated_Source\PSoC5/Filter.c **** *******************************************************************************/
 137:.\Generated_Source\PSoC5/Filter.c **** void Filter_Start(void) 
 138:.\Generated_Source\PSoC5/Filter.c **** {
 188              		.loc 1 138 0
 189              		.cfi_startproc
 190              		@ args = 0, pretend = 0, frame = 0
 191              		@ frame_needed = 0, uses_anonymous_args = 0
 192 0000 10B5     		push	{r4, lr}
 193              	.LCFI1:
 194              		.cfi_def_cfa_offset 8
 195              		.cfi_offset 4, -8
 196              		.cfi_offset 14, -4
ARM GAS  C:\Users\Luke\AppData\Local\Temp\ccR7nmQ0.s 			page 7


 139:.\Generated_Source\PSoC5/Filter.c ****      /* If not Initialized then initialize all required hardware and software */
 140:.\Generated_Source\PSoC5/Filter.c ****     if(Filter_initVar == 0u)
 197              		.loc 1 140 0
 198 0002 054C     		ldr	r4, .L12
 199 0004 2378     		ldrb	r3, [r4, #0]	@ zero_extendqisi2
 200 0006 1BB9     		cbnz	r3, .L11
 141:.\Generated_Source\PSoC5/Filter.c ****     {
 142:.\Generated_Source\PSoC5/Filter.c ****         Filter_Init();
 201              		.loc 1 142 0
 202 0008 FFF7FEFF 		bl	Filter_Init
 203              	.LVL7:
 143:.\Generated_Source\PSoC5/Filter.c ****         Filter_initVar = 1u;
 204              		.loc 1 143 0
 205 000c 0120     		movs	r0, #1
 206 000e 2070     		strb	r0, [r4, #0]
 207              	.L11:
 144:.\Generated_Source\PSoC5/Filter.c ****     }
 145:.\Generated_Source\PSoC5/Filter.c **** 
 146:.\Generated_Source\PSoC5/Filter.c ****     /* Enable the DFB block */
 147:.\Generated_Source\PSoC5/Filter.c ****     Filter_Enable();
 148:.\Generated_Source\PSoC5/Filter.c **** }
 208              		.loc 1 148 0
 209 0010 BDE81040 		pop	{r4, lr}
 147:.\Generated_Source\PSoC5/Filter.c ****     Filter_Enable();
 210              		.loc 1 147 0
 211 0014 FFF7FEBF 		b	Filter_Enable
 212              	.LVL8:
 213              	.L13:
 214              		.align	2
 215              	.L12:
 216 0018 00000000 		.word	.LANCHOR0
 217              		.cfi_endproc
 218              	.LFE2:
 219              		.size	Filter_Start, .-Filter_Start
 220              		.section	.text.Filter_Stop,"ax",%progbits
 221              		.align	1
 222              		.global	Filter_Stop
 223              		.thumb
 224              		.thumb_func
 225              		.type	Filter_Stop, %function
 226              	Filter_Stop:
 227              	.LFB3:
 149:.\Generated_Source\PSoC5/Filter.c **** 
 150:.\Generated_Source\PSoC5/Filter.c **** 
 151:.\Generated_Source\PSoC5/Filter.c **** /*******************************************************************************
 152:.\Generated_Source\PSoC5/Filter.c **** * Function Name: Filter_Stop
 153:.\Generated_Source\PSoC5/Filter.c **** ********************************************************************************
 154:.\Generated_Source\PSoC5/Filter.c **** *
 155:.\Generated_Source\PSoC5/Filter.c **** * Summary:
 156:.\Generated_Source\PSoC5/Filter.c **** *  Turn off the run bit.  If DMA control is used to feed the channels, allow 
 157:.\Generated_Source\PSoC5/Filter.c **** *  arguments to turn one of the TD channels off. 
 158:.\Generated_Source\PSoC5/Filter.c **** *
 159:.\Generated_Source\PSoC5/Filter.c **** * Parameters:  
 160:.\Generated_Source\PSoC5/Filter.c **** *  void
 161:.\Generated_Source\PSoC5/Filter.c **** *
 162:.\Generated_Source\PSoC5/Filter.c **** * Return: 
 163:.\Generated_Source\PSoC5/Filter.c **** *  void
ARM GAS  C:\Users\Luke\AppData\Local\Temp\ccR7nmQ0.s 			page 8


 164:.\Generated_Source\PSoC5/Filter.c **** *
 165:.\Generated_Source\PSoC5/Filter.c **** *******************************************************************************/
 166:.\Generated_Source\PSoC5/Filter.c **** void Filter_Stop(void) 
 167:.\Generated_Source\PSoC5/Filter.c **** {
 228              		.loc 1 167 0
 229              		.cfi_startproc
 230              		@ args = 0, pretend = 0, frame = 0
 231              		@ frame_needed = 0, uses_anonymous_args = 0
 232              		@ link register save eliminated.
 168:.\Generated_Source\PSoC5/Filter.c ****     Filter_CR_REG &= (uint8)~(Filter_RUN_MASK);
 233              		.loc 1 168 0
 234 0000 074B     		ldr	r3, .L15
 169:.\Generated_Source\PSoC5/Filter.c **** 
 170:.\Generated_Source\PSoC5/Filter.c ****     /* Power off DFB in Active mode */
 171:.\Generated_Source\PSoC5/Filter.c ****     Filter_PM_ACT_CFG_REG &= (uint8)~Filter_PM_ACT_MSK;
 235              		.loc 1 171 0
 236 0002 0849     		ldr	r1, .L15+4
 168:.\Generated_Source\PSoC5/Filter.c ****     Filter_CR_REG &= (uint8)~(Filter_RUN_MASK);
 237              		.loc 1 168 0
 238 0004 1A78     		ldrb	r2, [r3, #0]	@ zero_extendqisi2
 239 0006 02F0FE00 		and	r0, r2, #254
 240 000a 1870     		strb	r0, [r3, #0]
 241              		.loc 1 171 0
 242 000c 0B78     		ldrb	r3, [r1, #0]	@ zero_extendqisi2
 243 000e 03F0EF02 		and	r2, r3, #239
 244 0012 0A70     		strb	r2, [r1, #0]
 172:.\Generated_Source\PSoC5/Filter.c ****     
 173:.\Generated_Source\PSoC5/Filter.c ****     /* Power off DFB in Alternative Active mode */
 174:.\Generated_Source\PSoC5/Filter.c ****     Filter_PM_STBY_CFG_REG &= (uint8)~Filter_PM_STBY_MSK;
 245              		.loc 1 174 0
 246 0014 087C     		ldrb	r0, [r1, #16]	@ zero_extendqisi2
 247 0016 00F0EF03 		and	r3, r0, #239
 248 001a 0B74     		strb	r3, [r1, #16]
 249 001c 7047     		bx	lr
 250              	.L16:
 251 001e 00BF     		.align	2
 252              	.L15:
 253 0020 80C70040 		.word	1073792896
 254 0024 A6430040 		.word	1073759142
 255              		.cfi_endproc
 256              	.LFE3:
 257              		.size	Filter_Stop, .-Filter_Stop
 258              		.section	.text.Filter_Read8,"ax",%progbits
 259              		.align	1
 260              		.global	Filter_Read8
 261              		.thumb
 262              		.thumb_func
 263              		.type	Filter_Read8, %function
 264              	Filter_Read8:
 265              	.LFB4:
 175:.\Generated_Source\PSoC5/Filter.c **** }
 176:.\Generated_Source\PSoC5/Filter.c **** 
 177:.\Generated_Source\PSoC5/Filter.c **** 
 178:.\Generated_Source\PSoC5/Filter.c **** /*******************************************************************************
 179:.\Generated_Source\PSoC5/Filter.c **** * Function Name: Filter_Read8
 180:.\Generated_Source\PSoC5/Filter.c **** ********************************************************************************
 181:.\Generated_Source\PSoC5/Filter.c **** *
ARM GAS  C:\Users\Luke\AppData\Local\Temp\ccR7nmQ0.s 			page 9


 182:.\Generated_Source\PSoC5/Filter.c **** * Summary:
 183:.\Generated_Source\PSoC5/Filter.c **** *  Get the value in one of the DFB Output Holding Registers 
 184:.\Generated_Source\PSoC5/Filter.c **** *
 185:.\Generated_Source\PSoC5/Filter.c **** * Parameters:  
 186:.\Generated_Source\PSoC5/Filter.c **** *  channel:  Filter_CHANNEL_A or Filter_CHANNEL_B
 187:.\Generated_Source\PSoC5/Filter.c **** *            
 188:.\Generated_Source\PSoC5/Filter.c **** * Return: 
 189:.\Generated_Source\PSoC5/Filter.c **** *  The most significant 8 bits of the current output value sitting in the 
 190:.\Generated_Source\PSoC5/Filter.c **** *  selected channel's holding register or 0x00 for invalid channel numbers.
 191:.\Generated_Source\PSoC5/Filter.c **** *
 192:.\Generated_Source\PSoC5/Filter.c **** *******************************************************************************/
 193:.\Generated_Source\PSoC5/Filter.c **** uint8 Filter_Read8(uint8 channel) 
 194:.\Generated_Source\PSoC5/Filter.c **** {
 266              		.loc 1 194 0
 267              		.cfi_startproc
 268              		@ args = 0, pretend = 0, frame = 0
 269              		@ frame_needed = 0, uses_anonymous_args = 0
 270              		@ link register save eliminated.
 271              	.LVL9:
 195:.\Generated_Source\PSoC5/Filter.c ****     uint8 value;
 196:.\Generated_Source\PSoC5/Filter.c **** 
 197:.\Generated_Source\PSoC5/Filter.c ****     if (channel == Filter_CHANNEL_A)
 272              		.loc 1 197 0
 273 0000 08B9     		cbnz	r0, .L18
 198:.\Generated_Source\PSoC5/Filter.c ****     {
 199:.\Generated_Source\PSoC5/Filter.c ****         value = Filter_HOLDAH_REG;
 274              		.loc 1 199 0
 275 0002 044B     		ldr	r3, .L22
 276 0004 02E0     		b	.L21
 277              	.L18:
 200:.\Generated_Source\PSoC5/Filter.c ****     }
 201:.\Generated_Source\PSoC5/Filter.c ****     else if (channel == Filter_CHANNEL_B)
 278              		.loc 1 201 0
 279 0006 0128     		cmp	r0, #1
 280 0008 02D1     		bne	.L20
 202:.\Generated_Source\PSoC5/Filter.c ****     {
 203:.\Generated_Source\PSoC5/Filter.c ****         value = Filter_HOLDBH_REG;
 281              		.loc 1 203 0
 282 000a 034B     		ldr	r3, .L22+4
 283              	.L21:
 284 000c 1878     		ldrb	r0, [r3, #0]	@ zero_extendqisi2
 285              	.LVL10:
 286 000e 7047     		bx	lr
 287              	.LVL11:
 288              	.L20:
 204:.\Generated_Source\PSoC5/Filter.c ****     }
 205:.\Generated_Source\PSoC5/Filter.c ****     else
 206:.\Generated_Source\PSoC5/Filter.c ****     {
 207:.\Generated_Source\PSoC5/Filter.c ****         value = 0x0u;
 289              		.loc 1 207 0
 290 0010 0020     		movs	r0, #0
 291              	.LVL12:
 208:.\Generated_Source\PSoC5/Filter.c ****     }
 209:.\Generated_Source\PSoC5/Filter.c ****     return value;
 210:.\Generated_Source\PSoC5/Filter.c **** }
 292              		.loc 1 210 0
 293 0012 7047     		bx	lr
ARM GAS  C:\Users\Luke\AppData\Local\Temp\ccR7nmQ0.s 			page 10


 294              	.L23:
 295              		.align	2
 296              	.L22:
 297 0014 AAC70040 		.word	1073792938
 298 0018 AEC70040 		.word	1073792942
 299              		.cfi_endproc
 300              	.LFE4:
 301              		.size	Filter_Read8, .-Filter_Read8
 302              		.section	.text.Filter_Read16,"ax",%progbits
 303              		.align	1
 304              		.global	Filter_Read16
 305              		.thumb
 306              		.thumb_func
 307              		.type	Filter_Read16, %function
 308              	Filter_Read16:
 309              	.LFB5:
 211:.\Generated_Source\PSoC5/Filter.c **** 
 212:.\Generated_Source\PSoC5/Filter.c **** 
 213:.\Generated_Source\PSoC5/Filter.c **** /*******************************************************************************
 214:.\Generated_Source\PSoC5/Filter.c **** * Function Name: Filter_Read16
 215:.\Generated_Source\PSoC5/Filter.c **** ********************************************************************************
 216:.\Generated_Source\PSoC5/Filter.c **** *
 217:.\Generated_Source\PSoC5/Filter.c **** * Summary:
 218:.\Generated_Source\PSoC5/Filter.c **** *  Get the value in one of the DFB Output Holding Registers 
 219:.\Generated_Source\PSoC5/Filter.c **** *
 220:.\Generated_Source\PSoC5/Filter.c **** * Parameters:  
 221:.\Generated_Source\PSoC5/Filter.c **** *  channel:  Filter_CHANNEL_A or Filter_CHANNEL_B
 222:.\Generated_Source\PSoC5/Filter.c **** *            
 223:.\Generated_Source\PSoC5/Filter.c **** * Return: 
 224:.\Generated_Source\PSoC5/Filter.c **** *  The most significant 16 bits of the current output value sitting in the 
 225:.\Generated_Source\PSoC5/Filter.c **** *  selected channel's holding register or 0x0000 for invalid channel numbers
 226:.\Generated_Source\PSoC5/Filter.c **** *
 227:.\Generated_Source\PSoC5/Filter.c **** * Note:
 228:.\Generated_Source\PSoC5/Filter.c **** *  Order of the read is important.  On the read of the high byte, the DFB clears
 229:.\Generated_Source\PSoC5/Filter.c **** *  the data ready bit.
 230:.\Generated_Source\PSoC5/Filter.c **** *
 231:.\Generated_Source\PSoC5/Filter.c **** *******************************************************************************/
 232:.\Generated_Source\PSoC5/Filter.c **** #if defined(__C51__) || defined(__CX51__) 
 233:.\Generated_Source\PSoC5/Filter.c **** 
 234:.\Generated_Source\PSoC5/Filter.c ****     uint16 Filter_Read16(uint8 channel) 
 235:.\Generated_Source\PSoC5/Filter.c ****     {
 236:.\Generated_Source\PSoC5/Filter.c ****         uint16 val;
 237:.\Generated_Source\PSoC5/Filter.c ****     
 238:.\Generated_Source\PSoC5/Filter.c ****         if (channel == Filter_CHANNEL_A)
 239:.\Generated_Source\PSoC5/Filter.c ****         {        
 240:.\Generated_Source\PSoC5/Filter.c ****             val = Filter_HOLDAM_REG;
 241:.\Generated_Source\PSoC5/Filter.c ****             val |= (uint16)(Filter_HOLDAH_REG) << 8u;
 242:.\Generated_Source\PSoC5/Filter.c ****         }
 243:.\Generated_Source\PSoC5/Filter.c ****         else if (channel == Filter_CHANNEL_B)
 244:.\Generated_Source\PSoC5/Filter.c ****         {      
 245:.\Generated_Source\PSoC5/Filter.c ****             val = Filter_HOLDBM_REG;
 246:.\Generated_Source\PSoC5/Filter.c ****             val |= (uint16)Filter_HOLDBH_REG << 8u;
 247:.\Generated_Source\PSoC5/Filter.c ****         }
 248:.\Generated_Source\PSoC5/Filter.c ****         else
 249:.\Generated_Source\PSoC5/Filter.c ****         {
 250:.\Generated_Source\PSoC5/Filter.c ****             val = 0x0u;
 251:.\Generated_Source\PSoC5/Filter.c ****         }
ARM GAS  C:\Users\Luke\AppData\Local\Temp\ccR7nmQ0.s 			page 11


 252:.\Generated_Source\PSoC5/Filter.c ****         return val;
 253:.\Generated_Source\PSoC5/Filter.c ****     }
 254:.\Generated_Source\PSoC5/Filter.c **** 
 255:.\Generated_Source\PSoC5/Filter.c **** #else
 256:.\Generated_Source\PSoC5/Filter.c **** 
 257:.\Generated_Source\PSoC5/Filter.c ****     uint16 Filter_Read16(uint8 channel) 
 258:.\Generated_Source\PSoC5/Filter.c ****     {
 310              		.loc 1 258 0
 311              		.cfi_startproc
 312              		@ args = 0, pretend = 0, frame = 0
 313              		@ frame_needed = 0, uses_anonymous_args = 0
 314              		@ link register save eliminated.
 315              	.LVL13:
 259:.\Generated_Source\PSoC5/Filter.c ****         uint16 val;
 260:.\Generated_Source\PSoC5/Filter.c **** 
 261:.\Generated_Source\PSoC5/Filter.c ****         if (channel == Filter_CHANNEL_A)
 316              		.loc 1 261 0
 317 0000 08B9     		cbnz	r0, .L25
 262:.\Generated_Source\PSoC5/Filter.c ****         {        
 263:.\Generated_Source\PSoC5/Filter.c ****             val = Filter_HOLDA16_REG;
 318              		.loc 1 263 0
 319 0002 054B     		ldr	r3, .L29
 320 0004 02E0     		b	.L28
 321              	.L25:
 264:.\Generated_Source\PSoC5/Filter.c ****         }
 265:.\Generated_Source\PSoC5/Filter.c ****         else if (channel == Filter_CHANNEL_B)
 322              		.loc 1 265 0
 323 0006 0128     		cmp	r0, #1
 324 0008 03D1     		bne	.L27
 266:.\Generated_Source\PSoC5/Filter.c ****         {      
 267:.\Generated_Source\PSoC5/Filter.c ****             val = Filter_HOLDB16_REG;
 325              		.loc 1 267 0
 326 000a 044B     		ldr	r3, .L29+4
 327              	.L28:
 328 000c 1888     		ldrh	r0, [r3, #0]
 329              	.LVL14:
 330 000e 80B2     		uxth	r0, r0
 331              	.LVL15:
 332 0010 7047     		bx	lr
 333              	.LVL16:
 334              	.L27:
 268:.\Generated_Source\PSoC5/Filter.c ****         }
 269:.\Generated_Source\PSoC5/Filter.c ****         else
 270:.\Generated_Source\PSoC5/Filter.c ****         {
 271:.\Generated_Source\PSoC5/Filter.c ****             val = 0x0u;
 335              		.loc 1 271 0
 336 0012 0020     		movs	r0, #0
 337              	.LVL17:
 272:.\Generated_Source\PSoC5/Filter.c ****         }
 273:.\Generated_Source\PSoC5/Filter.c ****         return val;
 274:.\Generated_Source\PSoC5/Filter.c ****     }
 338              		.loc 1 274 0
 339 0014 7047     		bx	lr
 340              	.L30:
 341 0016 00BF     		.align	2
 342              	.L29:
 343 0018 A9C70040 		.word	1073792937
ARM GAS  C:\Users\Luke\AppData\Local\Temp\ccR7nmQ0.s 			page 12


 344 001c ADC70040 		.word	1073792941
 345              		.cfi_endproc
 346              	.LFE5:
 347              		.size	Filter_Read16, .-Filter_Read16
 348              		.section	.text.Filter_Read24,"ax",%progbits
 349              		.align	1
 350              		.global	Filter_Read24
 351              		.thumb
 352              		.thumb_func
 353              		.type	Filter_Read24, %function
 354              	Filter_Read24:
 355              	.LFB6:
 275:.\Generated_Source\PSoC5/Filter.c **** 
 276:.\Generated_Source\PSoC5/Filter.c **** #endif /* defined(__C51__) || defined(__CX51__) */
 277:.\Generated_Source\PSoC5/Filter.c **** 
 278:.\Generated_Source\PSoC5/Filter.c **** 
 279:.\Generated_Source\PSoC5/Filter.c **** /*******************************************************************************
 280:.\Generated_Source\PSoC5/Filter.c **** * Function Name: Filter_Read24
 281:.\Generated_Source\PSoC5/Filter.c **** ********************************************************************************
 282:.\Generated_Source\PSoC5/Filter.c **** *
 283:.\Generated_Source\PSoC5/Filter.c **** * Summary:
 284:.\Generated_Source\PSoC5/Filter.c **** *  Get the value in one of the DFB Output Holding Registers 
 285:.\Generated_Source\PSoC5/Filter.c **** *
 286:.\Generated_Source\PSoC5/Filter.c **** * Parameters:  
 287:.\Generated_Source\PSoC5/Filter.c **** *  channel:  Filter_CHANNEL_A or Filter_CHANNEL_B
 288:.\Generated_Source\PSoC5/Filter.c **** *            
 289:.\Generated_Source\PSoC5/Filter.c **** * Return: 
 290:.\Generated_Source\PSoC5/Filter.c **** *  The current 24-bit output value sitting in the selected channel's
 291:.\Generated_Source\PSoC5/Filter.c **** *  holding register or 0x00000000 for invalid channel numbers
 292:.\Generated_Source\PSoC5/Filter.c **** *
 293:.\Generated_Source\PSoC5/Filter.c **** * Note:
 294:.\Generated_Source\PSoC5/Filter.c **** *  Order of the read is important.  On the read of the high byte, the DFB clears
 295:.\Generated_Source\PSoC5/Filter.c **** *  the data ready bit.
 296:.\Generated_Source\PSoC5/Filter.c **** *
 297:.\Generated_Source\PSoC5/Filter.c **** *******************************************************************************/
 298:.\Generated_Source\PSoC5/Filter.c **** #if defined(__C51__) || defined(__CX51__)
 299:.\Generated_Source\PSoC5/Filter.c **** 
 300:.\Generated_Source\PSoC5/Filter.c ****     uint32 Filter_Read24(uint8 channel) 
 301:.\Generated_Source\PSoC5/Filter.c ****     {
 302:.\Generated_Source\PSoC5/Filter.c ****         uint32 val;
 303:.\Generated_Source\PSoC5/Filter.c ****     
 304:.\Generated_Source\PSoC5/Filter.c ****         if (channel == Filter_CHANNEL_A)
 305:.\Generated_Source\PSoC5/Filter.c ****         {        
 306:.\Generated_Source\PSoC5/Filter.c ****             val = Filter_HOLDA_REG;
 307:.\Generated_Source\PSoC5/Filter.c ****             val |= (uint32)(Filter_HOLDAM_REG) << 8u;
 308:.\Generated_Source\PSoC5/Filter.c ****             val |= (uint32)(Filter_HOLDAH_REG) << 16u;
 309:.\Generated_Source\PSoC5/Filter.c ****             
 310:.\Generated_Source\PSoC5/Filter.c ****             /* SignExtend */
 311:.\Generated_Source\PSoC5/Filter.c ****             if((val & Filter_SIGN_BIT) == Filter_SIGN_BIT)
 312:.\Generated_Source\PSoC5/Filter.c ****             {    
 313:.\Generated_Source\PSoC5/Filter.c **** 				val |= Filter_SIGN_BYTE;
 314:.\Generated_Source\PSoC5/Filter.c **** 			}
 315:.\Generated_Source\PSoC5/Filter.c ****         }
 316:.\Generated_Source\PSoC5/Filter.c ****         else if (channel == Filter_CHANNEL_B)
 317:.\Generated_Source\PSoC5/Filter.c ****         {      
 318:.\Generated_Source\PSoC5/Filter.c ****             val = Filter_HOLDB_REG;
 319:.\Generated_Source\PSoC5/Filter.c ****             val |= (uint32)Filter_HOLDBM_REG << 8u;
ARM GAS  C:\Users\Luke\AppData\Local\Temp\ccR7nmQ0.s 			page 13


 320:.\Generated_Source\PSoC5/Filter.c ****             val |= (uint32)Filter_HOLDBH_REG << 16u;
 321:.\Generated_Source\PSoC5/Filter.c ****             
 322:.\Generated_Source\PSoC5/Filter.c ****             /* SignExtend */
 323:.\Generated_Source\PSoC5/Filter.c ****             if((val & Filter_SIGN_BIT) == Filter_SIGN_BIT)
 324:.\Generated_Source\PSoC5/Filter.c ****             {
 325:.\Generated_Source\PSoC5/Filter.c **** 				val |= Filter_SIGN_BYTE;
 326:.\Generated_Source\PSoC5/Filter.c **** 			}
 327:.\Generated_Source\PSoC5/Filter.c ****         }
 328:.\Generated_Source\PSoC5/Filter.c ****         else
 329:.\Generated_Source\PSoC5/Filter.c ****         {
 330:.\Generated_Source\PSoC5/Filter.c ****             val = 0x0u;
 331:.\Generated_Source\PSoC5/Filter.c ****         }
 332:.\Generated_Source\PSoC5/Filter.c ****         return val;
 333:.\Generated_Source\PSoC5/Filter.c ****     }
 334:.\Generated_Source\PSoC5/Filter.c **** 
 335:.\Generated_Source\PSoC5/Filter.c **** #else
 336:.\Generated_Source\PSoC5/Filter.c **** 
 337:.\Generated_Source\PSoC5/Filter.c ****     uint32 Filter_Read24(uint8 channel) 
 338:.\Generated_Source\PSoC5/Filter.c ****     {
 356              		.loc 1 338 0
 357              		.cfi_startproc
 358              		@ args = 0, pretend = 0, frame = 0
 359              		@ frame_needed = 0, uses_anonymous_args = 0
 360              		@ link register save eliminated.
 361              	.LVL18:
 339:.\Generated_Source\PSoC5/Filter.c ****         uint32 val;
 340:.\Generated_Source\PSoC5/Filter.c ****          
 341:.\Generated_Source\PSoC5/Filter.c ****         if (channel == Filter_CHANNEL_A)
 362              		.loc 1 341 0
 363 0000 08B9     		cbnz	r0, .L32
 342:.\Generated_Source\PSoC5/Filter.c ****         {        
 343:.\Generated_Source\PSoC5/Filter.c ****             val = Filter_HOLDA24_REG;
 364              		.loc 1 343 0
 365 0002 044B     		ldr	r3, .L36
 366 0004 02E0     		b	.L35
 367              	.L32:
 344:.\Generated_Source\PSoC5/Filter.c ****         }
 345:.\Generated_Source\PSoC5/Filter.c ****         else if (channel == Filter_CHANNEL_B)
 368              		.loc 1 345 0
 369 0006 0128     		cmp	r0, #1
 370 0008 02D1     		bne	.L34
 346:.\Generated_Source\PSoC5/Filter.c ****         {      
 347:.\Generated_Source\PSoC5/Filter.c ****             val = Filter_HOLDB24_REG;
 371              		.loc 1 347 0
 372 000a 034B     		ldr	r3, .L36+4
 373              	.L35:
 374 000c 1868     		ldr	r0, [r3, #0]
 375              	.LVL19:
 376 000e 7047     		bx	lr
 377              	.LVL20:
 378              	.L34:
 348:.\Generated_Source\PSoC5/Filter.c ****         }
 349:.\Generated_Source\PSoC5/Filter.c ****         else
 350:.\Generated_Source\PSoC5/Filter.c ****         {
 351:.\Generated_Source\PSoC5/Filter.c ****             val = 0x0u;
 379              		.loc 1 351 0
 380 0010 0020     		movs	r0, #0
ARM GAS  C:\Users\Luke\AppData\Local\Temp\ccR7nmQ0.s 			page 14


 381              	.LVL21:
 352:.\Generated_Source\PSoC5/Filter.c ****         }
 353:.\Generated_Source\PSoC5/Filter.c ****         return val;
 354:.\Generated_Source\PSoC5/Filter.c ****     }
 382              		.loc 1 354 0
 383 0012 7047     		bx	lr
 384              	.L37:
 385              		.align	2
 386              	.L36:
 387 0014 A8C70040 		.word	1073792936
 388 0018 ACC70040 		.word	1073792940
 389              		.cfi_endproc
 390              	.LFE6:
 391              		.size	Filter_Read24, .-Filter_Read24
 392              		.section	.text.Filter_Write8,"ax",%progbits
 393              		.align	1
 394              		.global	Filter_Write8
 395              		.thumb
 396              		.thumb_func
 397              		.type	Filter_Write8, %function
 398              	Filter_Write8:
 399              	.LFB7:
 355:.\Generated_Source\PSoC5/Filter.c **** 
 356:.\Generated_Source\PSoC5/Filter.c **** #endif /* defined(__C51__) || defined(__CX51__) */
 357:.\Generated_Source\PSoC5/Filter.c **** 
 358:.\Generated_Source\PSoC5/Filter.c **** 
 359:.\Generated_Source\PSoC5/Filter.c **** /*******************************************************************************
 360:.\Generated_Source\PSoC5/Filter.c **** * Function Name: Filter_Write8
 361:.\Generated_Source\PSoC5/Filter.c **** ********************************************************************************
 362:.\Generated_Source\PSoC5/Filter.c **** *
 363:.\Generated_Source\PSoC5/Filter.c **** * Summary:
 364:.\Generated_Source\PSoC5/Filter.c **** *  Set the value in one of the DFB Input Staging Registers 
 365:.\Generated_Source\PSoC5/Filter.c **** *
 366:.\Generated_Source\PSoC5/Filter.c **** * Parameters:  
 367:.\Generated_Source\PSoC5/Filter.c **** *  channel:  Use either Filter_CHANNEL_A or 
 368:.\Generated_Source\PSoC5/Filter.c **** *            Filter_CHANNEL_B as arguments to the function.  
 369:.\Generated_Source\PSoC5/Filter.c **** *  sample:   The 8-bit, right justified input sample. 
 370:.\Generated_Source\PSoC5/Filter.c **** *
 371:.\Generated_Source\PSoC5/Filter.c **** * Return: 
 372:.\Generated_Source\PSoC5/Filter.c **** *  void
 373:.\Generated_Source\PSoC5/Filter.c **** *
 374:.\Generated_Source\PSoC5/Filter.c **** * Note:
 375:.\Generated_Source\PSoC5/Filter.c **** *  Order of the write is important.  On the load of the high byte, the DFB sets
 376:.\Generated_Source\PSoC5/Filter.c **** *  the input ready bit.
 377:.\Generated_Source\PSoC5/Filter.c **** *
 378:.\Generated_Source\PSoC5/Filter.c **** *******************************************************************************/
 379:.\Generated_Source\PSoC5/Filter.c **** void Filter_Write8(uint8 channel, uint8 sample) 
 380:.\Generated_Source\PSoC5/Filter.c **** {
 400              		.loc 1 380 0
 401              		.cfi_startproc
 402              		@ args = 0, pretend = 0, frame = 0
 403              		@ frame_needed = 0, uses_anonymous_args = 0
 404              		@ link register save eliminated.
 405              	.LVL22:
 381:.\Generated_Source\PSoC5/Filter.c ****     if (channel == Filter_CHANNEL_A)
 406              		.loc 1 381 0
 407 0000 08B9     		cbnz	r0, .L39
ARM GAS  C:\Users\Luke\AppData\Local\Temp\ccR7nmQ0.s 			page 15


 382:.\Generated_Source\PSoC5/Filter.c ****     {
 383:.\Generated_Source\PSoC5/Filter.c ****         Filter_STAGEAH_REG = sample;
 408              		.loc 1 383 0
 409 0002 034B     		ldr	r3, .L42
 410 0004 02E0     		b	.L41
 411              	.L39:
 384:.\Generated_Source\PSoC5/Filter.c ****     }
 385:.\Generated_Source\PSoC5/Filter.c ****     else if (channel == Filter_CHANNEL_B)
 412              		.loc 1 385 0
 413 0006 0128     		cmp	r0, #1
 414 0008 01D1     		bne	.L38
 386:.\Generated_Source\PSoC5/Filter.c ****     {
 387:.\Generated_Source\PSoC5/Filter.c ****         Filter_STAGEBH_REG = sample;
 415              		.loc 1 387 0
 416 000a 024B     		ldr	r3, .L42+4
 417              	.L41:
 418 000c 1970     		strb	r1, [r3, #0]
 419              	.L38:
 420 000e 7047     		bx	lr
 421              	.L43:
 422              		.align	2
 423              	.L42:
 424 0010 A2C70040 		.word	1073792930
 425 0014 A6C70040 		.word	1073792934
 426              		.cfi_endproc
 427              	.LFE7:
 428              		.size	Filter_Write8, .-Filter_Write8
 429              		.section	.text.Filter_Write16,"ax",%progbits
 430              		.align	1
 431              		.global	Filter_Write16
 432              		.thumb
 433              		.thumb_func
 434              		.type	Filter_Write16, %function
 435              	Filter_Write16:
 436              	.LFB8:
 388:.\Generated_Source\PSoC5/Filter.c ****     }
 389:.\Generated_Source\PSoC5/Filter.c **** 	else
 390:.\Generated_Source\PSoC5/Filter.c **** 	{
 391:.\Generated_Source\PSoC5/Filter.c **** 		/* No value is loaded on bad channel input */
 392:.\Generated_Source\PSoC5/Filter.c **** 	}
 393:.\Generated_Source\PSoC5/Filter.c **** }
 394:.\Generated_Source\PSoC5/Filter.c **** 
 395:.\Generated_Source\PSoC5/Filter.c **** 
 396:.\Generated_Source\PSoC5/Filter.c **** /*******************************************************************************
 397:.\Generated_Source\PSoC5/Filter.c **** * Function Name: Filter_Write16
 398:.\Generated_Source\PSoC5/Filter.c **** ********************************************************************************
 399:.\Generated_Source\PSoC5/Filter.c **** *
 400:.\Generated_Source\PSoC5/Filter.c **** * Summary:
 401:.\Generated_Source\PSoC5/Filter.c **** *  Set the value in one of the DFB Input Staging Registers 
 402:.\Generated_Source\PSoC5/Filter.c **** *
 403:.\Generated_Source\PSoC5/Filter.c **** * Parameters:  
 404:.\Generated_Source\PSoC5/Filter.c **** *  channel:  Use either Filter_CHANNEL_A or 
 405:.\Generated_Source\PSoC5/Filter.c **** *            Filter_CHANNEL_B as arguments to the function.  
 406:.\Generated_Source\PSoC5/Filter.c **** *  sample:   The 16-bit, right justified input sample. 
 407:.\Generated_Source\PSoC5/Filter.c **** *
 408:.\Generated_Source\PSoC5/Filter.c **** * Return: 
 409:.\Generated_Source\PSoC5/Filter.c **** *  void
ARM GAS  C:\Users\Luke\AppData\Local\Temp\ccR7nmQ0.s 			page 16


 410:.\Generated_Source\PSoC5/Filter.c **** *
 411:.\Generated_Source\PSoC5/Filter.c **** * Note:
 412:.\Generated_Source\PSoC5/Filter.c **** *  Order of the write is important.  On the load of the high byte, the DFB sets
 413:.\Generated_Source\PSoC5/Filter.c **** *  the input ready bit.
 414:.\Generated_Source\PSoC5/Filter.c **** *
 415:.\Generated_Source\PSoC5/Filter.c **** *******************************************************************************/
 416:.\Generated_Source\PSoC5/Filter.c **** #if defined(__C51__) || defined(__CX51__)
 417:.\Generated_Source\PSoC5/Filter.c **** 
 418:.\Generated_Source\PSoC5/Filter.c ****     void Filter_Write16(uint8 channel, uint16 sample) 
 419:.\Generated_Source\PSoC5/Filter.c ****     {
 420:.\Generated_Source\PSoC5/Filter.c ****         /* Write the STAGE MSB reg last as it signals a complete wrote to the 
 421:.\Generated_Source\PSoC5/Filter.c ****            DFB.*/
 422:.\Generated_Source\PSoC5/Filter.c ****         if (channel == Filter_CHANNEL_A)
 423:.\Generated_Source\PSoC5/Filter.c ****         {
 424:.\Generated_Source\PSoC5/Filter.c ****             Filter_STAGEAM_REG = (uint8)(sample);
 425:.\Generated_Source\PSoC5/Filter.c ****             Filter_STAGEAH_REG = (uint8)(sample >> 8u);
 426:.\Generated_Source\PSoC5/Filter.c ****         }
 427:.\Generated_Source\PSoC5/Filter.c ****         else if (channel == Filter_CHANNEL_B)
 428:.\Generated_Source\PSoC5/Filter.c ****         {
 429:.\Generated_Source\PSoC5/Filter.c ****             Filter_STAGEBM_REG = (uint8)(sample);
 430:.\Generated_Source\PSoC5/Filter.c ****             Filter_STAGEBH_REG = (uint8)(sample >> 8u);
 431:.\Generated_Source\PSoC5/Filter.c ****         }
 432:.\Generated_Source\PSoC5/Filter.c ****         else
 433:.\Generated_Source\PSoC5/Filter.c **** 		{
 434:.\Generated_Source\PSoC5/Filter.c **** 			/* No value is loaded on bad channel input */
 435:.\Generated_Source\PSoC5/Filter.c **** 		}
 436:.\Generated_Source\PSoC5/Filter.c ****     }
 437:.\Generated_Source\PSoC5/Filter.c **** 
 438:.\Generated_Source\PSoC5/Filter.c **** #else
 439:.\Generated_Source\PSoC5/Filter.c **** 
 440:.\Generated_Source\PSoC5/Filter.c ****     void Filter_Write16(uint8 channel, uint16 sample) 
 441:.\Generated_Source\PSoC5/Filter.c ****     {
 437              		.loc 1 441 0
 438              		.cfi_startproc
 439              		@ args = 0, pretend = 0, frame = 0
 440              		@ frame_needed = 0, uses_anonymous_args = 0
 441              		@ link register save eliminated.
 442              	.LVL23:
 442:.\Generated_Source\PSoC5/Filter.c ****         if (channel == Filter_CHANNEL_A)
 443              		.loc 1 442 0
 444 0000 08B9     		cbnz	r0, .L45
 443:.\Generated_Source\PSoC5/Filter.c ****         {
 444:.\Generated_Source\PSoC5/Filter.c ****             Filter_STAGEA16_REG = sample;
 445              		.loc 1 444 0
 446 0002 034B     		ldr	r3, .L48
 447 0004 02E0     		b	.L47
 448              	.L45:
 445:.\Generated_Source\PSoC5/Filter.c ****         }
 446:.\Generated_Source\PSoC5/Filter.c ****         else if (channel == Filter_CHANNEL_B)
 449              		.loc 1 446 0
 450 0006 0128     		cmp	r0, #1
 451 0008 01D1     		bne	.L44
 447:.\Generated_Source\PSoC5/Filter.c ****         {
 448:.\Generated_Source\PSoC5/Filter.c ****             Filter_STAGEB16_REG = sample;
 452              		.loc 1 448 0
 453 000a 024B     		ldr	r3, .L48+4
 454              	.L47:
ARM GAS  C:\Users\Luke\AppData\Local\Temp\ccR7nmQ0.s 			page 17


 455 000c 1980     		strh	r1, [r3, #0]	@ movhi
 456              	.L44:
 457 000e 7047     		bx	lr
 458              	.L49:
 459              		.align	2
 460              	.L48:
 461 0010 A1C70040 		.word	1073792929
 462 0014 A5C70040 		.word	1073792933
 463              		.cfi_endproc
 464              	.LFE8:
 465              		.size	Filter_Write16, .-Filter_Write16
 466              		.section	.text.Filter_Write24,"ax",%progbits
 467              		.align	1
 468              		.global	Filter_Write24
 469              		.thumb
 470              		.thumb_func
 471              		.type	Filter_Write24, %function
 472              	Filter_Write24:
 473              	.LFB9:
 449:.\Generated_Source\PSoC5/Filter.c ****         }
 450:.\Generated_Source\PSoC5/Filter.c ****         else
 451:.\Generated_Source\PSoC5/Filter.c **** 		{
 452:.\Generated_Source\PSoC5/Filter.c **** 			/* No value is loaded on bad channel input */
 453:.\Generated_Source\PSoC5/Filter.c **** 		}
 454:.\Generated_Source\PSoC5/Filter.c ****     }
 455:.\Generated_Source\PSoC5/Filter.c **** 
 456:.\Generated_Source\PSoC5/Filter.c **** #endif /* defined(__C51__) || defined(__CX51__) */
 457:.\Generated_Source\PSoC5/Filter.c **** 
 458:.\Generated_Source\PSoC5/Filter.c **** 
 459:.\Generated_Source\PSoC5/Filter.c **** /*******************************************************************************
 460:.\Generated_Source\PSoC5/Filter.c **** * Function Name: Filter_Write24
 461:.\Generated_Source\PSoC5/Filter.c **** ********************************************************************************
 462:.\Generated_Source\PSoC5/Filter.c **** *
 463:.\Generated_Source\PSoC5/Filter.c **** * Summary:
 464:.\Generated_Source\PSoC5/Filter.c **** *  Set the value in one of the DFB Input Staging Registers 
 465:.\Generated_Source\PSoC5/Filter.c **** *
 466:.\Generated_Source\PSoC5/Filter.c **** * Parameters:  
 467:.\Generated_Source\PSoC5/Filter.c **** *  channel:  Use either Filter_CHANNEL_A or 
 468:.\Generated_Source\PSoC5/Filter.c **** *            Filter_CHANNEL_B as arguments to the function.  
 469:.\Generated_Source\PSoC5/Filter.c **** *  sample:   The 24-bit, right justified input sample inside of a uint32. 
 470:.\Generated_Source\PSoC5/Filter.c **** *
 471:.\Generated_Source\PSoC5/Filter.c **** * Return: 
 472:.\Generated_Source\PSoC5/Filter.c **** *  void
 473:.\Generated_Source\PSoC5/Filter.c **** *
 474:.\Generated_Source\PSoC5/Filter.c **** * Note:
 475:.\Generated_Source\PSoC5/Filter.c **** *  Order of the write is important.  On the load of the high byte, the DFB sets
 476:.\Generated_Source\PSoC5/Filter.c **** *  the input ready bit.
 477:.\Generated_Source\PSoC5/Filter.c **** *
 478:.\Generated_Source\PSoC5/Filter.c **** *******************************************************************************/
 479:.\Generated_Source\PSoC5/Filter.c **** #if defined(__C51__) || defined(__CX51__)
 480:.\Generated_Source\PSoC5/Filter.c **** 
 481:.\Generated_Source\PSoC5/Filter.c ****     void Filter_Write24(uint8 channel, uint32 sample) 
 482:.\Generated_Source\PSoC5/Filter.c ****     {
 483:.\Generated_Source\PSoC5/Filter.c ****         /* Write the STAGE LSB reg last as it signals a complete wrote to 
 484:.\Generated_Source\PSoC5/Filter.c ****            the DFB.*/
 485:.\Generated_Source\PSoC5/Filter.c ****         if (channel == Filter_CHANNEL_A)
 486:.\Generated_Source\PSoC5/Filter.c ****         {
ARM GAS  C:\Users\Luke\AppData\Local\Temp\ccR7nmQ0.s 			page 18


 487:.\Generated_Source\PSoC5/Filter.c ****             Filter_STAGEA_REG  = (uint8)(sample);
 488:.\Generated_Source\PSoC5/Filter.c ****             Filter_STAGEAM_REG = (uint8)(sample >> 8u);
 489:.\Generated_Source\PSoC5/Filter.c ****             Filter_STAGEAH_REG = (uint8)(sample >> 16u);
 490:.\Generated_Source\PSoC5/Filter.c ****         }
 491:.\Generated_Source\PSoC5/Filter.c ****         else if (channel == Filter_CHANNEL_B)
 492:.\Generated_Source\PSoC5/Filter.c ****         {
 493:.\Generated_Source\PSoC5/Filter.c ****             Filter_STAGEB_REG = (uint8)(sample);
 494:.\Generated_Source\PSoC5/Filter.c ****             Filter_STAGEBM_REG = (uint8)(sample >> 8u);
 495:.\Generated_Source\PSoC5/Filter.c ****             Filter_STAGEBH_REG = (uint8)(sample >> 16u);
 496:.\Generated_Source\PSoC5/Filter.c ****         }
 497:.\Generated_Source\PSoC5/Filter.c ****         else
 498:.\Generated_Source\PSoC5/Filter.c **** 		{
 499:.\Generated_Source\PSoC5/Filter.c **** 			/* No value is loaded on bad channel input */
 500:.\Generated_Source\PSoC5/Filter.c **** 		}
 501:.\Generated_Source\PSoC5/Filter.c ****     }
 502:.\Generated_Source\PSoC5/Filter.c **** 
 503:.\Generated_Source\PSoC5/Filter.c **** #else
 504:.\Generated_Source\PSoC5/Filter.c **** 
 505:.\Generated_Source\PSoC5/Filter.c ****     void Filter_Write24(uint8 channel, uint32 sample) 
 506:.\Generated_Source\PSoC5/Filter.c ****     {
 474              		.loc 1 506 0
 475              		.cfi_startproc
 476              		@ args = 0, pretend = 0, frame = 0
 477              		@ frame_needed = 0, uses_anonymous_args = 0
 478              		@ link register save eliminated.
 479              	.LVL24:
 507:.\Generated_Source\PSoC5/Filter.c ****         if (channel == Filter_CHANNEL_A)
 480              		.loc 1 507 0
 481 0000 08B9     		cbnz	r0, .L51
 508:.\Generated_Source\PSoC5/Filter.c ****         {
 509:.\Generated_Source\PSoC5/Filter.c ****             Filter_STAGEA24_REG = sample;
 482              		.loc 1 509 0
 483 0002 034B     		ldr	r3, .L54
 484 0004 02E0     		b	.L53
 485              	.L51:
 510:.\Generated_Source\PSoC5/Filter.c ****         }
 511:.\Generated_Source\PSoC5/Filter.c ****         else if (channel == Filter_CHANNEL_B)
 486              		.loc 1 511 0
 487 0006 0128     		cmp	r0, #1
 488 0008 01D1     		bne	.L50
 512:.\Generated_Source\PSoC5/Filter.c ****         {
 513:.\Generated_Source\PSoC5/Filter.c ****             Filter_STAGEB24_REG = sample;
 489              		.loc 1 513 0
 490 000a 024B     		ldr	r3, .L54+4
 491              	.L53:
 492 000c 1960     		str	r1, [r3, #0]
 493              	.L50:
 494 000e 7047     		bx	lr
 495              	.L55:
 496              		.align	2
 497              	.L54:
 498 0010 A0C70040 		.word	1073792928
 499 0014 A4C70040 		.word	1073792932
 500              		.cfi_endproc
 501              	.LFE9:
 502              		.size	Filter_Write24, .-Filter_Write24
 503              		.section	.text.Filter_SetCoherency,"ax",%progbits
ARM GAS  C:\Users\Luke\AppData\Local\Temp\ccR7nmQ0.s 			page 19


 504              		.align	1
 505              		.global	Filter_SetCoherency
 506              		.thumb
 507              		.thumb_func
 508              		.type	Filter_SetCoherency, %function
 509              	Filter_SetCoherency:
 510              	.LFB10:
 514:.\Generated_Source\PSoC5/Filter.c ****         }
 515:.\Generated_Source\PSoC5/Filter.c ****         else
 516:.\Generated_Source\PSoC5/Filter.c **** 		{
 517:.\Generated_Source\PSoC5/Filter.c **** 			/* No value is loaded on bad channel input */
 518:.\Generated_Source\PSoC5/Filter.c **** 		}
 519:.\Generated_Source\PSoC5/Filter.c ****     }
 520:.\Generated_Source\PSoC5/Filter.c **** 
 521:.\Generated_Source\PSoC5/Filter.c **** #endif /* defined(__C51__) || defined(__CX51__) */
 522:.\Generated_Source\PSoC5/Filter.c **** 
 523:.\Generated_Source\PSoC5/Filter.c **** 
 524:.\Generated_Source\PSoC5/Filter.c **** /*******************************************************************************
 525:.\Generated_Source\PSoC5/Filter.c **** * Function Name: Filter_SetCoherency
 526:.\Generated_Source\PSoC5/Filter.c **** ********************************************************************************
 527:.\Generated_Source\PSoC5/Filter.c **** *
 528:.\Generated_Source\PSoC5/Filter.c **** * Summary:
 529:.\Generated_Source\PSoC5/Filter.c **** *  Sets the DFB coherency register with the user provided input 
 530:.\Generated_Source\PSoC5/Filter.c **** *
 531:.\Generated_Source\PSoC5/Filter.c **** * Parameters:  
 532:.\Generated_Source\PSoC5/Filter.c **** *  channel:  Filter_CHANNEL_A or Filter_CHANNEL_B
 533:.\Generated_Source\PSoC5/Filter.c **** *  byteSelect:  High byte, Middle byte or Low byte as the key coherency byte.
 534:.\Generated_Source\PSoC5/Filter.c **** *            
 535:.\Generated_Source\PSoC5/Filter.c **** * Return: 
 536:.\Generated_Source\PSoC5/Filter.c **** *  None.
 537:.\Generated_Source\PSoC5/Filter.c **** *
 538:.\Generated_Source\PSoC5/Filter.c **** *******************************************************************************/
 539:.\Generated_Source\PSoC5/Filter.c **** void Filter_SetCoherency(uint8 channel, uint8 byteSelect) 
 540:.\Generated_Source\PSoC5/Filter.c **** {
 511              		.loc 1 540 0
 512              		.cfi_startproc
 513              		@ args = 0, pretend = 0, frame = 0
 514              		@ frame_needed = 0, uses_anonymous_args = 0
 515              		@ link register save eliminated.
 516              	.LVL25:
 541:.\Generated_Source\PSoC5/Filter.c ****     if (channel == Filter_CHANNEL_A)
 517              		.loc 1 541 0
 518 0000 60B9     		cbnz	r0, .L57
 542:.\Generated_Source\PSoC5/Filter.c ****     {
 543:.\Generated_Source\PSoC5/Filter.c ****         Filter_COHER_REG &= 
 519              		.loc 1 543 0
 520 0002 0F4B     		ldr	r3, .L60
 521 0004 1A78     		ldrb	r2, [r3, #0]	@ zero_extendqisi2
 522 0006 02F0CC00 		and	r0, r2, #204
 523              	.LVL26:
 524 000a 1870     		strb	r0, [r3, #0]
 544:.\Generated_Source\PSoC5/Filter.c ****                 (uint8)(~(uint8)(Filter_STAGEA_COHER_MASK | Filter_HOLDA_COHER_MASK));
 545:.\Generated_Source\PSoC5/Filter.c ****         Filter_COHER_REG |= byteSelect;
 525              		.loc 1 545 0
 526 000c 1A78     		ldrb	r2, [r3, #0]	@ zero_extendqisi2
 527 000e 41EA0200 		orr	r0, r1, r2
 528 0012 1870     		strb	r0, [r3, #0]
ARM GAS  C:\Users\Luke\AppData\Local\Temp\ccR7nmQ0.s 			page 20


 546:.\Generated_Source\PSoC5/Filter.c ****         Filter_COHER_REG |= (uint8)((uint8)byteSelect << 4u);
 529              		.loc 1 546 0
 530 0014 1A78     		ldrb	r2, [r3, #0]	@ zero_extendqisi2
 531 0016 42EA0111 		orr	r1, r2, r1, lsl #4
 532              	.LVL27:
 533 001a 0EE0     		b	.L59
 534              	.LVL28:
 535              	.L57:
 547:.\Generated_Source\PSoC5/Filter.c ****     }
 548:.\Generated_Source\PSoC5/Filter.c ****     else if (channel == Filter_CHANNEL_B)
 536              		.loc 1 548 0
 537 001c 0128     		cmp	r0, #1
 538 001e 0ED1     		bne	.L56
 549:.\Generated_Source\PSoC5/Filter.c ****     {
 550:.\Generated_Source\PSoC5/Filter.c ****         Filter_COHER_REG &= 
 539              		.loc 1 550 0
 540 0020 074B     		ldr	r3, .L60
 541 0022 1A78     		ldrb	r2, [r3, #0]	@ zero_extendqisi2
 542 0024 02F03300 		and	r0, r2, #51
 543              	.LVL29:
 544 0028 1870     		strb	r0, [r3, #0]
 551:.\Generated_Source\PSoC5/Filter.c ****                 (uint8)(~(uint8)(Filter_STAGEB_COHER_MASK | Filter_HOLDB_COHER_MASK));
 552:.\Generated_Source\PSoC5/Filter.c ****         Filter_COHER_REG |= (uint8)((uint8)byteSelect << 2u);
 545              		.loc 1 552 0
 546 002a 1A78     		ldrb	r2, [r3, #0]	@ zero_extendqisi2
 547 002c 42EA8100 		orr	r0, r2, r1, lsl #2
 548 0030 C2B2     		uxtb	r2, r0
 549 0032 1A70     		strb	r2, [r3, #0]
 553:.\Generated_Source\PSoC5/Filter.c ****         Filter_COHER_REG |= (uint8)((uint8)byteSelect << 6u);
 550              		.loc 1 553 0
 551 0034 1878     		ldrb	r0, [r3, #0]	@ zero_extendqisi2
 552 0036 40EA8111 		orr	r1, r0, r1, lsl #6
 553              	.LVL30:
 554              	.L59:
 555 003a C9B2     		uxtb	r1, r1
 556 003c 1970     		strb	r1, [r3, #0]
 557              	.L56:
 558 003e 7047     		bx	lr
 559              	.L61:
 560              		.align	2
 561              	.L60:
 562 0040 B0C70040 		.word	1073792944
 563              		.cfi_endproc
 564              	.LFE10:
 565              		.size	Filter_SetCoherency, .-Filter_SetCoherency
 566              		.global	Filter_initVar
 567              		.bss
 568              		.set	.LANCHOR0,. + 0
 569              		.type	Filter_initVar, %object
 570              		.size	Filter_initVar, 1
 571              	Filter_initVar:
 572 0000 00       		.space	1
 573              		.text
 574              	.Letext0:
 575              		.file 2 ".\\Generated_Source\\PSoC5\\cytypes.h"
 576              		.file 3 ".\\Generated_Source\\PSoC5\\Filter_PVT.h"