ARM GAS  C:\Users\Luke\AppData\Local\Temp\cclD5luS.s 			page 1


   1              		.syntax unified
   2              		.cpu cortex-m3
   3              		.fpu softvfp
   4              		.eabi_attribute 20, 1
   5              		.eabi_attribute 21, 1
   6              		.eabi_attribute 23, 3
   7              		.eabi_attribute 24, 1
   8              		.eabi_attribute 25, 1
   9              		.eabi_attribute 26, 1
  10              		.eabi_attribute 30, 4
  11              		.eabi_attribute 34, 1
  12              		.eabi_attribute 18, 4
  13              		.thumb
  14              		.file	"IDAC8_1_PM.c"
  15              		.text
  16              	.Ltext0:
  17              		.cfi_sections	.debug_frame
  18              		.section	.text.IDAC8_1_SaveConfig,"ax",%progbits
  19              		.align	1
  20              		.global	IDAC8_1_SaveConfig
  21              		.thumb
  22              		.thumb_func
  23              		.type	IDAC8_1_SaveConfig, %function
  24              	IDAC8_1_SaveConfig:
  25              	.LFB0:
  26              		.file 1 ".\\Generated_Source\\PSoC5\\IDAC8_1_PM.c"
   1:.\Generated_Source\PSoC5/IDAC8_1_PM.c **** /*******************************************************************************
   2:.\Generated_Source\PSoC5/IDAC8_1_PM.c **** * File Name: IDAC8_1.c
   3:.\Generated_Source\PSoC5/IDAC8_1_PM.c **** * Version 2.0
   4:.\Generated_Source\PSoC5/IDAC8_1_PM.c **** *
   5:.\Generated_Source\PSoC5/IDAC8_1_PM.c **** * Description:
   6:.\Generated_Source\PSoC5/IDAC8_1_PM.c **** *  This file provides the power management source code to API for the
   7:.\Generated_Source\PSoC5/IDAC8_1_PM.c **** *  IDAC8.
   8:.\Generated_Source\PSoC5/IDAC8_1_PM.c **** *
   9:.\Generated_Source\PSoC5/IDAC8_1_PM.c **** * Note:
  10:.\Generated_Source\PSoC5/IDAC8_1_PM.c **** *  None
  11:.\Generated_Source\PSoC5/IDAC8_1_PM.c **** *
  12:.\Generated_Source\PSoC5/IDAC8_1_PM.c **** ********************************************************************************
  13:.\Generated_Source\PSoC5/IDAC8_1_PM.c **** * Copyright 2008-2012, Cypress Semiconductor Corporation.  All rights reserved.
  14:.\Generated_Source\PSoC5/IDAC8_1_PM.c **** * You may use this file only in accordance with the license, terms, conditions, 
  15:.\Generated_Source\PSoC5/IDAC8_1_PM.c **** * disclaimers, and limitations in the end user license agreement accompanying 
  16:.\Generated_Source\PSoC5/IDAC8_1_PM.c **** * the software package with which this file was provided.
  17:.\Generated_Source\PSoC5/IDAC8_1_PM.c **** *******************************************************************************/
  18:.\Generated_Source\PSoC5/IDAC8_1_PM.c **** 
  19:.\Generated_Source\PSoC5/IDAC8_1_PM.c **** 
  20:.\Generated_Source\PSoC5/IDAC8_1_PM.c **** #include "IDAC8_1.h"
  21:.\Generated_Source\PSoC5/IDAC8_1_PM.c **** 
  22:.\Generated_Source\PSoC5/IDAC8_1_PM.c **** static IDAC8_1_backupStruct IDAC8_1_backup;
  23:.\Generated_Source\PSoC5/IDAC8_1_PM.c **** 
  24:.\Generated_Source\PSoC5/IDAC8_1_PM.c **** 
  25:.\Generated_Source\PSoC5/IDAC8_1_PM.c **** /*******************************************************************************
  26:.\Generated_Source\PSoC5/IDAC8_1_PM.c **** * Function Name: IDAC8_1_SaveConfig
  27:.\Generated_Source\PSoC5/IDAC8_1_PM.c **** ********************************************************************************
  28:.\Generated_Source\PSoC5/IDAC8_1_PM.c **** * Summary:
  29:.\Generated_Source\PSoC5/IDAC8_1_PM.c **** *  Save the current user configuration
  30:.\Generated_Source\PSoC5/IDAC8_1_PM.c **** *
  31:.\Generated_Source\PSoC5/IDAC8_1_PM.c **** * Parameters:
ARM GAS  C:\Users\Luke\AppData\Local\Temp\cclD5luS.s 			page 2


  32:.\Generated_Source\PSoC5/IDAC8_1_PM.c **** *  void
  33:.\Generated_Source\PSoC5/IDAC8_1_PM.c **** *
  34:.\Generated_Source\PSoC5/IDAC8_1_PM.c **** * Return:
  35:.\Generated_Source\PSoC5/IDAC8_1_PM.c **** *  void
  36:.\Generated_Source\PSoC5/IDAC8_1_PM.c **** *
  37:.\Generated_Source\PSoC5/IDAC8_1_PM.c **** *******************************************************************************/
  38:.\Generated_Source\PSoC5/IDAC8_1_PM.c **** void IDAC8_1_SaveConfig(void) 
  39:.\Generated_Source\PSoC5/IDAC8_1_PM.c **** {
  27              		.loc 1 39 0
  28              		.cfi_startproc
  29              		@ args = 0, pretend = 0, frame = 0
  30              		@ frame_needed = 0, uses_anonymous_args = 0
  31              		@ link register save eliminated.
  40:.\Generated_Source\PSoC5/IDAC8_1_PM.c ****     if (!((IDAC8_1_CR1 & IDAC8_1_SRC_MASK) == IDAC8_1_SRC_UDB))
  32              		.loc 1 40 0
  33 0000 054B     		ldr	r3, .L4
  34 0002 1878     		ldrb	r0, [r3, #0]	@ zero_extendqisi2
  35 0004 00F02001 		and	r1, r0, #32
  36 0008 CAB2     		uxtb	r2, r1
  37 000a 1AB9     		cbnz	r2, .L1
  41:.\Generated_Source\PSoC5/IDAC8_1_PM.c ****     {
  42:.\Generated_Source\PSoC5/IDAC8_1_PM.c ****         IDAC8_1_backup.data_value = IDAC8_1_Data;
  38              		.loc 1 42 0
  39 000c 034B     		ldr	r3, .L4+4
  40 000e 0449     		ldr	r1, .L4+8
  41 0010 1878     		ldrb	r0, [r3, #0]	@ zero_extendqisi2
  42 0012 4870     		strb	r0, [r1, #1]
  43              	.L1:
  44 0014 7047     		bx	lr
  45              	.L5:
  46 0016 00BF     		.align	2
  47              	.L4:
  48 0018 21580040 		.word	1073764385
  49 001c 805B0040 		.word	1073765248
  50 0020 00000000 		.word	.LANCHOR0
  51              		.cfi_endproc
  52              	.LFE0:
  53              		.size	IDAC8_1_SaveConfig, .-IDAC8_1_SaveConfig
  54              		.section	.text.IDAC8_1_RestoreConfig,"ax",%progbits
  55              		.align	1
  56              		.global	IDAC8_1_RestoreConfig
  57              		.thumb
  58              		.thumb_func
  59              		.type	IDAC8_1_RestoreConfig, %function
  60              	IDAC8_1_RestoreConfig:
  61              	.LFB1:
  43:.\Generated_Source\PSoC5/IDAC8_1_PM.c ****     }
  44:.\Generated_Source\PSoC5/IDAC8_1_PM.c **** }
  45:.\Generated_Source\PSoC5/IDAC8_1_PM.c **** 
  46:.\Generated_Source\PSoC5/IDAC8_1_PM.c **** 
  47:.\Generated_Source\PSoC5/IDAC8_1_PM.c **** /*******************************************************************************
  48:.\Generated_Source\PSoC5/IDAC8_1_PM.c **** * Function Name: IDAC8_1_RestoreConfig
  49:.\Generated_Source\PSoC5/IDAC8_1_PM.c **** ********************************************************************************
  50:.\Generated_Source\PSoC5/IDAC8_1_PM.c **** *
  51:.\Generated_Source\PSoC5/IDAC8_1_PM.c **** * Summary:
  52:.\Generated_Source\PSoC5/IDAC8_1_PM.c **** *  Restores the current user configuration.
  53:.\Generated_Source\PSoC5/IDAC8_1_PM.c **** *
ARM GAS  C:\Users\Luke\AppData\Local\Temp\cclD5luS.s 			page 3


  54:.\Generated_Source\PSoC5/IDAC8_1_PM.c **** * Parameters:
  55:.\Generated_Source\PSoC5/IDAC8_1_PM.c **** *  void
  56:.\Generated_Source\PSoC5/IDAC8_1_PM.c **** *
  57:.\Generated_Source\PSoC5/IDAC8_1_PM.c **** * Return:
  58:.\Generated_Source\PSoC5/IDAC8_1_PM.c **** *  void
  59:.\Generated_Source\PSoC5/IDAC8_1_PM.c **** *
  60:.\Generated_Source\PSoC5/IDAC8_1_PM.c **** *******************************************************************************/
  61:.\Generated_Source\PSoC5/IDAC8_1_PM.c **** void IDAC8_1_RestoreConfig(void) 
  62:.\Generated_Source\PSoC5/IDAC8_1_PM.c **** {
  62              		.loc 1 62 0
  63              		.cfi_startproc
  64              		@ args = 0, pretend = 0, frame = 0
  65              		@ frame_needed = 0, uses_anonymous_args = 0
  66              		@ link register save eliminated.
  63:.\Generated_Source\PSoC5/IDAC8_1_PM.c ****     if (!((IDAC8_1_CR1 & IDAC8_1_SRC_MASK) == IDAC8_1_SRC_UDB))
  67              		.loc 1 63 0
  68 0000 0D4B     		ldr	r3, .L10
  69 0002 1878     		ldrb	r0, [r3, #0]	@ zero_extendqisi2
  70 0004 00F02001 		and	r1, r0, #32
  71 0008 CAB2     		uxtb	r2, r1
  72 000a A2B9     		cbnz	r2, .L6
  64:.\Generated_Source\PSoC5/IDAC8_1_PM.c ****     {
  65:.\Generated_Source\PSoC5/IDAC8_1_PM.c ****         if((IDAC8_1_Strobe & IDAC8_1_STRB_MASK) == IDAC8_1_STRB_EN)
  73              		.loc 1 65 0
  74 000c 0B4B     		ldr	r3, .L10+4
  75 000e 0C4A     		ldr	r2, .L10+8
  76 0010 1878     		ldrb	r0, [r3, #0]	@ zero_extendqisi2
  77 0012 00F00801 		and	r1, r0, #8
  78 0016 C8B2     		uxtb	r0, r1
  79 0018 50B1     		cbz	r0, .L8
  66:.\Generated_Source\PSoC5/IDAC8_1_PM.c ****         {
  67:.\Generated_Source\PSoC5/IDAC8_1_PM.c ****             IDAC8_1_Strobe &= (uint8)(~IDAC8_1_STRB_MASK);
  80              		.loc 1 67 0
  81 001a 1878     		ldrb	r0, [r3, #0]	@ zero_extendqisi2
  82 001c 00F0F701 		and	r1, r0, #247
  83 0020 1970     		strb	r1, [r3, #0]
  68:.\Generated_Source\PSoC5/IDAC8_1_PM.c ****             IDAC8_1_Data = IDAC8_1_backup.data_value;
  84              		.loc 1 68 0
  85 0022 5078     		ldrb	r0, [r2, #1]	@ zero_extendqisi2
  86 0024 074A     		ldr	r2, .L10+12
  87 0026 1070     		strb	r0, [r2, #0]
  69:.\Generated_Source\PSoC5/IDAC8_1_PM.c ****             IDAC8_1_Strobe |= IDAC8_1_STRB_EN;
  88              		.loc 1 69 0
  89 0028 1978     		ldrb	r1, [r3, #0]	@ zero_extendqisi2
  90 002a 41F00801 		orr	r1, r1, #8
  91 002e 01E0     		b	.L9
  92              	.L8:
  70:.\Generated_Source\PSoC5/IDAC8_1_PM.c ****         }
  71:.\Generated_Source\PSoC5/IDAC8_1_PM.c ****         else
  72:.\Generated_Source\PSoC5/IDAC8_1_PM.c ****         {
  73:.\Generated_Source\PSoC5/IDAC8_1_PM.c ****             IDAC8_1_Data = IDAC8_1_backup.data_value;
  93              		.loc 1 73 0
  94 0030 5178     		ldrb	r1, [r2, #1]	@ zero_extendqisi2
  95 0032 044B     		ldr	r3, .L10+12
  96              	.L9:
  97 0034 1970     		strb	r1, [r3, #0]
  98              	.L6:
ARM GAS  C:\Users\Luke\AppData\Local\Temp\cclD5luS.s 			page 4


  99 0036 7047     		bx	lr
 100              	.L11:
 101              		.align	2
 102              	.L10:
 103 0038 21580040 		.word	1073764385
 104 003c 875A0040 		.word	1073764999
 105 0040 00000000 		.word	.LANCHOR0
 106 0044 805B0040 		.word	1073765248
 107              		.cfi_endproc
 108              	.LFE1:
 109              		.size	IDAC8_1_RestoreConfig, .-IDAC8_1_RestoreConfig
 110              		.section	.text.IDAC8_1_Sleep,"ax",%progbits
 111              		.align	1
 112              		.global	IDAC8_1_Sleep
 113              		.thumb
 114              		.thumb_func
 115              		.type	IDAC8_1_Sleep, %function
 116              	IDAC8_1_Sleep:
 117              	.LFB2:
  74:.\Generated_Source\PSoC5/IDAC8_1_PM.c ****         }
  75:.\Generated_Source\PSoC5/IDAC8_1_PM.c ****     }
  76:.\Generated_Source\PSoC5/IDAC8_1_PM.c **** }
  77:.\Generated_Source\PSoC5/IDAC8_1_PM.c **** 
  78:.\Generated_Source\PSoC5/IDAC8_1_PM.c **** 
  79:.\Generated_Source\PSoC5/IDAC8_1_PM.c **** /*******************************************************************************
  80:.\Generated_Source\PSoC5/IDAC8_1_PM.c **** * Function Name: IDAC8_1_Sleep
  81:.\Generated_Source\PSoC5/IDAC8_1_PM.c **** ********************************************************************************
  82:.\Generated_Source\PSoC5/IDAC8_1_PM.c **** * Summary:
  83:.\Generated_Source\PSoC5/IDAC8_1_PM.c **** *  Stop and Save the user configuration
  84:.\Generated_Source\PSoC5/IDAC8_1_PM.c **** *
  85:.\Generated_Source\PSoC5/IDAC8_1_PM.c **** * Parameters:
  86:.\Generated_Source\PSoC5/IDAC8_1_PM.c **** *  void:
  87:.\Generated_Source\PSoC5/IDAC8_1_PM.c **** *
  88:.\Generated_Source\PSoC5/IDAC8_1_PM.c **** * Return:
  89:.\Generated_Source\PSoC5/IDAC8_1_PM.c **** *  void
  90:.\Generated_Source\PSoC5/IDAC8_1_PM.c **** *
  91:.\Generated_Source\PSoC5/IDAC8_1_PM.c **** * Global variables:
  92:.\Generated_Source\PSoC5/IDAC8_1_PM.c **** *  IDAC8_1_backup.enableState: Is modified depending on the enable 
  93:.\Generated_Source\PSoC5/IDAC8_1_PM.c **** *  state of the block before entering sleep mode.
  94:.\Generated_Source\PSoC5/IDAC8_1_PM.c **** *
  95:.\Generated_Source\PSoC5/IDAC8_1_PM.c **** *******************************************************************************/
  96:.\Generated_Source\PSoC5/IDAC8_1_PM.c **** void IDAC8_1_Sleep(void) 
  97:.\Generated_Source\PSoC5/IDAC8_1_PM.c **** {
 118              		.loc 1 97 0
 119              		.cfi_startproc
 120              		@ args = 0, pretend = 0, frame = 0
 121              		@ frame_needed = 0, uses_anonymous_args = 0
 122 0000 08B5     		push	{r3, lr}
 123              	.LCFI0:
 124              		.cfi_def_cfa_offset 8
 125              		.cfi_offset 3, -8
 126              		.cfi_offset 14, -4
  98:.\Generated_Source\PSoC5/IDAC8_1_PM.c ****     if(IDAC8_1_ACT_PWR_EN == (IDAC8_1_PWRMGR & IDAC8_1_ACT_PWR_EN))
 127              		.loc 1 98 0
 128 0002 074B     		ldr	r3, .L15
 129 0004 0749     		ldr	r1, .L15+4
 130 0006 1878     		ldrb	r0, [r3, #0]	@ zero_extendqisi2
ARM GAS  C:\Users\Luke\AppData\Local\Temp\cclD5luS.s 			page 5


 131 0008 10F00102 		ands	r2, r0, #1
  99:.\Generated_Source\PSoC5/IDAC8_1_PM.c ****     {
 100:.\Generated_Source\PSoC5/IDAC8_1_PM.c ****         /* IDAC8 is enabled */
 101:.\Generated_Source\PSoC5/IDAC8_1_PM.c ****         IDAC8_1_backup.enableState = 1u;
 132              		.loc 1 101 0
 133 000c 18BF     		it	ne
 134 000e 0122     		movne	r2, #1
 102:.\Generated_Source\PSoC5/IDAC8_1_PM.c ****     }
 103:.\Generated_Source\PSoC5/IDAC8_1_PM.c ****     else
 104:.\Generated_Source\PSoC5/IDAC8_1_PM.c ****     {
 105:.\Generated_Source\PSoC5/IDAC8_1_PM.c ****         /* IDAC8 is disabled */
 106:.\Generated_Source\PSoC5/IDAC8_1_PM.c ****         IDAC8_1_backup.enableState = 0u;
 135              		.loc 1 106 0
 136 0010 0A70     		strb	r2, [r1, #0]
 107:.\Generated_Source\PSoC5/IDAC8_1_PM.c ****     }
 108:.\Generated_Source\PSoC5/IDAC8_1_PM.c **** 
 109:.\Generated_Source\PSoC5/IDAC8_1_PM.c ****     IDAC8_1_Stop();
 137              		.loc 1 109 0
 138 0012 FFF7FEFF 		bl	IDAC8_1_Stop
 139              	.LVL0:
 110:.\Generated_Source\PSoC5/IDAC8_1_PM.c ****     IDAC8_1_SaveConfig();
 111:.\Generated_Source\PSoC5/IDAC8_1_PM.c **** }
 140              		.loc 1 111 0
 141 0016 BDE80840 		pop	{r3, lr}
 110:.\Generated_Source\PSoC5/IDAC8_1_PM.c ****     IDAC8_1_SaveConfig();
 142              		.loc 1 110 0
 143 001a FFF7FEBF 		b	IDAC8_1_SaveConfig
 144              	.LVL1:
 145              	.L16:
 146 001e 00BF     		.align	2
 147              	.L15:
 148 0020 A8430040 		.word	1073759144
 149 0024 00000000 		.word	.LANCHOR0
 150              		.cfi_endproc
 151              	.LFE2:
 152              		.size	IDAC8_1_Sleep, .-IDAC8_1_Sleep
 153              		.section	.text.IDAC8_1_Wakeup,"ax",%progbits
 154              		.align	1
 155              		.global	IDAC8_1_Wakeup
 156              		.thumb
 157              		.thumb_func
 158              		.type	IDAC8_1_Wakeup, %function
 159              	IDAC8_1_Wakeup:
 160              	.LFB3:
 112:.\Generated_Source\PSoC5/IDAC8_1_PM.c **** 
 113:.\Generated_Source\PSoC5/IDAC8_1_PM.c **** 
 114:.\Generated_Source\PSoC5/IDAC8_1_PM.c **** /*******************************************************************************
 115:.\Generated_Source\PSoC5/IDAC8_1_PM.c **** * Function Name: IDAC8_1_Wakeup
 116:.\Generated_Source\PSoC5/IDAC8_1_PM.c **** ********************************************************************************
 117:.\Generated_Source\PSoC5/IDAC8_1_PM.c **** *
 118:.\Generated_Source\PSoC5/IDAC8_1_PM.c **** * Summary:
 119:.\Generated_Source\PSoC5/IDAC8_1_PM.c **** *  Restores and enables the user configuration
 120:.\Generated_Source\PSoC5/IDAC8_1_PM.c **** *  
 121:.\Generated_Source\PSoC5/IDAC8_1_PM.c **** * Parameters:
 122:.\Generated_Source\PSoC5/IDAC8_1_PM.c **** *  void
 123:.\Generated_Source\PSoC5/IDAC8_1_PM.c **** *
 124:.\Generated_Source\PSoC5/IDAC8_1_PM.c **** * Return:
ARM GAS  C:\Users\Luke\AppData\Local\Temp\cclD5luS.s 			page 6


 125:.\Generated_Source\PSoC5/IDAC8_1_PM.c **** *  void
 126:.\Generated_Source\PSoC5/IDAC8_1_PM.c **** *
 127:.\Generated_Source\PSoC5/IDAC8_1_PM.c **** * Global variables:
 128:.\Generated_Source\PSoC5/IDAC8_1_PM.c **** *  IDAC8_1_backup.enableState: Is used to restore the enable state of 
 129:.\Generated_Source\PSoC5/IDAC8_1_PM.c **** *  block on wakeup from sleep mode.
 130:.\Generated_Source\PSoC5/IDAC8_1_PM.c **** *
 131:.\Generated_Source\PSoC5/IDAC8_1_PM.c **** *******************************************************************************/
 132:.\Generated_Source\PSoC5/IDAC8_1_PM.c **** void IDAC8_1_Wakeup(void) 
 133:.\Generated_Source\PSoC5/IDAC8_1_PM.c **** {
 161              		.loc 1 133 0
 162              		.cfi_startproc
 163              		@ args = 0, pretend = 0, frame = 0
 164              		@ frame_needed = 0, uses_anonymous_args = 0
 165 0000 08B5     		push	{r3, lr}
 166              	.LCFI1:
 167              		.cfi_def_cfa_offset 8
 168              		.cfi_offset 3, -8
 169              		.cfi_offset 14, -4
 134:.\Generated_Source\PSoC5/IDAC8_1_PM.c ****     IDAC8_1_RestoreConfig();
 170              		.loc 1 134 0
 171 0002 FFF7FEFF 		bl	IDAC8_1_RestoreConfig
 172              	.LVL2:
 135:.\Generated_Source\PSoC5/IDAC8_1_PM.c ****     
 136:.\Generated_Source\PSoC5/IDAC8_1_PM.c ****     if(IDAC8_1_backup.enableState == 1u)
 173              		.loc 1 136 0
 174 0006 064B     		ldr	r3, .L19
 175 0008 1878     		ldrb	r0, [r3, #0]	@ zero_extendqisi2
 176 000a 0128     		cmp	r0, #1
 177 000c 07D1     		bne	.L17
 137:.\Generated_Source\PSoC5/IDAC8_1_PM.c ****     {
 138:.\Generated_Source\PSoC5/IDAC8_1_PM.c ****         /* Enable IDAC8's operation */
 139:.\Generated_Source\PSoC5/IDAC8_1_PM.c ****         IDAC8_1_Enable();
 178              		.loc 1 139 0
 179 000e FFF7FEFF 		bl	IDAC8_1_Enable
 180              	.LVL3:
 140:.\Generated_Source\PSoC5/IDAC8_1_PM.c ****         
 141:.\Generated_Source\PSoC5/IDAC8_1_PM.c ****         /* Set the data register */
 142:.\Generated_Source\PSoC5/IDAC8_1_PM.c ****         IDAC8_1_SetValue(IDAC8_1_Data);
 181              		.loc 1 142 0
 182 0012 0449     		ldr	r1, .L19+4
 183 0014 0878     		ldrb	r0, [r1, #0]	@ zero_extendqisi2
 143:.\Generated_Source\PSoC5/IDAC8_1_PM.c ****     } /* Do nothing if IDAC8 was disabled before */    
 144:.\Generated_Source\PSoC5/IDAC8_1_PM.c **** }
 184              		.loc 1 144 0
 185 0016 BDE80840 		pop	{r3, lr}
 142:.\Generated_Source\PSoC5/IDAC8_1_PM.c ****         IDAC8_1_SetValue(IDAC8_1_Data);
 186              		.loc 1 142 0
 187 001a FFF7FEBF 		b	IDAC8_1_SetValue
 188              	.LVL4:
 189              	.L17:
 190 001e 08BD     		pop	{r3, pc}
 191              	.L20:
 192              		.align	2
 193              	.L19:
 194 0020 00000000 		.word	.LANCHOR0
 195 0024 805B0040 		.word	1073765248
 196              		.cfi_endproc
ARM GAS  C:\Users\Luke\AppData\Local\Temp\cclD5luS.s 			page 7


 197              	.LFE3:
 198              		.size	IDAC8_1_Wakeup, .-IDAC8_1_Wakeup
 199              		.bss
 200              		.set	.LANCHOR0,. + 0
 201              		.type	IDAC8_1_backup, %object
 202              		.size	IDAC8_1_backup, 2
 203              	IDAC8_1_backup:
 204 0000 0000     		.space	2
 205              		.text
 206              	.Letext0:
 207              		.file 2 ".\\Generated_Source\\PSoC5\\cytypes.h"
 208              		.file 3 ".\\Generated_Source\\PSoC5\\IDAC8_1.h"