ARM GAS  C:\Users\Luke\AppData\Local\Temp\ccQe61dv.s 			page 1


   1              		.syntax unified
   2              		.cpu cortex-m3
   3              		.fpu softvfp
   4              		.eabi_attribute 20, 1
   5              		.eabi_attribute 21, 1
   6              		.eabi_attribute 23, 3
   7              		.eabi_attribute 24, 1
   8              		.eabi_attribute 25, 1
   9              		.eabi_attribute 26, 1
  10              		.eabi_attribute 30, 4
  11              		.eabi_attribute 34, 1
  12              		.eabi_attribute 18, 4
  13              		.thumb
  14              		.file	"LCD.c"
  15              		.text
  16              	.Ltext0:
  17              		.cfi_sections	.debug_frame
  18              		.section	.text.LCD_WrCntrlNib,"ax",%progbits
  19              		.align	1
  20              		.thumb
  21              		.thumb_func
  22              		.type	LCD_WrCntrlNib, %function
  23              	LCD_WrCntrlNib:
  24              	.LFB11:
  25              		.file 1 ".\\Generated_Source\\PSoC5\\LCD.c"
   1:.\Generated_Source\PSoC5/LCD.c **** /*******************************************************************************
   2:.\Generated_Source\PSoC5/LCD.c **** * File Name: LCD.c
   3:.\Generated_Source\PSoC5/LCD.c **** * Version 1.90
   4:.\Generated_Source\PSoC5/LCD.c **** *
   5:.\Generated_Source\PSoC5/LCD.c **** * Description:
   6:.\Generated_Source\PSoC5/LCD.c **** *  This file provides source code for the Character LCD component's API.
   7:.\Generated_Source\PSoC5/LCD.c **** *
   8:.\Generated_Source\PSoC5/LCD.c **** * Note:
   9:.\Generated_Source\PSoC5/LCD.c **** *
  10:.\Generated_Source\PSoC5/LCD.c **** ********************************************************************************
  11:.\Generated_Source\PSoC5/LCD.c **** * Copyright 2008-2012, Cypress Semiconductor Corporation.  All rights reserved.
  12:.\Generated_Source\PSoC5/LCD.c **** * You may use this file only in accordance with the license, terms, conditions,
  13:.\Generated_Source\PSoC5/LCD.c **** * disclaimers, and limitations in the end user license agreement accompanying
  14:.\Generated_Source\PSoC5/LCD.c **** * the software package with which this file was provided.
  15:.\Generated_Source\PSoC5/LCD.c **** *******************************************************************************/
  16:.\Generated_Source\PSoC5/LCD.c **** 
  17:.\Generated_Source\PSoC5/LCD.c **** #include "CyLib.h"
  18:.\Generated_Source\PSoC5/LCD.c **** #include "LCD.h"
  19:.\Generated_Source\PSoC5/LCD.c **** 
  20:.\Generated_Source\PSoC5/LCD.c **** 
  21:.\Generated_Source\PSoC5/LCD.c **** static void LCD_WrDatNib(uint8 nibble) ;
  22:.\Generated_Source\PSoC5/LCD.c **** static void LCD_WrCntrlNib(uint8 nibble) ;
  23:.\Generated_Source\PSoC5/LCD.c **** 
  24:.\Generated_Source\PSoC5/LCD.c **** /* Stores the state of conponent. Indicates wherewer component is 
  25:.\Generated_Source\PSoC5/LCD.c **** * in enable state or not.
  26:.\Generated_Source\PSoC5/LCD.c **** */
  27:.\Generated_Source\PSoC5/LCD.c **** uint8 LCD_enableState = 0u;
  28:.\Generated_Source\PSoC5/LCD.c **** 
  29:.\Generated_Source\PSoC5/LCD.c **** uint8 LCD_initVar = 0u;
  30:.\Generated_Source\PSoC5/LCD.c **** 
  31:.\Generated_Source\PSoC5/LCD.c **** 
  32:.\Generated_Source\PSoC5/LCD.c **** /*******************************************************************************
ARM GAS  C:\Users\Luke\AppData\Local\Temp\ccQe61dv.s 			page 2


  33:.\Generated_Source\PSoC5/LCD.c **** * Function Name: LCD_Init
  34:.\Generated_Source\PSoC5/LCD.c **** ********************************************************************************
  35:.\Generated_Source\PSoC5/LCD.c **** *
  36:.\Generated_Source\PSoC5/LCD.c **** * Summary:
  37:.\Generated_Source\PSoC5/LCD.c **** *  Perform initialization required for components normal work.
  38:.\Generated_Source\PSoC5/LCD.c **** *  This function initializes the LCD hardware module as follows:
  39:.\Generated_Source\PSoC5/LCD.c **** *        Enable 4-bit interface
  40:.\Generated_Source\PSoC5/LCD.c **** *        Clear the display
  41:.\Generated_Source\PSoC5/LCD.c **** *        Enable auto cursor increment
  42:.\Generated_Source\PSoC5/LCD.c **** *        Resets the cursor to start position
  43:.\Generated_Source\PSoC5/LCD.c **** *  Also loads custom character set to LCD if it was defined in the customizer.
  44:.\Generated_Source\PSoC5/LCD.c **** *
  45:.\Generated_Source\PSoC5/LCD.c **** * Parameters:
  46:.\Generated_Source\PSoC5/LCD.c **** *  None.
  47:.\Generated_Source\PSoC5/LCD.c **** *
  48:.\Generated_Source\PSoC5/LCD.c **** * Return:
  49:.\Generated_Source\PSoC5/LCD.c **** *  None.
  50:.\Generated_Source\PSoC5/LCD.c **** *
  51:.\Generated_Source\PSoC5/LCD.c **** * Reentrant:
  52:.\Generated_Source\PSoC5/LCD.c **** *  No.
  53:.\Generated_Source\PSoC5/LCD.c **** *
  54:.\Generated_Source\PSoC5/LCD.c **** *******************************************************************************/
  55:.\Generated_Source\PSoC5/LCD.c **** void LCD_Init(void) 
  56:.\Generated_Source\PSoC5/LCD.c **** {
  57:.\Generated_Source\PSoC5/LCD.c ****     /* INIT CODE */
  58:.\Generated_Source\PSoC5/LCD.c ****     CyDelay(40u);                                                        /* Delay 40 ms */
  59:.\Generated_Source\PSoC5/LCD.c ****     LCD_WrCntrlNib(LCD_DISPLAY_8_BIT_INIT);    /* Selects 8-bit mode */
  60:.\Generated_Source\PSoC5/LCD.c ****     CyDelay(5u);                                                         /* Delay 5 ms */
  61:.\Generated_Source\PSoC5/LCD.c ****     LCD_WrCntrlNib(LCD_DISPLAY_8_BIT_INIT);    /* Selects 8-bit mode */
  62:.\Generated_Source\PSoC5/LCD.c ****     CyDelay(15u);                                                        /* Delay 15 ms */
  63:.\Generated_Source\PSoC5/LCD.c ****     LCD_WrCntrlNib(LCD_DISPLAY_8_BIT_INIT);    /* Selects 8-bit mode */
  64:.\Generated_Source\PSoC5/LCD.c ****     CyDelay(1u);                                                         /* Delay 1 ms */
  65:.\Generated_Source\PSoC5/LCD.c ****     LCD_WrCntrlNib(LCD_DISPLAY_4_BIT_INIT);    /* Selects 4-bit mode */
  66:.\Generated_Source\PSoC5/LCD.c ****     CyDelay(5u);                                                         /* Delay 5 ms */
  67:.\Generated_Source\PSoC5/LCD.c **** 
  68:.\Generated_Source\PSoC5/LCD.c ****     LCD_WriteControl(LCD_CURSOR_AUTO_INCR_ON);    /* Incr Cursor After Writes */
  69:.\Generated_Source\PSoC5/LCD.c ****     LCD_WriteControl(LCD_DISPLAY_CURSOR_ON);      /* Turn Display, Cursor ON */
  70:.\Generated_Source\PSoC5/LCD.c ****     LCD_WriteControl(LCD_DISPLAY_2_LINES_5x10);   /* 2 Lines by 5x10 Characters */
  71:.\Generated_Source\PSoC5/LCD.c ****     LCD_WriteControl(LCD_DISPLAY_CURSOR_OFF);     /* Turn Display, Cursor OFF */
  72:.\Generated_Source\PSoC5/LCD.c ****     LCD_WriteControl(LCD_CLEAR_DISPLAY);          /* Clear LCD Screen */
  73:.\Generated_Source\PSoC5/LCD.c ****     LCD_WriteControl(LCD_DISPLAY_ON_CURSOR_OFF);  /* Turn Display ON, Cursor OFF */
  74:.\Generated_Source\PSoC5/LCD.c ****     LCD_WriteControl(LCD_RESET_CURSOR_POSITION);  /* Set Cursor to 0,0 */
  75:.\Generated_Source\PSoC5/LCD.c ****     CyDelay(5u);
  76:.\Generated_Source\PSoC5/LCD.c **** 
  77:.\Generated_Source\PSoC5/LCD.c ****     #if(LCD_CUSTOM_CHAR_SET != LCD_NONE)
  78:.\Generated_Source\PSoC5/LCD.c ****         LCD_LoadCustomFonts(LCD_customFonts);
  79:.\Generated_Source\PSoC5/LCD.c ****     #endif /* LCD_CUSTOM_CHAR_SET != LCD_NONE */
  80:.\Generated_Source\PSoC5/LCD.c **** }
  81:.\Generated_Source\PSoC5/LCD.c **** 
  82:.\Generated_Source\PSoC5/LCD.c **** 
  83:.\Generated_Source\PSoC5/LCD.c **** /*******************************************************************************
  84:.\Generated_Source\PSoC5/LCD.c **** * Function Name: LCD_Enable
  85:.\Generated_Source\PSoC5/LCD.c **** ********************************************************************************
  86:.\Generated_Source\PSoC5/LCD.c **** *
  87:.\Generated_Source\PSoC5/LCD.c **** * Summary:
  88:.\Generated_Source\PSoC5/LCD.c **** *  Turns on the display.
  89:.\Generated_Source\PSoC5/LCD.c **** *
ARM GAS  C:\Users\Luke\AppData\Local\Temp\ccQe61dv.s 			page 3


  90:.\Generated_Source\PSoC5/LCD.c **** * Parameters:
  91:.\Generated_Source\PSoC5/LCD.c **** *  None.
  92:.\Generated_Source\PSoC5/LCD.c **** *
  93:.\Generated_Source\PSoC5/LCD.c **** * Return:
  94:.\Generated_Source\PSoC5/LCD.c **** *  None.
  95:.\Generated_Source\PSoC5/LCD.c **** *
  96:.\Generated_Source\PSoC5/LCD.c **** * Reentrant:
  97:.\Generated_Source\PSoC5/LCD.c **** *  No.
  98:.\Generated_Source\PSoC5/LCD.c **** *
  99:.\Generated_Source\PSoC5/LCD.c **** * Theory:
 100:.\Generated_Source\PSoC5/LCD.c **** *  This finction has no effect when it called first time as
 101:.\Generated_Source\PSoC5/LCD.c **** *  LCD_Init() turns on the LCD.
 102:.\Generated_Source\PSoC5/LCD.c **** *
 103:.\Generated_Source\PSoC5/LCD.c **** *******************************************************************************/
 104:.\Generated_Source\PSoC5/LCD.c **** void LCD_Enable(void) 
 105:.\Generated_Source\PSoC5/LCD.c **** {
 106:.\Generated_Source\PSoC5/LCD.c ****     LCD_DisplayOn();
 107:.\Generated_Source\PSoC5/LCD.c ****     LCD_enableState = 1u;
 108:.\Generated_Source\PSoC5/LCD.c **** }
 109:.\Generated_Source\PSoC5/LCD.c **** 
 110:.\Generated_Source\PSoC5/LCD.c **** 
 111:.\Generated_Source\PSoC5/LCD.c **** /*******************************************************************************
 112:.\Generated_Source\PSoC5/LCD.c **** * Function Name: LCD_Start
 113:.\Generated_Source\PSoC5/LCD.c **** ********************************************************************************
 114:.\Generated_Source\PSoC5/LCD.c **** *
 115:.\Generated_Source\PSoC5/LCD.c **** * Summary:
 116:.\Generated_Source\PSoC5/LCD.c **** *  Perform initialization required for components normal work.
 117:.\Generated_Source\PSoC5/LCD.c **** *  This function initializes the LCD hardware module as follows:
 118:.\Generated_Source\PSoC5/LCD.c **** *        Enable 4-bit interface
 119:.\Generated_Source\PSoC5/LCD.c **** *        Clear the display
 120:.\Generated_Source\PSoC5/LCD.c **** *        Enable auto cursor increment
 121:.\Generated_Source\PSoC5/LCD.c **** *        Resets the cursor to start position
 122:.\Generated_Source\PSoC5/LCD.c **** *  Also loads custom character set to LCD if it was defined in the customizer.
 123:.\Generated_Source\PSoC5/LCD.c **** *  If it was not the first call in this project then it just turns on the
 124:.\Generated_Source\PSoC5/LCD.c **** *  display
 125:.\Generated_Source\PSoC5/LCD.c **** *
 126:.\Generated_Source\PSoC5/LCD.c **** *
 127:.\Generated_Source\PSoC5/LCD.c **** * Parameters:
 128:.\Generated_Source\PSoC5/LCD.c **** *  LCD_initVar - global variable.
 129:.\Generated_Source\PSoC5/LCD.c **** *
 130:.\Generated_Source\PSoC5/LCD.c **** * Return:
 131:.\Generated_Source\PSoC5/LCD.c **** *  LCD_initVar - global variable.
 132:.\Generated_Source\PSoC5/LCD.c **** *
 133:.\Generated_Source\PSoC5/LCD.c **** * Reentrant:
 134:.\Generated_Source\PSoC5/LCD.c **** *  No.
 135:.\Generated_Source\PSoC5/LCD.c **** *
 136:.\Generated_Source\PSoC5/LCD.c **** *******************************************************************************/
 137:.\Generated_Source\PSoC5/LCD.c **** void LCD_Start(void) 
 138:.\Generated_Source\PSoC5/LCD.c **** {
 139:.\Generated_Source\PSoC5/LCD.c ****     /* If not initialized then perform initialization */
 140:.\Generated_Source\PSoC5/LCD.c ****     if(LCD_initVar == 0u)
 141:.\Generated_Source\PSoC5/LCD.c ****     {
 142:.\Generated_Source\PSoC5/LCD.c ****         LCD_Init();
 143:.\Generated_Source\PSoC5/LCD.c ****         LCD_initVar = 1u;
 144:.\Generated_Source\PSoC5/LCD.c ****     }
 145:.\Generated_Source\PSoC5/LCD.c **** 
 146:.\Generated_Source\PSoC5/LCD.c ****     /* Turn on the LCD */
ARM GAS  C:\Users\Luke\AppData\Local\Temp\ccQe61dv.s 			page 4


 147:.\Generated_Source\PSoC5/LCD.c ****     LCD_Enable();
 148:.\Generated_Source\PSoC5/LCD.c **** }
 149:.\Generated_Source\PSoC5/LCD.c **** 
 150:.\Generated_Source\PSoC5/LCD.c **** 
 151:.\Generated_Source\PSoC5/LCD.c **** /*******************************************************************************
 152:.\Generated_Source\PSoC5/LCD.c **** * Function Name: LCD_Stop
 153:.\Generated_Source\PSoC5/LCD.c **** ********************************************************************************
 154:.\Generated_Source\PSoC5/LCD.c **** *
 155:.\Generated_Source\PSoC5/LCD.c **** * Summary:
 156:.\Generated_Source\PSoC5/LCD.c **** *  Turns off the display of the LCD screen.
 157:.\Generated_Source\PSoC5/LCD.c **** *
 158:.\Generated_Source\PSoC5/LCD.c **** * Parameters:
 159:.\Generated_Source\PSoC5/LCD.c **** *  None.
 160:.\Generated_Source\PSoC5/LCD.c **** *
 161:.\Generated_Source\PSoC5/LCD.c **** * Return:
 162:.\Generated_Source\PSoC5/LCD.c **** *  None.
 163:.\Generated_Source\PSoC5/LCD.c **** *
 164:.\Generated_Source\PSoC5/LCD.c **** * Reentrant:
 165:.\Generated_Source\PSoC5/LCD.c **** *  No.
 166:.\Generated_Source\PSoC5/LCD.c **** *
 167:.\Generated_Source\PSoC5/LCD.c **** *******************************************************************************/
 168:.\Generated_Source\PSoC5/LCD.c **** void LCD_Stop(void) 
 169:.\Generated_Source\PSoC5/LCD.c **** {
 170:.\Generated_Source\PSoC5/LCD.c ****     /* Calls LCD Off Macro */
 171:.\Generated_Source\PSoC5/LCD.c ****     LCD_DisplayOff();
 172:.\Generated_Source\PSoC5/LCD.c ****     LCD_enableState = 0u;
 173:.\Generated_Source\PSoC5/LCD.c **** }
 174:.\Generated_Source\PSoC5/LCD.c **** 
 175:.\Generated_Source\PSoC5/LCD.c **** 
 176:.\Generated_Source\PSoC5/LCD.c **** /*******************************************************************************
 177:.\Generated_Source\PSoC5/LCD.c **** *  Function Name: LCD_Position
 178:.\Generated_Source\PSoC5/LCD.c **** ********************************************************************************
 179:.\Generated_Source\PSoC5/LCD.c **** *
 180:.\Generated_Source\PSoC5/LCD.c **** * Summary:
 181:.\Generated_Source\PSoC5/LCD.c **** *  Moves active cursor location to a point specified by the input arguments
 182:.\Generated_Source\PSoC5/LCD.c **** *
 183:.\Generated_Source\PSoC5/LCD.c **** * Parameters:
 184:.\Generated_Source\PSoC5/LCD.c **** *  row:     Specific row of LCD module to be written
 185:.\Generated_Source\PSoC5/LCD.c **** *  column:  Column of LCD module to be written
 186:.\Generated_Source\PSoC5/LCD.c **** *
 187:.\Generated_Source\PSoC5/LCD.c **** * Return:
 188:.\Generated_Source\PSoC5/LCD.c **** *  None.
 189:.\Generated_Source\PSoC5/LCD.c **** *
 190:.\Generated_Source\PSoC5/LCD.c **** * Note:
 191:.\Generated_Source\PSoC5/LCD.c **** *  This only applies for LCD displays which use the 2X40 address mode.
 192:.\Generated_Source\PSoC5/LCD.c **** *  This results in Row 2 offset from row one by 0x28.
 193:.\Generated_Source\PSoC5/LCD.c **** *  When there are more than 2 rows, each row must be fewer than 20 characters.
 194:.\Generated_Source\PSoC5/LCD.c **** *
 195:.\Generated_Source\PSoC5/LCD.c **** *******************************************************************************/
 196:.\Generated_Source\PSoC5/LCD.c **** void LCD_Position(uint8 row, uint8 column) 
 197:.\Generated_Source\PSoC5/LCD.c **** {
 198:.\Generated_Source\PSoC5/LCD.c ****     switch (row)
 199:.\Generated_Source\PSoC5/LCD.c ****     {
 200:.\Generated_Source\PSoC5/LCD.c ****         case (uint8)0:
 201:.\Generated_Source\PSoC5/LCD.c ****             LCD_WriteControl(LCD_ROW_0_START + column);
 202:.\Generated_Source\PSoC5/LCD.c ****             break;
 203:.\Generated_Source\PSoC5/LCD.c ****         case (uint8) 1:
ARM GAS  C:\Users\Luke\AppData\Local\Temp\ccQe61dv.s 			page 5


 204:.\Generated_Source\PSoC5/LCD.c ****             LCD_WriteControl(LCD_ROW_1_START + column);
 205:.\Generated_Source\PSoC5/LCD.c ****             break;
 206:.\Generated_Source\PSoC5/LCD.c ****         case (uint8) 2:
 207:.\Generated_Source\PSoC5/LCD.c ****             LCD_WriteControl(LCD_ROW_2_START + column);
 208:.\Generated_Source\PSoC5/LCD.c ****             break;
 209:.\Generated_Source\PSoC5/LCD.c ****         case (uint8) 3:
 210:.\Generated_Source\PSoC5/LCD.c ****             LCD_WriteControl(LCD_ROW_3_START + column);
 211:.\Generated_Source\PSoC5/LCD.c ****             break;
 212:.\Generated_Source\PSoC5/LCD.c ****         default:
 213:.\Generated_Source\PSoC5/LCD.c ****             /* if default case is hit, invalid row argument was passed.*/
 214:.\Generated_Source\PSoC5/LCD.c ****             break;
 215:.\Generated_Source\PSoC5/LCD.c ****     }
 216:.\Generated_Source\PSoC5/LCD.c **** }
 217:.\Generated_Source\PSoC5/LCD.c **** 
 218:.\Generated_Source\PSoC5/LCD.c **** 
 219:.\Generated_Source\PSoC5/LCD.c **** /*******************************************************************************
 220:.\Generated_Source\PSoC5/LCD.c **** * Function Name: LCD_PrintString
 221:.\Generated_Source\PSoC5/LCD.c **** ********************************************************************************
 222:.\Generated_Source\PSoC5/LCD.c **** *
 223:.\Generated_Source\PSoC5/LCD.c **** * Summary:
 224:.\Generated_Source\PSoC5/LCD.c **** *  Writes a zero terminated string to the LCD.
 225:.\Generated_Source\PSoC5/LCD.c **** *
 226:.\Generated_Source\PSoC5/LCD.c **** * Parameters:
 227:.\Generated_Source\PSoC5/LCD.c **** *  string:  pointer to head of char8 array to be written to the LCD module
 228:.\Generated_Source\PSoC5/LCD.c **** *
 229:.\Generated_Source\PSoC5/LCD.c **** * Return:
 230:.\Generated_Source\PSoC5/LCD.c **** *  None.
 231:.\Generated_Source\PSoC5/LCD.c **** *
 232:.\Generated_Source\PSoC5/LCD.c **** *******************************************************************************/
 233:.\Generated_Source\PSoC5/LCD.c **** void LCD_PrintString(char8 const string[]) 
 234:.\Generated_Source\PSoC5/LCD.c **** {
 235:.\Generated_Source\PSoC5/LCD.c ****     uint8 indexU8 = 1u;
 236:.\Generated_Source\PSoC5/LCD.c ****     char8 current = *string;
 237:.\Generated_Source\PSoC5/LCD.c **** 
 238:.\Generated_Source\PSoC5/LCD.c ****     /* Until null is reached, print next character */
 239:.\Generated_Source\PSoC5/LCD.c ****     while((char8) '\0' != current)
 240:.\Generated_Source\PSoC5/LCD.c ****     {
 241:.\Generated_Source\PSoC5/LCD.c ****         LCD_WriteData((uint8)current);
 242:.\Generated_Source\PSoC5/LCD.c ****         current = string[indexU8];
 243:.\Generated_Source\PSoC5/LCD.c ****         indexU8++;
 244:.\Generated_Source\PSoC5/LCD.c ****     }
 245:.\Generated_Source\PSoC5/LCD.c **** }
 246:.\Generated_Source\PSoC5/LCD.c **** 
 247:.\Generated_Source\PSoC5/LCD.c **** 
 248:.\Generated_Source\PSoC5/LCD.c **** /*******************************************************************************
 249:.\Generated_Source\PSoC5/LCD.c **** *  Function Name: LCD_PutChar
 250:.\Generated_Source\PSoC5/LCD.c **** ********************************************************************************
 251:.\Generated_Source\PSoC5/LCD.c **** *
 252:.\Generated_Source\PSoC5/LCD.c **** * Summary:
 253:.\Generated_Source\PSoC5/LCD.c **** *  Writes a single character to the current cursor position of the LCD module.
 254:.\Generated_Source\PSoC5/LCD.c **** *  Custom character names (_CUSTOM_0 through
 255:.\Generated_Source\PSoC5/LCD.c **** *  _CUSTOM_7) are acceptable as inputs.
 256:.\Generated_Source\PSoC5/LCD.c **** *
 257:.\Generated_Source\PSoC5/LCD.c **** * Parameters:
 258:.\Generated_Source\PSoC5/LCD.c **** *  character:  character to be written to the LCD
 259:.\Generated_Source\PSoC5/LCD.c **** *
 260:.\Generated_Source\PSoC5/LCD.c **** * Return:
ARM GAS  C:\Users\Luke\AppData\Local\Temp\ccQe61dv.s 			page 6


 261:.\Generated_Source\PSoC5/LCD.c **** *  None.
 262:.\Generated_Source\PSoC5/LCD.c **** *
 263:.\Generated_Source\PSoC5/LCD.c **** *******************************************************************************/
 264:.\Generated_Source\PSoC5/LCD.c **** void LCD_PutChar(char8 character) 
 265:.\Generated_Source\PSoC5/LCD.c **** {
 266:.\Generated_Source\PSoC5/LCD.c ****     LCD_WriteData((uint8)character);
 267:.\Generated_Source\PSoC5/LCD.c **** }
 268:.\Generated_Source\PSoC5/LCD.c **** 
 269:.\Generated_Source\PSoC5/LCD.c **** 
 270:.\Generated_Source\PSoC5/LCD.c **** /*******************************************************************************
 271:.\Generated_Source\PSoC5/LCD.c **** *  Function Name: LCD_WriteData
 272:.\Generated_Source\PSoC5/LCD.c **** ********************************************************************************
 273:.\Generated_Source\PSoC5/LCD.c **** *
 274:.\Generated_Source\PSoC5/LCD.c **** * Summary:
 275:.\Generated_Source\PSoC5/LCD.c **** *  Writes a data byte to the LCD module's Data Display RAM.
 276:.\Generated_Source\PSoC5/LCD.c **** *
 277:.\Generated_Source\PSoC5/LCD.c **** * Parameters:
 278:.\Generated_Source\PSoC5/LCD.c **** *  dByte:  byte to be written to LCD module.
 279:.\Generated_Source\PSoC5/LCD.c **** *
 280:.\Generated_Source\PSoC5/LCD.c **** * Return:
 281:.\Generated_Source\PSoC5/LCD.c **** *  None.
 282:.\Generated_Source\PSoC5/LCD.c **** *
 283:.\Generated_Source\PSoC5/LCD.c **** *******************************************************************************/
 284:.\Generated_Source\PSoC5/LCD.c **** void LCD_WriteData(uint8 dByte) 
 285:.\Generated_Source\PSoC5/LCD.c **** {
 286:.\Generated_Source\PSoC5/LCD.c ****     uint8 nibble;
 287:.\Generated_Source\PSoC5/LCD.c **** 
 288:.\Generated_Source\PSoC5/LCD.c ****     LCD_IsReady();
 289:.\Generated_Source\PSoC5/LCD.c ****     nibble = dByte >> LCD_NIBBLE_SHIFT;
 290:.\Generated_Source\PSoC5/LCD.c **** 
 291:.\Generated_Source\PSoC5/LCD.c ****     /* Write high nibble */
 292:.\Generated_Source\PSoC5/LCD.c ****     LCD_WrDatNib(nibble);
 293:.\Generated_Source\PSoC5/LCD.c **** 
 294:.\Generated_Source\PSoC5/LCD.c ****     nibble = dByte & LCD_NIBBLE_MASK;
 295:.\Generated_Source\PSoC5/LCD.c ****     /* Write low nibble */
 296:.\Generated_Source\PSoC5/LCD.c ****     LCD_WrDatNib(nibble);
 297:.\Generated_Source\PSoC5/LCD.c **** }
 298:.\Generated_Source\PSoC5/LCD.c **** 
 299:.\Generated_Source\PSoC5/LCD.c **** 
 300:.\Generated_Source\PSoC5/LCD.c **** /*******************************************************************************
 301:.\Generated_Source\PSoC5/LCD.c **** *  Function Name: LCD_WriteControl
 302:.\Generated_Source\PSoC5/LCD.c **** ********************************************************************************
 303:.\Generated_Source\PSoC5/LCD.c **** *
 304:.\Generated_Source\PSoC5/LCD.c **** * Summary:
 305:.\Generated_Source\PSoC5/LCD.c **** *  Writes a command byte to the LCD module.
 306:.\Generated_Source\PSoC5/LCD.c **** *
 307:.\Generated_Source\PSoC5/LCD.c **** * Parameters:
 308:.\Generated_Source\PSoC5/LCD.c **** *  cByte:   byte to be written to LCD module.
 309:.\Generated_Source\PSoC5/LCD.c **** *
 310:.\Generated_Source\PSoC5/LCD.c **** * Return:
 311:.\Generated_Source\PSoC5/LCD.c **** *  None.
 312:.\Generated_Source\PSoC5/LCD.c **** *
 313:.\Generated_Source\PSoC5/LCD.c **** *******************************************************************************/
 314:.\Generated_Source\PSoC5/LCD.c **** void LCD_WriteControl(uint8 cByte) 
 315:.\Generated_Source\PSoC5/LCD.c **** {
 316:.\Generated_Source\PSoC5/LCD.c ****     uint8 nibble;
 317:.\Generated_Source\PSoC5/LCD.c **** 
ARM GAS  C:\Users\Luke\AppData\Local\Temp\ccQe61dv.s 			page 7


 318:.\Generated_Source\PSoC5/LCD.c ****     LCD_IsReady();
 319:.\Generated_Source\PSoC5/LCD.c **** 
 320:.\Generated_Source\PSoC5/LCD.c ****     nibble = cByte >> LCD_NIBBLE_SHIFT;
 321:.\Generated_Source\PSoC5/LCD.c ****     
 322:.\Generated_Source\PSoC5/LCD.c ****     /* WrCntrlNib(High Nibble) */
 323:.\Generated_Source\PSoC5/LCD.c ****     LCD_WrCntrlNib(nibble);
 324:.\Generated_Source\PSoC5/LCD.c ****     nibble = cByte & LCD_NIBBLE_MASK;
 325:.\Generated_Source\PSoC5/LCD.c **** 
 326:.\Generated_Source\PSoC5/LCD.c ****     /* WrCntrlNib(Low Nibble) */
 327:.\Generated_Source\PSoC5/LCD.c ****     LCD_WrCntrlNib(nibble);
 328:.\Generated_Source\PSoC5/LCD.c **** }
 329:.\Generated_Source\PSoC5/LCD.c **** 
 330:.\Generated_Source\PSoC5/LCD.c **** 
 331:.\Generated_Source\PSoC5/LCD.c **** /*******************************************************************************
 332:.\Generated_Source\PSoC5/LCD.c **** * Function Name: LCD_IsReady
 333:.\Generated_Source\PSoC5/LCD.c **** ********************************************************************************
 334:.\Generated_Source\PSoC5/LCD.c **** *
 335:.\Generated_Source\PSoC5/LCD.c **** * Summary:
 336:.\Generated_Source\PSoC5/LCD.c **** *  Polls LCD until the ready bit is set.
 337:.\Generated_Source\PSoC5/LCD.c **** *
 338:.\Generated_Source\PSoC5/LCD.c **** * Parameters:
 339:.\Generated_Source\PSoC5/LCD.c **** *  None.
 340:.\Generated_Source\PSoC5/LCD.c **** *
 341:.\Generated_Source\PSoC5/LCD.c **** * Return:
 342:.\Generated_Source\PSoC5/LCD.c **** *  None.
 343:.\Generated_Source\PSoC5/LCD.c **** *
 344:.\Generated_Source\PSoC5/LCD.c **** * Note:
 345:.\Generated_Source\PSoC5/LCD.c **** *  Changes pins to High-Z.
 346:.\Generated_Source\PSoC5/LCD.c **** *
 347:.\Generated_Source\PSoC5/LCD.c **** *******************************************************************************/
 348:.\Generated_Source\PSoC5/LCD.c **** void LCD_IsReady(void) 
 349:.\Generated_Source\PSoC5/LCD.c **** {
 350:.\Generated_Source\PSoC5/LCD.c ****     uint8 value;
 351:.\Generated_Source\PSoC5/LCD.c **** 
 352:.\Generated_Source\PSoC5/LCD.c ****     /* Clear the LCD port*/
 353:.\Generated_Source\PSoC5/LCD.c ****     LCD_PORT_DR_REG &= ((uint8)(~LCD_PORT_MASK));
 354:.\Generated_Source\PSoC5/LCD.c **** 
 355:.\Generated_Source\PSoC5/LCD.c ****     /* PSoC4 has a bit different port/pin organization for setting Drive Modes than
 356:.\Generated_Source\PSoC5/LCD.c ****     * PSoC3/5.
 357:.\Generated_Source\PSoC5/LCD.c ****     */
 358:.\Generated_Source\PSoC5/LCD.c ****     #if (CY_PSOC4)
 359:.\Generated_Source\PSoC5/LCD.c ****         
 360:.\Generated_Source\PSoC5/LCD.c ****         /* Mask off data pins to clear old values out */
 361:.\Generated_Source\PSoC5/LCD.c ****         value = LCD_PORT_PC_REG & ((uint32) (~ LCD_DM_DATA_MASK));
 362:.\Generated_Source\PSoC5/LCD.c ****         /* Load in high Z values for data pins, others unchanged */
 363:.\Generated_Source\PSoC5/LCD.c ****         LCD_PORT_PC_REG = value | LCD_HIGH_Z_DATA_DM;
 364:.\Generated_Source\PSoC5/LCD.c **** 
 365:.\Generated_Source\PSoC5/LCD.c ****     #else
 366:.\Generated_Source\PSoC5/LCD.c ****     
 367:.\Generated_Source\PSoC5/LCD.c ****         /* Change Port to High-Z Status on data pins */
 368:.\Generated_Source\PSoC5/LCD.c **** 
 369:.\Generated_Source\PSoC5/LCD.c ****         /* Mask off data pins to clear old values out */
 370:.\Generated_Source\PSoC5/LCD.c ****         value = LCD_PORT_DM0_REG & ((uint8)(~LCD_DATA_MASK));
 371:.\Generated_Source\PSoC5/LCD.c ****         /* Load in high Z values for data pins, others unchanged */
 372:.\Generated_Source\PSoC5/LCD.c ****         LCD_PORT_DM0_REG = value | (LCD_HIGH_Z_DM0 & LCD_DATA_MASK);
 373:.\Generated_Source\PSoC5/LCD.c **** 
 374:.\Generated_Source\PSoC5/LCD.c ****         /* Mask off data pins to clear old values out */
ARM GAS  C:\Users\Luke\AppData\Local\Temp\ccQe61dv.s 			page 8


 375:.\Generated_Source\PSoC5/LCD.c ****         value = LCD_PORT_DM1_REG & ((uint8)(~LCD_DATA_MASK));
 376:.\Generated_Source\PSoC5/LCD.c ****         /* Load in high Z values for data pins, others unchanged */
 377:.\Generated_Source\PSoC5/LCD.c ****         LCD_PORT_DM1_REG = value;
 378:.\Generated_Source\PSoC5/LCD.c **** 
 379:.\Generated_Source\PSoC5/LCD.c ****         /* Mask off data pins to clear old values out */
 380:.\Generated_Source\PSoC5/LCD.c ****         value = LCD_PORT_DM2_REG & ((uint8)(~LCD_DATA_MASK));
 381:.\Generated_Source\PSoC5/LCD.c ****         /* Load in high Z values for data pins, others unchanged */
 382:.\Generated_Source\PSoC5/LCD.c ****         LCD_PORT_DM2_REG = value;
 383:.\Generated_Source\PSoC5/LCD.c ****     
 384:.\Generated_Source\PSoC5/LCD.c ****     #endif /* CY_PSOC4 */
 385:.\Generated_Source\PSoC5/LCD.c ****     
 386:.\Generated_Source\PSoC5/LCD.c ****     /* Make sure RS is low */
 387:.\Generated_Source\PSoC5/LCD.c ****     LCD_PORT_DR_REG &= ((uint8)(~LCD_RS));
 388:.\Generated_Source\PSoC5/LCD.c **** 
 389:.\Generated_Source\PSoC5/LCD.c ****     /* Set R/W high to read */
 390:.\Generated_Source\PSoC5/LCD.c ****     LCD_PORT_DR_REG |= LCD_RW;
 391:.\Generated_Source\PSoC5/LCD.c **** 
 392:.\Generated_Source\PSoC5/LCD.c ****     do
 393:.\Generated_Source\PSoC5/LCD.c ****     {
 394:.\Generated_Source\PSoC5/LCD.c ****         /* 40 ns delay required before rising Enable and 500ns between neighbour Enables */
 395:.\Generated_Source\PSoC5/LCD.c ****         CyDelayUs(0u);
 396:.\Generated_Source\PSoC5/LCD.c **** 
 397:.\Generated_Source\PSoC5/LCD.c ****         /* Set E high */
 398:.\Generated_Source\PSoC5/LCD.c ****         LCD_PORT_DR_REG |= LCD_E;
 399:.\Generated_Source\PSoC5/LCD.c **** 
 400:.\Generated_Source\PSoC5/LCD.c ****         /* 360 ns delay the setup time for data pins */
 401:.\Generated_Source\PSoC5/LCD.c ****         CyDelayUs(1u);
 402:.\Generated_Source\PSoC5/LCD.c **** 
 403:.\Generated_Source\PSoC5/LCD.c ****         /* Get port state */
 404:.\Generated_Source\PSoC5/LCD.c ****         value = LCD_PORT_PS_REG;
 405:.\Generated_Source\PSoC5/LCD.c **** 
 406:.\Generated_Source\PSoC5/LCD.c ****         /* Set enable low */
 407:.\Generated_Source\PSoC5/LCD.c ****         LCD_PORT_DR_REG &= ((uint8)(~LCD_E));
 408:.\Generated_Source\PSoC5/LCD.c **** 
 409:.\Generated_Source\PSoC5/LCD.c ****         /* This gives a true delay between disably Enable bit and poling Ready bit */
 410:.\Generated_Source\PSoC5/LCD.c ****         CyDelayUs(0u);
 411:.\Generated_Source\PSoC5/LCD.c **** 
 412:.\Generated_Source\PSoC5/LCD.c ****         /* Extract ready bit */
 413:.\Generated_Source\PSoC5/LCD.c ****         value &= LCD_READY_BIT;
 414:.\Generated_Source\PSoC5/LCD.c **** 
 415:.\Generated_Source\PSoC5/LCD.c ****         /* Set E high as we in 4-bit interface we need extra oparation */
 416:.\Generated_Source\PSoC5/LCD.c ****         LCD_PORT_DR_REG |= LCD_E;
 417:.\Generated_Source\PSoC5/LCD.c **** 
 418:.\Generated_Source\PSoC5/LCD.c ****         /* 360 ns delay the setup time for data pins */
 419:.\Generated_Source\PSoC5/LCD.c ****         CyDelayUs(1u);
 420:.\Generated_Source\PSoC5/LCD.c **** 
 421:.\Generated_Source\PSoC5/LCD.c ****         /* Set enable low */
 422:.\Generated_Source\PSoC5/LCD.c ****         LCD_PORT_DR_REG &= ((uint8)(~LCD_E));
 423:.\Generated_Source\PSoC5/LCD.c **** 
 424:.\Generated_Source\PSoC5/LCD.c ****         /* Repeat until bit 4 is not zero. */
 425:.\Generated_Source\PSoC5/LCD.c **** 
 426:.\Generated_Source\PSoC5/LCD.c ****     } while (value != 0u);
 427:.\Generated_Source\PSoC5/LCD.c **** 
 428:.\Generated_Source\PSoC5/LCD.c ****     /* Set R/W low to write */
 429:.\Generated_Source\PSoC5/LCD.c ****     LCD_PORT_DR_REG &= ((uint8)(~LCD_RW));
 430:.\Generated_Source\PSoC5/LCD.c **** 
 431:.\Generated_Source\PSoC5/LCD.c ****     /* Clear the LCD port*/
ARM GAS  C:\Users\Luke\AppData\Local\Temp\ccQe61dv.s 			page 9


 432:.\Generated_Source\PSoC5/LCD.c ****     LCD_PORT_DR_REG &= ((uint8)(~LCD_PORT_MASK));
 433:.\Generated_Source\PSoC5/LCD.c **** 
 434:.\Generated_Source\PSoC5/LCD.c ****     #if (CY_PSOC4)
 435:.\Generated_Source\PSoC5/LCD.c ****         
 436:.\Generated_Source\PSoC5/LCD.c ****         /* Mask off data pins to clear old values out */
 437:.\Generated_Source\PSoC5/LCD.c ****         value = LCD_PORT_PC_REG & ((uint32)(~ LCD_DM_DATA_MASK));
 438:.\Generated_Source\PSoC5/LCD.c ****         /* Load in high Z values for data pins, others unchanged */
 439:.\Generated_Source\PSoC5/LCD.c ****         LCD_PORT_PC_REG = value | LCD_STRONG_DATA_DM;
 440:.\Generated_Source\PSoC5/LCD.c **** 
 441:.\Generated_Source\PSoC5/LCD.c ****     #else
 442:.\Generated_Source\PSoC5/LCD.c **** 
 443:.\Generated_Source\PSoC5/LCD.c ****         /* Change Port to Output (Strong) on data pins */
 444:.\Generated_Source\PSoC5/LCD.c ****         /* Mask off data pins to clear high z values out. Configure data pins 
 445:.\Generated_Source\PSoC5/LCD.c ****         * to Strong Drive, others unchanged.
 446:.\Generated_Source\PSoC5/LCD.c ****         */
 447:.\Generated_Source\PSoC5/LCD.c ****         LCD_PORT_DM0_REG &= ((uint8)(~LCD_DATA_MASK));
 448:.\Generated_Source\PSoC5/LCD.c ****         /* Mask off data pins to clear high z values out */
 449:.\Generated_Source\PSoC5/LCD.c ****         value = LCD_PORT_DM1_REG & ((uint8)(~LCD_DATA_MASK));
 450:.\Generated_Source\PSoC5/LCD.c ****         /* Configure data pins to Strong Drive, others unchanged */
 451:.\Generated_Source\PSoC5/LCD.c ****         LCD_PORT_DM1_REG = value | (LCD_STRONG_DM1 & LCD_DATA_MASK);
 452:.\Generated_Source\PSoC5/LCD.c **** 
 453:.\Generated_Source\PSoC5/LCD.c ****         /* Mask off data pins to clear high z values out */
 454:.\Generated_Source\PSoC5/LCD.c ****         value = LCD_PORT_DM2_REG & ((uint8)(~LCD_DATA_MASK));
 455:.\Generated_Source\PSoC5/LCD.c ****         /* Configure data pins to Strong Drive, others unchanged */
 456:.\Generated_Source\PSoC5/LCD.c ****         LCD_PORT_DM2_REG = value | (LCD_STRONG_DM2 & LCD_DATA_MASK);
 457:.\Generated_Source\PSoC5/LCD.c ****     
 458:.\Generated_Source\PSoC5/LCD.c ****     #endif /* CY_PSOC4 */
 459:.\Generated_Source\PSoC5/LCD.c **** }
 460:.\Generated_Source\PSoC5/LCD.c **** 
 461:.\Generated_Source\PSoC5/LCD.c **** 
 462:.\Generated_Source\PSoC5/LCD.c **** /*******************************************************************************
 463:.\Generated_Source\PSoC5/LCD.c **** *  Function Name: LCD_WrDatNib
 464:.\Generated_Source\PSoC5/LCD.c **** ********************************************************************************
 465:.\Generated_Source\PSoC5/LCD.c **** *
 466:.\Generated_Source\PSoC5/LCD.c **** * Summary:
 467:.\Generated_Source\PSoC5/LCD.c **** *  Writes a data nibble to the LCD module.
 468:.\Generated_Source\PSoC5/LCD.c **** *
 469:.\Generated_Source\PSoC5/LCD.c **** * Parameters:
 470:.\Generated_Source\PSoC5/LCD.c **** *  nibble:  byte containing nibble in least significant nibble to be written
 471:.\Generated_Source\PSoC5/LCD.c **** *           to LCD module.
 472:.\Generated_Source\PSoC5/LCD.c **** *
 473:.\Generated_Source\PSoC5/LCD.c **** * Return:
 474:.\Generated_Source\PSoC5/LCD.c **** *  None.
 475:.\Generated_Source\PSoC5/LCD.c **** *
 476:.\Generated_Source\PSoC5/LCD.c **** *******************************************************************************/
 477:.\Generated_Source\PSoC5/LCD.c **** static void LCD_WrDatNib(uint8 nibble) 
 478:.\Generated_Source\PSoC5/LCD.c **** {
 479:.\Generated_Source\PSoC5/LCD.c ****     LCD_IsReady();
 480:.\Generated_Source\PSoC5/LCD.c **** 
 481:.\Generated_Source\PSoC5/LCD.c ****     /* RS shoul be low to select data register */
 482:.\Generated_Source\PSoC5/LCD.c ****     LCD_PORT_DR_REG |= LCD_RS;
 483:.\Generated_Source\PSoC5/LCD.c ****     /* Reset RW for write operation */
 484:.\Generated_Source\PSoC5/LCD.c ****     LCD_PORT_DR_REG &= ((uint8)(~LCD_RW));
 485:.\Generated_Source\PSoC5/LCD.c **** 
 486:.\Generated_Source\PSoC5/LCD.c ****     /* Two following lines of code will provide us with 40ns delay */
 487:.\Generated_Source\PSoC5/LCD.c ****     /* Clear data pins */
 488:.\Generated_Source\PSoC5/LCD.c ****     LCD_PORT_DR_REG &= ((uint8)(~LCD_DATA_MASK));
ARM GAS  C:\Users\Luke\AppData\Local\Temp\ccQe61dv.s 			page 10


 489:.\Generated_Source\PSoC5/LCD.c **** 
 490:.\Generated_Source\PSoC5/LCD.c ****     /* Write in data, bring E high*/
 491:.\Generated_Source\PSoC5/LCD.c ****     #if(0u != LCD_PORT_SHIFT) /* MISRA forbids shift by 0 so need to handle that */
 492:.\Generated_Source\PSoC5/LCD.c ****         LCD_PORT_DR_REG |= 
 493:.\Generated_Source\PSoC5/LCD.c ****             (LCD_E | ((uint8)(((uint8) nibble) << LCD_PORT_SHIFT)));
 494:.\Generated_Source\PSoC5/LCD.c ****     #else
 495:.\Generated_Source\PSoC5/LCD.c ****         LCD_PORT_DR_REG |= (LCD_E | nibble);
 496:.\Generated_Source\PSoC5/LCD.c ****     #endif /* (0u != LCD_PORT_SHIFT) */
 497:.\Generated_Source\PSoC5/LCD.c **** 
 498:.\Generated_Source\PSoC5/LCD.c ****     /* Minimum of 230 ns delay */
 499:.\Generated_Source\PSoC5/LCD.c ****     CyDelayUs(1u);
 500:.\Generated_Source\PSoC5/LCD.c **** 
 501:.\Generated_Source\PSoC5/LCD.c ****     LCD_PORT_DR_REG &= ((uint8)(~LCD_E));
 502:.\Generated_Source\PSoC5/LCD.c **** }
 503:.\Generated_Source\PSoC5/LCD.c **** 
 504:.\Generated_Source\PSoC5/LCD.c **** 
 505:.\Generated_Source\PSoC5/LCD.c **** /*******************************************************************************
 506:.\Generated_Source\PSoC5/LCD.c **** *  Function Name: LCD_WrCntrlNib
 507:.\Generated_Source\PSoC5/LCD.c **** ********************************************************************************
 508:.\Generated_Source\PSoC5/LCD.c **** *
 509:.\Generated_Source\PSoC5/LCD.c **** * Summary:
 510:.\Generated_Source\PSoC5/LCD.c **** *  Writes a control nibble to the LCD module.
 511:.\Generated_Source\PSoC5/LCD.c **** *
 512:.\Generated_Source\PSoC5/LCD.c **** * Parameters:
 513:.\Generated_Source\PSoC5/LCD.c **** *  nibble:  byte containing nibble in least significant nibble to be written
 514:.\Generated_Source\PSoC5/LCD.c **** *           to LCD module.
 515:.\Generated_Source\PSoC5/LCD.c **** *
 516:.\Generated_Source\PSoC5/LCD.c **** * Return:
 517:.\Generated_Source\PSoC5/LCD.c **** *  None.
 518:.\Generated_Source\PSoC5/LCD.c **** *
 519:.\Generated_Source\PSoC5/LCD.c **** *******************************************************************************/
 520:.\Generated_Source\PSoC5/LCD.c **** static void LCD_WrCntrlNib(uint8 nibble) 
 521:.\Generated_Source\PSoC5/LCD.c **** {
  26              		.loc 1 521 0
  27              		.cfi_startproc
  28              		@ args = 0, pretend = 0, frame = 0
  29              		@ frame_needed = 0, uses_anonymous_args = 0
  30              	.LVL0:
  31 0000 10B5     		push	{r4, lr}
  32              	.LCFI0:
  33              		.cfi_def_cfa_offset 8
  34              		.cfi_offset 4, -8
  35              		.cfi_offset 14, -4
 522:.\Generated_Source\PSoC5/LCD.c ****     /* RS and RW shoul be low to select instruction register and  write operation respectively */
 523:.\Generated_Source\PSoC5/LCD.c ****     LCD_PORT_DR_REG &= ((uint8)(~(LCD_RS | LCD_RW)));
  36              		.loc 1 523 0
  37 0002 0B4C     		ldr	r4, .L2
  38 0004 2378     		ldrb	r3, [r4, #0]	@ zero_extendqisi2
  39 0006 03F09F01 		and	r1, r3, #159
  40 000a 2170     		strb	r1, [r4, #0]
 524:.\Generated_Source\PSoC5/LCD.c **** 
 525:.\Generated_Source\PSoC5/LCD.c ****     /* Two following lines of code will give provide ua with 40ns delay */
 526:.\Generated_Source\PSoC5/LCD.c ****     /* Clear data pins */
 527:.\Generated_Source\PSoC5/LCD.c ****     LCD_PORT_DR_REG &= ((uint8)(~LCD_DATA_MASK));
  41              		.loc 1 527 0
  42 000c 2278     		ldrb	r2, [r4, #0]	@ zero_extendqisi2
  43 000e 02F0F003 		and	r3, r2, #240
ARM GAS  C:\Users\Luke\AppData\Local\Temp\ccQe61dv.s 			page 11


  44 0012 2370     		strb	r3, [r4, #0]
 528:.\Generated_Source\PSoC5/LCD.c **** 
 529:.\Generated_Source\PSoC5/LCD.c ****     /* Write control data and set enable signal */
 530:.\Generated_Source\PSoC5/LCD.c ****     #if(0u != LCD_PORT_SHIFT) /* MISRA forbids shift by 0 so need to handle that */
 531:.\Generated_Source\PSoC5/LCD.c ****         LCD_PORT_DR_REG |= 
 532:.\Generated_Source\PSoC5/LCD.c ****             (LCD_E | ((uint8)(((uint8) nibble) << LCD_PORT_SHIFT)));
 533:.\Generated_Source\PSoC5/LCD.c ****     #else
 534:.\Generated_Source\PSoC5/LCD.c ****         LCD_PORT_DR_REG |= (LCD_E | nibble);
  45              		.loc 1 534 0
  46 0014 2178     		ldrb	r1, [r4, #0]	@ zero_extendqisi2
  47 0016 41F01002 		orr	r2, r1, #16
  48 001a 1043     		orrs	r0, r0, r2
  49              	.LVL1:
  50 001c 2070     		strb	r0, [r4, #0]
 535:.\Generated_Source\PSoC5/LCD.c ****     #endif /* (0u != LCD_PORT_SHIFT) */
 536:.\Generated_Source\PSoC5/LCD.c **** 
 537:.\Generated_Source\PSoC5/LCD.c ****     /* Minimum of 230 ns delay */
 538:.\Generated_Source\PSoC5/LCD.c ****     CyDelayUs(1u);
  51              		.loc 1 538 0
  52 001e 0120     		movs	r0, #1
  53 0020 FFF7FEFF 		bl	CyDelayUs
  54              	.LVL2:
 539:.\Generated_Source\PSoC5/LCD.c **** 
 540:.\Generated_Source\PSoC5/LCD.c ****     LCD_PORT_DR_REG &= ((uint8)(~LCD_E));
  55              		.loc 1 540 0
  56 0024 2078     		ldrb	r0, [r4, #0]	@ zero_extendqisi2
  57 0026 00F0EF03 		and	r3, r0, #239
  58 002a 2370     		strb	r3, [r4, #0]
  59 002c 10BD     		pop	{r4, pc}
  60              	.L3:
  61 002e 00BF     		.align	2
  62              	.L2:
  63 0030 20510040 		.word	1073762592
  64              		.cfi_endproc
  65              	.LFE11:
  66              		.size	LCD_WrCntrlNib, .-LCD_WrCntrlNib
  67              		.section	.text.LCD_IsReady,"ax",%progbits
  68              		.align	1
  69              		.global	LCD_IsReady
  70              		.thumb
  71              		.thumb_func
  72              		.type	LCD_IsReady, %function
  73              	LCD_IsReady:
  74              	.LFB9:
 349:.\Generated_Source\PSoC5/LCD.c **** {
  75              		.loc 1 349 0
  76              		.cfi_startproc
  77              		@ args = 0, pretend = 0, frame = 0
  78              		@ frame_needed = 0, uses_anonymous_args = 0
  79 0000 38B5     		push	{r3, r4, r5, lr}
  80              	.LCFI1:
  81              		.cfi_def_cfa_offset 16
  82              		.cfi_offset 3, -16
  83              		.cfi_offset 4, -12
  84              		.cfi_offset 5, -8
  85              		.cfi_offset 14, -4
 353:.\Generated_Source\PSoC5/LCD.c ****     LCD_PORT_DR_REG &= ((uint8)(~LCD_PORT_MASK));
ARM GAS  C:\Users\Luke\AppData\Local\Temp\ccQe61dv.s 			page 12


  86              		.loc 1 353 0
  87 0002 2E4B     		ldr	r3, .L8
 370:.\Generated_Source\PSoC5/LCD.c ****         value = LCD_PORT_DM0_REG & ((uint8)(~LCD_DATA_MASK));
  88              		.loc 1 370 0
  89 0004 2E4C     		ldr	r4, .L8+4
 353:.\Generated_Source\PSoC5/LCD.c ****     LCD_PORT_DR_REG &= ((uint8)(~LCD_PORT_MASK));
  90              		.loc 1 353 0
  91 0006 1A78     		ldrb	r2, [r3, #0]	@ zero_extendqisi2
  92 0008 02F08000 		and	r0, r2, #128
  93 000c C1B2     		uxtb	r1, r0
  94 000e 1970     		strb	r1, [r3, #0]
 370:.\Generated_Source\PSoC5/LCD.c ****         value = LCD_PORT_DM0_REG & ((uint8)(~LCD_DATA_MASK));
  95              		.loc 1 370 0
  96 0010 2578     		ldrb	r5, [r4, #0]	@ zero_extendqisi2
  97              	.LVL3:
  98 0012 05F0F002 		and	r2, r5, #240
 372:.\Generated_Source\PSoC5/LCD.c ****         LCD_PORT_DM0_REG = value | (LCD_HIGH_Z_DM0 & LCD_DATA_MASK);
  99              		.loc 1 372 0
 100 0016 42F00F00 		orr	r0, r2, #15
 101 001a 2070     		strb	r0, [r4, #0]
 375:.\Generated_Source\PSoC5/LCD.c ****         value = LCD_PORT_DM1_REG & ((uint8)(~LCD_DATA_MASK));
 102              		.loc 1 375 0
 103 001c 6178     		ldrb	r1, [r4, #1]	@ zero_extendqisi2
 104 001e 01F0F005 		and	r5, r1, #240
 105              	.LVL4:
 377:.\Generated_Source\PSoC5/LCD.c ****         LCD_PORT_DM1_REG = value;
 106              		.loc 1 377 0
 107 0022 6570     		strb	r5, [r4, #1]
 380:.\Generated_Source\PSoC5/LCD.c ****         value = LCD_PORT_DM2_REG & ((uint8)(~LCD_DATA_MASK));
 108              		.loc 1 380 0
 109 0024 A278     		ldrb	r2, [r4, #2]	@ zero_extendqisi2
 110 0026 02F0F000 		and	r0, r2, #240
 111              	.LVL5:
 382:.\Generated_Source\PSoC5/LCD.c ****         LCD_PORT_DM2_REG = value;
 112              		.loc 1 382 0
 113 002a A070     		strb	r0, [r4, #2]
 387:.\Generated_Source\PSoC5/LCD.c ****     LCD_PORT_DR_REG &= ((uint8)(~LCD_RS));
 114              		.loc 1 387 0
 115 002c 1C78     		ldrb	r4, [r3, #0]	@ zero_extendqisi2
 116 002e 04F0DF01 		and	r1, r4, #223
 117 0032 1970     		strb	r1, [r3, #0]
 390:.\Generated_Source\PSoC5/LCD.c ****     LCD_PORT_DR_REG |= LCD_RW;
 118              		.loc 1 390 0
 119 0034 1D78     		ldrb	r5, [r3, #0]	@ zero_extendqisi2
 120 0036 45F04002 		orr	r2, r5, #64
 121 003a 1A70     		strb	r2, [r3, #0]
 122              	.LVL6:
 123              	.L5:
 398:.\Generated_Source\PSoC5/LCD.c ****         LCD_PORT_DR_REG |= LCD_E;
 124              		.loc 1 398 0 discriminator 1
 125 003c 1F4C     		ldr	r4, .L8
 395:.\Generated_Source\PSoC5/LCD.c ****         CyDelayUs(0u);
 126              		.loc 1 395 0 discriminator 1
 127 003e 0020     		movs	r0, #0
 128 0040 FFF7FEFF 		bl	CyDelayUs
 129              	.LVL7:
 398:.\Generated_Source\PSoC5/LCD.c ****         LCD_PORT_DR_REG |= LCD_E;
ARM GAS  C:\Users\Luke\AppData\Local\Temp\ccQe61dv.s 			page 13


 130              		.loc 1 398 0 discriminator 1
 131 0044 2378     		ldrb	r3, [r4, #0]	@ zero_extendqisi2
 132 0046 43F01000 		orr	r0, r3, #16
 133 004a 2070     		strb	r0, [r4, #0]
 401:.\Generated_Source\PSoC5/LCD.c ****         CyDelayUs(1u);
 134              		.loc 1 401 0 discriminator 1
 135 004c 0120     		movs	r0, #1
 136 004e FFF7FEFF 		bl	CyDelayUs
 137              	.LVL8:
 404:.\Generated_Source\PSoC5/LCD.c ****         value = LCD_PORT_PS_REG;
 138              		.loc 1 404 0 discriminator 1
 139 0052 1C49     		ldr	r1, .L8+8
 410:.\Generated_Source\PSoC5/LCD.c ****         CyDelayUs(0u);
 140              		.loc 1 410 0 discriminator 1
 141 0054 0020     		movs	r0, #0
 404:.\Generated_Source\PSoC5/LCD.c ****         value = LCD_PORT_PS_REG;
 142              		.loc 1 404 0 discriminator 1
 143 0056 0D78     		ldrb	r5, [r1, #0]	@ zero_extendqisi2
 144              	.LVL9:
 407:.\Generated_Source\PSoC5/LCD.c ****         LCD_PORT_DR_REG &= ((uint8)(~LCD_E));
 145              		.loc 1 407 0 discriminator 1
 146 0058 2278     		ldrb	r2, [r4, #0]	@ zero_extendqisi2
 426:.\Generated_Source\PSoC5/LCD.c ****     } while (value != 0u);
 147              		.loc 1 426 0 discriminator 1
 148 005a 05F00805 		and	r5, r5, #8
 149              	.LVL10:
 407:.\Generated_Source\PSoC5/LCD.c ****         LCD_PORT_DR_REG &= ((uint8)(~LCD_E));
 150              		.loc 1 407 0 discriminator 1
 151 005e 02F0EF03 		and	r3, r2, #239
 152 0062 2370     		strb	r3, [r4, #0]
 410:.\Generated_Source\PSoC5/LCD.c ****         CyDelayUs(0u);
 153              		.loc 1 410 0 discriminator 1
 154 0064 FFF7FEFF 		bl	CyDelayUs
 155              	.LVL11:
 416:.\Generated_Source\PSoC5/LCD.c ****         LCD_PORT_DR_REG |= LCD_E;
 156              		.loc 1 416 0 discriminator 1
 157 0068 2078     		ldrb	r0, [r4, #0]	@ zero_extendqisi2
 426:.\Generated_Source\PSoC5/LCD.c ****     } while (value != 0u);
 158              		.loc 1 426 0 discriminator 1
 159 006a EDB2     		uxtb	r5, r5
 416:.\Generated_Source\PSoC5/LCD.c ****         LCD_PORT_DR_REG |= LCD_E;
 160              		.loc 1 416 0 discriminator 1
 161 006c 40F01001 		orr	r1, r0, #16
 162 0070 2170     		strb	r1, [r4, #0]
 419:.\Generated_Source\PSoC5/LCD.c ****         CyDelayUs(1u);
 163              		.loc 1 419 0 discriminator 1
 164 0072 0120     		movs	r0, #1
 165 0074 FFF7FEFF 		bl	CyDelayUs
 166              	.LVL12:
 422:.\Generated_Source\PSoC5/LCD.c ****         LCD_PORT_DR_REG &= ((uint8)(~LCD_E));
 167              		.loc 1 422 0 discriminator 1
 168 0078 2278     		ldrb	r2, [r4, #0]	@ zero_extendqisi2
 169 007a 02F0EF03 		and	r3, r2, #239
 170 007e 2370     		strb	r3, [r4, #0]
 426:.\Generated_Source\PSoC5/LCD.c ****     } while (value != 0u);
 171              		.loc 1 426 0 discriminator 1
 172 0080 002D     		cmp	r5, #0
ARM GAS  C:\Users\Luke\AppData\Local\Temp\ccQe61dv.s 			page 14


 173 0082 DBD1     		bne	.L5
 429:.\Generated_Source\PSoC5/LCD.c ****     LCD_PORT_DR_REG &= ((uint8)(~LCD_RW));
 174              		.loc 1 429 0
 175 0084 2078     		ldrb	r0, [r4, #0]	@ zero_extendqisi2
 176 0086 00F0BF01 		and	r1, r0, #191
 177 008a 2170     		strb	r1, [r4, #0]
 432:.\Generated_Source\PSoC5/LCD.c ****     LCD_PORT_DR_REG &= ((uint8)(~LCD_PORT_MASK));
 178              		.loc 1 432 0
 179 008c 2278     		ldrb	r2, [r4, #0]	@ zero_extendqisi2
 447:.\Generated_Source\PSoC5/LCD.c ****         LCD_PORT_DM0_REG &= ((uint8)(~LCD_DATA_MASK));
 180              		.loc 1 447 0
 181 008e 0C49     		ldr	r1, .L8+4
 432:.\Generated_Source\PSoC5/LCD.c ****     LCD_PORT_DR_REG &= ((uint8)(~LCD_PORT_MASK));
 182              		.loc 1 432 0
 183 0090 02F08003 		and	r3, r2, #128
 184 0094 D8B2     		uxtb	r0, r3
 185 0096 2070     		strb	r0, [r4, #0]
 447:.\Generated_Source\PSoC5/LCD.c ****         LCD_PORT_DM0_REG &= ((uint8)(~LCD_DATA_MASK));
 186              		.loc 1 447 0
 187 0098 0A78     		ldrb	r2, [r1, #0]	@ zero_extendqisi2
 188 009a 02F0F003 		and	r3, r2, #240
 189 009e 0B70     		strb	r3, [r1, #0]
 449:.\Generated_Source\PSoC5/LCD.c ****         value = LCD_PORT_DM1_REG & ((uint8)(~LCD_DATA_MASK));
 190              		.loc 1 449 0
 191 00a0 4878     		ldrb	r0, [r1, #1]	@ zero_extendqisi2
 192              	.LVL13:
 193 00a2 00F0F002 		and	r2, r0, #240
 451:.\Generated_Source\PSoC5/LCD.c ****         LCD_PORT_DM1_REG = value | (LCD_STRONG_DM1 & LCD_DATA_MASK);
 194              		.loc 1 451 0
 195 00a6 42F00F03 		orr	r3, r2, #15
 196 00aa 4B70     		strb	r3, [r1, #1]
 454:.\Generated_Source\PSoC5/LCD.c ****         value = LCD_PORT_DM2_REG & ((uint8)(~LCD_DATA_MASK));
 197              		.loc 1 454 0
 198 00ac 8878     		ldrb	r0, [r1, #2]	@ zero_extendqisi2
 199              	.LVL14:
 200 00ae 00F0F002 		and	r2, r0, #240
 456:.\Generated_Source\PSoC5/LCD.c ****         LCD_PORT_DM2_REG = value | (LCD_STRONG_DM2 & LCD_DATA_MASK);
 201              		.loc 1 456 0
 202 00b2 42F00F03 		orr	r3, r2, #15
 203 00b6 8B70     		strb	r3, [r1, #2]
 454:.\Generated_Source\PSoC5/LCD.c ****         value = LCD_PORT_DM2_REG & ((uint8)(~LCD_DATA_MASK));
 204              		.loc 1 454 0
 205 00b8 38BD     		pop	{r3, r4, r5, pc}
 206              	.L9:
 207 00ba 00BF     		.align	2
 208              	.L8:
 209 00bc 20510040 		.word	1073762592
 210 00c0 22510040 		.word	1073762594
 211 00c4 21510040 		.word	1073762593
 212              		.cfi_endproc
 213              	.LFE9:
 214              		.size	LCD_IsReady, .-LCD_IsReady
 215              		.section	.text.LCD_WriteControl,"ax",%progbits
 216              		.align	1
 217              		.global	LCD_WriteControl
 218              		.thumb
 219              		.thumb_func
ARM GAS  C:\Users\Luke\AppData\Local\Temp\ccQe61dv.s 			page 15


 220              		.type	LCD_WriteControl, %function
 221              	LCD_WriteControl:
 222              	.LFB8:
 315:.\Generated_Source\PSoC5/LCD.c **** {
 223              		.loc 1 315 0
 224              		.cfi_startproc
 225              		@ args = 0, pretend = 0, frame = 0
 226              		@ frame_needed = 0, uses_anonymous_args = 0
 227              	.LVL15:
 228 0000 10B5     		push	{r4, lr}
 229              	.LCFI2:
 230              		.cfi_def_cfa_offset 8
 231              		.cfi_offset 4, -8
 232              		.cfi_offset 14, -4
 315:.\Generated_Source\PSoC5/LCD.c **** {
 233              		.loc 1 315 0
 234 0002 0446     		mov	r4, r0
 318:.\Generated_Source\PSoC5/LCD.c ****     LCD_IsReady();
 235              		.loc 1 318 0
 236 0004 FFF7FEFF 		bl	LCD_IsReady
 237              	.LVL16:
 323:.\Generated_Source\PSoC5/LCD.c ****     LCD_WrCntrlNib(nibble);
 238              		.loc 1 323 0
 239 0008 2009     		lsrs	r0, r4, #4
 240 000a FFF7FEFF 		bl	LCD_WrCntrlNib
 241              	.LVL17:
 327:.\Generated_Source\PSoC5/LCD.c ****     LCD_WrCntrlNib(nibble);
 242              		.loc 1 327 0
 243 000e 04F00F00 		and	r0, r4, #15
 328:.\Generated_Source\PSoC5/LCD.c **** }
 244              		.loc 1 328 0
 245 0012 BDE81040 		pop	{r4, lr}
 327:.\Generated_Source\PSoC5/LCD.c ****     LCD_WrCntrlNib(nibble);
 246              		.loc 1 327 0
 247 0016 FFF7FEBF 		b	LCD_WrCntrlNib
 248              	.LVL18:
 249              		.cfi_endproc
 250              	.LFE8:
 251              		.size	LCD_WriteControl, .-LCD_WriteControl
 252              		.section	.text.LCD_Position,"ax",%progbits
 253              		.align	1
 254              		.global	LCD_Position
 255              		.thumb
 256              		.thumb_func
 257              		.type	LCD_Position, %function
 258              	LCD_Position:
 259              	.LFB4:
 197:.\Generated_Source\PSoC5/LCD.c **** {
 260              		.loc 1 197 0
 261              		.cfi_startproc
 262              		@ args = 0, pretend = 0, frame = 0
 263              		@ frame_needed = 0, uses_anonymous_args = 0
 264              		@ link register save eliminated.
 265              	.LVL19:
 198:.\Generated_Source\PSoC5/LCD.c ****     switch (row)
 266              		.loc 1 198 0
 267 0000 0328     		cmp	r0, #3
ARM GAS  C:\Users\Luke\AppData\Local\Temp\ccQe61dv.s 			page 16


 268 0002 11D8     		bhi	.L11
 269 0004 DFE800F0 		tbb	[pc, r0]
 270              	.L17:
 271 0008 02       		.byte	(.L13-.L17)/2
 272 0009 05       		.byte	(.L14-.L17)/2
 273 000a 08       		.byte	(.L15-.L17)/2
 274 000b 0B       		.byte	(.L16-.L17)/2
 275              		.align	1
 276              	.L13:
 201:.\Generated_Source\PSoC5/LCD.c ****             LCD_WriteControl(LCD_ROW_0_START + column);
 277              		.loc 1 201 0
 278 000c 81F08000 		eor	r0, r1, #128
 279              	.LVL20:
 280 0010 08E0     		b	.L18
 281              	.LVL21:
 282              	.L14:
 204:.\Generated_Source\PSoC5/LCD.c ****             LCD_WriteControl(LCD_ROW_1_START + column);
 283              		.loc 1 204 0
 284 0012 A1F14000 		sub	r0, r1, #64
 285              	.LVL22:
 286 0016 04E0     		b	.L19
 287              	.LVL23:
 288              	.L15:
 207:.\Generated_Source\PSoC5/LCD.c ****             LCD_WriteControl(LCD_ROW_2_START + column);
 289              		.loc 1 207 0
 290 0018 A1F16C00 		sub	r0, r1, #108
 291              	.LVL24:
 292 001c 01E0     		b	.L19
 293              	.LVL25:
 294              	.L16:
 210:.\Generated_Source\PSoC5/LCD.c ****             LCD_WriteControl(LCD_ROW_3_START + column);
 295              		.loc 1 210 0
 296 001e A1F12C00 		sub	r0, r1, #44
 297              	.LVL26:
 298              	.L19:
 299 0022 C0B2     		uxtb	r0, r0
 300              	.L18:
 216:.\Generated_Source\PSoC5/LCD.c **** }
 301              		.loc 1 216 0
 210:.\Generated_Source\PSoC5/LCD.c ****             LCD_WriteControl(LCD_ROW_3_START + column);
 302              		.loc 1 210 0
 303 0024 FFF7FEBF 		b	LCD_WriteControl
 304              	.LVL27:
 305              	.L11:
 306 0028 7047     		bx	lr
 307              		.cfi_endproc
 308              	.LFE4:
 309              		.size	LCD_Position, .-LCD_Position
 310              		.section	.text.LCD_Stop,"ax",%progbits
 311              		.align	1
 312              		.global	LCD_Stop
 313              		.thumb
 314              		.thumb_func
 315              		.type	LCD_Stop, %function
 316              	LCD_Stop:
 317              	.LFB3:
 169:.\Generated_Source\PSoC5/LCD.c **** {
ARM GAS  C:\Users\Luke\AppData\Local\Temp\ccQe61dv.s 			page 17


 318              		.loc 1 169 0
 319              		.cfi_startproc
 320              		@ args = 0, pretend = 0, frame = 0
 321              		@ frame_needed = 0, uses_anonymous_args = 0
 322 0000 08B5     		push	{r3, lr}
 323              	.LCFI3:
 324              		.cfi_def_cfa_offset 8
 325              		.cfi_offset 3, -8
 326              		.cfi_offset 14, -4
 171:.\Generated_Source\PSoC5/LCD.c ****     LCD_DisplayOff();
 327              		.loc 1 171 0
 328 0002 0820     		movs	r0, #8
 329 0004 FFF7FEFF 		bl	LCD_WriteControl
 330              	.LVL28:
 172:.\Generated_Source\PSoC5/LCD.c ****     LCD_enableState = 0u;
 331              		.loc 1 172 0
 332 0008 014B     		ldr	r3, .L21
 333 000a 0022     		movs	r2, #0
 334 000c 1A70     		strb	r2, [r3, #0]
 335 000e 08BD     		pop	{r3, pc}
 336              	.L22:
 337              		.align	2
 338              	.L21:
 339 0010 00000000 		.word	.LANCHOR0
 340              		.cfi_endproc
 341              	.LFE3:
 342              		.size	LCD_Stop, .-LCD_Stop
 343              		.section	.text.LCD_Enable,"ax",%progbits
 344              		.align	1
 345              		.global	LCD_Enable
 346              		.thumb
 347              		.thumb_func
 348              		.type	LCD_Enable, %function
 349              	LCD_Enable:
 350              	.LFB1:
 105:.\Generated_Source\PSoC5/LCD.c **** {
 351              		.loc 1 105 0
 352              		.cfi_startproc
 353              		@ args = 0, pretend = 0, frame = 0
 354              		@ frame_needed = 0, uses_anonymous_args = 0
 355 0000 08B5     		push	{r3, lr}
 356              	.LCFI4:
 357              		.cfi_def_cfa_offset 8
 358              		.cfi_offset 3, -8
 359              		.cfi_offset 14, -4
 106:.\Generated_Source\PSoC5/LCD.c ****     LCD_DisplayOn();
 360              		.loc 1 106 0
 361 0002 0C20     		movs	r0, #12
 362 0004 FFF7FEFF 		bl	LCD_WriteControl
 363              	.LVL29:
 107:.\Generated_Source\PSoC5/LCD.c ****     LCD_enableState = 1u;
 364              		.loc 1 107 0
 365 0008 014B     		ldr	r3, .L24
 366 000a 0122     		movs	r2, #1
 367 000c 1A70     		strb	r2, [r3, #0]
 368 000e 08BD     		pop	{r3, pc}
 369              	.L25:
ARM GAS  C:\Users\Luke\AppData\Local\Temp\ccQe61dv.s 			page 18


 370              		.align	2
 371              	.L24:
 372 0010 00000000 		.word	.LANCHOR0
 373              		.cfi_endproc
 374              	.LFE1:
 375              		.size	LCD_Enable, .-LCD_Enable
 376              		.section	.text.LCD_Init,"ax",%progbits
 377              		.align	1
 378              		.global	LCD_Init
 379              		.thumb
 380              		.thumb_func
 381              		.type	LCD_Init, %function
 382              	LCD_Init:
 383              	.LFB0:
  56:.\Generated_Source\PSoC5/LCD.c **** {
 384              		.loc 1 56 0
 385              		.cfi_startproc
 386              		@ args = 0, pretend = 0, frame = 0
 387              		@ frame_needed = 0, uses_anonymous_args = 0
 388 0000 08B5     		push	{r3, lr}
 389              	.LCFI5:
 390              		.cfi_def_cfa_offset 8
 391              		.cfi_offset 3, -8
 392              		.cfi_offset 14, -4
  58:.\Generated_Source\PSoC5/LCD.c ****     CyDelay(40u);                                                        /* Delay 40 ms */
 393              		.loc 1 58 0
 394 0002 2820     		movs	r0, #40
 395 0004 FFF7FEFF 		bl	CyDelay
 396              	.LVL30:
  59:.\Generated_Source\PSoC5/LCD.c ****     LCD_WrCntrlNib(LCD_DISPLAY_8_BIT_INIT);    /* Selects 8-bit mode */
 397              		.loc 1 59 0
 398 0008 0320     		movs	r0, #3
 399 000a FFF7FEFF 		bl	LCD_WrCntrlNib
 400              	.LVL31:
  60:.\Generated_Source\PSoC5/LCD.c ****     CyDelay(5u);                                                         /* Delay 5 ms */
 401              		.loc 1 60 0
 402 000e 0520     		movs	r0, #5
 403 0010 FFF7FEFF 		bl	CyDelay
 404              	.LVL32:
  61:.\Generated_Source\PSoC5/LCD.c ****     LCD_WrCntrlNib(LCD_DISPLAY_8_BIT_INIT);    /* Selects 8-bit mode */
 405              		.loc 1 61 0
 406 0014 0320     		movs	r0, #3
 407 0016 FFF7FEFF 		bl	LCD_WrCntrlNib
 408              	.LVL33:
  62:.\Generated_Source\PSoC5/LCD.c ****     CyDelay(15u);                                                        /* Delay 15 ms */
 409              		.loc 1 62 0
 410 001a 0F20     		movs	r0, #15
 411 001c FFF7FEFF 		bl	CyDelay
 412              	.LVL34:
  63:.\Generated_Source\PSoC5/LCD.c ****     LCD_WrCntrlNib(LCD_DISPLAY_8_BIT_INIT);    /* Selects 8-bit mode */
 413              		.loc 1 63 0
 414 0020 0320     		movs	r0, #3
 415 0022 FFF7FEFF 		bl	LCD_WrCntrlNib
 416              	.LVL35:
  64:.\Generated_Source\PSoC5/LCD.c ****     CyDelay(1u);                                                         /* Delay 1 ms */
 417              		.loc 1 64 0
 418 0026 0120     		movs	r0, #1
ARM GAS  C:\Users\Luke\AppData\Local\Temp\ccQe61dv.s 			page 19


 419 0028 FFF7FEFF 		bl	CyDelay
 420              	.LVL36:
  65:.\Generated_Source\PSoC5/LCD.c ****     LCD_WrCntrlNib(LCD_DISPLAY_4_BIT_INIT);    /* Selects 4-bit mode */
 421              		.loc 1 65 0
 422 002c 0220     		movs	r0, #2
 423 002e FFF7FEFF 		bl	LCD_WrCntrlNib
 424              	.LVL37:
  66:.\Generated_Source\PSoC5/LCD.c ****     CyDelay(5u);                                                         /* Delay 5 ms */
 425              		.loc 1 66 0
 426 0032 0520     		movs	r0, #5
 427 0034 FFF7FEFF 		bl	CyDelay
 428              	.LVL38:
  68:.\Generated_Source\PSoC5/LCD.c ****     LCD_WriteControl(LCD_CURSOR_AUTO_INCR_ON);    /* Incr Cursor After Writes */
 429              		.loc 1 68 0
 430 0038 0620     		movs	r0, #6
 431 003a FFF7FEFF 		bl	LCD_WriteControl
 432              	.LVL39:
  69:.\Generated_Source\PSoC5/LCD.c ****     LCD_WriteControl(LCD_DISPLAY_CURSOR_ON);      /* Turn Display, Cursor ON */
 433              		.loc 1 69 0
 434 003e 0E20     		movs	r0, #14
 435 0040 FFF7FEFF 		bl	LCD_WriteControl
 436              	.LVL40:
  70:.\Generated_Source\PSoC5/LCD.c ****     LCD_WriteControl(LCD_DISPLAY_2_LINES_5x10);   /* 2 Lines by 5x10 Characters */
 437              		.loc 1 70 0
 438 0044 2C20     		movs	r0, #44
 439 0046 FFF7FEFF 		bl	LCD_WriteControl
 440              	.LVL41:
  71:.\Generated_Source\PSoC5/LCD.c ****     LCD_WriteControl(LCD_DISPLAY_CURSOR_OFF);     /* Turn Display, Cursor OFF */
 441              		.loc 1 71 0
 442 004a 0820     		movs	r0, #8
 443 004c FFF7FEFF 		bl	LCD_WriteControl
 444              	.LVL42:
  72:.\Generated_Source\PSoC5/LCD.c ****     LCD_WriteControl(LCD_CLEAR_DISPLAY);          /* Clear LCD Screen */
 445              		.loc 1 72 0
 446 0050 0120     		movs	r0, #1
 447 0052 FFF7FEFF 		bl	LCD_WriteControl
 448              	.LVL43:
  73:.\Generated_Source\PSoC5/LCD.c ****     LCD_WriteControl(LCD_DISPLAY_ON_CURSOR_OFF);  /* Turn Display ON, Cursor OFF */
 449              		.loc 1 73 0
 450 0056 0C20     		movs	r0, #12
 451 0058 FFF7FEFF 		bl	LCD_WriteControl
 452              	.LVL44:
  74:.\Generated_Source\PSoC5/LCD.c ****     LCD_WriteControl(LCD_RESET_CURSOR_POSITION);  /* Set Cursor to 0,0 */
 453              		.loc 1 74 0
 454 005c 0320     		movs	r0, #3
 455 005e FFF7FEFF 		bl	LCD_WriteControl
 456              	.LVL45:
  75:.\Generated_Source\PSoC5/LCD.c ****     CyDelay(5u);
 457              		.loc 1 75 0
 458 0062 0520     		movs	r0, #5
  80:.\Generated_Source\PSoC5/LCD.c **** }
 459              		.loc 1 80 0
 460 0064 BDE80840 		pop	{r3, lr}
  75:.\Generated_Source\PSoC5/LCD.c ****     CyDelay(5u);
 461              		.loc 1 75 0
 462 0068 FFF7FEBF 		b	CyDelay
 463              	.LVL46:
ARM GAS  C:\Users\Luke\AppData\Local\Temp\ccQe61dv.s 			page 20


 464              		.cfi_endproc
 465              	.LFE0:
 466              		.size	LCD_Init, .-LCD_Init
 467              		.section	.text.LCD_Start,"ax",%progbits
 468              		.align	1
 469              		.global	LCD_Start
 470              		.thumb
 471              		.thumb_func
 472              		.type	LCD_Start, %function
 473              	LCD_Start:
 474              	.LFB2:
 138:.\Generated_Source\PSoC5/LCD.c **** {
 475              		.loc 1 138 0
 476              		.cfi_startproc
 477              		@ args = 0, pretend = 0, frame = 0
 478              		@ frame_needed = 0, uses_anonymous_args = 0
 479 0000 10B5     		push	{r4, lr}
 480              	.LCFI6:
 481              		.cfi_def_cfa_offset 8
 482              		.cfi_offset 4, -8
 483              		.cfi_offset 14, -4
 140:.\Generated_Source\PSoC5/LCD.c ****     if(LCD_initVar == 0u)
 484              		.loc 1 140 0
 485 0002 054C     		ldr	r4, .L29
 486 0004 6378     		ldrb	r3, [r4, #1]	@ zero_extendqisi2
 487 0006 1BB9     		cbnz	r3, .L28
 142:.\Generated_Source\PSoC5/LCD.c ****         LCD_Init();
 488              		.loc 1 142 0
 489 0008 FFF7FEFF 		bl	LCD_Init
 490              	.LVL47:
 143:.\Generated_Source\PSoC5/LCD.c ****         LCD_initVar = 1u;
 491              		.loc 1 143 0
 492 000c 0120     		movs	r0, #1
 493 000e 6070     		strb	r0, [r4, #1]
 494              	.L28:
 148:.\Generated_Source\PSoC5/LCD.c **** }
 495              		.loc 1 148 0
 496 0010 BDE81040 		pop	{r4, lr}
 147:.\Generated_Source\PSoC5/LCD.c ****     LCD_Enable();
 497              		.loc 1 147 0
 498 0014 FFF7FEBF 		b	LCD_Enable
 499              	.LVL48:
 500              	.L30:
 501              		.align	2
 502              	.L29:
 503 0018 00000000 		.word	.LANCHOR0
 504              		.cfi_endproc
 505              	.LFE2:
 506              		.size	LCD_Start, .-LCD_Start
 507              		.section	.text.LCD_WrDatNib,"ax",%progbits
 508              		.align	1
 509              		.thumb
 510              		.thumb_func
 511              		.type	LCD_WrDatNib, %function
 512              	LCD_WrDatNib:
 513              	.LFB10:
 478:.\Generated_Source\PSoC5/LCD.c **** {
ARM GAS  C:\Users\Luke\AppData\Local\Temp\ccQe61dv.s 			page 21


 514              		.loc 1 478 0
 515              		.cfi_startproc
 516              		@ args = 0, pretend = 0, frame = 0
 517              		@ frame_needed = 0, uses_anonymous_args = 0
 518              	.LVL49:
 519 0000 38B5     		push	{r3, r4, r5, lr}
 520              	.LCFI7:
 521              		.cfi_def_cfa_offset 16
 522              		.cfi_offset 3, -16
 523              		.cfi_offset 4, -12
 524              		.cfi_offset 5, -8
 525              		.cfi_offset 14, -4
 482:.\Generated_Source\PSoC5/LCD.c ****     LCD_PORT_DR_REG |= LCD_RS;
 526              		.loc 1 482 0
 527 0002 0E4C     		ldr	r4, .L32
 478:.\Generated_Source\PSoC5/LCD.c **** {
 528              		.loc 1 478 0
 529 0004 0546     		mov	r5, r0
 479:.\Generated_Source\PSoC5/LCD.c ****     LCD_IsReady();
 530              		.loc 1 479 0
 531 0006 FFF7FEFF 		bl	LCD_IsReady
 532              	.LVL50:
 482:.\Generated_Source\PSoC5/LCD.c ****     LCD_PORT_DR_REG |= LCD_RS;
 533              		.loc 1 482 0
 534 000a 2378     		ldrb	r3, [r4, #0]	@ zero_extendqisi2
 535 000c 43F02000 		orr	r0, r3, #32
 536 0010 2070     		strb	r0, [r4, #0]
 484:.\Generated_Source\PSoC5/LCD.c ****     LCD_PORT_DR_REG &= ((uint8)(~LCD_RW));
 537              		.loc 1 484 0
 538 0012 2178     		ldrb	r1, [r4, #0]	@ zero_extendqisi2
 539 0014 01F0BF02 		and	r2, r1, #191
 540 0018 2270     		strb	r2, [r4, #0]
 488:.\Generated_Source\PSoC5/LCD.c ****     LCD_PORT_DR_REG &= ((uint8)(~LCD_DATA_MASK));
 541              		.loc 1 488 0
 542 001a 2378     		ldrb	r3, [r4, #0]	@ zero_extendqisi2
 543 001c 03F0F000 		and	r0, r3, #240
 544 0020 2070     		strb	r0, [r4, #0]
 495:.\Generated_Source\PSoC5/LCD.c ****         LCD_PORT_DR_REG |= (LCD_E | nibble);
 545              		.loc 1 495 0
 546 0022 2178     		ldrb	r1, [r4, #0]	@ zero_extendqisi2
 499:.\Generated_Source\PSoC5/LCD.c ****     CyDelayUs(1u);
 547              		.loc 1 499 0
 548 0024 0120     		movs	r0, #1
 495:.\Generated_Source\PSoC5/LCD.c ****         LCD_PORT_DR_REG |= (LCD_E | nibble);
 549              		.loc 1 495 0
 550 0026 41F01002 		orr	r2, r1, #16
 551 002a 1543     		orrs	r5, r5, r2
 552 002c 2570     		strb	r5, [r4, #0]
 499:.\Generated_Source\PSoC5/LCD.c ****     CyDelayUs(1u);
 553              		.loc 1 499 0
 554 002e FFF7FEFF 		bl	CyDelayUs
 555              	.LVL51:
 501:.\Generated_Source\PSoC5/LCD.c ****     LCD_PORT_DR_REG &= ((uint8)(~LCD_E));
 556              		.loc 1 501 0
 557 0032 2378     		ldrb	r3, [r4, #0]	@ zero_extendqisi2
 558 0034 03F0EF00 		and	r0, r3, #239
 559 0038 2070     		strb	r0, [r4, #0]
ARM GAS  C:\Users\Luke\AppData\Local\Temp\ccQe61dv.s 			page 22


 560 003a 38BD     		pop	{r3, r4, r5, pc}
 561              	.L33:
 562              		.align	2
 563              	.L32:
 564 003c 20510040 		.word	1073762592
 565              		.cfi_endproc
 566              	.LFE10:
 567              		.size	LCD_WrDatNib, .-LCD_WrDatNib
 568              		.section	.text.LCD_WriteData,"ax",%progbits
 569              		.align	1
 570              		.global	LCD_WriteData
 571              		.thumb
 572              		.thumb_func
 573              		.type	LCD_WriteData, %function
 574              	LCD_WriteData:
 575              	.LFB7:
 285:.\Generated_Source\PSoC5/LCD.c **** {
 576              		.loc 1 285 0
 577              		.cfi_startproc
 578              		@ args = 0, pretend = 0, frame = 0
 579              		@ frame_needed = 0, uses_anonymous_args = 0
 580              	.LVL52:
 581 0000 10B5     		push	{r4, lr}
 582              	.LCFI8:
 583              		.cfi_def_cfa_offset 8
 584              		.cfi_offset 4, -8
 585              		.cfi_offset 14, -4
 285:.\Generated_Source\PSoC5/LCD.c **** {
 586              		.loc 1 285 0
 587 0002 0446     		mov	r4, r0
 288:.\Generated_Source\PSoC5/LCD.c ****     LCD_IsReady();
 588              		.loc 1 288 0
 589 0004 FFF7FEFF 		bl	LCD_IsReady
 590              	.LVL53:
 292:.\Generated_Source\PSoC5/LCD.c ****     LCD_WrDatNib(nibble);
 591              		.loc 1 292 0
 592 0008 2009     		lsrs	r0, r4, #4
 593 000a FFF7FEFF 		bl	LCD_WrDatNib
 594              	.LVL54:
 296:.\Generated_Source\PSoC5/LCD.c ****     LCD_WrDatNib(nibble);
 595              		.loc 1 296 0
 596 000e 04F00F00 		and	r0, r4, #15
 297:.\Generated_Source\PSoC5/LCD.c **** }
 597              		.loc 1 297 0
 598 0012 BDE81040 		pop	{r4, lr}
 296:.\Generated_Source\PSoC5/LCD.c ****     LCD_WrDatNib(nibble);
 599              		.loc 1 296 0
 600 0016 FFF7FEBF 		b	LCD_WrDatNib
 601              	.LVL55:
 602              		.cfi_endproc
 603              	.LFE7:
 604              		.size	LCD_WriteData, .-LCD_WriteData
 605              		.section	.text.LCD_PutChar,"ax",%progbits
 606              		.align	1
 607              		.global	LCD_PutChar
 608              		.thumb
 609              		.thumb_func
ARM GAS  C:\Users\Luke\AppData\Local\Temp\ccQe61dv.s 			page 23


 610              		.type	LCD_PutChar, %function
 611              	LCD_PutChar:
 612              	.LFB6:
 265:.\Generated_Source\PSoC5/LCD.c **** {
 613              		.loc 1 265 0
 614              		.cfi_startproc
 615              		@ args = 0, pretend = 0, frame = 0
 616              		@ frame_needed = 0, uses_anonymous_args = 0
 617              		@ link register save eliminated.
 618              	.LVL56:
 267:.\Generated_Source\PSoC5/LCD.c **** }
 619              		.loc 1 267 0
 266:.\Generated_Source\PSoC5/LCD.c ****     LCD_WriteData((uint8)character);
 620              		.loc 1 266 0
 621 0000 FFF7FEBF 		b	LCD_WriteData
 622              	.LVL57:
 623              		.cfi_endproc
 624              	.LFE6:
 625              		.size	LCD_PutChar, .-LCD_PutChar
 626              		.section	.text.LCD_PrintString,"ax",%progbits
 627              		.align	1
 628              		.global	LCD_PrintString
 629              		.thumb
 630              		.thumb_func
 631              		.type	LCD_PrintString, %function
 632              	LCD_PrintString:
 633              	.LFB5:
 234:.\Generated_Source\PSoC5/LCD.c **** {
 634              		.loc 1 234 0
 635              		.cfi_startproc
 636              		@ args = 0, pretend = 0, frame = 0
 637              		@ frame_needed = 0, uses_anonymous_args = 0
 638              	.LVL58:
 639 0000 38B5     		push	{r3, r4, r5, lr}
 640              	.LCFI9:
 641              		.cfi_def_cfa_offset 16
 642              		.cfi_offset 3, -16
 643              		.cfi_offset 4, -12
 644              		.cfi_offset 5, -8
 645              		.cfi_offset 14, -4
 234:.\Generated_Source\PSoC5/LCD.c **** {
 646              		.loc 1 234 0
 647 0002 0546     		mov	r5, r0
 236:.\Generated_Source\PSoC5/LCD.c ****     char8 current = *string;
 648              		.loc 1 236 0
 649 0004 0078     		ldrb	r0, [r0, #0]	@ zero_extendqisi2
 650              	.LVL59:
 235:.\Generated_Source\PSoC5/LCD.c ****     uint8 indexU8 = 1u;
 651              		.loc 1 235 0
 652 0006 0124     		movs	r4, #1
 653              	.LVL60:
 654              	.L37:
 239:.\Generated_Source\PSoC5/LCD.c ****     while((char8) '\0' != current)
 655              		.loc 1 239 0 discriminator 1
 656 0008 28B1     		cbz	r0, .L39
 657              	.L38:
 241:.\Generated_Source\PSoC5/LCD.c ****         LCD_WriteData((uint8)current);
ARM GAS  C:\Users\Luke\AppData\Local\Temp\ccQe61dv.s 			page 24


 658              		.loc 1 241 0
 659 000a FFF7FEFF 		bl	LCD_WriteData
 660              	.LVL61:
 242:.\Generated_Source\PSoC5/LCD.c ****         current = string[indexU8];
 661              		.loc 1 242 0
 662 000e 285D     		ldrb	r0, [r5, r4]	@ zero_extendqisi2
 663              	.LVL62:
 243:.\Generated_Source\PSoC5/LCD.c ****         indexU8++;
 664              		.loc 1 243 0
 665 0010 0134     		adds	r4, r4, #1
 666              	.LVL63:
 667 0012 E4B2     		uxtb	r4, r4
 668              	.LVL64:
 669 0014 F8E7     		b	.L37
 670              	.L39:
 245:.\Generated_Source\PSoC5/LCD.c **** }
 671              		.loc 1 245 0
 672 0016 38BD     		pop	{r3, r4, r5, pc}
 673              		.cfi_endproc
 674              	.LFE5:
 675              		.size	LCD_PrintString, .-LCD_PrintString
 676              		.section	.text.LCD_PrintInt8,"ax",%progbits
 677              		.align	1
 678              		.global	LCD_PrintInt8
 679              		.thumb
 680              		.thumb_func
 681              		.type	LCD_PrintInt8, %function
 682              	LCD_PrintInt8:
 683              	.LFB12:
 541:.\Generated_Source\PSoC5/LCD.c **** }
 542:.\Generated_Source\PSoC5/LCD.c **** 
 543:.\Generated_Source\PSoC5/LCD.c **** 
 544:.\Generated_Source\PSoC5/LCD.c **** #if(LCD_CONVERSION_ROUTINES == 1u)
 545:.\Generated_Source\PSoC5/LCD.c **** 
 546:.\Generated_Source\PSoC5/LCD.c ****     /*******************************************************************************
 547:.\Generated_Source\PSoC5/LCD.c ****     *  Function Name: LCD_PrintInt8
 548:.\Generated_Source\PSoC5/LCD.c ****     ********************************************************************************
 549:.\Generated_Source\PSoC5/LCD.c ****     *
 550:.\Generated_Source\PSoC5/LCD.c ****     * Summary:
 551:.\Generated_Source\PSoC5/LCD.c ****     *  Print a byte as two ASCII characters.
 552:.\Generated_Source\PSoC5/LCD.c ****     *
 553:.\Generated_Source\PSoC5/LCD.c ****     * Parameters:
 554:.\Generated_Source\PSoC5/LCD.c ****     *  value:  The byte to be printed out as ASCII characters.
 555:.\Generated_Source\PSoC5/LCD.c ****     *
 556:.\Generated_Source\PSoC5/LCD.c ****     * Return:
 557:.\Generated_Source\PSoC5/LCD.c ****     *  None.
 558:.\Generated_Source\PSoC5/LCD.c ****     *
 559:.\Generated_Source\PSoC5/LCD.c ****     *******************************************************************************/
 560:.\Generated_Source\PSoC5/LCD.c ****     void LCD_PrintInt8(uint8 value) 
 561:.\Generated_Source\PSoC5/LCD.c ****     {
 684              		.loc 1 561 0
 685              		.cfi_startproc
 686              		@ args = 0, pretend = 0, frame = 0
 687              		@ frame_needed = 0, uses_anonymous_args = 0
 688              	.LVL65:
 689 0000 38B5     		push	{r3, r4, r5, lr}
 690              	.LCFI10:
ARM GAS  C:\Users\Luke\AppData\Local\Temp\ccQe61dv.s 			page 25


 691              		.cfi_def_cfa_offset 16
 692              		.cfi_offset 3, -16
 693              		.cfi_offset 4, -12
 694              		.cfi_offset 5, -8
 695              		.cfi_offset 14, -4
 562:.\Generated_Source\PSoC5/LCD.c ****         static char8 const CYCODE LCD_hex[16u] = "0123456789ABCDEF";
 563:.\Generated_Source\PSoC5/LCD.c ****         
 564:.\Generated_Source\PSoC5/LCD.c ****         LCD_PutChar((char8) LCD_hex[value >> LCD_BYTE_UPPER_NIBBLE_SHIFT]);
 696              		.loc 1 564 0
 697 0002 064C     		ldr	r4, .L41
 698 0004 0309     		lsrs	r3, r0, #4
 561:.\Generated_Source\PSoC5/LCD.c ****     {
 699              		.loc 1 561 0
 700 0006 0546     		mov	r5, r0
 701              	.LBB6:
 702              	.LBB7:
 266:.\Generated_Source\PSoC5/LCD.c ****     LCD_WriteData((uint8)character);
 703              		.loc 1 266 0
 704 0008 E05C     		ldrb	r0, [r4, r3]	@ zero_extendqisi2
 705              	.LVL66:
 706 000a FFF7FEFF 		bl	LCD_WriteData
 707              	.LVL67:
 708              	.LBE7:
 709              	.LBE6:
 565:.\Generated_Source\PSoC5/LCD.c ****         LCD_PutChar((char8) LCD_hex[value & LCD_BYTE_LOWER_NIBBLE_MASK]);
 710              		.loc 1 565 0
 711 000e 05F00F05 		and	r5, r5, #15
 712              	.LVL68:
 713              	.LBB8:
 714              	.LBB9:
 266:.\Generated_Source\PSoC5/LCD.c ****     LCD_WriteData((uint8)character);
 715              		.loc 1 266 0
 716 0012 605D     		ldrb	r0, [r4, r5]	@ zero_extendqisi2
 717              	.LBE9:
 718              	.LBE8:
 566:.\Generated_Source\PSoC5/LCD.c ****     }
 719              		.loc 1 566 0
 720 0014 BDE83840 		pop	{r3, r4, r5, lr}
 721              	.LBB11:
 722              	.LBB10:
 266:.\Generated_Source\PSoC5/LCD.c ****     LCD_WriteData((uint8)character);
 723              		.loc 1 266 0
 724 0018 FFF7FEBF 		b	LCD_WriteData
 725              	.LVL69:
 726              	.L42:
 727              		.align	2
 728              	.L41:
 729 001c 00000000 		.word	.LANCHOR1
 730              	.LBE10:
 731              	.LBE11:
 732              		.cfi_endproc
 733              	.LFE12:
 734              		.size	LCD_PrintInt8, .-LCD_PrintInt8
 735              		.section	.text.LCD_PrintInt16,"ax",%progbits
 736              		.align	1
 737              		.global	LCD_PrintInt16
 738              		.thumb
ARM GAS  C:\Users\Luke\AppData\Local\Temp\ccQe61dv.s 			page 26


 739              		.thumb_func
 740              		.type	LCD_PrintInt16, %function
 741              	LCD_PrintInt16:
 742              	.LFB13:
 567:.\Generated_Source\PSoC5/LCD.c **** 
 568:.\Generated_Source\PSoC5/LCD.c **** 
 569:.\Generated_Source\PSoC5/LCD.c ****     /*******************************************************************************
 570:.\Generated_Source\PSoC5/LCD.c ****     *  Function Name: LCD_PrintInt16
 571:.\Generated_Source\PSoC5/LCD.c ****     ********************************************************************************
 572:.\Generated_Source\PSoC5/LCD.c ****     *
 573:.\Generated_Source\PSoC5/LCD.c ****     * Summary:
 574:.\Generated_Source\PSoC5/LCD.c ****     *  Print a uint16 as four ASCII characters.
 575:.\Generated_Source\PSoC5/LCD.c ****     *
 576:.\Generated_Source\PSoC5/LCD.c ****     * Parameters:
 577:.\Generated_Source\PSoC5/LCD.c ****     *  value:   The uint16 to be printed out as ASCII characters.
 578:.\Generated_Source\PSoC5/LCD.c ****     *
 579:.\Generated_Source\PSoC5/LCD.c ****     * Return:
 580:.\Generated_Source\PSoC5/LCD.c ****     *  None.
 581:.\Generated_Source\PSoC5/LCD.c ****     *
 582:.\Generated_Source\PSoC5/LCD.c ****     *******************************************************************************/
 583:.\Generated_Source\PSoC5/LCD.c ****     void LCD_PrintInt16(uint16 value) 
 584:.\Generated_Source\PSoC5/LCD.c ****     {
 743              		.loc 1 584 0
 744              		.cfi_startproc
 745              		@ args = 0, pretend = 0, frame = 0
 746              		@ frame_needed = 0, uses_anonymous_args = 0
 747              	.LVL70:
 748 0000 10B5     		push	{r4, lr}
 749              	.LCFI11:
 750              		.cfi_def_cfa_offset 8
 751              		.cfi_offset 4, -8
 752              		.cfi_offset 14, -4
 753              		.loc 1 584 0
 754 0002 0446     		mov	r4, r0
 585:.\Generated_Source\PSoC5/LCD.c ****         LCD_PrintInt8((uint8)(value >> LCD_U16_UPPER_BYTE_SHIFT));
 755              		.loc 1 585 0
 756 0004 000A     		lsrs	r0, r0, #8
 757              	.LVL71:
 758 0006 FFF7FEFF 		bl	LCD_PrintInt8
 759              	.LVL72:
 586:.\Generated_Source\PSoC5/LCD.c ****         LCD_PrintInt8((uint8)(value & LCD_U16_LOWER_BYTE_MASK));
 760              		.loc 1 586 0
 761 000a E0B2     		uxtb	r0, r4
 587:.\Generated_Source\PSoC5/LCD.c ****     }
 762              		.loc 1 587 0
 763 000c BDE81040 		pop	{r4, lr}
 586:.\Generated_Source\PSoC5/LCD.c ****         LCD_PrintInt8((uint8)(value & LCD_U16_LOWER_BYTE_MASK));
 764              		.loc 1 586 0
 765 0010 FFF7FEBF 		b	LCD_PrintInt8
 766              	.LVL73:
 767              		.cfi_endproc
 768              	.LFE13:
 769              		.size	LCD_PrintInt16, .-LCD_PrintInt16
 770              		.section	.text.LCD_PrintNumber,"ax",%progbits
 771              		.align	1
 772              		.global	LCD_PrintNumber
 773              		.thumb
ARM GAS  C:\Users\Luke\AppData\Local\Temp\ccQe61dv.s 			page 27


 774              		.thumb_func
 775              		.type	LCD_PrintNumber, %function
 776              	LCD_PrintNumber:
 777              	.LFB14:
 588:.\Generated_Source\PSoC5/LCD.c **** 
 589:.\Generated_Source\PSoC5/LCD.c **** 
 590:.\Generated_Source\PSoC5/LCD.c ****     /*******************************************************************************
 591:.\Generated_Source\PSoC5/LCD.c ****     *  Function Name: LCD_PrintNumber
 592:.\Generated_Source\PSoC5/LCD.c ****     ********************************************************************************
 593:.\Generated_Source\PSoC5/LCD.c ****     *
 594:.\Generated_Source\PSoC5/LCD.c ****     * Summary:
 595:.\Generated_Source\PSoC5/LCD.c ****     *  Print an uint32 value as a left-justified decimal value.
 596:.\Generated_Source\PSoC5/LCD.c ****     *
 597:.\Generated_Source\PSoC5/LCD.c ****     * Parameters:
 598:.\Generated_Source\PSoC5/LCD.c ****     *  value:  The byte to be printed out as ASCII characters.
 599:.\Generated_Source\PSoC5/LCD.c ****     *
 600:.\Generated_Source\PSoC5/LCD.c ****     * Return:
 601:.\Generated_Source\PSoC5/LCD.c ****     *  None.
 602:.\Generated_Source\PSoC5/LCD.c ****     *
 603:.\Generated_Source\PSoC5/LCD.c ****     *******************************************************************************/
 604:.\Generated_Source\PSoC5/LCD.c ****     void LCD_PrintNumber(uint16 value) 
 605:.\Generated_Source\PSoC5/LCD.c ****     {
 778              		.loc 1 605 0
 779              		.cfi_startproc
 780              		@ args = 0, pretend = 0, frame = 16
 781              		@ frame_needed = 0, uses_anonymous_args = 0
 782              	.LVL74:
 783 0000 7FB5     		push	{r0, r1, r2, r3, r4, r5, r6, lr}
 784              	.LCFI12:
 785              		.cfi_def_cfa_offset 32
 786              		.cfi_offset 0, -32
 787              		.cfi_offset 1, -28
 788              		.cfi_offset 2, -24
 789              		.cfi_offset 3, -20
 790              		.cfi_offset 4, -16
 791              		.cfi_offset 5, -12
 792              		.cfi_offset 6, -8
 793              		.cfi_offset 14, -4
 606:.\Generated_Source\PSoC5/LCD.c **** 
 607:.\Generated_Source\PSoC5/LCD.c ****         char8 number[LCD_NUMBER_OF_REMAINDERS];
 608:.\Generated_Source\PSoC5/LCD.c ****         char8 temp[LCD_NUMBER_OF_REMAINDERS];
 609:.\Generated_Source\PSoC5/LCD.c **** 
 610:.\Generated_Source\PSoC5/LCD.c ****         uint8 digIndex = 0u;
 794              		.loc 1 610 0
 795 0002 0023     		movs	r3, #0
 796              	.LVL75:
 797              	.L45:
 798 0004 04A9     		add	r1, sp, #16
 611:.\Generated_Source\PSoC5/LCD.c ****         uint8 numDigits;
 612:.\Generated_Source\PSoC5/LCD.c **** 
 613:.\Generated_Source\PSoC5/LCD.c ****         /* Load these in reverse order */
 614:.\Generated_Source\PSoC5/LCD.c ****         while(value >= LCD_TEN)
 799              		.loc 1 614 0 discriminator 1
 800 0006 0928     		cmp	r0, #9
 801 0008 01EB0304 		add	r4, r1, r3
 802 000c 4FF00A02 		mov	r2, #10
 803 0010 0AD9     		bls	.L49
ARM GAS  C:\Users\Luke\AppData\Local\Temp\ccQe61dv.s 			page 28


 804              	.L46:
 615:.\Generated_Source\PSoC5/LCD.c ****         {
 616:.\Generated_Source\PSoC5/LCD.c ****             temp[digIndex] = (value % LCD_TEN) + '0';
 805              		.loc 1 616 0
 806 0012 B0FBF2F5 		udiv	r5, r0, r2
 807 0016 02FB1506 		mls	r6, r2, r5, r0
 808 001a 3036     		adds	r6, r6, #48
 809 001c 04F8086C 		strb	r6, [r4, #-8]
 617:.\Generated_Source\PSoC5/LCD.c ****             value /= LCD_TEN;
 618:.\Generated_Source\PSoC5/LCD.c ****             digIndex++;
 810              		.loc 1 618 0
 811 0020 5C1C     		adds	r4, r3, #1
 617:.\Generated_Source\PSoC5/LCD.c ****             value /= LCD_TEN;
 812              		.loc 1 617 0
 813 0022 A8B2     		uxth	r0, r5
 814              	.LVL76:
 815              		.loc 1 618 0
 816 0024 E3B2     		uxtb	r3, r4
 817              	.LVL77:
 818 0026 EDE7     		b	.L45
 819              	.LVL78:
 820              	.L49:
 619:.\Generated_Source\PSoC5/LCD.c ****         }
 620:.\Generated_Source\PSoC5/LCD.c **** 
 621:.\Generated_Source\PSoC5/LCD.c ****         temp[digIndex] = (value % LCD_TEN) + '0';
 821              		.loc 1 621 0
 822 0028 B0FBF2F6 		udiv	r6, r0, r2
 823 002c 02FB1600 		mls	r0, r2, r6, r0
 824              	.LVL79:
 825 0030 3030     		adds	r0, r0, #48
 614:.\Generated_Source\PSoC5/LCD.c ****         while(value >= LCD_TEN)
 826              		.loc 1 614 0
 827 0032 1D46     		mov	r5, r3
 828              		.loc 1 621 0
 829 0034 1946     		mov	r1, r3
 830 0036 04F8080C 		strb	r0, [r4, #-8]
 831              	.LVL80:
 832              	.L47:
 622:.\Generated_Source\PSoC5/LCD.c ****         numDigits = digIndex;
 623:.\Generated_Source\PSoC5/LCD.c **** 
 624:.\Generated_Source\PSoC5/LCD.c ****         /* While index is greater than or equal to zero copy number
 625:.\Generated_Source\PSoC5/LCD.c ****         * from temporary array to number[].
 626:.\Generated_Source\PSoC5/LCD.c ****         */
 627:.\Generated_Source\PSoC5/LCD.c ****         while (digIndex != 0u)
 833              		.loc 1 627 0 discriminator 1
 834 003a 53B1     		cbz	r3, .L50
 835              	.L48:
 628:.\Generated_Source\PSoC5/LCD.c ****         {
 629:.\Generated_Source\PSoC5/LCD.c ****             number[numDigits - digIndex] = temp[digIndex];
 836              		.loc 1 629 0
 837 003c 04AC     		add	r4, sp, #16
 838 003e E018     		adds	r0, r4, r3
 839 0040 CA1A     		subs	r2, r1, r3
 840 0042 10F8080C 		ldrb	r0, [r0, #-8]	@ zero_extendqisi2
 841 0046 A218     		adds	r2, r4, r2
 630:.\Generated_Source\PSoC5/LCD.c ****             digIndex--;
 842              		.loc 1 630 0
ARM GAS  C:\Users\Luke\AppData\Local\Temp\ccQe61dv.s 			page 29


 843 0048 013B     		subs	r3, r3, #1
 844              	.LVL81:
 629:.\Generated_Source\PSoC5/LCD.c ****             number[numDigits - digIndex] = temp[digIndex];
 845              		.loc 1 629 0
 846 004a 02F8100C 		strb	r0, [r2, #-16]
 847              		.loc 1 630 0
 848 004e DBB2     		uxtb	r3, r3
 849              	.LVL82:
 850 0050 F3E7     		b	.L47
 851              	.L50:
 631:.\Generated_Source\PSoC5/LCD.c ****         }
 632:.\Generated_Source\PSoC5/LCD.c ****         
 633:.\Generated_Source\PSoC5/LCD.c ****         /* Copy last digit */
 634:.\Generated_Source\PSoC5/LCD.c ****         number[numDigits] = temp[0u];
 852              		.loc 1 634 0
 853 0052 04A8     		add	r0, sp, #16
 854 0054 9DF80820 		ldrb	r2, [sp, #8]	@ zero_extendqisi2
 855 0058 4118     		adds	r1, r0, r1
 856              	.LVL83:
 635:.\Generated_Source\PSoC5/LCD.c **** 
 636:.\Generated_Source\PSoC5/LCD.c ****         /* Null Termination */
 637:.\Generated_Source\PSoC5/LCD.c ****         number[numDigits + 1u] = (char8) '\0';
 857              		.loc 1 637 0
 858 005a 4019     		adds	r0, r0, r5
 634:.\Generated_Source\PSoC5/LCD.c ****         number[numDigits] = temp[0u];
 859              		.loc 1 634 0
 860 005c 01F8102C 		strb	r2, [r1, #-16]
 861              		.loc 1 637 0
 862 0060 00F80F3C 		strb	r3, [r0, #-15]
 638:.\Generated_Source\PSoC5/LCD.c **** 
 639:.\Generated_Source\PSoC5/LCD.c ****         /* Print out number */
 640:.\Generated_Source\PSoC5/LCD.c ****         LCD_PrintString(&number[0u]);
 863              		.loc 1 640 0
 864 0064 6846     		mov	r0, sp
 865 0066 FFF7FEFF 		bl	LCD_PrintString
 866              	.LVL84:
 641:.\Generated_Source\PSoC5/LCD.c ****     }
 867              		.loc 1 641 0
 868 006a 7FBD     		pop	{r0, r1, r2, r3, r4, r5, r6, pc}
 869              		.cfi_endproc
 870              	.LFE14:
 871              		.size	LCD_PrintNumber, .-LCD_PrintNumber
 872              		.global	LCD_initVar
 873              		.global	LCD_enableState
 874              		.section	.rodata
 875              		.set	.LANCHOR1,. + 0
 876              		.type	LCD_hex.4828, %object
 877              		.size	LCD_hex.4828, 16
 878              	LCD_hex.4828:
 879 0000 30313233 		.ascii	"0123456789ABCDEF"
 879      34353637 
 879      38394142 
 879      43444546 
 880              		.bss
 881              		.set	.LANCHOR0,. + 0
 882              		.type	LCD_enableState, %object
 883              		.size	LCD_enableState, 1
ARM GAS  C:\Users\Luke\AppData\Local\Temp\ccQe61dv.s 			page 30


 884              	LCD_enableState:
 885 0000 00       		.space	1
 886              		.type	LCD_initVar, %object
 887              		.size	LCD_initVar, 1
 888              	LCD_initVar:
 889 0001 00       		.space	1
 890              		.text
 891              	.Letext0:
 892              		.file 2 ".\\Generated_Source\\PSoC5\\cytypes.h"
 893              		.file 3 ".\\Generated_Source\\PSoC5\\CyLib.h"