ARM GAS  C:\Users\Luke\AppData\Local\Temp\cc9oaS4c.s 			page 1


   1              		.syntax unified
   2              		.cpu cortex-m3
   3              		.fpu softvfp
   4              		.eabi_attribute 20, 1
   5              		.eabi_attribute 21, 1
   6              		.eabi_attribute 23, 3
   7              		.eabi_attribute 24, 1
   8              		.eabi_attribute 25, 1
   9              		.eabi_attribute 26, 1
  10              		.eabi_attribute 30, 4
  11              		.eabi_attribute 34, 1
  12              		.eabi_attribute 18, 4
  13              		.thumb
  14              		.file	"main.c"
  15              		.text
  16              	.Ltext0:
  17              		.cfi_sections	.debug_frame
  18              		.section	.text.faultISR,"ax",%progbits
  19              		.align	1
  20              		.global	faultISR
  21              		.thumb
  22              		.thumb_func
  23              		.type	faultISR, %function
  24              	faultISR:
  25              	.LFB57:
  26              		.file 1 ".\\main.c"
   1:.\main.c      **** /*******************************************************************************
   2:.\main.c      **** * File Name: main.c
   3:.\main.c      **** *
   4:.\main.c      **** * Version: 1.10
   5:.\main.c      **** *
   6:.\main.c      **** ********************************************************************************
   7:.\main.c      **** * Copyright 2012, Cypress Semiconductor Corporation. All rights reserved.
   8:.\main.c      **** * This software is owned by Cypress Semiconductor Corporation and is protected
   9:.\main.c      **** * by and subject to worldwide patent and copyright laws and treaties.
  10:.\main.c      **** * Therefore, you may use this software only as provided in the license agreement
  11:.\main.c      **** * accompanying the software package from which you obtained this software.
  12:.\main.c      **** * CYPRESS AND ITS SUPPLIERS MAKE NO WARRANTY OF ANY KIND, EXPRESS OR IMPLIED,
  13:.\main.c      **** * WITH REGARD TO THIS SOFTWARE, INCLUDING, BUT NOT LIMITED TO, NONINFRINGEMENT,
  14:.\main.c      **** * IMPLIED WARRANTIES OF MERCHANTABILITY AND FITNESS FOR A PARTICULAR PURPOSE.
  15:.\main.c      **** *******************************************************************************/
  16:.\main.c      **** 
  17:.\main.c      **** #include <device.h>
  18:.\main.c      **** #include <stdint.h>
  19:.\main.c      **** #include <stdio.h>
  20:.\main.c      **** #include <VDAC8.h>
  21:.\main.c      **** #include <math.h>
  22:.\main.c      **** #include "pid.h"
  23:.\main.c      **** #include "cli.h"
  24:.\main.c      **** 
  25:.\main.c      **** #define REQUEST_PER_BURST        (1u)
  26:.\main.c      **** #define BYTES_PER_BURST          (1u)
  27:.\main.c      **** #define UPPER_SRC_ADDRESS        CYDEV_PERIPH_BASE
  28:.\main.c      **** #define UPPER_DEST_ADDRESS       CYDEV_PERIPH_BASE
  29:.\main.c      **** 
  30:.\main.c      **** void DMA_Config(void);
  31:.\main.c      **** float calc_temperature(int32_t adc_input);
ARM GAS  C:\Users\Luke\AppData\Local\Temp\cc9oaS4c.s 			page 2


  32:.\main.c      **** void pid1_write(int32_t output);
  33:.\main.c      **** void USB_init(void);
  34:.\main.c      **** 
  35:.\main.c      **** uint32_t eventcounter = 0;
  36:.\main.c      **** uint8_t filterStatus = 0;
  37:.\main.c      **** uint8_t cliMode = 0;
  38:.\main.c      **** uint8_t faultStatus = 0;
  39:.\main.c      **** uint8_t pidStatus = 0;
  40:.\main.c      **** uint8_t filter_read = 0;
  41:.\main.c      **** uint8_t filter_readold = 0;
  42:.\main.c      **** uint8_t dac_offset = 0;
  43:.\main.c      **** pid pid1;
  44:.\main.c      **** uint16_t setpoint = 3000;
  45:.\main.c      **** float Temperature;
  46:.\main.c      **** 
  47:.\main.c      **** 
  48:.\main.c      **** /*******************************************************************************
  49:.\main.c      **** * Interrupt
  50:.\main.c      **** ********************************************************************************
  51:.\main.c      **** * Interrupt generated on Filter sample-ready. Interrupt handle:filterVDAC
  52:.\main.c      **** *
  53:.\main.c      **** * Summary:
  54:.\main.c      **** *  The interrupt performs following functions:
  55:.\main.c      **** *   1: Reads the left-justified register for Filter Channel A
  56:.\main.c      **** *   2: Converts it into an unsigned value
  57:.\main.c      **** *   3: Writes this value to VDAC
  58:.\main.c      **** *
  59:.\main.c      **** *******************************************************************************/
  60:.\main.c      **** CY_ISR(filterVDAC)
  61:.\main.c      **** {
  62:.\main.c      ****     /* Convert the 2's complement value to an unsigned 8-bit value
  63:.\main.c      ****      * The VDAC expects an unsigned 8-bit value as input.
  64:.\main.c      ****      */
  65:.\main.c      **** 	filter_read = Filter_HOLDAM_REG;
  66:.\main.c      **** 	filter_read += dac_offset;
  67:.\main.c      **** 	VDAC8_SetValue(filter_read);
  68:.\main.c      **** 	filterStatus = 1;
  69:.\main.c      **** }
  70:.\main.c      **** 
  71:.\main.c      **** /*******************************************************************************
  72:.\main.c      **** * Interrupt
  73:.\main.c      **** ********************************************************************************
  74:.\main.c      **** * Interrupt generated on Filter sample-ready. Interrupt handle:filterVDAC
  75:.\main.c      **** *
  76:.\main.c      **** * Summary:
  77:.\main.c      **** *  The interrupt performs following functions:
  78:.\main.c      **** *   1: Sets Status flag 1 when Fault is triggered
  79:.\main.c      **** *
  80:.\main.c      **** *******************************************************************************/
  81:.\main.c      **** CY_ISR(faultISR)
  82:.\main.c      **** {
  27              		.loc 1 82 0
  28              		.cfi_startproc
  29              		@ args = 0, pretend = 0, frame = 0
  30              		@ frame_needed = 0, uses_anonymous_args = 0
  31              		@ link register save eliminated.
  83:.\main.c      **** 	faultStatus=1;
ARM GAS  C:\Users\Luke\AppData\Local\Temp\cc9oaS4c.s 			page 3


  32              		.loc 1 83 0
  33 0000 034B     		ldr	r3, .L2
  34 0002 0122     		movs	r2, #1
  84:.\main.c      **** 	eventcounter++;
  35              		.loc 1 84 0
  36 0004 5868     		ldr	r0, [r3, #4]
  83:.\main.c      **** 	faultStatus=1;
  37              		.loc 1 83 0
  38 0006 1A70     		strb	r2, [r3, #0]
  39              		.loc 1 84 0
  40 0008 411C     		adds	r1, r0, #1
  41 000a 5960     		str	r1, [r3, #4]
  42 000c 7047     		bx	lr
  43              	.L3:
  44 000e 00BF     		.align	2
  45              	.L2:
  46 0010 00000000 		.word	.LANCHOR0
  47              		.cfi_endproc
  48              	.LFE57:
  49              		.size	faultISR, .-faultISR
  50              		.section	.text.pid1_write,"ax",%progbits
  51              		.align	1
  52              		.global	pid1_write
  53              		.thumb
  54              		.thumb_func
  55              		.type	pid1_write, %function
  56              	pid1_write:
  57              	.LFB62:
  85:.\main.c      **** }
  86:.\main.c      **** 
  87:.\main.c      **** /*******************************************************************************
  88:.\main.c      **** * Interrupt
  89:.\main.c      **** ********************************************************************************
  90:.\main.c      **** * Interrupt generated on timer overflow(specified for pid sample time). Interrupt handle:pidISR
  91:.\main.c      **** *
  92:.\main.c      **** * Summary:
  93:.\main.c      **** *  The interrupt performs following functions:
  94:.\main.c      **** *   1: Sets Status flag 1 when Timerinterrupt is triggered
  95:.\main.c      **** *
  96:.\main.c      **** *******************************************************************************/
  97:.\main.c      **** CY_ISR(pidISR)
  98:.\main.c      **** {
  99:.\main.c      **** 	Counter_1_ReadStatusRegister();
 100:.\main.c      **** 	pidStatus=1;
 101:.\main.c      **** }
 102:.\main.c      **** 
 103:.\main.c      **** /*******************************************************************************
 104:.\main.c      **** * Function Name: main
 105:.\main.c      **** ********************************************************************************
 106:.\main.c      **** *
 107:.\main.c      **** * Summary:
 108:.\main.c      **** *  Main function performs following functions:
 109:.\main.c      **** *   1: Enables global interrupts
 110:.\main.c      **** *   2: Start all components on the schematic
 111:.\main.c      **** *   3: Calls a function to configure DMA
 112:.\main.c      **** 
 113:.\main.c      **** * Parameters:
ARM GAS  C:\Users\Luke\AppData\Local\Temp\cc9oaS4c.s 			page 4


 114:.\main.c      **** *  None.
 115:.\main.c      **** *
 116:.\main.c      **** * Return:
 117:.\main.c      **** *  None.
 118:.\main.c      **** *
 119:.\main.c      **** *******************************************************************************/
 120:.\main.c      **** void main(void)
 121:.\main.c      **** {
 122:.\main.c      **** 	char buffer[40];
 123:.\main.c      **** 	uint8_t filterRead;
 124:.\main.c      ****     uint8_t temp;
 125:.\main.c      **** 	int counter = 0;
 126:.\main.c      **** 	int32_t ADCtemp_read;
 127:.\main.c      ****     /* Start all components used on schematic */
 128:.\main.c      ****     //ADC_DelSig_IRQ_Start();
 129:.\main.c      ****     isr_StartEx(filterVDAC);
 130:.\main.c      ****     //ADC_DelSig_Start();
 131:.\main.c      ****     //ADC_DelSig_StartConvert();
 132:.\main.c      **** 	ADC_SAR_1_Start();
 133:.\main.c      **** 	ADC_SAR_2_Start();
 134:.\main.c      **** 	ADC_DelSig_1_Start();
 135:.\main.c      **** 	ADC_SAR_1_StartConvert();
 136:.\main.c      **** 	ADC_SAR_2_StartConvert();
 137:.\main.c      **** 	ADC_DelSig_1_StartConvert();
 138:.\main.c      **** 	Fault_isr_StartEx(faultISR);
 139:.\main.c      **** 	Fault_isr_SetPriority(0u);
 140:.\main.c      **** 	PID_isr_StartEx(pidISR);
 141:.\main.c      **** 	PID_isr_SetPriority(7u);
 142:.\main.c      **** 	Comp_1_Start();
 143:.\main.c      **** 	Comp_2_Start();
 144:.\main.c      **** 	Comp_3_Start();
 145:.\main.c      ****     VDAC8_Start();
 146:.\main.c      **** 	IDAC8_1_Start();
 147:.\main.c      **** 	IDAC8_2_Start();
 148:.\main.c      **** 	PGA_1_Start();
 149:.\main.c      ****     PGA_1_SetGain(PGA_1_GAIN_02);
 150:.\main.c      ****     Filter_Start();
 151:.\main.c      **** 	Filter_SetCoherency(Filter_CHANNEL_A,Filter_KEY_MID);
 152:.\main.c      **** 	LCD_Start();
 153:.\main.c      **** 	Counter_1_Start();
 154:.\main.c      **** 	
 155:.\main.c      ****     /* User-implemented function to set-up DMA */
 156:.\main.c      ****     DMA_Config();
 157:.\main.c      **** 	
 158:.\main.c      **** 	/* initialize pid controller */
 159:.\main.c      **** 	pid_init(&pid1, 50, 10, 10, 100000, pid1_write);
 160:.\main.c      **** 	
 161:.\main.c      ****     /* Enable Global Interrupts */
 162:.\main.c      ****     CYGlobalIntEnable;
 163:.\main.c      **** 	
 164:.\main.c      **** 
 165:.\main.c      ****     for(;;)
 166:.\main.c      ****     {
 167:.\main.c      **** 		if(filterStatus)
 168:.\main.c      **** 		{
 169:.\main.c      **** 			LCD_Position(1u, 0u);
 170:.\main.c      **** 			
ARM GAS  C:\Users\Luke\AppData\Local\Temp\cc9oaS4c.s 			page 5


 171:.\main.c      **** 			//filterRead = Filter_Read8(Filter_CHANNEL_A);
 172:.\main.c      **** 			filterRead = filter_read;
 173:.\main.c      **** 			
 174:.\main.c      **** 			if(filterRead < 10) {
 175:.\main.c      **** 			LCD_PrintString("  ");			
 176:.\main.c      **** 			} else if(filterRead < 100) {
 177:.\main.c      **** 			LCD_PrintString(" ");			
 178:.\main.c      **** 			} else {}
 179:.\main.c      **** 			
 180:.\main.c      **** 			sprintf(buffer, "%i", filterRead);
 181:.\main.c      **** 			LCD_PrintString(buffer);
 182:.\main.c      **** 			filterStatus=0;
 183:.\main.c      **** 		}
 184:.\main.c      **** 		
 185:.\main.c      **** 		if(faultStatus) {
 186:.\main.c      **** 			LCD_Position(0u, 0u);
 187:.\main.c      **** 			LCD_PrintString("ERROR");
 188:.\main.c      **** 			LCD_Position(1u,5u);
 189:.\main.c      **** 			sprintf(buffer, "%u", (unsigned int)eventcounter);
 190:.\main.c      **** 			LCD_PrintString(buffer);
 191:.\main.c      **** 			//faultStatus=0;
 192:.\main.c      **** 			
 193:.\main.c      **** 		} else {
 194:.\main.c      **** 			LCD_Position(0u, 0u);
 195:.\main.c      **** 			LCD_PrintString("OK   ");
 196:.\main.c      **** 		}
 197:.\main.c      **** 		
 198:.\main.c      **** 		if(pidStatus) { // executes every second, driven by a timer interrupt
 199:.\main.c      **** 			ADCtemp_read = ADC_DelSig_1_GetResult32();
 200:.\main.c      **** 			Temperature = calc_temperature(ADCtemp_read);
 201:.\main.c      **** 			
 202:.\main.c      **** 			pid_calc(&pid1, setpoint,(int32_t)(Temperature*100),1000);
 203:.\main.c      **** 			
 204:.\main.c      **** 			LCD_Position(0u,5u);
 205:.\main.c      **** 			buffer[0] = ((int)Temperature / 100) % 10 + '0';
 206:.\main.c      **** 			buffer[1] = ((int)Temperature / 10) % 10 + '0';
 207:.\main.c      **** 			buffer[2] = ((int)Temperature  % 10) + '0';
 208:.\main.c      **** 			buffer[3] = '.';
 209:.\main.c      **** 			buffer[4] = (int)(Temperature * 10) % 10 + '0';
 210:.\main.c      **** 			buffer[5] = (int)(Temperature * 100) % 10 + '0';
 211:.\main.c      **** 			buffer[6] = '\0';
 212:.\main.c      **** 				
 213:.\main.c      **** 			LCD_PrintString(buffer);
 214:.\main.c      **** 			
 215:.\main.c      **** 			pidStatus=0;
 216:.\main.c      **** 			if(faultStatus)
 217:.\main.c      **** 				counter++;
 218:.\main.c      **** 			if(counter >= 10) {
 219:.\main.c      **** 				faultStatus = 0;
 220:.\main.c      **** 				counter = 0;
 221:.\main.c      **** 				Control_RS_Write(0xff);
 222:.\main.c      **** 				CyDelayUs(10);
 223:.\main.c      **** 				Control_RS_Write(0x00);
 224:.\main.c      **** 			}
 225:.\main.c      **** 			
 226:.\main.c      **** 			
 227:.\main.c      **** 		}
ARM GAS  C:\Users\Luke\AppData\Local\Temp\cc9oaS4c.s 			page 6


 228:.\main.c      **** 		// USB-CDC Communication
 229:.\main.c      ****         temp = VUSB_Read();
 230:.\main.c      ****         if(temp) {
 231:.\main.c      ****             temp = '0' + temp;
 232:.\main.c      ****             LCD_Position(1u,5u);
 233:.\main.c      ****             LCD_PutChar(temp);
 234:.\main.c      ****             
 235:.\main.c      ****             if(USBUART_1_initVar == 0u)
 236:.\main.c      ****                 USB_init();
 237:.\main.c      ****             cliProcess();
 238:.\main.c      ****         }  
 239:.\main.c      ****         else {
 240:.\main.c      ****             if(USBUART_1_initVar)
 241:.\main.c      ****                 USBUART_1_Stop();
 242:.\main.c      ****                 
 243:.\main.c      ****             LCD_Position(1u,5u);
 244:.\main.c      ****             temp = '0' + temp;
 245:.\main.c      ****             LCD_PutChar(temp);
 246:.\main.c      **** 		}
 247:.\main.c      **** 		
 248:.\main.c      **** 		dac_offset = ADC_SAR_2_GetResult8();
 249:.\main.c      **** 		
 250:.\main.c      ****     }
 251:.\main.c      **** } /* End of main */
 252:.\main.c      **** 
 253:.\main.c      **** void USB_init(void) 
 254:.\main.c      **** {
 255:.\main.c      ****     /* Start USBFS Operation with 5V operation */
 256:.\main.c      **** 	USBUART_1_Start(0u, USBUART_1_5V_OPERATION);
 257:.\main.c      **** 	while(!USBUART_1_GetConfiguration()){};
 258:.\main.c      **** 	USBUART_1_CDC_Init();
 259:.\main.c      ****     USBUART_1_SetPowerStatus(USBUART_1_DEVICE_STATUS_SELF_POWERED);
 260:.\main.c      **** }
 261:.\main.c      **** 
 262:.\main.c      **** 
 263:.\main.c      **** /*******************************************************************************
 264:.\main.c      **** * Function Name: DMA_Config
 265:.\main.c      **** ********************************************************************************
 266:.\main.c      **** *
 267:.\main.c      **** * Summary:
 268:.\main.c      **** *  Initializes and sets up DMA for use (generated by DMA Wizard)
 269:.\main.c      **** *
 270:.\main.c      **** * Parameters:
 271:.\main.c      **** *  None.
 272:.\main.c      **** *
 273:.\main.c      **** * Return:
 274:.\main.c      **** *  None.
 275:.\main.c      **** *
 276:.\main.c      **** *******************************************************************************/
 277:.\main.c      **** void DMA_Config(void)
 278:.\main.c      **** {
 279:.\main.c      ****     /* Declare variable to hold the handle for DMA channel */
 280:.\main.c      ****     uint8 channelHandle;
 281:.\main.c      **** 
 282:.\main.c      ****     /* Declare DMA Transaction Descriptor for memory transfer into
 283:.\main.c      ****      * Filter Channel.
 284:.\main.c      ****      */
ARM GAS  C:\Users\Luke\AppData\Local\Temp\cc9oaS4c.s 			page 7


 285:.\main.c      ****     uint8 tdChanA;
 286:.\main.c      **** 
 287:.\main.c      ****     /* Configure the DMA to Transfer the data in 1 burst with individual trigger
 288:.\main.c      ****      * for each burst.
 289:.\main.c      ****      */
 290:.\main.c      ****     channelHandle = DMA_DmaInitialize(BYTES_PER_BURST, REQUEST_PER_BURST,
 291:.\main.c      ****                                         HI16(UPPER_SRC_ADDRESS), HI16(UPPER_DEST_ADDRESS));
 292:.\main.c      **** 
 293:.\main.c      ****     /* This function allocates a TD for use with an initialized DMA channel */
 294:.\main.c      ****     tdChanA = CyDmaTdAllocate();
 295:.\main.c      **** 
 296:.\main.c      ****     /* Configure the tdChanA to transfer 1 byte with no next TD */
 297:.\main.c      ****     CyDmaTdSetConfiguration(tdChanA, 1u, DMA_INVALID_TD, 0u);
 298:.\main.c      **** 
 299:.\main.c      ****     /* Set the source address as ADC_DelSig and the destination as
 300:.\main.c      ****      * Filter Channel A.
 301:.\main.c      ****      */
 302:.\main.c      ****     CyDmaTdSetAddress(tdChanA, LO16((uint32)ADC_SAR_1_SAR_WRK0_PTR), LO16((uint32)Filter_STAGEAM_PT
 303:.\main.c      **** 
 304:.\main.c      ****     /* Set tdChanA to be the initial TD associated with channelHandle */
 305:.\main.c      ****     CyDmaChSetInitialTd(channelHandle, tdChanA);
 306:.\main.c      **** 
 307:.\main.c      ****     /* Enable the DMA channel represented by channelHandle and preserve the TD */
 308:.\main.c      ****     CyDmaChEnable(channelHandle, 1u);
 309:.\main.c      **** }
 310:.\main.c      **** 
 311:.\main.c      **** /*******************************************************************************
 312:.\main.c      **** * Function Name: pid1_write
 313:.\main.c      **** ********************************************************************************
 314:.\main.c      **** *
 315:.\main.c      **** * Summary:
 316:.\main.c      **** *  writes pid output to a peripheral needs to be passed to pid struct
 317:.\main.c      **** *
 318:.\main.c      **** * Parameters:
 319:.\main.c      **** *  int32_t output given by the pid library
 320:.\main.c      **** *
 321:.\main.c      **** * Return:
 322:.\main.c      **** *  None.
 323:.\main.c      **** *
 324:.\main.c      **** *******************************************************************************/
 325:.\main.c      **** void pid1_write(int32_t output) //incomplete
 326:.\main.c      **** {
  58              		.loc 1 326 0
  59              		.cfi_startproc
  60              		@ args = 0, pretend = 0, frame = 0
  61              		@ frame_needed = 0, uses_anonymous_args = 0
  62              	.LVL0:
  63 0000 40F6FF73 		movw	r3, #4095
  64 0004 20EAE070 		bic	r0, r0, r0, asr #31
  65              	.LVL1:
  66 0008 10B5     		push	{r4, lr}
  67              	.LCFI0:
  68              		.cfi_def_cfa_offset 8
  69              		.cfi_offset 4, -8
  70              		.cfi_offset 14, -4
  71 000a 9842     		cmp	r0, r3
  72 000c B4BF     		ite	lt
ARM GAS  C:\Users\Luke\AppData\Local\Temp\cc9oaS4c.s 			page 8


  73 000e 0446     		movlt	r4, r0
  74 0010 1C46     		movge	r4, r3
  75              	.LVL2:
 327:.\main.c      **** 	uint8_t temp1, temp2;
 328:.\main.c      **** 	
 329:.\main.c      **** 	if(output > 4095)
 330:.\main.c      **** 		output = 4095;
 331:.\main.c      **** 	else if(output < 0)
 332:.\main.c      **** 		output = 0;
 333:.\main.c      **** 	
 334:.\main.c      **** 	temp1 = output >> 4;
 335:.\main.c      **** 	temp2 = (output & 0x000F) << 2;
 336:.\main.c      **** 	
 337:.\main.c      **** 	IDAC8_1_SetValue(temp1);
  76              		.loc 1 337 0
  77 0012 C4F30710 		ubfx	r0, r4, #4, #8
  78 0016 FFF7FEFF 		bl	IDAC8_1_SetValue
  79              	.LVL3:
 335:.\main.c      **** 	temp2 = (output & 0x000F) << 2;
  80              		.loc 1 335 0
  81 001a 04F00F01 		and	r1, r4, #15
 338:.\main.c      **** 	IDAC8_2_SetValue(temp2);
  82              		.loc 1 338 0
  83 001e 8800     		lsls	r0, r1, #2
 339:.\main.c      **** }
  84              		.loc 1 339 0
  85 0020 BDE81040 		pop	{r4, lr}
 338:.\main.c      **** 	IDAC8_2_SetValue(temp2);
  86              		.loc 1 338 0
  87 0024 FFF7FEBF 		b	IDAC8_2_SetValue
  88              	.LVL4:
  89              		.cfi_endproc
  90              	.LFE62:
  91              		.size	pid1_write, .-pid1_write
  92              		.section	.text.pidISR,"ax",%progbits
  93              		.align	1
  94              		.global	pidISR
  95              		.thumb
  96              		.thumb_func
  97              		.type	pidISR, %function
  98              	pidISR:
  99              	.LFB58:
  98:.\main.c      **** {
 100              		.loc 1 98 0
 101              		.cfi_startproc
 102              		@ args = 0, pretend = 0, frame = 0
 103              		@ frame_needed = 0, uses_anonymous_args = 0
 104 0000 08B5     		push	{r3, lr}
 105              	.LCFI1:
 106              		.cfi_def_cfa_offset 8
 107              		.cfi_offset 3, -8
 108              		.cfi_offset 14, -4
  99:.\main.c      **** 	Counter_1_ReadStatusRegister();
 109              		.loc 1 99 0
 110 0002 FFF7FEFF 		bl	Counter_1_ReadStatusRegister
 111              	.LVL5:
 100:.\main.c      **** 	pidStatus=1;
ARM GAS  C:\Users\Luke\AppData\Local\Temp\cc9oaS4c.s 			page 9


 112              		.loc 1 100 0
 113 0006 024B     		ldr	r3, .L6
 114 0008 0122     		movs	r2, #1
 115 000a 1A72     		strb	r2, [r3, #8]
 116 000c 08BD     		pop	{r3, pc}
 117              	.L7:
 118 000e 00BF     		.align	2
 119              	.L6:
 120 0010 00000000 		.word	.LANCHOR0
 121              		.cfi_endproc
 122              	.LFE58:
 123              		.size	pidISR, .-pidISR
 124              		.section	.text.filterVDAC,"ax",%progbits
 125              		.align	1
 126              		.global	filterVDAC
 127              		.thumb
 128              		.thumb_func
 129              		.type	filterVDAC, %function
 130              	filterVDAC:
 131              	.LFB56:
  61:.\main.c      **** {
 132              		.loc 1 61 0
 133              		.cfi_startproc
 134              		@ args = 0, pretend = 0, frame = 0
 135              		@ frame_needed = 0, uses_anonymous_args = 0
 136 0000 10B5     		push	{r4, lr}
 137              	.LCFI2:
 138              		.cfi_def_cfa_offset 8
 139              		.cfi_offset 4, -8
 140              		.cfi_offset 14, -4
  65:.\main.c      **** 	filter_read = Filter_HOLDAM_REG;
 141              		.loc 1 65 0
 142 0002 064B     		ldr	r3, .L9
  66:.\main.c      **** 	filter_read += dac_offset;
 143              		.loc 1 66 0
 144 0004 064C     		ldr	r4, .L9+4
  65:.\main.c      **** 	filter_read = Filter_HOLDAM_REG;
 145              		.loc 1 65 0
 146 0006 1878     		ldrb	r0, [r3, #0]	@ zero_extendqisi2
  66:.\main.c      **** 	filter_read += dac_offset;
 147              		.loc 1 66 0
 148 0008 617A     		ldrb	r1, [r4, #9]	@ zero_extendqisi2
 149 000a 4218     		adds	r2, r0, r1
 150 000c D0B2     		uxtb	r0, r2
 151 000e A072     		strb	r0, [r4, #10]
  67:.\main.c      **** 	VDAC8_SetValue(filter_read);
 152              		.loc 1 67 0
 153 0010 FFF7FEFF 		bl	VDAC8_SetValue
 154              	.LVL6:
  68:.\main.c      **** 	filterStatus = 1;
 155              		.loc 1 68 0
 156 0014 0123     		movs	r3, #1
 157 0016 E372     		strb	r3, [r4, #11]
 158 0018 10BD     		pop	{r4, pc}
 159              	.L10:
 160 001a 00BF     		.align	2
 161              	.L9:
ARM GAS  C:\Users\Luke\AppData\Local\Temp\cc9oaS4c.s 			page 10


 162 001c A9C70040 		.word	1073792937
 163 0020 00000000 		.word	.LANCHOR0
 164              		.cfi_endproc
 165              	.LFE56:
 166              		.size	filterVDAC, .-filterVDAC
 167              		.section	.text.USB_init,"ax",%progbits
 168              		.align	1
 169              		.global	USB_init
 170              		.thumb
 171              		.thumb_func
 172              		.type	USB_init, %function
 173              	USB_init:
 174              	.LFB60:
 254:.\main.c      **** {
 175              		.loc 1 254 0
 176              		.cfi_startproc
 177              		@ args = 0, pretend = 0, frame = 0
 178              		@ frame_needed = 0, uses_anonymous_args = 0
 179 0000 08B5     		push	{r3, lr}
 180              	.LCFI3:
 181              		.cfi_def_cfa_offset 8
 182              		.cfi_offset 3, -8
 183              		.cfi_offset 14, -4
 256:.\main.c      **** 	USBUART_1_Start(0u, USBUART_1_5V_OPERATION);
 184              		.loc 1 256 0
 185 0002 0020     		movs	r0, #0
 186 0004 0121     		movs	r1, #1
 187 0006 FFF7FEFF 		bl	USBUART_1_Start
 188              	.LVL7:
 189              	.L12:
 257:.\main.c      **** 	while(!USBUART_1_GetConfiguration()){};
 190              		.loc 1 257 0 discriminator 1
 191 000a FFF7FEFF 		bl	USBUART_1_GetConfiguration
 192              	.LVL8:
 193 000e 0028     		cmp	r0, #0
 194 0010 FBD0     		beq	.L12
 258:.\main.c      **** 	USBUART_1_CDC_Init();
 195              		.loc 1 258 0
 196 0012 FFF7FEFF 		bl	USBUART_1_CDC_Init
 197              	.LVL9:
 259:.\main.c      ****     USBUART_1_SetPowerStatus(USBUART_1_DEVICE_STATUS_SELF_POWERED);
 198              		.loc 1 259 0
 199 0016 0120     		movs	r0, #1
 260:.\main.c      **** }
 200              		.loc 1 260 0
 201 0018 BDE80840 		pop	{r3, lr}
 259:.\main.c      ****     USBUART_1_SetPowerStatus(USBUART_1_DEVICE_STATUS_SELF_POWERED);
 202              		.loc 1 259 0
 203 001c FFF7FEBF 		b	USBUART_1_SetPowerStatus
 204              	.LVL10:
 205              		.cfi_endproc
 206              	.LFE60:
 207              		.size	USB_init, .-USB_init
 208              		.section	.text.DMA_Config,"ax",%progbits
 209              		.align	1
 210              		.global	DMA_Config
 211              		.thumb
ARM GAS  C:\Users\Luke\AppData\Local\Temp\cc9oaS4c.s 			page 11


 212              		.thumb_func
 213              		.type	DMA_Config, %function
 214              	DMA_Config:
 215              	.LFB61:
 278:.\main.c      **** {
 216              		.loc 1 278 0
 217              		.cfi_startproc
 218              		@ args = 0, pretend = 0, frame = 0
 219              		@ frame_needed = 0, uses_anonymous_args = 0
 290:.\main.c      ****     channelHandle = DMA_DmaInitialize(BYTES_PER_BURST, REQUEST_PER_BURST,
 220              		.loc 1 290 0
 221 0000 4FF48042 		mov	r2, #16384
 222 0004 0120     		movs	r0, #1
 278:.\main.c      **** {
 223              		.loc 1 278 0
 224 0006 38B5     		push	{r3, r4, r5, lr}
 225              	.LCFI4:
 226              		.cfi_def_cfa_offset 16
 227              		.cfi_offset 3, -16
 228              		.cfi_offset 4, -12
 229              		.cfi_offset 5, -8
 230              		.cfi_offset 14, -4
 290:.\main.c      ****     channelHandle = DMA_DmaInitialize(BYTES_PER_BURST, REQUEST_PER_BURST,
 231              		.loc 1 290 0
 232 0008 0146     		mov	r1, r0
 233 000a 1346     		mov	r3, r2
 234 000c FFF7FEFF 		bl	DMA_DmaInitialize
 235              	.LVL11:
 236 0010 0446     		mov	r4, r0
 237              	.LVL12:
 294:.\main.c      ****     tdChanA = CyDmaTdAllocate();
 238              		.loc 1 294 0
 239 0012 FFF7FEFF 		bl	CyDmaTdAllocate
 240              	.LVL13:
 297:.\main.c      ****     CyDmaTdSetConfiguration(tdChanA, 1u, DMA_INVALID_TD, 0u);
 241              		.loc 1 297 0
 242 0016 0023     		movs	r3, #0
 294:.\main.c      ****     tdChanA = CyDmaTdAllocate();
 243              		.loc 1 294 0
 244 0018 0546     		mov	r5, r0
 245              	.LVL14:
 297:.\main.c      ****     CyDmaTdSetConfiguration(tdChanA, 1u, DMA_INVALID_TD, 0u);
 246              		.loc 1 297 0
 247 001a 0121     		movs	r1, #1
 248 001c FF22     		movs	r2, #255
 249 001e FFF7FEFF 		bl	CyDmaTdSetConfiguration
 250              	.LVL15:
 302:.\main.c      ****     CyDmaTdSetAddress(tdChanA, LO16((uint32)ADC_SAR_1_SAR_WRK0_PTR), LO16((uint32)Filter_STAGEAM_PT
 251              		.loc 1 302 0
 252 0022 4CF2A172 		movw	r2, #51105
 253 0026 2846     		mov	r0, r5
 254 0028 45F6A231 		movw	r1, #23458
 255 002c FFF7FEFF 		bl	CyDmaTdSetAddress
 256              	.LVL16:
 305:.\main.c      ****     CyDmaChSetInitialTd(channelHandle, tdChanA);
 257              		.loc 1 305 0
 258 0030 2946     		mov	r1, r5
ARM GAS  C:\Users\Luke\AppData\Local\Temp\cc9oaS4c.s 			page 12


 259 0032 2046     		mov	r0, r4
 260 0034 FFF7FEFF 		bl	CyDmaChSetInitialTd
 261              	.LVL17:
 308:.\main.c      ****     CyDmaChEnable(channelHandle, 1u);
 262              		.loc 1 308 0
 263 0038 2046     		mov	r0, r4
 264 003a 0121     		movs	r1, #1
 309:.\main.c      **** }
 265              		.loc 1 309 0
 266 003c BDE83840 		pop	{r3, r4, r5, lr}
 308:.\main.c      ****     CyDmaChEnable(channelHandle, 1u);
 267              		.loc 1 308 0
 268 0040 FFF7FEBF 		b	CyDmaChEnable
 269              	.LVL18:
 270              		.cfi_endproc
 271              	.LFE61:
 272              		.size	DMA_Config, .-DMA_Config
 273              		.global	__aeabi_i2f
 274              		.global	__aeabi_fdiv
 275              		.global	__aeabi_fsub
 276              		.global	__aeabi_fmul
 277              		.global	__aeabi_fadd
 278              		.section	.text.calc_temperature,"ax",%progbits
 279              		.align	1
 280              		.global	calc_temperature
 281              		.thumb
 282              		.thumb_func
 283              		.type	calc_temperature, %function
 284              	calc_temperature:
 285              	.LFB63:
 340:.\main.c      **** 
 341:.\main.c      **** /*******************************************************************************
 342:.\main.c      **** * Function Name: calc_temperature
 343:.\main.c      **** ********************************************************************************
 344:.\main.c      **** *
 345:.\main.c      **** * Summary:
 346:.\main.c      **** *  calculates the temperature from adc for a 10k ntc
 347:.\main.c      **** *
 348:.\main.c      **** * Parameters:
 349:.\main.c      **** *  int32_t output given by the pid library
 350:.\main.c      **** *
 351:.\main.c      **** * Return:
 352:.\main.c      **** *  None.
 353:.\main.c      **** *
 354:.\main.c      **** *******************************************************************************/
 355:.\main.c      **** 
 356:.\main.c      **** 
 357:.\main.c      **** float calc_temperature(int32_t adc_input)
 358:.\main.c      **** {
 286              		.loc 1 358 0
 287              		.cfi_startproc
 288              		@ args = 0, pretend = 0, frame = 0
 289              		@ frame_needed = 0, uses_anonymous_args = 0
 290              	.LVL19:
 291 0000 2DE9F047 		push	{r4, r5, r6, r7, r8, r9, sl, lr}
 292              	.LCFI5:
 293              		.cfi_def_cfa_offset 32
ARM GAS  C:\Users\Luke\AppData\Local\Temp\cc9oaS4c.s 			page 13


 294              		.cfi_offset 4, -32
 295              		.cfi_offset 5, -28
 296              		.cfi_offset 6, -24
 297              		.cfi_offset 7, -20
 298              		.cfi_offset 8, -16
 299              		.cfi_offset 9, -12
 300              		.cfi_offset 10, -8
 301              		.cfi_offset 14, -4
 359:.\main.c      **** 	float A1,B1,C1,D1;
 360:.\main.c      **** 	float Temp,Res;
 361:.\main.c      **** 
 362:.\main.c      **** 	A1 = 3.354016e-3f;
 363:.\main.c      **** 	B1 = 2.569850e-4f;
 364:.\main.c      **** 	C1 = 2.62013e-6f;
 365:.\main.c      **** 	D1 = 6.38309e-8f;
 366:.\main.c      **** 	
 367:.\main.c      **** 	Res = (float) 10000 / (float)(((float)0xffff / (float)adc_input) - 1); 
 302              		.loc 1 367 0
 303 0004 FFF7FEFF 		bl	__aeabi_i2f
 304              	.LVL20:
 305 0008 0146     		mov	r1, r0
 306 000a 2948     		ldr	r0, .L20
 307 000c FFF7FEFF 		bl	__aeabi_fdiv
 308              	.LVL21:
 309 0010 4FF07E51 		mov	r1, #1065353216
 310 0014 FFF7FEFF 		bl	__aeabi_fsub
 311              	.LVL22:
 312 0018 0146     		mov	r1, r0
 313 001a 2648     		ldr	r0, .L20+4
 314 001c FFF7FEFF 		bl	__aeabi_fdiv
 315              	.LVL23:
 368:.\main.c      **** 	
 369:.\main.c      **** 	Temp = 1.0f / (A1 + B1 * logf(Res/10000.0f) + C1 * logf(Res/10000.0f) * logf(Res/10000.0f) + D1 * 
 316              		.loc 1 369 0
 317 0020 2449     		ldr	r1, .L20+4
 318 0022 FFF7FEFF 		bl	__aeabi_fdiv
 319              	.LVL24:
 320 0026 0446     		mov	r4, r0
 321 0028 FFF7FEFF 		bl	logf
 322              	.LVL25:
 323 002c 8246     		mov	sl, r0
 324 002e 2046     		mov	r0, r4
 325 0030 FFF7FEFF 		bl	logf
 326              	.LVL26:
 327 0034 8146     		mov	r9, r0
 328 0036 2046     		mov	r0, r4
 329 0038 FFF7FEFF 		bl	logf
 330              	.LVL27:
 331 003c 8046     		mov	r8, r0
 332 003e 2046     		mov	r0, r4
 333 0040 FFF7FEFF 		bl	logf
 334              	.LVL28:
 335 0044 0746     		mov	r7, r0
 336 0046 2046     		mov	r0, r4
 337 0048 FFF7FEFF 		bl	logf
 338              	.LVL29:
 339 004c 0646     		mov	r6, r0
ARM GAS  C:\Users\Luke\AppData\Local\Temp\cc9oaS4c.s 			page 14


 340 004e 2046     		mov	r0, r4
 341 0050 FFF7FEFF 		bl	logf
 342              	.LVL30:
 343 0054 1849     		ldr	r1, .L20+8
 344 0056 0546     		mov	r5, r0
 345 0058 5046     		mov	r0, sl
 346 005a FFF7FEFF 		bl	__aeabi_fmul
 347              	.LVL31:
 348 005e 1749     		ldr	r1, .L20+12
 349 0060 FFF7FEFF 		bl	__aeabi_fadd
 350              	.LVL32:
 351 0064 1649     		ldr	r1, .L20+16
 352 0066 0446     		mov	r4, r0
 353 0068 4846     		mov	r0, r9
 354 006a FFF7FEFF 		bl	__aeabi_fmul
 355              	.LVL33:
 356 006e 4146     		mov	r1, r8
 357 0070 FFF7FEFF 		bl	__aeabi_fmul
 358              	.LVL34:
 359 0074 0146     		mov	r1, r0
 360 0076 2046     		mov	r0, r4
 361 0078 FFF7FEFF 		bl	__aeabi_fadd
 362              	.LVL35:
 363 007c 1149     		ldr	r1, .L20+20
 364 007e 0446     		mov	r4, r0
 365 0080 3846     		mov	r0, r7
 366 0082 FFF7FEFF 		bl	__aeabi_fmul
 367              	.LVL36:
 368 0086 3146     		mov	r1, r6
 369 0088 FFF7FEFF 		bl	__aeabi_fmul
 370              	.LVL37:
 371 008c 2946     		mov	r1, r5
 372 008e FFF7FEFF 		bl	__aeabi_fmul
 373              	.LVL38:
 374 0092 0146     		mov	r1, r0
 375 0094 2046     		mov	r0, r4
 376 0096 FFF7FEFF 		bl	__aeabi_fadd
 377              	.LVL39:
 378 009a 0146     		mov	r1, r0
 379 009c 4FF07E50 		mov	r0, #1065353216
 380 00a0 FFF7FEFF 		bl	__aeabi_fdiv
 381              	.LVL40:
 370:.\main.c      **** 	Temp -= 273.15f;
 382              		.loc 1 370 0
 383 00a4 0849     		ldr	r1, .L20+24
 384 00a6 FFF7FEFF 		bl	__aeabi_fsub
 385              	.LVL41:
 371:.\main.c      **** 	return Temp;
 372:.\main.c      **** }
 386              		.loc 1 372 0
 387 00aa BDE8F087 		pop	{r4, r5, r6, r7, r8, r9, sl, pc}
 388              	.L21:
 389 00ae 00BF     		.align	2
 390              	.L20:
 391 00b0 00FF7F47 		.word	1199570688
 392 00b4 00401C46 		.word	1176256512
 393 00b8 F1BB8639 		.word	965131249
ARM GAS  C:\Users\Luke\AppData\Local\Temp\cc9oaS4c.s 			page 15


 394 00bc 0DCF5B3B 		.word	995872525
 395 00c0 7ED52F36 		.word	909104510
 396 00c4 69138933 		.word	864621417
 397 00c8 33938843 		.word	1133024051
 398              		.cfi_endproc
 399              	.LFE63:
 400              		.size	calc_temperature, .-calc_temperature
 401              		.global	__aeabi_f2iz
 402              		.section	.text.startup.main,"ax",%progbits
 403              		.align	1
 404              		.global	main
 405              		.thumb
 406              		.thumb_func
 407              		.type	main, %function
 408              	main:
 409              	.LFB59:
 121:.\main.c      **** {
 410              		.loc 1 121 0
 411              		.cfi_startproc
 412              		@ args = 0, pretend = 0, frame = 40
 413              		@ frame_needed = 0, uses_anonymous_args = 0
 414              	.LVL42:
 415 0000 F0B5     		push	{r4, r5, r6, r7, lr}
 416              	.LCFI6:
 417              		.cfi_def_cfa_offset 20
 418              		.cfi_offset 4, -20
 419              		.cfi_offset 5, -16
 420              		.cfi_offset 6, -12
 421              		.cfi_offset 7, -8
 422              		.cfi_offset 14, -4
 129:.\main.c      ****     isr_StartEx(filterVDAC);
 423              		.loc 1 129 0
 424 0002 8848     		ldr	r0, .L49
 121:.\main.c      **** {
 425              		.loc 1 121 0
 426 0004 8DB0     		sub	sp, sp, #52
 427              	.LCFI7:
 428              		.cfi_def_cfa_offset 72
 129:.\main.c      ****     isr_StartEx(filterVDAC);
 429              		.loc 1 129 0
 430 0006 FFF7FEFF 		bl	isr_StartEx
 431              	.LVL43:
 132:.\main.c      **** 	ADC_SAR_1_Start();
 432              		.loc 1 132 0
 433 000a FFF7FEFF 		bl	ADC_SAR_1_Start
 434              	.LVL44:
 133:.\main.c      **** 	ADC_SAR_2_Start();
 435              		.loc 1 133 0
 436 000e FFF7FEFF 		bl	ADC_SAR_2_Start
 437              	.LVL45:
 134:.\main.c      **** 	ADC_DelSig_1_Start();
 438              		.loc 1 134 0
 439 0012 FFF7FEFF 		bl	ADC_DelSig_1_Start
 440              	.LVL46:
 135:.\main.c      **** 	ADC_SAR_1_StartConvert();
 441              		.loc 1 135 0
 442 0016 FFF7FEFF 		bl	ADC_SAR_1_StartConvert
ARM GAS  C:\Users\Luke\AppData\Local\Temp\cc9oaS4c.s 			page 16


 443              	.LVL47:
 136:.\main.c      **** 	ADC_SAR_2_StartConvert();
 444              		.loc 1 136 0
 445 001a FFF7FEFF 		bl	ADC_SAR_2_StartConvert
 446              	.LVL48:
 137:.\main.c      **** 	ADC_DelSig_1_StartConvert();
 447              		.loc 1 137 0
 448 001e FFF7FEFF 		bl	ADC_DelSig_1_StartConvert
 449              	.LVL49:
 138:.\main.c      **** 	Fault_isr_StartEx(faultISR);
 450              		.loc 1 138 0
 451 0022 8148     		ldr	r0, .L49+4
 452 0024 FFF7FEFF 		bl	Fault_isr_StartEx
 453              	.LVL50:
 139:.\main.c      **** 	Fault_isr_SetPriority(0u);
 454              		.loc 1 139 0
 455 0028 0020     		movs	r0, #0
 456 002a FFF7FEFF 		bl	Fault_isr_SetPriority
 457              	.LVL51:
 140:.\main.c      **** 	PID_isr_StartEx(pidISR);
 458              		.loc 1 140 0
 459 002e 7F48     		ldr	r0, .L49+8
 460 0030 FFF7FEFF 		bl	PID_isr_StartEx
 461              	.LVL52:
 141:.\main.c      **** 	PID_isr_SetPriority(7u);
 462              		.loc 1 141 0
 463 0034 0720     		movs	r0, #7
 464 0036 FFF7FEFF 		bl	PID_isr_SetPriority
 465              	.LVL53:
 142:.\main.c      **** 	Comp_1_Start();
 466              		.loc 1 142 0
 467 003a FFF7FEFF 		bl	Comp_1_Start
 468              	.LVL54:
 143:.\main.c      **** 	Comp_2_Start();
 469              		.loc 1 143 0
 470 003e FFF7FEFF 		bl	Comp_2_Start
 471              	.LVL55:
 144:.\main.c      **** 	Comp_3_Start();
 472              		.loc 1 144 0
 473 0042 FFF7FEFF 		bl	Comp_3_Start
 474              	.LVL56:
 145:.\main.c      ****     VDAC8_Start();
 475              		.loc 1 145 0
 476 0046 FFF7FEFF 		bl	VDAC8_Start
 477              	.LVL57:
 146:.\main.c      **** 	IDAC8_1_Start();
 478              		.loc 1 146 0
 479 004a FFF7FEFF 		bl	IDAC8_1_Start
 480              	.LVL58:
 147:.\main.c      **** 	IDAC8_2_Start();
 481              		.loc 1 147 0
 482 004e FFF7FEFF 		bl	IDAC8_2_Start
 483              	.LVL59:
 148:.\main.c      **** 	PGA_1_Start();
 484              		.loc 1 148 0
 485 0052 FFF7FEFF 		bl	PGA_1_Start
 486              	.LVL60:
ARM GAS  C:\Users\Luke\AppData\Local\Temp\cc9oaS4c.s 			page 17


 149:.\main.c      ****     PGA_1_SetGain(PGA_1_GAIN_02);
 487              		.loc 1 149 0
 488 0056 0120     		movs	r0, #1
 489 0058 FFF7FEFF 		bl	PGA_1_SetGain
 490              	.LVL61:
 150:.\main.c      ****     Filter_Start();
 491              		.loc 1 150 0
 492 005c FFF7FEFF 		bl	Filter_Start
 493              	.LVL62:
 151:.\main.c      **** 	Filter_SetCoherency(Filter_CHANNEL_A,Filter_KEY_MID);
 494              		.loc 1 151 0
 495 0060 0020     		movs	r0, #0
 496 0062 0121     		movs	r1, #1
 497 0064 FFF7FEFF 		bl	Filter_SetCoherency
 498              	.LVL63:
 152:.\main.c      **** 	LCD_Start();
 499              		.loc 1 152 0
 500 0068 FFF7FEFF 		bl	LCD_Start
 501              	.LVL64:
 153:.\main.c      **** 	Counter_1_Start();
 502              		.loc 1 153 0
 503 006c FFF7FEFF 		bl	Counter_1_Start
 504              	.LVL65:
 156:.\main.c      ****     DMA_Config();
 505              		.loc 1 156 0
 506 0070 FFF7FEFF 		bl	DMA_Config
 507              	.LVL66:
 159:.\main.c      **** 	pid_init(&pid1, 50, 10, 10, 100000, pid1_write);
 508              		.loc 1 159 0
 509 0074 6E4B     		ldr	r3, .L49+12
 510 0076 6F48     		ldr	r0, .L49+16
 511 0078 0A22     		movs	r2, #10
 512 007a 0093     		str	r3, [sp, #0]
 513 007c 0190     		str	r0, [sp, #4]
 514 007e 3221     		movs	r1, #50
 515 0080 6D48     		ldr	r0, .L49+20
 516 0082 1346     		mov	r3, r2
 517 0084 FFF7FEFF 		bl	pid_init
 518              	.LVL67:
 162:.\main.c      ****     CYGlobalIntEnable;
 519              		.loc 1 162 0
 520              	@ 162 ".\main.c" 1
 521 0088 62B6     		CPSIE   i
 522              	@ 0 "" 2
 125:.\main.c      **** 	int counter = 0;
 523              		.loc 1 125 0
 524              		.thumb
 525 008a 0025     		movs	r5, #0
 526              	.LVL68:
 527              	.L34:
 167:.\main.c      **** 		if(filterStatus)
 528              		.loc 1 167 0
 529 008c 6B4C     		ldr	r4, .L49+24
 530 008e E17A     		ldrb	r1, [r4, #11]	@ zero_extendqisi2
 531 0090 C1B1     		cbz	r1, .L23
 169:.\main.c      **** 			LCD_Position(1u, 0u);
 532              		.loc 1 169 0
ARM GAS  C:\Users\Luke\AppData\Local\Temp\cc9oaS4c.s 			page 18


 533 0092 0120     		movs	r0, #1
 534 0094 0021     		movs	r1, #0
 535 0096 FFF7FEFF 		bl	LCD_Position
 536              	.LVL69:
 172:.\main.c      **** 			filterRead = filter_read;
 537              		.loc 1 172 0
 538 009a A67A     		ldrb	r6, [r4, #10]	@ zero_extendqisi2
 539              	.LVL70:
 174:.\main.c      **** 			if(filterRead < 10) {
 540              		.loc 1 174 0
 541 009c 092E     		cmp	r6, #9
 542 009e 01D8     		bhi	.L24
 175:.\main.c      **** 			LCD_PrintString("  ");			
 543              		.loc 1 175 0
 544 00a0 6748     		ldr	r0, .L49+28
 545 00a2 02E0     		b	.L47
 546              	.L24:
 176:.\main.c      **** 			} else if(filterRead < 100) {
 547              		.loc 1 176 0
 548 00a4 632E     		cmp	r6, #99
 549 00a6 02D8     		bhi	.L25
 177:.\main.c      **** 			LCD_PrintString(" ");			
 550              		.loc 1 177 0
 551 00a8 6648     		ldr	r0, .L49+32
 552              	.L47:
 553 00aa FFF7FEFF 		bl	LCD_PrintString
 554              	.LVL71:
 555              	.L25:
 180:.\main.c      **** 			sprintf(buffer, "%i", filterRead);
 556              		.loc 1 180 0
 557 00ae 3246     		mov	r2, r6
 558 00b0 6549     		ldr	r1, .L49+36
 559 00b2 02A8     		add	r0, sp, #8
 560 00b4 FFF7FEFF 		bl	sprintf
 561              	.LVL72:
 182:.\main.c      **** 			filterStatus=0;
 562              		.loc 1 182 0
 563 00b8 604F     		ldr	r7, .L49+24
 181:.\main.c      **** 			LCD_PrintString(buffer);
 564              		.loc 1 181 0
 565 00ba 02A8     		add	r0, sp, #8
 566 00bc FFF7FEFF 		bl	LCD_PrintString
 567              	.LVL73:
 182:.\main.c      **** 			filterStatus=0;
 568              		.loc 1 182 0
 569 00c0 0022     		movs	r2, #0
 570 00c2 FA72     		strb	r2, [r7, #11]
 571              	.LVL74:
 572              	.L23:
 185:.\main.c      **** 		if(faultStatus) {
 573              		.loc 1 185 0
 574 00c4 5D4C     		ldr	r4, .L49+24
 575 00c6 2078     		ldrb	r0, [r4, #0]	@ zero_extendqisi2
 576 00c8 88B1     		cbz	r0, .L26
 186:.\main.c      **** 			LCD_Position(0u, 0u);
 577              		.loc 1 186 0
 578 00ca 0020     		movs	r0, #0
ARM GAS  C:\Users\Luke\AppData\Local\Temp\cc9oaS4c.s 			page 19


 579 00cc 0146     		mov	r1, r0
 580 00ce FFF7FEFF 		bl	LCD_Position
 581              	.LVL75:
 187:.\main.c      **** 			LCD_PrintString("ERROR");
 582              		.loc 1 187 0
 583 00d2 5E48     		ldr	r0, .L49+40
 584 00d4 FFF7FEFF 		bl	LCD_PrintString
 585              	.LVL76:
 188:.\main.c      **** 			LCD_Position(1u,5u);
 586              		.loc 1 188 0
 587 00d8 0120     		movs	r0, #1
 588 00da 0521     		movs	r1, #5
 589 00dc FFF7FEFF 		bl	LCD_Position
 590              	.LVL77:
 189:.\main.c      **** 			sprintf(buffer, "%u", (unsigned int)eventcounter);
 591              		.loc 1 189 0
 592 00e0 02A8     		add	r0, sp, #8
 593 00e2 5B49     		ldr	r1, .L49+44
 594 00e4 6268     		ldr	r2, [r4, #4]
 595 00e6 FFF7FEFF 		bl	sprintf
 596              	.LVL78:
 190:.\main.c      **** 			LCD_PrintString(buffer);
 597              		.loc 1 190 0
 598 00ea 02A8     		add	r0, sp, #8
 599 00ec 03E0     		b	.L48
 600              	.L26:
 194:.\main.c      **** 			LCD_Position(0u, 0u);
 601              		.loc 1 194 0
 602 00ee 0146     		mov	r1, r0
 603 00f0 FFF7FEFF 		bl	LCD_Position
 604              	.LVL79:
 195:.\main.c      **** 			LCD_PrintString("OK   ");
 605              		.loc 1 195 0
 606 00f4 5748     		ldr	r0, .L49+48
 607              	.L48:
 198:.\main.c      **** 		if(pidStatus) { // executes every second, driven by a timer interrupt
 608              		.loc 1 198 0
 609 00f6 514E     		ldr	r6, .L49+24
 195:.\main.c      **** 			LCD_PrintString("OK   ");
 610              		.loc 1 195 0
 611 00f8 FFF7FEFF 		bl	LCD_PrintString
 612              	.LVL80:
 198:.\main.c      **** 		if(pidStatus) { // executes every second, driven by a timer interrupt
 613              		.loc 1 198 0
 614 00fc 337A     		ldrb	r3, [r6, #8]	@ zero_extendqisi2
 615 00fe 002B     		cmp	r3, #0
 616 0100 6BD0     		beq	.L28
 199:.\main.c      **** 			ADCtemp_read = ADC_DelSig_1_GetResult32();
 617              		.loc 1 199 0
 618 0102 FFF7FEFF 		bl	ADC_DelSig_1_GetResult32
 619              	.LVL81:
 200:.\main.c      **** 			Temperature = calc_temperature(ADCtemp_read);
 620              		.loc 1 200 0
 621 0106 FFF7FEFF 		bl	calc_temperature
 622              	.LVL82:
 623 010a 534C     		ldr	r4, .L49+52
 202:.\main.c      **** 			pid_calc(&pid1, setpoint,(int32_t)(Temperature*100),1000);
ARM GAS  C:\Users\Luke\AppData\Local\Temp\cc9oaS4c.s 			page 20


 624              		.loc 1 202 0
 625 010c 5349     		ldr	r1, .L49+56
 200:.\main.c      **** 			Temperature = calc_temperature(ADCtemp_read);
 626              		.loc 1 200 0
 627 010e 2060     		str	r0, [r4, #0]	@ float
 202:.\main.c      **** 			pid_calc(&pid1, setpoint,(int32_t)(Temperature*100),1000);
 628              		.loc 1 202 0
 629 0110 0F88     		ldrh	r7, [r1, #0]
 630 0112 5349     		ldr	r1, .L49+60
 631 0114 FFF7FEFF 		bl	__aeabi_fmul
 632              	.LVL83:
 633 0118 FFF7FEFF 		bl	__aeabi_f2iz
 634              	.LVL84:
 635 011c 4FF47A73 		mov	r3, #1000
 636 0120 0246     		mov	r2, r0
 637 0122 3946     		mov	r1, r7
 638 0124 4448     		ldr	r0, .L49+20
 639 0126 FFF7FEFF 		bl	pid_calc
 640              	.LVL85:
 204:.\main.c      **** 			LCD_Position(0u,5u);
 641              		.loc 1 204 0
 642 012a 0521     		movs	r1, #5
 643 012c 0020     		movs	r0, #0
 644 012e FFF7FEFF 		bl	LCD_Position
 645              	.LVL86:
 205:.\main.c      **** 			buffer[0] = ((int)Temperature / 100) % 10 + '0';
 646              		.loc 1 205 0
 647 0132 2768     		ldr	r7, [r4, #0]	@ float
 648 0134 0A24     		movs	r4, #10
 649 0136 3846     		mov	r0, r7
 650 0138 FFF7FEFF 		bl	__aeabi_f2iz
 651              	.LVL87:
 652 013c 6422     		movs	r2, #100
 653 013e 90FBF2F3 		sdiv	r3, r0, r2
 654 0142 93FBF4F1 		sdiv	r1, r3, r4
 655 0146 04FB1132 		mls	r2, r4, r1, r3
 206:.\main.c      **** 			buffer[1] = ((int)Temperature / 10) % 10 + '0';
 656              		.loc 1 206 0
 657 014a 90FBF4F3 		sdiv	r3, r0, r4
 658 014e 93FBF4F1 		sdiv	r1, r3, r4
 207:.\main.c      **** 			buffer[2] = ((int)Temperature  % 10) + '0';
 659              		.loc 1 207 0
 660 0152 04FB1300 		mls	r0, r4, r3, r0
 205:.\main.c      **** 			buffer[0] = ((int)Temperature / 100) % 10 + '0';
 661              		.loc 1 205 0
 662 0156 3032     		adds	r2, r2, #48
 663 0158 8DF80820 		strb	r2, [sp, #8]
 206:.\main.c      **** 			buffer[1] = ((int)Temperature / 10) % 10 + '0';
 664              		.loc 1 206 0
 665 015c 04FB1132 		mls	r2, r4, r1, r3
 207:.\main.c      **** 			buffer[2] = ((int)Temperature  % 10) + '0';
 666              		.loc 1 207 0
 667 0160 3030     		adds	r0, r0, #48
 208:.\main.c      **** 			buffer[3] = '.';
 668              		.loc 1 208 0
 669 0162 2E23     		movs	r3, #46
 206:.\main.c      **** 			buffer[1] = ((int)Temperature / 10) % 10 + '0';
ARM GAS  C:\Users\Luke\AppData\Local\Temp\cc9oaS4c.s 			page 21


 670              		.loc 1 206 0
 671 0164 3032     		adds	r2, r2, #48
 209:.\main.c      **** 			buffer[4] = (int)(Temperature * 10) % 10 + '0';
 672              		.loc 1 209 0
 673 0166 3F49     		ldr	r1, .L49+64
 207:.\main.c      **** 			buffer[2] = ((int)Temperature  % 10) + '0';
 674              		.loc 1 207 0
 675 0168 8DF80A00 		strb	r0, [sp, #10]
 209:.\main.c      **** 			buffer[4] = (int)(Temperature * 10) % 10 + '0';
 676              		.loc 1 209 0
 677 016c 3846     		mov	r0, r7
 208:.\main.c      **** 			buffer[3] = '.';
 678              		.loc 1 208 0
 679 016e 8DF80B30 		strb	r3, [sp, #11]
 206:.\main.c      **** 			buffer[1] = ((int)Temperature / 10) % 10 + '0';
 680              		.loc 1 206 0
 681 0172 8DF80920 		strb	r2, [sp, #9]
 209:.\main.c      **** 			buffer[4] = (int)(Temperature * 10) % 10 + '0';
 682              		.loc 1 209 0
 683 0176 FFF7FEFF 		bl	__aeabi_fmul
 684              	.LVL88:
 685 017a FFF7FEFF 		bl	__aeabi_f2iz
 686              	.LVL89:
 687 017e 90FBF4F1 		sdiv	r1, r0, r4
 688 0182 01FB1402 		mls	r2, r1, r4, r0
 689 0186 02F13000 		add	r0, r2, #48
 210:.\main.c      **** 			buffer[5] = (int)(Temperature * 100) % 10 + '0';
 690              		.loc 1 210 0
 691 018a 3549     		ldr	r1, .L49+60
 209:.\main.c      **** 			buffer[4] = (int)(Temperature * 10) % 10 + '0';
 692              		.loc 1 209 0
 693 018c 8DF80C00 		strb	r0, [sp, #12]
 210:.\main.c      **** 			buffer[5] = (int)(Temperature * 100) % 10 + '0';
 694              		.loc 1 210 0
 695 0190 3846     		mov	r0, r7
 696 0192 FFF7FEFF 		bl	__aeabi_fmul
 697              	.LVL90:
 698 0196 FFF7FEFF 		bl	__aeabi_f2iz
 699              	.LVL91:
 700 019a 90FBF4F7 		sdiv	r7, r0, r4
 701 019e 07FB1404 		mls	r4, r7, r4, r0
 211:.\main.c      **** 			buffer[6] = '\0';
 702              		.loc 1 211 0
 703 01a2 0027     		movs	r7, #0
 210:.\main.c      **** 			buffer[5] = (int)(Temperature * 100) % 10 + '0';
 704              		.loc 1 210 0
 705 01a4 04F13003 		add	r3, r4, #48
 213:.\main.c      **** 			LCD_PrintString(buffer);
 706              		.loc 1 213 0
 707 01a8 02A8     		add	r0, sp, #8
 210:.\main.c      **** 			buffer[5] = (int)(Temperature * 100) % 10 + '0';
 708              		.loc 1 210 0
 709 01aa 8DF80D30 		strb	r3, [sp, #13]
 211:.\main.c      **** 			buffer[6] = '\0';
 710              		.loc 1 211 0
 711 01ae 8DF80E70 		strb	r7, [sp, #14]
 213:.\main.c      **** 			LCD_PrintString(buffer);
ARM GAS  C:\Users\Luke\AppData\Local\Temp\cc9oaS4c.s 			page 22


 712              		.loc 1 213 0
 713 01b2 FFF7FEFF 		bl	LCD_PrintString
 714              	.LVL92:
 215:.\main.c      **** 			pidStatus=0;
 715              		.loc 1 215 0
 716 01b6 3772     		strb	r7, [r6, #8]
 216:.\main.c      **** 			if(faultStatus)
 717              		.loc 1 216 0
 718 01b8 3678     		ldrb	r6, [r6, #0]	@ zero_extendqisi2
 719 01ba 06B1     		cbz	r6, .L29
 217:.\main.c      **** 				counter++;
 720              		.loc 1 217 0
 721 01bc 0135     		adds	r5, r5, #1
 722              	.LVL93:
 723              	.L29:
 218:.\main.c      **** 			if(counter >= 10) {
 724              		.loc 1 218 0
 725 01be 092D     		cmp	r5, #9
 726 01c0 0BDD     		ble	.L28
 219:.\main.c      **** 				faultStatus = 0;
 727              		.loc 1 219 0
 728 01c2 1E49     		ldr	r1, .L49+24
 729 01c4 0025     		movs	r5, #0
 730              	.LVL94:
 221:.\main.c      **** 				Control_RS_Write(0xff);
 731              		.loc 1 221 0
 732 01c6 FF20     		movs	r0, #255
 219:.\main.c      **** 				faultStatus = 0;
 733              		.loc 1 219 0
 734 01c8 0D70     		strb	r5, [r1, #0]
 735              	.LVL95:
 221:.\main.c      **** 				Control_RS_Write(0xff);
 736              		.loc 1 221 0
 737 01ca FFF7FEFF 		bl	Control_RS_Write
 738              	.LVL96:
 222:.\main.c      **** 				CyDelayUs(10);
 739              		.loc 1 222 0
 740 01ce 0A20     		movs	r0, #10
 741 01d0 FFF7FEFF 		bl	CyDelayUs
 742              	.LVL97:
 223:.\main.c      **** 				Control_RS_Write(0x00);
 743              		.loc 1 223 0
 744 01d4 2846     		mov	r0, r5
 745 01d6 FFF7FEFF 		bl	Control_RS_Write
 746              	.LVL98:
 747              	.L28:
 229:.\main.c      ****         temp = VUSB_Read();
 748              		.loc 1 229 0
 749 01da FFF7FEFF 		bl	VUSB_Read
 750              	.LVL99:
 751 01de 224C     		ldr	r4, .L49+68
 230:.\main.c      ****         if(temp) {
 752              		.loc 1 230 0
 753 01e0 0746     		mov	r7, r0
 754 01e2 78B1     		cbz	r0, .L30
 755              	.LVL100:
 232:.\main.c      ****             LCD_Position(1u,5u);
ARM GAS  C:\Users\Luke\AppData\Local\Temp\cc9oaS4c.s 			page 23


 756              		.loc 1 232 0
 757 01e4 0120     		movs	r0, #1
 758              	.LVL101:
 759 01e6 0521     		movs	r1, #5
 760 01e8 FFF7FEFF 		bl	LCD_Position
 761              	.LVL102:
 231:.\main.c      ****             temp = '0' + temp;
 762              		.loc 1 231 0
 763 01ec 07F13000 		add	r0, r7, #48
 233:.\main.c      ****             LCD_PutChar(temp);
 764              		.loc 1 233 0
 765 01f0 C0B2     		uxtb	r0, r0
 766 01f2 FFF7FEFF 		bl	LCD_PutChar
 767              	.LVL103:
 235:.\main.c      ****             if(USBUART_1_initVar == 0u)
 768              		.loc 1 235 0
 769 01f6 2378     		ldrb	r3, [r4, #0]	@ zero_extendqisi2
 770 01f8 0BB9     		cbnz	r3, .L31
 236:.\main.c      ****                 USB_init();
 771              		.loc 1 236 0
 772 01fa FFF7FEFF 		bl	USB_init
 773              	.LVL104:
 774              	.L31:
 237:.\main.c      ****             cliProcess();
 775              		.loc 1 237 0
 776 01fe FFF7FEFF 		bl	cliProcess
 777              	.LVL105:
 778 0202 0AE0     		b	.L32
 779              	.LVL106:
 780              	.L30:
 240:.\main.c      ****             if(USBUART_1_initVar)
 781              		.loc 1 240 0
 782 0204 2278     		ldrb	r2, [r4, #0]	@ zero_extendqisi2
 783 0206 0AB1     		cbz	r2, .L33
 241:.\main.c      ****                 USBUART_1_Stop();
 784              		.loc 1 241 0
 785 0208 FFF7FEFF 		bl	USBUART_1_Stop
 786              	.LVL107:
 787              	.L33:
 243:.\main.c      ****             LCD_Position(1u,5u);
 788              		.loc 1 243 0
 789 020c 0120     		movs	r0, #1
 790 020e 0521     		movs	r1, #5
 791 0210 FFF7FEFF 		bl	LCD_Position
 792              	.LVL108:
 245:.\main.c      ****             LCD_PutChar(temp);
 793              		.loc 1 245 0
 794 0214 3020     		movs	r0, #48
 795 0216 FFF7FEFF 		bl	LCD_PutChar
 796              	.LVL109:
 797              	.L32:
 248:.\main.c      **** 		dac_offset = ADC_SAR_2_GetResult8();
 798              		.loc 1 248 0
 799 021a FFF7FEFF 		bl	ADC_SAR_2_GetResult8
 800              	.LVL110:
 801 021e 074E     		ldr	r6, .L49+24
 802 0220 7072     		strb	r0, [r6, #9]
ARM GAS  C:\Users\Luke\AppData\Local\Temp\cc9oaS4c.s 			page 24


 250:.\main.c      ****     }
 803              		.loc 1 250 0
 804 0222 33E7     		b	.L34
 805              	.L50:
 806              		.align	2
 807              	.L49:
 808 0224 00000000 		.word	filterVDAC
 809 0228 00000000 		.word	faultISR
 810 022c 00000000 		.word	pidISR
 811 0230 A0860100 		.word	100000
 812 0234 00000000 		.word	pid1_write
 813 0238 00000000 		.word	pid1
 814 023c 00000000 		.word	.LANCHOR0
 815 0240 00000000 		.word	.LC0
 816 0244 03000000 		.word	.LC1
 817 0248 05000000 		.word	.LC2
 818 024c 08000000 		.word	.LC3
 819 0250 0E000000 		.word	.LC4
 820 0254 11000000 		.word	.LC5
 821 0258 00000000 		.word	Temperature
 822 025c 00000000 		.word	.LANCHOR1
 823 0260 0000C842 		.word	1120403456
 824 0264 00002041 		.word	1092616192
 825 0268 00000000 		.word	USBUART_1_initVar
 826              		.cfi_endproc
 827              	.LFE59:
 828              		.size	main, .-main
 829              		.comm	Temperature,4,4
 830              		.global	setpoint
 831              		.comm	pid1,28,4
 832              		.global	dac_offset
 833              		.global	filter_readold
 834              		.global	filter_read
 835              		.global	pidStatus
 836              		.global	faultStatus
 837              		.global	cliMode
 838              		.global	filterStatus
 839              		.global	eventcounter
 840              		.section	.rodata.str1.1,"aMS",%progbits,1
 841              	.LC0:
 842 0000 202000   		.ascii	"  \000"
 843              	.LC1:
 844 0003 2000     		.ascii	" \000"
 845              	.LC2:
 846 0005 256900   		.ascii	"%i\000"
 847              	.LC3:
 848 0008 4552524F 		.ascii	"ERROR\000"
 848      5200
 849              	.LC4:
 850 000e 257500   		.ascii	"%u\000"
 851              	.LC5:
 852 0011 4F4B2020 		.ascii	"OK   \000"
 852      2000
 853              		.data
 854              		.align	1
 855              		.set	.LANCHOR1,. + 0
 856              		.type	setpoint, %object
ARM GAS  C:\Users\Luke\AppData\Local\Temp\cc9oaS4c.s 			page 25


 857              		.size	setpoint, 2
 858              	setpoint:
 859 0000 B80B     		.short	3000
 860              		.bss
 861              		.align	2
 862              		.set	.LANCHOR0,. + 0
 863              		.type	faultStatus, %object
 864              		.size	faultStatus, 1
 865              	faultStatus:
 866 0000 00       		.space	1
 867 0001 000000   		.space	3
 868              		.type	eventcounter, %object
 869              		.size	eventcounter, 4
 870              	eventcounter:
 871 0004 00000000 		.space	4
 872              		.type	pidStatus, %object
 873              		.size	pidStatus, 1
 874              	pidStatus:
 875 0008 00       		.space	1
 876              		.type	dac_offset, %object
 877              		.size	dac_offset, 1
 878              	dac_offset:
 879 0009 00       		.space	1
 880              		.type	filter_read, %object
 881              		.size	filter_read, 1
 882              	filter_read:
 883 000a 00       		.space	1
 884              		.type	filterStatus, %object
 885              		.size	filterStatus, 1
 886              	filterStatus:
 887 000b 00       		.space	1
 888              		.type	filter_readold, %object
 889              		.size	filter_readold, 1
 890              	filter_readold:
 891 000c 00       		.space	1
 892              		.type	cliMode, %object
 893              		.size	cliMode, 1
 894              	cliMode:
 895 000d 00       		.space	1
 896 000e 0000     		.text
 897              	.Letext0:
 898              		.file 2 "c:\\program files\\cypress\\psoc creator\\3.0\\psoc creator\\import\\gnu_cs\\arm\\4.7.3\\
 899              		.file 3 "./Generated_Source/PSoC5/cytypes.h"
 900              		.file 4 ".\\pid.h"
 901              		.file 5 "./Generated_Source/PSoC5/USBUART_1.h"
 902              		.file 6 "./Generated_Source/PSoC5/core_cm3.h"
 903              		.file 7 "./Generated_Source/PSoC5/IDAC8_1.h"
 904              		.file 8 "./Generated_Source/PSoC5/IDAC8_2.h"
 905              		.file 9 "./Generated_Source/PSoC5/VDAC8.h"
 906              		.file 10 "./Generated_Source/PSoC5/Counter_1.h"
 907              		.file 11 "./Generated_Source/PSoC5/CYDMAC.H"
 908              		.file 12 "./Generated_Source/PSoC5/DMA_dma.h"
 909              		.file 13 "c:\\program files\\cypress\\psoc creator\\3.0\\psoc creator\\import\\gnu_cs\\arm\\4.7.3\
 910              		.file 14 "./Generated_Source/PSoC5/isr.h"
 911              		.file 15 "./Generated_Source/PSoC5/USBUART_1_cdc.h"
 912              		.file 16 "./Generated_Source/PSoC5/ADC_SAR_1.h"
 913              		.file 17 "./Generated_Source/PSoC5/ADC_SAR_2.h"
ARM GAS  C:\Users\Luke\AppData\Local\Temp\cc9oaS4c.s 			page 26


 914              		.file 18 "./Generated_Source/PSoC5/ADC_DelSig_1.h"
 915              		.file 19 "./Generated_Source/PSoC5/Fault_isr.h"
 916              		.file 20 "./Generated_Source/PSoC5/PID_isr.h"
 917              		.file 21 "./Generated_Source/PSoC5/Comp_1.h"
 918              		.file 22 "./Generated_Source/PSoC5/Comp_2.h"
 919              		.file 23 "./Generated_Source/PSoC5/Comp_3.h"
 920              		.file 24 "./Generated_Source/PSoC5/PGA_1.h"
 921              		.file 25 "./Generated_Source/PSoC5/Filter.h"
 922              		.file 26 "./Generated_Source/PSoC5/LCD.h"
 923              		.file 27 "c:\\program files\\cypress\\psoc creator\\3.0\\psoc creator\\import\\gnu_cs\\arm\\4.7.3\
 924              		.file 28 "./Generated_Source/PSoC5/Control_RS.h"
 925              		.file 29 "./Generated_Source/PSoC5/CyLib.h"
 926              		.file 30 "./Generated_Source/PSoC5/VUSB.h"
 927              		.file 31 ".\\cli.h"