ARM GAS  C:\Users\Luke\AppData\Local\Temp\ccxFQHlf.s 			page 1


   1              		.syntax unified
   2              		.cpu cortex-m3
   3              		.fpu softvfp
   4              		.eabi_attribute 20, 1
   5              		.eabi_attribute 21, 1
   6              		.eabi_attribute 23, 3
   7              		.eabi_attribute 24, 1
   8              		.eabi_attribute 25, 1
   9              		.eabi_attribute 26, 1
  10              		.eabi_attribute 30, 4
  11              		.eabi_attribute 34, 1
  12              		.eabi_attribute 18, 4
  13              		.thumb
  14              		.file	"pid.c"
  15              		.text
  16              	.Ltext0:
  17              		.cfi_sections	.debug_frame
  18              		.section	.text.pid_init,"ax",%progbits
  19              		.align	1
  20              		.global	pid_init
  21              		.thumb
  22              		.thumb_func
  23              		.type	pid_init, %function
  24              	pid_init:
  25              	.LFB0:
  26              		.file 1 ".\\pid.c"
   1:.\pid.c       **** /* ========================================
   2:.\pid.c       ****  *
   3:.\pid.c       ****  * Copyright YOUR COMPANY, THE YEAR
   4:.\pid.c       ****  * All Rights Reserved
   5:.\pid.c       ****  * UNPUBLISHED, LICENSED SOFTWARE.
   6:.\pid.c       ****  *
   7:.\pid.c       ****  * CONFIDENTIAL AND PROPRIETARY INFORMATION
   8:.\pid.c       ****  * WHICH IS THE PROPERTY OF your company.
   9:.\pid.c       ****  *
  10:.\pid.c       ****  * ========================================
  11:.\pid.c       **** */
  12:.\pid.c       **** #include "pid.h"
  13:.\pid.c       **** 
  14:.\pid.c       **** /* 
  15:.\pid.c       **** Pid initialisation 
  16:.\pid.c       **** P = P/10
  17:.\pid.c       **** I = I/100
  18:.\pid.c       **** D = D/100
  19:.\pid.c       **** */
  20:.\pid.c       **** void pid_init(pid *pidData, uint32_t P, uint32_t I, uint32_t D, int32_t windup, outputFunctionPtr o
  21:.\pid.c       **** {
  27              		.loc 1 21 0
  28              		.cfi_startproc
  29              		@ args = 8, pretend = 0, frame = 0
  30              		@ frame_needed = 0, uses_anonymous_args = 0
  31              		@ link register save eliminated.
  32              	.LVL0:
  22:.\pid.c       **** 	pidData->P = P;
  23:.\pid.c       **** 	pidData->I = I;
  24:.\pid.c       **** 	pidData->D = D;
  33              		.loc 1 24 0
ARM GAS  C:\Users\Luke\AppData\Local\Temp\ccxFQHlf.s 			page 2


  34 0000 80E80E00 		stmia	r0, {r1, r2, r3}
  25:.\pid.c       **** 	
  26:.\pid.c       **** 	pidData->windup = windup;
  35              		.loc 1 26 0
  36 0004 009B     		ldr	r3, [sp, #0]
  37              	.LVL1:
  27:.\pid.c       **** 	pidData->Iterm = 0;
  28:.\pid.c       **** 	pidData->old_pv = 0;	
  29:.\pid.c       **** 	pidData->write = outputPtr;
  38              		.loc 1 29 0
  39 0006 019A     		ldr	r2, [sp, #4]
  40              	.LVL2:
  27:.\pid.c       **** 	pidData->Iterm = 0;
  41              		.loc 1 27 0
  42 0008 0021     		movs	r1, #0
  43              	.LVL3:
  26:.\pid.c       **** 	pidData->windup = windup;
  44              		.loc 1 26 0
  45 000a 4361     		str	r3, [r0, #20]
  27:.\pid.c       **** 	pidData->Iterm = 0;
  46              		.loc 1 27 0
  47 000c C160     		str	r1, [r0, #12]
  28:.\pid.c       **** 	pidData->old_pv = 0;	
  48              		.loc 1 28 0
  49 000e 0161     		str	r1, [r0, #16]
  50              		.loc 1 29 0
  51 0010 8261     		str	r2, [r0, #24]
  52 0012 7047     		bx	lr
  53              		.cfi_endproc
  54              	.LFE0:
  55              		.size	pid_init, .-pid_init
  56              		.section	.text.pid_calc,"ax",%progbits
  57              		.align	1
  58              		.global	pid_calc
  59              		.thumb
  60              		.thumb_func
  61              		.type	pid_calc, %function
  62              	pid_calc:
  63              	.LFB1:
  30:.\pid.c       **** }
  31:.\pid.c       **** 
  32:.\pid.c       **** void pid_calc(pid *pidData, int32_t sp, int32_t pv, uint32_t deltaTms)
  33:.\pid.c       **** {
  64              		.loc 1 33 0
  65              		.cfi_startproc
  66              		@ args = 0, pretend = 0, frame = 0
  67              		@ frame_needed = 0, uses_anonymous_args = 0
  68              	.LVL4:
  69 0000 70B5     		push	{r4, r5, r6, lr}
  70              	.LCFI0:
  71              		.cfi_def_cfa_offset 16
  72              		.cfi_offset 4, -16
  73              		.cfi_offset 5, -12
  74              		.cfi_offset 6, -8
  75              		.cfi_offset 14, -4
  34:.\pid.c       **** 	int32_t error, output;
  35:.\pid.c       **** 	
ARM GAS  C:\Users\Luke\AppData\Local\Temp\ccxFQHlf.s 			page 3


  36:.\pid.c       **** 	error = sp - pv;
  37:.\pid.c       **** 	
  38:.\pid.c       **** 	pidData->Iterm += error * pidData->I;
  76              		.loc 1 38 0
  77 0002 C468     		ldr	r4, [r0, #12]
  78 0004 4568     		ldr	r5, [r0, #4]
  36:.\pid.c       **** 	error = sp - pv;
  79              		.loc 1 36 0
  80 0006 891A     		subs	r1, r1, r2
  81              	.LVL5:
  82              		.loc 1 38 0
  83 0008 05FB0146 		mla	r6, r5, r1, r4
  39:.\pid.c       **** 	pidData->Iterm = constrain(-pidData->windup, pidData->windup, pidData->Iterm);
  84              		.loc 1 39 0
  85 000c 4469     		ldr	r4, [r0, #20]
  86              	.LVL6:
  87              	.LBB4:
  88              	.LBB5:
  40:.\pid.c       **** 	
  41:.\pid.c       **** 	output = ((error * pidData->P) / 10) + ((pidData->Iterm * deltaTms) / (1000 * 100))  - (((pv - pid
  42:.\pid.c       **** 	
  43:.\pid.c       **** 	pidData->old_pv = pv;
  44:.\pid.c       **** 	
  45:.\pid.c       **** 	pidData->write(output);
  46:.\pid.c       **** }
  47:.\pid.c       **** 
  48:.\pid.c       **** int32_t constrain(int32_t min, int32_t max, int32_t value)
  49:.\pid.c       **** {
  50:.\pid.c       **** 	if(value > max)
  89              		.loc 1 50 0
  90 000e A642     		cmp	r6, r4
  91 0010 03DC     		bgt	.L3
  92              	.LBE5:
  93              	.LBE4:
  39:.\pid.c       **** 	pidData->Iterm = constrain(-pidData->windup, pidData->windup, pidData->Iterm);
  94              		.loc 1 39 0
  95 0012 6442     		negs	r4, r4
  96              	.LVL7:
  97 0014 A642     		cmp	r6, r4
  98 0016 A8BF     		it	ge
  99 0018 3446     		movge	r4, r6
 100              	.LVL8:
 101              	.L3:
  41:.\pid.c       **** 	output = ((error * pidData->P) / 10) + ((pidData->Iterm * deltaTms) / (1000 * 100))  - (((pv - pid
 102              		.loc 1 41 0
 103 001a 0568     		ldr	r5, [r0, #0]
 104 001c 8668     		ldr	r6, [r0, #8]
 105 001e 6943     		muls	r1, r5, r1
 106              	.LVL9:
 107 0020 0A25     		movs	r5, #10
 108 0022 B1FBF5F1 		udiv	r1, r1, r5
 109 0026 7543     		muls	r5, r6, r5
 110 0028 0669     		ldr	r6, [r0, #16]
  39:.\pid.c       **** 	pidData->Iterm = constrain(-pidData->windup, pidData->windup, pidData->Iterm);
 111              		.loc 1 39 0
 112 002a C460     		str	r4, [r0, #12]
  41:.\pid.c       **** 	output = ((error * pidData->P) / 10) + ((pidData->Iterm * deltaTms) / (1000 * 100))  - (((pv - pid
ARM GAS  C:\Users\Luke\AppData\Local\Temp\ccxFQHlf.s 			page 4


 113              		.loc 1 41 0
 114 002c 961B     		subs	r6, r2, r6
 115 002e 6E43     		muls	r6, r5, r6
 116 0030 B6FBF3F6 		udiv	r6, r6, r3
 117 0034 6343     		muls	r3, r4, r3
 118              	.LVL10:
 119 0036 8D1B     		subs	r5, r1, r6
 120 0038 0349     		ldr	r1, .L5
  43:.\pid.c       **** 	pidData->old_pv = pv;
 121              		.loc 1 43 0
 122 003a 0261     		str	r2, [r0, #16]
  41:.\pid.c       **** 	output = ((error * pidData->P) / 10) + ((pidData->Iterm * deltaTms) / (1000 * 100))  - (((pv - pid
 123              		.loc 1 41 0
 124 003c B3FBF1F3 		udiv	r3, r3, r1
 125              	.LVL11:
  45:.\pid.c       **** 	pidData->write(output);
 126              		.loc 1 45 0
 127 0040 8269     		ldr	r2, [r0, #24]
 128              	.LVL12:
 129 0042 E818     		adds	r0, r5, r3
 130              	.LVL13:
 131 0044 9047     		blx	r2
 132              	.LVL14:
 133 0046 70BD     		pop	{r4, r5, r6, pc}
 134              	.L6:
 135              		.align	2
 136              	.L5:
 137 0048 A0860100 		.word	100000
 138              		.cfi_endproc
 139              	.LFE1:
 140              		.size	pid_calc, .-pid_calc
 141              		.section	.text.constrain,"ax",%progbits
 142              		.align	1
 143              		.global	constrain
 144              		.thumb
 145              		.thumb_func
 146              		.type	constrain, %function
 147              	constrain:
 148              	.LFB2:
  49:.\pid.c       **** {
 149              		.loc 1 49 0
 150              		.cfi_startproc
 151              		@ args = 0, pretend = 0, frame = 0
 152              		@ frame_needed = 0, uses_anonymous_args = 0
 153              		@ link register save eliminated.
 154              	.LVL15:
 155              		.loc 1 50 0
 156 0000 8A42     		cmp	r2, r1
 157 0002 03DC     		bgt	.L9
 158 0004 8242     		cmp	r2, r0
 159 0006 A8BF     		it	ge
 160 0008 1046     		movge	r0, r2
 161              	.LVL16:
 162 000a 7047     		bx	lr
 163              	.LVL17:
 164              	.L9:
 165 000c 0846     		mov	r0, r1
ARM GAS  C:\Users\Luke\AppData\Local\Temp\ccxFQHlf.s 			page 5


 166              	.LVL18:
  51:.\pid.c       **** 		value = max;
  52:.\pid.c       **** 	else if(value < min)
  53:.\pid.c       **** 		value = min;
  54:.\pid.c       **** 	
  55:.\pid.c       **** 	return value;
  56:.\pid.c       **** }
 167              		.loc 1 56 0
 168 000e 7047     		bx	lr
 169              		.cfi_endproc
 170              	.LFE2:
 171              		.size	constrain, .-constrain
 172              		.text
 173              	.Letext0:
 174              		.file 2 "c:\\program files\\cypress\\psoc creator\\3.0\\psoc creator\\import\\gnu_cs\\arm\\4.7.3\\
 175              		.file 3 ".\\pid.h"