ARM GAS  C:\Users\Luke\AppData\Local\Temp\cctrlXA1.s 			page 1


   1              		.syntax unified
   2              		.cpu cortex-m3
   3              		.fpu softvfp
   4              		.eabi_attribute 20, 1
   5              		.eabi_attribute 21, 1
   6              		.eabi_attribute 23, 3
   7              		.eabi_attribute 24, 1
   8              		.eabi_attribute 25, 1
   9              		.eabi_attribute 26, 1
  10              		.eabi_attribute 30, 4
  11              		.eabi_attribute 34, 1
  12              		.eabi_attribute 18, 4
  13              		.thumb
  14              		.file	"PID_isr.c"
  15              		.text
  16              	.Ltext0:
  17              		.cfi_sections	.debug_frame
  18              		.section	.text.PID_isr_Interrupt,"ax",%progbits
  19              		.align	1
  20              		.global	PID_isr_Interrupt
  21              		.thumb
  22              		.thumb_func
  23              		.type	PID_isr_Interrupt, %function
  24              	PID_isr_Interrupt:
  25              	.LFB3:
  26              		.file 1 ".\\Generated_Source\\PSoC5\\PID_isr.c"
   1:.\Generated_Source\PSoC5/PID_isr.c **** /*******************************************************************************
   2:.\Generated_Source\PSoC5/PID_isr.c **** * File Name: PID_isr.c  
   3:.\Generated_Source\PSoC5/PID_isr.c **** * Version 1.70
   4:.\Generated_Source\PSoC5/PID_isr.c **** *
   5:.\Generated_Source\PSoC5/PID_isr.c **** *  Description:
   6:.\Generated_Source\PSoC5/PID_isr.c **** *   API for controlling the state of an interrupt.
   7:.\Generated_Source\PSoC5/PID_isr.c **** *
   8:.\Generated_Source\PSoC5/PID_isr.c **** *
   9:.\Generated_Source\PSoC5/PID_isr.c **** *  Note:
  10:.\Generated_Source\PSoC5/PID_isr.c **** *
  11:.\Generated_Source\PSoC5/PID_isr.c **** ********************************************************************************
  12:.\Generated_Source\PSoC5/PID_isr.c **** * Copyright 2008-2012, Cypress Semiconductor Corporation.  All rights reserved.
  13:.\Generated_Source\PSoC5/PID_isr.c **** * You may use this file only in accordance with the license, terms, conditions, 
  14:.\Generated_Source\PSoC5/PID_isr.c **** * disclaimers, and limitations in the end user license agreement accompanying 
  15:.\Generated_Source\PSoC5/PID_isr.c **** * the software package with which this file was provided.
  16:.\Generated_Source\PSoC5/PID_isr.c **** *******************************************************************************/
  17:.\Generated_Source\PSoC5/PID_isr.c **** 
  18:.\Generated_Source\PSoC5/PID_isr.c **** 
  19:.\Generated_Source\PSoC5/PID_isr.c **** #include <cydevice_trm.h>
  20:.\Generated_Source\PSoC5/PID_isr.c **** #include <CyLib.h>
  21:.\Generated_Source\PSoC5/PID_isr.c **** #include <PID_isr.h>
  22:.\Generated_Source\PSoC5/PID_isr.c **** 
  23:.\Generated_Source\PSoC5/PID_isr.c **** #if !defined(PID_isr__REMOVED) /* Check for removal by optimization */
  24:.\Generated_Source\PSoC5/PID_isr.c **** 
  25:.\Generated_Source\PSoC5/PID_isr.c **** /*******************************************************************************
  26:.\Generated_Source\PSoC5/PID_isr.c **** *  Place your includes, defines and code here 
  27:.\Generated_Source\PSoC5/PID_isr.c **** ********************************************************************************/
  28:.\Generated_Source\PSoC5/PID_isr.c **** /* `#START PID_isr_intc` */
  29:.\Generated_Source\PSoC5/PID_isr.c **** 
  30:.\Generated_Source\PSoC5/PID_isr.c **** /* `#END` */
  31:.\Generated_Source\PSoC5/PID_isr.c **** 
ARM GAS  C:\Users\Luke\AppData\Local\Temp\cctrlXA1.s 			page 2


  32:.\Generated_Source\PSoC5/PID_isr.c **** #ifndef CYINT_IRQ_BASE
  33:.\Generated_Source\PSoC5/PID_isr.c **** #define CYINT_IRQ_BASE      16
  34:.\Generated_Source\PSoC5/PID_isr.c **** #endif /* CYINT_IRQ_BASE */
  35:.\Generated_Source\PSoC5/PID_isr.c **** #ifndef CYINT_VECT_TABLE
  36:.\Generated_Source\PSoC5/PID_isr.c **** #define CYINT_VECT_TABLE    ((cyisraddress **) CYREG_NVIC_VECT_OFFSET)
  37:.\Generated_Source\PSoC5/PID_isr.c **** #endif /* CYINT_VECT_TABLE */
  38:.\Generated_Source\PSoC5/PID_isr.c **** 
  39:.\Generated_Source\PSoC5/PID_isr.c **** /* Declared in startup, used to set unused interrupts to. */
  40:.\Generated_Source\PSoC5/PID_isr.c **** CY_ISR_PROTO(IntDefaultHandler);
  41:.\Generated_Source\PSoC5/PID_isr.c **** 
  42:.\Generated_Source\PSoC5/PID_isr.c **** 
  43:.\Generated_Source\PSoC5/PID_isr.c **** /*******************************************************************************
  44:.\Generated_Source\PSoC5/PID_isr.c **** * Function Name: PID_isr_Start
  45:.\Generated_Source\PSoC5/PID_isr.c **** ********************************************************************************
  46:.\Generated_Source\PSoC5/PID_isr.c **** *
  47:.\Generated_Source\PSoC5/PID_isr.c **** * Summary:
  48:.\Generated_Source\PSoC5/PID_isr.c **** *  Set up the interrupt and enable it.
  49:.\Generated_Source\PSoC5/PID_isr.c **** *
  50:.\Generated_Source\PSoC5/PID_isr.c **** * Parameters:  
  51:.\Generated_Source\PSoC5/PID_isr.c **** *   None
  52:.\Generated_Source\PSoC5/PID_isr.c **** *
  53:.\Generated_Source\PSoC5/PID_isr.c **** * Return:
  54:.\Generated_Source\PSoC5/PID_isr.c **** *   None
  55:.\Generated_Source\PSoC5/PID_isr.c **** *
  56:.\Generated_Source\PSoC5/PID_isr.c **** *******************************************************************************/
  57:.\Generated_Source\PSoC5/PID_isr.c **** void PID_isr_Start(void)
  58:.\Generated_Source\PSoC5/PID_isr.c **** {
  59:.\Generated_Source\PSoC5/PID_isr.c ****     /* For all we know the interrupt is active. */
  60:.\Generated_Source\PSoC5/PID_isr.c ****     PID_isr_Disable();
  61:.\Generated_Source\PSoC5/PID_isr.c **** 
  62:.\Generated_Source\PSoC5/PID_isr.c ****     /* Set the ISR to point to the PID_isr Interrupt. */
  63:.\Generated_Source\PSoC5/PID_isr.c ****     PID_isr_SetVector(&PID_isr_Interrupt);
  64:.\Generated_Source\PSoC5/PID_isr.c **** 
  65:.\Generated_Source\PSoC5/PID_isr.c ****     /* Set the priority. */
  66:.\Generated_Source\PSoC5/PID_isr.c ****     PID_isr_SetPriority((uint8)PID_isr_INTC_PRIOR_NUMBER);
  67:.\Generated_Source\PSoC5/PID_isr.c **** 
  68:.\Generated_Source\PSoC5/PID_isr.c ****     /* Enable it. */
  69:.\Generated_Source\PSoC5/PID_isr.c ****     PID_isr_Enable();
  70:.\Generated_Source\PSoC5/PID_isr.c **** }
  71:.\Generated_Source\PSoC5/PID_isr.c **** 
  72:.\Generated_Source\PSoC5/PID_isr.c **** 
  73:.\Generated_Source\PSoC5/PID_isr.c **** /*******************************************************************************
  74:.\Generated_Source\PSoC5/PID_isr.c **** * Function Name: PID_isr_StartEx
  75:.\Generated_Source\PSoC5/PID_isr.c **** ********************************************************************************
  76:.\Generated_Source\PSoC5/PID_isr.c **** *
  77:.\Generated_Source\PSoC5/PID_isr.c **** * Summary:
  78:.\Generated_Source\PSoC5/PID_isr.c **** *  Set up the interrupt and enable it.
  79:.\Generated_Source\PSoC5/PID_isr.c **** *
  80:.\Generated_Source\PSoC5/PID_isr.c **** * Parameters:  
  81:.\Generated_Source\PSoC5/PID_isr.c **** *   address: Address of the ISR to set in the interrupt vector table.
  82:.\Generated_Source\PSoC5/PID_isr.c **** *
  83:.\Generated_Source\PSoC5/PID_isr.c **** * Return:
  84:.\Generated_Source\PSoC5/PID_isr.c **** *   None
  85:.\Generated_Source\PSoC5/PID_isr.c **** *
  86:.\Generated_Source\PSoC5/PID_isr.c **** *******************************************************************************/
  87:.\Generated_Source\PSoC5/PID_isr.c **** void PID_isr_StartEx(cyisraddress address)
  88:.\Generated_Source\PSoC5/PID_isr.c **** {
ARM GAS  C:\Users\Luke\AppData\Local\Temp\cctrlXA1.s 			page 3


  89:.\Generated_Source\PSoC5/PID_isr.c ****     /* For all we know the interrupt is active. */
  90:.\Generated_Source\PSoC5/PID_isr.c ****     PID_isr_Disable();
  91:.\Generated_Source\PSoC5/PID_isr.c **** 
  92:.\Generated_Source\PSoC5/PID_isr.c ****     /* Set the ISR to point to the PID_isr Interrupt. */
  93:.\Generated_Source\PSoC5/PID_isr.c ****     PID_isr_SetVector(address);
  94:.\Generated_Source\PSoC5/PID_isr.c **** 
  95:.\Generated_Source\PSoC5/PID_isr.c ****     /* Set the priority. */
  96:.\Generated_Source\PSoC5/PID_isr.c ****     PID_isr_SetPriority((uint8)PID_isr_INTC_PRIOR_NUMBER);
  97:.\Generated_Source\PSoC5/PID_isr.c **** 
  98:.\Generated_Source\PSoC5/PID_isr.c ****     /* Enable it. */
  99:.\Generated_Source\PSoC5/PID_isr.c ****     PID_isr_Enable();
 100:.\Generated_Source\PSoC5/PID_isr.c **** }
 101:.\Generated_Source\PSoC5/PID_isr.c **** 
 102:.\Generated_Source\PSoC5/PID_isr.c **** 
 103:.\Generated_Source\PSoC5/PID_isr.c **** /*******************************************************************************
 104:.\Generated_Source\PSoC5/PID_isr.c **** * Function Name: PID_isr_Stop
 105:.\Generated_Source\PSoC5/PID_isr.c **** ********************************************************************************
 106:.\Generated_Source\PSoC5/PID_isr.c **** *
 107:.\Generated_Source\PSoC5/PID_isr.c **** * Summary:
 108:.\Generated_Source\PSoC5/PID_isr.c **** *   Disables and removes the interrupt.
 109:.\Generated_Source\PSoC5/PID_isr.c **** *
 110:.\Generated_Source\PSoC5/PID_isr.c **** * Parameters:  
 111:.\Generated_Source\PSoC5/PID_isr.c **** *
 112:.\Generated_Source\PSoC5/PID_isr.c **** * Return:
 113:.\Generated_Source\PSoC5/PID_isr.c **** *   None
 114:.\Generated_Source\PSoC5/PID_isr.c **** *
 115:.\Generated_Source\PSoC5/PID_isr.c **** *******************************************************************************/
 116:.\Generated_Source\PSoC5/PID_isr.c **** void PID_isr_Stop(void)
 117:.\Generated_Source\PSoC5/PID_isr.c **** {
 118:.\Generated_Source\PSoC5/PID_isr.c ****     /* Disable this interrupt. */
 119:.\Generated_Source\PSoC5/PID_isr.c ****     PID_isr_Disable();
 120:.\Generated_Source\PSoC5/PID_isr.c **** 
 121:.\Generated_Source\PSoC5/PID_isr.c ****     /* Set the ISR to point to the passive one. */
 122:.\Generated_Source\PSoC5/PID_isr.c ****     PID_isr_SetVector(&IntDefaultHandler);
 123:.\Generated_Source\PSoC5/PID_isr.c **** }
 124:.\Generated_Source\PSoC5/PID_isr.c **** 
 125:.\Generated_Source\PSoC5/PID_isr.c **** 
 126:.\Generated_Source\PSoC5/PID_isr.c **** /*******************************************************************************
 127:.\Generated_Source\PSoC5/PID_isr.c **** * Function Name: PID_isr_Interrupt
 128:.\Generated_Source\PSoC5/PID_isr.c **** ********************************************************************************
 129:.\Generated_Source\PSoC5/PID_isr.c **** *
 130:.\Generated_Source\PSoC5/PID_isr.c **** * Summary:
 131:.\Generated_Source\PSoC5/PID_isr.c **** *   The default Interrupt Service Routine for PID_isr.
 132:.\Generated_Source\PSoC5/PID_isr.c **** *
 133:.\Generated_Source\PSoC5/PID_isr.c **** *   Add custom code between the coments to keep the next version of this file
 134:.\Generated_Source\PSoC5/PID_isr.c **** *   from over writting your code.
 135:.\Generated_Source\PSoC5/PID_isr.c **** *
 136:.\Generated_Source\PSoC5/PID_isr.c **** * Parameters:  
 137:.\Generated_Source\PSoC5/PID_isr.c **** *
 138:.\Generated_Source\PSoC5/PID_isr.c **** * Return:
 139:.\Generated_Source\PSoC5/PID_isr.c **** *   None
 140:.\Generated_Source\PSoC5/PID_isr.c **** *
 141:.\Generated_Source\PSoC5/PID_isr.c **** *******************************************************************************/
 142:.\Generated_Source\PSoC5/PID_isr.c **** CY_ISR(PID_isr_Interrupt)
 143:.\Generated_Source\PSoC5/PID_isr.c **** {
  27              		.loc 1 143 0
  28              		.cfi_startproc
ARM GAS  C:\Users\Luke\AppData\Local\Temp\cctrlXA1.s 			page 4


  29              		@ args = 0, pretend = 0, frame = 0
  30              		@ frame_needed = 0, uses_anonymous_args = 0
  31              		@ link register save eliminated.
  32 0000 7047     		bx	lr
  33              		.cfi_endproc
  34              	.LFE3:
  35              		.size	PID_isr_Interrupt, .-PID_isr_Interrupt
  36              		.section	.text.PID_isr_Start,"ax",%progbits
  37              		.align	1
  38              		.global	PID_isr_Start
  39              		.thumb
  40              		.thumb_func
  41              		.type	PID_isr_Start, %function
  42              	PID_isr_Start:
  43              	.LFB0:
  58:.\Generated_Source\PSoC5/PID_isr.c **** {
  44              		.loc 1 58 0
  45              		.cfi_startproc
  46              		@ args = 0, pretend = 0, frame = 0
  47              		@ frame_needed = 0, uses_anonymous_args = 0
  48              		@ link register save eliminated.
  49              	.LBB22:
  50              	.LBB23:
 144:.\Generated_Source\PSoC5/PID_isr.c ****     /*  Place your Interrupt code here. */
 145:.\Generated_Source\PSoC5/PID_isr.c ****     /* `#START PID_isr_Interrupt` */
 146:.\Generated_Source\PSoC5/PID_isr.c **** 
 147:.\Generated_Source\PSoC5/PID_isr.c ****     /* `#END` */
 148:.\Generated_Source\PSoC5/PID_isr.c **** }
 149:.\Generated_Source\PSoC5/PID_isr.c **** 
 150:.\Generated_Source\PSoC5/PID_isr.c **** 
 151:.\Generated_Source\PSoC5/PID_isr.c **** /*******************************************************************************
 152:.\Generated_Source\PSoC5/PID_isr.c **** * Function Name: PID_isr_SetVector
 153:.\Generated_Source\PSoC5/PID_isr.c **** ********************************************************************************
 154:.\Generated_Source\PSoC5/PID_isr.c **** *
 155:.\Generated_Source\PSoC5/PID_isr.c **** * Summary:
 156:.\Generated_Source\PSoC5/PID_isr.c **** *   Change the ISR vector for the Interrupt. Note calling PID_isr_Start
 157:.\Generated_Source\PSoC5/PID_isr.c **** *   will override any effect this method would have had. To set the vector 
 158:.\Generated_Source\PSoC5/PID_isr.c **** *   before the component has been started use PID_isr_StartEx instead.
 159:.\Generated_Source\PSoC5/PID_isr.c **** *
 160:.\Generated_Source\PSoC5/PID_isr.c **** * Parameters:
 161:.\Generated_Source\PSoC5/PID_isr.c **** *   address: Address of the ISR to set in the interrupt vector table.
 162:.\Generated_Source\PSoC5/PID_isr.c **** *
 163:.\Generated_Source\PSoC5/PID_isr.c **** * Return:
 164:.\Generated_Source\PSoC5/PID_isr.c **** *   None
 165:.\Generated_Source\PSoC5/PID_isr.c **** *
 166:.\Generated_Source\PSoC5/PID_isr.c **** *******************************************************************************/
 167:.\Generated_Source\PSoC5/PID_isr.c **** void PID_isr_SetVector(cyisraddress address)
 168:.\Generated_Source\PSoC5/PID_isr.c **** {
 169:.\Generated_Source\PSoC5/PID_isr.c ****     cyisraddress * ramVectorTable;
 170:.\Generated_Source\PSoC5/PID_isr.c **** 
 171:.\Generated_Source\PSoC5/PID_isr.c ****     ramVectorTable = (cyisraddress *) *CYINT_VECT_TABLE;
 172:.\Generated_Source\PSoC5/PID_isr.c **** 
 173:.\Generated_Source\PSoC5/PID_isr.c ****     ramVectorTable[CYINT_IRQ_BASE + (uint32)PID_isr__INTC_NUMBER] = address;
 174:.\Generated_Source\PSoC5/PID_isr.c **** }
 175:.\Generated_Source\PSoC5/PID_isr.c **** 
 176:.\Generated_Source\PSoC5/PID_isr.c **** 
 177:.\Generated_Source\PSoC5/PID_isr.c **** /*******************************************************************************
ARM GAS  C:\Users\Luke\AppData\Local\Temp\cctrlXA1.s 			page 5


 178:.\Generated_Source\PSoC5/PID_isr.c **** * Function Name: PID_isr_GetVector
 179:.\Generated_Source\PSoC5/PID_isr.c **** ********************************************************************************
 180:.\Generated_Source\PSoC5/PID_isr.c **** *
 181:.\Generated_Source\PSoC5/PID_isr.c **** * Summary:
 182:.\Generated_Source\PSoC5/PID_isr.c **** *   Gets the "address" of the current ISR vector for the Interrupt.
 183:.\Generated_Source\PSoC5/PID_isr.c **** *
 184:.\Generated_Source\PSoC5/PID_isr.c **** * Parameters:
 185:.\Generated_Source\PSoC5/PID_isr.c **** *   None
 186:.\Generated_Source\PSoC5/PID_isr.c **** *
 187:.\Generated_Source\PSoC5/PID_isr.c **** * Return:
 188:.\Generated_Source\PSoC5/PID_isr.c **** *   Address of the ISR in the interrupt vector table.
 189:.\Generated_Source\PSoC5/PID_isr.c **** *
 190:.\Generated_Source\PSoC5/PID_isr.c **** *******************************************************************************/
 191:.\Generated_Source\PSoC5/PID_isr.c **** cyisraddress PID_isr_GetVector(void)
 192:.\Generated_Source\PSoC5/PID_isr.c **** {
 193:.\Generated_Source\PSoC5/PID_isr.c ****     cyisraddress * ramVectorTable;
 194:.\Generated_Source\PSoC5/PID_isr.c **** 
 195:.\Generated_Source\PSoC5/PID_isr.c ****     ramVectorTable = (cyisraddress *) *CYINT_VECT_TABLE;
 196:.\Generated_Source\PSoC5/PID_isr.c **** 
 197:.\Generated_Source\PSoC5/PID_isr.c ****     return ramVectorTable[CYINT_IRQ_BASE + (uint32)PID_isr__INTC_NUMBER];
 198:.\Generated_Source\PSoC5/PID_isr.c **** }
 199:.\Generated_Source\PSoC5/PID_isr.c **** 
 200:.\Generated_Source\PSoC5/PID_isr.c **** 
 201:.\Generated_Source\PSoC5/PID_isr.c **** /*******************************************************************************
 202:.\Generated_Source\PSoC5/PID_isr.c **** * Function Name: PID_isr_SetPriority
 203:.\Generated_Source\PSoC5/PID_isr.c **** ********************************************************************************
 204:.\Generated_Source\PSoC5/PID_isr.c **** *
 205:.\Generated_Source\PSoC5/PID_isr.c **** * Summary:
 206:.\Generated_Source\PSoC5/PID_isr.c **** *   Sets the Priority of the Interrupt. Note calling PID_isr_Start
 207:.\Generated_Source\PSoC5/PID_isr.c **** *   or PID_isr_StartEx will override any effect this method 
 208:.\Generated_Source\PSoC5/PID_isr.c **** *   would have had. This method should only be called after 
 209:.\Generated_Source\PSoC5/PID_isr.c **** *   PID_isr_Start or PID_isr_StartEx has been called. To set 
 210:.\Generated_Source\PSoC5/PID_isr.c **** *   the initial priority for the component use the cydwr file in the tool.
 211:.\Generated_Source\PSoC5/PID_isr.c **** *
 212:.\Generated_Source\PSoC5/PID_isr.c **** * Parameters:
 213:.\Generated_Source\PSoC5/PID_isr.c **** *   priority: Priority of the interrupt. 0 - 7, 0 being the highest.
 214:.\Generated_Source\PSoC5/PID_isr.c **** *
 215:.\Generated_Source\PSoC5/PID_isr.c **** * Return:
 216:.\Generated_Source\PSoC5/PID_isr.c **** *   None
 217:.\Generated_Source\PSoC5/PID_isr.c **** *
 218:.\Generated_Source\PSoC5/PID_isr.c **** *******************************************************************************/
 219:.\Generated_Source\PSoC5/PID_isr.c **** void PID_isr_SetPriority(uint8 priority)
 220:.\Generated_Source\PSoC5/PID_isr.c **** {
 221:.\Generated_Source\PSoC5/PID_isr.c ****     *PID_isr_INTC_PRIOR = priority << 5;
 222:.\Generated_Source\PSoC5/PID_isr.c **** }
 223:.\Generated_Source\PSoC5/PID_isr.c **** 
 224:.\Generated_Source\PSoC5/PID_isr.c **** 
 225:.\Generated_Source\PSoC5/PID_isr.c **** /*******************************************************************************
 226:.\Generated_Source\PSoC5/PID_isr.c **** * Function Name: PID_isr_GetPriority
 227:.\Generated_Source\PSoC5/PID_isr.c **** ********************************************************************************
 228:.\Generated_Source\PSoC5/PID_isr.c **** *
 229:.\Generated_Source\PSoC5/PID_isr.c **** * Summary:
 230:.\Generated_Source\PSoC5/PID_isr.c **** *   Gets the Priority of the Interrupt.
 231:.\Generated_Source\PSoC5/PID_isr.c **** *
 232:.\Generated_Source\PSoC5/PID_isr.c **** * Parameters:
 233:.\Generated_Source\PSoC5/PID_isr.c **** *   None
 234:.\Generated_Source\PSoC5/PID_isr.c **** *
ARM GAS  C:\Users\Luke\AppData\Local\Temp\cctrlXA1.s 			page 6


 235:.\Generated_Source\PSoC5/PID_isr.c **** * Return:
 236:.\Generated_Source\PSoC5/PID_isr.c **** *   Priority of the interrupt. 0 - 7, 0 being the highest.
 237:.\Generated_Source\PSoC5/PID_isr.c **** *
 238:.\Generated_Source\PSoC5/PID_isr.c **** *******************************************************************************/
 239:.\Generated_Source\PSoC5/PID_isr.c **** uint8 PID_isr_GetPriority(void)
 240:.\Generated_Source\PSoC5/PID_isr.c **** {
 241:.\Generated_Source\PSoC5/PID_isr.c ****     uint8 priority;
 242:.\Generated_Source\PSoC5/PID_isr.c **** 
 243:.\Generated_Source\PSoC5/PID_isr.c **** 
 244:.\Generated_Source\PSoC5/PID_isr.c ****     priority = *PID_isr_INTC_PRIOR >> 5;
 245:.\Generated_Source\PSoC5/PID_isr.c **** 
 246:.\Generated_Source\PSoC5/PID_isr.c ****     return priority;
 247:.\Generated_Source\PSoC5/PID_isr.c **** }
 248:.\Generated_Source\PSoC5/PID_isr.c **** 
 249:.\Generated_Source\PSoC5/PID_isr.c **** 
 250:.\Generated_Source\PSoC5/PID_isr.c **** /*******************************************************************************
 251:.\Generated_Source\PSoC5/PID_isr.c **** * Function Name: PID_isr_Enable
 252:.\Generated_Source\PSoC5/PID_isr.c **** ********************************************************************************
 253:.\Generated_Source\PSoC5/PID_isr.c **** *
 254:.\Generated_Source\PSoC5/PID_isr.c **** * Summary:
 255:.\Generated_Source\PSoC5/PID_isr.c **** *   Enables the interrupt.
 256:.\Generated_Source\PSoC5/PID_isr.c **** *
 257:.\Generated_Source\PSoC5/PID_isr.c **** * Parameters:
 258:.\Generated_Source\PSoC5/PID_isr.c **** *   None
 259:.\Generated_Source\PSoC5/PID_isr.c **** *
 260:.\Generated_Source\PSoC5/PID_isr.c **** * Return:
 261:.\Generated_Source\PSoC5/PID_isr.c **** *   None
 262:.\Generated_Source\PSoC5/PID_isr.c **** *
 263:.\Generated_Source\PSoC5/PID_isr.c **** *******************************************************************************/
 264:.\Generated_Source\PSoC5/PID_isr.c **** void PID_isr_Enable(void)
 265:.\Generated_Source\PSoC5/PID_isr.c **** {
 266:.\Generated_Source\PSoC5/PID_isr.c ****     /* Enable the general interrupt. */
 267:.\Generated_Source\PSoC5/PID_isr.c ****     *PID_isr_INTC_SET_EN = PID_isr__INTC_MASK;
 268:.\Generated_Source\PSoC5/PID_isr.c **** }
 269:.\Generated_Source\PSoC5/PID_isr.c **** 
 270:.\Generated_Source\PSoC5/PID_isr.c **** 
 271:.\Generated_Source\PSoC5/PID_isr.c **** /*******************************************************************************
 272:.\Generated_Source\PSoC5/PID_isr.c **** * Function Name: PID_isr_GetState
 273:.\Generated_Source\PSoC5/PID_isr.c **** ********************************************************************************
 274:.\Generated_Source\PSoC5/PID_isr.c **** *
 275:.\Generated_Source\PSoC5/PID_isr.c **** * Summary:
 276:.\Generated_Source\PSoC5/PID_isr.c **** *   Gets the state (enabled, disabled) of the Interrupt.
 277:.\Generated_Source\PSoC5/PID_isr.c **** *
 278:.\Generated_Source\PSoC5/PID_isr.c **** * Parameters:
 279:.\Generated_Source\PSoC5/PID_isr.c **** *   None
 280:.\Generated_Source\PSoC5/PID_isr.c **** *
 281:.\Generated_Source\PSoC5/PID_isr.c **** * Return:
 282:.\Generated_Source\PSoC5/PID_isr.c **** *   1 if enabled, 0 if disabled.
 283:.\Generated_Source\PSoC5/PID_isr.c **** *
 284:.\Generated_Source\PSoC5/PID_isr.c **** *******************************************************************************/
 285:.\Generated_Source\PSoC5/PID_isr.c **** uint8 PID_isr_GetState(void)
 286:.\Generated_Source\PSoC5/PID_isr.c **** {
 287:.\Generated_Source\PSoC5/PID_isr.c ****     /* Get the state of the general interrupt. */
 288:.\Generated_Source\PSoC5/PID_isr.c ****     return ((*PID_isr_INTC_SET_EN & (uint32)PID_isr__INTC_MASK) != 0u) ? 1u:0u;
 289:.\Generated_Source\PSoC5/PID_isr.c **** }
 290:.\Generated_Source\PSoC5/PID_isr.c **** 
 291:.\Generated_Source\PSoC5/PID_isr.c **** 
ARM GAS  C:\Users\Luke\AppData\Local\Temp\cctrlXA1.s 			page 7


 292:.\Generated_Source\PSoC5/PID_isr.c **** /*******************************************************************************
 293:.\Generated_Source\PSoC5/PID_isr.c **** * Function Name: PID_isr_Disable
 294:.\Generated_Source\PSoC5/PID_isr.c **** ********************************************************************************
 295:.\Generated_Source\PSoC5/PID_isr.c **** *
 296:.\Generated_Source\PSoC5/PID_isr.c **** * Summary:
 297:.\Generated_Source\PSoC5/PID_isr.c **** *   Disables the Interrupt.
 298:.\Generated_Source\PSoC5/PID_isr.c **** *
 299:.\Generated_Source\PSoC5/PID_isr.c **** * Parameters:
 300:.\Generated_Source\PSoC5/PID_isr.c **** *   None
 301:.\Generated_Source\PSoC5/PID_isr.c **** *
 302:.\Generated_Source\PSoC5/PID_isr.c **** * Return:
 303:.\Generated_Source\PSoC5/PID_isr.c **** *   None
 304:.\Generated_Source\PSoC5/PID_isr.c **** *
 305:.\Generated_Source\PSoC5/PID_isr.c **** *******************************************************************************/
 306:.\Generated_Source\PSoC5/PID_isr.c **** void PID_isr_Disable(void)
 307:.\Generated_Source\PSoC5/PID_isr.c **** {
 308:.\Generated_Source\PSoC5/PID_isr.c ****     /* Disable the general interrupt. */
 309:.\Generated_Source\PSoC5/PID_isr.c ****     *PID_isr_INTC_CLR_EN = PID_isr__INTC_MASK;
  51              		.loc 1 309 0
  52 0000 084A     		ldr	r2, .L3
  53              	.LBE23:
  54              	.LBE22:
  55              	.LBB25:
  56              	.LBB26:
 171:.\Generated_Source\PSoC5/PID_isr.c ****     ramVectorTable = (cyisraddress *) *CYINT_VECT_TABLE;
  57              		.loc 1 171 0
  58 0002 0948     		ldr	r0, .L3+4
  59              	.LBE26:
  60              	.LBE25:
  61              	.LBB29:
  62              	.LBB24:
  63              		.loc 1 309 0
  64 0004 4FF40033 		mov	r3, #131072
  65 0008 1360     		str	r3, [r2, #0]
  66              	.LVL0:
  67              	.LBE24:
  68              	.LBE29:
  69              	.LBB30:
  70              	.LBB27:
 173:.\Generated_Source\PSoC5/PID_isr.c ****     ramVectorTable[CYINT_IRQ_BASE + (uint32)PID_isr__INTC_NUMBER] = address;
  71              		.loc 1 173 0
  72 000a 0849     		ldr	r1, .L3+8
 171:.\Generated_Source\PSoC5/PID_isr.c ****     ramVectorTable = (cyisraddress *) *CYINT_VECT_TABLE;
  73              		.loc 1 171 0
  74 000c 0268     		ldr	r2, [r0, #0]
  75              	.LVL1:
  76              	.LBE27:
  77              	.LBE30:
  78              	.LBB31:
  79              	.LBB32:
 221:.\Generated_Source\PSoC5/PID_isr.c ****     *PID_isr_INTC_PRIOR = priority << 5;
  80              		.loc 1 221 0
  81 000e E020     		movs	r0, #224
  82              	.LBE32:
  83              	.LBE31:
  84              	.LBB35:
  85              	.LBB28:
ARM GAS  C:\Users\Luke\AppData\Local\Temp\cctrlXA1.s 			page 8


 173:.\Generated_Source\PSoC5/PID_isr.c ****     ramVectorTable[CYINT_IRQ_BASE + (uint32)PID_isr__INTC_NUMBER] = address;
  86              		.loc 1 173 0
  87 0010 C2F88410 		str	r1, [r2, #132]
  88              	.LVL2:
  89              	.LBE28:
  90              	.LBE35:
  91              	.LBB36:
  92              	.LBB33:
 221:.\Generated_Source\PSoC5/PID_isr.c ****     *PID_isr_INTC_PRIOR = priority << 5;
  93              		.loc 1 221 0
  94 0014 064A     		ldr	r2, .L3+12
  95              	.LVL3:
  96              	.LBE33:
  97              	.LBE36:
  98              	.LBB37:
  99              	.LBB38:
 267:.\Generated_Source\PSoC5/PID_isr.c ****     *PID_isr_INTC_SET_EN = PID_isr__INTC_MASK;
 100              		.loc 1 267 0
 101 0016 6FF44471 		mvn	r1, #784
 102              	.LBE38:
 103              	.LBE37:
 104              	.LBB40:
 105              	.LBB34:
 221:.\Generated_Source\PSoC5/PID_isr.c ****     *PID_isr_INTC_PRIOR = priority << 5;
 106              		.loc 1 221 0
 107 001a 1070     		strb	r0, [r2, #0]
 108              	.LBE34:
 109              	.LBE40:
 110              	.LBB41:
 111              	.LBB39:
 267:.\Generated_Source\PSoC5/PID_isr.c ****     *PID_isr_INTC_SET_EN = PID_isr__INTC_MASK;
 112              		.loc 1 267 0
 113 001c 5018     		adds	r0, r2, r1
 114 001e 0360     		str	r3, [r0, #0]
 115 0020 7047     		bx	lr
 116              	.L4:
 117 0022 00BF     		.align	2
 118              	.L3:
 119 0024 80E100E0 		.word	-536813184
 120 0028 08ED00E0 		.word	-536810232
 121 002c 00000000 		.word	PID_isr_Interrupt
 122 0030 11E400E0 		.word	-536812527
 123              	.LBE39:
 124              	.LBE41:
 125              		.cfi_endproc
 126              	.LFE0:
 127              		.size	PID_isr_Start, .-PID_isr_Start
 128              		.section	.text.PID_isr_StartEx,"ax",%progbits
 129              		.align	1
 130              		.global	PID_isr_StartEx
 131              		.thumb
 132              		.thumb_func
 133              		.type	PID_isr_StartEx, %function
 134              	PID_isr_StartEx:
 135              	.LFB1:
  88:.\Generated_Source\PSoC5/PID_isr.c **** {
 136              		.loc 1 88 0
ARM GAS  C:\Users\Luke\AppData\Local\Temp\cctrlXA1.s 			page 9


 137              		.cfi_startproc
 138              		@ args = 0, pretend = 0, frame = 0
 139              		@ frame_needed = 0, uses_anonymous_args = 0
 140              		@ link register save eliminated.
 141              	.LVL4:
 142              	.LBB42:
 143              	.LBB43:
 144              		.loc 1 309 0
 145 0000 074A     		ldr	r2, .L6
 146              	.LBE43:
 147              	.LBE42:
 148              	.LBB45:
 149              	.LBB46:
 171:.\Generated_Source\PSoC5/PID_isr.c ****     ramVectorTable = (cyisraddress *) *CYINT_VECT_TABLE;
 150              		.loc 1 171 0
 151 0002 0849     		ldr	r1, .L6+4
 152              	.LBE46:
 153              	.LBE45:
 154              	.LBB49:
 155              	.LBB44:
 156              		.loc 1 309 0
 157 0004 4FF40033 		mov	r3, #131072
 158 0008 1360     		str	r3, [r2, #0]
 159              	.LVL5:
 160              	.LBE44:
 161              	.LBE49:
 162              	.LBB50:
 163              	.LBB47:
 171:.\Generated_Source\PSoC5/PID_isr.c ****     ramVectorTable = (cyisraddress *) *CYINT_VECT_TABLE;
 164              		.loc 1 171 0
 165 000a 0A68     		ldr	r2, [r1, #0]
 166              	.LVL6:
 167              	.LBE47:
 168              	.LBE50:
 169              	.LBB51:
 170              	.LBB52:
 221:.\Generated_Source\PSoC5/PID_isr.c ****     *PID_isr_INTC_PRIOR = priority << 5;
 171              		.loc 1 221 0
 172 000c 0649     		ldr	r1, .L6+8
 173              	.LBE52:
 174              	.LBE51:
 175              	.LBB55:
 176              	.LBB48:
 173:.\Generated_Source\PSoC5/PID_isr.c ****     ramVectorTable[CYINT_IRQ_BASE + (uint32)PID_isr__INTC_NUMBER] = address;
 177              		.loc 1 173 0
 178 000e C2F88400 		str	r0, [r2, #132]
 179              	.LVL7:
 180              	.LBE48:
 181              	.LBE55:
 182              	.LBB56:
 183              	.LBB53:
 221:.\Generated_Source\PSoC5/PID_isr.c ****     *PID_isr_INTC_PRIOR = priority << 5;
 184              		.loc 1 221 0
 185 0012 E020     		movs	r0, #224
 186              	.LVL8:
 187              	.LBE53:
 188              	.LBE56:
ARM GAS  C:\Users\Luke\AppData\Local\Temp\cctrlXA1.s 			page 10


 189              	.LBB57:
 190              	.LBB58:
 267:.\Generated_Source\PSoC5/PID_isr.c ****     *PID_isr_INTC_SET_EN = PID_isr__INTC_MASK;
 191              		.loc 1 267 0
 192 0014 6FF44472 		mvn	r2, #784
 193              	.LVL9:
 194              	.LBE58:
 195              	.LBE57:
 196              	.LBB60:
 197              	.LBB54:
 221:.\Generated_Source\PSoC5/PID_isr.c ****     *PID_isr_INTC_PRIOR = priority << 5;
 198              		.loc 1 221 0
 199 0018 0870     		strb	r0, [r1, #0]
 200              	.LBE54:
 201              	.LBE60:
 202              	.LBB61:
 203              	.LBB59:
 267:.\Generated_Source\PSoC5/PID_isr.c ****     *PID_isr_INTC_SET_EN = PID_isr__INTC_MASK;
 204              		.loc 1 267 0
 205 001a 8818     		adds	r0, r1, r2
 206 001c 0360     		str	r3, [r0, #0]
 207 001e 7047     		bx	lr
 208              	.L7:
 209              		.align	2
 210              	.L6:
 211 0020 80E100E0 		.word	-536813184
 212 0024 08ED00E0 		.word	-536810232
 213 0028 11E400E0 		.word	-536812527
 214              	.LBE59:
 215              	.LBE61:
 216              		.cfi_endproc
 217              	.LFE1:
 218              		.size	PID_isr_StartEx, .-PID_isr_StartEx
 219              		.section	.text.PID_isr_Stop,"ax",%progbits
 220              		.align	1
 221              		.global	PID_isr_Stop
 222              		.thumb
 223              		.thumb_func
 224              		.type	PID_isr_Stop, %function
 225              	PID_isr_Stop:
 226              	.LFB2:
 117:.\Generated_Source\PSoC5/PID_isr.c **** {
 227              		.loc 1 117 0
 228              		.cfi_startproc
 229              		@ args = 0, pretend = 0, frame = 0
 230              		@ frame_needed = 0, uses_anonymous_args = 0
 231              		@ link register save eliminated.
 232              	.LBB62:
 233              	.LBB63:
 234              		.loc 1 309 0
 235 0000 044B     		ldr	r3, .L9
 236              	.LBE63:
 237              	.LBE62:
 238              	.LBB65:
 239              	.LBB66:
 171:.\Generated_Source\PSoC5/PID_isr.c ****     ramVectorTable = (cyisraddress *) *CYINT_VECT_TABLE;
 240              		.loc 1 171 0
ARM GAS  C:\Users\Luke\AppData\Local\Temp\cctrlXA1.s 			page 11


 241 0002 0548     		ldr	r0, .L9+4
 242              	.LBE66:
 243              	.LBE65:
 244              	.LBB68:
 245              	.LBB64:
 246              		.loc 1 309 0
 247 0004 4FF40032 		mov	r2, #131072
 248 0008 1A60     		str	r2, [r3, #0]
 249              	.LVL10:
 250              	.LBE64:
 251              	.LBE68:
 252              	.LBB69:
 253              	.LBB67:
 171:.\Generated_Source\PSoC5/PID_isr.c ****     ramVectorTable = (cyisraddress *) *CYINT_VECT_TABLE;
 254              		.loc 1 171 0
 255 000a 0168     		ldr	r1, [r0, #0]
 256              	.LVL11:
 173:.\Generated_Source\PSoC5/PID_isr.c ****     ramVectorTable[CYINT_IRQ_BASE + (uint32)PID_isr__INTC_NUMBER] = address;
 257              		.loc 1 173 0
 258 000c 034A     		ldr	r2, .L9+8
 259 000e C1F88420 		str	r2, [r1, #132]
 260 0012 7047     		bx	lr
 261              	.L10:
 262              		.align	2
 263              	.L9:
 264 0014 80E100E0 		.word	-536813184
 265 0018 08ED00E0 		.word	-536810232
 266 001c 00000000 		.word	IntDefaultHandler
 267              	.LBE67:
 268              	.LBE69:
 269              		.cfi_endproc
 270              	.LFE2:
 271              		.size	PID_isr_Stop, .-PID_isr_Stop
 272              		.section	.text.PID_isr_SetVector,"ax",%progbits
 273              		.align	1
 274              		.global	PID_isr_SetVector
 275              		.thumb
 276              		.thumb_func
 277              		.type	PID_isr_SetVector, %function
 278              	PID_isr_SetVector:
 279              	.LFB4:
 168:.\Generated_Source\PSoC5/PID_isr.c **** {
 280              		.loc 1 168 0
 281              		.cfi_startproc
 282              		@ args = 0, pretend = 0, frame = 0
 283              		@ frame_needed = 0, uses_anonymous_args = 0
 284              		@ link register save eliminated.
 285              	.LVL12:
 171:.\Generated_Source\PSoC5/PID_isr.c ****     ramVectorTable = (cyisraddress *) *CYINT_VECT_TABLE;
 286              		.loc 1 171 0
 287 0000 024B     		ldr	r3, .L12
 288 0002 1968     		ldr	r1, [r3, #0]
 289              	.LVL13:
 173:.\Generated_Source\PSoC5/PID_isr.c ****     ramVectorTable[CYINT_IRQ_BASE + (uint32)PID_isr__INTC_NUMBER] = address;
 290              		.loc 1 173 0
 291 0004 C1F88400 		str	r0, [r1, #132]
 292 0008 7047     		bx	lr
ARM GAS  C:\Users\Luke\AppData\Local\Temp\cctrlXA1.s 			page 12


 293              	.L13:
 294 000a 00BF     		.align	2
 295              	.L12:
 296 000c 08ED00E0 		.word	-536810232
 297              		.cfi_endproc
 298              	.LFE4:
 299              		.size	PID_isr_SetVector, .-PID_isr_SetVector
 300              		.section	.text.PID_isr_GetVector,"ax",%progbits
 301              		.align	1
 302              		.global	PID_isr_GetVector
 303              		.thumb
 304              		.thumb_func
 305              		.type	PID_isr_GetVector, %function
 306              	PID_isr_GetVector:
 307              	.LFB5:
 192:.\Generated_Source\PSoC5/PID_isr.c **** {
 308              		.loc 1 192 0
 309              		.cfi_startproc
 310              		@ args = 0, pretend = 0, frame = 0
 311              		@ frame_needed = 0, uses_anonymous_args = 0
 312              		@ link register save eliminated.
 313              	.LVL14:
 195:.\Generated_Source\PSoC5/PID_isr.c ****     ramVectorTable = (cyisraddress *) *CYINT_VECT_TABLE;
 314              		.loc 1 195 0
 315 0000 024B     		ldr	r3, .L15
 316              	.LVL15:
 197:.\Generated_Source\PSoC5/PID_isr.c ****     return ramVectorTable[CYINT_IRQ_BASE + (uint32)PID_isr__INTC_NUMBER];
 317              		.loc 1 197 0
 318 0002 1868     		ldr	r0, [r3, #0]
 198:.\Generated_Source\PSoC5/PID_isr.c **** }
 319              		.loc 1 198 0
 320 0004 D0F88400 		ldr	r0, [r0, #132]
 321 0008 7047     		bx	lr
 322              	.L16:
 323 000a 00BF     		.align	2
 324              	.L15:
 325 000c 08ED00E0 		.word	-536810232
 326              		.cfi_endproc
 327              	.LFE5:
 328              		.size	PID_isr_GetVector, .-PID_isr_GetVector
 329              		.section	.text.PID_isr_SetPriority,"ax",%progbits
 330              		.align	1
 331              		.global	PID_isr_SetPriority
 332              		.thumb
 333              		.thumb_func
 334              		.type	PID_isr_SetPriority, %function
 335              	PID_isr_SetPriority:
 336              	.LFB6:
 220:.\Generated_Source\PSoC5/PID_isr.c **** {
 337              		.loc 1 220 0
 338              		.cfi_startproc
 339              		@ args = 0, pretend = 0, frame = 0
 340              		@ frame_needed = 0, uses_anonymous_args = 0
 341              		@ link register save eliminated.
 342              	.LVL16:
 221:.\Generated_Source\PSoC5/PID_isr.c ****     *PID_isr_INTC_PRIOR = priority << 5;
 343              		.loc 1 221 0
ARM GAS  C:\Users\Luke\AppData\Local\Temp\cctrlXA1.s 			page 13


 344 0000 4001     		lsls	r0, r0, #5
 345              	.LVL17:
 346 0002 024B     		ldr	r3, .L18
 347 0004 C1B2     		uxtb	r1, r0
 348 0006 1970     		strb	r1, [r3, #0]
 349 0008 7047     		bx	lr
 350              	.L19:
 351 000a 00BF     		.align	2
 352              	.L18:
 353 000c 11E400E0 		.word	-536812527
 354              		.cfi_endproc
 355              	.LFE6:
 356              		.size	PID_isr_SetPriority, .-PID_isr_SetPriority
 357              		.section	.text.PID_isr_GetPriority,"ax",%progbits
 358              		.align	1
 359              		.global	PID_isr_GetPriority
 360              		.thumb
 361              		.thumb_func
 362              		.type	PID_isr_GetPriority, %function
 363              	PID_isr_GetPriority:
 364              	.LFB7:
 240:.\Generated_Source\PSoC5/PID_isr.c **** {
 365              		.loc 1 240 0
 366              		.cfi_startproc
 367              		@ args = 0, pretend = 0, frame = 0
 368              		@ frame_needed = 0, uses_anonymous_args = 0
 369              		@ link register save eliminated.
 244:.\Generated_Source\PSoC5/PID_isr.c ****     priority = *PID_isr_INTC_PRIOR >> 5;
 370              		.loc 1 244 0
 371 0000 014B     		ldr	r3, .L21
 372 0002 1878     		ldrb	r0, [r3, #0]	@ zero_extendqisi2
 373              	.LVL18:
 247:.\Generated_Source\PSoC5/PID_isr.c **** }
 374              		.loc 1 247 0
 375 0004 4009     		lsrs	r0, r0, #5
 376              	.LVL19:
 377 0006 7047     		bx	lr
 378              	.L22:
 379              		.align	2
 380              	.L21:
 381 0008 11E400E0 		.word	-536812527
 382              		.cfi_endproc
 383              	.LFE7:
 384              		.size	PID_isr_GetPriority, .-PID_isr_GetPriority
 385              		.section	.text.PID_isr_Enable,"ax",%progbits
 386              		.align	1
 387              		.global	PID_isr_Enable
 388              		.thumb
 389              		.thumb_func
 390              		.type	PID_isr_Enable, %function
 391              	PID_isr_Enable:
 392              	.LFB8:
 265:.\Generated_Source\PSoC5/PID_isr.c **** {
 393              		.loc 1 265 0
 394              		.cfi_startproc
 395              		@ args = 0, pretend = 0, frame = 0
 396              		@ frame_needed = 0, uses_anonymous_args = 0
ARM GAS  C:\Users\Luke\AppData\Local\Temp\cctrlXA1.s 			page 14


 397              		@ link register save eliminated.
 267:.\Generated_Source\PSoC5/PID_isr.c ****     *PID_isr_INTC_SET_EN = PID_isr__INTC_MASK;
 398              		.loc 1 267 0
 399 0000 024B     		ldr	r3, .L24
 400 0002 4FF40032 		mov	r2, #131072
 401 0006 1A60     		str	r2, [r3, #0]
 402 0008 7047     		bx	lr
 403              	.L25:
 404 000a 00BF     		.align	2
 405              	.L24:
 406 000c 00E100E0 		.word	-536813312
 407              		.cfi_endproc
 408              	.LFE8:
 409              		.size	PID_isr_Enable, .-PID_isr_Enable
 410              		.section	.text.PID_isr_GetState,"ax",%progbits
 411              		.align	1
 412              		.global	PID_isr_GetState
 413              		.thumb
 414              		.thumb_func
 415              		.type	PID_isr_GetState, %function
 416              	PID_isr_GetState:
 417              	.LFB9:
 286:.\Generated_Source\PSoC5/PID_isr.c **** {
 418              		.loc 1 286 0
 419              		.cfi_startproc
 420              		@ args = 0, pretend = 0, frame = 0
 421              		@ frame_needed = 0, uses_anonymous_args = 0
 422              		@ link register save eliminated.
 288:.\Generated_Source\PSoC5/PID_isr.c ****     return ((*PID_isr_INTC_SET_EN & (uint32)PID_isr__INTC_MASK) != 0u) ? 1u:0u;
 423              		.loc 1 288 0
 424 0000 024B     		ldr	r3, .L27
 425 0002 1868     		ldr	r0, [r3, #0]
 289:.\Generated_Source\PSoC5/PID_isr.c **** }
 426              		.loc 1 289 0
 427 0004 C0F34040 		ubfx	r0, r0, #17, #1
 428 0008 7047     		bx	lr
 429              	.L28:
 430 000a 00BF     		.align	2
 431              	.L27:
 432 000c 00E100E0 		.word	-536813312
 433              		.cfi_endproc
 434              	.LFE9:
 435              		.size	PID_isr_GetState, .-PID_isr_GetState
 436              		.section	.text.PID_isr_Disable,"ax",%progbits
 437              		.align	1
 438              		.global	PID_isr_Disable
 439              		.thumb
 440              		.thumb_func
 441              		.type	PID_isr_Disable, %function
 442              	PID_isr_Disable:
 443              	.LFB10:
 307:.\Generated_Source\PSoC5/PID_isr.c **** {
 444              		.loc 1 307 0
 445              		.cfi_startproc
 446              		@ args = 0, pretend = 0, frame = 0
 447              		@ frame_needed = 0, uses_anonymous_args = 0
 448              		@ link register save eliminated.
ARM GAS  C:\Users\Luke\AppData\Local\Temp\cctrlXA1.s 			page 15


 449              		.loc 1 309 0
 450 0000 024B     		ldr	r3, .L30
 451 0002 4FF40032 		mov	r2, #131072
 452 0006 1A60     		str	r2, [r3, #0]
 453 0008 7047     		bx	lr
 454              	.L31:
 455 000a 00BF     		.align	2
 456              	.L30:
 457 000c 80E100E0 		.word	-536813184
 458              		.cfi_endproc
 459              	.LFE10:
 460              		.size	PID_isr_Disable, .-PID_isr_Disable
 461              		.section	.text.PID_isr_SetPending,"ax",%progbits
 462              		.align	1
 463              		.global	PID_isr_SetPending
 464              		.thumb
 465              		.thumb_func
 466              		.type	PID_isr_SetPending, %function
 467              	PID_isr_SetPending:
 468              	.LFB11:
 310:.\Generated_Source\PSoC5/PID_isr.c **** }
 311:.\Generated_Source\PSoC5/PID_isr.c **** 
 312:.\Generated_Source\PSoC5/PID_isr.c **** 
 313:.\Generated_Source\PSoC5/PID_isr.c **** /*******************************************************************************
 314:.\Generated_Source\PSoC5/PID_isr.c **** * Function Name: PID_isr_SetPending
 315:.\Generated_Source\PSoC5/PID_isr.c **** ********************************************************************************
 316:.\Generated_Source\PSoC5/PID_isr.c **** *
 317:.\Generated_Source\PSoC5/PID_isr.c **** * Summary:
 318:.\Generated_Source\PSoC5/PID_isr.c **** *   Causes the Interrupt to enter the pending state, a software method of
 319:.\Generated_Source\PSoC5/PID_isr.c **** *   generating the interrupt.
 320:.\Generated_Source\PSoC5/PID_isr.c **** *
 321:.\Generated_Source\PSoC5/PID_isr.c **** * Parameters:
 322:.\Generated_Source\PSoC5/PID_isr.c **** *   None
 323:.\Generated_Source\PSoC5/PID_isr.c **** *
 324:.\Generated_Source\PSoC5/PID_isr.c **** * Return:
 325:.\Generated_Source\PSoC5/PID_isr.c **** *   None
 326:.\Generated_Source\PSoC5/PID_isr.c **** *
 327:.\Generated_Source\PSoC5/PID_isr.c **** *******************************************************************************/
 328:.\Generated_Source\PSoC5/PID_isr.c **** void PID_isr_SetPending(void)
 329:.\Generated_Source\PSoC5/PID_isr.c **** {
 469              		.loc 1 329 0
 470              		.cfi_startproc
 471              		@ args = 0, pretend = 0, frame = 0
 472              		@ frame_needed = 0, uses_anonymous_args = 0
 473              		@ link register save eliminated.
 330:.\Generated_Source\PSoC5/PID_isr.c ****     *PID_isr_INTC_SET_PD = PID_isr__INTC_MASK;
 474              		.loc 1 330 0
 475 0000 024B     		ldr	r3, .L33
 476 0002 4FF40032 		mov	r2, #131072
 477 0006 1A60     		str	r2, [r3, #0]
 478 0008 7047     		bx	lr
 479              	.L34:
 480 000a 00BF     		.align	2
 481              	.L33:
 482 000c 00E200E0 		.word	-536813056
 483              		.cfi_endproc
 484              	.LFE11:
ARM GAS  C:\Users\Luke\AppData\Local\Temp\cctrlXA1.s 			page 16


 485              		.size	PID_isr_SetPending, .-PID_isr_SetPending
 486              		.section	.text.PID_isr_ClearPending,"ax",%progbits
 487              		.align	1
 488              		.global	PID_isr_ClearPending
 489              		.thumb
 490              		.thumb_func
 491              		.type	PID_isr_ClearPending, %function
 492              	PID_isr_ClearPending:
 493              	.LFB12:
 331:.\Generated_Source\PSoC5/PID_isr.c **** }
 332:.\Generated_Source\PSoC5/PID_isr.c **** 
 333:.\Generated_Source\PSoC5/PID_isr.c **** 
 334:.\Generated_Source\PSoC5/PID_isr.c **** /*******************************************************************************
 335:.\Generated_Source\PSoC5/PID_isr.c **** * Function Name: PID_isr_ClearPending
 336:.\Generated_Source\PSoC5/PID_isr.c **** ********************************************************************************
 337:.\Generated_Source\PSoC5/PID_isr.c **** *
 338:.\Generated_Source\PSoC5/PID_isr.c **** * Summary:
 339:.\Generated_Source\PSoC5/PID_isr.c **** *   Clears a pending interrupt.
 340:.\Generated_Source\PSoC5/PID_isr.c **** *
 341:.\Generated_Source\PSoC5/PID_isr.c **** * Parameters:
 342:.\Generated_Source\PSoC5/PID_isr.c **** *   None
 343:.\Generated_Source\PSoC5/PID_isr.c **** *
 344:.\Generated_Source\PSoC5/PID_isr.c **** * Return:
 345:.\Generated_Source\PSoC5/PID_isr.c **** *   None
 346:.\Generated_Source\PSoC5/PID_isr.c **** *
 347:.\Generated_Source\PSoC5/PID_isr.c **** *******************************************************************************/
 348:.\Generated_Source\PSoC5/PID_isr.c **** void PID_isr_ClearPending(void)
 349:.\Generated_Source\PSoC5/PID_isr.c **** {
 494              		.loc 1 349 0
 495              		.cfi_startproc
 496              		@ args = 0, pretend = 0, frame = 0
 497              		@ frame_needed = 0, uses_anonymous_args = 0
 498              		@ link register save eliminated.
 350:.\Generated_Source\PSoC5/PID_isr.c ****     *PID_isr_INTC_CLR_PD = PID_isr__INTC_MASK;
 499              		.loc 1 350 0
 500 0000 024B     		ldr	r3, .L36
 501 0002 4FF40032 		mov	r2, #131072
 502 0006 1A60     		str	r2, [r3, #0]
 503 0008 7047     		bx	lr
 504              	.L37:
 505 000a 00BF     		.align	2
 506              	.L36:
 507 000c 80E200E0 		.word	-536812928
 508              		.cfi_endproc
 509              	.LFE12:
 510              		.size	PID_isr_ClearPending, .-PID_isr_ClearPending
 511              		.text
 512              	.Letext0:
 513              		.file 2 "./Generated_Source/PSoC5/cytypes.h"