ARM GAS  C:\Users\Luke\AppData\Local\Temp\ccVRFaQV.s 			page 1


   1              		.syntax unified
   2              		.cpu cortex-m3
   3              		.fpu softvfp
   4              		.eabi_attribute 20, 1
   5              		.eabi_attribute 21, 1
   6              		.eabi_attribute 23, 3
   7              		.eabi_attribute 24, 1
   8              		.eabi_attribute 25, 1
   9              		.eabi_attribute 26, 1
  10              		.eabi_attribute 30, 4
  11              		.eabi_attribute 34, 1
  12              		.eabi_attribute 18, 4
  13              		.thumb
  14              		.file	"Seed_ref.c"
  15              		.text
  16              	.Ltext0:
  17              		.cfi_sections	.debug_frame
  18              		.section	.text.Seed_ref_Write,"ax",%progbits
  19              		.align	1
  20              		.global	Seed_ref_Write
  21              		.thumb
  22              		.thumb_func
  23              		.type	Seed_ref_Write, %function
  24              	Seed_ref_Write:
  25              	.LFB0:
  26              		.file 1 ".\\Generated_Source\\PSoC5\\Seed_ref.c"
   1:.\Generated_Source\PSoC5/Seed_ref.c **** /*******************************************************************************
   2:.\Generated_Source\PSoC5/Seed_ref.c **** * File Name: Seed_ref.c  
   3:.\Generated_Source\PSoC5/Seed_ref.c **** * Version 1.90
   4:.\Generated_Source\PSoC5/Seed_ref.c **** *
   5:.\Generated_Source\PSoC5/Seed_ref.c **** * Description:
   6:.\Generated_Source\PSoC5/Seed_ref.c **** *  This file contains API to enable firmware control of a Pins component.
   7:.\Generated_Source\PSoC5/Seed_ref.c **** *
   8:.\Generated_Source\PSoC5/Seed_ref.c **** * Note:
   9:.\Generated_Source\PSoC5/Seed_ref.c **** *
  10:.\Generated_Source\PSoC5/Seed_ref.c **** ********************************************************************************
  11:.\Generated_Source\PSoC5/Seed_ref.c **** * Copyright 2008-2012, Cypress Semiconductor Corporation.  All rights reserved.
  12:.\Generated_Source\PSoC5/Seed_ref.c **** * You may use this file only in accordance with the license, terms, conditions, 
  13:.\Generated_Source\PSoC5/Seed_ref.c **** * disclaimers, and limitations in the end user license agreement accompanying 
  14:.\Generated_Source\PSoC5/Seed_ref.c **** * the software package with which this file was provided.
  15:.\Generated_Source\PSoC5/Seed_ref.c **** *******************************************************************************/
  16:.\Generated_Source\PSoC5/Seed_ref.c **** 
  17:.\Generated_Source\PSoC5/Seed_ref.c **** #include "cytypes.h"
  18:.\Generated_Source\PSoC5/Seed_ref.c **** #include "Seed_ref.h"
  19:.\Generated_Source\PSoC5/Seed_ref.c **** 
  20:.\Generated_Source\PSoC5/Seed_ref.c **** /* APIs are not generated for P15[7:6] on PSoC 5 */
  21:.\Generated_Source\PSoC5/Seed_ref.c **** #if !(CY_PSOC5A &&\
  22:.\Generated_Source\PSoC5/Seed_ref.c **** 	 Seed_ref__PORT == 15 && ((Seed_ref__MASK & 0xC0) != 0))
  23:.\Generated_Source\PSoC5/Seed_ref.c **** 
  24:.\Generated_Source\PSoC5/Seed_ref.c **** 
  25:.\Generated_Source\PSoC5/Seed_ref.c **** /*******************************************************************************
  26:.\Generated_Source\PSoC5/Seed_ref.c **** * Function Name: Seed_ref_Write
  27:.\Generated_Source\PSoC5/Seed_ref.c **** ********************************************************************************
  28:.\Generated_Source\PSoC5/Seed_ref.c **** *
  29:.\Generated_Source\PSoC5/Seed_ref.c **** * Summary:
  30:.\Generated_Source\PSoC5/Seed_ref.c **** *  Assign a new value to the digital port's data output register.  
  31:.\Generated_Source\PSoC5/Seed_ref.c **** *
ARM GAS  C:\Users\Luke\AppData\Local\Temp\ccVRFaQV.s 			page 2


  32:.\Generated_Source\PSoC5/Seed_ref.c **** * Parameters:  
  33:.\Generated_Source\PSoC5/Seed_ref.c **** *  prtValue:  The value to be assigned to the Digital Port. 
  34:.\Generated_Source\PSoC5/Seed_ref.c **** *
  35:.\Generated_Source\PSoC5/Seed_ref.c **** * Return: 
  36:.\Generated_Source\PSoC5/Seed_ref.c **** *  None
  37:.\Generated_Source\PSoC5/Seed_ref.c **** *  
  38:.\Generated_Source\PSoC5/Seed_ref.c **** *******************************************************************************/
  39:.\Generated_Source\PSoC5/Seed_ref.c **** void Seed_ref_Write(uint8 value) 
  40:.\Generated_Source\PSoC5/Seed_ref.c **** {
  27              		.loc 1 40 0
  28              		.cfi_startproc
  29              		@ args = 0, pretend = 0, frame = 0
  30              		@ frame_needed = 0, uses_anonymous_args = 0
  31              		@ link register save eliminated.
  32              	.LVL0:
  41:.\Generated_Source\PSoC5/Seed_ref.c ****     uint8 staticBits = (Seed_ref_DR & (uint8)(~Seed_ref_MASK));
  33              		.loc 1 41 0
  34 0000 054B     		ldr	r3, .L2
  42:.\Generated_Source\PSoC5/Seed_ref.c ****     Seed_ref_DR = staticBits | ((uint8)(value << Seed_ref_SHIFT) & Seed_ref_MASK);
  35              		.loc 1 42 0
  36 0002 8000     		lsls	r0, r0, #2
  37              	.LVL1:
  41:.\Generated_Source\PSoC5/Seed_ref.c ****     uint8 staticBits = (Seed_ref_DR & (uint8)(~Seed_ref_MASK));
  38              		.loc 1 41 0
  39 0004 1A78     		ldrb	r2, [r3, #0]	@ zero_extendqisi2
  40              	.LVL2:
  41              		.loc 1 42 0
  42 0006 00F00401 		and	r1, r0, #4
  41:.\Generated_Source\PSoC5/Seed_ref.c ****     uint8 staticBits = (Seed_ref_DR & (uint8)(~Seed_ref_MASK));
  43              		.loc 1 41 0
  44 000a 02F0FB02 		and	r2, r2, #251
  45              	.LVL3:
  46              		.loc 1 42 0
  47 000e 41EA0200 		orr	r0, r1, r2
  48 0012 1870     		strb	r0, [r3, #0]
  49 0014 7047     		bx	lr
  50              	.L3:
  51 0016 00BF     		.align	2
  52              	.L2:
  53 0018 40510040 		.word	1073762624
  54              		.cfi_endproc
  55              	.LFE0:
  56              		.size	Seed_ref_Write, .-Seed_ref_Write
  57              		.section	.text.Seed_ref_SetDriveMode,"ax",%progbits
  58              		.align	1
  59              		.global	Seed_ref_SetDriveMode
  60              		.thumb
  61              		.thumb_func
  62              		.type	Seed_ref_SetDriveMode, %function
  63              	Seed_ref_SetDriveMode:
  64              	.LFB1:
  43:.\Generated_Source\PSoC5/Seed_ref.c **** }
  44:.\Generated_Source\PSoC5/Seed_ref.c **** 
  45:.\Generated_Source\PSoC5/Seed_ref.c **** 
  46:.\Generated_Source\PSoC5/Seed_ref.c **** /*******************************************************************************
  47:.\Generated_Source\PSoC5/Seed_ref.c **** * Function Name: Seed_ref_SetDriveMode
  48:.\Generated_Source\PSoC5/Seed_ref.c **** ********************************************************************************
ARM GAS  C:\Users\Luke\AppData\Local\Temp\ccVRFaQV.s 			page 3


  49:.\Generated_Source\PSoC5/Seed_ref.c **** *
  50:.\Generated_Source\PSoC5/Seed_ref.c **** * Summary:
  51:.\Generated_Source\PSoC5/Seed_ref.c **** *  Change the drive mode on the pins of the port.
  52:.\Generated_Source\PSoC5/Seed_ref.c **** * 
  53:.\Generated_Source\PSoC5/Seed_ref.c **** * Parameters:  
  54:.\Generated_Source\PSoC5/Seed_ref.c **** *  mode:  Change the pins to this drive mode.
  55:.\Generated_Source\PSoC5/Seed_ref.c **** *
  56:.\Generated_Source\PSoC5/Seed_ref.c **** * Return: 
  57:.\Generated_Source\PSoC5/Seed_ref.c **** *  None
  58:.\Generated_Source\PSoC5/Seed_ref.c **** *
  59:.\Generated_Source\PSoC5/Seed_ref.c **** *******************************************************************************/
  60:.\Generated_Source\PSoC5/Seed_ref.c **** void Seed_ref_SetDriveMode(uint8 mode) 
  61:.\Generated_Source\PSoC5/Seed_ref.c **** {
  65              		.loc 1 61 0
  66              		.cfi_startproc
  67              		@ args = 0, pretend = 0, frame = 0
  68              		@ frame_needed = 0, uses_anonymous_args = 0
  69              		@ link register save eliminated.
  70              	.LVL4:
  62:.\Generated_Source\PSoC5/Seed_ref.c **** 	CyPins_SetPinDriveMode(Seed_ref_0, mode);
  71              		.loc 1 62 0
  72 0000 044B     		ldr	r3, .L5
  73 0002 00F00E00 		and	r0, r0, #14
  74              	.LVL5:
  75 0006 1A78     		ldrb	r2, [r3, #0]	@ zero_extendqisi2
  76 0008 22F00E01 		bic	r1, r2, #14
  77 000c 40EA0102 		orr	r2, r0, r1
  78 0010 1A70     		strb	r2, [r3, #0]
  79 0012 7047     		bx	lr
  80              	.L6:
  81              		.align	2
  82              	.L5:
  83 0014 22500040 		.word	1073762338
  84              		.cfi_endproc
  85              	.LFE1:
  86              		.size	Seed_ref_SetDriveMode, .-Seed_ref_SetDriveMode
  87              		.section	.text.Seed_ref_Read,"ax",%progbits
  88              		.align	1
  89              		.global	Seed_ref_Read
  90              		.thumb
  91              		.thumb_func
  92              		.type	Seed_ref_Read, %function
  93              	Seed_ref_Read:
  94              	.LFB2:
  63:.\Generated_Source\PSoC5/Seed_ref.c **** }
  64:.\Generated_Source\PSoC5/Seed_ref.c **** 
  65:.\Generated_Source\PSoC5/Seed_ref.c **** 
  66:.\Generated_Source\PSoC5/Seed_ref.c **** /*******************************************************************************
  67:.\Generated_Source\PSoC5/Seed_ref.c **** * Function Name: Seed_ref_Read
  68:.\Generated_Source\PSoC5/Seed_ref.c **** ********************************************************************************
  69:.\Generated_Source\PSoC5/Seed_ref.c **** *
  70:.\Generated_Source\PSoC5/Seed_ref.c **** * Summary:
  71:.\Generated_Source\PSoC5/Seed_ref.c **** *  Read the current value on the pins of the Digital Port in right justified 
  72:.\Generated_Source\PSoC5/Seed_ref.c **** *  form.
  73:.\Generated_Source\PSoC5/Seed_ref.c **** *
  74:.\Generated_Source\PSoC5/Seed_ref.c **** * Parameters:  
  75:.\Generated_Source\PSoC5/Seed_ref.c **** *  None
ARM GAS  C:\Users\Luke\AppData\Local\Temp\ccVRFaQV.s 			page 4


  76:.\Generated_Source\PSoC5/Seed_ref.c **** *
  77:.\Generated_Source\PSoC5/Seed_ref.c **** * Return: 
  78:.\Generated_Source\PSoC5/Seed_ref.c **** *  Returns the current value of the Digital Port as a right justified number
  79:.\Generated_Source\PSoC5/Seed_ref.c **** *  
  80:.\Generated_Source\PSoC5/Seed_ref.c **** * Note:
  81:.\Generated_Source\PSoC5/Seed_ref.c **** *  Macro Seed_ref_ReadPS calls this function. 
  82:.\Generated_Source\PSoC5/Seed_ref.c **** *  
  83:.\Generated_Source\PSoC5/Seed_ref.c **** *******************************************************************************/
  84:.\Generated_Source\PSoC5/Seed_ref.c **** uint8 Seed_ref_Read(void) 
  85:.\Generated_Source\PSoC5/Seed_ref.c **** {
  95              		.loc 1 85 0
  96              		.cfi_startproc
  97              		@ args = 0, pretend = 0, frame = 0
  98              		@ frame_needed = 0, uses_anonymous_args = 0
  99              		@ link register save eliminated.
  86:.\Generated_Source\PSoC5/Seed_ref.c ****     return (Seed_ref_PS & Seed_ref_MASK) >> Seed_ref_SHIFT;
 100              		.loc 1 86 0
 101 0000 024B     		ldr	r3, .L8
 102 0002 1878     		ldrb	r0, [r3, #0]	@ zero_extendqisi2
  87:.\Generated_Source\PSoC5/Seed_ref.c **** }
 103              		.loc 1 87 0
 104 0004 C0F38000 		ubfx	r0, r0, #2, #1
 105 0008 7047     		bx	lr
 106              	.L9:
 107 000a 00BF     		.align	2
 108              	.L8:
 109 000c 41510040 		.word	1073762625
 110              		.cfi_endproc
 111              	.LFE2:
 112              		.size	Seed_ref_Read, .-Seed_ref_Read
 113              		.section	.text.Seed_ref_ReadDataReg,"ax",%progbits
 114              		.align	1
 115              		.global	Seed_ref_ReadDataReg
 116              		.thumb
 117              		.thumb_func
 118              		.type	Seed_ref_ReadDataReg, %function
 119              	Seed_ref_ReadDataReg:
 120              	.LFB3:
  88:.\Generated_Source\PSoC5/Seed_ref.c **** 
  89:.\Generated_Source\PSoC5/Seed_ref.c **** 
  90:.\Generated_Source\PSoC5/Seed_ref.c **** /*******************************************************************************
  91:.\Generated_Source\PSoC5/Seed_ref.c **** * Function Name: Seed_ref_ReadDataReg
  92:.\Generated_Source\PSoC5/Seed_ref.c **** ********************************************************************************
  93:.\Generated_Source\PSoC5/Seed_ref.c **** *
  94:.\Generated_Source\PSoC5/Seed_ref.c **** * Summary:
  95:.\Generated_Source\PSoC5/Seed_ref.c **** *  Read the current value assigned to a Digital Port's data output register
  96:.\Generated_Source\PSoC5/Seed_ref.c **** *
  97:.\Generated_Source\PSoC5/Seed_ref.c **** * Parameters:  
  98:.\Generated_Source\PSoC5/Seed_ref.c **** *  None 
  99:.\Generated_Source\PSoC5/Seed_ref.c **** *
 100:.\Generated_Source\PSoC5/Seed_ref.c **** * Return: 
 101:.\Generated_Source\PSoC5/Seed_ref.c **** *  Returns the current value assigned to the Digital Port's data output register
 102:.\Generated_Source\PSoC5/Seed_ref.c **** *  
 103:.\Generated_Source\PSoC5/Seed_ref.c **** *******************************************************************************/
 104:.\Generated_Source\PSoC5/Seed_ref.c **** uint8 Seed_ref_ReadDataReg(void) 
 105:.\Generated_Source\PSoC5/Seed_ref.c **** {
 121              		.loc 1 105 0
ARM GAS  C:\Users\Luke\AppData\Local\Temp\ccVRFaQV.s 			page 5


 122              		.cfi_startproc
 123              		@ args = 0, pretend = 0, frame = 0
 124              		@ frame_needed = 0, uses_anonymous_args = 0
 125              		@ link register save eliminated.
 106:.\Generated_Source\PSoC5/Seed_ref.c ****     return (Seed_ref_DR & Seed_ref_MASK) >> Seed_ref_SHIFT;
 126              		.loc 1 106 0
 127 0000 024B     		ldr	r3, .L11
 128 0002 1878     		ldrb	r0, [r3, #0]	@ zero_extendqisi2
 107:.\Generated_Source\PSoC5/Seed_ref.c **** }
 129              		.loc 1 107 0
 130 0004 C0F38000 		ubfx	r0, r0, #2, #1
 131 0008 7047     		bx	lr
 132              	.L12:
 133 000a 00BF     		.align	2
 134              	.L11:
 135 000c 40510040 		.word	1073762624
 136              		.cfi_endproc
 137              	.LFE3:
 138              		.size	Seed_ref_ReadDataReg, .-Seed_ref_ReadDataReg
 139              		.text
 140              	.Letext0:
 141              		.file 2 ".\\Generated_Source\\PSoC5\\cytypes.h"