ARM GAS  C:\Users\Luke\AppData\Local\Temp\cc3yfhGF.s 			page 1


   1              		.syntax unified
   2              		.cpu cortex-m3
   3              		.fpu softvfp
   4              		.eabi_attribute 20, 1
   5              		.eabi_attribute 21, 1
   6              		.eabi_attribute 23, 3
   7              		.eabi_attribute 24, 1
   8              		.eabi_attribute 25, 1
   9              		.eabi_attribute 26, 1
  10              		.eabi_attribute 30, 4
  11              		.eabi_attribute 34, 1
  12              		.eabi_attribute 18, 4
  13              		.thumb
  14              		.file	"USBUART_1_Vbus_ps.c"
  15              		.text
  16              	.Ltext0:
  17              		.cfi_sections	.debug_frame
  18              		.section	.text.USBUART_1_Vbus_ps_Read,"ax",%progbits
  19              		.align	1
  20              		.global	USBUART_1_Vbus_ps_Read
  21              		.thumb
  22              		.thumb_func
  23              		.type	USBUART_1_Vbus_ps_Read, %function
  24              	USBUART_1_Vbus_ps_Read:
  25              	.LFB0:
  26              		.file 1 ".\\Generated_Source\\PSoC5\\USBUART_1_Vbus_ps.c"
   1:.\Generated_Source\PSoC5/USBUART_1_Vbus_ps.c **** /*******************************************************************************
   2:.\Generated_Source\PSoC5/USBUART_1_Vbus_ps.c **** * File Name: USBUART_1_Vbus_ps.c  
   3:.\Generated_Source\PSoC5/USBUART_1_Vbus_ps.c **** * Version 1.80
   4:.\Generated_Source\PSoC5/USBUART_1_Vbus_ps.c **** *
   5:.\Generated_Source\PSoC5/USBUART_1_Vbus_ps.c **** * Description:
   6:.\Generated_Source\PSoC5/USBUART_1_Vbus_ps.c **** *  This file contains API to enable firmware to read the value of a Status 
   7:.\Generated_Source\PSoC5/USBUART_1_Vbus_ps.c **** *  Register.
   8:.\Generated_Source\PSoC5/USBUART_1_Vbus_ps.c **** *
   9:.\Generated_Source\PSoC5/USBUART_1_Vbus_ps.c **** * Note:
  10:.\Generated_Source\PSoC5/USBUART_1_Vbus_ps.c **** *
  11:.\Generated_Source\PSoC5/USBUART_1_Vbus_ps.c **** ********************************************************************************
  12:.\Generated_Source\PSoC5/USBUART_1_Vbus_ps.c **** * Copyright 2008-2012, Cypress Semiconductor Corporation.  All rights reserved.
  13:.\Generated_Source\PSoC5/USBUART_1_Vbus_ps.c **** * You may use this file only in accordance with the license, terms, conditions, 
  14:.\Generated_Source\PSoC5/USBUART_1_Vbus_ps.c **** * disclaimers, and limitations in the end user license agreement accompanying 
  15:.\Generated_Source\PSoC5/USBUART_1_Vbus_ps.c **** * the software package with which this file was provided.
  16:.\Generated_Source\PSoC5/USBUART_1_Vbus_ps.c **** *******************************************************************************/
  17:.\Generated_Source\PSoC5/USBUART_1_Vbus_ps.c **** 
  18:.\Generated_Source\PSoC5/USBUART_1_Vbus_ps.c **** #include "USBUART_1_Vbus_ps.h"
  19:.\Generated_Source\PSoC5/USBUART_1_Vbus_ps.c **** 
  20:.\Generated_Source\PSoC5/USBUART_1_Vbus_ps.c **** #if !defined(USBUART_1_Vbus_ps_sts_sts_reg__REMOVED) /* Check for removal by optimization */
  21:.\Generated_Source\PSoC5/USBUART_1_Vbus_ps.c **** 
  22:.\Generated_Source\PSoC5/USBUART_1_Vbus_ps.c **** 
  23:.\Generated_Source\PSoC5/USBUART_1_Vbus_ps.c **** /*******************************************************************************
  24:.\Generated_Source\PSoC5/USBUART_1_Vbus_ps.c **** * Function Name: USBUART_1_Vbus_ps_Read
  25:.\Generated_Source\PSoC5/USBUART_1_Vbus_ps.c **** ********************************************************************************
  26:.\Generated_Source\PSoC5/USBUART_1_Vbus_ps.c **** *
  27:.\Generated_Source\PSoC5/USBUART_1_Vbus_ps.c **** * Summary:
  28:.\Generated_Source\PSoC5/USBUART_1_Vbus_ps.c **** *  Reads the current value assigned to the Status Register.
  29:.\Generated_Source\PSoC5/USBUART_1_Vbus_ps.c **** *
  30:.\Generated_Source\PSoC5/USBUART_1_Vbus_ps.c **** * Parameters:
  31:.\Generated_Source\PSoC5/USBUART_1_Vbus_ps.c **** *  None.
ARM GAS  C:\Users\Luke\AppData\Local\Temp\cc3yfhGF.s 			page 2


  32:.\Generated_Source\PSoC5/USBUART_1_Vbus_ps.c **** *
  33:.\Generated_Source\PSoC5/USBUART_1_Vbus_ps.c **** * Return:
  34:.\Generated_Source\PSoC5/USBUART_1_Vbus_ps.c **** *  The current value in the Status Register.
  35:.\Generated_Source\PSoC5/USBUART_1_Vbus_ps.c **** *
  36:.\Generated_Source\PSoC5/USBUART_1_Vbus_ps.c **** *******************************************************************************/
  37:.\Generated_Source\PSoC5/USBUART_1_Vbus_ps.c **** uint8 USBUART_1_Vbus_ps_Read(void) 
  38:.\Generated_Source\PSoC5/USBUART_1_Vbus_ps.c **** { 
  27              		.loc 1 38 0
  28              		.cfi_startproc
  29              		@ args = 0, pretend = 0, frame = 0
  30              		@ frame_needed = 0, uses_anonymous_args = 0
  31              		@ link register save eliminated.
  39:.\Generated_Source\PSoC5/USBUART_1_Vbus_ps.c ****     return USBUART_1_Vbus_ps_Status;
  32              		.loc 1 39 0
  33 0000 014B     		ldr	r3, .L2
  34 0002 1878     		ldrb	r0, [r3, #0]	@ zero_extendqisi2
  40:.\Generated_Source\PSoC5/USBUART_1_Vbus_ps.c **** }
  35              		.loc 1 40 0
  36 0004 7047     		bx	lr
  37              	.L3:
  38 0006 00BF     		.align	2
  39              	.L2:
  40 0008 65640040 		.word	1073767525
  41              		.cfi_endproc
  42              	.LFE0:
  43              		.size	USBUART_1_Vbus_ps_Read, .-USBUART_1_Vbus_ps_Read
  44              		.section	.text.USBUART_1_Vbus_ps_InterruptEnable,"ax",%progbits
  45              		.align	1
  46              		.global	USBUART_1_Vbus_ps_InterruptEnable
  47              		.thumb
  48              		.thumb_func
  49              		.type	USBUART_1_Vbus_ps_InterruptEnable, %function
  50              	USBUART_1_Vbus_ps_InterruptEnable:
  51              	.LFB1:
  41:.\Generated_Source\PSoC5/USBUART_1_Vbus_ps.c **** 
  42:.\Generated_Source\PSoC5/USBUART_1_Vbus_ps.c **** 
  43:.\Generated_Source\PSoC5/USBUART_1_Vbus_ps.c **** /*******************************************************************************
  44:.\Generated_Source\PSoC5/USBUART_1_Vbus_ps.c **** * Function Name: USBUART_1_Vbus_ps_InterruptEnable
  45:.\Generated_Source\PSoC5/USBUART_1_Vbus_ps.c **** ********************************************************************************
  46:.\Generated_Source\PSoC5/USBUART_1_Vbus_ps.c **** *
  47:.\Generated_Source\PSoC5/USBUART_1_Vbus_ps.c **** * Summary:
  48:.\Generated_Source\PSoC5/USBUART_1_Vbus_ps.c **** *  Enables the Status Register interrupt.
  49:.\Generated_Source\PSoC5/USBUART_1_Vbus_ps.c **** *
  50:.\Generated_Source\PSoC5/USBUART_1_Vbus_ps.c **** * Parameters:
  51:.\Generated_Source\PSoC5/USBUART_1_Vbus_ps.c **** *  None.
  52:.\Generated_Source\PSoC5/USBUART_1_Vbus_ps.c **** *
  53:.\Generated_Source\PSoC5/USBUART_1_Vbus_ps.c **** * Return:
  54:.\Generated_Source\PSoC5/USBUART_1_Vbus_ps.c **** *  None.
  55:.\Generated_Source\PSoC5/USBUART_1_Vbus_ps.c **** *
  56:.\Generated_Source\PSoC5/USBUART_1_Vbus_ps.c **** *******************************************************************************/
  57:.\Generated_Source\PSoC5/USBUART_1_Vbus_ps.c **** void USBUART_1_Vbus_ps_InterruptEnable(void) 
  58:.\Generated_Source\PSoC5/USBUART_1_Vbus_ps.c **** {
  52              		.loc 1 58 0
  53              		.cfi_startproc
  54              		@ args = 0, pretend = 0, frame = 0
  55              		@ frame_needed = 0, uses_anonymous_args = 0
  56 0000 08B5     		push	{r3, lr}
ARM GAS  C:\Users\Luke\AppData\Local\Temp\cc3yfhGF.s 			page 3


  57              	.LCFI0:
  58              		.cfi_def_cfa_offset 8
  59              		.cfi_offset 3, -8
  60              		.cfi_offset 14, -4
  59:.\Generated_Source\PSoC5/USBUART_1_Vbus_ps.c ****     uint8 interruptState;
  60:.\Generated_Source\PSoC5/USBUART_1_Vbus_ps.c ****     interruptState = CyEnterCriticalSection();
  61              		.loc 1 60 0
  62 0002 FFF7FEFF 		bl	CyEnterCriticalSection
  63              	.LVL0:
  61:.\Generated_Source\PSoC5/USBUART_1_Vbus_ps.c ****     USBUART_1_Vbus_ps_Status_Aux_Ctrl |= USBUART_1_Vbus_ps_STATUS_INTR_ENBL;
  64              		.loc 1 61 0
  65 0006 044B     		ldr	r3, .L5
  66 0008 1A78     		ldrb	r2, [r3, #0]	@ zero_extendqisi2
  67 000a 42F01001 		orr	r1, r2, #16
  68 000e 1970     		strb	r1, [r3, #0]
  62:.\Generated_Source\PSoC5/USBUART_1_Vbus_ps.c ****     CyExitCriticalSection(interruptState);
  63:.\Generated_Source\PSoC5/USBUART_1_Vbus_ps.c **** }
  69              		.loc 1 63 0
  70 0010 BDE80840 		pop	{r3, lr}
  62:.\Generated_Source\PSoC5/USBUART_1_Vbus_ps.c ****     CyExitCriticalSection(interruptState);
  71              		.loc 1 62 0
  72 0014 FFF7FEBF 		b	CyExitCriticalSection
  73              	.LVL1:
  74              	.L6:
  75              		.align	2
  76              	.L5:
  77 0018 95640040 		.word	1073767573
  78              		.cfi_endproc
  79              	.LFE1:
  80              		.size	USBUART_1_Vbus_ps_InterruptEnable, .-USBUART_1_Vbus_ps_InterruptEnable
  81              		.section	.text.USBUART_1_Vbus_ps_InterruptDisable,"ax",%progbits
  82              		.align	1
  83              		.global	USBUART_1_Vbus_ps_InterruptDisable
  84              		.thumb
  85              		.thumb_func
  86              		.type	USBUART_1_Vbus_ps_InterruptDisable, %function
  87              	USBUART_1_Vbus_ps_InterruptDisable:
  88              	.LFB2:
  64:.\Generated_Source\PSoC5/USBUART_1_Vbus_ps.c **** 
  65:.\Generated_Source\PSoC5/USBUART_1_Vbus_ps.c **** 
  66:.\Generated_Source\PSoC5/USBUART_1_Vbus_ps.c **** /*******************************************************************************
  67:.\Generated_Source\PSoC5/USBUART_1_Vbus_ps.c **** * Function Name: USBUART_1_Vbus_ps_InterruptDisable
  68:.\Generated_Source\PSoC5/USBUART_1_Vbus_ps.c **** ********************************************************************************
  69:.\Generated_Source\PSoC5/USBUART_1_Vbus_ps.c **** *
  70:.\Generated_Source\PSoC5/USBUART_1_Vbus_ps.c **** * Summary:
  71:.\Generated_Source\PSoC5/USBUART_1_Vbus_ps.c **** *  Disables the Status Register interrupt.
  72:.\Generated_Source\PSoC5/USBUART_1_Vbus_ps.c **** *
  73:.\Generated_Source\PSoC5/USBUART_1_Vbus_ps.c **** * Parameters:
  74:.\Generated_Source\PSoC5/USBUART_1_Vbus_ps.c **** *  None.
  75:.\Generated_Source\PSoC5/USBUART_1_Vbus_ps.c **** *
  76:.\Generated_Source\PSoC5/USBUART_1_Vbus_ps.c **** * Return:
  77:.\Generated_Source\PSoC5/USBUART_1_Vbus_ps.c **** *  None.
  78:.\Generated_Source\PSoC5/USBUART_1_Vbus_ps.c **** *
  79:.\Generated_Source\PSoC5/USBUART_1_Vbus_ps.c **** *******************************************************************************/
  80:.\Generated_Source\PSoC5/USBUART_1_Vbus_ps.c **** void USBUART_1_Vbus_ps_InterruptDisable(void) 
  81:.\Generated_Source\PSoC5/USBUART_1_Vbus_ps.c **** {
  89              		.loc 1 81 0
ARM GAS  C:\Users\Luke\AppData\Local\Temp\cc3yfhGF.s 			page 4


  90              		.cfi_startproc
  91              		@ args = 0, pretend = 0, frame = 0
  92              		@ frame_needed = 0, uses_anonymous_args = 0
  93 0000 08B5     		push	{r3, lr}
  94              	.LCFI1:
  95              		.cfi_def_cfa_offset 8
  96              		.cfi_offset 3, -8
  97              		.cfi_offset 14, -4
  82:.\Generated_Source\PSoC5/USBUART_1_Vbus_ps.c ****     uint8 interruptState;
  83:.\Generated_Source\PSoC5/USBUART_1_Vbus_ps.c ****     interruptState = CyEnterCriticalSection();
  98              		.loc 1 83 0
  99 0002 FFF7FEFF 		bl	CyEnterCriticalSection
 100              	.LVL2:
  84:.\Generated_Source\PSoC5/USBUART_1_Vbus_ps.c ****     USBUART_1_Vbus_ps_Status_Aux_Ctrl &= (uint8)(~USBUART_1_Vbus_ps_STATUS_INTR_ENBL);
 101              		.loc 1 84 0
 102 0006 044B     		ldr	r3, .L8
 103 0008 1A78     		ldrb	r2, [r3, #0]	@ zero_extendqisi2
 104 000a 02F0EF01 		and	r1, r2, #239
 105 000e 1970     		strb	r1, [r3, #0]
  85:.\Generated_Source\PSoC5/USBUART_1_Vbus_ps.c ****     CyExitCriticalSection(interruptState);
  86:.\Generated_Source\PSoC5/USBUART_1_Vbus_ps.c **** }
 106              		.loc 1 86 0
 107 0010 BDE80840 		pop	{r3, lr}
  85:.\Generated_Source\PSoC5/USBUART_1_Vbus_ps.c ****     CyExitCriticalSection(interruptState);
 108              		.loc 1 85 0
 109 0014 FFF7FEBF 		b	CyExitCriticalSection
 110              	.LVL3:
 111              	.L9:
 112              		.align	2
 113              	.L8:
 114 0018 95640040 		.word	1073767573
 115              		.cfi_endproc
 116              	.LFE2:
 117              		.size	USBUART_1_Vbus_ps_InterruptDisable, .-USBUART_1_Vbus_ps_InterruptDisable
 118              		.section	.text.USBUART_1_Vbus_ps_WriteMask,"ax",%progbits
 119              		.align	1
 120              		.global	USBUART_1_Vbus_ps_WriteMask
 121              		.thumb
 122              		.thumb_func
 123              		.type	USBUART_1_Vbus_ps_WriteMask, %function
 124              	USBUART_1_Vbus_ps_WriteMask:
 125              	.LFB3:
  87:.\Generated_Source\PSoC5/USBUART_1_Vbus_ps.c **** 
  88:.\Generated_Source\PSoC5/USBUART_1_Vbus_ps.c **** 
  89:.\Generated_Source\PSoC5/USBUART_1_Vbus_ps.c **** /*******************************************************************************
  90:.\Generated_Source\PSoC5/USBUART_1_Vbus_ps.c **** * Function Name: USBUART_1_Vbus_ps_WriteMask
  91:.\Generated_Source\PSoC5/USBUART_1_Vbus_ps.c **** ********************************************************************************
  92:.\Generated_Source\PSoC5/USBUART_1_Vbus_ps.c **** *
  93:.\Generated_Source\PSoC5/USBUART_1_Vbus_ps.c **** * Summary:
  94:.\Generated_Source\PSoC5/USBUART_1_Vbus_ps.c **** *  Writes the current mask value assigned to the Status Register.
  95:.\Generated_Source\PSoC5/USBUART_1_Vbus_ps.c **** *
  96:.\Generated_Source\PSoC5/USBUART_1_Vbus_ps.c **** * Parameters:
  97:.\Generated_Source\PSoC5/USBUART_1_Vbus_ps.c **** *  mask:  Value to write into the mask register.
  98:.\Generated_Source\PSoC5/USBUART_1_Vbus_ps.c **** *
  99:.\Generated_Source\PSoC5/USBUART_1_Vbus_ps.c **** * Return:
 100:.\Generated_Source\PSoC5/USBUART_1_Vbus_ps.c **** *  None.
 101:.\Generated_Source\PSoC5/USBUART_1_Vbus_ps.c **** *
ARM GAS  C:\Users\Luke\AppData\Local\Temp\cc3yfhGF.s 			page 5


 102:.\Generated_Source\PSoC5/USBUART_1_Vbus_ps.c **** *******************************************************************************/
 103:.\Generated_Source\PSoC5/USBUART_1_Vbus_ps.c **** void USBUART_1_Vbus_ps_WriteMask(uint8 mask) 
 104:.\Generated_Source\PSoC5/USBUART_1_Vbus_ps.c **** {
 126              		.loc 1 104 0
 127              		.cfi_startproc
 128              		@ args = 0, pretend = 0, frame = 0
 129              		@ frame_needed = 0, uses_anonymous_args = 0
 130              		@ link register save eliminated.
 131              	.LVL4:
 105:.\Generated_Source\PSoC5/USBUART_1_Vbus_ps.c ****     #if(USBUART_1_Vbus_ps_INPUTS < 8u)
 106:.\Generated_Source\PSoC5/USBUART_1_Vbus_ps.c ****     	mask &= (uint8)((((uint8)1u) << USBUART_1_Vbus_ps_INPUTS) - 1u);
 107:.\Generated_Source\PSoC5/USBUART_1_Vbus_ps.c **** 	#endif /* End USBUART_1_Vbus_ps_INPUTS < 8u */
 108:.\Generated_Source\PSoC5/USBUART_1_Vbus_ps.c ****     USBUART_1_Vbus_ps_Status_Mask = mask;
 132              		.loc 1 108 0
 133 0000 024B     		ldr	r3, .L11
 106:.\Generated_Source\PSoC5/USBUART_1_Vbus_ps.c ****     	mask &= (uint8)((((uint8)1u) << USBUART_1_Vbus_ps_INPUTS) - 1u);
 134              		.loc 1 106 0
 135 0002 00F00100 		and	r0, r0, #1
 136              	.LVL5:
 137              		.loc 1 108 0
 138 0006 1870     		strb	r0, [r3, #0]
 139 0008 7047     		bx	lr
 140              	.L12:
 141 000a 00BF     		.align	2
 142              	.L11:
 143 000c 85640040 		.word	1073767557
 144              		.cfi_endproc
 145              	.LFE3:
 146              		.size	USBUART_1_Vbus_ps_WriteMask, .-USBUART_1_Vbus_ps_WriteMask
 147              		.section	.text.USBUART_1_Vbus_ps_ReadMask,"ax",%progbits
 148              		.align	1
 149              		.global	USBUART_1_Vbus_ps_ReadMask
 150              		.thumb
 151              		.thumb_func
 152              		.type	USBUART_1_Vbus_ps_ReadMask, %function
 153              	USBUART_1_Vbus_ps_ReadMask:
 154              	.LFB4:
 109:.\Generated_Source\PSoC5/USBUART_1_Vbus_ps.c **** }
 110:.\Generated_Source\PSoC5/USBUART_1_Vbus_ps.c **** 
 111:.\Generated_Source\PSoC5/USBUART_1_Vbus_ps.c **** 
 112:.\Generated_Source\PSoC5/USBUART_1_Vbus_ps.c **** /*******************************************************************************
 113:.\Generated_Source\PSoC5/USBUART_1_Vbus_ps.c **** * Function Name: USBUART_1_Vbus_ps_ReadMask
 114:.\Generated_Source\PSoC5/USBUART_1_Vbus_ps.c **** ********************************************************************************
 115:.\Generated_Source\PSoC5/USBUART_1_Vbus_ps.c **** *
 116:.\Generated_Source\PSoC5/USBUART_1_Vbus_ps.c **** * Summary:
 117:.\Generated_Source\PSoC5/USBUART_1_Vbus_ps.c **** *  Reads the current interrupt mask assigned to the Status Register.
 118:.\Generated_Source\PSoC5/USBUART_1_Vbus_ps.c **** *
 119:.\Generated_Source\PSoC5/USBUART_1_Vbus_ps.c **** * Parameters:
 120:.\Generated_Source\PSoC5/USBUART_1_Vbus_ps.c **** *  None.
 121:.\Generated_Source\PSoC5/USBUART_1_Vbus_ps.c **** *
 122:.\Generated_Source\PSoC5/USBUART_1_Vbus_ps.c **** * Return:
 123:.\Generated_Source\PSoC5/USBUART_1_Vbus_ps.c **** *  The value of the interrupt mask of the Status Register.
 124:.\Generated_Source\PSoC5/USBUART_1_Vbus_ps.c **** *
 125:.\Generated_Source\PSoC5/USBUART_1_Vbus_ps.c **** *******************************************************************************/
 126:.\Generated_Source\PSoC5/USBUART_1_Vbus_ps.c **** uint8 USBUART_1_Vbus_ps_ReadMask(void) 
 127:.\Generated_Source\PSoC5/USBUART_1_Vbus_ps.c **** {
 155              		.loc 1 127 0
ARM GAS  C:\Users\Luke\AppData\Local\Temp\cc3yfhGF.s 			page 6


 156              		.cfi_startproc
 157              		@ args = 0, pretend = 0, frame = 0
 158              		@ frame_needed = 0, uses_anonymous_args = 0
 159              		@ link register save eliminated.
 128:.\Generated_Source\PSoC5/USBUART_1_Vbus_ps.c ****     return USBUART_1_Vbus_ps_Status_Mask;
 160              		.loc 1 128 0
 161 0000 014B     		ldr	r3, .L14
 162 0002 1878     		ldrb	r0, [r3, #0]	@ zero_extendqisi2
 129:.\Generated_Source\PSoC5/USBUART_1_Vbus_ps.c **** }
 163              		.loc 1 129 0
 164 0004 7047     		bx	lr
 165              	.L15:
 166 0006 00BF     		.align	2
 167              	.L14:
 168 0008 85640040 		.word	1073767557
 169              		.cfi_endproc
 170              	.LFE4:
 171              		.size	USBUART_1_Vbus_ps_ReadMask, .-USBUART_1_Vbus_ps_ReadMask
 172              		.text
 173              	.Letext0:
 174              		.file 2 ".\\Generated_Source\\PSoC5\\cytypes.h"
 175              		.file 3 ".\\Generated_Source\\PSoC5\\CyLib.h"