ARM GAS  C:\Users\Luke\AppData\Local\Temp\ccuzhVDD.s 			page 1


   1              		.syntax unified
   2              		.cpu cortex-m3
   3              		.fpu softvfp
   4              		.eabi_attribute 20, 1
   5              		.eabi_attribute 21, 1
   6              		.eabi_attribute 23, 3
   7              		.eabi_attribute 24, 1
   8              		.eabi_attribute 25, 1
   9              		.eabi_attribute 26, 1
  10              		.eabi_attribute 30, 4
  11              		.eabi_attribute 34, 1
  12              		.eabi_attribute 18, 4
  13              		.thumb
  14              		.file	"USBUART_1.c"
  15              		.text
  16              	.Ltext0:
  17              		.cfi_sections	.debug_frame
  18              		.section	.text.USBUART_1_Init,"ax",%progbits
  19              		.align	1
  20              		.global	USBUART_1_Init
  21              		.thumb
  22              		.thumb_func
  23              		.type	USBUART_1_Init, %function
  24              	USBUART_1_Init:
  25              	.LFB1:
  26              		.file 1 ".\\Generated_Source\\PSoC5\\USBUART_1.c"
   1:.\Generated_Source\PSoC5/USBUART_1.c **** /*******************************************************************************
   2:.\Generated_Source\PSoC5/USBUART_1.c **** * File Name: USBUART_1.c
   3:.\Generated_Source\PSoC5/USBUART_1.c **** * Version 2.60
   4:.\Generated_Source\PSoC5/USBUART_1.c **** *
   5:.\Generated_Source\PSoC5/USBUART_1.c **** * Description:
   6:.\Generated_Source\PSoC5/USBUART_1.c **** *  API for USBFS Component.
   7:.\Generated_Source\PSoC5/USBUART_1.c **** *
   8:.\Generated_Source\PSoC5/USBUART_1.c **** * Note:
   9:.\Generated_Source\PSoC5/USBUART_1.c **** *  Many of the functions use endpoint number.  RAM arrays are sized with 9
  10:.\Generated_Source\PSoC5/USBUART_1.c **** *  elements so they are indexed directly by epNumber.  The SIE and ARB
  11:.\Generated_Source\PSoC5/USBUART_1.c **** *  registers are indexed by variations of epNumber - 1.
  12:.\Generated_Source\PSoC5/USBUART_1.c **** *
  13:.\Generated_Source\PSoC5/USBUART_1.c **** ********************************************************************************
  14:.\Generated_Source\PSoC5/USBUART_1.c **** * Copyright 2008-2013, Cypress Semiconductor Corporation.  All rights reserved.
  15:.\Generated_Source\PSoC5/USBUART_1.c **** * You may use this file only in accordance with the license, terms, conditions,
  16:.\Generated_Source\PSoC5/USBUART_1.c **** * disclaimers, and limitations in the end user license agreement accompanying
  17:.\Generated_Source\PSoC5/USBUART_1.c **** * the software package with which this file was provided.
  18:.\Generated_Source\PSoC5/USBUART_1.c **** *******************************************************************************/
  19:.\Generated_Source\PSoC5/USBUART_1.c **** 
  20:.\Generated_Source\PSoC5/USBUART_1.c **** #include <CyDmac.h>
  21:.\Generated_Source\PSoC5/USBUART_1.c **** #include "USBUART_1.h"
  22:.\Generated_Source\PSoC5/USBUART_1.c **** #include "USBUART_1_pvt.h"
  23:.\Generated_Source\PSoC5/USBUART_1.c **** #include "USBUART_1_hid.h"
  24:.\Generated_Source\PSoC5/USBUART_1.c **** #if(USBUART_1_DMA1_REMOVE == 0u)
  25:.\Generated_Source\PSoC5/USBUART_1.c ****     #include "USBUART_1_ep1_dma.h"
  26:.\Generated_Source\PSoC5/USBUART_1.c **** #endif   /* End USBUART_1_DMA1_REMOVE */
  27:.\Generated_Source\PSoC5/USBUART_1.c **** #if(USBUART_1_DMA2_REMOVE == 0u)
  28:.\Generated_Source\PSoC5/USBUART_1.c ****     #include "USBUART_1_ep2_dma.h"
  29:.\Generated_Source\PSoC5/USBUART_1.c **** #endif   /* End USBUART_1_DMA2_REMOVE */
  30:.\Generated_Source\PSoC5/USBUART_1.c **** #if(USBUART_1_DMA3_REMOVE == 0u)
  31:.\Generated_Source\PSoC5/USBUART_1.c ****     #include "USBUART_1_ep3_dma.h"
ARM GAS  C:\Users\Luke\AppData\Local\Temp\ccuzhVDD.s 			page 2


  32:.\Generated_Source\PSoC5/USBUART_1.c **** #endif   /* End USBUART_1_DMA3_REMOVE */
  33:.\Generated_Source\PSoC5/USBUART_1.c **** #if(USBUART_1_DMA4_REMOVE == 0u)
  34:.\Generated_Source\PSoC5/USBUART_1.c ****     #include "USBUART_1_ep4_dma.h"
  35:.\Generated_Source\PSoC5/USBUART_1.c **** #endif   /* End USBUART_1_DMA4_REMOVE */
  36:.\Generated_Source\PSoC5/USBUART_1.c **** #if(USBUART_1_DMA5_REMOVE == 0u)
  37:.\Generated_Source\PSoC5/USBUART_1.c ****     #include "USBUART_1_ep5_dma.h"
  38:.\Generated_Source\PSoC5/USBUART_1.c **** #endif   /* End USBUART_1_DMA5_REMOVE */
  39:.\Generated_Source\PSoC5/USBUART_1.c **** #if(USBUART_1_DMA6_REMOVE == 0u)
  40:.\Generated_Source\PSoC5/USBUART_1.c ****     #include "USBUART_1_ep6_dma.h"
  41:.\Generated_Source\PSoC5/USBUART_1.c **** #endif   /* End USBUART_1_DMA6_REMOVE */
  42:.\Generated_Source\PSoC5/USBUART_1.c **** #if(USBUART_1_DMA7_REMOVE == 0u)
  43:.\Generated_Source\PSoC5/USBUART_1.c ****     #include "USBUART_1_ep7_dma.h"
  44:.\Generated_Source\PSoC5/USBUART_1.c **** #endif   /* End USBUART_1_DMA7_REMOVE */
  45:.\Generated_Source\PSoC5/USBUART_1.c **** #if(USBUART_1_DMA8_REMOVE == 0u)
  46:.\Generated_Source\PSoC5/USBUART_1.c ****     #include "USBUART_1_ep8_dma.h"
  47:.\Generated_Source\PSoC5/USBUART_1.c **** #endif   /* End USBUART_1_DMA8_REMOVE */
  48:.\Generated_Source\PSoC5/USBUART_1.c **** 
  49:.\Generated_Source\PSoC5/USBUART_1.c **** 
  50:.\Generated_Source\PSoC5/USBUART_1.c **** /***************************************
  51:.\Generated_Source\PSoC5/USBUART_1.c **** * Global data allocation
  52:.\Generated_Source\PSoC5/USBUART_1.c **** ***************************************/
  53:.\Generated_Source\PSoC5/USBUART_1.c **** 
  54:.\Generated_Source\PSoC5/USBUART_1.c **** uint8 USBUART_1_initVar = 0u;
  55:.\Generated_Source\PSoC5/USBUART_1.c **** #if(USBUART_1_EP_MM != USBUART_1__EP_MANUAL)
  56:.\Generated_Source\PSoC5/USBUART_1.c ****     uint8 USBUART_1_DmaChan[USBUART_1_MAX_EP];
  57:.\Generated_Source\PSoC5/USBUART_1.c ****     uint8 USBUART_1_DmaTd[USBUART_1_MAX_EP];
  58:.\Generated_Source\PSoC5/USBUART_1.c **** #endif /* End USBUART_1_EP_MM */
  59:.\Generated_Source\PSoC5/USBUART_1.c **** 
  60:.\Generated_Source\PSoC5/USBUART_1.c **** 
  61:.\Generated_Source\PSoC5/USBUART_1.c **** /*******************************************************************************
  62:.\Generated_Source\PSoC5/USBUART_1.c **** * Function Name: USBUART_1_Start
  63:.\Generated_Source\PSoC5/USBUART_1.c **** ********************************************************************************
  64:.\Generated_Source\PSoC5/USBUART_1.c **** *
  65:.\Generated_Source\PSoC5/USBUART_1.c **** * Summary:
  66:.\Generated_Source\PSoC5/USBUART_1.c **** *  This function initialize the USB SIE, arbiter and the
  67:.\Generated_Source\PSoC5/USBUART_1.c **** *  endpoint APIs, including setting the D+ Pullup
  68:.\Generated_Source\PSoC5/USBUART_1.c **** *
  69:.\Generated_Source\PSoC5/USBUART_1.c **** * Parameters:
  70:.\Generated_Source\PSoC5/USBUART_1.c **** *  device: Contains the device number of the desired device descriptor.
  71:.\Generated_Source\PSoC5/USBUART_1.c **** *          The device number can be found in the Device Descriptor Tab of
  72:.\Generated_Source\PSoC5/USBUART_1.c **** *          "Configure" dialog, under the settings of desired Device Descriptor,
  73:.\Generated_Source\PSoC5/USBUART_1.c **** *          in the "Device Number" field.
  74:.\Generated_Source\PSoC5/USBUART_1.c **** *  mode: The operating voltage. This determines whether the voltage regulator
  75:.\Generated_Source\PSoC5/USBUART_1.c **** *        is enabled for 5V operation or if pass through mode is used for 3.3V
  76:.\Generated_Source\PSoC5/USBUART_1.c **** *        operation. Symbolic names and their associated values are given in the
  77:.\Generated_Source\PSoC5/USBUART_1.c **** *        following table.
  78:.\Generated_Source\PSoC5/USBUART_1.c **** *       USBUART_1_3V_OPERATION - Disable voltage regulator and pass-thru
  79:.\Generated_Source\PSoC5/USBUART_1.c **** *                                       Vcc for pull-up
  80:.\Generated_Source\PSoC5/USBUART_1.c **** *       USBUART_1_5V_OPERATION - Enable voltage regulator and use
  81:.\Generated_Source\PSoC5/USBUART_1.c **** *                                       regulator for pull-up
  82:.\Generated_Source\PSoC5/USBUART_1.c **** *       USBUART_1_DWR_VDDD_OPERATION - Enable or Disable voltage
  83:.\Generated_Source\PSoC5/USBUART_1.c **** *                         regulator depend on Vddd Voltage configuration in DWR.
  84:.\Generated_Source\PSoC5/USBUART_1.c **** *
  85:.\Generated_Source\PSoC5/USBUART_1.c **** * Return:
  86:.\Generated_Source\PSoC5/USBUART_1.c **** *   None.
  87:.\Generated_Source\PSoC5/USBUART_1.c **** *
  88:.\Generated_Source\PSoC5/USBUART_1.c **** * Global variables:
ARM GAS  C:\Users\Luke\AppData\Local\Temp\ccuzhVDD.s 			page 3


  89:.\Generated_Source\PSoC5/USBUART_1.c **** *  The USBUART_1_intiVar variable is used to indicate initial
  90:.\Generated_Source\PSoC5/USBUART_1.c **** *  configuration of this component. The variable is initialized to zero (0u)
  91:.\Generated_Source\PSoC5/USBUART_1.c **** *  and set to one (1u) the first time USBUART_1_Start() is called.
  92:.\Generated_Source\PSoC5/USBUART_1.c **** *  This allows for component Re-Start without unnecessary re-initialization
  93:.\Generated_Source\PSoC5/USBUART_1.c **** *  in all subsequent calls to the USBUART_1_Start() routine.
  94:.\Generated_Source\PSoC5/USBUART_1.c **** *  If re-initialization of the component is required the variable should be set
  95:.\Generated_Source\PSoC5/USBUART_1.c **** *  to zero before call of UART_Start() routine, or the user may call
  96:.\Generated_Source\PSoC5/USBUART_1.c **** *  USBUART_1_Init() and USBUART_1_InitComponent() as done
  97:.\Generated_Source\PSoC5/USBUART_1.c **** *  in the USBUART_1_Start() routine.
  98:.\Generated_Source\PSoC5/USBUART_1.c **** *
  99:.\Generated_Source\PSoC5/USBUART_1.c **** * Side Effects:
 100:.\Generated_Source\PSoC5/USBUART_1.c **** *   This function will reset all communication states to default.
 101:.\Generated_Source\PSoC5/USBUART_1.c **** *
 102:.\Generated_Source\PSoC5/USBUART_1.c **** * Reentrant:
 103:.\Generated_Source\PSoC5/USBUART_1.c **** *  No.
 104:.\Generated_Source\PSoC5/USBUART_1.c **** *
 105:.\Generated_Source\PSoC5/USBUART_1.c **** *******************************************************************************/
 106:.\Generated_Source\PSoC5/USBUART_1.c **** void USBUART_1_Start(uint8 device, uint8 mode) 
 107:.\Generated_Source\PSoC5/USBUART_1.c **** {
 108:.\Generated_Source\PSoC5/USBUART_1.c ****     /* If not Initialized then initialize all required hardware and software */
 109:.\Generated_Source\PSoC5/USBUART_1.c ****     if(USBUART_1_initVar == 0u)
 110:.\Generated_Source\PSoC5/USBUART_1.c ****     {
 111:.\Generated_Source\PSoC5/USBUART_1.c ****         USBUART_1_Init();
 112:.\Generated_Source\PSoC5/USBUART_1.c ****         USBUART_1_initVar = 1u;
 113:.\Generated_Source\PSoC5/USBUART_1.c ****     }
 114:.\Generated_Source\PSoC5/USBUART_1.c ****     USBUART_1_InitComponent(device, mode);
 115:.\Generated_Source\PSoC5/USBUART_1.c **** }
 116:.\Generated_Source\PSoC5/USBUART_1.c **** 
 117:.\Generated_Source\PSoC5/USBUART_1.c **** 
 118:.\Generated_Source\PSoC5/USBUART_1.c **** /*******************************************************************************
 119:.\Generated_Source\PSoC5/USBUART_1.c **** * Function Name: USBUART_1_Init
 120:.\Generated_Source\PSoC5/USBUART_1.c **** ********************************************************************************
 121:.\Generated_Source\PSoC5/USBUART_1.c **** *
 122:.\Generated_Source\PSoC5/USBUART_1.c **** * Summary:
 123:.\Generated_Source\PSoC5/USBUART_1.c **** *  Initialize component's hardware. Usually called in USBUART_1_Start().
 124:.\Generated_Source\PSoC5/USBUART_1.c **** *
 125:.\Generated_Source\PSoC5/USBUART_1.c **** * Parameters:
 126:.\Generated_Source\PSoC5/USBUART_1.c **** *  None.
 127:.\Generated_Source\PSoC5/USBUART_1.c **** *
 128:.\Generated_Source\PSoC5/USBUART_1.c **** * Return:
 129:.\Generated_Source\PSoC5/USBUART_1.c **** *  None.
 130:.\Generated_Source\PSoC5/USBUART_1.c **** *
 131:.\Generated_Source\PSoC5/USBUART_1.c **** * Reentrant:
 132:.\Generated_Source\PSoC5/USBUART_1.c **** *  No.
 133:.\Generated_Source\PSoC5/USBUART_1.c **** *
 134:.\Generated_Source\PSoC5/USBUART_1.c **** *******************************************************************************/
 135:.\Generated_Source\PSoC5/USBUART_1.c **** void USBUART_1_Init(void) 
 136:.\Generated_Source\PSoC5/USBUART_1.c **** {
  27              		.loc 1 136 0
  28              		.cfi_startproc
  29              		@ args = 0, pretend = 0, frame = 0
  30              		@ frame_needed = 0, uses_anonymous_args = 0
  31 0000 F8B5     		push	{r3, r4, r5, r6, r7, lr}
  32              	.LCFI0:
  33              		.cfi_def_cfa_offset 24
  34              		.cfi_offset 3, -24
  35              		.cfi_offset 4, -20
ARM GAS  C:\Users\Luke\AppData\Local\Temp\ccuzhVDD.s 			page 4


  36              		.cfi_offset 5, -16
  37              		.cfi_offset 6, -12
  38              		.cfi_offset 7, -8
  39              		.cfi_offset 14, -4
 137:.\Generated_Source\PSoC5/USBUART_1.c ****     uint8 enableInterrupts;
 138:.\Generated_Source\PSoC5/USBUART_1.c ****     #if(USBUART_1_EP_MM != USBUART_1__EP_MANUAL)
 139:.\Generated_Source\PSoC5/USBUART_1.c ****         uint16 i;
 140:.\Generated_Source\PSoC5/USBUART_1.c ****     #endif   /* End USBUART_1_EP_MM != USBUART_1__EP_MANUAL */
 141:.\Generated_Source\PSoC5/USBUART_1.c **** 
 142:.\Generated_Source\PSoC5/USBUART_1.c ****     enableInterrupts = CyEnterCriticalSection();
  40              		.loc 1 142 0
  41 0002 FFF7FEFF 		bl	CyEnterCriticalSection
  42              	.LVL0:
 143:.\Generated_Source\PSoC5/USBUART_1.c **** 
 144:.\Generated_Source\PSoC5/USBUART_1.c ****     /* Enable USB block  */
 145:.\Generated_Source\PSoC5/USBUART_1.c ****     USBUART_1_PM_ACT_CFG_REG |= USBUART_1_PM_ACT_EN_FSUSB;
  43              		.loc 1 145 0
  44 0006 3C4B     		ldr	r3, .L2
 142:.\Generated_Source\PSoC5/USBUART_1.c ****     enableInterrupts = CyEnterCriticalSection();
  45              		.loc 1 142 0
  46 0008 0746     		mov	r7, r0
  47              	.LVL1:
  48              		.loc 1 145 0
  49 000a 1A78     		ldrb	r2, [r3, #0]	@ zero_extendqisi2
 146:.\Generated_Source\PSoC5/USBUART_1.c ****     /* Enable USB block for Standby Power Mode */
 147:.\Generated_Source\PSoC5/USBUART_1.c ****     USBUART_1_PM_STBY_CFG_REG |= USBUART_1_PM_STBY_EN_FSUSB;
 148:.\Generated_Source\PSoC5/USBUART_1.c **** 
 149:.\Generated_Source\PSoC5/USBUART_1.c ****     /* Enable core clock */
 150:.\Generated_Source\PSoC5/USBUART_1.c ****     USBUART_1_USB_CLK_EN_REG = USBUART_1_USB_CLK_ENABLE;
  50              		.loc 1 150 0
  51 000c 0126     		movs	r6, #1
 145:.\Generated_Source\PSoC5/USBUART_1.c ****     USBUART_1_PM_ACT_CFG_REG |= USBUART_1_PM_ACT_EN_FSUSB;
  52              		.loc 1 145 0
  53 000e 42F00100 		orr	r0, r2, #1
  54              	.LVL2:
  55 0012 1870     		strb	r0, [r3, #0]
 147:.\Generated_Source\PSoC5/USBUART_1.c ****     USBUART_1_PM_STBY_CFG_REG |= USBUART_1_PM_STBY_EN_FSUSB;
  56              		.loc 1 147 0
  57 0014 197C     		ldrb	r1, [r3, #16]	@ zero_extendqisi2
 151:.\Generated_Source\PSoC5/USBUART_1.c **** 
 152:.\Generated_Source\PSoC5/USBUART_1.c ****     USBUART_1_CR1_REG = USBUART_1_CR1_ENABLE_LOCK;
  58              		.loc 1 152 0
  59 0016 0225     		movs	r5, #2
 147:.\Generated_Source\PSoC5/USBUART_1.c ****     USBUART_1_PM_STBY_CFG_REG |= USBUART_1_PM_STBY_EN_FSUSB;
  60              		.loc 1 147 0
  61 0018 41F00104 		orr	r4, r1, #1
  62 001c 1C74     		strb	r4, [r3, #16]
 150:.\Generated_Source\PSoC5/USBUART_1.c ****     USBUART_1_USB_CLK_EN_REG = USBUART_1_USB_CLK_ENABLE;
  63              		.loc 1 150 0
  64 001e 374B     		ldr	r3, .L2+4
 153:.\Generated_Source\PSoC5/USBUART_1.c **** 
 154:.\Generated_Source\PSoC5/USBUART_1.c ****     /* ENABLING USBIO PADS IN USB MODE FROM I/O MODE */
 155:.\Generated_Source\PSoC5/USBUART_1.c ****     /* Ensure USB transmit enable is low (USB_USBIO_CR0.ten). - Manual Transmission - Disabled */
 156:.\Generated_Source\PSoC5/USBUART_1.c ****     USBUART_1_USBIO_CR0_REG &= ((uint8)(~USBUART_1_USBIO_CR0_TEN));
 157:.\Generated_Source\PSoC5/USBUART_1.c ****     CyDelayUs(0u);  /*~50ns delay */
 158:.\Generated_Source\PSoC5/USBUART_1.c ****     /* Disable the USBIO by asserting PM.USB_CR0.fsusbio_pd_n(Inverted)
 159:.\Generated_Source\PSoC5/USBUART_1.c ****     *  high. This will have been set low by the power manger out of reset.
ARM GAS  C:\Users\Luke\AppData\Local\Temp\ccuzhVDD.s 			page 5


 160:.\Generated_Source\PSoC5/USBUART_1.c ****     *  Also confirm USBIO pull-up disabled
 161:.\Generated_Source\PSoC5/USBUART_1.c ****     */
 162:.\Generated_Source\PSoC5/USBUART_1.c ****     USBUART_1_PM_USB_CR0_REG &= ((uint8)(~(USBUART_1_PM_USB_CR0_PD_N |
  65              		.loc 1 162 0
  66 0020 374C     		ldr	r4, .L2+8
 150:.\Generated_Source\PSoC5/USBUART_1.c ****     USBUART_1_USB_CLK_EN_REG = USBUART_1_USB_CLK_ENABLE;
  67              		.loc 1 150 0
  68 0022 1E70     		strb	r6, [r3, #0]
 152:.\Generated_Source\PSoC5/USBUART_1.c ****     USBUART_1_CR1_REG = USBUART_1_CR1_ENABLE_LOCK;
  69              		.loc 1 152 0
  70 0024 03F8945C 		strb	r5, [r3, #-148]
 156:.\Generated_Source\PSoC5/USBUART_1.c ****     USBUART_1_USBIO_CR0_REG &= ((uint8)(~USBUART_1_USBIO_CR0_TEN));
  71              		.loc 1 156 0
  72 0028 13F88D2C 		ldrb	r2, [r3, #-141]	@ zero_extendqisi2
  73 002c 02F07F00 		and	r0, r2, #127
  74 0030 03F88D0C 		strb	r0, [r3, #-141]
 157:.\Generated_Source\PSoC5/USBUART_1.c ****     CyDelayUs(0u);  /*~50ns delay */
  75              		.loc 1 157 0
  76 0034 0020     		movs	r0, #0
  77 0036 FFF7FEFF 		bl	CyDelayUs
  78              	.LVL3:
  79              		.loc 1 162 0
  80 003a 2178     		ldrb	r1, [r4, #0]	@ zero_extendqisi2
 163:.\Generated_Source\PSoC5/USBUART_1.c ****                                                   USBUART_1_PM_USB_CR0_PD_PULLUP_N)));
 164:.\Generated_Source\PSoC5/USBUART_1.c **** 
 165:.\Generated_Source\PSoC5/USBUART_1.c ****     /* Select iomode to USB mode*/
 166:.\Generated_Source\PSoC5/USBUART_1.c ****     USBUART_1_USBIO_CR1_REG &= ((uint8)(~USBUART_1_USBIO_CR1_IOMODE));
  81              		.loc 1 166 0
  82 003c 3148     		ldr	r0, .L2+12
 162:.\Generated_Source\PSoC5/USBUART_1.c ****     USBUART_1_PM_USB_CR0_REG &= ((uint8)(~(USBUART_1_PM_USB_CR0_PD_N |
  83              		.loc 1 162 0
  84 003e 01F0F903 		and	r3, r1, #249
  85 0042 2370     		strb	r3, [r4, #0]
  86              		.loc 1 166 0
  87 0044 0278     		ldrb	r2, [r0, #0]	@ zero_extendqisi2
  88 0046 02F0DF01 		and	r1, r2, #223
  89 004a 0170     		strb	r1, [r0, #0]
 167:.\Generated_Source\PSoC5/USBUART_1.c **** 
 168:.\Generated_Source\PSoC5/USBUART_1.c ****     /* Enable the USBIO reference by setting PM.USB_CR0.fsusbio_ref_en.*/
 169:.\Generated_Source\PSoC5/USBUART_1.c ****     USBUART_1_PM_USB_CR0_REG |= USBUART_1_PM_USB_CR0_REF_EN;
  90              		.loc 1 169 0
  91 004c 2378     		ldrb	r3, [r4, #0]	@ zero_extendqisi2
 170:.\Generated_Source\PSoC5/USBUART_1.c ****     /* The reference will be available 1 us after the regulator is enabled */
 171:.\Generated_Source\PSoC5/USBUART_1.c ****     CyDelayUs(1u);
  92              		.loc 1 171 0
  93 004e 3046     		mov	r0, r6
 169:.\Generated_Source\PSoC5/USBUART_1.c ****     USBUART_1_PM_USB_CR0_REG |= USBUART_1_PM_USB_CR0_REF_EN;
  94              		.loc 1 169 0
  95 0050 3343     		orrs	r3, r3, r6
  96 0052 2370     		strb	r3, [r4, #0]
  97              		.loc 1 171 0
  98 0054 FFF7FEFF 		bl	CyDelayUs
  99              	.LVL4:
 172:.\Generated_Source\PSoC5/USBUART_1.c ****     /* OR 40us after power restored */
 173:.\Generated_Source\PSoC5/USBUART_1.c ****     CyDelayUs(40u);
 100              		.loc 1 173 0
 101 0058 2820     		movs	r0, #40
ARM GAS  C:\Users\Luke\AppData\Local\Temp\ccuzhVDD.s 			page 6


 102 005a FFF7FEFF 		bl	CyDelayUs
 103              	.LVL5:
 174:.\Generated_Source\PSoC5/USBUART_1.c ****     /* Ensure the single ended disable bits are low (PRT15.INP_DIS[7:6])(input receiver enabled). *
 175:.\Generated_Source\PSoC5/USBUART_1.c ****     USBUART_1_DM_INP_DIS_REG &= ((uint8)(~USBUART_1_DM_MASK));
 104              		.loc 1 175 0
 105 005e 2A48     		ldr	r0, .L2+16
 106 0060 0278     		ldrb	r2, [r0, #0]	@ zero_extendqisi2
 107 0062 02F07F01 		and	r1, r2, #127
 108 0066 0170     		strb	r1, [r0, #0]
 176:.\Generated_Source\PSoC5/USBUART_1.c ****     USBUART_1_DP_INP_DIS_REG &= ((uint8)(~USBUART_1_DP_MASK));
 109              		.loc 1 176 0
 110 0068 0378     		ldrb	r3, [r0, #0]	@ zero_extendqisi2
 111 006a 03F0BF02 		and	r2, r3, #191
 112 006e 0270     		strb	r2, [r0, #0]
 177:.\Generated_Source\PSoC5/USBUART_1.c **** 
 178:.\Generated_Source\PSoC5/USBUART_1.c ****     /* Enable USBIO */
 179:.\Generated_Source\PSoC5/USBUART_1.c ****     USBUART_1_PM_USB_CR0_REG |= USBUART_1_PM_USB_CR0_PD_N;
 113              		.loc 1 179 0
 114 0070 2078     		ldrb	r0, [r4, #0]	@ zero_extendqisi2
 115 0072 2843     		orrs	r0, r0, r5
 116 0074 2070     		strb	r0, [r4, #0]
 180:.\Generated_Source\PSoC5/USBUART_1.c ****     CyDelayUs(2u);
 117              		.loc 1 180 0
 118 0076 2846     		mov	r0, r5
 119 0078 FFF7FEFF 		bl	CyDelayUs
 120              	.LVL6:
 181:.\Generated_Source\PSoC5/USBUART_1.c ****     /* Set the USBIO pull-up enable */
 182:.\Generated_Source\PSoC5/USBUART_1.c ****     USBUART_1_PM_USB_CR0_REG |= USBUART_1_PM_USB_CR0_PD_PULLUP_N;
 121              		.loc 1 182 0
 122 007c 2178     		ldrb	r1, [r4, #0]	@ zero_extendqisi2
 183:.\Generated_Source\PSoC5/USBUART_1.c **** 
 184:.\Generated_Source\PSoC5/USBUART_1.c ****     /* Write WAx */
 185:.\Generated_Source\PSoC5/USBUART_1.c ****     CY_SET_REG8(USBUART_1_ARB_RW1_WA_PTR,     0u);
 123              		.loc 1 185 0
 124 007e 234A     		ldr	r2, .L2+20
 182:.\Generated_Source\PSoC5/USBUART_1.c ****     USBUART_1_PM_USB_CR0_REG |= USBUART_1_PM_USB_CR0_PD_PULLUP_N;
 125              		.loc 1 182 0
 126 0080 41F00403 		orr	r3, r1, #4
 127              		.loc 1 185 0
 128 0084 0020     		movs	r0, #0
 182:.\Generated_Source\PSoC5/USBUART_1.c ****     USBUART_1_PM_USB_CR0_REG |= USBUART_1_PM_USB_CR0_PD_PULLUP_N;
 129              		.loc 1 182 0
 130 0086 2370     		strb	r3, [r4, #0]
 131              		.loc 1 185 0
 132 0088 1070     		strb	r0, [r2, #0]
 186:.\Generated_Source\PSoC5/USBUART_1.c ****     CY_SET_REG8(USBUART_1_ARB_RW1_WA_MSB_PTR, 0u);
 133              		.loc 1 186 0
 134 008a 5070     		strb	r0, [r2, #1]
 187:.\Generated_Source\PSoC5/USBUART_1.c **** 
 188:.\Generated_Source\PSoC5/USBUART_1.c ****     #if(USBUART_1_EP_MM != USBUART_1__EP_MANUAL)
 189:.\Generated_Source\PSoC5/USBUART_1.c ****         /* Init transfer descriptor. This will be used to detect the DMA state - initialized or not
 190:.\Generated_Source\PSoC5/USBUART_1.c ****         for (i = 0u; i < USBUART_1_MAX_EP; i++)
 191:.\Generated_Source\PSoC5/USBUART_1.c ****         {
 192:.\Generated_Source\PSoC5/USBUART_1.c ****             USBUART_1_DmaTd[i] = DMA_INVALID_TD;
 193:.\Generated_Source\PSoC5/USBUART_1.c ****         }
 194:.\Generated_Source\PSoC5/USBUART_1.c ****     #endif   /* End USBUART_1_EP_MM != USBUART_1__EP_MANUAL */
 195:.\Generated_Source\PSoC5/USBUART_1.c **** 
ARM GAS  C:\Users\Luke\AppData\Local\Temp\ccuzhVDD.s 			page 7


 196:.\Generated_Source\PSoC5/USBUART_1.c ****     CyExitCriticalSection(enableInterrupts);
 135              		.loc 1 196 0
 136 008c 3846     		mov	r0, r7
 137 008e FFF7FEFF 		bl	CyExitCriticalSection
 138              	.LVL7:
 197:.\Generated_Source\PSoC5/USBUART_1.c **** 
 198:.\Generated_Source\PSoC5/USBUART_1.c **** 
 199:.\Generated_Source\PSoC5/USBUART_1.c ****     /* Set the bus reset Interrupt. */
 200:.\Generated_Source\PSoC5/USBUART_1.c ****     (void) CyIntSetVector(USBUART_1_BUS_RESET_VECT_NUM,   &USBUART_1_BUS_RESET_ISR);
 139              		.loc 1 200 0
 140 0092 1720     		movs	r0, #23
 141 0094 1E49     		ldr	r1, .L2+24
 142 0096 FFF7FEFF 		bl	CyIntSetVector
 143              	.LVL8:
 201:.\Generated_Source\PSoC5/USBUART_1.c ****     CyIntSetPriority(USBUART_1_BUS_RESET_VECT_NUM, USBUART_1_BUS_RESET_PRIOR);
 144              		.loc 1 201 0
 145 009a 1720     		movs	r0, #23
 146 009c 0721     		movs	r1, #7
 147 009e FFF7FEFF 		bl	CyIntSetPriority
 148              	.LVL9:
 202:.\Generated_Source\PSoC5/USBUART_1.c **** 
 203:.\Generated_Source\PSoC5/USBUART_1.c ****     /* Set the SOF Interrupt. */
 204:.\Generated_Source\PSoC5/USBUART_1.c ****     #if(USBUART_1_SOF_ISR_REMOVE == 0u)
 205:.\Generated_Source\PSoC5/USBUART_1.c ****         (void) CyIntSetVector(USBUART_1_SOF_VECT_NUM,   &USBUART_1_SOF_ISR);
 149              		.loc 1 205 0
 150 00a2 1520     		movs	r0, #21
 151 00a4 1B49     		ldr	r1, .L2+28
 152 00a6 FFF7FEFF 		bl	CyIntSetVector
 153              	.LVL10:
 206:.\Generated_Source\PSoC5/USBUART_1.c ****         CyIntSetPriority(USBUART_1_SOF_VECT_NUM, USBUART_1_SOF_PRIOR);
 154              		.loc 1 206 0
 155 00aa 1520     		movs	r0, #21
 156 00ac 0721     		movs	r1, #7
 157 00ae FFF7FEFF 		bl	CyIntSetPriority
 158              	.LVL11:
 207:.\Generated_Source\PSoC5/USBUART_1.c ****     #endif   /* End USBUART_1_SOF_ISR_REMOVE */
 208:.\Generated_Source\PSoC5/USBUART_1.c **** 
 209:.\Generated_Source\PSoC5/USBUART_1.c ****     /* Set the Control Endpoint Interrupt. */
 210:.\Generated_Source\PSoC5/USBUART_1.c ****     (void) CyIntSetVector(USBUART_1_EP_0_VECT_NUM,   &USBUART_1_EP_0_ISR);
 159              		.loc 1 210 0
 160 00b2 1820     		movs	r0, #24
 161 00b4 1849     		ldr	r1, .L2+32
 162 00b6 FFF7FEFF 		bl	CyIntSetVector
 163              	.LVL12:
 211:.\Generated_Source\PSoC5/USBUART_1.c ****     CyIntSetPriority(USBUART_1_EP_0_VECT_NUM, USBUART_1_EP_0_PRIOR);
 164              		.loc 1 211 0
 165 00ba 1820     		movs	r0, #24
 166 00bc 0721     		movs	r1, #7
 167 00be FFF7FEFF 		bl	CyIntSetPriority
 168              	.LVL13:
 212:.\Generated_Source\PSoC5/USBUART_1.c **** 
 213:.\Generated_Source\PSoC5/USBUART_1.c ****     /* Set the Data Endpoint 1 Interrupt. */
 214:.\Generated_Source\PSoC5/USBUART_1.c ****     #if(USBUART_1_EP1_ISR_REMOVE == 0u)
 215:.\Generated_Source\PSoC5/USBUART_1.c ****         (void) CyIntSetVector(USBUART_1_EP_1_VECT_NUM,   &USBUART_1_EP_1_ISR);
 169              		.loc 1 215 0
 170 00c2 0320     		movs	r0, #3
 171 00c4 1549     		ldr	r1, .L2+36
ARM GAS  C:\Users\Luke\AppData\Local\Temp\ccuzhVDD.s 			page 8


 172 00c6 FFF7FEFF 		bl	CyIntSetVector
 173              	.LVL14:
 216:.\Generated_Source\PSoC5/USBUART_1.c ****         CyIntSetPriority(USBUART_1_EP_1_VECT_NUM, USBUART_1_EP_1_PRIOR);
 174              		.loc 1 216 0
 175 00ca 0320     		movs	r0, #3
 176 00cc 0721     		movs	r1, #7
 177 00ce FFF7FEFF 		bl	CyIntSetPriority
 178              	.LVL15:
 217:.\Generated_Source\PSoC5/USBUART_1.c ****     #endif   /* End USBUART_1_EP1_ISR_REMOVE */
 218:.\Generated_Source\PSoC5/USBUART_1.c **** 
 219:.\Generated_Source\PSoC5/USBUART_1.c ****     /* Set the Data Endpoint 2 Interrupt. */
 220:.\Generated_Source\PSoC5/USBUART_1.c ****     #if(USBUART_1_EP2_ISR_REMOVE == 0u)
 221:.\Generated_Source\PSoC5/USBUART_1.c ****         (void) CyIntSetVector(USBUART_1_EP_2_VECT_NUM,   &USBUART_1_EP_2_ISR);
 179              		.loc 1 221 0
 180 00d2 0420     		movs	r0, #4
 181 00d4 1249     		ldr	r1, .L2+40
 182 00d6 FFF7FEFF 		bl	CyIntSetVector
 183              	.LVL16:
 222:.\Generated_Source\PSoC5/USBUART_1.c ****         CyIntSetPriority(USBUART_1_EP_2_VECT_NUM, USBUART_1_EP_2_PRIOR);
 184              		.loc 1 222 0
 185 00da 0420     		movs	r0, #4
 186 00dc 0721     		movs	r1, #7
 187 00de FFF7FEFF 		bl	CyIntSetPriority
 188              	.LVL17:
 223:.\Generated_Source\PSoC5/USBUART_1.c ****     #endif   /* End USBUART_1_EP2_ISR_REMOVE */
 224:.\Generated_Source\PSoC5/USBUART_1.c **** 
 225:.\Generated_Source\PSoC5/USBUART_1.c ****     /* Set the Data Endpoint 3 Interrupt. */
 226:.\Generated_Source\PSoC5/USBUART_1.c ****     #if(USBUART_1_EP3_ISR_REMOVE == 0u)
 227:.\Generated_Source\PSoC5/USBUART_1.c ****         (void) CyIntSetVector(USBUART_1_EP_3_VECT_NUM,   &USBUART_1_EP_3_ISR);
 189              		.loc 1 227 0
 190 00e2 0520     		movs	r0, #5
 191 00e4 0F49     		ldr	r1, .L2+44
 192 00e6 FFF7FEFF 		bl	CyIntSetVector
 193              	.LVL18:
 228:.\Generated_Source\PSoC5/USBUART_1.c ****         CyIntSetPriority(USBUART_1_EP_3_VECT_NUM, USBUART_1_EP_3_PRIOR);
 194              		.loc 1 228 0
 195 00ea 0520     		movs	r0, #5
 196 00ec 0721     		movs	r1, #7
 229:.\Generated_Source\PSoC5/USBUART_1.c ****     #endif   /* End USBUART_1_EP3_ISR_REMOVE */
 230:.\Generated_Source\PSoC5/USBUART_1.c **** 
 231:.\Generated_Source\PSoC5/USBUART_1.c ****     /* Set the Data Endpoint 4 Interrupt. */
 232:.\Generated_Source\PSoC5/USBUART_1.c ****     #if(USBUART_1_EP4_ISR_REMOVE == 0u)
 233:.\Generated_Source\PSoC5/USBUART_1.c ****         (void) CyIntSetVector(USBUART_1_EP_4_VECT_NUM,   &USBUART_1_EP_4_ISR);
 234:.\Generated_Source\PSoC5/USBUART_1.c ****         CyIntSetPriority(USBUART_1_EP_4_VECT_NUM, USBUART_1_EP_4_PRIOR);
 235:.\Generated_Source\PSoC5/USBUART_1.c ****     #endif   /* End USBUART_1_EP4_ISR_REMOVE */
 236:.\Generated_Source\PSoC5/USBUART_1.c **** 
 237:.\Generated_Source\PSoC5/USBUART_1.c ****     /* Set the Data Endpoint 5 Interrupt. */
 238:.\Generated_Source\PSoC5/USBUART_1.c ****     #if(USBUART_1_EP5_ISR_REMOVE == 0u)
 239:.\Generated_Source\PSoC5/USBUART_1.c ****         (void) CyIntSetVector(USBUART_1_EP_5_VECT_NUM,   &USBUART_1_EP_5_ISR);
 240:.\Generated_Source\PSoC5/USBUART_1.c ****         CyIntSetPriority(USBUART_1_EP_5_VECT_NUM, USBUART_1_EP_5_PRIOR);
 241:.\Generated_Source\PSoC5/USBUART_1.c ****     #endif   /* End USBUART_1_EP5_ISR_REMOVE */
 242:.\Generated_Source\PSoC5/USBUART_1.c **** 
 243:.\Generated_Source\PSoC5/USBUART_1.c ****     /* Set the Data Endpoint 6 Interrupt. */
 244:.\Generated_Source\PSoC5/USBUART_1.c ****     #if(USBUART_1_EP6_ISR_REMOVE == 0u)
 245:.\Generated_Source\PSoC5/USBUART_1.c ****         (void) CyIntSetVector(USBUART_1_EP_6_VECT_NUM,   &USBUART_1_EP_6_ISR);
 246:.\Generated_Source\PSoC5/USBUART_1.c ****         CyIntSetPriority(USBUART_1_EP_6_VECT_NUM, USBUART_1_EP_6_PRIOR);
 247:.\Generated_Source\PSoC5/USBUART_1.c ****     #endif   /* End USBUART_1_EP6_ISR_REMOVE */
ARM GAS  C:\Users\Luke\AppData\Local\Temp\ccuzhVDD.s 			page 9


 248:.\Generated_Source\PSoC5/USBUART_1.c **** 
 249:.\Generated_Source\PSoC5/USBUART_1.c ****      /* Set the Data Endpoint 7 Interrupt. */
 250:.\Generated_Source\PSoC5/USBUART_1.c ****     #if(USBUART_1_EP7_ISR_REMOVE == 0u)
 251:.\Generated_Source\PSoC5/USBUART_1.c ****         (void) CyIntSetVector(USBUART_1_EP_7_VECT_NUM,   &USBUART_1_EP_7_ISR);
 252:.\Generated_Source\PSoC5/USBUART_1.c ****         CyIntSetPriority(USBUART_1_EP_7_VECT_NUM, USBUART_1_EP_7_PRIOR);
 253:.\Generated_Source\PSoC5/USBUART_1.c ****     #endif   /* End USBUART_1_EP7_ISR_REMOVE */
 254:.\Generated_Source\PSoC5/USBUART_1.c **** 
 255:.\Generated_Source\PSoC5/USBUART_1.c ****     /* Set the Data Endpoint 8 Interrupt. */
 256:.\Generated_Source\PSoC5/USBUART_1.c ****     #if(USBUART_1_EP8_ISR_REMOVE == 0u)
 257:.\Generated_Source\PSoC5/USBUART_1.c ****         (void) CyIntSetVector(USBUART_1_EP_8_VECT_NUM,   &USBUART_1_EP_8_ISR);
 258:.\Generated_Source\PSoC5/USBUART_1.c ****         CyIntSetPriority(USBUART_1_EP_8_VECT_NUM, USBUART_1_EP_8_PRIOR);
 259:.\Generated_Source\PSoC5/USBUART_1.c ****     #endif   /* End USBUART_1_EP8_ISR_REMOVE */
 260:.\Generated_Source\PSoC5/USBUART_1.c **** 
 261:.\Generated_Source\PSoC5/USBUART_1.c ****     #if((USBUART_1_EP_MM != USBUART_1__EP_MANUAL) && (USBUART_1_ARB_ISR_REMOVE == 0u))
 262:.\Generated_Source\PSoC5/USBUART_1.c ****         /* Set the ARB Interrupt. */
 263:.\Generated_Source\PSoC5/USBUART_1.c ****         (void) CyIntSetVector(USBUART_1_ARB_VECT_NUM,   &USBUART_1_ARB_ISR);
 264:.\Generated_Source\PSoC5/USBUART_1.c ****         CyIntSetPriority(USBUART_1_ARB_VECT_NUM, USBUART_1_ARB_PRIOR);
 265:.\Generated_Source\PSoC5/USBUART_1.c ****     #endif   /* End USBUART_1_EP_MM != USBUART_1__EP_MANUAL */
 266:.\Generated_Source\PSoC5/USBUART_1.c **** 
 267:.\Generated_Source\PSoC5/USBUART_1.c **** }
 197              		.loc 1 267 0
 198 00ee BDE8F840 		pop	{r3, r4, r5, r6, r7, lr}
 228:.\Generated_Source\PSoC5/USBUART_1.c ****         CyIntSetPriority(USBUART_1_EP_3_VECT_NUM, USBUART_1_EP_3_PRIOR);
 199              		.loc 1 228 0
 200 00f2 FFF7FEBF 		b	CyIntSetPriority
 201              	.LVL19:
 202              	.L3:
 203 00f6 00BF     		.align	2
 204              	.L2:
 205 00f8 A5430040 		.word	1073759141
 206 00fc 9D600040 		.word	1073766557
 207 0100 94430040 		.word	1073759124
 208 0104 12600040 		.word	1073766418
 209 0108 F8510040 		.word	1073762808
 210 010c 84600040 		.word	1073766532
 211 0110 00000000 		.word	USBUART_1_BUS_RESET_ISR
 212 0114 00000000 		.word	USBUART_1_SOF_ISR
 213 0118 00000000 		.word	USBUART_1_EP_0_ISR
 214 011c 00000000 		.word	USBUART_1_EP_1_ISR
 215 0120 00000000 		.word	USBUART_1_EP_2_ISR
 216 0124 00000000 		.word	USBUART_1_EP_3_ISR
 217              		.cfi_endproc
 218              	.LFE1:
 219              		.size	USBUART_1_Init, .-USBUART_1_Init
 220              		.section	.text.USBUART_1_InitComponent,"ax",%progbits
 221              		.align	1
 222              		.global	USBUART_1_InitComponent
 223              		.thumb
 224              		.thumb_func
 225              		.type	USBUART_1_InitComponent, %function
 226              	USBUART_1_InitComponent:
 227              	.LFB2:
 268:.\Generated_Source\PSoC5/USBUART_1.c **** 
 269:.\Generated_Source\PSoC5/USBUART_1.c **** 
 270:.\Generated_Source\PSoC5/USBUART_1.c **** /*******************************************************************************
 271:.\Generated_Source\PSoC5/USBUART_1.c **** * Function Name: USBUART_1_InitComponent
 272:.\Generated_Source\PSoC5/USBUART_1.c **** ********************************************************************************
ARM GAS  C:\Users\Luke\AppData\Local\Temp\ccuzhVDD.s 			page 10


 273:.\Generated_Source\PSoC5/USBUART_1.c **** *
 274:.\Generated_Source\PSoC5/USBUART_1.c **** * Summary:
 275:.\Generated_Source\PSoC5/USBUART_1.c **** *  Initialize the component, except for the HW which is done one time in
 276:.\Generated_Source\PSoC5/USBUART_1.c **** *  the Start function.  This function pulls up D+.
 277:.\Generated_Source\PSoC5/USBUART_1.c **** *
 278:.\Generated_Source\PSoC5/USBUART_1.c **** * Parameters:
 279:.\Generated_Source\PSoC5/USBUART_1.c **** *  device: Contains the device number of the desired device descriptor.
 280:.\Generated_Source\PSoC5/USBUART_1.c **** *          The device number can be found in the Device Descriptor Tab of
 281:.\Generated_Source\PSoC5/USBUART_1.c **** *          "Configure" dialog, under the settings of desired Device Descriptor,
 282:.\Generated_Source\PSoC5/USBUART_1.c **** *          in the "Device Number" field.
 283:.\Generated_Source\PSoC5/USBUART_1.c **** *  mode: The operating voltage. This determines whether the voltage regulator
 284:.\Generated_Source\PSoC5/USBUART_1.c **** *        is enabled for 5V operation or if pass through mode is used for 3.3V
 285:.\Generated_Source\PSoC5/USBUART_1.c **** *        operation. Symbolic names and their associated values are given in the
 286:.\Generated_Source\PSoC5/USBUART_1.c **** *        following table.
 287:.\Generated_Source\PSoC5/USBUART_1.c **** *       USBUART_1_3V_OPERATION - Disable voltage regulator and pass-thru
 288:.\Generated_Source\PSoC5/USBUART_1.c **** *                                       Vcc for pull-up
 289:.\Generated_Source\PSoC5/USBUART_1.c **** *       USBUART_1_5V_OPERATION - Enable voltage regulator and use
 290:.\Generated_Source\PSoC5/USBUART_1.c **** *                                       regulator for pull-up
 291:.\Generated_Source\PSoC5/USBUART_1.c **** *       USBUART_1_DWR_VDDD_OPERATION - Enable or Disable voltage
 292:.\Generated_Source\PSoC5/USBUART_1.c **** *                         regulator depend on Vddd Voltage configuration in DWR.
 293:.\Generated_Source\PSoC5/USBUART_1.c **** *
 294:.\Generated_Source\PSoC5/USBUART_1.c **** * Return:
 295:.\Generated_Source\PSoC5/USBUART_1.c **** *   None.
 296:.\Generated_Source\PSoC5/USBUART_1.c **** *
 297:.\Generated_Source\PSoC5/USBUART_1.c **** * Global variables:
 298:.\Generated_Source\PSoC5/USBUART_1.c **** *   USBUART_1_device: Contains the device number of the desired device
 299:.\Generated_Source\PSoC5/USBUART_1.c **** *       descriptor. The device number can be found in the Device Descriptor Tab
 300:.\Generated_Source\PSoC5/USBUART_1.c **** *       of "Configure" dialog, under the settings of desired Device Descriptor,
 301:.\Generated_Source\PSoC5/USBUART_1.c **** *       in the "Device Number" field.
 302:.\Generated_Source\PSoC5/USBUART_1.c **** *   USBUART_1_transferState: This variable used by the communication
 303:.\Generated_Source\PSoC5/USBUART_1.c **** *       functions to handle current transfer state. Initialized to
 304:.\Generated_Source\PSoC5/USBUART_1.c **** *       TRANS_STATE_IDLE in this API.
 305:.\Generated_Source\PSoC5/USBUART_1.c **** *   USBUART_1_configuration: Contains current configuration number
 306:.\Generated_Source\PSoC5/USBUART_1.c **** *       which is set by the Host using SET_CONFIGURATION request.
 307:.\Generated_Source\PSoC5/USBUART_1.c **** *       Initialized to zero in this API.
 308:.\Generated_Source\PSoC5/USBUART_1.c **** *   USBUART_1_deviceAddress: Contains current device address. This
 309:.\Generated_Source\PSoC5/USBUART_1.c **** *       variable is initialized to zero in this API. Host starts to communicate
 310:.\Generated_Source\PSoC5/USBUART_1.c **** *      to device with address 0 and then set it to whatever value using
 311:.\Generated_Source\PSoC5/USBUART_1.c **** *      SET_ADDRESS request.
 312:.\Generated_Source\PSoC5/USBUART_1.c **** *   USBUART_1_deviceStatus: initialized to 0.
 313:.\Generated_Source\PSoC5/USBUART_1.c **** *       This is two bit variable which contain power status in first bit
 314:.\Generated_Source\PSoC5/USBUART_1.c **** *       (DEVICE_STATUS_BUS_POWERED or DEVICE_STATUS_SELF_POWERED) and remote
 315:.\Generated_Source\PSoC5/USBUART_1.c **** *       wakeup status (DEVICE_STATUS_REMOTE_WAKEUP) in second bit.
 316:.\Generated_Source\PSoC5/USBUART_1.c **** *   USBUART_1_lastPacketSize initialized to 0;
 317:.\Generated_Source\PSoC5/USBUART_1.c **** *
 318:.\Generated_Source\PSoC5/USBUART_1.c **** * Reentrant:
 319:.\Generated_Source\PSoC5/USBUART_1.c **** *  No.
 320:.\Generated_Source\PSoC5/USBUART_1.c **** *
 321:.\Generated_Source\PSoC5/USBUART_1.c **** *******************************************************************************/
 322:.\Generated_Source\PSoC5/USBUART_1.c **** void USBUART_1_InitComponent(uint8 device, uint8 mode) 
 323:.\Generated_Source\PSoC5/USBUART_1.c **** {
 228              		.loc 1 323 0
 229              		.cfi_startproc
 230              		@ args = 0, pretend = 0, frame = 0
 231              		@ frame_needed = 0, uses_anonymous_args = 0
 232              	.LVL20:
 233 0000 08B5     		push	{r3, lr}
ARM GAS  C:\Users\Luke\AppData\Local\Temp\ccuzhVDD.s 			page 11


 234              	.LCFI1:
 235              		.cfi_def_cfa_offset 8
 236              		.cfi_offset 3, -8
 237              		.cfi_offset 14, -4
 324:.\Generated_Source\PSoC5/USBUART_1.c ****     /* Initialize _hidProtocol variable to comply with
 325:.\Generated_Source\PSoC5/USBUART_1.c ****     *  HID 7.2.6 Set_Protocol Request:
 326:.\Generated_Source\PSoC5/USBUART_1.c ****     *  "When initialized, all devices default to report protocol."
 327:.\Generated_Source\PSoC5/USBUART_1.c ****     */
 328:.\Generated_Source\PSoC5/USBUART_1.c ****     #if defined(USBUART_1_ENABLE_HID_CLASS)
 329:.\Generated_Source\PSoC5/USBUART_1.c ****         uint8 i;
 330:.\Generated_Source\PSoC5/USBUART_1.c **** 
 331:.\Generated_Source\PSoC5/USBUART_1.c ****         for (i = 0u; i < USBUART_1_MAX_INTERFACES_NUMBER; i++)
 332:.\Generated_Source\PSoC5/USBUART_1.c ****         {
 333:.\Generated_Source\PSoC5/USBUART_1.c ****             USBUART_1_hidProtocol[i] = USBUART_1_PROTOCOL_REPORT;
 334:.\Generated_Source\PSoC5/USBUART_1.c ****         }
 335:.\Generated_Source\PSoC5/USBUART_1.c ****     #endif /* USBUART_1_ENABLE_HID_CLASS */
 336:.\Generated_Source\PSoC5/USBUART_1.c **** 
 337:.\Generated_Source\PSoC5/USBUART_1.c ****     /* Enable Interrupts. */
 338:.\Generated_Source\PSoC5/USBUART_1.c ****     CyIntEnable(USBUART_1_BUS_RESET_VECT_NUM);
 238              		.loc 1 338 0
 239 0002 194B     		ldr	r3, .L11
 240 0004 4FF40002 		mov	r2, #8388608
 241 0008 1A60     		str	r2, [r3, #0]
 339:.\Generated_Source\PSoC5/USBUART_1.c ****     CyIntEnable(USBUART_1_EP_0_VECT_NUM);
 242              		.loc 1 339 0
 243 000a 4FF08072 		mov	r2, #16777216
 244 000e 1A60     		str	r2, [r3, #0]
 340:.\Generated_Source\PSoC5/USBUART_1.c ****     #if(USBUART_1_EP1_ISR_REMOVE == 0u)
 341:.\Generated_Source\PSoC5/USBUART_1.c ****         CyIntEnable(USBUART_1_EP_1_VECT_NUM);
 245              		.loc 1 341 0
 246 0010 0822     		movs	r2, #8
 247 0012 1A60     		str	r2, [r3, #0]
 342:.\Generated_Source\PSoC5/USBUART_1.c ****     #endif   /* End USBUART_1_EP1_ISR_REMOVE */
 343:.\Generated_Source\PSoC5/USBUART_1.c ****     #if(USBUART_1_EP2_ISR_REMOVE == 0u)
 344:.\Generated_Source\PSoC5/USBUART_1.c ****         CyIntEnable(USBUART_1_EP_2_VECT_NUM);
 248              		.loc 1 344 0
 249 0014 1022     		movs	r2, #16
 250 0016 1A60     		str	r2, [r3, #0]
 345:.\Generated_Source\PSoC5/USBUART_1.c ****     #endif   /* End USBUART_1_EP2_ISR_REMOVE */
 346:.\Generated_Source\PSoC5/USBUART_1.c ****     #if(USBUART_1_EP3_ISR_REMOVE == 0u)
 347:.\Generated_Source\PSoC5/USBUART_1.c ****         CyIntEnable(USBUART_1_EP_3_VECT_NUM);
 251              		.loc 1 347 0
 252 0018 2022     		movs	r2, #32
 253 001a 1A60     		str	r2, [r3, #0]
 348:.\Generated_Source\PSoC5/USBUART_1.c ****     #endif   /* End USBUART_1_EP3_ISR_REMOVE */
 349:.\Generated_Source\PSoC5/USBUART_1.c ****     #if(USBUART_1_EP4_ISR_REMOVE == 0u)
 350:.\Generated_Source\PSoC5/USBUART_1.c ****         CyIntEnable(USBUART_1_EP_4_VECT_NUM);
 351:.\Generated_Source\PSoC5/USBUART_1.c ****     #endif   /* End USBUART_1_EP4_ISR_REMOVE */
 352:.\Generated_Source\PSoC5/USBUART_1.c ****     #if(USBUART_1_EP5_ISR_REMOVE == 0u)
 353:.\Generated_Source\PSoC5/USBUART_1.c ****         CyIntEnable(USBUART_1_EP_5_VECT_NUM);
 354:.\Generated_Source\PSoC5/USBUART_1.c ****     #endif   /* End USBUART_1_EP5_ISR_REMOVE */
 355:.\Generated_Source\PSoC5/USBUART_1.c ****     #if(USBUART_1_EP6_ISR_REMOVE == 0u)
 356:.\Generated_Source\PSoC5/USBUART_1.c ****         CyIntEnable(USBUART_1_EP_6_VECT_NUM);
 357:.\Generated_Source\PSoC5/USBUART_1.c ****     #endif   /* End USBUART_1_EP6_ISR_REMOVE */
 358:.\Generated_Source\PSoC5/USBUART_1.c ****     #if(USBUART_1_EP7_ISR_REMOVE == 0u)
 359:.\Generated_Source\PSoC5/USBUART_1.c ****         CyIntEnable(USBUART_1_EP_7_VECT_NUM);
 360:.\Generated_Source\PSoC5/USBUART_1.c ****     #endif   /* End USBUART_1_EP7_ISR_REMOVE */
ARM GAS  C:\Users\Luke\AppData\Local\Temp\ccuzhVDD.s 			page 12


 361:.\Generated_Source\PSoC5/USBUART_1.c ****     #if(USBUART_1_EP8_ISR_REMOVE == 0u)
 362:.\Generated_Source\PSoC5/USBUART_1.c ****         CyIntEnable(USBUART_1_EP_8_VECT_NUM);
 363:.\Generated_Source\PSoC5/USBUART_1.c ****     #endif   /* End USBUART_1_EP8_ISR_REMOVE */
 364:.\Generated_Source\PSoC5/USBUART_1.c ****     #if((USBUART_1_EP_MM != USBUART_1__EP_MANUAL) && (USBUART_1_ARB_ISR_REMOVE == 0u))
 365:.\Generated_Source\PSoC5/USBUART_1.c ****         /* usb arb interrupt enable */
 366:.\Generated_Source\PSoC5/USBUART_1.c ****         USBUART_1_ARB_INT_EN_REG = USBUART_1_ARB_INT_MASK;
 367:.\Generated_Source\PSoC5/USBUART_1.c ****         CyIntEnable(USBUART_1_ARB_VECT_NUM);
 368:.\Generated_Source\PSoC5/USBUART_1.c ****     #endif   /* End USBUART_1_EP_MM != USBUART_1__EP_MANUAL */
 369:.\Generated_Source\PSoC5/USBUART_1.c **** 
 370:.\Generated_Source\PSoC5/USBUART_1.c ****     /* Arbiter configuration for DMA transfers */
 371:.\Generated_Source\PSoC5/USBUART_1.c ****     #if(USBUART_1_EP_MM != USBUART_1__EP_MANUAL)
 372:.\Generated_Source\PSoC5/USBUART_1.c **** 
 373:.\Generated_Source\PSoC5/USBUART_1.c ****         #if(USBUART_1_EP_MM == USBUART_1__EP_DMAMANUAL)
 374:.\Generated_Source\PSoC5/USBUART_1.c ****             USBUART_1_ARB_CFG_REG = USBUART_1_ARB_CFG_MANUAL_DMA;
 375:.\Generated_Source\PSoC5/USBUART_1.c ****         #endif   /* End USBUART_1_EP_MM == USBUART_1__EP_DMAMANUAL */
 376:.\Generated_Source\PSoC5/USBUART_1.c ****         #if(USBUART_1_EP_MM == USBUART_1__EP_DMAAUTO)
 377:.\Generated_Source\PSoC5/USBUART_1.c ****             /*Set cfg cmplt this rises DMA request when the full configuration is done */
 378:.\Generated_Source\PSoC5/USBUART_1.c ****             USBUART_1_ARB_CFG_REG = USBUART_1_ARB_CFG_AUTO_DMA | USBUART_1_ARB_CFG_AUTO_MEM;
 379:.\Generated_Source\PSoC5/USBUART_1.c ****         #endif   /* End USBUART_1_EP_MM == USBUART_1__EP_DMAAUTO */
 380:.\Generated_Source\PSoC5/USBUART_1.c ****     #endif   /* End USBUART_1_EP_MM != USBUART_1__EP_MANUAL */
 381:.\Generated_Source\PSoC5/USBUART_1.c **** 
 382:.\Generated_Source\PSoC5/USBUART_1.c ****     USBUART_1_transferState = USBUART_1_TRANS_STATE_IDLE;
 254              		.loc 1 382 0
 255 001c 134B     		ldr	r3, .L11+4
 256 001e 0022     		movs	r2, #0
 257 0020 1A70     		strb	r2, [r3, #0]
 258 0022 134B     		ldr	r3, .L11+8
 383:.\Generated_Source\PSoC5/USBUART_1.c **** 
 384:.\Generated_Source\PSoC5/USBUART_1.c ****     /* USB Locking: Enabled, VRegulator: depend on mode or DWR Voltage configuration*/
 385:.\Generated_Source\PSoC5/USBUART_1.c ****     switch(mode)
 259              		.loc 1 385 0
 260 0024 09B1     		cbz	r1, .L6
 261 0026 0321     		movs	r1, #3
 262              	.LVL21:
 263 0028 00E0     		b	.L9
 264              	.LVL22:
 265              	.L6:
 386:.\Generated_Source\PSoC5/USBUART_1.c ****     {
 387:.\Generated_Source\PSoC5/USBUART_1.c ****         case USBUART_1_3V_OPERATION:
 388:.\Generated_Source\PSoC5/USBUART_1.c ****             USBUART_1_CR1_REG = USBUART_1_CR1_ENABLE_LOCK;
 266              		.loc 1 388 0
 267 002a 0221     		movs	r1, #2
 268              	.LVL23:
 269              	.L9:
 389:.\Generated_Source\PSoC5/USBUART_1.c ****             break;
 390:.\Generated_Source\PSoC5/USBUART_1.c ****         case USBUART_1_5V_OPERATION:
 391:.\Generated_Source\PSoC5/USBUART_1.c ****             USBUART_1_CR1_REG = USBUART_1_CR1_ENABLE_LOCK | USBUART_1_CR1_REG_ENABLE;
 392:.\Generated_Source\PSoC5/USBUART_1.c ****             break;
 393:.\Generated_Source\PSoC5/USBUART_1.c ****         default:   /*USBUART_1_DWR_VDDD_OPERATION */
 394:.\Generated_Source\PSoC5/USBUART_1.c ****             #if(USBUART_1_VDDD_MV < USBUART_1_3500MV)
 395:.\Generated_Source\PSoC5/USBUART_1.c ****                 USBUART_1_CR1_REG = USBUART_1_CR1_ENABLE_LOCK;
 396:.\Generated_Source\PSoC5/USBUART_1.c ****             #else
 397:.\Generated_Source\PSoC5/USBUART_1.c ****                 USBUART_1_CR1_REG = USBUART_1_CR1_ENABLE_LOCK | USBUART_1_CR1_REG_ENABLE;
 398:.\Generated_Source\PSoC5/USBUART_1.c ****             #endif /* End USBUART_1_VDDD_MV < USBUART_1_3500MV */
 399:.\Generated_Source\PSoC5/USBUART_1.c ****             break;
 400:.\Generated_Source\PSoC5/USBUART_1.c ****     }
 401:.\Generated_Source\PSoC5/USBUART_1.c **** 
ARM GAS  C:\Users\Luke\AppData\Local\Temp\ccuzhVDD.s 			page 13


 402:.\Generated_Source\PSoC5/USBUART_1.c ****     /* Record the descriptor selection */
 403:.\Generated_Source\PSoC5/USBUART_1.c ****     USBUART_1_device = device;
 270              		.loc 1 403 0
 271 002c 114A     		ldr	r2, .L11+12
 397:.\Generated_Source\PSoC5/USBUART_1.c ****                 USBUART_1_CR1_REG = USBUART_1_CR1_ENABLE_LOCK | USBUART_1_CR1_REG_ENABLE;
 272              		.loc 1 397 0
 273 002e 1970     		strb	r1, [r3, #0]
 404:.\Generated_Source\PSoC5/USBUART_1.c **** 
 405:.\Generated_Source\PSoC5/USBUART_1.c ****     /* Clear all of the component data */
 406:.\Generated_Source\PSoC5/USBUART_1.c ****     USBUART_1_configuration = 0u;
 274              		.loc 1 406 0
 275 0030 114B     		ldr	r3, .L11+16
 403:.\Generated_Source\PSoC5/USBUART_1.c ****     USBUART_1_device = device;
 276              		.loc 1 403 0
 277 0032 1070     		strb	r0, [r2, #0]
 407:.\Generated_Source\PSoC5/USBUART_1.c ****     USBUART_1_interfaceNumber = 0u;
 278              		.loc 1 407 0
 279 0034 1149     		ldr	r1, .L11+20
 406:.\Generated_Source\PSoC5/USBUART_1.c ****     USBUART_1_configuration = 0u;
 280              		.loc 1 406 0
 281 0036 0020     		movs	r0, #0
 282              	.LVL24:
 408:.\Generated_Source\PSoC5/USBUART_1.c ****     USBUART_1_configurationChanged = 0u;
 283              		.loc 1 408 0
 284 0038 114A     		ldr	r2, .L11+24
 285              	.LVL25:
 406:.\Generated_Source\PSoC5/USBUART_1.c ****     USBUART_1_configuration = 0u;
 286              		.loc 1 406 0
 287 003a 1870     		strb	r0, [r3, #0]
 409:.\Generated_Source\PSoC5/USBUART_1.c ****     USBUART_1_deviceAddress  = 0u;
 288              		.loc 1 409 0
 289 003c 114B     		ldr	r3, .L11+28
 407:.\Generated_Source\PSoC5/USBUART_1.c ****     USBUART_1_interfaceNumber = 0u;
 290              		.loc 1 407 0
 291 003e 0870     		strb	r0, [r1, #0]
 408:.\Generated_Source\PSoC5/USBUART_1.c ****     USBUART_1_configurationChanged = 0u;
 292              		.loc 1 408 0
 293 0040 1070     		strb	r0, [r2, #0]
 410:.\Generated_Source\PSoC5/USBUART_1.c ****     USBUART_1_deviceStatus = 0u;
 294              		.loc 1 410 0
 295 0042 1149     		ldr	r1, .L11+32
 411:.\Generated_Source\PSoC5/USBUART_1.c **** 
 412:.\Generated_Source\PSoC5/USBUART_1.c ****     USBUART_1_lastPacketSize = 0u;
 296              		.loc 1 412 0
 297 0044 114A     		ldr	r2, .L11+36
 409:.\Generated_Source\PSoC5/USBUART_1.c ****     USBUART_1_deviceAddress  = 0u;
 298              		.loc 1 409 0
 299 0046 1870     		strb	r0, [r3, #0]
 413:.\Generated_Source\PSoC5/USBUART_1.c **** 
 414:.\Generated_Source\PSoC5/USBUART_1.c ****     /*  ACK Setup, Stall IN/OUT */
 415:.\Generated_Source\PSoC5/USBUART_1.c ****     CY_SET_REG8(USBUART_1_EP0_CR_PTR, USBUART_1_MODE_STALL_IN_OUT);
 300              		.loc 1 415 0
 301 0048 114B     		ldr	r3, .L11+40
 410:.\Generated_Source\PSoC5/USBUART_1.c ****     USBUART_1_deviceStatus = 0u;
 302              		.loc 1 410 0
 303 004a 0870     		strb	r0, [r1, #0]
 412:.\Generated_Source\PSoC5/USBUART_1.c ****     USBUART_1_lastPacketSize = 0u;
ARM GAS  C:\Users\Luke\AppData\Local\Temp\ccuzhVDD.s 			page 14


 304              		.loc 1 412 0
 305 004c 1070     		strb	r0, [r2, #0]
 416:.\Generated_Source\PSoC5/USBUART_1.c **** 
 417:.\Generated_Source\PSoC5/USBUART_1.c ****     /* Enable the SIE with an address 0 */
 418:.\Generated_Source\PSoC5/USBUART_1.c ****     CY_SET_REG8(USBUART_1_CR0_PTR, USBUART_1_CR0_ENABLE);
 306              		.loc 1 418 0
 307 004e 8021     		movs	r1, #128
 415:.\Generated_Source\PSoC5/USBUART_1.c ****     CY_SET_REG8(USBUART_1_EP0_CR_PTR, USBUART_1_MODE_STALL_IN_OUT);
 308              		.loc 1 415 0
 309 0050 0320     		movs	r0, #3
 310 0052 1870     		strb	r0, [r3, #0]
 419:.\Generated_Source\PSoC5/USBUART_1.c **** 
 420:.\Generated_Source\PSoC5/USBUART_1.c ****     /* Workaround for PSOC5LP */
 421:.\Generated_Source\PSoC5/USBUART_1.c ****     CyDelayCycles(1u);
 311              		.loc 1 421 0
 312 0054 0120     		movs	r0, #1
 418:.\Generated_Source\PSoC5/USBUART_1.c ****     CY_SET_REG8(USBUART_1_CR0_PTR, USBUART_1_CR0_ENABLE);
 313              		.loc 1 418 0
 314 0056 03F8201C 		strb	r1, [r3, #-32]
 315              		.loc 1 421 0
 316 005a FFF7FEFF 		bl	CyDelayCycles
 317              	.LVL26:
 422:.\Generated_Source\PSoC5/USBUART_1.c **** 
 423:.\Generated_Source\PSoC5/USBUART_1.c ****     /* Finally, Enable d+ pullup and select iomode to USB mode*/
 424:.\Generated_Source\PSoC5/USBUART_1.c ****     CY_SET_REG8(USBUART_1_USBIO_CR1_PTR, USBUART_1_USBIO_CR1_USBPUEN);
 318              		.loc 1 424 0
 319 005e 0D48     		ldr	r0, .L11+44
 320 0060 0422     		movs	r2, #4
 321 0062 0270     		strb	r2, [r0, #0]
 322 0064 08BD     		pop	{r3, pc}
 323              	.L12:
 324 0066 00BF     		.align	2
 325              	.L11:
 326 0068 00E100E0 		.word	-536813312
 327 006c 00000000 		.word	USBUART_1_transferState
 328 0070 09600040 		.word	1073766409
 329 0074 00000000 		.word	USBUART_1_device
 330 0078 00000000 		.word	USBUART_1_configuration
 331 007c 00000000 		.word	USBUART_1_interfaceNumber
 332 0080 00000000 		.word	USBUART_1_configurationChanged
 333 0084 00000000 		.word	USBUART_1_deviceAddress
 334 0088 00000000 		.word	USBUART_1_deviceStatus
 335 008c 00000000 		.word	USBUART_1_lastPacketSize
 336 0090 28600040 		.word	1073766440
 337 0094 12600040 		.word	1073766418
 338              		.cfi_endproc
 339              	.LFE2:
 340              		.size	USBUART_1_InitComponent, .-USBUART_1_InitComponent
 341              		.section	.text.USBUART_1_Start,"ax",%progbits
 342              		.align	1
 343              		.global	USBUART_1_Start
 344              		.thumb
 345              		.thumb_func
 346              		.type	USBUART_1_Start, %function
 347              	USBUART_1_Start:
 348              	.LFB0:
 107:.\Generated_Source\PSoC5/USBUART_1.c **** {
ARM GAS  C:\Users\Luke\AppData\Local\Temp\ccuzhVDD.s 			page 15


 349              		.loc 1 107 0
 350              		.cfi_startproc
 351              		@ args = 0, pretend = 0, frame = 0
 352              		@ frame_needed = 0, uses_anonymous_args = 0
 353              	.LVL27:
 354 0000 70B5     		push	{r4, r5, r6, lr}
 355              	.LCFI2:
 356              		.cfi_def_cfa_offset 16
 357              		.cfi_offset 4, -16
 358              		.cfi_offset 5, -12
 359              		.cfi_offset 6, -8
 360              		.cfi_offset 14, -4
 109:.\Generated_Source\PSoC5/USBUART_1.c ****     if(USBUART_1_initVar == 0u)
 361              		.loc 1 109 0
 362 0002 074C     		ldr	r4, .L15
 107:.\Generated_Source\PSoC5/USBUART_1.c **** {
 363              		.loc 1 107 0
 364 0004 0646     		mov	r6, r0
 109:.\Generated_Source\PSoC5/USBUART_1.c ****     if(USBUART_1_initVar == 0u)
 365              		.loc 1 109 0
 366 0006 2378     		ldrb	r3, [r4, #0]	@ zero_extendqisi2
 107:.\Generated_Source\PSoC5/USBUART_1.c **** {
 367              		.loc 1 107 0
 368 0008 0D46     		mov	r5, r1
 109:.\Generated_Source\PSoC5/USBUART_1.c ****     if(USBUART_1_initVar == 0u)
 369              		.loc 1 109 0
 370 000a 1BB9     		cbnz	r3, .L14
 111:.\Generated_Source\PSoC5/USBUART_1.c ****         USBUART_1_Init();
 371              		.loc 1 111 0
 372 000c FFF7FEFF 		bl	USBUART_1_Init
 373              	.LVL28:
 112:.\Generated_Source\PSoC5/USBUART_1.c ****         USBUART_1_initVar = 1u;
 374              		.loc 1 112 0
 375 0010 0120     		movs	r0, #1
 376 0012 2070     		strb	r0, [r4, #0]
 377              	.L14:
 114:.\Generated_Source\PSoC5/USBUART_1.c ****     USBUART_1_InitComponent(device, mode);
 378              		.loc 1 114 0
 379 0014 3046     		mov	r0, r6
 380 0016 2946     		mov	r1, r5
 115:.\Generated_Source\PSoC5/USBUART_1.c **** }
 381              		.loc 1 115 0
 382 0018 BDE87040 		pop	{r4, r5, r6, lr}
 114:.\Generated_Source\PSoC5/USBUART_1.c ****     USBUART_1_InitComponent(device, mode);
 383              		.loc 1 114 0
 384 001c FFF7FEBF 		b	USBUART_1_InitComponent
 385              	.LVL29:
 386              	.L16:
 387              		.align	2
 388              	.L15:
 389 0020 00000000 		.word	.LANCHOR0
 390              		.cfi_endproc
 391              	.LFE0:
 392              		.size	USBUART_1_Start, .-USBUART_1_Start
 393              		.section	.text.USBUART_1_ReInitComponent,"ax",%progbits
 394              		.align	1
 395              		.global	USBUART_1_ReInitComponent
ARM GAS  C:\Users\Luke\AppData\Local\Temp\ccuzhVDD.s 			page 16


 396              		.thumb
 397              		.thumb_func
 398              		.type	USBUART_1_ReInitComponent, %function
 399              	USBUART_1_ReInitComponent:
 400              	.LFB3:
 425:.\Generated_Source\PSoC5/USBUART_1.c **** }
 426:.\Generated_Source\PSoC5/USBUART_1.c **** 
 427:.\Generated_Source\PSoC5/USBUART_1.c **** 
 428:.\Generated_Source\PSoC5/USBUART_1.c **** /*******************************************************************************
 429:.\Generated_Source\PSoC5/USBUART_1.c **** * Function Name: USBUART_1_ReInitComponent
 430:.\Generated_Source\PSoC5/USBUART_1.c **** ********************************************************************************
 431:.\Generated_Source\PSoC5/USBUART_1.c **** *
 432:.\Generated_Source\PSoC5/USBUART_1.c **** * Summary:
 433:.\Generated_Source\PSoC5/USBUART_1.c **** *  This function reinitialize the component configuration and is
 434:.\Generated_Source\PSoC5/USBUART_1.c **** *  intend to be called from the Reset interrupt.
 435:.\Generated_Source\PSoC5/USBUART_1.c **** *
 436:.\Generated_Source\PSoC5/USBUART_1.c **** * Parameters:
 437:.\Generated_Source\PSoC5/USBUART_1.c **** *  None.
 438:.\Generated_Source\PSoC5/USBUART_1.c **** *
 439:.\Generated_Source\PSoC5/USBUART_1.c **** * Return:
 440:.\Generated_Source\PSoC5/USBUART_1.c **** *   None.
 441:.\Generated_Source\PSoC5/USBUART_1.c **** *
 442:.\Generated_Source\PSoC5/USBUART_1.c **** * Global variables:
 443:.\Generated_Source\PSoC5/USBUART_1.c **** *   USBUART_1_device: Contains the device number of the desired device
 444:.\Generated_Source\PSoC5/USBUART_1.c **** *        descriptor. The device number can be found in the Device Descriptor Tab
 445:.\Generated_Source\PSoC5/USBUART_1.c **** *       of "Configure" dialog, under the settings of desired Device Descriptor,
 446:.\Generated_Source\PSoC5/USBUART_1.c **** *       in the "Device Number" field.
 447:.\Generated_Source\PSoC5/USBUART_1.c **** *   USBUART_1_transferState: This variable used by the communication
 448:.\Generated_Source\PSoC5/USBUART_1.c **** *       functions to handle current transfer state. Initialized to
 449:.\Generated_Source\PSoC5/USBUART_1.c **** *       TRANS_STATE_IDLE in this API.
 450:.\Generated_Source\PSoC5/USBUART_1.c **** *   USBUART_1_configuration: Contains current configuration number
 451:.\Generated_Source\PSoC5/USBUART_1.c **** *       which is set by the Host using SET_CONFIGURATION request.
 452:.\Generated_Source\PSoC5/USBUART_1.c **** *       Initialized to zero in this API.
 453:.\Generated_Source\PSoC5/USBUART_1.c **** *   USBUART_1_deviceAddress: Contains current device address. This
 454:.\Generated_Source\PSoC5/USBUART_1.c **** *       variable is initialized to zero in this API. Host starts to communicate
 455:.\Generated_Source\PSoC5/USBUART_1.c **** *      to device with address 0 and then set it to whatever value using
 456:.\Generated_Source\PSoC5/USBUART_1.c **** *      SET_ADDRESS request.
 457:.\Generated_Source\PSoC5/USBUART_1.c **** *   USBUART_1_deviceStatus: initialized to 0.
 458:.\Generated_Source\PSoC5/USBUART_1.c **** *       This is two bit variable which contain power status in first bit
 459:.\Generated_Source\PSoC5/USBUART_1.c **** *       (DEVICE_STATUS_BUS_POWERED or DEVICE_STATUS_SELF_POWERED) and remote
 460:.\Generated_Source\PSoC5/USBUART_1.c **** *       wakeup status (DEVICE_STATUS_REMOTE_WAKEUP) in second bit.
 461:.\Generated_Source\PSoC5/USBUART_1.c **** *   USBUART_1_lastPacketSize initialized to 0;
 462:.\Generated_Source\PSoC5/USBUART_1.c **** *
 463:.\Generated_Source\PSoC5/USBUART_1.c **** * Reentrant:
 464:.\Generated_Source\PSoC5/USBUART_1.c **** *  No.
 465:.\Generated_Source\PSoC5/USBUART_1.c **** *
 466:.\Generated_Source\PSoC5/USBUART_1.c **** *******************************************************************************/
 467:.\Generated_Source\PSoC5/USBUART_1.c **** void USBUART_1_ReInitComponent(void) 
 468:.\Generated_Source\PSoC5/USBUART_1.c **** {
 401              		.loc 1 468 0
 402              		.cfi_startproc
 403              		@ args = 0, pretend = 0, frame = 0
 404              		@ frame_needed = 0, uses_anonymous_args = 0
 405              		@ link register save eliminated.
 469:.\Generated_Source\PSoC5/USBUART_1.c ****     /* Initialize _hidProtocol variable to comply with HID 7.2.6 Set_Protocol
 470:.\Generated_Source\PSoC5/USBUART_1.c ****     *  Request: "When initialized, all devices default to report protocol."
 471:.\Generated_Source\PSoC5/USBUART_1.c ****     */
ARM GAS  C:\Users\Luke\AppData\Local\Temp\ccuzhVDD.s 			page 17


 472:.\Generated_Source\PSoC5/USBUART_1.c ****     #if defined(USBUART_1_ENABLE_HID_CLASS)
 473:.\Generated_Source\PSoC5/USBUART_1.c ****         uint8 i;
 474:.\Generated_Source\PSoC5/USBUART_1.c **** 
 475:.\Generated_Source\PSoC5/USBUART_1.c ****         for (i = 0u; i < USBUART_1_MAX_INTERFACES_NUMBER; i++)
 476:.\Generated_Source\PSoC5/USBUART_1.c ****         {
 477:.\Generated_Source\PSoC5/USBUART_1.c ****             USBUART_1_hidProtocol[i] = USBUART_1_PROTOCOL_REPORT;
 478:.\Generated_Source\PSoC5/USBUART_1.c ****         }
 479:.\Generated_Source\PSoC5/USBUART_1.c ****     #endif /* USBUART_1_ENABLE_HID_CLASS */
 480:.\Generated_Source\PSoC5/USBUART_1.c **** 
 481:.\Generated_Source\PSoC5/USBUART_1.c ****     USBUART_1_transferState = USBUART_1_TRANS_STATE_IDLE;
 406              		.loc 1 481 0
 407 0000 0A4A     		ldr	r2, .L18
 408 0002 0023     		movs	r3, #0
 409 0004 1370     		strb	r3, [r2, #0]
 482:.\Generated_Source\PSoC5/USBUART_1.c **** 
 483:.\Generated_Source\PSoC5/USBUART_1.c ****     /* Clear all of the component data */
 484:.\Generated_Source\PSoC5/USBUART_1.c ****     USBUART_1_configuration = 0u;
 410              		.loc 1 484 0
 411 0006 0A48     		ldr	r0, .L18+4
 485:.\Generated_Source\PSoC5/USBUART_1.c ****     USBUART_1_interfaceNumber = 0u;
 412              		.loc 1 485 0
 413 0008 0A49     		ldr	r1, .L18+8
 486:.\Generated_Source\PSoC5/USBUART_1.c ****     USBUART_1_configurationChanged = 0u;
 414              		.loc 1 486 0
 415 000a 0B4A     		ldr	r2, .L18+12
 484:.\Generated_Source\PSoC5/USBUART_1.c ****     USBUART_1_configuration = 0u;
 416              		.loc 1 484 0
 417 000c 0370     		strb	r3, [r0, #0]
 485:.\Generated_Source\PSoC5/USBUART_1.c ****     USBUART_1_interfaceNumber = 0u;
 418              		.loc 1 485 0
 419 000e 0B70     		strb	r3, [r1, #0]
 487:.\Generated_Source\PSoC5/USBUART_1.c ****     USBUART_1_deviceAddress  = 0u;
 420              		.loc 1 487 0
 421 0010 0A48     		ldr	r0, .L18+16
 486:.\Generated_Source\PSoC5/USBUART_1.c ****     USBUART_1_configurationChanged = 0u;
 422              		.loc 1 486 0
 423 0012 1370     		strb	r3, [r2, #0]
 488:.\Generated_Source\PSoC5/USBUART_1.c ****     USBUART_1_deviceStatus = 0u;
 424              		.loc 1 488 0
 425 0014 0A49     		ldr	r1, .L18+20
 489:.\Generated_Source\PSoC5/USBUART_1.c **** 
 490:.\Generated_Source\PSoC5/USBUART_1.c ****     USBUART_1_lastPacketSize = 0u;
 426              		.loc 1 490 0
 427 0016 0B4A     		ldr	r2, .L18+24
 487:.\Generated_Source\PSoC5/USBUART_1.c ****     USBUART_1_deviceAddress  = 0u;
 428              		.loc 1 487 0
 429 0018 0370     		strb	r3, [r0, #0]
 488:.\Generated_Source\PSoC5/USBUART_1.c ****     USBUART_1_deviceStatus = 0u;
 430              		.loc 1 488 0
 431 001a 0B70     		strb	r3, [r1, #0]
 432              		.loc 1 490 0
 433 001c 1370     		strb	r3, [r2, #0]
 491:.\Generated_Source\PSoC5/USBUART_1.c **** 
 492:.\Generated_Source\PSoC5/USBUART_1.c **** 
 493:.\Generated_Source\PSoC5/USBUART_1.c ****     /*  ACK Setup, Stall IN/OUT */
 494:.\Generated_Source\PSoC5/USBUART_1.c ****     CY_SET_REG8(USBUART_1_EP0_CR_PTR, USBUART_1_MODE_STALL_IN_OUT);
 434              		.loc 1 494 0
ARM GAS  C:\Users\Luke\AppData\Local\Temp\ccuzhVDD.s 			page 18


 435 001e 0A4B     		ldr	r3, .L18+28
 436 0020 0320     		movs	r0, #3
 495:.\Generated_Source\PSoC5/USBUART_1.c **** 
 496:.\Generated_Source\PSoC5/USBUART_1.c ****     /* Enable the SIE with an address 0 */
 497:.\Generated_Source\PSoC5/USBUART_1.c ****     CY_SET_REG8(USBUART_1_CR0_PTR, USBUART_1_CR0_ENABLE);
 437              		.loc 1 497 0
 438 0022 8021     		movs	r1, #128
 494:.\Generated_Source\PSoC5/USBUART_1.c ****     CY_SET_REG8(USBUART_1_EP0_CR_PTR, USBUART_1_MODE_STALL_IN_OUT);
 439              		.loc 1 494 0
 440 0024 1870     		strb	r0, [r3, #0]
 441              		.loc 1 497 0
 442 0026 03F8201C 		strb	r1, [r3, #-32]
 443 002a 7047     		bx	lr
 444              	.L19:
 445              		.align	2
 446              	.L18:
 447 002c 00000000 		.word	USBUART_1_transferState
 448 0030 00000000 		.word	USBUART_1_configuration
 449 0034 00000000 		.word	USBUART_1_interfaceNumber
 450 0038 00000000 		.word	USBUART_1_configurationChanged
 451 003c 00000000 		.word	USBUART_1_deviceAddress
 452 0040 00000000 		.word	USBUART_1_deviceStatus
 453 0044 00000000 		.word	USBUART_1_lastPacketSize
 454 0048 28600040 		.word	1073766440
 455              		.cfi_endproc
 456              	.LFE3:
 457              		.size	USBUART_1_ReInitComponent, .-USBUART_1_ReInitComponent
 458              		.section	.text.USBUART_1_Stop,"ax",%progbits
 459              		.align	1
 460              		.global	USBUART_1_Stop
 461              		.thumb
 462              		.thumb_func
 463              		.type	USBUART_1_Stop, %function
 464              	USBUART_1_Stop:
 465              	.LFB4:
 498:.\Generated_Source\PSoC5/USBUART_1.c **** 
 499:.\Generated_Source\PSoC5/USBUART_1.c **** }
 500:.\Generated_Source\PSoC5/USBUART_1.c **** 
 501:.\Generated_Source\PSoC5/USBUART_1.c **** 
 502:.\Generated_Source\PSoC5/USBUART_1.c **** /*******************************************************************************
 503:.\Generated_Source\PSoC5/USBUART_1.c **** * Function Name: USBUART_1_Stop
 504:.\Generated_Source\PSoC5/USBUART_1.c **** ********************************************************************************
 505:.\Generated_Source\PSoC5/USBUART_1.c **** *
 506:.\Generated_Source\PSoC5/USBUART_1.c **** * Summary:
 507:.\Generated_Source\PSoC5/USBUART_1.c **** *  This function shuts down the USB function including to release
 508:.\Generated_Source\PSoC5/USBUART_1.c **** *  the D+ Pullup and disabling the SIE.
 509:.\Generated_Source\PSoC5/USBUART_1.c **** *
 510:.\Generated_Source\PSoC5/USBUART_1.c **** * Parameters:
 511:.\Generated_Source\PSoC5/USBUART_1.c **** *  None.
 512:.\Generated_Source\PSoC5/USBUART_1.c **** *
 513:.\Generated_Source\PSoC5/USBUART_1.c **** * Return:
 514:.\Generated_Source\PSoC5/USBUART_1.c **** *  None.
 515:.\Generated_Source\PSoC5/USBUART_1.c **** *
 516:.\Generated_Source\PSoC5/USBUART_1.c **** * Global variables:
 517:.\Generated_Source\PSoC5/USBUART_1.c **** *   USBUART_1_configuration: Contains current configuration number
 518:.\Generated_Source\PSoC5/USBUART_1.c **** *       which is set by the Host using SET_CONFIGURATION request.
 519:.\Generated_Source\PSoC5/USBUART_1.c **** *       Initialized to zero in this API.
ARM GAS  C:\Users\Luke\AppData\Local\Temp\ccuzhVDD.s 			page 19


 520:.\Generated_Source\PSoC5/USBUART_1.c **** *   USBUART_1_deviceAddress: Contains current device address. This
 521:.\Generated_Source\PSoC5/USBUART_1.c **** *       variable is initialized to zero in this API. Host starts to communicate
 522:.\Generated_Source\PSoC5/USBUART_1.c **** *      to device with address 0 and then set it to whatever value using
 523:.\Generated_Source\PSoC5/USBUART_1.c **** *      SET_ADDRESS request.
 524:.\Generated_Source\PSoC5/USBUART_1.c **** *   USBUART_1_deviceStatus: initialized to 0.
 525:.\Generated_Source\PSoC5/USBUART_1.c **** *       This is two bit variable which contain power status in first bit
 526:.\Generated_Source\PSoC5/USBUART_1.c **** *       (DEVICE_STATUS_BUS_POWERED or DEVICE_STATUS_SELF_POWERED) and remote
 527:.\Generated_Source\PSoC5/USBUART_1.c **** *       wakeup status (DEVICE_STATUS_REMOTE_WAKEUP) in second bit.
 528:.\Generated_Source\PSoC5/USBUART_1.c **** *   USBUART_1_configurationChanged: This variable is set to one after
 529:.\Generated_Source\PSoC5/USBUART_1.c **** *       SET_CONFIGURATION request and cleared in this function.
 530:.\Generated_Source\PSoC5/USBUART_1.c **** *   USBUART_1_intiVar variable is set to zero
 531:.\Generated_Source\PSoC5/USBUART_1.c **** *
 532:.\Generated_Source\PSoC5/USBUART_1.c **** *******************************************************************************/
 533:.\Generated_Source\PSoC5/USBUART_1.c **** void USBUART_1_Stop(void) 
 534:.\Generated_Source\PSoC5/USBUART_1.c **** {
 466              		.loc 1 534 0
 467              		.cfi_startproc
 468              		@ args = 0, pretend = 0, frame = 0
 469              		@ frame_needed = 0, uses_anonymous_args = 0
 470              		@ link register save eliminated.
 535:.\Generated_Source\PSoC5/USBUART_1.c **** 
 536:.\Generated_Source\PSoC5/USBUART_1.c ****     #if(USBUART_1_EP_MM != USBUART_1__EP_MANUAL)
 537:.\Generated_Source\PSoC5/USBUART_1.c ****         USBUART_1_Stop_DMA(USBUART_1_MAX_EP);     /* Stop all DMAs */
 538:.\Generated_Source\PSoC5/USBUART_1.c ****     #endif   /* End USBUART_1_EP_MM != USBUART_1__EP_MANUAL */
 539:.\Generated_Source\PSoC5/USBUART_1.c **** 
 540:.\Generated_Source\PSoC5/USBUART_1.c ****     /* Disable the SIE */
 541:.\Generated_Source\PSoC5/USBUART_1.c ****     USBUART_1_CR0_REG &= (uint8)(~USBUART_1_CR0_ENABLE);
 471              		.loc 1 541 0
 472 0000 164B     		ldr	r3, .L21
 473 0002 1A78     		ldrb	r2, [r3, #0]	@ zero_extendqisi2
 474 0004 02F07F00 		and	r0, r2, #127
 475 0008 1870     		strb	r0, [r3, #0]
 542:.\Generated_Source\PSoC5/USBUART_1.c ****     /* Disable the d+ pullup */
 543:.\Generated_Source\PSoC5/USBUART_1.c ****     USBUART_1_USBIO_CR1_REG &= (uint8)(~USBUART_1_USBIO_CR1_USBPUEN);
 476              		.loc 1 543 0
 477 000a 997A     		ldrb	r1, [r3, #10]	@ zero_extendqisi2
 478 000c 01F0FB02 		and	r2, r1, #251
 479 0010 9A72     		strb	r2, [r3, #10]
 544:.\Generated_Source\PSoC5/USBUART_1.c ****     /* Disable USB in ACT PM */
 545:.\Generated_Source\PSoC5/USBUART_1.c ****     USBUART_1_PM_ACT_CFG_REG &= (uint8)(~USBUART_1_PM_ACT_EN_FSUSB);
 480              		.loc 1 545 0
 481 0012 134B     		ldr	r3, .L21+4
 482 0014 1878     		ldrb	r0, [r3, #0]	@ zero_extendqisi2
 483 0016 00F0FE01 		and	r1, r0, #254
 484 001a 1970     		strb	r1, [r3, #0]
 546:.\Generated_Source\PSoC5/USBUART_1.c ****     /* Disable USB block for Standby Power Mode */
 547:.\Generated_Source\PSoC5/USBUART_1.c ****     USBUART_1_PM_STBY_CFG_REG &= (uint8)(~USBUART_1_PM_STBY_EN_FSUSB);
 485              		.loc 1 547 0
 486 001c 1A7C     		ldrb	r2, [r3, #16]	@ zero_extendqisi2
 548:.\Generated_Source\PSoC5/USBUART_1.c **** 
 549:.\Generated_Source\PSoC5/USBUART_1.c ****     /* Disable the reset and EP interrupts */
 550:.\Generated_Source\PSoC5/USBUART_1.c ****     CyIntDisable(USBUART_1_BUS_RESET_VECT_NUM);
 487              		.loc 1 550 0
 488 001e 4FF40001 		mov	r1, #8388608
 547:.\Generated_Source\PSoC5/USBUART_1.c ****     USBUART_1_PM_STBY_CFG_REG &= (uint8)(~USBUART_1_PM_STBY_EN_FSUSB);
 489              		.loc 1 547 0
 490 0022 02F0FE00 		and	r0, r2, #254
ARM GAS  C:\Users\Luke\AppData\Local\Temp\ccuzhVDD.s 			page 20


 491 0026 1874     		strb	r0, [r3, #16]
 492              		.loc 1 550 0
 493 0028 0E4B     		ldr	r3, .L21+8
 551:.\Generated_Source\PSoC5/USBUART_1.c ****     CyIntDisable(USBUART_1_EP_0_VECT_NUM);
 494              		.loc 1 551 0
 495 002a 4FF08072 		mov	r2, #16777216
 550:.\Generated_Source\PSoC5/USBUART_1.c ****     CyIntDisable(USBUART_1_BUS_RESET_VECT_NUM);
 496              		.loc 1 550 0
 497 002e 1960     		str	r1, [r3, #0]
 552:.\Generated_Source\PSoC5/USBUART_1.c ****     #if(USBUART_1_EP1_ISR_REMOVE == 0u)
 553:.\Generated_Source\PSoC5/USBUART_1.c ****         CyIntDisable(USBUART_1_EP_1_VECT_NUM);
 498              		.loc 1 553 0
 499 0030 0820     		movs	r0, #8
 551:.\Generated_Source\PSoC5/USBUART_1.c ****     CyIntDisable(USBUART_1_EP_0_VECT_NUM);
 500              		.loc 1 551 0
 501 0032 1A60     		str	r2, [r3, #0]
 554:.\Generated_Source\PSoC5/USBUART_1.c ****     #endif   /* End USBUART_1_EP1_ISR_REMOVE */
 555:.\Generated_Source\PSoC5/USBUART_1.c ****     #if(USBUART_1_EP2_ISR_REMOVE == 0u)
 556:.\Generated_Source\PSoC5/USBUART_1.c ****         CyIntDisable(USBUART_1_EP_2_VECT_NUM);
 502              		.loc 1 556 0
 503 0034 1021     		movs	r1, #16
 557:.\Generated_Source\PSoC5/USBUART_1.c ****     #endif   /* End USBUART_1_EP2_ISR_REMOVE */
 558:.\Generated_Source\PSoC5/USBUART_1.c ****     #if(USBUART_1_EP3_ISR_REMOVE == 0u)
 559:.\Generated_Source\PSoC5/USBUART_1.c ****         CyIntDisable(USBUART_1_EP_3_VECT_NUM);
 504              		.loc 1 559 0
 505 0036 2022     		movs	r2, #32
 553:.\Generated_Source\PSoC5/USBUART_1.c ****         CyIntDisable(USBUART_1_EP_1_VECT_NUM);
 506              		.loc 1 553 0
 507 0038 1860     		str	r0, [r3, #0]
 556:.\Generated_Source\PSoC5/USBUART_1.c ****         CyIntDisable(USBUART_1_EP_2_VECT_NUM);
 508              		.loc 1 556 0
 509 003a 1960     		str	r1, [r3, #0]
 560:.\Generated_Source\PSoC5/USBUART_1.c ****     #endif   /* End USBUART_1_EP3_ISR_REMOVE */
 561:.\Generated_Source\PSoC5/USBUART_1.c ****     #if(USBUART_1_EP4_ISR_REMOVE == 0u)
 562:.\Generated_Source\PSoC5/USBUART_1.c ****         CyIntDisable(USBUART_1_EP_4_VECT_NUM);
 563:.\Generated_Source\PSoC5/USBUART_1.c ****     #endif   /* End USBUART_1_EP4_ISR_REMOVE */
 564:.\Generated_Source\PSoC5/USBUART_1.c ****     #if(USBUART_1_EP5_ISR_REMOVE == 0u)
 565:.\Generated_Source\PSoC5/USBUART_1.c ****         CyIntDisable(USBUART_1_EP_5_VECT_NUM);
 566:.\Generated_Source\PSoC5/USBUART_1.c ****     #endif   /* End USBUART_1_EP5_ISR_REMOVE */
 567:.\Generated_Source\PSoC5/USBUART_1.c ****     #if(USBUART_1_EP6_ISR_REMOVE == 0u)
 568:.\Generated_Source\PSoC5/USBUART_1.c ****         CyIntDisable(USBUART_1_EP_6_VECT_NUM);
 569:.\Generated_Source\PSoC5/USBUART_1.c ****     #endif   /* End USBUART_1_EP6_ISR_REMOVE */
 570:.\Generated_Source\PSoC5/USBUART_1.c ****     #if(USBUART_1_EP7_ISR_REMOVE == 0u)
 571:.\Generated_Source\PSoC5/USBUART_1.c ****         CyIntDisable(USBUART_1_EP_7_VECT_NUM);
 572:.\Generated_Source\PSoC5/USBUART_1.c ****     #endif   /* End USBUART_1_EP7_ISR_REMOVE */
 573:.\Generated_Source\PSoC5/USBUART_1.c ****     #if(USBUART_1_EP8_ISR_REMOVE == 0u)
 574:.\Generated_Source\PSoC5/USBUART_1.c ****         CyIntDisable(USBUART_1_EP_8_VECT_NUM);
 575:.\Generated_Source\PSoC5/USBUART_1.c ****     #endif   /* End USBUART_1_EP8_ISR_REMOVE */
 576:.\Generated_Source\PSoC5/USBUART_1.c **** 
 577:.\Generated_Source\PSoC5/USBUART_1.c ****     /* Clear all of the component data */
 578:.\Generated_Source\PSoC5/USBUART_1.c ****     USBUART_1_configuration = 0u;
 510              		.loc 1 578 0
 511 003c 0A48     		ldr	r0, .L21+12
 559:.\Generated_Source\PSoC5/USBUART_1.c ****         CyIntDisable(USBUART_1_EP_3_VECT_NUM);
 512              		.loc 1 559 0
 513 003e 1A60     		str	r2, [r3, #0]
 579:.\Generated_Source\PSoC5/USBUART_1.c ****     USBUART_1_interfaceNumber = 0u;
ARM GAS  C:\Users\Luke\AppData\Local\Temp\ccuzhVDD.s 			page 21


 514              		.loc 1 579 0
 515 0040 0A49     		ldr	r1, .L21+16
 580:.\Generated_Source\PSoC5/USBUART_1.c ****     USBUART_1_configurationChanged = 0u;
 516              		.loc 1 580 0
 517 0042 0B4A     		ldr	r2, .L21+20
 578:.\Generated_Source\PSoC5/USBUART_1.c ****     USBUART_1_configuration = 0u;
 518              		.loc 1 578 0
 519 0044 0023     		movs	r3, #0
 520 0046 0370     		strb	r3, [r0, #0]
 579:.\Generated_Source\PSoC5/USBUART_1.c ****     USBUART_1_interfaceNumber = 0u;
 521              		.loc 1 579 0
 522 0048 0B70     		strb	r3, [r1, #0]
 581:.\Generated_Source\PSoC5/USBUART_1.c ****     USBUART_1_deviceAddress  = 0u;
 523              		.loc 1 581 0
 524 004a 0A48     		ldr	r0, .L21+24
 580:.\Generated_Source\PSoC5/USBUART_1.c ****     USBUART_1_configurationChanged = 0u;
 525              		.loc 1 580 0
 526 004c 1370     		strb	r3, [r2, #0]
 582:.\Generated_Source\PSoC5/USBUART_1.c ****     USBUART_1_deviceStatus = 0u;
 527              		.loc 1 582 0
 528 004e 0A49     		ldr	r1, .L21+28
 583:.\Generated_Source\PSoC5/USBUART_1.c ****     USBUART_1_initVar = 0u;
 529              		.loc 1 583 0
 530 0050 0A4A     		ldr	r2, .L21+32
 581:.\Generated_Source\PSoC5/USBUART_1.c ****     USBUART_1_deviceAddress  = 0u;
 531              		.loc 1 581 0
 532 0052 0370     		strb	r3, [r0, #0]
 533              		.loc 1 583 0
 534 0054 1370     		strb	r3, [r2, #0]
 582:.\Generated_Source\PSoC5/USBUART_1.c ****     USBUART_1_deviceStatus = 0u;
 535              		.loc 1 582 0
 536 0056 0B70     		strb	r3, [r1, #0]
 537              		.loc 1 583 0
 538 0058 7047     		bx	lr
 539              	.L22:
 540 005a 00BF     		.align	2
 541              	.L21:
 542 005c 08600040 		.word	1073766408
 543 0060 A5430040 		.word	1073759141
 544 0064 80E100E0 		.word	-536813184
 545 0068 00000000 		.word	USBUART_1_configuration
 546 006c 00000000 		.word	USBUART_1_interfaceNumber
 547 0070 00000000 		.word	USBUART_1_configurationChanged
 548 0074 00000000 		.word	USBUART_1_deviceAddress
 549 0078 00000000 		.word	USBUART_1_deviceStatus
 550 007c 00000000 		.word	.LANCHOR0
 551              		.cfi_endproc
 552              	.LFE4:
 553              		.size	USBUART_1_Stop, .-USBUART_1_Stop
 554              		.section	.text.USBUART_1_CheckActivity,"ax",%progbits
 555              		.align	1
 556              		.global	USBUART_1_CheckActivity
 557              		.thumb
 558              		.thumb_func
 559              		.type	USBUART_1_CheckActivity, %function
 560              	USBUART_1_CheckActivity:
 561              	.LFB5:
ARM GAS  C:\Users\Luke\AppData\Local\Temp\ccuzhVDD.s 			page 22


 584:.\Generated_Source\PSoC5/USBUART_1.c **** 
 585:.\Generated_Source\PSoC5/USBUART_1.c **** }
 586:.\Generated_Source\PSoC5/USBUART_1.c **** 
 587:.\Generated_Source\PSoC5/USBUART_1.c **** 
 588:.\Generated_Source\PSoC5/USBUART_1.c **** /*******************************************************************************
 589:.\Generated_Source\PSoC5/USBUART_1.c **** * Function Name: USBUART_1_CheckActivity
 590:.\Generated_Source\PSoC5/USBUART_1.c **** ********************************************************************************
 591:.\Generated_Source\PSoC5/USBUART_1.c **** *
 592:.\Generated_Source\PSoC5/USBUART_1.c **** * Summary:
 593:.\Generated_Source\PSoC5/USBUART_1.c **** *  Returns the activity status of the bus.  Clears the status hardware to
 594:.\Generated_Source\PSoC5/USBUART_1.c **** *  provide fresh activity status on the next call of this routine.
 595:.\Generated_Source\PSoC5/USBUART_1.c **** *
 596:.\Generated_Source\PSoC5/USBUART_1.c **** * Parameters:
 597:.\Generated_Source\PSoC5/USBUART_1.c **** *  None.
 598:.\Generated_Source\PSoC5/USBUART_1.c **** *
 599:.\Generated_Source\PSoC5/USBUART_1.c **** * Return:
 600:.\Generated_Source\PSoC5/USBUART_1.c **** *  1 - If bus activity was detected since the last call to this function
 601:.\Generated_Source\PSoC5/USBUART_1.c **** *  0 - If bus activity not was detected since the last call to this function
 602:.\Generated_Source\PSoC5/USBUART_1.c **** *
 603:.\Generated_Source\PSoC5/USBUART_1.c **** *******************************************************************************/
 604:.\Generated_Source\PSoC5/USBUART_1.c **** uint8 USBUART_1_CheckActivity(void) 
 605:.\Generated_Source\PSoC5/USBUART_1.c **** {
 562              		.loc 1 605 0
 563              		.cfi_startproc
 564              		@ args = 0, pretend = 0, frame = 0
 565              		@ frame_needed = 0, uses_anonymous_args = 0
 566              		@ link register save eliminated.
 606:.\Generated_Source\PSoC5/USBUART_1.c ****     uint8 r;
 607:.\Generated_Source\PSoC5/USBUART_1.c **** 
 608:.\Generated_Source\PSoC5/USBUART_1.c ****     r = CY_GET_REG8(USBUART_1_CR1_PTR);
 567              		.loc 1 608 0
 568 0000 034B     		ldr	r3, .L24
 569 0002 1878     		ldrb	r0, [r3, #0]	@ zero_extendqisi2
 570              	.LVL30:
 609:.\Generated_Source\PSoC5/USBUART_1.c ****     CY_SET_REG8(USBUART_1_CR1_PTR, (r & ((uint8)(~USBUART_1_CR1_BUS_ACTIVITY))));
 571              		.loc 1 609 0
 572 0004 00F0FB02 		and	r2, r0, #251
 573 0008 1A70     		strb	r2, [r3, #0]
 610:.\Generated_Source\PSoC5/USBUART_1.c **** 
 611:.\Generated_Source\PSoC5/USBUART_1.c ****     return((r & USBUART_1_CR1_BUS_ACTIVITY) >> USBUART_1_CR1_BUS_ACTIVITY_SHIFT);
 612:.\Generated_Source\PSoC5/USBUART_1.c **** }
 574              		.loc 1 612 0
 575 000a C0F38000 		ubfx	r0, r0, #2, #1
 576              	.LVL31:
 577 000e 7047     		bx	lr
 578              	.L25:
 579              		.align	2
 580              	.L24:
 581 0010 09600040 		.word	1073766409
 582              		.cfi_endproc
 583              	.LFE5:
 584              		.size	USBUART_1_CheckActivity, .-USBUART_1_CheckActivity
 585              		.section	.text.USBUART_1_GetConfiguration,"ax",%progbits
 586              		.align	1
 587              		.global	USBUART_1_GetConfiguration
 588              		.thumb
 589              		.thumb_func
ARM GAS  C:\Users\Luke\AppData\Local\Temp\ccuzhVDD.s 			page 23


 590              		.type	USBUART_1_GetConfiguration, %function
 591              	USBUART_1_GetConfiguration:
 592              	.LFB6:
 613:.\Generated_Source\PSoC5/USBUART_1.c **** 
 614:.\Generated_Source\PSoC5/USBUART_1.c **** 
 615:.\Generated_Source\PSoC5/USBUART_1.c **** /*******************************************************************************
 616:.\Generated_Source\PSoC5/USBUART_1.c **** * Function Name: USBUART_1_GetConfiguration
 617:.\Generated_Source\PSoC5/USBUART_1.c **** ********************************************************************************
 618:.\Generated_Source\PSoC5/USBUART_1.c **** *
 619:.\Generated_Source\PSoC5/USBUART_1.c **** * Summary:
 620:.\Generated_Source\PSoC5/USBUART_1.c **** *  Returns the current configuration setting
 621:.\Generated_Source\PSoC5/USBUART_1.c **** *
 622:.\Generated_Source\PSoC5/USBUART_1.c **** * Parameters:
 623:.\Generated_Source\PSoC5/USBUART_1.c **** *  None.
 624:.\Generated_Source\PSoC5/USBUART_1.c **** *
 625:.\Generated_Source\PSoC5/USBUART_1.c **** * Return:
 626:.\Generated_Source\PSoC5/USBUART_1.c **** *  configuration.
 627:.\Generated_Source\PSoC5/USBUART_1.c **** *
 628:.\Generated_Source\PSoC5/USBUART_1.c **** *******************************************************************************/
 629:.\Generated_Source\PSoC5/USBUART_1.c **** uint8 USBUART_1_GetConfiguration(void) 
 630:.\Generated_Source\PSoC5/USBUART_1.c **** {
 593              		.loc 1 630 0
 594              		.cfi_startproc
 595              		@ args = 0, pretend = 0, frame = 0
 596              		@ frame_needed = 0, uses_anonymous_args = 0
 597              		@ link register save eliminated.
 631:.\Generated_Source\PSoC5/USBUART_1.c ****     return(USBUART_1_configuration);
 598              		.loc 1 631 0
 599 0000 014B     		ldr	r3, .L27
 600 0002 1878     		ldrb	r0, [r3, #0]	@ zero_extendqisi2
 632:.\Generated_Source\PSoC5/USBUART_1.c **** }
 601              		.loc 1 632 0
 602 0004 7047     		bx	lr
 603              	.L28:
 604 0006 00BF     		.align	2
 605              	.L27:
 606 0008 00000000 		.word	USBUART_1_configuration
 607              		.cfi_endproc
 608              	.LFE6:
 609              		.size	USBUART_1_GetConfiguration, .-USBUART_1_GetConfiguration
 610              		.section	.text.USBUART_1_IsConfigurationChanged,"ax",%progbits
 611              		.align	1
 612              		.global	USBUART_1_IsConfigurationChanged
 613              		.thumb
 614              		.thumb_func
 615              		.type	USBUART_1_IsConfigurationChanged, %function
 616              	USBUART_1_IsConfigurationChanged:
 617              	.LFB7:
 633:.\Generated_Source\PSoC5/USBUART_1.c **** 
 634:.\Generated_Source\PSoC5/USBUART_1.c **** 
 635:.\Generated_Source\PSoC5/USBUART_1.c **** /*******************************************************************************
 636:.\Generated_Source\PSoC5/USBUART_1.c **** * Function Name: USBUART_1_IsConfigurationChanged
 637:.\Generated_Source\PSoC5/USBUART_1.c **** ********************************************************************************
 638:.\Generated_Source\PSoC5/USBUART_1.c **** *
 639:.\Generated_Source\PSoC5/USBUART_1.c **** * Summary:
 640:.\Generated_Source\PSoC5/USBUART_1.c **** *  Returns the clear on read configuration state. It is usefull when PC send
 641:.\Generated_Source\PSoC5/USBUART_1.c **** *  double SET_CONFIGURATION request with same configuration number.
ARM GAS  C:\Users\Luke\AppData\Local\Temp\ccuzhVDD.s 			page 24


 642:.\Generated_Source\PSoC5/USBUART_1.c **** *
 643:.\Generated_Source\PSoC5/USBUART_1.c **** * Parameters:
 644:.\Generated_Source\PSoC5/USBUART_1.c **** *  None.
 645:.\Generated_Source\PSoC5/USBUART_1.c **** *
 646:.\Generated_Source\PSoC5/USBUART_1.c **** * Return:
 647:.\Generated_Source\PSoC5/USBUART_1.c **** *  Not zero value when new configuration has been changed, otherwise zero is
 648:.\Generated_Source\PSoC5/USBUART_1.c **** *  returned.
 649:.\Generated_Source\PSoC5/USBUART_1.c **** *
 650:.\Generated_Source\PSoC5/USBUART_1.c **** * Global variables:
 651:.\Generated_Source\PSoC5/USBUART_1.c **** *   USBUART_1_configurationChanged: This variable is set to one after
 652:.\Generated_Source\PSoC5/USBUART_1.c **** *       SET_CONFIGURATION request and cleared in this function.
 653:.\Generated_Source\PSoC5/USBUART_1.c **** *
 654:.\Generated_Source\PSoC5/USBUART_1.c **** *******************************************************************************/
 655:.\Generated_Source\PSoC5/USBUART_1.c **** uint8 USBUART_1_IsConfigurationChanged(void) 
 656:.\Generated_Source\PSoC5/USBUART_1.c **** {
 618              		.loc 1 656 0
 619              		.cfi_startproc
 620              		@ args = 0, pretend = 0, frame = 0
 621              		@ frame_needed = 0, uses_anonymous_args = 0
 622              		@ link register save eliminated.
 623              	.LVL32:
 657:.\Generated_Source\PSoC5/USBUART_1.c ****     uint8 res = 0u;
 658:.\Generated_Source\PSoC5/USBUART_1.c **** 
 659:.\Generated_Source\PSoC5/USBUART_1.c ****     if(USBUART_1_configurationChanged != 0u)
 624              		.loc 1 659 0
 625 0000 034B     		ldr	r3, .L32
 626 0002 1878     		ldrb	r0, [r3, #0]	@ zero_extendqisi2
 627 0004 10B1     		cbz	r0, .L30
 660:.\Generated_Source\PSoC5/USBUART_1.c ****     {
 661:.\Generated_Source\PSoC5/USBUART_1.c ****         res = USBUART_1_configurationChanged;
 662:.\Generated_Source\PSoC5/USBUART_1.c ****         USBUART_1_configurationChanged = 0u;
 628              		.loc 1 662 0
 629 0006 0022     		movs	r2, #0
 661:.\Generated_Source\PSoC5/USBUART_1.c ****         res = USBUART_1_configurationChanged;
 630              		.loc 1 661 0
 631 0008 1878     		ldrb	r0, [r3, #0]	@ zero_extendqisi2
 632              	.LVL33:
 633              		.loc 1 662 0
 634 000a 1A70     		strb	r2, [r3, #0]
 635              	.LVL34:
 636              	.L30:
 663:.\Generated_Source\PSoC5/USBUART_1.c ****     }
 664:.\Generated_Source\PSoC5/USBUART_1.c **** 
 665:.\Generated_Source\PSoC5/USBUART_1.c ****     return(res);
 666:.\Generated_Source\PSoC5/USBUART_1.c **** }
 637              		.loc 1 666 0
 638 000c 7047     		bx	lr
 639              	.L33:
 640 000e 00BF     		.align	2
 641              	.L32:
 642 0010 00000000 		.word	USBUART_1_configurationChanged
 643              		.cfi_endproc
 644              	.LFE7:
 645              		.size	USBUART_1_IsConfigurationChanged, .-USBUART_1_IsConfigurationChanged
 646              		.section	.text.USBUART_1_GetInterfaceSetting,"ax",%progbits
 647              		.align	1
 648              		.global	USBUART_1_GetInterfaceSetting
ARM GAS  C:\Users\Luke\AppData\Local\Temp\ccuzhVDD.s 			page 25


 649              		.thumb
 650              		.thumb_func
 651              		.type	USBUART_1_GetInterfaceSetting, %function
 652              	USBUART_1_GetInterfaceSetting:
 653              	.LFB8:
 667:.\Generated_Source\PSoC5/USBUART_1.c **** 
 668:.\Generated_Source\PSoC5/USBUART_1.c **** 
 669:.\Generated_Source\PSoC5/USBUART_1.c **** /*******************************************************************************
 670:.\Generated_Source\PSoC5/USBUART_1.c **** * Function Name: USBUART_1_GetInterfaceSetting
 671:.\Generated_Source\PSoC5/USBUART_1.c **** ********************************************************************************
 672:.\Generated_Source\PSoC5/USBUART_1.c **** *
 673:.\Generated_Source\PSoC5/USBUART_1.c **** * Summary:
 674:.\Generated_Source\PSoC5/USBUART_1.c **** *  Returns the alternate setting from current interface
 675:.\Generated_Source\PSoC5/USBUART_1.c **** *
 676:.\Generated_Source\PSoC5/USBUART_1.c **** * Parameters:
 677:.\Generated_Source\PSoC5/USBUART_1.c **** *  uint8 interfaceNumber, interface number
 678:.\Generated_Source\PSoC5/USBUART_1.c **** *
 679:.\Generated_Source\PSoC5/USBUART_1.c **** * Return:
 680:.\Generated_Source\PSoC5/USBUART_1.c **** *  Alternate setting.
 681:.\Generated_Source\PSoC5/USBUART_1.c **** *
 682:.\Generated_Source\PSoC5/USBUART_1.c **** *******************************************************************************/
 683:.\Generated_Source\PSoC5/USBUART_1.c **** uint8  USBUART_1_GetInterfaceSetting(uint8 interfaceNumber)
 684:.\Generated_Source\PSoC5/USBUART_1.c ****                                                     
 685:.\Generated_Source\PSoC5/USBUART_1.c **** {
 654              		.loc 1 685 0
 655              		.cfi_startproc
 656              		@ args = 0, pretend = 0, frame = 0
 657              		@ frame_needed = 0, uses_anonymous_args = 0
 658              		@ link register save eliminated.
 659              	.LVL35:
 686:.\Generated_Source\PSoC5/USBUART_1.c ****     return(USBUART_1_interfaceSetting[interfaceNumber]);
 660              		.loc 1 686 0
 661 0000 014B     		ldr	r3, .L35
 662 0002 185C     		ldrb	r0, [r3, r0]	@ zero_extendqisi2
 663              	.LVL36:
 687:.\Generated_Source\PSoC5/USBUART_1.c **** }
 664              		.loc 1 687 0
 665 0004 7047     		bx	lr
 666              	.L36:
 667 0006 00BF     		.align	2
 668              	.L35:
 669 0008 00000000 		.word	USBUART_1_interfaceSetting
 670              		.cfi_endproc
 671              	.LFE8:
 672              		.size	USBUART_1_GetInterfaceSetting, .-USBUART_1_GetInterfaceSetting
 673              		.section	.text.USBUART_1_GetEPState,"ax",%progbits
 674              		.align	1
 675              		.global	USBUART_1_GetEPState
 676              		.thumb
 677              		.thumb_func
 678              		.type	USBUART_1_GetEPState, %function
 679              	USBUART_1_GetEPState:
 680              	.LFB9:
 688:.\Generated_Source\PSoC5/USBUART_1.c **** 
 689:.\Generated_Source\PSoC5/USBUART_1.c **** 
 690:.\Generated_Source\PSoC5/USBUART_1.c **** /*******************************************************************************
 691:.\Generated_Source\PSoC5/USBUART_1.c **** * Function Name: USBUART_1_GetEPState
ARM GAS  C:\Users\Luke\AppData\Local\Temp\ccuzhVDD.s 			page 26


 692:.\Generated_Source\PSoC5/USBUART_1.c **** ********************************************************************************
 693:.\Generated_Source\PSoC5/USBUART_1.c **** *
 694:.\Generated_Source\PSoC5/USBUART_1.c **** * Summary:
 695:.\Generated_Source\PSoC5/USBUART_1.c **** *  Returned the state of the requested endpoint.
 696:.\Generated_Source\PSoC5/USBUART_1.c **** *
 697:.\Generated_Source\PSoC5/USBUART_1.c **** * Parameters:
 698:.\Generated_Source\PSoC5/USBUART_1.c **** *  epNumber: Endpoint Number
 699:.\Generated_Source\PSoC5/USBUART_1.c **** *
 700:.\Generated_Source\PSoC5/USBUART_1.c **** * Return:
 701:.\Generated_Source\PSoC5/USBUART_1.c **** *  State of the requested endpoint.
 702:.\Generated_Source\PSoC5/USBUART_1.c **** *
 703:.\Generated_Source\PSoC5/USBUART_1.c **** *******************************************************************************/
 704:.\Generated_Source\PSoC5/USBUART_1.c **** uint8 USBUART_1_GetEPState(uint8 epNumber) 
 705:.\Generated_Source\PSoC5/USBUART_1.c **** {
 681              		.loc 1 705 0
 682              		.cfi_startproc
 683              		@ args = 0, pretend = 0, frame = 0
 684              		@ frame_needed = 0, uses_anonymous_args = 0
 685              		@ link register save eliminated.
 686              	.LVL37:
 706:.\Generated_Source\PSoC5/USBUART_1.c ****     return(USBUART_1_EP[epNumber].apiEpState);
 687              		.loc 1 706 0
 688 0000 024B     		ldr	r3, .L38
 689 0002 0C22     		movs	r2, #12
 690 0004 02FB0030 		mla	r0, r2, r0, r3
 691              	.LVL38:
 692 0008 4078     		ldrb	r0, [r0, #1]	@ zero_extendqisi2
 707:.\Generated_Source\PSoC5/USBUART_1.c **** }
 693              		.loc 1 707 0
 694 000a 7047     		bx	lr
 695              	.L39:
 696              		.align	2
 697              	.L38:
 698 000c 00000000 		.word	USBUART_1_EP
 699              		.cfi_endproc
 700              	.LFE9:
 701              		.size	USBUART_1_GetEPState, .-USBUART_1_GetEPState
 702              		.section	.text.USBUART_1_GetEPCount,"ax",%progbits
 703              		.align	1
 704              		.global	USBUART_1_GetEPCount
 705              		.thumb
 706              		.thumb_func
 707              		.type	USBUART_1_GetEPCount, %function
 708              	USBUART_1_GetEPCount:
 709              	.LFB10:
 708:.\Generated_Source\PSoC5/USBUART_1.c **** 
 709:.\Generated_Source\PSoC5/USBUART_1.c **** 
 710:.\Generated_Source\PSoC5/USBUART_1.c **** /*******************************************************************************
 711:.\Generated_Source\PSoC5/USBUART_1.c **** * Function Name: USBUART_1_GetEPCount
 712:.\Generated_Source\PSoC5/USBUART_1.c **** ********************************************************************************
 713:.\Generated_Source\PSoC5/USBUART_1.c **** *
 714:.\Generated_Source\PSoC5/USBUART_1.c **** * Summary:
 715:.\Generated_Source\PSoC5/USBUART_1.c **** *  This function supports Data Endpoints only(EP1-EP8).
 716:.\Generated_Source\PSoC5/USBUART_1.c **** *  Returns the transfer count for the requested endpoint.  The value from
 717:.\Generated_Source\PSoC5/USBUART_1.c **** *  the count registers includes 2 counts for the two byte checksum of the
 718:.\Generated_Source\PSoC5/USBUART_1.c **** *  packet.  This function subtracts the two counts.
 719:.\Generated_Source\PSoC5/USBUART_1.c **** *
ARM GAS  C:\Users\Luke\AppData\Local\Temp\ccuzhVDD.s 			page 27


 720:.\Generated_Source\PSoC5/USBUART_1.c **** * Parameters:
 721:.\Generated_Source\PSoC5/USBUART_1.c **** *  epNumber: Data Endpoint Number.
 722:.\Generated_Source\PSoC5/USBUART_1.c **** *            Valid values are between 1 and 8.
 723:.\Generated_Source\PSoC5/USBUART_1.c **** *
 724:.\Generated_Source\PSoC5/USBUART_1.c **** * Return:
 725:.\Generated_Source\PSoC5/USBUART_1.c **** *  Returns the current byte count from the specified endpoint or 0 for an
 726:.\Generated_Source\PSoC5/USBUART_1.c **** *  invalid endpoint.
 727:.\Generated_Source\PSoC5/USBUART_1.c **** *
 728:.\Generated_Source\PSoC5/USBUART_1.c **** *******************************************************************************/
 729:.\Generated_Source\PSoC5/USBUART_1.c **** uint16 USBUART_1_GetEPCount(uint8 epNumber) 
 730:.\Generated_Source\PSoC5/USBUART_1.c **** {
 710              		.loc 1 730 0
 711              		.cfi_startproc
 712              		@ args = 0, pretend = 0, frame = 0
 713              		@ frame_needed = 0, uses_anonymous_args = 0
 714              		@ link register save eliminated.
 715              	.LVL39:
 731:.\Generated_Source\PSoC5/USBUART_1.c ****     uint8 ri;
 732:.\Generated_Source\PSoC5/USBUART_1.c ****     uint16 result = 0u;
 733:.\Generated_Source\PSoC5/USBUART_1.c **** 
 734:.\Generated_Source\PSoC5/USBUART_1.c ****     if((epNumber > USBUART_1_EP0) && (epNumber < USBUART_1_MAX_EP))
 716              		.loc 1 734 0
 717 0000 0138     		subs	r0, r0, #1
 718              	.LVL40:
 719 0002 C3B2     		uxtb	r3, r0
 720 0004 072B     		cmp	r3, #7
 721 0006 0CD8     		bhi	.L42
 722              	.LVL41:
 735:.\Generated_Source\PSoC5/USBUART_1.c ****     {
 736:.\Generated_Source\PSoC5/USBUART_1.c ****         ri = ((epNumber - USBUART_1_EP1) << USBUART_1_EPX_CNTX_ADDR_SHIFT);
 723              		.loc 1 736 0
 724 0008 1901     		lsls	r1, r3, #4
 737:.\Generated_Source\PSoC5/USBUART_1.c **** 
 738:.\Generated_Source\PSoC5/USBUART_1.c ****         result = (uint8)(CY_GET_REG8((reg8 *)(USBUART_1_SIE_EP1_CNT0_IND + ri)) &
 725              		.loc 1 738 0
 726 000a 074A     		ldr	r2, .L43
 727 000c CBB2     		uxtb	r3, r1
 728              	.LVL42:
 729 000e 985C     		ldrb	r0, [r3, r2]	@ zero_extendqisi2
 730              	.LVL43:
 739:.\Generated_Source\PSoC5/USBUART_1.c ****                           USBUART_1_EPX_CNT0_MASK);
 740:.\Generated_Source\PSoC5/USBUART_1.c ****         result = (result << 8u) | CY_GET_REG8((reg8 *)(USBUART_1_SIE_EP1_CNT1_IND + ri));
 731              		.loc 1 740 0
 732 0010 511C     		adds	r1, r2, #1
 733 0012 5B5C     		ldrb	r3, [r3, r1]	@ zero_extendqisi2
 734 0014 00F00F02 		and	r2, r0, #15
 735 0018 43EA0220 		orr	r0, r3, r2, lsl #8
 736              	.LVL44:
 741:.\Generated_Source\PSoC5/USBUART_1.c ****         result -= USBUART_1_EPX_CNTX_CRC_COUNT;
 737              		.loc 1 741 0
 738 001c 811E     		subs	r1, r0, #2
 739 001e 88B2     		uxth	r0, r1
 740              	.LVL45:
 741 0020 7047     		bx	lr
 742              	.LVL46:
 743              	.L42:
 732:.\Generated_Source\PSoC5/USBUART_1.c ****     uint16 result = 0u;
ARM GAS  C:\Users\Luke\AppData\Local\Temp\ccuzhVDD.s 			page 28


 744              		.loc 1 732 0
 745 0022 0020     		movs	r0, #0
 746              	.LVL47:
 742:.\Generated_Source\PSoC5/USBUART_1.c ****     }
 743:.\Generated_Source\PSoC5/USBUART_1.c ****     return(result);
 744:.\Generated_Source\PSoC5/USBUART_1.c **** }
 747              		.loc 1 744 0
 748 0024 7047     		bx	lr
 749              	.L44:
 750 0026 00BF     		.align	2
 751              	.L43:
 752 0028 0C600040 		.word	1073766412
 753              		.cfi_endproc
 754              	.LFE10:
 755              		.size	USBUART_1_GetEPCount, .-USBUART_1_GetEPCount
 756              		.section	.text.USBUART_1_LoadInEP,"ax",%progbits
 757              		.align	1
 758              		.global	USBUART_1_LoadInEP
 759              		.thumb
 760              		.thumb_func
 761              		.type	USBUART_1_LoadInEP, %function
 762              	USBUART_1_LoadInEP:
 763              	.LFB11:
 745:.\Generated_Source\PSoC5/USBUART_1.c **** 
 746:.\Generated_Source\PSoC5/USBUART_1.c **** 
 747:.\Generated_Source\PSoC5/USBUART_1.c **** #if(USBUART_1_EP_MM != USBUART_1__EP_MANUAL)
 748:.\Generated_Source\PSoC5/USBUART_1.c **** 
 749:.\Generated_Source\PSoC5/USBUART_1.c **** 
 750:.\Generated_Source\PSoC5/USBUART_1.c ****     /*******************************************************************************
 751:.\Generated_Source\PSoC5/USBUART_1.c ****     * Function Name: USBUART_1_InitEP_DMA
 752:.\Generated_Source\PSoC5/USBUART_1.c ****     ********************************************************************************
 753:.\Generated_Source\PSoC5/USBUART_1.c ****     *
 754:.\Generated_Source\PSoC5/USBUART_1.c ****     * Summary:
 755:.\Generated_Source\PSoC5/USBUART_1.c ****     *  This function allocates and initializes a DMA channel to be used by the
 756:.\Generated_Source\PSoC5/USBUART_1.c ****     *  USBUART_1_LoadInEP() or USBUART_1_ReadOutEP() APIs for data
 757:.\Generated_Source\PSoC5/USBUART_1.c ****     *  transfer.
 758:.\Generated_Source\PSoC5/USBUART_1.c ****     *
 759:.\Generated_Source\PSoC5/USBUART_1.c ****     * Parameters:
 760:.\Generated_Source\PSoC5/USBUART_1.c ****     *  epNumber: Contains the data endpoint number.
 761:.\Generated_Source\PSoC5/USBUART_1.c ****     *            Valid values are between 1 and 8.
 762:.\Generated_Source\PSoC5/USBUART_1.c ****     *  *pData: Pointer to a data array that is related to the EP transfers.
 763:.\Generated_Source\PSoC5/USBUART_1.c ****     *
 764:.\Generated_Source\PSoC5/USBUART_1.c ****     * Return:
 765:.\Generated_Source\PSoC5/USBUART_1.c ****     *  None.
 766:.\Generated_Source\PSoC5/USBUART_1.c ****     *
 767:.\Generated_Source\PSoC5/USBUART_1.c ****     * Reentrant:
 768:.\Generated_Source\PSoC5/USBUART_1.c ****     *  No.
 769:.\Generated_Source\PSoC5/USBUART_1.c ****     *
 770:.\Generated_Source\PSoC5/USBUART_1.c ****     *******************************************************************************/
 771:.\Generated_Source\PSoC5/USBUART_1.c ****     void USBUART_1_InitEP_DMA(uint8 epNumber, const uint8 *pData)
 772:.\Generated_Source\PSoC5/USBUART_1.c ****                                                                     
 773:.\Generated_Source\PSoC5/USBUART_1.c ****     {
 774:.\Generated_Source\PSoC5/USBUART_1.c ****         uint16 src;
 775:.\Generated_Source\PSoC5/USBUART_1.c ****         uint16 dst;
 776:.\Generated_Source\PSoC5/USBUART_1.c ****         #if (CY_PSOC3)                  /* PSoC 3 */
 777:.\Generated_Source\PSoC5/USBUART_1.c ****             src = HI16(CYDEV_SRAM_BASE);
 778:.\Generated_Source\PSoC5/USBUART_1.c ****             dst = HI16(CYDEV_PERIPH_BASE);
ARM GAS  C:\Users\Luke\AppData\Local\Temp\ccuzhVDD.s 			page 29


 779:.\Generated_Source\PSoC5/USBUART_1.c ****             pData = pData;
 780:.\Generated_Source\PSoC5/USBUART_1.c ****         #else                           /* PSoC 5 */
 781:.\Generated_Source\PSoC5/USBUART_1.c ****             if((USBUART_1_EP[epNumber].addr & USBUART_1_DIR_IN) != 0u )
 782:.\Generated_Source\PSoC5/USBUART_1.c ****             {   /* for the IN EP source is the SRAM memory buffer */
 783:.\Generated_Source\PSoC5/USBUART_1.c ****                 src = HI16(pData);
 784:.\Generated_Source\PSoC5/USBUART_1.c ****                 dst = HI16(CYDEV_PERIPH_BASE);
 785:.\Generated_Source\PSoC5/USBUART_1.c ****             }
 786:.\Generated_Source\PSoC5/USBUART_1.c ****             else
 787:.\Generated_Source\PSoC5/USBUART_1.c ****             {   /* for the OUT EP source is the SIE register */
 788:.\Generated_Source\PSoC5/USBUART_1.c ****                 src = HI16(CYDEV_PERIPH_BASE);
 789:.\Generated_Source\PSoC5/USBUART_1.c ****                 dst = HI16(pData);
 790:.\Generated_Source\PSoC5/USBUART_1.c ****             }
 791:.\Generated_Source\PSoC5/USBUART_1.c ****         #endif  /* End C51 */
 792:.\Generated_Source\PSoC5/USBUART_1.c ****         switch(epNumber)
 793:.\Generated_Source\PSoC5/USBUART_1.c ****         {
 794:.\Generated_Source\PSoC5/USBUART_1.c ****             case USBUART_1_EP1:
 795:.\Generated_Source\PSoC5/USBUART_1.c ****                 #if(USBUART_1_DMA1_REMOVE == 0u)
 796:.\Generated_Source\PSoC5/USBUART_1.c ****                     USBUART_1_DmaChan[epNumber] = USBUART_1_ep1_DmaInitialize(
 797:.\Generated_Source\PSoC5/USBUART_1.c ****                         USBUART_1_DMA_BYTES_PER_BURST, USBUART_1_DMA_REQUEST_PER_BURST, src, dst);
 798:.\Generated_Source\PSoC5/USBUART_1.c ****                 #endif   /* End USBUART_1_DMA1_REMOVE */
 799:.\Generated_Source\PSoC5/USBUART_1.c ****                 break;
 800:.\Generated_Source\PSoC5/USBUART_1.c ****             case USBUART_1_EP2:
 801:.\Generated_Source\PSoC5/USBUART_1.c ****                 #if(USBUART_1_DMA2_REMOVE == 0u)
 802:.\Generated_Source\PSoC5/USBUART_1.c ****                     USBUART_1_DmaChan[epNumber] = USBUART_1_ep2_DmaInitialize(
 803:.\Generated_Source\PSoC5/USBUART_1.c ****                         USBUART_1_DMA_BYTES_PER_BURST, USBUART_1_DMA_REQUEST_PER_BURST, src, dst);
 804:.\Generated_Source\PSoC5/USBUART_1.c ****                 #endif   /* End USBUART_1_DMA2_REMOVE */
 805:.\Generated_Source\PSoC5/USBUART_1.c ****                 break;
 806:.\Generated_Source\PSoC5/USBUART_1.c ****             case USBUART_1_EP3:
 807:.\Generated_Source\PSoC5/USBUART_1.c ****                 #if(USBUART_1_DMA3_REMOVE == 0u)
 808:.\Generated_Source\PSoC5/USBUART_1.c ****                     USBUART_1_DmaChan[epNumber] = USBUART_1_ep3_DmaInitialize(
 809:.\Generated_Source\PSoC5/USBUART_1.c ****                         USBUART_1_DMA_BYTES_PER_BURST, USBUART_1_DMA_REQUEST_PER_BURST, src, dst);
 810:.\Generated_Source\PSoC5/USBUART_1.c ****                 #endif   /* End USBUART_1_DMA3_REMOVE */
 811:.\Generated_Source\PSoC5/USBUART_1.c ****                 break;
 812:.\Generated_Source\PSoC5/USBUART_1.c ****             case USBUART_1_EP4:
 813:.\Generated_Source\PSoC5/USBUART_1.c ****                 #if(USBUART_1_DMA4_REMOVE == 0u)
 814:.\Generated_Source\PSoC5/USBUART_1.c ****                     USBUART_1_DmaChan[epNumber] = USBUART_1_ep4_DmaInitialize(
 815:.\Generated_Source\PSoC5/USBUART_1.c ****                         USBUART_1_DMA_BYTES_PER_BURST, USBUART_1_DMA_REQUEST_PER_BURST, src, dst);
 816:.\Generated_Source\PSoC5/USBUART_1.c ****                 #endif   /* End USBUART_1_DMA4_REMOVE */
 817:.\Generated_Source\PSoC5/USBUART_1.c ****                 break;
 818:.\Generated_Source\PSoC5/USBUART_1.c ****             case USBUART_1_EP5:
 819:.\Generated_Source\PSoC5/USBUART_1.c ****                 #if(USBUART_1_DMA5_REMOVE == 0u)
 820:.\Generated_Source\PSoC5/USBUART_1.c ****                     USBUART_1_DmaChan[epNumber] = USBUART_1_ep5_DmaInitialize(
 821:.\Generated_Source\PSoC5/USBUART_1.c ****                         USBUART_1_DMA_BYTES_PER_BURST, USBUART_1_DMA_REQUEST_PER_BURST, src, dst);
 822:.\Generated_Source\PSoC5/USBUART_1.c ****                 #endif   /* End USBUART_1_DMA5_REMOVE */
 823:.\Generated_Source\PSoC5/USBUART_1.c ****                 break;
 824:.\Generated_Source\PSoC5/USBUART_1.c ****             case USBUART_1_EP6:
 825:.\Generated_Source\PSoC5/USBUART_1.c ****                 #if(USBUART_1_DMA6_REMOVE == 0u)
 826:.\Generated_Source\PSoC5/USBUART_1.c ****                     USBUART_1_DmaChan[epNumber] = USBUART_1_ep6_DmaInitialize(
 827:.\Generated_Source\PSoC5/USBUART_1.c ****                         USBUART_1_DMA_BYTES_PER_BURST, USBUART_1_DMA_REQUEST_PER_BURST, src, dst);
 828:.\Generated_Source\PSoC5/USBUART_1.c ****                 #endif   /* End USBUART_1_DMA6_REMOVE */
 829:.\Generated_Source\PSoC5/USBUART_1.c ****                 break;
 830:.\Generated_Source\PSoC5/USBUART_1.c ****             case USBUART_1_EP7:
 831:.\Generated_Source\PSoC5/USBUART_1.c ****                 #if(USBUART_1_DMA7_REMOVE == 0u)
 832:.\Generated_Source\PSoC5/USBUART_1.c ****                     USBUART_1_DmaChan[epNumber] = USBUART_1_ep7_DmaInitialize(
 833:.\Generated_Source\PSoC5/USBUART_1.c ****                         USBUART_1_DMA_BYTES_PER_BURST, USBUART_1_DMA_REQUEST_PER_BURST, src, dst);
 834:.\Generated_Source\PSoC5/USBUART_1.c ****                 #endif   /* End USBUART_1_DMA7_REMOVE */
 835:.\Generated_Source\PSoC5/USBUART_1.c ****                 break;
ARM GAS  C:\Users\Luke\AppData\Local\Temp\ccuzhVDD.s 			page 30


 836:.\Generated_Source\PSoC5/USBUART_1.c ****             case USBUART_1_EP8:
 837:.\Generated_Source\PSoC5/USBUART_1.c ****                 #if(USBUART_1_DMA8_REMOVE == 0u)
 838:.\Generated_Source\PSoC5/USBUART_1.c ****                     USBUART_1_DmaChan[epNumber] = USBUART_1_ep8_DmaInitialize(
 839:.\Generated_Source\PSoC5/USBUART_1.c ****                         USBUART_1_DMA_BYTES_PER_BURST, USBUART_1_DMA_REQUEST_PER_BURST, src, dst);
 840:.\Generated_Source\PSoC5/USBUART_1.c ****                 #endif   /* End USBUART_1_DMA8_REMOVE */
 841:.\Generated_Source\PSoC5/USBUART_1.c ****                 break;
 842:.\Generated_Source\PSoC5/USBUART_1.c ****             default:
 843:.\Generated_Source\PSoC5/USBUART_1.c ****                 /* Do not support EP0 DMA transfers */
 844:.\Generated_Source\PSoC5/USBUART_1.c ****                 break;
 845:.\Generated_Source\PSoC5/USBUART_1.c ****         }
 846:.\Generated_Source\PSoC5/USBUART_1.c ****         if((epNumber > USBUART_1_EP0) && (epNumber < USBUART_1_MAX_EP))
 847:.\Generated_Source\PSoC5/USBUART_1.c ****         {
 848:.\Generated_Source\PSoC5/USBUART_1.c ****             USBUART_1_DmaTd[epNumber] = CyDmaTdAllocate();
 849:.\Generated_Source\PSoC5/USBUART_1.c ****         }
 850:.\Generated_Source\PSoC5/USBUART_1.c ****     }
 851:.\Generated_Source\PSoC5/USBUART_1.c **** 
 852:.\Generated_Source\PSoC5/USBUART_1.c **** 
 853:.\Generated_Source\PSoC5/USBUART_1.c ****     /*******************************************************************************
 854:.\Generated_Source\PSoC5/USBUART_1.c ****     * Function Name: USBUART_1_Stop_DMA
 855:.\Generated_Source\PSoC5/USBUART_1.c ****     ********************************************************************************
 856:.\Generated_Source\PSoC5/USBUART_1.c ****     *
 857:.\Generated_Source\PSoC5/USBUART_1.c ****     * Summary: Stops and free DMA
 858:.\Generated_Source\PSoC5/USBUART_1.c ****     *
 859:.\Generated_Source\PSoC5/USBUART_1.c ****     * Parameters:
 860:.\Generated_Source\PSoC5/USBUART_1.c ****     *  epNumber: Contains the data endpoint number or
 861:.\Generated_Source\PSoC5/USBUART_1.c ****     *           USBUART_1_MAX_EP to stop all DMAs
 862:.\Generated_Source\PSoC5/USBUART_1.c ****     *
 863:.\Generated_Source\PSoC5/USBUART_1.c ****     * Return:
 864:.\Generated_Source\PSoC5/USBUART_1.c ****     *  None.
 865:.\Generated_Source\PSoC5/USBUART_1.c ****     *
 866:.\Generated_Source\PSoC5/USBUART_1.c ****     * Reentrant:
 867:.\Generated_Source\PSoC5/USBUART_1.c ****     *  No.
 868:.\Generated_Source\PSoC5/USBUART_1.c ****     *
 869:.\Generated_Source\PSoC5/USBUART_1.c ****     *******************************************************************************/
 870:.\Generated_Source\PSoC5/USBUART_1.c ****     void USBUART_1_Stop_DMA(uint8 epNumber) 
 871:.\Generated_Source\PSoC5/USBUART_1.c ****     {
 872:.\Generated_Source\PSoC5/USBUART_1.c ****         uint8 i;
 873:.\Generated_Source\PSoC5/USBUART_1.c ****         i = (epNumber < USBUART_1_MAX_EP) ? epNumber : USBUART_1_EP1;
 874:.\Generated_Source\PSoC5/USBUART_1.c ****         do
 875:.\Generated_Source\PSoC5/USBUART_1.c ****         {
 876:.\Generated_Source\PSoC5/USBUART_1.c ****             if(USBUART_1_DmaTd[i] != DMA_INVALID_TD)
 877:.\Generated_Source\PSoC5/USBUART_1.c ****             {
 878:.\Generated_Source\PSoC5/USBUART_1.c ****                 (void) CyDmaChDisable(USBUART_1_DmaChan[i]);
 879:.\Generated_Source\PSoC5/USBUART_1.c ****                 CyDmaTdFree(USBUART_1_DmaTd[i]);
 880:.\Generated_Source\PSoC5/USBUART_1.c ****                 USBUART_1_DmaTd[i] = DMA_INVALID_TD;
 881:.\Generated_Source\PSoC5/USBUART_1.c ****             }
 882:.\Generated_Source\PSoC5/USBUART_1.c ****             i++;
 883:.\Generated_Source\PSoC5/USBUART_1.c ****         }while((i < USBUART_1_MAX_EP) && (epNumber == USBUART_1_MAX_EP));
 884:.\Generated_Source\PSoC5/USBUART_1.c ****     }
 885:.\Generated_Source\PSoC5/USBUART_1.c **** 
 886:.\Generated_Source\PSoC5/USBUART_1.c **** #endif /* End USBUART_1_EP_MM != USBUART_1__EP_MANUAL */
 887:.\Generated_Source\PSoC5/USBUART_1.c **** 
 888:.\Generated_Source\PSoC5/USBUART_1.c **** 
 889:.\Generated_Source\PSoC5/USBUART_1.c **** /*******************************************************************************
 890:.\Generated_Source\PSoC5/USBUART_1.c **** * Function Name: USBUART_1_LoadInEP
 891:.\Generated_Source\PSoC5/USBUART_1.c **** ********************************************************************************
 892:.\Generated_Source\PSoC5/USBUART_1.c **** *
ARM GAS  C:\Users\Luke\AppData\Local\Temp\ccuzhVDD.s 			page 31


 893:.\Generated_Source\PSoC5/USBUART_1.c **** * Summary:
 894:.\Generated_Source\PSoC5/USBUART_1.c **** *  Loads and enables the specified USB data endpoint for an IN interrupt or bulk
 895:.\Generated_Source\PSoC5/USBUART_1.c **** *  transfer.
 896:.\Generated_Source\PSoC5/USBUART_1.c **** *
 897:.\Generated_Source\PSoC5/USBUART_1.c **** * Parameters:
 898:.\Generated_Source\PSoC5/USBUART_1.c **** *  epNumber: Contains the data endpoint number.
 899:.\Generated_Source\PSoC5/USBUART_1.c **** *            Valid values are between 1 and 8.
 900:.\Generated_Source\PSoC5/USBUART_1.c **** *  *pData: A pointer to a data array from which the data for the endpoint space
 901:.\Generated_Source\PSoC5/USBUART_1.c **** *          is loaded.
 902:.\Generated_Source\PSoC5/USBUART_1.c **** *  length: The number of bytes to transfer from the array and then send as a
 903:.\Generated_Source\PSoC5/USBUART_1.c **** *          result of an IN request. Valid values are between 0 and 512.
 904:.\Generated_Source\PSoC5/USBUART_1.c **** *
 905:.\Generated_Source\PSoC5/USBUART_1.c **** * Return:
 906:.\Generated_Source\PSoC5/USBUART_1.c **** *  None.
 907:.\Generated_Source\PSoC5/USBUART_1.c **** *
 908:.\Generated_Source\PSoC5/USBUART_1.c **** * Reentrant:
 909:.\Generated_Source\PSoC5/USBUART_1.c **** *  No.
 910:.\Generated_Source\PSoC5/USBUART_1.c **** *
 911:.\Generated_Source\PSoC5/USBUART_1.c **** *******************************************************************************/
 912:.\Generated_Source\PSoC5/USBUART_1.c **** void USBUART_1_LoadInEP(uint8 epNumber, const uint8 pData[], uint16 length)
 913:.\Generated_Source\PSoC5/USBUART_1.c ****                                                                         
 914:.\Generated_Source\PSoC5/USBUART_1.c **** {
 764              		.loc 1 914 0
 765              		.cfi_startproc
 766              		@ args = 0, pretend = 0, frame = 0
 767              		@ frame_needed = 0, uses_anonymous_args = 0
 768              	.LVL48:
 915:.\Generated_Source\PSoC5/USBUART_1.c ****     uint8 ri;
 916:.\Generated_Source\PSoC5/USBUART_1.c ****     reg8 *p;
 917:.\Generated_Source\PSoC5/USBUART_1.c ****     #if(USBUART_1_EP_MM == USBUART_1__EP_MANUAL)
 918:.\Generated_Source\PSoC5/USBUART_1.c ****         uint16 i;
 919:.\Generated_Source\PSoC5/USBUART_1.c ****     #endif /* End USBUART_1_EP_MM == USBUART_1__EP_MANUAL */
 920:.\Generated_Source\PSoC5/USBUART_1.c **** 
 921:.\Generated_Source\PSoC5/USBUART_1.c ****     if((epNumber > USBUART_1_EP0) && (epNumber < USBUART_1_MAX_EP))
 769              		.loc 1 921 0
 770 0000 431E     		subs	r3, r0, #1
 771 0002 DBB2     		uxtb	r3, r3
 772 0004 072B     		cmp	r3, #7
 914:.\Generated_Source\PSoC5/USBUART_1.c **** {
 773              		.loc 1 914 0
 774 0006 F0B5     		push	{r4, r5, r6, r7, lr}
 775              	.LCFI3:
 776              		.cfi_def_cfa_offset 20
 777              		.cfi_offset 4, -20
 778              		.cfi_offset 5, -16
 779              		.cfi_offset 6, -12
 780              		.cfi_offset 7, -8
 781              		.cfi_offset 14, -4
 782              		.loc 1 921 0
 783 0008 2FD8     		bhi	.L45
 784              	.LVL49:
 922:.\Generated_Source\PSoC5/USBUART_1.c ****     {
 923:.\Generated_Source\PSoC5/USBUART_1.c ****         ri = ((epNumber - USBUART_1_EP1) << USBUART_1_EPX_CNTX_ADDR_SHIFT);
 924:.\Generated_Source\PSoC5/USBUART_1.c ****         p = (reg8 *)(USBUART_1_ARB_RW1_DR_IND + ri);
 925:.\Generated_Source\PSoC5/USBUART_1.c **** 
 926:.\Generated_Source\PSoC5/USBUART_1.c ****         #if(USBUART_1_EP_MM != USBUART_1__EP_DMAAUTO)
 927:.\Generated_Source\PSoC5/USBUART_1.c ****             /* Limits length to available buffer space, auto MM could send packets up to 1024 bytes
ARM GAS  C:\Users\Luke\AppData\Local\Temp\ccuzhVDD.s 			page 32


 928:.\Generated_Source\PSoC5/USBUART_1.c ****             if(length > (USBUART_1_EPX_DATA_BUF_MAX - USBUART_1_EP[epNumber].buffOffset))
 785              		.loc 1 928 0
 786 000a 184E     		ldr	r6, .L52
 923:.\Generated_Source\PSoC5/USBUART_1.c ****         ri = ((epNumber - USBUART_1_EP1) << USBUART_1_EPX_CNTX_ADDR_SHIFT);
 787              		.loc 1 923 0
 788 000c 1C01     		lsls	r4, r3, #4
 789              		.loc 1 928 0
 790 000e 0C27     		movs	r7, #12
 924:.\Generated_Source\PSoC5/USBUART_1.c ****         p = (reg8 *)(USBUART_1_ARB_RW1_DR_IND + ri);
 791              		.loc 1 924 0
 792 0010 E3B2     		uxtb	r3, r4
 793              	.LVL50:
 794              		.loc 1 928 0
 795 0012 07FB0064 		mla	r4, r7, r0, r6
 796 0016 E788     		ldrh	r7, [r4, #6]
 924:.\Generated_Source\PSoC5/USBUART_1.c ****         p = (reg8 *)(USBUART_1_ARB_RW1_DR_IND + ri);
 797              		.loc 1 924 0
 798 0018 154D     		ldr	r5, .L52+4
 799              		.loc 1 928 0
 800 001a BFB2     		uxth	r7, r7
 801 001c C7F50077 		rsb	r7, r7, #512
 802 0020 BA42     		cmp	r2, r7
 924:.\Generated_Source\PSoC5/USBUART_1.c ****         p = (reg8 *)(USBUART_1_ARB_RW1_DR_IND + ri);
 803              		.loc 1 924 0
 804 0022 1D44     		add	r5, r3, r5
 805              	.LVL51:
 806              		.loc 1 928 0
 807 0024 03D9     		bls	.L47
 929:.\Generated_Source\PSoC5/USBUART_1.c ****             {
 930:.\Generated_Source\PSoC5/USBUART_1.c ****                 length = USBUART_1_EPX_DATA_BUF_MAX - USBUART_1_EP[epNumber].buffOffset;
 808              		.loc 1 930 0
 809 0026 E288     		ldrh	r2, [r4, #6]
 810              	.LVL52:
 811 0028 C2F50074 		rsb	r4, r2, #512
 812 002c A2B2     		uxth	r2, r4
 813              	.LVL53:
 814              	.L47:
 931:.\Generated_Source\PSoC5/USBUART_1.c ****             }
 932:.\Generated_Source\PSoC5/USBUART_1.c ****         #endif /* End USBUART_1_EP_MM != USBUART_1__EP_DMAAUTO */
 933:.\Generated_Source\PSoC5/USBUART_1.c **** 
 934:.\Generated_Source\PSoC5/USBUART_1.c ****         /* Set the count and data toggle */
 935:.\Generated_Source\PSoC5/USBUART_1.c ****         CY_SET_REG8((reg8 *)(USBUART_1_SIE_EP1_CNT0_IND + ri),
 815              		.loc 1 935 0
 816 002e 0C24     		movs	r4, #12
 817 0030 04FB0066 		mla	r6, r4, r0, r6
 818 0034 F478     		ldrb	r4, [r6, #3]	@ zero_extendqisi2
 819 0036 44EA1226 		orr	r6, r4, r2, lsr #8
 820 003a 0E4C     		ldr	r4, .L52+8
 821 003c 1E55     		strb	r6, [r3, r4]
 936:.\Generated_Source\PSoC5/USBUART_1.c ****                             (length >> 8u) | (USBUART_1_EP[epNumber].epToggle));
 937:.\Generated_Source\PSoC5/USBUART_1.c ****         CY_SET_REG8((reg8 *)(USBUART_1_SIE_EP1_CNT1_IND + ri),  length & 0xFFu);
 822              		.loc 1 937 0
 823 003e D6B2     		uxtb	r6, r2
 824 0040 0134     		adds	r4, r4, #1
 825 0042 1E55     		strb	r6, [r3, r4]
 938:.\Generated_Source\PSoC5/USBUART_1.c **** 
 939:.\Generated_Source\PSoC5/USBUART_1.c ****         #if(USBUART_1_EP_MM == USBUART_1__EP_MANUAL)
ARM GAS  C:\Users\Luke\AppData\Local\Temp\ccuzhVDD.s 			page 33


 940:.\Generated_Source\PSoC5/USBUART_1.c ****             if(pData != NULL)
 826              		.loc 1 940 0
 827 0044 49B9     		cbnz	r1, .L51
 828              	.L50:
 941:.\Generated_Source\PSoC5/USBUART_1.c ****             {
 942:.\Generated_Source\PSoC5/USBUART_1.c ****                 /* Copy the data using the arbiter data register */
 943:.\Generated_Source\PSoC5/USBUART_1.c ****                 for (i = 0u; i < length; i++)
 944:.\Generated_Source\PSoC5/USBUART_1.c ****                 {
 945:.\Generated_Source\PSoC5/USBUART_1.c ****                     CY_SET_REG8(p, pData[i]);
 946:.\Generated_Source\PSoC5/USBUART_1.c ****                 }
 947:.\Generated_Source\PSoC5/USBUART_1.c ****             }
 948:.\Generated_Source\PSoC5/USBUART_1.c ****             USBUART_1_EP[epNumber].apiEpState = USBUART_1_NO_EVENT_PENDING;
 829              		.loc 1 948 0
 830 0046 094A     		ldr	r2, .L52
 831              	.LVL54:
 832 0048 0C21     		movs	r1, #12
 833              	.LVL55:
 834 004a 01FB0020 		mla	r0, r1, r0, r2
 835              	.LVL56:
 836 004e 0021     		movs	r1, #0
 837 0050 4170     		strb	r1, [r0, #1]
 949:.\Generated_Source\PSoC5/USBUART_1.c ****             /* Write the Mode register */
 950:.\Generated_Source\PSoC5/USBUART_1.c ****             CY_SET_REG8((reg8 *)(USBUART_1_SIE_EP1_CR0_IND + ri), USBUART_1_EP[epNumber].epMode);
 838              		.loc 1 950 0
 839 0052 4079     		ldrb	r0, [r0, #5]	@ zero_extendqisi2
 840 0054 084A     		ldr	r2, .L52+12
 841 0056 9854     		strb	r0, [r3, r2]
 842 0058 F0BD     		pop	{r4, r5, r6, r7, pc}
 843              	.LVL57:
 844              	.L51:
 940:.\Generated_Source\PSoC5/USBUART_1.c ****             if(pData != NULL)
 845              		.loc 1 940 0
 846 005a 0024     		movs	r4, #0
 847              	.L48:
 943:.\Generated_Source\PSoC5/USBUART_1.c ****                 for (i = 0u; i < length; i++)
 848              		.loc 1 943 0 discriminator 1
 849 005c A6B2     		uxth	r6, r4
 850 005e 9642     		cmp	r6, r2
 851 0060 F1D2     		bcs	.L50
 852              	.L49:
 945:.\Generated_Source\PSoC5/USBUART_1.c ****                     CY_SET_REG8(p, pData[i]);
 853              		.loc 1 945 0 discriminator 2
 854 0062 0E5D     		ldrb	r6, [r1, r4]	@ zero_extendqisi2
 855 0064 0134     		adds	r4, r4, #1
 856 0066 2E70     		strb	r6, [r5, #0]
 857 0068 F8E7     		b	.L48
 858              	.LVL58:
 859              	.L45:
 860 006a F0BD     		pop	{r4, r5, r6, r7, pc}
 861              	.L53:
 862              		.align	2
 863              	.L52:
 864 006c 00000000 		.word	USBUART_1_EP
 865 0070 88600040 		.word	1073766536
 866 0074 0C600040 		.word	1073766412
 867 0078 0E600040 		.word	1073766414
 868              		.cfi_endproc
ARM GAS  C:\Users\Luke\AppData\Local\Temp\ccuzhVDD.s 			page 34


 869              	.LFE11:
 870              		.size	USBUART_1_LoadInEP, .-USBUART_1_LoadInEP
 871              		.section	.text.USBUART_1_EnableOutEP,"ax",%progbits
 872              		.align	1
 873              		.global	USBUART_1_EnableOutEP
 874              		.thumb
 875              		.thumb_func
 876              		.type	USBUART_1_EnableOutEP, %function
 877              	USBUART_1_EnableOutEP:
 878              	.LFB13:
 951:.\Generated_Source\PSoC5/USBUART_1.c ****         #else
 952:.\Generated_Source\PSoC5/USBUART_1.c ****             /* Init DMA if it was not initialized */
 953:.\Generated_Source\PSoC5/USBUART_1.c ****             if(USBUART_1_DmaTd[epNumber] == DMA_INVALID_TD)
 954:.\Generated_Source\PSoC5/USBUART_1.c ****             {
 955:.\Generated_Source\PSoC5/USBUART_1.c ****                 USBUART_1_InitEP_DMA(epNumber, pData);
 956:.\Generated_Source\PSoC5/USBUART_1.c ****             }
 957:.\Generated_Source\PSoC5/USBUART_1.c ****         #endif /* End USBUART_1_EP_MM == USBUART_1__EP_MANUAL */
 958:.\Generated_Source\PSoC5/USBUART_1.c **** 
 959:.\Generated_Source\PSoC5/USBUART_1.c ****         #if(USBUART_1_EP_MM == USBUART_1__EP_DMAMANUAL)
 960:.\Generated_Source\PSoC5/USBUART_1.c ****             USBUART_1_EP[epNumber].apiEpState = USBUART_1_NO_EVENT_PENDING;
 961:.\Generated_Source\PSoC5/USBUART_1.c ****             if((pData != NULL) && (length > 0u))
 962:.\Generated_Source\PSoC5/USBUART_1.c ****             {
 963:.\Generated_Source\PSoC5/USBUART_1.c ****                 /* Enable DMA in mode2 for transferring data */
 964:.\Generated_Source\PSoC5/USBUART_1.c ****                 (void) CyDmaChDisable(USBUART_1_DmaChan[epNumber]);
 965:.\Generated_Source\PSoC5/USBUART_1.c ****                 (void) CyDmaTdSetConfiguration(USBUART_1_DmaTd[epNumber], length, CY_DMA_DISABLE_TD
 966:.\Generated_Source\PSoC5/USBUART_1.c ****                                                                                  TD_TERMIN_EN | TD_
 967:.\Generated_Source\PSoC5/USBUART_1.c ****                 (void) CyDmaTdSetAddress(USBUART_1_DmaTd[epNumber],  LO16((uint32)pData), LO16((uin
 968:.\Generated_Source\PSoC5/USBUART_1.c ****                 /* Enable the DMA */
 969:.\Generated_Source\PSoC5/USBUART_1.c ****                 (void) CyDmaChSetInitialTd(USBUART_1_DmaChan[epNumber], USBUART_1_DmaTd[epNumber]);
 970:.\Generated_Source\PSoC5/USBUART_1.c ****                 (void) CyDmaChEnable(USBUART_1_DmaChan[epNumber], 1u);
 971:.\Generated_Source\PSoC5/USBUART_1.c ****                 /* Generate DMA request */
 972:.\Generated_Source\PSoC5/USBUART_1.c ****                 * (reg8 *)(USBUART_1_ARB_EP1_CFG_IND + ri) |= USBUART_1_ARB_EPX_CFG_DMA_REQ;
 973:.\Generated_Source\PSoC5/USBUART_1.c ****                 * (reg8 *)(USBUART_1_ARB_EP1_CFG_IND + ri) &= ((uint8)(~USBUART_1_ARB_EPX_CFG_DMA_R
 974:.\Generated_Source\PSoC5/USBUART_1.c ****                 /* Mode register will be written in arb ISR after DMA transfer complete */
 975:.\Generated_Source\PSoC5/USBUART_1.c ****             }
 976:.\Generated_Source\PSoC5/USBUART_1.c ****             else
 977:.\Generated_Source\PSoC5/USBUART_1.c ****             {
 978:.\Generated_Source\PSoC5/USBUART_1.c ****                 /* When zero-length packet - write the Mode register directly */
 979:.\Generated_Source\PSoC5/USBUART_1.c ****                 CY_SET_REG8((reg8 *)(USBUART_1_SIE_EP1_CR0_IND + ri), USBUART_1_EP[epNumber].epMode
 980:.\Generated_Source\PSoC5/USBUART_1.c ****             }
 981:.\Generated_Source\PSoC5/USBUART_1.c ****         #endif /* End USBUART_1_EP_MM == USBUART_1__EP_DMAMANUAL */
 982:.\Generated_Source\PSoC5/USBUART_1.c **** 
 983:.\Generated_Source\PSoC5/USBUART_1.c ****         #if(USBUART_1_EP_MM == USBUART_1__EP_DMAAUTO)
 984:.\Generated_Source\PSoC5/USBUART_1.c ****             if(pData != NULL)
 985:.\Generated_Source\PSoC5/USBUART_1.c ****             {
 986:.\Generated_Source\PSoC5/USBUART_1.c ****                 /* Enable DMA in mode3 for transferring data */
 987:.\Generated_Source\PSoC5/USBUART_1.c ****                 (void) CyDmaChDisable(USBUART_1_DmaChan[epNumber]);
 988:.\Generated_Source\PSoC5/USBUART_1.c ****                 (void) CyDmaTdSetConfiguration(USBUART_1_DmaTd[epNumber], length,
 989:.\Generated_Source\PSoC5/USBUART_1.c ****                                                USBUART_1_DmaTd[epNumber], TD_TERMIN_EN | TD_INC_SRC
 990:.\Generated_Source\PSoC5/USBUART_1.c ****                 (void) CyDmaTdSetAddress(USBUART_1_DmaTd[epNumber],  LO16((uint32)pData), LO16((uin
 991:.\Generated_Source\PSoC5/USBUART_1.c ****                 /* Clear Any potential pending DMA requests before starting the DMA channel to tran
 992:.\Generated_Source\PSoC5/USBUART_1.c ****                 (void) CyDmaClearPendingDrq(USBUART_1_DmaChan[epNumber]);
 993:.\Generated_Source\PSoC5/USBUART_1.c ****                 /* Enable the DMA */
 994:.\Generated_Source\PSoC5/USBUART_1.c ****                 (void) CyDmaChSetInitialTd(USBUART_1_DmaChan[epNumber], USBUART_1_DmaTd[epNumber]);
 995:.\Generated_Source\PSoC5/USBUART_1.c ****                 (void) CyDmaChEnable(USBUART_1_DmaChan[epNumber], 1u);
 996:.\Generated_Source\PSoC5/USBUART_1.c ****             }
 997:.\Generated_Source\PSoC5/USBUART_1.c ****             else
ARM GAS  C:\Users\Luke\AppData\Local\Temp\ccuzhVDD.s 			page 35


 998:.\Generated_Source\PSoC5/USBUART_1.c ****             {
 999:.\Generated_Source\PSoC5/USBUART_1.c ****                 USBUART_1_EP[epNumber].apiEpState = USBUART_1_NO_EVENT_PENDING;
1000:.\Generated_Source\PSoC5/USBUART_1.c ****                 if(length > 0u)
1001:.\Generated_Source\PSoC5/USBUART_1.c ****                 {
1002:.\Generated_Source\PSoC5/USBUART_1.c ****                     /* Set Data ready status, This will generate DMA request */
1003:.\Generated_Source\PSoC5/USBUART_1.c ****                     * (reg8 *)(USBUART_1_ARB_EP1_CFG_IND + ri) |= USBUART_1_ARB_EPX_CFG_IN_DATA_RDY
1004:.\Generated_Source\PSoC5/USBUART_1.c ****                     /* Mode register will be written in arb ISR(In Buffer Full) after first DMA tra
1005:.\Generated_Source\PSoC5/USBUART_1.c ****                 }
1006:.\Generated_Source\PSoC5/USBUART_1.c ****                 else
1007:.\Generated_Source\PSoC5/USBUART_1.c ****                 {
1008:.\Generated_Source\PSoC5/USBUART_1.c ****                     /* When zero-length packet - write the Mode register directly */
1009:.\Generated_Source\PSoC5/USBUART_1.c ****                     CY_SET_REG8((reg8 *)(USBUART_1_SIE_EP1_CR0_IND + ri), USBUART_1_EP[epNumber].ep
1010:.\Generated_Source\PSoC5/USBUART_1.c ****                 }
1011:.\Generated_Source\PSoC5/USBUART_1.c ****             }
1012:.\Generated_Source\PSoC5/USBUART_1.c ****         #endif /* End USBUART_1_EP_MM == USBUART_1__EP_DMAAUTO */
1013:.\Generated_Source\PSoC5/USBUART_1.c **** 
1014:.\Generated_Source\PSoC5/USBUART_1.c ****     }
1015:.\Generated_Source\PSoC5/USBUART_1.c **** }
1016:.\Generated_Source\PSoC5/USBUART_1.c **** 
1017:.\Generated_Source\PSoC5/USBUART_1.c **** 
1018:.\Generated_Source\PSoC5/USBUART_1.c **** /*******************************************************************************
1019:.\Generated_Source\PSoC5/USBUART_1.c **** * Function Name: USBUART_1_ReadOutEP
1020:.\Generated_Source\PSoC5/USBUART_1.c **** ********************************************************************************
1021:.\Generated_Source\PSoC5/USBUART_1.c **** *
1022:.\Generated_Source\PSoC5/USBUART_1.c **** * Summary:
1023:.\Generated_Source\PSoC5/USBUART_1.c **** *  Read data from an endpoint.  The application must call
1024:.\Generated_Source\PSoC5/USBUART_1.c **** *  USBUART_1_GetEPState to see if an event is pending.
1025:.\Generated_Source\PSoC5/USBUART_1.c **** *
1026:.\Generated_Source\PSoC5/USBUART_1.c **** * Parameters:
1027:.\Generated_Source\PSoC5/USBUART_1.c **** *  epNumber: Contains the data endpoint number.
1028:.\Generated_Source\PSoC5/USBUART_1.c **** *            Valid values are between 1 and 8.
1029:.\Generated_Source\PSoC5/USBUART_1.c **** *  pData: A pointer to a data array from which the data for the endpoint space
1030:.\Generated_Source\PSoC5/USBUART_1.c **** *         is loaded.
1031:.\Generated_Source\PSoC5/USBUART_1.c **** *  length: The number of bytes to transfer from the USB Out endpoint and loads
1032:.\Generated_Source\PSoC5/USBUART_1.c **** *          it into data array. Valid values are between 0 and 1023. The function
1033:.\Generated_Source\PSoC5/USBUART_1.c **** *          moves fewer than the requested number of bytes if the host sends
1034:.\Generated_Source\PSoC5/USBUART_1.c **** *          fewer bytes than requested.
1035:.\Generated_Source\PSoC5/USBUART_1.c **** *
1036:.\Generated_Source\PSoC5/USBUART_1.c **** * Returns:
1037:.\Generated_Source\PSoC5/USBUART_1.c **** *  Number of bytes received, 0 for an invalid endpoint.
1038:.\Generated_Source\PSoC5/USBUART_1.c **** *
1039:.\Generated_Source\PSoC5/USBUART_1.c **** * Reentrant:
1040:.\Generated_Source\PSoC5/USBUART_1.c **** *  No.
1041:.\Generated_Source\PSoC5/USBUART_1.c **** *
1042:.\Generated_Source\PSoC5/USBUART_1.c **** *******************************************************************************/
1043:.\Generated_Source\PSoC5/USBUART_1.c **** uint16 USBUART_1_ReadOutEP(uint8 epNumber, uint8 pData[], uint16 length)
1044:.\Generated_Source\PSoC5/USBUART_1.c ****                                                                         
1045:.\Generated_Source\PSoC5/USBUART_1.c **** {
1046:.\Generated_Source\PSoC5/USBUART_1.c ****     uint8 ri;
1047:.\Generated_Source\PSoC5/USBUART_1.c ****     reg8 *p;
1048:.\Generated_Source\PSoC5/USBUART_1.c ****     #if(USBUART_1_EP_MM == USBUART_1__EP_MANUAL)
1049:.\Generated_Source\PSoC5/USBUART_1.c ****         uint16 i;
1050:.\Generated_Source\PSoC5/USBUART_1.c ****     #endif /* End USBUART_1_EP_MM == USBUART_1__EP_MANUAL */
1051:.\Generated_Source\PSoC5/USBUART_1.c ****     #if(USBUART_1_EP_MM != USBUART_1__EP_DMAAUTO)
1052:.\Generated_Source\PSoC5/USBUART_1.c ****         uint16 xferCount;
1053:.\Generated_Source\PSoC5/USBUART_1.c ****     #endif /* End USBUART_1_EP_MM != USBUART_1__EP_DMAAUTO */
1054:.\Generated_Source\PSoC5/USBUART_1.c **** 
ARM GAS  C:\Users\Luke\AppData\Local\Temp\ccuzhVDD.s 			page 36


1055:.\Generated_Source\PSoC5/USBUART_1.c ****     if((epNumber > USBUART_1_EP0) && (epNumber < USBUART_1_MAX_EP) && (pData != NULL))
1056:.\Generated_Source\PSoC5/USBUART_1.c ****     {
1057:.\Generated_Source\PSoC5/USBUART_1.c ****         ri = ((epNumber - USBUART_1_EP1) << USBUART_1_EPX_CNTX_ADDR_SHIFT);
1058:.\Generated_Source\PSoC5/USBUART_1.c ****         p = (reg8 *)(USBUART_1_ARB_RW1_DR_IND + ri);
1059:.\Generated_Source\PSoC5/USBUART_1.c **** 
1060:.\Generated_Source\PSoC5/USBUART_1.c ****         #if(USBUART_1_EP_MM != USBUART_1__EP_DMAAUTO)
1061:.\Generated_Source\PSoC5/USBUART_1.c ****             /* Determine which is smaller the requested data or the available data */
1062:.\Generated_Source\PSoC5/USBUART_1.c ****             xferCount = USBUART_1_GetEPCount(epNumber);
1063:.\Generated_Source\PSoC5/USBUART_1.c ****             if (length > xferCount)
1064:.\Generated_Source\PSoC5/USBUART_1.c ****             {
1065:.\Generated_Source\PSoC5/USBUART_1.c ****                 length = xferCount;
1066:.\Generated_Source\PSoC5/USBUART_1.c ****             }
1067:.\Generated_Source\PSoC5/USBUART_1.c ****         #endif /* End USBUART_1_EP_MM != USBUART_1__EP_DMAAUTO */
1068:.\Generated_Source\PSoC5/USBUART_1.c **** 
1069:.\Generated_Source\PSoC5/USBUART_1.c ****         #if(USBUART_1_EP_MM == USBUART_1__EP_MANUAL)
1070:.\Generated_Source\PSoC5/USBUART_1.c ****             /* Copy the data using the arbiter data register */
1071:.\Generated_Source\PSoC5/USBUART_1.c ****             for (i = 0u; i < length; i++)
1072:.\Generated_Source\PSoC5/USBUART_1.c ****             {
1073:.\Generated_Source\PSoC5/USBUART_1.c ****                 pData[i] = CY_GET_REG8(p);
1074:.\Generated_Source\PSoC5/USBUART_1.c ****             }
1075:.\Generated_Source\PSoC5/USBUART_1.c **** 
1076:.\Generated_Source\PSoC5/USBUART_1.c ****             /* (re)arming of OUT endpoint */
1077:.\Generated_Source\PSoC5/USBUART_1.c ****             USBUART_1_EnableOutEP(epNumber);
1078:.\Generated_Source\PSoC5/USBUART_1.c ****         #else
1079:.\Generated_Source\PSoC5/USBUART_1.c ****             /*Init DMA if it was not initialized */
1080:.\Generated_Source\PSoC5/USBUART_1.c ****             if(USBUART_1_DmaTd[epNumber] == DMA_INVALID_TD)
1081:.\Generated_Source\PSoC5/USBUART_1.c ****             {
1082:.\Generated_Source\PSoC5/USBUART_1.c ****                 USBUART_1_InitEP_DMA(epNumber, pData);
1083:.\Generated_Source\PSoC5/USBUART_1.c ****             }
1084:.\Generated_Source\PSoC5/USBUART_1.c ****         #endif /* End USBUART_1_EP_MM == USBUART_1__EP_MANUAL */
1085:.\Generated_Source\PSoC5/USBUART_1.c **** 
1086:.\Generated_Source\PSoC5/USBUART_1.c ****         #if(USBUART_1_EP_MM == USBUART_1__EP_DMAMANUAL)
1087:.\Generated_Source\PSoC5/USBUART_1.c ****             /* Enable DMA in mode2 for transferring data */
1088:.\Generated_Source\PSoC5/USBUART_1.c ****             (void) CyDmaChDisable(USBUART_1_DmaChan[epNumber]);
1089:.\Generated_Source\PSoC5/USBUART_1.c ****             (void) CyDmaTdSetConfiguration(USBUART_1_DmaTd[epNumber], length, CY_DMA_DISABLE_TD,
1090:.\Generated_Source\PSoC5/USBUART_1.c ****                                                                                 TD_TERMIN_EN | TD_I
1091:.\Generated_Source\PSoC5/USBUART_1.c ****             (void) CyDmaTdSetAddress(USBUART_1_DmaTd[epNumber],  LO16((uint32)p), LO16((uint32)pDat
1092:.\Generated_Source\PSoC5/USBUART_1.c ****             /* Enable the DMA */
1093:.\Generated_Source\PSoC5/USBUART_1.c ****             (void) CyDmaChSetInitialTd(USBUART_1_DmaChan[epNumber], USBUART_1_DmaTd[epNumber]);
1094:.\Generated_Source\PSoC5/USBUART_1.c ****             (void) CyDmaChEnable(USBUART_1_DmaChan[epNumber], 1u);
1095:.\Generated_Source\PSoC5/USBUART_1.c **** 
1096:.\Generated_Source\PSoC5/USBUART_1.c ****             /* Generate DMA request */
1097:.\Generated_Source\PSoC5/USBUART_1.c ****             * (reg8 *)(USBUART_1_ARB_EP1_CFG_IND + ri) |= USBUART_1_ARB_EPX_CFG_DMA_REQ;
1098:.\Generated_Source\PSoC5/USBUART_1.c ****             * (reg8 *)(USBUART_1_ARB_EP1_CFG_IND + ri) &= ((uint8)(~USBUART_1_ARB_EPX_CFG_DMA_REQ))
1099:.\Generated_Source\PSoC5/USBUART_1.c ****             /* Out EP will be (re)armed in arb ISR after transfer complete */
1100:.\Generated_Source\PSoC5/USBUART_1.c ****         #endif /* End USBUART_1_EP_MM == USBUART_1__EP_DMAMANUAL */
1101:.\Generated_Source\PSoC5/USBUART_1.c **** 
1102:.\Generated_Source\PSoC5/USBUART_1.c ****         #if(USBUART_1_EP_MM == USBUART_1__EP_DMAAUTO)
1103:.\Generated_Source\PSoC5/USBUART_1.c ****             /* Enable DMA in mode3 for transferring data */
1104:.\Generated_Source\PSoC5/USBUART_1.c ****             (void) CyDmaChDisable(USBUART_1_DmaChan[epNumber]);
1105:.\Generated_Source\PSoC5/USBUART_1.c ****             (void) CyDmaTdSetConfiguration(USBUART_1_DmaTd[epNumber], length, USBUART_1_DmaTd[epNum
1106:.\Generated_Source\PSoC5/USBUART_1.c ****                                                                                 TD_TERMIN_EN | TD_I
1107:.\Generated_Source\PSoC5/USBUART_1.c ****             (void) CyDmaTdSetAddress(USBUART_1_DmaTd[epNumber],  LO16((uint32)p), LO16((uint32)pDat
1108:.\Generated_Source\PSoC5/USBUART_1.c **** 
1109:.\Generated_Source\PSoC5/USBUART_1.c ****             /* Clear Any potential pending DMA requests before starting the DMA channel to transfer
1110:.\Generated_Source\PSoC5/USBUART_1.c ****             (void) CyDmaClearPendingDrq(USBUART_1_DmaChan[epNumber]);
1111:.\Generated_Source\PSoC5/USBUART_1.c ****             /* Enable the DMA */
ARM GAS  C:\Users\Luke\AppData\Local\Temp\ccuzhVDD.s 			page 37


1112:.\Generated_Source\PSoC5/USBUART_1.c ****             (void) CyDmaChSetInitialTd(USBUART_1_DmaChan[epNumber], USBUART_1_DmaTd[epNumber]);
1113:.\Generated_Source\PSoC5/USBUART_1.c ****             (void) CyDmaChEnable(USBUART_1_DmaChan[epNumber], 1u);
1114:.\Generated_Source\PSoC5/USBUART_1.c ****             /* Out EP will be (re)armed in arb ISR after transfer complete */
1115:.\Generated_Source\PSoC5/USBUART_1.c ****         #endif /* End USBUART_1_EP_MM == USBUART_1__EP_DMAAUTO */
1116:.\Generated_Source\PSoC5/USBUART_1.c **** 
1117:.\Generated_Source\PSoC5/USBUART_1.c ****     }
1118:.\Generated_Source\PSoC5/USBUART_1.c ****     else
1119:.\Generated_Source\PSoC5/USBUART_1.c ****     {
1120:.\Generated_Source\PSoC5/USBUART_1.c ****         length = 0u;
1121:.\Generated_Source\PSoC5/USBUART_1.c ****     }
1122:.\Generated_Source\PSoC5/USBUART_1.c **** 
1123:.\Generated_Source\PSoC5/USBUART_1.c ****     return(length);
1124:.\Generated_Source\PSoC5/USBUART_1.c **** }
1125:.\Generated_Source\PSoC5/USBUART_1.c **** 
1126:.\Generated_Source\PSoC5/USBUART_1.c **** 
1127:.\Generated_Source\PSoC5/USBUART_1.c **** /*******************************************************************************
1128:.\Generated_Source\PSoC5/USBUART_1.c **** * Function Name: USBUART_1_EnableOutEP
1129:.\Generated_Source\PSoC5/USBUART_1.c **** ********************************************************************************
1130:.\Generated_Source\PSoC5/USBUART_1.c **** *
1131:.\Generated_Source\PSoC5/USBUART_1.c **** * Summary:
1132:.\Generated_Source\PSoC5/USBUART_1.c **** *  This function enables an OUT endpoint.  It should not be
1133:.\Generated_Source\PSoC5/USBUART_1.c **** *  called for an IN endpoint.
1134:.\Generated_Source\PSoC5/USBUART_1.c **** *
1135:.\Generated_Source\PSoC5/USBUART_1.c **** * Parameters:
1136:.\Generated_Source\PSoC5/USBUART_1.c **** *  epNumber: Endpoint Number
1137:.\Generated_Source\PSoC5/USBUART_1.c **** *            Valid values are between 1 and 8.
1138:.\Generated_Source\PSoC5/USBUART_1.c **** *
1139:.\Generated_Source\PSoC5/USBUART_1.c **** * Return:
1140:.\Generated_Source\PSoC5/USBUART_1.c **** *   None.
1141:.\Generated_Source\PSoC5/USBUART_1.c **** *
1142:.\Generated_Source\PSoC5/USBUART_1.c **** * Global variables:
1143:.\Generated_Source\PSoC5/USBUART_1.c **** *  USBUART_1_EP[epNumber].apiEpState - set to NO_EVENT_PENDING
1144:.\Generated_Source\PSoC5/USBUART_1.c **** *
1145:.\Generated_Source\PSoC5/USBUART_1.c **** * Reentrant:
1146:.\Generated_Source\PSoC5/USBUART_1.c **** *  No.
1147:.\Generated_Source\PSoC5/USBUART_1.c **** *
1148:.\Generated_Source\PSoC5/USBUART_1.c **** *******************************************************************************/
1149:.\Generated_Source\PSoC5/USBUART_1.c **** void USBUART_1_EnableOutEP(uint8 epNumber) 
1150:.\Generated_Source\PSoC5/USBUART_1.c **** {
 879              		.loc 1 1150 0
 880              		.cfi_startproc
 881              		@ args = 0, pretend = 0, frame = 0
 882              		@ frame_needed = 0, uses_anonymous_args = 0
 883              		@ link register save eliminated.
 884              	.LVL59:
1151:.\Generated_Source\PSoC5/USBUART_1.c ****     uint8 ri;
1152:.\Generated_Source\PSoC5/USBUART_1.c **** 
1153:.\Generated_Source\PSoC5/USBUART_1.c ****     if((epNumber > USBUART_1_EP0) && (epNumber < USBUART_1_MAX_EP))
 885              		.loc 1 1153 0
 886 0000 431E     		subs	r3, r0, #1
 887 0002 DBB2     		uxtb	r3, r3
 888 0004 072B     		cmp	r3, #7
 889 0006 0AD8     		bhi	.L54
 890              	.LVL60:
1154:.\Generated_Source\PSoC5/USBUART_1.c ****     {
1155:.\Generated_Source\PSoC5/USBUART_1.c ****         ri = ((epNumber - USBUART_1_EP1) << USBUART_1_EPX_CNTX_ADDR_SHIFT);
1156:.\Generated_Source\PSoC5/USBUART_1.c ****         USBUART_1_EP[epNumber].apiEpState = USBUART_1_NO_EVENT_PENDING;
ARM GAS  C:\Users\Luke\AppData\Local\Temp\ccuzhVDD.s 			page 38


 891              		.loc 1 1156 0
 892 0008 054A     		ldr	r2, .L56
 893 000a 0C21     		movs	r1, #12
 894 000c 01FB0020 		mla	r0, r1, r0, r2
 895              	.LVL61:
 896 0010 0021     		movs	r1, #0
 897 0012 4170     		strb	r1, [r0, #1]
1155:.\Generated_Source\PSoC5/USBUART_1.c ****         ri = ((epNumber - USBUART_1_EP1) << USBUART_1_EPX_CNTX_ADDR_SHIFT);
 898              		.loc 1 1155 0
 899 0014 1B01     		lsls	r3, r3, #4
 900              	.LVL62:
1157:.\Generated_Source\PSoC5/USBUART_1.c ****         /* Write the Mode register */
1158:.\Generated_Source\PSoC5/USBUART_1.c ****         CY_SET_REG8((reg8 *)(USBUART_1_SIE_EP1_CR0_IND + ri), USBUART_1_EP[epNumber].epMode);
 901              		.loc 1 1158 0
 902 0016 4079     		ldrb	r0, [r0, #5]	@ zero_extendqisi2
 903 0018 024A     		ldr	r2, .L56+4
 904 001a DBB2     		uxtb	r3, r3
 905 001c 9854     		strb	r0, [r3, r2]
 906              	.L54:
 907 001e 7047     		bx	lr
 908              	.L57:
 909              		.align	2
 910              	.L56:
 911 0020 00000000 		.word	USBUART_1_EP
 912 0024 0E600040 		.word	1073766414
 913              		.cfi_endproc
 914              	.LFE13:
 915              		.size	USBUART_1_EnableOutEP, .-USBUART_1_EnableOutEP
 916              		.section	.text.USBUART_1_ReadOutEP,"ax",%progbits
 917              		.align	1
 918              		.global	USBUART_1_ReadOutEP
 919              		.thumb
 920              		.thumb_func
 921              		.type	USBUART_1_ReadOutEP, %function
 922              	USBUART_1_ReadOutEP:
 923              	.LFB12:
1045:.\Generated_Source\PSoC5/USBUART_1.c **** {
 924              		.loc 1 1045 0
 925              		.cfi_startproc
 926              		@ args = 0, pretend = 0, frame = 0
 927              		@ frame_needed = 0, uses_anonymous_args = 0
 928              	.LVL63:
 929 0000 F8B5     		push	{r3, r4, r5, r6, r7, lr}
 930              	.LCFI4:
 931              		.cfi_def_cfa_offset 24
 932              		.cfi_offset 3, -24
 933              		.cfi_offset 4, -20
 934              		.cfi_offset 5, -16
 935              		.cfi_offset 6, -12
 936              		.cfi_offset 7, -8
 937              		.cfi_offset 14, -4
1055:.\Generated_Source\PSoC5/USBUART_1.c ****     if((epNumber > USBUART_1_EP0) && (epNumber < USBUART_1_MAX_EP) && (pData != NULL))
 938              		.loc 1 1055 0
 939 0002 431E     		subs	r3, r0, #1
1045:.\Generated_Source\PSoC5/USBUART_1.c **** {
 940              		.loc 1 1045 0
 941 0004 0D46     		mov	r5, r1
ARM GAS  C:\Users\Luke\AppData\Local\Temp\ccuzhVDD.s 			page 39


1055:.\Generated_Source\PSoC5/USBUART_1.c ****     if((epNumber > USBUART_1_EP0) && (epNumber < USBUART_1_MAX_EP) && (pData != NULL))
 942              		.loc 1 1055 0
 943 0006 D9B2     		uxtb	r1, r3
 944              	.LVL64:
 945 0008 0729     		cmp	r1, #7
1045:.\Generated_Source\PSoC5/USBUART_1.c **** {
 946              		.loc 1 1045 0
 947 000a 0746     		mov	r7, r0
 948 000c 1446     		mov	r4, r2
1055:.\Generated_Source\PSoC5/USBUART_1.c ****     if((epNumber > USBUART_1_EP0) && (epNumber < USBUART_1_MAX_EP) && (pData != NULL))
 949              		.loc 1 1055 0
 950 000e 16D8     		bhi	.L62
1055:.\Generated_Source\PSoC5/USBUART_1.c ****     if((epNumber > USBUART_1_EP0) && (epNumber < USBUART_1_MAX_EP) && (pData != NULL))
 951              		.loc 1 1055 0 is_stmt 0 discriminator 1
 952 0010 BDB1     		cbz	r5, .L63
 953              	.LVL65:
1057:.\Generated_Source\PSoC5/USBUART_1.c ****         ri = ((epNumber - USBUART_1_EP1) << USBUART_1_EPX_CNTX_ADDR_SHIFT);
 954              		.loc 1 1057 0 is_stmt 1
 955 0012 0A01     		lsls	r2, r1, #4
 956              	.LVL66:
1058:.\Generated_Source\PSoC5/USBUART_1.c ****         p = (reg8 *)(USBUART_1_ARB_RW1_DR_IND + ri);
 957              		.loc 1 1058 0
 958 0014 0C4E     		ldr	r6, .L65
 959 0016 D3B2     		uxtb	r3, r2
 960 0018 9E19     		adds	r6, r3, r6
 961              	.LVL67:
1062:.\Generated_Source\PSoC5/USBUART_1.c ****             xferCount = USBUART_1_GetEPCount(epNumber);
 962              		.loc 1 1062 0
 963 001a FFF7FEFF 		bl	USBUART_1_GetEPCount
 964              	.LVL68:
 965 001e A042     		cmp	r0, r4
 966 0020 28BF     		it	cs
 967 0022 2046     		movcs	r0, r4
 968              	.LVL69:
 969 0024 84B2     		uxth	r4, r0
 970              	.LVL70:
1071:.\Generated_Source\PSoC5/USBUART_1.c ****             for (i = 0u; i < length; i++)
 971              		.loc 1 1071 0
 972 0026 0022     		movs	r2, #0
 973              	.LVL71:
 974              	.L60:
1071:.\Generated_Source\PSoC5/USBUART_1.c ****             for (i = 0u; i < length; i++)
 975              		.loc 1 1071 0 is_stmt 0 discriminator 1
 976 0028 90B2     		uxth	r0, r2
 977 002a A042     		cmp	r0, r4
 978 002c 03D2     		bcs	.L64
 979              	.L61:
1073:.\Generated_Source\PSoC5/USBUART_1.c ****                 pData[i] = CY_GET_REG8(p);
 980              		.loc 1 1073 0 is_stmt 1 discriminator 2
 981 002e 3178     		ldrb	r1, [r6, #0]	@ zero_extendqisi2
 982 0030 A954     		strb	r1, [r5, r2]
 983 0032 0132     		adds	r2, r2, #1
 984 0034 F8E7     		b	.L60
 985              	.L64:
1077:.\Generated_Source\PSoC5/USBUART_1.c ****             USBUART_1_EnableOutEP(epNumber);
 986              		.loc 1 1077 0
 987 0036 3846     		mov	r0, r7
ARM GAS  C:\Users\Luke\AppData\Local\Temp\ccuzhVDD.s 			page 40


 988 0038 FFF7FEFF 		bl	USBUART_1_EnableOutEP
 989              	.LVL72:
 990 003c 02E0     		b	.L59
 991              	.LVL73:
 992              	.L62:
1120:.\Generated_Source\PSoC5/USBUART_1.c ****         length = 0u;
 993              		.loc 1 1120 0
 994 003e 0024     		movs	r4, #0
 995 0040 00E0     		b	.L59
 996              	.L63:
 997 0042 2C46     		mov	r4, r5
 998              	.LVL74:
 999              	.L59:
1124:.\Generated_Source\PSoC5/USBUART_1.c **** }
 1000              		.loc 1 1124 0
 1001 0044 2046     		mov	r0, r4
 1002 0046 F8BD     		pop	{r3, r4, r5, r6, r7, pc}
 1003              	.L66:
 1004              		.align	2
 1005              	.L65:
 1006 0048 88600040 		.word	1073766536
 1007              		.cfi_endproc
 1008              	.LFE12:
 1009              		.size	USBUART_1_ReadOutEP, .-USBUART_1_ReadOutEP
 1010              		.section	.text.USBUART_1_DisableOutEP,"ax",%progbits
 1011              		.align	1
 1012              		.global	USBUART_1_DisableOutEP
 1013              		.thumb
 1014              		.thumb_func
 1015              		.type	USBUART_1_DisableOutEP, %function
 1016              	USBUART_1_DisableOutEP:
 1017              	.LFB14:
1159:.\Generated_Source\PSoC5/USBUART_1.c ****     }
1160:.\Generated_Source\PSoC5/USBUART_1.c **** }
1161:.\Generated_Source\PSoC5/USBUART_1.c **** 
1162:.\Generated_Source\PSoC5/USBUART_1.c **** 
1163:.\Generated_Source\PSoC5/USBUART_1.c **** /*******************************************************************************
1164:.\Generated_Source\PSoC5/USBUART_1.c **** * Function Name: USBUART_1_DisableOutEP
1165:.\Generated_Source\PSoC5/USBUART_1.c **** ********************************************************************************
1166:.\Generated_Source\PSoC5/USBUART_1.c **** *
1167:.\Generated_Source\PSoC5/USBUART_1.c **** * Summary:
1168:.\Generated_Source\PSoC5/USBUART_1.c **** *  This function disables an OUT endpoint.  It should not be
1169:.\Generated_Source\PSoC5/USBUART_1.c **** *  called for an IN endpoint.
1170:.\Generated_Source\PSoC5/USBUART_1.c **** *
1171:.\Generated_Source\PSoC5/USBUART_1.c **** * Parameters:
1172:.\Generated_Source\PSoC5/USBUART_1.c **** *  epNumber: Endpoint Number
1173:.\Generated_Source\PSoC5/USBUART_1.c **** *            Valid values are between 1 and 8.
1174:.\Generated_Source\PSoC5/USBUART_1.c **** *
1175:.\Generated_Source\PSoC5/USBUART_1.c **** * Return:
1176:.\Generated_Source\PSoC5/USBUART_1.c **** *  None.
1177:.\Generated_Source\PSoC5/USBUART_1.c **** *
1178:.\Generated_Source\PSoC5/USBUART_1.c **** *******************************************************************************/
1179:.\Generated_Source\PSoC5/USBUART_1.c **** void USBUART_1_DisableOutEP(uint8 epNumber) 
1180:.\Generated_Source\PSoC5/USBUART_1.c **** {
 1018              		.loc 1 1180 0
 1019              		.cfi_startproc
 1020              		@ args = 0, pretend = 0, frame = 0
ARM GAS  C:\Users\Luke\AppData\Local\Temp\ccuzhVDD.s 			page 41


 1021              		@ frame_needed = 0, uses_anonymous_args = 0
 1022              		@ link register save eliminated.
 1023              	.LVL75:
1181:.\Generated_Source\PSoC5/USBUART_1.c ****     uint8 ri ;
1182:.\Generated_Source\PSoC5/USBUART_1.c **** 
1183:.\Generated_Source\PSoC5/USBUART_1.c ****     if((epNumber > USBUART_1_EP0) && (epNumber < USBUART_1_MAX_EP))
 1024              		.loc 1 1183 0
 1025 0000 0138     		subs	r0, r0, #1
 1026              	.LVL76:
 1027 0002 C1B2     		uxtb	r1, r0
 1028 0004 0729     		cmp	r1, #7
 1029 0006 04D8     		bhi	.L67
 1030              	.LVL77:
1184:.\Generated_Source\PSoC5/USBUART_1.c ****     {
1185:.\Generated_Source\PSoC5/USBUART_1.c ****         ri = ((epNumber - USBUART_1_EP1) << USBUART_1_EPX_CNTX_ADDR_SHIFT);
 1031              		.loc 1 1185 0
 1032 0008 0A01     		lsls	r2, r1, #4
1186:.\Generated_Source\PSoC5/USBUART_1.c ****         /* Write the Mode register */
1187:.\Generated_Source\PSoC5/USBUART_1.c ****         CY_SET_REG8((reg8 *)(USBUART_1_SIE_EP1_CR0_IND + ri), USBUART_1_MODE_NAK_OUT);
 1033              		.loc 1 1187 0
 1034 000a 024B     		ldr	r3, .L69
 1035 000c D0B2     		uxtb	r0, r2
 1036 000e 0821     		movs	r1, #8
 1037              	.LVL78:
 1038 0010 C154     		strb	r1, [r0, r3]
 1039              	.L67:
 1040 0012 7047     		bx	lr
 1041              	.L70:
 1042              		.align	2
 1043              	.L69:
 1044 0014 0E600040 		.word	1073766414
 1045              		.cfi_endproc
 1046              	.LFE14:
 1047              		.size	USBUART_1_DisableOutEP, .-USBUART_1_DisableOutEP
 1048              		.section	.text.USBUART_1_Force,"ax",%progbits
 1049              		.align	1
 1050              		.global	USBUART_1_Force
 1051              		.thumb
 1052              		.thumb_func
 1053              		.type	USBUART_1_Force, %function
 1054              	USBUART_1_Force:
 1055              	.LFB15:
1188:.\Generated_Source\PSoC5/USBUART_1.c ****     }
1189:.\Generated_Source\PSoC5/USBUART_1.c **** }
1190:.\Generated_Source\PSoC5/USBUART_1.c **** 
1191:.\Generated_Source\PSoC5/USBUART_1.c **** 
1192:.\Generated_Source\PSoC5/USBUART_1.c **** /*******************************************************************************
1193:.\Generated_Source\PSoC5/USBUART_1.c **** * Function Name: USBUART_1_Force
1194:.\Generated_Source\PSoC5/USBUART_1.c **** ********************************************************************************
1195:.\Generated_Source\PSoC5/USBUART_1.c **** *
1196:.\Generated_Source\PSoC5/USBUART_1.c **** * Summary:
1197:.\Generated_Source\PSoC5/USBUART_1.c **** *  Forces the bus state
1198:.\Generated_Source\PSoC5/USBUART_1.c **** *
1199:.\Generated_Source\PSoC5/USBUART_1.c **** * Parameters:
1200:.\Generated_Source\PSoC5/USBUART_1.c **** *  bState
1201:.\Generated_Source\PSoC5/USBUART_1.c **** *    USBUART_1_FORCE_J
1202:.\Generated_Source\PSoC5/USBUART_1.c **** *    USBUART_1_FORCE_K
ARM GAS  C:\Users\Luke\AppData\Local\Temp\ccuzhVDD.s 			page 42


1203:.\Generated_Source\PSoC5/USBUART_1.c **** *    USBUART_1_FORCE_SE0
1204:.\Generated_Source\PSoC5/USBUART_1.c **** *    USBUART_1_FORCE_NONE
1205:.\Generated_Source\PSoC5/USBUART_1.c **** *
1206:.\Generated_Source\PSoC5/USBUART_1.c **** * Return:
1207:.\Generated_Source\PSoC5/USBUART_1.c **** *  None.
1208:.\Generated_Source\PSoC5/USBUART_1.c **** *
1209:.\Generated_Source\PSoC5/USBUART_1.c **** *******************************************************************************/
1210:.\Generated_Source\PSoC5/USBUART_1.c **** void USBUART_1_Force(uint8 bState) 
1211:.\Generated_Source\PSoC5/USBUART_1.c **** {
 1056              		.loc 1 1211 0
 1057              		.cfi_startproc
 1058              		@ args = 0, pretend = 0, frame = 0
 1059              		@ frame_needed = 0, uses_anonymous_args = 0
 1060              		@ link register save eliminated.
 1061              	.LVL79:
1212:.\Generated_Source\PSoC5/USBUART_1.c ****     CY_SET_REG8(USBUART_1_USBIO_CR0_PTR, bState);
 1062              		.loc 1 1212 0
 1063 0000 014B     		ldr	r3, .L72
 1064 0002 1870     		strb	r0, [r3, #0]
 1065 0004 7047     		bx	lr
 1066              	.L73:
 1067 0006 00BF     		.align	2
 1068              	.L72:
 1069 0008 10600040 		.word	1073766416
 1070              		.cfi_endproc
 1071              	.LFE15:
 1072              		.size	USBUART_1_Force, .-USBUART_1_Force
 1073              		.section	.text.USBUART_1_GetEPAckState,"ax",%progbits
 1074              		.align	1
 1075              		.global	USBUART_1_GetEPAckState
 1076              		.thumb
 1077              		.thumb_func
 1078              		.type	USBUART_1_GetEPAckState, %function
 1079              	USBUART_1_GetEPAckState:
 1080              	.LFB16:
1213:.\Generated_Source\PSoC5/USBUART_1.c **** }
1214:.\Generated_Source\PSoC5/USBUART_1.c **** 
1215:.\Generated_Source\PSoC5/USBUART_1.c **** 
1216:.\Generated_Source\PSoC5/USBUART_1.c **** /*******************************************************************************
1217:.\Generated_Source\PSoC5/USBUART_1.c **** * Function Name: USBUART_1_GetEPAckState
1218:.\Generated_Source\PSoC5/USBUART_1.c **** ********************************************************************************
1219:.\Generated_Source\PSoC5/USBUART_1.c **** *
1220:.\Generated_Source\PSoC5/USBUART_1.c **** * Summary:
1221:.\Generated_Source\PSoC5/USBUART_1.c **** *  Returns the ACK of the CR0 Register (ACKD)
1222:.\Generated_Source\PSoC5/USBUART_1.c **** *
1223:.\Generated_Source\PSoC5/USBUART_1.c **** * Parameters:
1224:.\Generated_Source\PSoC5/USBUART_1.c **** *  epNumber: Endpoint Number
1225:.\Generated_Source\PSoC5/USBUART_1.c **** *            Valid values are between 1 and 8.
1226:.\Generated_Source\PSoC5/USBUART_1.c **** *
1227:.\Generated_Source\PSoC5/USBUART_1.c **** * Returns
1228:.\Generated_Source\PSoC5/USBUART_1.c **** *  0 if nothing has been ACKD, non-=zero something has been ACKD
1229:.\Generated_Source\PSoC5/USBUART_1.c **** *
1230:.\Generated_Source\PSoC5/USBUART_1.c **** *******************************************************************************/
1231:.\Generated_Source\PSoC5/USBUART_1.c **** uint8 USBUART_1_GetEPAckState(uint8 epNumber) 
1232:.\Generated_Source\PSoC5/USBUART_1.c **** {
 1081              		.loc 1 1232 0
 1082              		.cfi_startproc
ARM GAS  C:\Users\Luke\AppData\Local\Temp\ccuzhVDD.s 			page 43


 1083              		@ args = 0, pretend = 0, frame = 0
 1084              		@ frame_needed = 0, uses_anonymous_args = 0
 1085              		@ link register save eliminated.
 1086              	.LVL80:
1233:.\Generated_Source\PSoC5/USBUART_1.c ****     uint8 ri;
1234:.\Generated_Source\PSoC5/USBUART_1.c ****     uint8 cr = 0u;
1235:.\Generated_Source\PSoC5/USBUART_1.c **** 
1236:.\Generated_Source\PSoC5/USBUART_1.c ****     if((epNumber > USBUART_1_EP0) && (epNumber < USBUART_1_MAX_EP))
 1087              		.loc 1 1236 0
 1088 0000 0138     		subs	r0, r0, #1
 1089              	.LVL81:
 1090 0002 C1B2     		uxtb	r1, r0
 1091 0004 0729     		cmp	r1, #7
 1092 0006 07D8     		bhi	.L76
 1093              	.LVL82:
1237:.\Generated_Source\PSoC5/USBUART_1.c ****     {
1238:.\Generated_Source\PSoC5/USBUART_1.c ****         ri = ((epNumber - USBUART_1_EP1) << USBUART_1_EPX_CNTX_ADDR_SHIFT);
 1094              		.loc 1 1238 0
 1095 0008 0A01     		lsls	r2, r1, #4
1239:.\Generated_Source\PSoC5/USBUART_1.c ****         cr = CY_GET_REG8((reg8 *)(USBUART_1_SIE_EP1_CR0_IND + ri)) & USBUART_1_MODE_ACKD;
 1096              		.loc 1 1239 0
 1097 000a 044B     		ldr	r3, .L77
 1098 000c D0B2     		uxtb	r0, r2
 1099 000e C15C     		ldrb	r1, [r0, r3]	@ zero_extendqisi2
 1100              	.LVL83:
 1101 0010 01F01002 		and	r2, r1, #16
 1102 0014 D0B2     		uxtb	r0, r2
 1103              	.LVL84:
 1104 0016 7047     		bx	lr
 1105              	.LVL85:
 1106              	.L76:
1234:.\Generated_Source\PSoC5/USBUART_1.c ****     uint8 cr = 0u;
 1107              		.loc 1 1234 0
 1108 0018 0020     		movs	r0, #0
 1109              	.LVL86:
1240:.\Generated_Source\PSoC5/USBUART_1.c ****     }
1241:.\Generated_Source\PSoC5/USBUART_1.c **** 
1242:.\Generated_Source\PSoC5/USBUART_1.c ****     return(cr);
1243:.\Generated_Source\PSoC5/USBUART_1.c **** }
 1110              		.loc 1 1243 0
 1111 001a 7047     		bx	lr
 1112              	.L78:
 1113              		.align	2
 1114              	.L77:
 1115 001c 0E600040 		.word	1073766414
 1116              		.cfi_endproc
 1117              	.LFE16:
 1118              		.size	USBUART_1_GetEPAckState, .-USBUART_1_GetEPAckState
 1119              		.section	.text.USBUART_1_SetPowerStatus,"ax",%progbits
 1120              		.align	1
 1121              		.global	USBUART_1_SetPowerStatus
 1122              		.thumb
 1123              		.thumb_func
 1124              		.type	USBUART_1_SetPowerStatus, %function
 1125              	USBUART_1_SetPowerStatus:
 1126              	.LFB17:
1244:.\Generated_Source\PSoC5/USBUART_1.c **** 
ARM GAS  C:\Users\Luke\AppData\Local\Temp\ccuzhVDD.s 			page 44


1245:.\Generated_Source\PSoC5/USBUART_1.c **** 
1246:.\Generated_Source\PSoC5/USBUART_1.c **** /*******************************************************************************
1247:.\Generated_Source\PSoC5/USBUART_1.c **** * Function Name: USBUART_1_SetPowerStatus
1248:.\Generated_Source\PSoC5/USBUART_1.c **** ********************************************************************************
1249:.\Generated_Source\PSoC5/USBUART_1.c **** *
1250:.\Generated_Source\PSoC5/USBUART_1.c **** * Summary:
1251:.\Generated_Source\PSoC5/USBUART_1.c **** *  Sets the device power status for reporting in the Get Device Status
1252:.\Generated_Source\PSoC5/USBUART_1.c **** *  request
1253:.\Generated_Source\PSoC5/USBUART_1.c **** *
1254:.\Generated_Source\PSoC5/USBUART_1.c **** * Parameters:
1255:.\Generated_Source\PSoC5/USBUART_1.c **** *  powerStatus: USBUART_1_DEVICE_STATUS_BUS_POWERED(0) - Bus Powered,
1256:.\Generated_Source\PSoC5/USBUART_1.c **** *               USBUART_1_DEVICE_STATUS_SELF_POWERED(1) - Self Powered
1257:.\Generated_Source\PSoC5/USBUART_1.c **** *
1258:.\Generated_Source\PSoC5/USBUART_1.c **** * Return:
1259:.\Generated_Source\PSoC5/USBUART_1.c **** *   None.
1260:.\Generated_Source\PSoC5/USBUART_1.c **** *
1261:.\Generated_Source\PSoC5/USBUART_1.c **** * Global variables:
1262:.\Generated_Source\PSoC5/USBUART_1.c **** *  USBUART_1_deviceStatus - set power status
1263:.\Generated_Source\PSoC5/USBUART_1.c **** *
1264:.\Generated_Source\PSoC5/USBUART_1.c **** * Reentrant:
1265:.\Generated_Source\PSoC5/USBUART_1.c **** *  No.
1266:.\Generated_Source\PSoC5/USBUART_1.c **** *
1267:.\Generated_Source\PSoC5/USBUART_1.c **** *******************************************************************************/
1268:.\Generated_Source\PSoC5/USBUART_1.c **** void USBUART_1_SetPowerStatus(uint8 powerStatus) 
1269:.\Generated_Source\PSoC5/USBUART_1.c **** {
 1127              		.loc 1 1269 0
 1128              		.cfi_startproc
 1129              		@ args = 0, pretend = 0, frame = 0
 1130              		@ frame_needed = 0, uses_anonymous_args = 0
 1131              		@ link register save eliminated.
 1132              	.LVL87:
 1133 0000 044B     		ldr	r3, .L83
1270:.\Generated_Source\PSoC5/USBUART_1.c ****     if (powerStatus != USBUART_1_DEVICE_STATUS_BUS_POWERED)
1271:.\Generated_Source\PSoC5/USBUART_1.c ****     {
1272:.\Generated_Source\PSoC5/USBUART_1.c ****         USBUART_1_deviceStatus |=  USBUART_1_DEVICE_STATUS_SELF_POWERED;
 1134              		.loc 1 1272 0
 1135 0002 1A78     		ldrb	r2, [r3, #0]	@ zero_extendqisi2
1270:.\Generated_Source\PSoC5/USBUART_1.c ****     if (powerStatus != USBUART_1_DEVICE_STATUS_BUS_POWERED)
 1136              		.loc 1 1270 0
 1137 0004 10B1     		cbz	r0, .L80
 1138              		.loc 1 1272 0
 1139 0006 42F00100 		orr	r0, r2, #1
 1140              	.LVL88:
 1141 000a 01E0     		b	.L82
 1142              	.LVL89:
 1143              	.L80:
1273:.\Generated_Source\PSoC5/USBUART_1.c ****     }
1274:.\Generated_Source\PSoC5/USBUART_1.c ****     else
1275:.\Generated_Source\PSoC5/USBUART_1.c ****     {
1276:.\Generated_Source\PSoC5/USBUART_1.c ****         USBUART_1_deviceStatus &=  ((uint8)(~USBUART_1_DEVICE_STATUS_SELF_POWERED));
 1144              		.loc 1 1276 0
 1145 000c 02F0FE00 		and	r0, r2, #254
 1146              	.LVL90:
 1147              	.L82:
 1148 0010 1870     		strb	r0, [r3, #0]
 1149 0012 7047     		bx	lr
 1150              	.L84:
ARM GAS  C:\Users\Luke\AppData\Local\Temp\ccuzhVDD.s 			page 45


 1151              		.align	2
 1152              	.L83:
 1153 0014 00000000 		.word	USBUART_1_deviceStatus
 1154              		.cfi_endproc
 1155              	.LFE17:
 1156              		.size	USBUART_1_SetPowerStatus, .-USBUART_1_SetPowerStatus
 1157              		.section	.text.USBUART_1_VBusPresent,"ax",%progbits
 1158              		.align	1
 1159              		.global	USBUART_1_VBusPresent
 1160              		.thumb
 1161              		.thumb_func
 1162              		.type	USBUART_1_VBusPresent, %function
 1163              	USBUART_1_VBusPresent:
 1164              	.LFB18:
1277:.\Generated_Source\PSoC5/USBUART_1.c ****     }
1278:.\Generated_Source\PSoC5/USBUART_1.c **** }
1279:.\Generated_Source\PSoC5/USBUART_1.c **** 
1280:.\Generated_Source\PSoC5/USBUART_1.c **** 
1281:.\Generated_Source\PSoC5/USBUART_1.c **** #if (USBUART_1_MON_VBUS == 1u)
1282:.\Generated_Source\PSoC5/USBUART_1.c **** 
1283:.\Generated_Source\PSoC5/USBUART_1.c ****     /*******************************************************************************
1284:.\Generated_Source\PSoC5/USBUART_1.c ****     * Function Name: USBUART_1_VBusPresent
1285:.\Generated_Source\PSoC5/USBUART_1.c ****     ********************************************************************************
1286:.\Generated_Source\PSoC5/USBUART_1.c ****     *
1287:.\Generated_Source\PSoC5/USBUART_1.c ****     * Summary:
1288:.\Generated_Source\PSoC5/USBUART_1.c ****     *  Determines VBUS presence for Self Powered Devices.
1289:.\Generated_Source\PSoC5/USBUART_1.c ****     *
1290:.\Generated_Source\PSoC5/USBUART_1.c ****     * Parameters:
1291:.\Generated_Source\PSoC5/USBUART_1.c ****     *  None.
1292:.\Generated_Source\PSoC5/USBUART_1.c ****     *
1293:.\Generated_Source\PSoC5/USBUART_1.c ****     * Return:
1294:.\Generated_Source\PSoC5/USBUART_1.c ****     *  1 if VBUS is present, otherwise 0.
1295:.\Generated_Source\PSoC5/USBUART_1.c ****     *
1296:.\Generated_Source\PSoC5/USBUART_1.c ****     *******************************************************************************/
1297:.\Generated_Source\PSoC5/USBUART_1.c ****     uint8 USBUART_1_VBusPresent(void) 
1298:.\Generated_Source\PSoC5/USBUART_1.c ****     {
 1165              		.loc 1 1298 0
 1166              		.cfi_startproc
 1167              		@ args = 0, pretend = 0, frame = 0
 1168              		@ frame_needed = 0, uses_anonymous_args = 0
 1169              		@ link register save eliminated.
1299:.\Generated_Source\PSoC5/USBUART_1.c ****         return((0u != (CY_GET_REG8(USBUART_1_VBUS_PS_PTR) & USBUART_1_VBUS_MASK)) ? 1u : 0u);
 1170              		.loc 1 1299 0
 1171 0000 024B     		ldr	r3, .L86
 1172 0002 1878     		ldrb	r0, [r3, #0]	@ zero_extendqisi2
1300:.\Generated_Source\PSoC5/USBUART_1.c ****     }
 1173              		.loc 1 1300 0
 1174 0004 00F00100 		and	r0, r0, #1
 1175 0008 7047     		bx	lr
 1176              	.L87:
 1177 000a 00BF     		.align	2
 1178              	.L86:
 1179 000c 65640040 		.word	1073767525
 1180              		.cfi_endproc
 1181              	.LFE18:
 1182              		.size	USBUART_1_VBusPresent, .-USBUART_1_VBusPresent
 1183              		.section	.text.USBUART_1_RWUEnabled,"ax",%progbits
ARM GAS  C:\Users\Luke\AppData\Local\Temp\ccuzhVDD.s 			page 46


 1184              		.align	1
 1185              		.global	USBUART_1_RWUEnabled
 1186              		.thumb
 1187              		.thumb_func
 1188              		.type	USBUART_1_RWUEnabled, %function
 1189              	USBUART_1_RWUEnabled:
 1190              	.LFB19:
1301:.\Generated_Source\PSoC5/USBUART_1.c **** 
1302:.\Generated_Source\PSoC5/USBUART_1.c **** #endif /* USBUART_1_MON_VBUS */
1303:.\Generated_Source\PSoC5/USBUART_1.c **** 
1304:.\Generated_Source\PSoC5/USBUART_1.c **** 
1305:.\Generated_Source\PSoC5/USBUART_1.c **** /*******************************************************************************
1306:.\Generated_Source\PSoC5/USBUART_1.c **** * Function Name: USBUART_1_RWUEnabled
1307:.\Generated_Source\PSoC5/USBUART_1.c **** ********************************************************************************
1308:.\Generated_Source\PSoC5/USBUART_1.c **** *
1309:.\Generated_Source\PSoC5/USBUART_1.c **** * Summary:
1310:.\Generated_Source\PSoC5/USBUART_1.c **** *  Returns TRUE if Remote Wake Up is enabled, otherwise FALSE
1311:.\Generated_Source\PSoC5/USBUART_1.c **** *
1312:.\Generated_Source\PSoC5/USBUART_1.c **** * Parameters:
1313:.\Generated_Source\PSoC5/USBUART_1.c **** *   None.
1314:.\Generated_Source\PSoC5/USBUART_1.c **** *
1315:.\Generated_Source\PSoC5/USBUART_1.c **** * Return:
1316:.\Generated_Source\PSoC5/USBUART_1.c **** *  TRUE -  Remote Wake Up Enabled
1317:.\Generated_Source\PSoC5/USBUART_1.c **** *  FALSE - Remote Wake Up Disabled
1318:.\Generated_Source\PSoC5/USBUART_1.c **** *
1319:.\Generated_Source\PSoC5/USBUART_1.c **** * Global variables:
1320:.\Generated_Source\PSoC5/USBUART_1.c **** *  USBUART_1_deviceStatus - checked to determine remote status
1321:.\Generated_Source\PSoC5/USBUART_1.c **** *
1322:.\Generated_Source\PSoC5/USBUART_1.c **** *******************************************************************************/
1323:.\Generated_Source\PSoC5/USBUART_1.c **** uint8 USBUART_1_RWUEnabled(void) 
1324:.\Generated_Source\PSoC5/USBUART_1.c **** {
 1191              		.loc 1 1324 0
 1192              		.cfi_startproc
 1193              		@ args = 0, pretend = 0, frame = 0
 1194              		@ frame_needed = 0, uses_anonymous_args = 0
 1195              		@ link register save eliminated.
 1196              	.LVL91:
1325:.\Generated_Source\PSoC5/USBUART_1.c ****     uint8 result = USBUART_1_FALSE;
1326:.\Generated_Source\PSoC5/USBUART_1.c ****     if((USBUART_1_deviceStatus & USBUART_1_DEVICE_STATUS_REMOTE_WAKEUP) != 0u)
 1197              		.loc 1 1326 0
 1198 0000 024B     		ldr	r3, .L89
 1199 0002 1878     		ldrb	r0, [r3, #0]	@ zero_extendqisi2
 1200              	.LVL92:
1327:.\Generated_Source\PSoC5/USBUART_1.c ****     {
1328:.\Generated_Source\PSoC5/USBUART_1.c ****         result = USBUART_1_TRUE;
1329:.\Generated_Source\PSoC5/USBUART_1.c ****     }
1330:.\Generated_Source\PSoC5/USBUART_1.c **** 
1331:.\Generated_Source\PSoC5/USBUART_1.c ****     return(result);
1332:.\Generated_Source\PSoC5/USBUART_1.c **** }
 1201              		.loc 1 1332 0
 1202 0004 C0F34000 		ubfx	r0, r0, #1, #1
 1203              	.LVL93:
 1204 0008 7047     		bx	lr
 1205              	.L90:
 1206 000a 00BF     		.align	2
 1207              	.L89:
 1208 000c 00000000 		.word	USBUART_1_deviceStatus
ARM GAS  C:\Users\Luke\AppData\Local\Temp\ccuzhVDD.s 			page 47


 1209              		.cfi_endproc
 1210              	.LFE19:
 1211              		.size	USBUART_1_RWUEnabled, .-USBUART_1_RWUEnabled
 1212              		.global	USBUART_1_initVar
 1213              		.bss
 1214              		.set	.LANCHOR0,. + 0
 1215              		.type	USBUART_1_initVar, %object
 1216              		.size	USBUART_1_initVar, 1
 1217              	USBUART_1_initVar:
 1218 0000 00       		.space	1
 1219              		.text
 1220              	.Letext0:
 1221              		.file 2 "./Generated_Source/PSoC5/cytypes.h"
 1222              		.file 3 ".\\Generated_Source\\PSoC5\\USBUART_1.h"
 1223              		.file 4 ".\\Generated_Source\\PSoC5\\USBUART_1_pvt.h"
 1224              		.file 5 "./Generated_Source/PSoC5/CyLib.h"
 1225              		.section	.debug_info,"",%progbits
 1226              	.Ldebug_info0:
 1227 0000 CC080000 		.4byte	0x8cc
 1228 0004 0200     		.2byte	0x2
 1229 0006 00000000 		.4byte	.Ldebug_abbrev0
 1230 000a 04       		.byte	0x4
 1231 000b 01       		.uleb128 0x1
 1232 000c A2030000 		.4byte	.LASF74
 1233 0010 01       		.byte	0x1
 1234 0011 B6020000 		.4byte	.LASF75
 1235 0015 33000000 		.4byte	.LASF76
 1236 0019 00000000 		.4byte	.Ldebug_ranges0+0
 1237 001d 00000000 		.4byte	0
 1238 0021 00000000 		.4byte	0
 1239 0025 00000000 		.4byte	.Ldebug_line0
 1240 0029 02       		.uleb128 0x2
 1241 002a 01       		.byte	0x1
 1242 002b 06       		.byte	0x6
 1243 002c 0C010000 		.4byte	.LASF0
 1244 0030 02       		.uleb128 0x2
 1245 0031 01       		.byte	0x1
 1246 0032 08       		.byte	0x8
 1247 0033 F0030000 		.4byte	.LASF1
 1248 0037 02       		.uleb128 0x2
 1249 0038 02       		.byte	0x2
 1250 0039 05       		.byte	0x5
 1251 003a 0D040000 		.4byte	.LASF2
 1252 003e 02       		.uleb128 0x2
 1253 003f 02       		.byte	0x2
 1254 0040 07       		.byte	0x7
 1255 0041 3C020000 		.4byte	.LASF3
 1256 0045 02       		.uleb128 0x2
 1257 0046 04       		.byte	0x4
 1258 0047 05       		.byte	0x5
 1259 0048 2E010000 		.4byte	.LASF4
 1260 004c 02       		.uleb128 0x2
 1261 004d 04       		.byte	0x4
 1262 004e 07       		.byte	0x7
 1263 004f FF010000 		.4byte	.LASF5
 1264 0053 02       		.uleb128 0x2
 1265 0054 08       		.byte	0x8
ARM GAS  C:\Users\Luke\AppData\Local\Temp\ccuzhVDD.s 			page 48


 1266 0055 05       		.byte	0x5
 1267 0056 FE000000 		.4byte	.LASF6
 1268 005a 02       		.uleb128 0x2
 1269 005b 08       		.byte	0x8
 1270 005c 07       		.byte	0x7
 1271 005d C2000000 		.4byte	.LASF7
 1272 0061 03       		.uleb128 0x3
 1273 0062 04       		.byte	0x4
 1274 0063 05       		.byte	0x5
 1275 0064 696E7400 		.ascii	"int\000"
 1276 0068 02       		.uleb128 0x2
 1277 0069 04       		.byte	0x4
 1278 006a 07       		.byte	0x7
 1279 006b F2010000 		.4byte	.LASF8
 1280 006f 04       		.uleb128 0x4
 1281 0070 37010000 		.4byte	.LASF9
 1282 0074 02       		.byte	0x2
 1283 0075 5B       		.byte	0x5b
 1284 0076 30000000 		.4byte	0x30
 1285 007a 04       		.uleb128 0x4
 1286 007b 00000000 		.4byte	.LASF10
 1287 007f 02       		.byte	0x2
 1288 0080 5C       		.byte	0x5c
 1289 0081 3E000000 		.4byte	0x3e
 1290 0085 04       		.uleb128 0x4
 1291 0086 82010000 		.4byte	.LASF11
 1292 008a 02       		.byte	0x2
 1293 008b 5D       		.byte	0x5d
 1294 008c 4C000000 		.4byte	0x4c
 1295 0090 02       		.uleb128 0x2
 1296 0091 04       		.byte	0x4
 1297 0092 04       		.byte	0x4
 1298 0093 48030000 		.4byte	.LASF12
 1299 0097 02       		.uleb128 0x2
 1300 0098 08       		.byte	0x8
 1301 0099 04       		.byte	0x4
 1302 009a 50010000 		.4byte	.LASF13
 1303 009e 02       		.uleb128 0x2
 1304 009f 01       		.byte	0x1
 1305 00a0 08       		.byte	0x8
 1306 00a1 3D040000 		.4byte	.LASF14
 1307 00a5 04       		.uleb128 0x4
 1308 00a6 EB030000 		.4byte	.LASF15
 1309 00aa 02       		.byte	0x2
 1310 00ab F0       		.byte	0xf0
 1311 00ac B0000000 		.4byte	0xb0
 1312 00b0 05       		.uleb128 0x5
 1313 00b1 6F000000 		.4byte	0x6f
 1314 00b5 04       		.uleb128 0x4
 1315 00b6 E5020000 		.4byte	.LASF16
 1316 00ba 02       		.byte	0x2
 1317 00bb F2       		.byte	0xf2
 1318 00bc C0000000 		.4byte	0xc0
 1319 00c0 05       		.uleb128 0x5
 1320 00c1 85000000 		.4byte	0x85
 1321 00c5 06       		.uleb128 0x6
 1322 00c6 47040000 		.4byte	.LASF17
ARM GAS  C:\Users\Luke\AppData\Local\Temp\ccuzhVDD.s 			page 49


 1323 00ca 02       		.byte	0x2
 1324 00cb 0201     		.2byte	0x102
 1325 00cd D1000000 		.4byte	0xd1
 1326 00d1 07       		.uleb128 0x7
 1327 00d2 04       		.byte	0x4
 1328 00d3 D7000000 		.4byte	0xd7
 1329 00d7 08       		.uleb128 0x8
 1330 00d8 01       		.byte	0x1
 1331 00d9 02       		.uleb128 0x2
 1332 00da 04       		.byte	0x4
 1333 00db 07       		.byte	0x7
 1334 00dc F5020000 		.4byte	.LASF18
 1335 00e0 09       		.uleb128 0x9
 1336 00e1 0C       		.byte	0xc
 1337 00e2 03       		.byte	0x3
 1338 00e3 74       		.byte	0x74
 1339 00e4 67010000 		.4byte	0x167
 1340 00e8 0A       		.uleb128 0xa
 1341 00e9 FE020000 		.4byte	.LASF19
 1342 00ed 03       		.byte	0x3
 1343 00ee 76       		.byte	0x76
 1344 00ef 6F000000 		.4byte	0x6f
 1345 00f3 02       		.byte	0x2
 1346 00f4 23       		.byte	0x23
 1347 00f5 00       		.uleb128 0
 1348 00f6 0A       		.uleb128 0xa
 1349 00f7 64030000 		.4byte	.LASF20
 1350 00fb 03       		.byte	0x3
 1351 00fc 77       		.byte	0x77
 1352 00fd 6F000000 		.4byte	0x6f
 1353 0101 02       		.byte	0x2
 1354 0102 23       		.byte	0x23
 1355 0103 01       		.uleb128 0x1
 1356 0104 0A       		.uleb128 0xa
 1357 0105 EB020000 		.4byte	.LASF21
 1358 0109 03       		.byte	0x3
 1359 010a 78       		.byte	0x78
 1360 010b 6F000000 		.4byte	0x6f
 1361 010f 02       		.byte	0x2
 1362 0110 23       		.byte	0x23
 1363 0111 02       		.uleb128 0x2
 1364 0112 0A       		.uleb128 0xa
 1365 0113 3D010000 		.4byte	.LASF22
 1366 0117 03       		.byte	0x3
 1367 0118 79       		.byte	0x79
 1368 0119 6F000000 		.4byte	0x6f
 1369 011d 02       		.byte	0x2
 1370 011e 23       		.byte	0x23
 1371 011f 03       		.uleb128 0x3
 1372 0120 0A       		.uleb128 0xa
 1373 0121 D9000000 		.4byte	.LASF23
 1374 0125 03       		.byte	0x3
 1375 0126 7A       		.byte	0x7a
 1376 0127 6F000000 		.4byte	0x6f
 1377 012b 02       		.byte	0x2
 1378 012c 23       		.byte	0x23
 1379 012d 04       		.uleb128 0x4
ARM GAS  C:\Users\Luke\AppData\Local\Temp\ccuzhVDD.s 			page 50


 1380 012e 0A       		.uleb128 0xa
 1381 012f A6010000 		.4byte	.LASF24
 1382 0133 03       		.byte	0x3
 1383 0134 7B       		.byte	0x7b
 1384 0135 6F000000 		.4byte	0x6f
 1385 0139 02       		.byte	0x2
 1386 013a 23       		.byte	0x23
 1387 013b 05       		.uleb128 0x5
 1388 013c 0A       		.uleb128 0xa
 1389 013d 77040000 		.4byte	.LASF25
 1390 0141 03       		.byte	0x3
 1391 0142 7C       		.byte	0x7c
 1392 0143 7A000000 		.4byte	0x7a
 1393 0147 02       		.byte	0x2
 1394 0148 23       		.byte	0x23
 1395 0149 06       		.uleb128 0x6
 1396 014a 0A       		.uleb128 0xa
 1397 014b 6C040000 		.4byte	.LASF26
 1398 014f 03       		.byte	0x3
 1399 0150 7D       		.byte	0x7d
 1400 0151 7A000000 		.4byte	0x7a
 1401 0155 02       		.byte	0x2
 1402 0156 23       		.byte	0x23
 1403 0157 08       		.uleb128 0x8
 1404 0158 0A       		.uleb128 0xa
 1405 0159 DB020000 		.4byte	.LASF27
 1406 015d 03       		.byte	0x3
 1407 015e 7E       		.byte	0x7e
 1408 015f 6F000000 		.4byte	0x6f
 1409 0163 02       		.byte	0x2
 1410 0164 23       		.byte	0x23
 1411 0165 0A       		.uleb128 0xa
 1412 0166 00       		.byte	0
 1413 0167 04       		.uleb128 0x4
 1414 0168 C2010000 		.4byte	.LASF28
 1415 016c 03       		.byte	0x3
 1416 016d 7F       		.byte	0x7f
 1417 016e E0000000 		.4byte	0xe0
 1418 0172 0B       		.uleb128 0xb
 1419 0173 01       		.byte	0x1
 1420 0174 7F000000 		.4byte	.LASF29
 1421 0178 01       		.byte	0x1
 1422 0179 87       		.byte	0x87
 1423 017a 01       		.byte	0x1
 1424 017b 00000000 		.4byte	.LFB1
 1425 017f 28010000 		.4byte	.LFE1
 1426 0183 00000000 		.4byte	.LLST0
 1427 0187 01       		.byte	0x1
 1428 0188 07030000 		.4byte	0x307
 1429 018c 0C       		.uleb128 0xc
 1430 018d AD040000 		.4byte	.LASF36
 1431 0191 01       		.byte	0x1
 1432 0192 89       		.byte	0x89
 1433 0193 6F000000 		.4byte	0x6f
 1434 0197 20000000 		.4byte	.LLST1
 1435 019b 0D       		.uleb128 0xd
 1436 019c 06000000 		.4byte	.LVL0
ARM GAS  C:\Users\Luke\AppData\Local\Temp\ccuzhVDD.s 			page 51


 1437 01a0 53080000 		.4byte	0x853
 1438 01a4 0E       		.uleb128 0xe
 1439 01a5 3A000000 		.4byte	.LVL3
 1440 01a9 61080000 		.4byte	0x861
 1441 01ad B7010000 		.4byte	0x1b7
 1442 01b1 0F       		.uleb128 0xf
 1443 01b2 01       		.byte	0x1
 1444 01b3 50       		.byte	0x50
 1445 01b4 01       		.byte	0x1
 1446 01b5 30       		.byte	0x30
 1447 01b6 00       		.byte	0
 1448 01b7 0E       		.uleb128 0xe
 1449 01b8 58000000 		.4byte	.LVL4
 1450 01bc 61080000 		.4byte	0x861
 1451 01c0 CB010000 		.4byte	0x1cb
 1452 01c4 0F       		.uleb128 0xf
 1453 01c5 01       		.byte	0x1
 1454 01c6 50       		.byte	0x50
 1455 01c7 02       		.byte	0x2
 1456 01c8 76       		.byte	0x76
 1457 01c9 00       		.sleb128 0
 1458 01ca 00       		.byte	0
 1459 01cb 0E       		.uleb128 0xe
 1460 01cc 5E000000 		.4byte	.LVL5
 1461 01d0 61080000 		.4byte	0x861
 1462 01d4 DF010000 		.4byte	0x1df
 1463 01d8 0F       		.uleb128 0xf
 1464 01d9 01       		.byte	0x1
 1465 01da 50       		.byte	0x50
 1466 01db 02       		.byte	0x2
 1467 01dc 08       		.byte	0x8
 1468 01dd 28       		.byte	0x28
 1469 01de 00       		.byte	0
 1470 01df 0E       		.uleb128 0xe
 1471 01e0 7C000000 		.4byte	.LVL6
 1472 01e4 61080000 		.4byte	0x861
 1473 01e8 F3010000 		.4byte	0x1f3
 1474 01ec 0F       		.uleb128 0xf
 1475 01ed 01       		.byte	0x1
 1476 01ee 50       		.byte	0x50
 1477 01ef 02       		.byte	0x2
 1478 01f0 75       		.byte	0x75
 1479 01f1 00       		.sleb128 0
 1480 01f2 00       		.byte	0
 1481 01f3 0E       		.uleb128 0xe
 1482 01f4 92000000 		.4byte	.LVL7
 1483 01f8 75080000 		.4byte	0x875
 1484 01fc 07020000 		.4byte	0x207
 1485 0200 0F       		.uleb128 0xf
 1486 0201 01       		.byte	0x1
 1487 0202 50       		.byte	0x50
 1488 0203 02       		.byte	0x2
 1489 0204 77       		.byte	0x77
 1490 0205 00       		.sleb128 0
 1491 0206 00       		.byte	0
 1492 0207 0E       		.uleb128 0xe
 1493 0208 9A000000 		.4byte	.LVL8
ARM GAS  C:\Users\Luke\AppData\Local\Temp\ccuzhVDD.s 			page 52


 1494 020c 89080000 		.4byte	0x889
 1495 0210 1A020000 		.4byte	0x21a
 1496 0214 0F       		.uleb128 0xf
 1497 0215 01       		.byte	0x1
 1498 0216 50       		.byte	0x50
 1499 0217 01       		.byte	0x1
 1500 0218 47       		.byte	0x47
 1501 0219 00       		.byte	0
 1502 021a 0E       		.uleb128 0xe
 1503 021b A2000000 		.4byte	.LVL9
 1504 021f A6080000 		.4byte	0x8a6
 1505 0223 32020000 		.4byte	0x232
 1506 0227 0F       		.uleb128 0xf
 1507 0228 01       		.byte	0x1
 1508 0229 51       		.byte	0x51
 1509 022a 01       		.byte	0x1
 1510 022b 37       		.byte	0x37
 1511 022c 0F       		.uleb128 0xf
 1512 022d 01       		.byte	0x1
 1513 022e 50       		.byte	0x50
 1514 022f 01       		.byte	0x1
 1515 0230 47       		.byte	0x47
 1516 0231 00       		.byte	0
 1517 0232 0E       		.uleb128 0xe
 1518 0233 AA000000 		.4byte	.LVL10
 1519 0237 89080000 		.4byte	0x889
 1520 023b 45020000 		.4byte	0x245
 1521 023f 0F       		.uleb128 0xf
 1522 0240 01       		.byte	0x1
 1523 0241 50       		.byte	0x50
 1524 0242 01       		.byte	0x1
 1525 0243 45       		.byte	0x45
 1526 0244 00       		.byte	0
 1527 0245 0E       		.uleb128 0xe
 1528 0246 B2000000 		.4byte	.LVL11
 1529 024a A6080000 		.4byte	0x8a6
 1530 024e 5D020000 		.4byte	0x25d
 1531 0252 0F       		.uleb128 0xf
 1532 0253 01       		.byte	0x1
 1533 0254 51       		.byte	0x51
 1534 0255 01       		.byte	0x1
 1535 0256 37       		.byte	0x37
 1536 0257 0F       		.uleb128 0xf
 1537 0258 01       		.byte	0x1
 1538 0259 50       		.byte	0x50
 1539 025a 01       		.byte	0x1
 1540 025b 45       		.byte	0x45
 1541 025c 00       		.byte	0
 1542 025d 0E       		.uleb128 0xe
 1543 025e BA000000 		.4byte	.LVL12
 1544 0262 89080000 		.4byte	0x889
 1545 0266 70020000 		.4byte	0x270
 1546 026a 0F       		.uleb128 0xf
 1547 026b 01       		.byte	0x1
 1548 026c 50       		.byte	0x50
 1549 026d 01       		.byte	0x1
 1550 026e 48       		.byte	0x48
ARM GAS  C:\Users\Luke\AppData\Local\Temp\ccuzhVDD.s 			page 53


 1551 026f 00       		.byte	0
 1552 0270 0E       		.uleb128 0xe
 1553 0271 C2000000 		.4byte	.LVL13
 1554 0275 A6080000 		.4byte	0x8a6
 1555 0279 88020000 		.4byte	0x288
 1556 027d 0F       		.uleb128 0xf
 1557 027e 01       		.byte	0x1
 1558 027f 51       		.byte	0x51
 1559 0280 01       		.byte	0x1
 1560 0281 37       		.byte	0x37
 1561 0282 0F       		.uleb128 0xf
 1562 0283 01       		.byte	0x1
 1563 0284 50       		.byte	0x50
 1564 0285 01       		.byte	0x1
 1565 0286 48       		.byte	0x48
 1566 0287 00       		.byte	0
 1567 0288 0E       		.uleb128 0xe
 1568 0289 CA000000 		.4byte	.LVL14
 1569 028d 89080000 		.4byte	0x889
 1570 0291 9B020000 		.4byte	0x29b
 1571 0295 0F       		.uleb128 0xf
 1572 0296 01       		.byte	0x1
 1573 0297 50       		.byte	0x50
 1574 0298 01       		.byte	0x1
 1575 0299 33       		.byte	0x33
 1576 029a 00       		.byte	0
 1577 029b 0E       		.uleb128 0xe
 1578 029c D2000000 		.4byte	.LVL15
 1579 02a0 A6080000 		.4byte	0x8a6
 1580 02a4 B3020000 		.4byte	0x2b3
 1581 02a8 0F       		.uleb128 0xf
 1582 02a9 01       		.byte	0x1
 1583 02aa 51       		.byte	0x51
 1584 02ab 01       		.byte	0x1
 1585 02ac 37       		.byte	0x37
 1586 02ad 0F       		.uleb128 0xf
 1587 02ae 01       		.byte	0x1
 1588 02af 50       		.byte	0x50
 1589 02b0 01       		.byte	0x1
 1590 02b1 33       		.byte	0x33
 1591 02b2 00       		.byte	0
 1592 02b3 0E       		.uleb128 0xe
 1593 02b4 DA000000 		.4byte	.LVL16
 1594 02b8 89080000 		.4byte	0x889
 1595 02bc C6020000 		.4byte	0x2c6
 1596 02c0 0F       		.uleb128 0xf
 1597 02c1 01       		.byte	0x1
 1598 02c2 50       		.byte	0x50
 1599 02c3 01       		.byte	0x1
 1600 02c4 34       		.byte	0x34
 1601 02c5 00       		.byte	0
 1602 02c6 0E       		.uleb128 0xe
 1603 02c7 E2000000 		.4byte	.LVL17
 1604 02cb A6080000 		.4byte	0x8a6
 1605 02cf DE020000 		.4byte	0x2de
 1606 02d3 0F       		.uleb128 0xf
 1607 02d4 01       		.byte	0x1
ARM GAS  C:\Users\Luke\AppData\Local\Temp\ccuzhVDD.s 			page 54


 1608 02d5 51       		.byte	0x51
 1609 02d6 01       		.byte	0x1
 1610 02d7 37       		.byte	0x37
 1611 02d8 0F       		.uleb128 0xf
 1612 02d9 01       		.byte	0x1
 1613 02da 50       		.byte	0x50
 1614 02db 01       		.byte	0x1
 1615 02dc 34       		.byte	0x34
 1616 02dd 00       		.byte	0
 1617 02de 0E       		.uleb128 0xe
 1618 02df EA000000 		.4byte	.LVL18
 1619 02e3 89080000 		.4byte	0x889
 1620 02e7 F1020000 		.4byte	0x2f1
 1621 02eb 0F       		.uleb128 0xf
 1622 02ec 01       		.byte	0x1
 1623 02ed 50       		.byte	0x50
 1624 02ee 01       		.byte	0x1
 1625 02ef 35       		.byte	0x35
 1626 02f0 00       		.byte	0
 1627 02f1 10       		.uleb128 0x10
 1628 02f2 F6000000 		.4byte	.LVL19
 1629 02f6 01       		.byte	0x1
 1630 02f7 A6080000 		.4byte	0x8a6
 1631 02fb 0F       		.uleb128 0xf
 1632 02fc 01       		.byte	0x1
 1633 02fd 51       		.byte	0x51
 1634 02fe 01       		.byte	0x1
 1635 02ff 37       		.byte	0x37
 1636 0300 0F       		.uleb128 0xf
 1637 0301 01       		.byte	0x1
 1638 0302 50       		.byte	0x50
 1639 0303 01       		.byte	0x1
 1640 0304 35       		.byte	0x35
 1641 0305 00       		.byte	0
 1642 0306 00       		.byte	0
 1643 0307 11       		.uleb128 0x11
 1644 0308 01       		.byte	0x1
 1645 0309 82040000 		.4byte	.LASF30
 1646 030d 01       		.byte	0x1
 1647 030e 4201     		.2byte	0x142
 1648 0310 01       		.byte	0x1
 1649 0311 00000000 		.4byte	.LFB2
 1650 0315 98000000 		.4byte	.LFE2
 1651 0319 3E000000 		.4byte	.LLST2
 1652 031d 01       		.byte	0x1
 1653 031e 52030000 		.4byte	0x352
 1654 0322 12       		.uleb128 0x12
 1655 0323 F7000000 		.4byte	.LASF31
 1656 0327 01       		.byte	0x1
 1657 0328 4201     		.2byte	0x142
 1658 032a 6F000000 		.4byte	0x6f
 1659 032e 5E000000 		.4byte	.LLST3
 1660 0332 12       		.uleb128 0x12
 1661 0333 42040000 		.4byte	.LASF32
 1662 0337 01       		.byte	0x1
 1663 0338 4201     		.2byte	0x142
 1664 033a 6F000000 		.4byte	0x6f
ARM GAS  C:\Users\Luke\AppData\Local\Temp\ccuzhVDD.s 			page 55


 1665 033e 8B000000 		.4byte	.LLST4
 1666 0342 13       		.uleb128 0x13
 1667 0343 5E000000 		.4byte	.LVL26
 1668 0347 BF080000 		.4byte	0x8bf
 1669 034b 0F       		.uleb128 0xf
 1670 034c 01       		.byte	0x1
 1671 034d 50       		.byte	0x50
 1672 034e 01       		.byte	0x1
 1673 034f 31       		.byte	0x31
 1674 0350 00       		.byte	0
 1675 0351 00       		.byte	0
 1676 0352 0B       		.uleb128 0xb
 1677 0353 01       		.byte	0x1
 1678 0354 6F030000 		.4byte	.LASF33
 1679 0358 01       		.byte	0x1
 1680 0359 6A       		.byte	0x6a
 1681 035a 01       		.byte	0x1
 1682 035b 00000000 		.4byte	.LFB0
 1683 035f 24000000 		.4byte	.LFE0
 1684 0363 C5000000 		.4byte	.LLST5
 1685 0367 01       		.byte	0x1
 1686 0368 AB030000 		.4byte	0x3ab
 1687 036c 14       		.uleb128 0x14
 1688 036d F7000000 		.4byte	.LASF31
 1689 0371 01       		.byte	0x1
 1690 0372 6A       		.byte	0x6a
 1691 0373 6F000000 		.4byte	0x6f
 1692 0377 E5000000 		.4byte	.LLST6
 1693 037b 14       		.uleb128 0x14
 1694 037c 42040000 		.4byte	.LASF32
 1695 0380 01       		.byte	0x1
 1696 0381 6A       		.byte	0x6a
 1697 0382 6F000000 		.4byte	0x6f
 1698 0386 06010000 		.4byte	.LLST7
 1699 038a 0D       		.uleb128 0xd
 1700 038b 10000000 		.4byte	.LVL28
 1701 038f 72010000 		.4byte	0x172
 1702 0393 10       		.uleb128 0x10
 1703 0394 20000000 		.4byte	.LVL29
 1704 0398 01       		.byte	0x1
 1705 0399 07030000 		.4byte	0x307
 1706 039d 0F       		.uleb128 0xf
 1707 039e 01       		.byte	0x1
 1708 039f 51       		.byte	0x51
 1709 03a0 02       		.byte	0x2
 1710 03a1 75       		.byte	0x75
 1711 03a2 00       		.sleb128 0
 1712 03a3 0F       		.uleb128 0xf
 1713 03a4 01       		.byte	0x1
 1714 03a5 50       		.byte	0x50
 1715 03a6 02       		.byte	0x2
 1716 03a7 76       		.byte	0x76
 1717 03a8 00       		.sleb128 0
 1718 03a9 00       		.byte	0
 1719 03aa 00       		.byte	0
 1720 03ab 15       		.uleb128 0x15
 1721 03ac 01       		.byte	0x1
ARM GAS  C:\Users\Luke\AppData\Local\Temp\ccuzhVDD.s 			page 56


 1722 03ad 1D030000 		.4byte	.LASF34
 1723 03b1 01       		.byte	0x1
 1724 03b2 D301     		.2byte	0x1d3
 1725 03b4 01       		.byte	0x1
 1726 03b5 00000000 		.4byte	.LFB3
 1727 03b9 4C000000 		.4byte	.LFE3
 1728 03bd 02       		.byte	0x2
 1729 03be 7D       		.byte	0x7d
 1730 03bf 00       		.sleb128 0
 1731 03c0 01       		.byte	0x1
 1732 03c1 15       		.uleb128 0x15
 1733 03c2 01       		.byte	0x1
 1734 03c3 FE030000 		.4byte	.LASF35
 1735 03c7 01       		.byte	0x1
 1736 03c8 1502     		.2byte	0x215
 1737 03ca 01       		.byte	0x1
 1738 03cb 00000000 		.4byte	.LFB4
 1739 03cf 80000000 		.4byte	.LFE4
 1740 03d3 02       		.byte	0x2
 1741 03d4 7D       		.byte	0x7d
 1742 03d5 00       		.sleb128 0
 1743 03d6 01       		.byte	0x1
 1744 03d7 16       		.uleb128 0x16
 1745 03d8 01       		.byte	0x1
 1746 03d9 17040000 		.4byte	.LASF37
 1747 03dd 01       		.byte	0x1
 1748 03de 5C02     		.2byte	0x25c
 1749 03e0 01       		.byte	0x1
 1750 03e1 6F000000 		.4byte	0x6f
 1751 03e5 00000000 		.4byte	.LFB5
 1752 03e9 14000000 		.4byte	.LFE5
 1753 03ed 02       		.byte	0x2
 1754 03ee 7D       		.byte	0x7d
 1755 03ef 00       		.sleb128 0
 1756 03f0 01       		.byte	0x1
 1757 03f1 04040000 		.4byte	0x404
 1758 03f5 17       		.uleb128 0x17
 1759 03f6 7200     		.ascii	"r\000"
 1760 03f8 01       		.byte	0x1
 1761 03f9 5E02     		.2byte	0x25e
 1762 03fb 6F000000 		.4byte	0x6f
 1763 03ff 27010000 		.4byte	.LLST8
 1764 0403 00       		.byte	0
 1765 0404 18       		.uleb128 0x18
 1766 0405 01       		.byte	0x1
 1767 0406 F1040000 		.4byte	.LASF57
 1768 040a 01       		.byte	0x1
 1769 040b 7502     		.2byte	0x275
 1770 040d 01       		.byte	0x1
 1771 040e 6F000000 		.4byte	0x6f
 1772 0412 00000000 		.4byte	.LFB6
 1773 0416 0C000000 		.4byte	.LFE6
 1774 041a 02       		.byte	0x2
 1775 041b 7D       		.byte	0x7d
 1776 041c 00       		.sleb128 0
 1777 041d 01       		.byte	0x1
 1778 041e 16       		.uleb128 0x16
ARM GAS  C:\Users\Luke\AppData\Local\Temp\ccuzhVDD.s 			page 57


 1779 041f 01       		.byte	0x1
 1780 0420 52050000 		.4byte	.LASF38
 1781 0424 01       		.byte	0x1
 1782 0425 8F02     		.2byte	0x28f
 1783 0427 01       		.byte	0x1
 1784 0428 6F000000 		.4byte	0x6f
 1785 042c 00000000 		.4byte	.LFB7
 1786 0430 14000000 		.4byte	.LFE7
 1787 0434 02       		.byte	0x2
 1788 0435 7D       		.byte	0x7d
 1789 0436 00       		.sleb128 0
 1790 0437 01       		.byte	0x1
 1791 0438 4D040000 		.4byte	0x44d
 1792 043c 17       		.uleb128 0x17
 1793 043d 72657300 		.ascii	"res\000"
 1794 0441 01       		.byte	0x1
 1795 0442 9102     		.2byte	0x291
 1796 0444 6F000000 		.4byte	0x6f
 1797 0448 3A010000 		.4byte	.LLST9
 1798 044c 00       		.byte	0
 1799 044d 16       		.uleb128 0x16
 1800 044e 01       		.byte	0x1
 1801 044f A4000000 		.4byte	.LASF39
 1802 0453 01       		.byte	0x1
 1803 0454 AB02     		.2byte	0x2ab
 1804 0456 01       		.byte	0x1
 1805 0457 6F000000 		.4byte	0x6f
 1806 045b 00000000 		.4byte	.LFB8
 1807 045f 0C000000 		.4byte	.LFE8
 1808 0463 02       		.byte	0x2
 1809 0464 7D       		.byte	0x7d
 1810 0465 00       		.sleb128 0
 1811 0466 01       		.byte	0x1
 1812 0467 7C040000 		.4byte	0x47c
 1813 046b 12       		.uleb128 0x12
 1814 046c DE000000 		.4byte	.LASF40
 1815 0470 01       		.byte	0x1
 1816 0471 AB02     		.2byte	0x2ab
 1817 0473 6F000000 		.4byte	0x6f
 1818 0477 59010000 		.4byte	.LLST10
 1819 047b 00       		.byte	0
 1820 047c 16       		.uleb128 0x16
 1821 047d 01       		.byte	0x1
 1822 047e AD010000 		.4byte	.LASF41
 1823 0482 01       		.byte	0x1
 1824 0483 C002     		.2byte	0x2c0
 1825 0485 01       		.byte	0x1
 1826 0486 6F000000 		.4byte	0x6f
 1827 048a 00000000 		.4byte	.LFB9
 1828 048e 10000000 		.4byte	.LFE9
 1829 0492 02       		.byte	0x2
 1830 0493 7D       		.byte	0x7d
 1831 0494 00       		.sleb128 0
 1832 0495 01       		.byte	0x1
 1833 0496 AB040000 		.4byte	0x4ab
 1834 049a 12       		.uleb128 0x12
 1835 049b EE000000 		.4byte	.LASF42
ARM GAS  C:\Users\Luke\AppData\Local\Temp\ccuzhVDD.s 			page 58


 1836 049f 01       		.byte	0x1
 1837 04a0 C002     		.2byte	0x2c0
 1838 04a2 6F000000 		.4byte	0x6f
 1839 04a6 7A010000 		.4byte	.LLST11
 1840 04aa 00       		.byte	0
 1841 04ab 16       		.uleb128 0x16
 1842 04ac 01       		.byte	0x1
 1843 04ad 72020000 		.4byte	.LASF43
 1844 04b1 01       		.byte	0x1
 1845 04b2 D902     		.2byte	0x2d9
 1846 04b4 01       		.byte	0x1
 1847 04b5 7A000000 		.4byte	0x7a
 1848 04b9 00000000 		.4byte	.LFB10
 1849 04bd 2C000000 		.4byte	.LFE10
 1850 04c1 02       		.byte	0x2
 1851 04c2 7D       		.byte	0x7d
 1852 04c3 00       		.sleb128 0
 1853 04c4 01       		.byte	0x1
 1854 04c5 F9040000 		.4byte	0x4f9
 1855 04c9 12       		.uleb128 0x12
 1856 04ca EE000000 		.4byte	.LASF42
 1857 04ce 01       		.byte	0x1
 1858 04cf D902     		.2byte	0x2d9
 1859 04d1 6F000000 		.4byte	0x6f
 1860 04d5 9B010000 		.4byte	.LLST12
 1861 04d9 17       		.uleb128 0x17
 1862 04da 726900   		.ascii	"ri\000"
 1863 04dd 01       		.byte	0x1
 1864 04de DB02     		.2byte	0x2db
 1865 04e0 6F000000 		.4byte	0x6f
 1866 04e4 BC010000 		.4byte	.LLST13
 1867 04e8 19       		.uleb128 0x19
 1868 04e9 4B050000 		.4byte	.LASF44
 1869 04ed 01       		.byte	0x1
 1870 04ee DC02     		.2byte	0x2dc
 1871 04f0 7A000000 		.4byte	0x7a
 1872 04f4 E2010000 		.4byte	.LLST14
 1873 04f8 00       		.byte	0
 1874 04f9 11       		.uleb128 0x11
 1875 04fa 01       		.byte	0x1
 1876 04fb 9A040000 		.4byte	.LASF45
 1877 04ff 01       		.byte	0x1
 1878 0500 9003     		.2byte	0x390
 1879 0502 01       		.byte	0x1
 1880 0503 00000000 		.4byte	.LFB11
 1881 0507 7C000000 		.4byte	.LFE11
 1882 050b 35020000 		.4byte	.LLST15
 1883 050f 01       		.byte	0x1
 1884 0510 6C050000 		.4byte	0x56c
 1885 0514 12       		.uleb128 0x12
 1886 0515 EE000000 		.4byte	.LASF42
 1887 0519 01       		.byte	0x1
 1888 051a 9003     		.2byte	0x390
 1889 051c 6F000000 		.4byte	0x6f
 1890 0520 55020000 		.4byte	.LLST16
 1891 0524 12       		.uleb128 0x12
 1892 0525 89010000 		.4byte	.LASF46
ARM GAS  C:\Users\Luke\AppData\Local\Temp\ccuzhVDD.s 			page 59


 1893 0529 01       		.byte	0x1
 1894 052a 9003     		.2byte	0x390
 1895 052c 6C050000 		.4byte	0x56c
 1896 0530 81020000 		.4byte	.LLST17
 1897 0534 12       		.uleb128 0x12
 1898 0535 36040000 		.4byte	.LASF47
 1899 0539 01       		.byte	0x1
 1900 053a 9003     		.2byte	0x390
 1901 053c 7A000000 		.4byte	0x7a
 1902 0540 AD020000 		.4byte	.LLST18
 1903 0544 17       		.uleb128 0x17
 1904 0545 726900   		.ascii	"ri\000"
 1905 0548 01       		.byte	0x1
 1906 0549 9303     		.2byte	0x393
 1907 054b 6F000000 		.4byte	0x6f
 1908 054f E4020000 		.4byte	.LLST19
 1909 0553 17       		.uleb128 0x17
 1910 0554 7000     		.ascii	"p\000"
 1911 0556 01       		.byte	0x1
 1912 0557 9403     		.2byte	0x394
 1913 0559 77050000 		.4byte	0x577
 1914 055d 19030000 		.4byte	.LLST20
 1915 0561 1A       		.uleb128 0x1a
 1916 0562 6900     		.ascii	"i\000"
 1917 0564 01       		.byte	0x1
 1918 0565 9603     		.2byte	0x396
 1919 0567 7A000000 		.4byte	0x7a
 1920 056b 00       		.byte	0
 1921 056c 07       		.uleb128 0x7
 1922 056d 04       		.byte	0x4
 1923 056e 72050000 		.4byte	0x572
 1924 0572 1B       		.uleb128 0x1b
 1925 0573 6F000000 		.4byte	0x6f
 1926 0577 07       		.uleb128 0x7
 1927 0578 04       		.byte	0x4
 1928 0579 A5000000 		.4byte	0xa5
 1929 057d 1C       		.uleb128 0x1c
 1930 057e 01       		.byte	0x1
 1931 057f 18010000 		.4byte	.LASF48
 1932 0583 01       		.byte	0x1
 1933 0584 7D04     		.2byte	0x47d
 1934 0586 01       		.byte	0x1
 1935 0587 00000000 		.4byte	.LFB13
 1936 058b 28000000 		.4byte	.LFE13
 1937 058f 02       		.byte	0x2
 1938 0590 7D       		.byte	0x7d
 1939 0591 00       		.sleb128 0
 1940 0592 01       		.byte	0x1
 1941 0593 B7050000 		.4byte	0x5b7
 1942 0597 12       		.uleb128 0x12
 1943 0598 EE000000 		.4byte	.LASF42
 1944 059c 01       		.byte	0x1
 1945 059d 7D04     		.2byte	0x47d
 1946 059f 6F000000 		.4byte	0x6f
 1947 05a3 2C030000 		.4byte	.LLST21
 1948 05a7 17       		.uleb128 0x17
 1949 05a8 726900   		.ascii	"ri\000"
ARM GAS  C:\Users\Luke\AppData\Local\Temp\ccuzhVDD.s 			page 60


 1950 05ab 01       		.byte	0x1
 1951 05ac 7F04     		.2byte	0x47f
 1952 05ae 6F000000 		.4byte	0x6f
 1953 05b2 4D030000 		.4byte	.LLST22
 1954 05b6 00       		.byte	0
 1955 05b7 1D       		.uleb128 0x1d
 1956 05b8 01       		.byte	0x1
 1957 05b9 4F020000 		.4byte	.LASF49
 1958 05bd 01       		.byte	0x1
 1959 05be 1304     		.2byte	0x413
 1960 05c0 01       		.byte	0x1
 1961 05c1 7A000000 		.4byte	0x7a
 1962 05c5 00000000 		.4byte	.LFB12
 1963 05c9 4C000000 		.4byte	.LFE12
 1964 05cd 64030000 		.4byte	.LLST23
 1965 05d1 01       		.byte	0x1
 1966 05d2 66060000 		.4byte	0x666
 1967 05d6 12       		.uleb128 0x12
 1968 05d7 EE000000 		.4byte	.LASF42
 1969 05db 01       		.byte	0x1
 1970 05dc 1304     		.2byte	0x413
 1971 05de 6F000000 		.4byte	0x6f
 1972 05e2 84030000 		.4byte	.LLST24
 1973 05e6 12       		.uleb128 0x12
 1974 05e7 89010000 		.4byte	.LASF46
 1975 05eb 01       		.byte	0x1
 1976 05ec 1304     		.2byte	0x413
 1977 05ee 66060000 		.4byte	0x666
 1978 05f2 BE030000 		.4byte	.LLST25
 1979 05f6 12       		.uleb128 0x12
 1980 05f7 36040000 		.4byte	.LASF47
 1981 05fb 01       		.byte	0x1
 1982 05fc 1304     		.2byte	0x413
 1983 05fe 7A000000 		.4byte	0x7a
 1984 0602 DC030000 		.4byte	.LLST26
 1985 0606 17       		.uleb128 0x17
 1986 0607 726900   		.ascii	"ri\000"
 1987 060a 01       		.byte	0x1
 1988 060b 1604     		.2byte	0x416
 1989 060d 6F000000 		.4byte	0x6f
 1990 0611 29040000 		.4byte	.LLST27
 1991 0615 17       		.uleb128 0x17
 1992 0616 7000     		.ascii	"p\000"
 1993 0618 01       		.byte	0x1
 1994 0619 1704     		.2byte	0x417
 1995 061b 77050000 		.4byte	0x577
 1996 061f 4F040000 		.4byte	.LLST28
 1997 0623 17       		.uleb128 0x17
 1998 0624 6900     		.ascii	"i\000"
 1999 0626 01       		.byte	0x1
 2000 0627 1904     		.2byte	0x419
 2001 0629 7A000000 		.4byte	0x7a
 2002 062d 62040000 		.4byte	.LLST29
 2003 0631 19       		.uleb128 0x19
 2004 0632 24050000 		.4byte	.LASF50
 2005 0636 01       		.byte	0x1
 2006 0637 1C04     		.2byte	0x41c
ARM GAS  C:\Users\Luke\AppData\Local\Temp\ccuzhVDD.s 			page 61


 2007 0639 7A000000 		.4byte	0x7a
 2008 063d 76040000 		.4byte	.LLST30
 2009 0641 0E       		.uleb128 0xe
 2010 0642 1E000000 		.4byte	.LVL68
 2011 0646 AB040000 		.4byte	0x4ab
 2012 064a 55060000 		.4byte	0x655
 2013 064e 0F       		.uleb128 0xf
 2014 064f 01       		.byte	0x1
 2015 0650 50       		.byte	0x50
 2016 0651 02       		.byte	0x2
 2017 0652 77       		.byte	0x77
 2018 0653 00       		.sleb128 0
 2019 0654 00       		.byte	0
 2020 0655 13       		.uleb128 0x13
 2021 0656 3C000000 		.4byte	.LVL72
 2022 065a 7D050000 		.4byte	0x57d
 2023 065e 0F       		.uleb128 0xf
 2024 065f 01       		.byte	0x1
 2025 0660 50       		.byte	0x50
 2026 0661 02       		.byte	0x2
 2027 0662 77       		.byte	0x77
 2028 0663 00       		.sleb128 0
 2029 0664 00       		.byte	0
 2030 0665 00       		.byte	0
 2031 0666 07       		.uleb128 0x7
 2032 0667 04       		.byte	0x4
 2033 0668 6F000000 		.4byte	0x6f
 2034 066c 1C       		.uleb128 0x1c
 2035 066d 01       		.byte	0x1
 2036 066e 8F010000 		.4byte	.LASF51
 2037 0672 01       		.byte	0x1
 2038 0673 9B04     		.2byte	0x49b
 2039 0675 01       		.byte	0x1
 2040 0676 00000000 		.4byte	.LFB14
 2041 067a 18000000 		.4byte	.LFE14
 2042 067e 02       		.byte	0x2
 2043 067f 7D       		.byte	0x7d
 2044 0680 00       		.sleb128 0
 2045 0681 01       		.byte	0x1
 2046 0682 A6060000 		.4byte	0x6a6
 2047 0686 12       		.uleb128 0x12
 2048 0687 EE000000 		.4byte	.LASF42
 2049 068b 01       		.byte	0x1
 2050 068c 9B04     		.2byte	0x49b
 2051 068e 6F000000 		.4byte	0x6f
 2052 0692 89040000 		.4byte	.LLST31
 2053 0696 17       		.uleb128 0x17
 2054 0697 726900   		.ascii	"ri\000"
 2055 069a 01       		.byte	0x1
 2056 069b 9D04     		.2byte	0x49d
 2057 069d 6F000000 		.4byte	0x6f
 2058 06a1 AA040000 		.4byte	.LLST32
 2059 06a5 00       		.byte	0
 2060 06a6 1C       		.uleb128 0x1c
 2061 06a7 01       		.byte	0x1
 2062 06a8 2E050000 		.4byte	.LASF52
 2063 06ac 01       		.byte	0x1
ARM GAS  C:\Users\Luke\AppData\Local\Temp\ccuzhVDD.s 			page 62


 2064 06ad BA04     		.2byte	0x4ba
 2065 06af 01       		.byte	0x1
 2066 06b0 00000000 		.4byte	.LFB15
 2067 06b4 0C000000 		.4byte	.LFE15
 2068 06b8 02       		.byte	0x2
 2069 06b9 7D       		.byte	0x7d
 2070 06ba 00       		.sleb128 0
 2071 06bb 01       		.byte	0x1
 2072 06bc CF060000 		.4byte	0x6cf
 2073 06c0 1E       		.uleb128 0x1e
 2074 06c1 2F040000 		.4byte	.LASF53
 2075 06c5 01       		.byte	0x1
 2076 06c6 BA04     		.2byte	0x4ba
 2077 06c8 6F000000 		.4byte	0x6f
 2078 06cc 01       		.byte	0x1
 2079 06cd 50       		.byte	0x50
 2080 06ce 00       		.byte	0
 2081 06cf 16       		.uleb128 0x16
 2082 06d0 01       		.byte	0x1
 2083 06d1 54040000 		.4byte	.LASF54
 2084 06d5 01       		.byte	0x1
 2085 06d6 CF04     		.2byte	0x4cf
 2086 06d8 01       		.byte	0x1
 2087 06d9 6F000000 		.4byte	0x6f
 2088 06dd 00000000 		.4byte	.LFB16
 2089 06e1 20000000 		.4byte	.LFE16
 2090 06e5 02       		.byte	0x2
 2091 06e6 7D       		.byte	0x7d
 2092 06e7 00       		.sleb128 0
 2093 06e8 01       		.byte	0x1
 2094 06e9 1C070000 		.4byte	0x71c
 2095 06ed 12       		.uleb128 0x12
 2096 06ee EE000000 		.4byte	.LASF42
 2097 06f2 01       		.byte	0x1
 2098 06f3 CF04     		.2byte	0x4cf
 2099 06f5 6F000000 		.4byte	0x6f
 2100 06f9 C1040000 		.4byte	.LLST33
 2101 06fd 17       		.uleb128 0x17
 2102 06fe 726900   		.ascii	"ri\000"
 2103 0701 01       		.byte	0x1
 2104 0702 D104     		.2byte	0x4d1
 2105 0704 6F000000 		.4byte	0x6f
 2106 0708 E2040000 		.4byte	.LLST34
 2107 070c 17       		.uleb128 0x17
 2108 070d 637200   		.ascii	"cr\000"
 2109 0710 01       		.byte	0x1
 2110 0711 D204     		.2byte	0x4d2
 2111 0713 6F000000 		.4byte	0x6f
 2112 0717 F9040000 		.4byte	.LLST35
 2113 071b 00       		.byte	0
 2114 071c 1C       		.uleb128 0x1c
 2115 071d 01       		.byte	0x1
 2116 071e 23020000 		.4byte	.LASF55
 2117 0722 01       		.byte	0x1
 2118 0723 F404     		.2byte	0x4f4
 2119 0725 01       		.byte	0x1
 2120 0726 00000000 		.4byte	.LFB17
ARM GAS  C:\Users\Luke\AppData\Local\Temp\ccuzhVDD.s 			page 63


 2121 072a 18000000 		.4byte	.LFE17
 2122 072e 02       		.byte	0x2
 2123 072f 7D       		.byte	0x7d
 2124 0730 00       		.sleb128 0
 2125 0731 01       		.byte	0x1
 2126 0732 47070000 		.4byte	0x747
 2127 0736 12       		.uleb128 0x12
 2128 0737 57010000 		.4byte	.LASF56
 2129 073b 01       		.byte	0x1
 2130 073c F404     		.2byte	0x4f4
 2131 073e 6F000000 		.4byte	0x6f
 2132 0742 2F050000 		.4byte	.LLST36
 2133 0746 00       		.byte	0
 2134 0747 18       		.uleb128 0x18
 2135 0748 01       		.byte	0x1
 2136 0749 8E000000 		.4byte	.LASF58
 2137 074d 01       		.byte	0x1
 2138 074e 1105     		.2byte	0x511
 2139 0750 01       		.byte	0x1
 2140 0751 6F000000 		.4byte	0x6f
 2141 0755 00000000 		.4byte	.LFB18
 2142 0759 10000000 		.4byte	.LFE18
 2143 075d 02       		.byte	0x2
 2144 075e 7D       		.byte	0x7d
 2145 075f 00       		.sleb128 0
 2146 0760 01       		.byte	0x1
 2147 0761 16       		.uleb128 0x16
 2148 0762 01       		.byte	0x1
 2149 0763 8D030000 		.4byte	.LASF59
 2150 0767 01       		.byte	0x1
 2151 0768 2B05     		.2byte	0x52b
 2152 076a 01       		.byte	0x1
 2153 076b 6F000000 		.4byte	0x6f
 2154 076f 00000000 		.4byte	.LFB19
 2155 0773 10000000 		.4byte	.LFE19
 2156 0777 02       		.byte	0x2
 2157 0778 7D       		.byte	0x7d
 2158 0779 00       		.sleb128 0
 2159 077a 01       		.byte	0x1
 2160 077b 90070000 		.4byte	0x790
 2161 077f 19       		.uleb128 0x19
 2162 0780 4B050000 		.4byte	.LASF44
 2163 0784 01       		.byte	0x1
 2164 0785 2D05     		.2byte	0x52d
 2165 0787 6F000000 		.4byte	0x6f
 2166 078b 69050000 		.4byte	.LLST37
 2167 078f 00       		.byte	0
 2168 0790 1F       		.uleb128 0x1f
 2169 0791 11020000 		.4byte	.LASF60
 2170 0795 01       		.byte	0x1
 2171 0796 36       		.byte	0x36
 2172 0797 6F000000 		.4byte	0x6f
 2173 079b 01       		.byte	0x1
 2174 079c 05       		.byte	0x5
 2175 079d 03       		.byte	0x3
 2176 079e 00000000 		.4byte	USBUART_1_initVar
 2177 07a2 20       		.uleb128 0x20
ARM GAS  C:\Users\Luke\AppData\Local\Temp\ccuzhVDD.s 			page 64


 2178 07a3 22000000 		.4byte	.LASF61
 2179 07a7 03       		.byte	0x3
 2180 07a8 1302     		.2byte	0x213
 2181 07aa B0000000 		.4byte	0xb0
 2182 07ae 01       		.byte	0x1
 2183 07af 01       		.byte	0x1
 2184 07b0 20       		.uleb128 0x20
 2185 07b1 0C050000 		.4byte	.LASF62
 2186 07b5 03       		.byte	0x3
 2187 07b6 1402     		.2byte	0x214
 2188 07b8 B0000000 		.4byte	0xb0
 2189 07bc 01       		.byte	0x1
 2190 07bd 01       		.byte	0x1
 2191 07be 20       		.uleb128 0x20
 2192 07bf 05030000 		.4byte	.LASF63
 2193 07c3 03       		.byte	0x3
 2194 07c4 1502     		.2byte	0x215
 2195 07c6 B0000000 		.4byte	0xb0
 2196 07ca 01       		.byte	0x1
 2197 07cb 01       		.byte	0x1
 2198 07cc 20       		.uleb128 0x20
 2199 07cd 63010000 		.4byte	.LASF64
 2200 07d1 03       		.byte	0x3
 2201 07d2 1602     		.2byte	0x216
 2202 07d4 B0000000 		.4byte	0xb0
 2203 07d8 01       		.byte	0x1
 2204 07d9 01       		.byte	0x1
 2205 07da 20       		.uleb128 0x20
 2206 07db DB010000 		.4byte	.LASF65
 2207 07df 03       		.byte	0x3
 2208 07e0 1702     		.2byte	0x217
 2209 07e2 B0000000 		.4byte	0xb0
 2210 07e6 01       		.byte	0x1
 2211 07e7 01       		.byte	0x1
 2212 07e8 21       		.uleb128 0x21
 2213 07e9 BE040000 		.4byte	.LASF66
 2214 07ed 04       		.byte	0x4
 2215 07ee 2D       		.byte	0x2d
 2216 07ef B0000000 		.4byte	0xb0
 2217 07f3 01       		.byte	0x1
 2218 07f4 01       		.byte	0x1
 2219 07f5 22       		.uleb128 0x22
 2220 07f6 6F000000 		.4byte	0x6f
 2221 07fa 05080000 		.4byte	0x805
 2222 07fe 23       		.uleb128 0x23
 2223 07ff D9000000 		.4byte	0xd9
 2224 0803 01       		.byte	0x1
 2225 0804 00       		.byte	0
 2226 0805 21       		.uleb128 0x21
 2227 0806 07000000 		.4byte	.LASF67
 2228 080a 04       		.byte	0x4
 2229 080b 2E       		.byte	0x2e
 2230 080c 12080000 		.4byte	0x812
 2231 0810 01       		.byte	0x1
 2232 0811 01       		.byte	0x1
 2233 0812 05       		.uleb128 0x5
 2234 0813 F5070000 		.4byte	0x7f5
ARM GAS  C:\Users\Luke\AppData\Local\Temp\ccuzhVDD.s 			page 65


 2235 0817 21       		.uleb128 0x21
 2236 0818 9E020000 		.4byte	.LASF68
 2237 081c 04       		.byte	0x4
 2238 081d 30       		.byte	0x30
 2239 081e B0000000 		.4byte	0xb0
 2240 0822 01       		.byte	0x1
 2241 0823 01       		.byte	0x1
 2242 0824 22       		.uleb128 0x22
 2243 0825 67010000 		.4byte	0x167
 2244 0829 34080000 		.4byte	0x834
 2245 082d 23       		.uleb128 0x23
 2246 082e D9000000 		.4byte	0xd9
 2247 0832 08       		.byte	0x8
 2248 0833 00       		.byte	0
 2249 0834 21       		.uleb128 0x21
 2250 0835 3E050000 		.4byte	.LASF69
 2251 0839 04       		.byte	0x4
 2252 083a 34       		.byte	0x34
 2253 083b 41080000 		.4byte	0x841
 2254 083f 01       		.byte	0x1
 2255 0840 01       		.byte	0x1
 2256 0841 05       		.uleb128 0x5
 2257 0842 24080000 		.4byte	0x824
 2258 0846 21       		.uleb128 0x21
 2259 0847 D8040000 		.4byte	.LASF70
 2260 084b 04       		.byte	0x4
 2261 084c 3D       		.byte	0x3d
 2262 084d B0000000 		.4byte	0xb0
 2263 0851 01       		.byte	0x1
 2264 0852 01       		.byte	0x1
 2265 0853 24       		.uleb128 0x24
 2266 0854 01       		.byte	0x1
 2267 0855 87020000 		.4byte	.LASF77
 2268 0859 05       		.byte	0x5
 2269 085a 7E       		.byte	0x7e
 2270 085b 01       		.byte	0x1
 2271 085c 6F000000 		.4byte	0x6f
 2272 0860 01       		.byte	0x1
 2273 0861 25       		.uleb128 0x25
 2274 0862 01       		.byte	0x1
 2275 0863 46010000 		.4byte	.LASF71
 2276 0867 05       		.byte	0x5
 2277 0868 78       		.byte	0x78
 2278 0869 01       		.byte	0x1
 2279 086a 01       		.byte	0x1
 2280 086b 75080000 		.4byte	0x875
 2281 086f 26       		.uleb128 0x26
 2282 0870 7A000000 		.4byte	0x7a
 2283 0874 00       		.byte	0
 2284 0875 25       		.uleb128 0x25
 2285 0876 01       		.byte	0x1
 2286 0877 4E030000 		.4byte	.LASF72
 2287 087b 05       		.byte	0x5
 2288 087c 7F       		.byte	0x7f
 2289 087d 01       		.byte	0x1
 2290 087e 01       		.byte	0x1
 2291 087f 89080000 		.4byte	0x889
ARM GAS  C:\Users\Luke\AppData\Local\Temp\ccuzhVDD.s 			page 66


 2292 0883 26       		.uleb128 0x26
 2293 0884 6F000000 		.4byte	0x6f
 2294 0888 00       		.byte	0
 2295 0889 27       		.uleb128 0x27
 2296 088a 01       		.byte	0x1
 2297 088b 63020000 		.4byte	.LASF78
 2298 088f 05       		.byte	0x5
 2299 0890 89       		.byte	0x89
 2300 0891 01       		.byte	0x1
 2301 0892 C5000000 		.4byte	0xc5
 2302 0896 01       		.byte	0x1
 2303 0897 A6080000 		.4byte	0x8a6
 2304 089b 26       		.uleb128 0x26
 2305 089c 6F000000 		.4byte	0x6f
 2306 08a0 26       		.uleb128 0x26
 2307 08a1 C5000000 		.4byte	0xc5
 2308 08a5 00       		.byte	0
 2309 08a6 25       		.uleb128 0x25
 2310 08a7 01       		.byte	0x1
 2311 08a8 37030000 		.4byte	.LASF73
 2312 08ac 05       		.byte	0x5
 2313 08ad 8C       		.byte	0x8c
 2314 08ae 01       		.byte	0x1
 2315 08af 01       		.byte	0x1
 2316 08b0 BF080000 		.4byte	0x8bf
 2317 08b4 26       		.uleb128 0x26
 2318 08b5 6F000000 		.4byte	0x6f
 2319 08b9 26       		.uleb128 0x26
 2320 08ba 6F000000 		.4byte	0x6f
 2321 08be 00       		.byte	0
 2322 08bf 28       		.uleb128 0x28
 2323 08c0 01       		.byte	0x1
 2324 08c1 7F030000 		.4byte	.LASF79
 2325 08c5 05       		.byte	0x5
 2326 08c6 7A       		.byte	0x7a
 2327 08c7 01       		.byte	0x1
 2328 08c8 01       		.byte	0x1
 2329 08c9 26       		.uleb128 0x26
 2330 08ca 85000000 		.4byte	0x85
 2331 08ce 00       		.byte	0
 2332 08cf 00       		.byte	0
 2333              		.section	.debug_abbrev,"",%progbits
 2334              	.Ldebug_abbrev0:
 2335 0000 01       		.uleb128 0x1
 2336 0001 11       		.uleb128 0x11
 2337 0002 01       		.byte	0x1
 2338 0003 25       		.uleb128 0x25
 2339 0004 0E       		.uleb128 0xe
 2340 0005 13       		.uleb128 0x13
 2341 0006 0B       		.uleb128 0xb
 2342 0007 03       		.uleb128 0x3
 2343 0008 0E       		.uleb128 0xe
 2344 0009 1B       		.uleb128 0x1b
 2345 000a 0E       		.uleb128 0xe
 2346 000b 55       		.uleb128 0x55
 2347 000c 06       		.uleb128 0x6
 2348 000d 11       		.uleb128 0x11
ARM GAS  C:\Users\Luke\AppData\Local\Temp\ccuzhVDD.s 			page 67


 2349 000e 01       		.uleb128 0x1
 2350 000f 52       		.uleb128 0x52
 2351 0010 01       		.uleb128 0x1
 2352 0011 10       		.uleb128 0x10
 2353 0012 06       		.uleb128 0x6
 2354 0013 00       		.byte	0
 2355 0014 00       		.byte	0
 2356 0015 02       		.uleb128 0x2
 2357 0016 24       		.uleb128 0x24
 2358 0017 00       		.byte	0
 2359 0018 0B       		.uleb128 0xb
 2360 0019 0B       		.uleb128 0xb
 2361 001a 3E       		.uleb128 0x3e
 2362 001b 0B       		.uleb128 0xb
 2363 001c 03       		.uleb128 0x3
 2364 001d 0E       		.uleb128 0xe
 2365 001e 00       		.byte	0
 2366 001f 00       		.byte	0
 2367 0020 03       		.uleb128 0x3
 2368 0021 24       		.uleb128 0x24
 2369 0022 00       		.byte	0
 2370 0023 0B       		.uleb128 0xb
 2371 0024 0B       		.uleb128 0xb
 2372 0025 3E       		.uleb128 0x3e
 2373 0026 0B       		.uleb128 0xb
 2374 0027 03       		.uleb128 0x3
 2375 0028 08       		.uleb128 0x8
 2376 0029 00       		.byte	0
 2377 002a 00       		.byte	0
 2378 002b 04       		.uleb128 0x4
 2379 002c 16       		.uleb128 0x16
 2380 002d 00       		.byte	0
 2381 002e 03       		.uleb128 0x3
 2382 002f 0E       		.uleb128 0xe
 2383 0030 3A       		.uleb128 0x3a
 2384 0031 0B       		.uleb128 0xb
 2385 0032 3B       		.uleb128 0x3b
 2386 0033 0B       		.uleb128 0xb
 2387 0034 49       		.uleb128 0x49
 2388 0035 13       		.uleb128 0x13
 2389 0036 00       		.byte	0
 2390 0037 00       		.byte	0
 2391 0038 05       		.uleb128 0x5
 2392 0039 35       		.uleb128 0x35
 2393 003a 00       		.byte	0
 2394 003b 49       		.uleb128 0x49
 2395 003c 13       		.uleb128 0x13
 2396 003d 00       		.byte	0
 2397 003e 00       		.byte	0
 2398 003f 06       		.uleb128 0x6
 2399 0040 16       		.uleb128 0x16
 2400 0041 00       		.byte	0
 2401 0042 03       		.uleb128 0x3
 2402 0043 0E       		.uleb128 0xe
 2403 0044 3A       		.uleb128 0x3a
 2404 0045 0B       		.uleb128 0xb
 2405 0046 3B       		.uleb128 0x3b
ARM GAS  C:\Users\Luke\AppData\Local\Temp\ccuzhVDD.s 			page 68


 2406 0047 05       		.uleb128 0x5
 2407 0048 49       		.uleb128 0x49
 2408 0049 13       		.uleb128 0x13
 2409 004a 00       		.byte	0
 2410 004b 00       		.byte	0
 2411 004c 07       		.uleb128 0x7
 2412 004d 0F       		.uleb128 0xf
 2413 004e 00       		.byte	0
 2414 004f 0B       		.uleb128 0xb
 2415 0050 0B       		.uleb128 0xb
 2416 0051 49       		.uleb128 0x49
 2417 0052 13       		.uleb128 0x13
 2418 0053 00       		.byte	0
 2419 0054 00       		.byte	0
 2420 0055 08       		.uleb128 0x8
 2421 0056 15       		.uleb128 0x15
 2422 0057 00       		.byte	0
 2423 0058 27       		.uleb128 0x27
 2424 0059 0C       		.uleb128 0xc
 2425 005a 00       		.byte	0
 2426 005b 00       		.byte	0
 2427 005c 09       		.uleb128 0x9
 2428 005d 13       		.uleb128 0x13
 2429 005e 01       		.byte	0x1
 2430 005f 0B       		.uleb128 0xb
 2431 0060 0B       		.uleb128 0xb
 2432 0061 3A       		.uleb128 0x3a
 2433 0062 0B       		.uleb128 0xb
 2434 0063 3B       		.uleb128 0x3b
 2435 0064 0B       		.uleb128 0xb
 2436 0065 01       		.uleb128 0x1
 2437 0066 13       		.uleb128 0x13
 2438 0067 00       		.byte	0
 2439 0068 00       		.byte	0
 2440 0069 0A       		.uleb128 0xa
 2441 006a 0D       		.uleb128 0xd
 2442 006b 00       		.byte	0
 2443 006c 03       		.uleb128 0x3
 2444 006d 0E       		.uleb128 0xe
 2445 006e 3A       		.uleb128 0x3a
 2446 006f 0B       		.uleb128 0xb
 2447 0070 3B       		.uleb128 0x3b
 2448 0071 0B       		.uleb128 0xb
 2449 0072 49       		.uleb128 0x49
 2450 0073 13       		.uleb128 0x13
 2451 0074 38       		.uleb128 0x38
 2452 0075 0A       		.uleb128 0xa
 2453 0076 00       		.byte	0
 2454 0077 00       		.byte	0
 2455 0078 0B       		.uleb128 0xb
 2456 0079 2E       		.uleb128 0x2e
 2457 007a 01       		.byte	0x1
 2458 007b 3F       		.uleb128 0x3f
 2459 007c 0C       		.uleb128 0xc
 2460 007d 03       		.uleb128 0x3
 2461 007e 0E       		.uleb128 0xe
 2462 007f 3A       		.uleb128 0x3a
ARM GAS  C:\Users\Luke\AppData\Local\Temp\ccuzhVDD.s 			page 69


 2463 0080 0B       		.uleb128 0xb
 2464 0081 3B       		.uleb128 0x3b
 2465 0082 0B       		.uleb128 0xb
 2466 0083 27       		.uleb128 0x27
 2467 0084 0C       		.uleb128 0xc
 2468 0085 11       		.uleb128 0x11
 2469 0086 01       		.uleb128 0x1
 2470 0087 12       		.uleb128 0x12
 2471 0088 01       		.uleb128 0x1
 2472 0089 40       		.uleb128 0x40
 2473 008a 06       		.uleb128 0x6
 2474 008b 9742     		.uleb128 0x2117
 2475 008d 0C       		.uleb128 0xc
 2476 008e 01       		.uleb128 0x1
 2477 008f 13       		.uleb128 0x13
 2478 0090 00       		.byte	0
 2479 0091 00       		.byte	0
 2480 0092 0C       		.uleb128 0xc
 2481 0093 34       		.uleb128 0x34
 2482 0094 00       		.byte	0
 2483 0095 03       		.uleb128 0x3
 2484 0096 0E       		.uleb128 0xe
 2485 0097 3A       		.uleb128 0x3a
 2486 0098 0B       		.uleb128 0xb
 2487 0099 3B       		.uleb128 0x3b
 2488 009a 0B       		.uleb128 0xb
 2489 009b 49       		.uleb128 0x49
 2490 009c 13       		.uleb128 0x13
 2491 009d 02       		.uleb128 0x2
 2492 009e 06       		.uleb128 0x6
 2493 009f 00       		.byte	0
 2494 00a0 00       		.byte	0
 2495 00a1 0D       		.uleb128 0xd
 2496 00a2 898201   		.uleb128 0x4109
 2497 00a5 00       		.byte	0
 2498 00a6 11       		.uleb128 0x11
 2499 00a7 01       		.uleb128 0x1
 2500 00a8 31       		.uleb128 0x31
 2501 00a9 13       		.uleb128 0x13
 2502 00aa 00       		.byte	0
 2503 00ab 00       		.byte	0
 2504 00ac 0E       		.uleb128 0xe
 2505 00ad 898201   		.uleb128 0x4109
 2506 00b0 01       		.byte	0x1
 2507 00b1 11       		.uleb128 0x11
 2508 00b2 01       		.uleb128 0x1
 2509 00b3 31       		.uleb128 0x31
 2510 00b4 13       		.uleb128 0x13
 2511 00b5 01       		.uleb128 0x1
 2512 00b6 13       		.uleb128 0x13
 2513 00b7 00       		.byte	0
 2514 00b8 00       		.byte	0
 2515 00b9 0F       		.uleb128 0xf
 2516 00ba 8A8201   		.uleb128 0x410a
 2517 00bd 00       		.byte	0
 2518 00be 02       		.uleb128 0x2
 2519 00bf 0A       		.uleb128 0xa
ARM GAS  C:\Users\Luke\AppData\Local\Temp\ccuzhVDD.s 			page 70


 2520 00c0 9142     		.uleb128 0x2111
 2521 00c2 0A       		.uleb128 0xa
 2522 00c3 00       		.byte	0
 2523 00c4 00       		.byte	0
 2524 00c5 10       		.uleb128 0x10
 2525 00c6 898201   		.uleb128 0x4109
 2526 00c9 01       		.byte	0x1
 2527 00ca 11       		.uleb128 0x11
 2528 00cb 01       		.uleb128 0x1
 2529 00cc 9542     		.uleb128 0x2115
 2530 00ce 0C       		.uleb128 0xc
 2531 00cf 31       		.uleb128 0x31
 2532 00d0 13       		.uleb128 0x13
 2533 00d1 00       		.byte	0
 2534 00d2 00       		.byte	0
 2535 00d3 11       		.uleb128 0x11
 2536 00d4 2E       		.uleb128 0x2e
 2537 00d5 01       		.byte	0x1
 2538 00d6 3F       		.uleb128 0x3f
 2539 00d7 0C       		.uleb128 0xc
 2540 00d8 03       		.uleb128 0x3
 2541 00d9 0E       		.uleb128 0xe
 2542 00da 3A       		.uleb128 0x3a
 2543 00db 0B       		.uleb128 0xb
 2544 00dc 3B       		.uleb128 0x3b
 2545 00dd 05       		.uleb128 0x5
 2546 00de 27       		.uleb128 0x27
 2547 00df 0C       		.uleb128 0xc
 2548 00e0 11       		.uleb128 0x11
 2549 00e1 01       		.uleb128 0x1
 2550 00e2 12       		.uleb128 0x12
 2551 00e3 01       		.uleb128 0x1
 2552 00e4 40       		.uleb128 0x40
 2553 00e5 06       		.uleb128 0x6
 2554 00e6 9742     		.uleb128 0x2117
 2555 00e8 0C       		.uleb128 0xc
 2556 00e9 01       		.uleb128 0x1
 2557 00ea 13       		.uleb128 0x13
 2558 00eb 00       		.byte	0
 2559 00ec 00       		.byte	0
 2560 00ed 12       		.uleb128 0x12
 2561 00ee 05       		.uleb128 0x5
 2562 00ef 00       		.byte	0
 2563 00f0 03       		.uleb128 0x3
 2564 00f1 0E       		.uleb128 0xe
 2565 00f2 3A       		.uleb128 0x3a
 2566 00f3 0B       		.uleb128 0xb
 2567 00f4 3B       		.uleb128 0x3b
 2568 00f5 05       		.uleb128 0x5
 2569 00f6 49       		.uleb128 0x49
 2570 00f7 13       		.uleb128 0x13
 2571 00f8 02       		.uleb128 0x2
 2572 00f9 06       		.uleb128 0x6
 2573 00fa 00       		.byte	0
 2574 00fb 00       		.byte	0
 2575 00fc 13       		.uleb128 0x13
 2576 00fd 898201   		.uleb128 0x4109
ARM GAS  C:\Users\Luke\AppData\Local\Temp\ccuzhVDD.s 			page 71


 2577 0100 01       		.byte	0x1
 2578 0101 11       		.uleb128 0x11
 2579 0102 01       		.uleb128 0x1
 2580 0103 31       		.uleb128 0x31
 2581 0104 13       		.uleb128 0x13
 2582 0105 00       		.byte	0
 2583 0106 00       		.byte	0
 2584 0107 14       		.uleb128 0x14
 2585 0108 05       		.uleb128 0x5
 2586 0109 00       		.byte	0
 2587 010a 03       		.uleb128 0x3
 2588 010b 0E       		.uleb128 0xe
 2589 010c 3A       		.uleb128 0x3a
 2590 010d 0B       		.uleb128 0xb
 2591 010e 3B       		.uleb128 0x3b
 2592 010f 0B       		.uleb128 0xb
 2593 0110 49       		.uleb128 0x49
 2594 0111 13       		.uleb128 0x13
 2595 0112 02       		.uleb128 0x2
 2596 0113 06       		.uleb128 0x6
 2597 0114 00       		.byte	0
 2598 0115 00       		.byte	0
 2599 0116 15       		.uleb128 0x15
 2600 0117 2E       		.uleb128 0x2e
 2601 0118 00       		.byte	0
 2602 0119 3F       		.uleb128 0x3f
 2603 011a 0C       		.uleb128 0xc
 2604 011b 03       		.uleb128 0x3
 2605 011c 0E       		.uleb128 0xe
 2606 011d 3A       		.uleb128 0x3a
 2607 011e 0B       		.uleb128 0xb
 2608 011f 3B       		.uleb128 0x3b
 2609 0120 05       		.uleb128 0x5
 2610 0121 27       		.uleb128 0x27
 2611 0122 0C       		.uleb128 0xc
 2612 0123 11       		.uleb128 0x11
 2613 0124 01       		.uleb128 0x1
 2614 0125 12       		.uleb128 0x12
 2615 0126 01       		.uleb128 0x1
 2616 0127 40       		.uleb128 0x40
 2617 0128 0A       		.uleb128 0xa
 2618 0129 9742     		.uleb128 0x2117
 2619 012b 0C       		.uleb128 0xc
 2620 012c 00       		.byte	0
 2621 012d 00       		.byte	0
 2622 012e 16       		.uleb128 0x16
 2623 012f 2E       		.uleb128 0x2e
 2624 0130 01       		.byte	0x1
 2625 0131 3F       		.uleb128 0x3f
 2626 0132 0C       		.uleb128 0xc
 2627 0133 03       		.uleb128 0x3
 2628 0134 0E       		.uleb128 0xe
 2629 0135 3A       		.uleb128 0x3a
 2630 0136 0B       		.uleb128 0xb
 2631 0137 3B       		.uleb128 0x3b
 2632 0138 05       		.uleb128 0x5
 2633 0139 27       		.uleb128 0x27
ARM GAS  C:\Users\Luke\AppData\Local\Temp\ccuzhVDD.s 			page 72


 2634 013a 0C       		.uleb128 0xc
 2635 013b 49       		.uleb128 0x49
 2636 013c 13       		.uleb128 0x13
 2637 013d 11       		.uleb128 0x11
 2638 013e 01       		.uleb128 0x1
 2639 013f 12       		.uleb128 0x12
 2640 0140 01       		.uleb128 0x1
 2641 0141 40       		.uleb128 0x40
 2642 0142 0A       		.uleb128 0xa
 2643 0143 9742     		.uleb128 0x2117
 2644 0145 0C       		.uleb128 0xc
 2645 0146 01       		.uleb128 0x1
 2646 0147 13       		.uleb128 0x13
 2647 0148 00       		.byte	0
 2648 0149 00       		.byte	0
 2649 014a 17       		.uleb128 0x17
 2650 014b 34       		.uleb128 0x34
 2651 014c 00       		.byte	0
 2652 014d 03       		.uleb128 0x3
 2653 014e 08       		.uleb128 0x8
 2654 014f 3A       		.uleb128 0x3a
 2655 0150 0B       		.uleb128 0xb
 2656 0151 3B       		.uleb128 0x3b
 2657 0152 05       		.uleb128 0x5
 2658 0153 49       		.uleb128 0x49
 2659 0154 13       		.uleb128 0x13
 2660 0155 02       		.uleb128 0x2
 2661 0156 06       		.uleb128 0x6
 2662 0157 00       		.byte	0
 2663 0158 00       		.byte	0
 2664 0159 18       		.uleb128 0x18
 2665 015a 2E       		.uleb128 0x2e
 2666 015b 00       		.byte	0
 2667 015c 3F       		.uleb128 0x3f
 2668 015d 0C       		.uleb128 0xc
 2669 015e 03       		.uleb128 0x3
 2670 015f 0E       		.uleb128 0xe
 2671 0160 3A       		.uleb128 0x3a
 2672 0161 0B       		.uleb128 0xb
 2673 0162 3B       		.uleb128 0x3b
 2674 0163 05       		.uleb128 0x5
 2675 0164 27       		.uleb128 0x27
 2676 0165 0C       		.uleb128 0xc
 2677 0166 49       		.uleb128 0x49
 2678 0167 13       		.uleb128 0x13
 2679 0168 11       		.uleb128 0x11
 2680 0169 01       		.uleb128 0x1
 2681 016a 12       		.uleb128 0x12
 2682 016b 01       		.uleb128 0x1
 2683 016c 40       		.uleb128 0x40
 2684 016d 0A       		.uleb128 0xa
 2685 016e 9742     		.uleb128 0x2117
 2686 0170 0C       		.uleb128 0xc
 2687 0171 00       		.byte	0
 2688 0172 00       		.byte	0
 2689 0173 19       		.uleb128 0x19
 2690 0174 34       		.uleb128 0x34
ARM GAS  C:\Users\Luke\AppData\Local\Temp\ccuzhVDD.s 			page 73


 2691 0175 00       		.byte	0
 2692 0176 03       		.uleb128 0x3
 2693 0177 0E       		.uleb128 0xe
 2694 0178 3A       		.uleb128 0x3a
 2695 0179 0B       		.uleb128 0xb
 2696 017a 3B       		.uleb128 0x3b
 2697 017b 05       		.uleb128 0x5
 2698 017c 49       		.uleb128 0x49
 2699 017d 13       		.uleb128 0x13
 2700 017e 02       		.uleb128 0x2
 2701 017f 06       		.uleb128 0x6
 2702 0180 00       		.byte	0
 2703 0181 00       		.byte	0
 2704 0182 1A       		.uleb128 0x1a
 2705 0183 34       		.uleb128 0x34
 2706 0184 00       		.byte	0
 2707 0185 03       		.uleb128 0x3
 2708 0186 08       		.uleb128 0x8
 2709 0187 3A       		.uleb128 0x3a
 2710 0188 0B       		.uleb128 0xb
 2711 0189 3B       		.uleb128 0x3b
 2712 018a 05       		.uleb128 0x5
 2713 018b 49       		.uleb128 0x49
 2714 018c 13       		.uleb128 0x13
 2715 018d 00       		.byte	0
 2716 018e 00       		.byte	0
 2717 018f 1B       		.uleb128 0x1b
 2718 0190 26       		.uleb128 0x26
 2719 0191 00       		.byte	0
 2720 0192 49       		.uleb128 0x49
 2721 0193 13       		.uleb128 0x13
 2722 0194 00       		.byte	0
 2723 0195 00       		.byte	0
 2724 0196 1C       		.uleb128 0x1c
 2725 0197 2E       		.uleb128 0x2e
 2726 0198 01       		.byte	0x1
 2727 0199 3F       		.uleb128 0x3f
 2728 019a 0C       		.uleb128 0xc
 2729 019b 03       		.uleb128 0x3
 2730 019c 0E       		.uleb128 0xe
 2731 019d 3A       		.uleb128 0x3a
 2732 019e 0B       		.uleb128 0xb
 2733 019f 3B       		.uleb128 0x3b
 2734 01a0 05       		.uleb128 0x5
 2735 01a1 27       		.uleb128 0x27
 2736 01a2 0C       		.uleb128 0xc
 2737 01a3 11       		.uleb128 0x11
 2738 01a4 01       		.uleb128 0x1
 2739 01a5 12       		.uleb128 0x12
 2740 01a6 01       		.uleb128 0x1
 2741 01a7 40       		.uleb128 0x40
 2742 01a8 0A       		.uleb128 0xa
 2743 01a9 9742     		.uleb128 0x2117
 2744 01ab 0C       		.uleb128 0xc
 2745 01ac 01       		.uleb128 0x1
 2746 01ad 13       		.uleb128 0x13
 2747 01ae 00       		.byte	0
ARM GAS  C:\Users\Luke\AppData\Local\Temp\ccuzhVDD.s 			page 74


 2748 01af 00       		.byte	0
 2749 01b0 1D       		.uleb128 0x1d
 2750 01b1 2E       		.uleb128 0x2e
 2751 01b2 01       		.byte	0x1
 2752 01b3 3F       		.uleb128 0x3f
 2753 01b4 0C       		.uleb128 0xc
 2754 01b5 03       		.uleb128 0x3
 2755 01b6 0E       		.uleb128 0xe
 2756 01b7 3A       		.uleb128 0x3a
 2757 01b8 0B       		.uleb128 0xb
 2758 01b9 3B       		.uleb128 0x3b
 2759 01ba 05       		.uleb128 0x5
 2760 01bb 27       		.uleb128 0x27
 2761 01bc 0C       		.uleb128 0xc
 2762 01bd 49       		.uleb128 0x49
 2763 01be 13       		.uleb128 0x13
 2764 01bf 11       		.uleb128 0x11
 2765 01c0 01       		.uleb128 0x1
 2766 01c1 12       		.uleb128 0x12
 2767 01c2 01       		.uleb128 0x1
 2768 01c3 40       		.uleb128 0x40
 2769 01c4 06       		.uleb128 0x6
 2770 01c5 9742     		.uleb128 0x2117
 2771 01c7 0C       		.uleb128 0xc
 2772 01c8 01       		.uleb128 0x1
 2773 01c9 13       		.uleb128 0x13
 2774 01ca 00       		.byte	0
 2775 01cb 00       		.byte	0
 2776 01cc 1E       		.uleb128 0x1e
 2777 01cd 05       		.uleb128 0x5
 2778 01ce 00       		.byte	0
 2779 01cf 03       		.uleb128 0x3
 2780 01d0 0E       		.uleb128 0xe
 2781 01d1 3A       		.uleb128 0x3a
 2782 01d2 0B       		.uleb128 0xb
 2783 01d3 3B       		.uleb128 0x3b
 2784 01d4 05       		.uleb128 0x5
 2785 01d5 49       		.uleb128 0x49
 2786 01d6 13       		.uleb128 0x13
 2787 01d7 02       		.uleb128 0x2
 2788 01d8 0A       		.uleb128 0xa
 2789 01d9 00       		.byte	0
 2790 01da 00       		.byte	0
 2791 01db 1F       		.uleb128 0x1f
 2792 01dc 34       		.uleb128 0x34
 2793 01dd 00       		.byte	0
 2794 01de 03       		.uleb128 0x3
 2795 01df 0E       		.uleb128 0xe
 2796 01e0 3A       		.uleb128 0x3a
 2797 01e1 0B       		.uleb128 0xb
 2798 01e2 3B       		.uleb128 0x3b
 2799 01e3 0B       		.uleb128 0xb
 2800 01e4 49       		.uleb128 0x49
 2801 01e5 13       		.uleb128 0x13
 2802 01e6 3F       		.uleb128 0x3f
 2803 01e7 0C       		.uleb128 0xc
 2804 01e8 02       		.uleb128 0x2
ARM GAS  C:\Users\Luke\AppData\Local\Temp\ccuzhVDD.s 			page 75


 2805 01e9 0A       		.uleb128 0xa
 2806 01ea 00       		.byte	0
 2807 01eb 00       		.byte	0
 2808 01ec 20       		.uleb128 0x20
 2809 01ed 34       		.uleb128 0x34
 2810 01ee 00       		.byte	0
 2811 01ef 03       		.uleb128 0x3
 2812 01f0 0E       		.uleb128 0xe
 2813 01f1 3A       		.uleb128 0x3a
 2814 01f2 0B       		.uleb128 0xb
 2815 01f3 3B       		.uleb128 0x3b
 2816 01f4 05       		.uleb128 0x5
 2817 01f5 49       		.uleb128 0x49
 2818 01f6 13       		.uleb128 0x13
 2819 01f7 3F       		.uleb128 0x3f
 2820 01f8 0C       		.uleb128 0xc
 2821 01f9 3C       		.uleb128 0x3c
 2822 01fa 0C       		.uleb128 0xc
 2823 01fb 00       		.byte	0
 2824 01fc 00       		.byte	0
 2825 01fd 21       		.uleb128 0x21
 2826 01fe 34       		.uleb128 0x34
 2827 01ff 00       		.byte	0
 2828 0200 03       		.uleb128 0x3
 2829 0201 0E       		.uleb128 0xe
 2830 0202 3A       		.uleb128 0x3a
 2831 0203 0B       		.uleb128 0xb
 2832 0204 3B       		.uleb128 0x3b
 2833 0205 0B       		.uleb128 0xb
 2834 0206 49       		.uleb128 0x49
 2835 0207 13       		.uleb128 0x13
 2836 0208 3F       		.uleb128 0x3f
 2837 0209 0C       		.uleb128 0xc
 2838 020a 3C       		.uleb128 0x3c
 2839 020b 0C       		.uleb128 0xc
 2840 020c 00       		.byte	0
 2841 020d 00       		.byte	0
 2842 020e 22       		.uleb128 0x22
 2843 020f 01       		.uleb128 0x1
 2844 0210 01       		.byte	0x1
 2845 0211 49       		.uleb128 0x49
 2846 0212 13       		.uleb128 0x13
 2847 0213 01       		.uleb128 0x1
 2848 0214 13       		.uleb128 0x13
 2849 0215 00       		.byte	0
 2850 0216 00       		.byte	0
 2851 0217 23       		.uleb128 0x23
 2852 0218 21       		.uleb128 0x21
 2853 0219 00       		.byte	0
 2854 021a 49       		.uleb128 0x49
 2855 021b 13       		.uleb128 0x13
 2856 021c 2F       		.uleb128 0x2f
 2857 021d 0B       		.uleb128 0xb
 2858 021e 00       		.byte	0
 2859 021f 00       		.byte	0
 2860 0220 24       		.uleb128 0x24
 2861 0221 2E       		.uleb128 0x2e
ARM GAS  C:\Users\Luke\AppData\Local\Temp\ccuzhVDD.s 			page 76


 2862 0222 00       		.byte	0
 2863 0223 3F       		.uleb128 0x3f
 2864 0224 0C       		.uleb128 0xc
 2865 0225 03       		.uleb128 0x3
 2866 0226 0E       		.uleb128 0xe
 2867 0227 3A       		.uleb128 0x3a
 2868 0228 0B       		.uleb128 0xb
 2869 0229 3B       		.uleb128 0x3b
 2870 022a 0B       		.uleb128 0xb
 2871 022b 27       		.uleb128 0x27
 2872 022c 0C       		.uleb128 0xc
 2873 022d 49       		.uleb128 0x49
 2874 022e 13       		.uleb128 0x13
 2875 022f 3C       		.uleb128 0x3c
 2876 0230 0C       		.uleb128 0xc
 2877 0231 00       		.byte	0
 2878 0232 00       		.byte	0
 2879 0233 25       		.uleb128 0x25
 2880 0234 2E       		.uleb128 0x2e
 2881 0235 01       		.byte	0x1
 2882 0236 3F       		.uleb128 0x3f
 2883 0237 0C       		.uleb128 0xc
 2884 0238 03       		.uleb128 0x3
 2885 0239 0E       		.uleb128 0xe
 2886 023a 3A       		.uleb128 0x3a
 2887 023b 0B       		.uleb128 0xb
 2888 023c 3B       		.uleb128 0x3b
 2889 023d 0B       		.uleb128 0xb
 2890 023e 27       		.uleb128 0x27
 2891 023f 0C       		.uleb128 0xc
 2892 0240 3C       		.uleb128 0x3c
 2893 0241 0C       		.uleb128 0xc
 2894 0242 01       		.uleb128 0x1
 2895 0243 13       		.uleb128 0x13
 2896 0244 00       		.byte	0
 2897 0245 00       		.byte	0
 2898 0246 26       		.uleb128 0x26
 2899 0247 05       		.uleb128 0x5
 2900 0248 00       		.byte	0
 2901 0249 49       		.uleb128 0x49
 2902 024a 13       		.uleb128 0x13
 2903 024b 00       		.byte	0
 2904 024c 00       		.byte	0
 2905 024d 27       		.uleb128 0x27
 2906 024e 2E       		.uleb128 0x2e
 2907 024f 01       		.byte	0x1
 2908 0250 3F       		.uleb128 0x3f
 2909 0251 0C       		.uleb128 0xc
 2910 0252 03       		.uleb128 0x3
 2911 0253 0E       		.uleb128 0xe
 2912 0254 3A       		.uleb128 0x3a
 2913 0255 0B       		.uleb128 0xb
 2914 0256 3B       		.uleb128 0x3b
 2915 0257 0B       		.uleb128 0xb
 2916 0258 27       		.uleb128 0x27
 2917 0259 0C       		.uleb128 0xc
 2918 025a 49       		.uleb128 0x49
ARM GAS  C:\Users\Luke\AppData\Local\Temp\ccuzhVDD.s 			page 77


 2919 025b 13       		.uleb128 0x13
 2920 025c 3C       		.uleb128 0x3c
 2921 025d 0C       		.uleb128 0xc
 2922 025e 01       		.uleb128 0x1
 2923 025f 13       		.uleb128 0x13
 2924 0260 00       		.byte	0
 2925 0261 00       		.byte	0
 2926 0262 28       		.uleb128 0x28
 2927 0263 2E       		.uleb128 0x2e
 2928 0264 01       		.byte	0x1
 2929 0265 3F       		.uleb128 0x3f
 2930 0266 0C       		.uleb128 0xc
 2931 0267 03       		.uleb128 0x3
 2932 0268 0E       		.uleb128 0xe
 2933 0269 3A       		.uleb128 0x3a
 2934 026a 0B       		.uleb128 0xb
 2935 026b 3B       		.uleb128 0x3b
 2936 026c 0B       		.uleb128 0xb
 2937 026d 27       		.uleb128 0x27
 2938 026e 0C       		.uleb128 0xc
 2939 026f 3C       		.uleb128 0x3c
 2940 0270 0C       		.uleb128 0xc
 2941 0271 00       		.byte	0
 2942 0272 00       		.byte	0
 2943 0273 00       		.byte	0
 2944              		.section	.debug_loc,"",%progbits
 2945              	.Ldebug_loc0:
 2946              	.LLST0:
 2947 0000 00000000 		.4byte	.LFB1
 2948 0004 02000000 		.4byte	.LCFI0
 2949 0008 0200     		.2byte	0x2
 2950 000a 7D       		.byte	0x7d
 2951 000b 00       		.sleb128 0
 2952 000c 02000000 		.4byte	.LCFI0
 2953 0010 28010000 		.4byte	.LFE1
 2954 0014 0200     		.2byte	0x2
 2955 0016 7D       		.byte	0x7d
 2956 0017 18       		.sleb128 24
 2957 0018 00000000 		.4byte	0
 2958 001c 00000000 		.4byte	0
 2959              	.LLST1:
 2960 0020 0A000000 		.4byte	.LVL1
 2961 0024 12000000 		.4byte	.LVL2
 2962 0028 0100     		.2byte	0x1
 2963 002a 50       		.byte	0x50
 2964 002b 12000000 		.4byte	.LVL2
 2965 002f 28010000 		.4byte	.LFE1
 2966 0033 0100     		.2byte	0x1
 2967 0035 57       		.byte	0x57
 2968 0036 00000000 		.4byte	0
 2969 003a 00000000 		.4byte	0
 2970              	.LLST2:
 2971 003e 00000000 		.4byte	.LFB2
 2972 0042 02000000 		.4byte	.LCFI1
 2973 0046 0200     		.2byte	0x2
 2974 0048 7D       		.byte	0x7d
 2975 0049 00       		.sleb128 0
ARM GAS  C:\Users\Luke\AppData\Local\Temp\ccuzhVDD.s 			page 78


 2976 004a 02000000 		.4byte	.LCFI1
 2977 004e 98000000 		.4byte	.LFE2
 2978 0052 0200     		.2byte	0x2
 2979 0054 7D       		.byte	0x7d
 2980 0055 08       		.sleb128 8
 2981 0056 00000000 		.4byte	0
 2982 005a 00000000 		.4byte	0
 2983              	.LLST3:
 2984 005e 00000000 		.4byte	.LVL20
 2985 0062 38000000 		.4byte	.LVL24
 2986 0066 0100     		.2byte	0x1
 2987 0068 50       		.byte	0x50
 2988 0069 38000000 		.4byte	.LVL24
 2989 006d 3A000000 		.4byte	.LVL25
 2990 0071 0200     		.2byte	0x2
 2991 0073 72       		.byte	0x72
 2992 0074 00       		.sleb128 0
 2993 0075 5D000000 		.4byte	.LVL26-1
 2994 0079 98000000 		.4byte	.LFE2
 2995 007d 0400     		.2byte	0x4
 2996 007f F3       		.byte	0xf3
 2997 0080 01       		.uleb128 0x1
 2998 0081 50       		.byte	0x50
 2999 0082 9F       		.byte	0x9f
 3000 0083 00000000 		.4byte	0
 3001 0087 00000000 		.4byte	0
 3002              	.LLST4:
 3003 008b 00000000 		.4byte	.LVL20
 3004 008f 28000000 		.4byte	.LVL21
 3005 0093 0100     		.2byte	0x1
 3006 0095 51       		.byte	0x51
 3007 0096 28000000 		.4byte	.LVL21
 3008 009a 2A000000 		.4byte	.LVL22
 3009 009e 0400     		.2byte	0x4
 3010 00a0 F3       		.byte	0xf3
 3011 00a1 01       		.uleb128 0x1
 3012 00a2 51       		.byte	0x51
 3013 00a3 9F       		.byte	0x9f
 3014 00a4 2A000000 		.4byte	.LVL22
 3015 00a8 2C000000 		.4byte	.LVL23
 3016 00ac 0100     		.2byte	0x1
 3017 00ae 51       		.byte	0x51
 3018 00af 2C000000 		.4byte	.LVL23
 3019 00b3 98000000 		.4byte	.LFE2
 3020 00b7 0400     		.2byte	0x4
 3021 00b9 F3       		.byte	0xf3
 3022 00ba 01       		.uleb128 0x1
 3023 00bb 51       		.byte	0x51
 3024 00bc 9F       		.byte	0x9f
 3025 00bd 00000000 		.4byte	0
 3026 00c1 00000000 		.4byte	0
 3027              	.LLST5:
 3028 00c5 00000000 		.4byte	.LFB0
 3029 00c9 02000000 		.4byte	.LCFI2
 3030 00cd 0200     		.2byte	0x2
 3031 00cf 7D       		.byte	0x7d
 3032 00d0 00       		.sleb128 0
ARM GAS  C:\Users\Luke\AppData\Local\Temp\ccuzhVDD.s 			page 79


 3033 00d1 02000000 		.4byte	.LCFI2
 3034 00d5 24000000 		.4byte	.LFE0
 3035 00d9 0200     		.2byte	0x2
 3036 00db 7D       		.byte	0x7d
 3037 00dc 10       		.sleb128 16
 3038 00dd 00000000 		.4byte	0
 3039 00e1 00000000 		.4byte	0
 3040              	.LLST6:
 3041 00e5 00000000 		.4byte	.LVL27
 3042 00e9 0F000000 		.4byte	.LVL28-1
 3043 00ed 0100     		.2byte	0x1
 3044 00ef 50       		.byte	0x50
 3045 00f0 0F000000 		.4byte	.LVL28-1
 3046 00f4 24000000 		.4byte	.LFE0
 3047 00f8 0400     		.2byte	0x4
 3048 00fa F3       		.byte	0xf3
 3049 00fb 01       		.uleb128 0x1
 3050 00fc 50       		.byte	0x50
 3051 00fd 9F       		.byte	0x9f
 3052 00fe 00000000 		.4byte	0
 3053 0102 00000000 		.4byte	0
 3054              	.LLST7:
 3055 0106 00000000 		.4byte	.LVL27
 3056 010a 0F000000 		.4byte	.LVL28-1
 3057 010e 0100     		.2byte	0x1
 3058 0110 51       		.byte	0x51
 3059 0111 0F000000 		.4byte	.LVL28-1
 3060 0115 24000000 		.4byte	.LFE0
 3061 0119 0400     		.2byte	0x4
 3062 011b F3       		.byte	0xf3
 3063 011c 01       		.uleb128 0x1
 3064 011d 51       		.byte	0x51
 3065 011e 9F       		.byte	0x9f
 3066 011f 00000000 		.4byte	0
 3067 0123 00000000 		.4byte	0
 3068              	.LLST8:
 3069 0127 04000000 		.4byte	.LVL30
 3070 012b 0E000000 		.4byte	.LVL31
 3071 012f 0100     		.2byte	0x1
 3072 0131 50       		.byte	0x50
 3073 0132 00000000 		.4byte	0
 3074 0136 00000000 		.4byte	0
 3075              	.LLST9:
 3076 013a 00000000 		.4byte	.LVL32
 3077 013e 0A000000 		.4byte	.LVL33
 3078 0142 0200     		.2byte	0x2
 3079 0144 30       		.byte	0x30
 3080 0145 9F       		.byte	0x9f
 3081 0146 0A000000 		.4byte	.LVL33
 3082 014a 14000000 		.4byte	.LFE7
 3083 014e 0100     		.2byte	0x1
 3084 0150 50       		.byte	0x50
 3085 0151 00000000 		.4byte	0
 3086 0155 00000000 		.4byte	0
 3087              	.LLST10:
 3088 0159 00000000 		.4byte	.LVL35
 3089 015d 04000000 		.4byte	.LVL36
ARM GAS  C:\Users\Luke\AppData\Local\Temp\ccuzhVDD.s 			page 80


 3090 0161 0100     		.2byte	0x1
 3091 0163 50       		.byte	0x50
 3092 0164 04000000 		.4byte	.LVL36
 3093 0168 0C000000 		.4byte	.LFE8
 3094 016c 0400     		.2byte	0x4
 3095 016e F3       		.byte	0xf3
 3096 016f 01       		.uleb128 0x1
 3097 0170 50       		.byte	0x50
 3098 0171 9F       		.byte	0x9f
 3099 0172 00000000 		.4byte	0
 3100 0176 00000000 		.4byte	0
 3101              	.LLST11:
 3102 017a 00000000 		.4byte	.LVL37
 3103 017e 08000000 		.4byte	.LVL38
 3104 0182 0100     		.2byte	0x1
 3105 0184 50       		.byte	0x50
 3106 0185 08000000 		.4byte	.LVL38
 3107 0189 10000000 		.4byte	.LFE9
 3108 018d 0400     		.2byte	0x4
 3109 018f F3       		.byte	0xf3
 3110 0190 01       		.uleb128 0x1
 3111 0191 50       		.byte	0x50
 3112 0192 9F       		.byte	0x9f
 3113 0193 00000000 		.4byte	0
 3114 0197 00000000 		.4byte	0
 3115              	.LLST12:
 3116 019b 00000000 		.4byte	.LVL39
 3117 019f 02000000 		.4byte	.LVL40
 3118 01a3 0100     		.2byte	0x1
 3119 01a5 50       		.byte	0x50
 3120 01a6 02000000 		.4byte	.LVL40
 3121 01aa 2C000000 		.4byte	.LFE10
 3122 01ae 0400     		.2byte	0x4
 3123 01b0 F3       		.byte	0xf3
 3124 01b1 01       		.uleb128 0x1
 3125 01b2 50       		.byte	0x50
 3126 01b3 9F       		.byte	0x9f
 3127 01b4 00000000 		.4byte	0
 3128 01b8 00000000 		.4byte	0
 3129              	.LLST13:
 3130 01bc 08000000 		.4byte	.LVL41
 3131 01c0 0E000000 		.4byte	.LVL42
 3132 01c4 0500     		.2byte	0x5
 3133 01c6 73       		.byte	0x73
 3134 01c7 00       		.sleb128 0
 3135 01c8 34       		.byte	0x34
 3136 01c9 24       		.byte	0x24
 3137 01ca 9F       		.byte	0x9f
 3138 01cb 0E000000 		.4byte	.LVL42
 3139 01cf 10000000 		.4byte	.LVL43
 3140 01d3 0500     		.2byte	0x5
 3141 01d5 70       		.byte	0x70
 3142 01d6 00       		.sleb128 0
 3143 01d7 34       		.byte	0x34
 3144 01d8 24       		.byte	0x24
 3145 01d9 9F       		.byte	0x9f
 3146 01da 00000000 		.4byte	0
ARM GAS  C:\Users\Luke\AppData\Local\Temp\ccuzhVDD.s 			page 81


 3147 01de 00000000 		.4byte	0
 3148              	.LLST14:
 3149 01e2 00000000 		.4byte	.LVL39
 3150 01e6 10000000 		.4byte	.LVL43
 3151 01ea 0200     		.2byte	0x2
 3152 01ec 30       		.byte	0x30
 3153 01ed 9F       		.byte	0x9f
 3154 01ee 10000000 		.4byte	.LVL43
 3155 01f2 1C000000 		.4byte	.LVL44
 3156 01f6 0800     		.2byte	0x8
 3157 01f8 70       		.byte	0x70
 3158 01f9 00       		.sleb128 0
 3159 01fa 3F       		.byte	0x3f
 3160 01fb 1A       		.byte	0x1a
 3161 01fc 08       		.byte	0x8
 3162 01fd FF       		.byte	0xff
 3163 01fe 1A       		.byte	0x1a
 3164 01ff 9F       		.byte	0x9f
 3165 0200 1C000000 		.4byte	.LVL44
 3166 0204 20000000 		.4byte	.LVL45
 3167 0208 0100     		.2byte	0x1
 3168 020a 50       		.byte	0x50
 3169 020b 20000000 		.4byte	.LVL45
 3170 020f 22000000 		.4byte	.LVL46
 3171 0213 0100     		.2byte	0x1
 3172 0215 51       		.byte	0x51
 3173 0216 22000000 		.4byte	.LVL46
 3174 021a 24000000 		.4byte	.LVL47
 3175 021e 0200     		.2byte	0x2
 3176 0220 30       		.byte	0x30
 3177 0221 9F       		.byte	0x9f
 3178 0222 24000000 		.4byte	.LVL47
 3179 0226 2C000000 		.4byte	.LFE10
 3180 022a 0100     		.2byte	0x1
 3181 022c 50       		.byte	0x50
 3182 022d 00000000 		.4byte	0
 3183 0231 00000000 		.4byte	0
 3184              	.LLST15:
 3185 0235 00000000 		.4byte	.LFB11
 3186 0239 08000000 		.4byte	.LCFI3
 3187 023d 0200     		.2byte	0x2
 3188 023f 7D       		.byte	0x7d
 3189 0240 00       		.sleb128 0
 3190 0241 08000000 		.4byte	.LCFI3
 3191 0245 7C000000 		.4byte	.LFE11
 3192 0249 0200     		.2byte	0x2
 3193 024b 7D       		.byte	0x7d
 3194 024c 14       		.sleb128 20
 3195 024d 00000000 		.4byte	0
 3196 0251 00000000 		.4byte	0
 3197              	.LLST16:
 3198 0255 00000000 		.4byte	.LVL48
 3199 0259 4E000000 		.4byte	.LVL56
 3200 025d 0100     		.2byte	0x1
 3201 025f 50       		.byte	0x50
 3202 0260 4E000000 		.4byte	.LVL56
 3203 0264 5A000000 		.4byte	.LVL57
ARM GAS  C:\Users\Luke\AppData\Local\Temp\ccuzhVDD.s 			page 82


 3204 0268 0400     		.2byte	0x4
 3205 026a F3       		.byte	0xf3
 3206 026b 01       		.uleb128 0x1
 3207 026c 50       		.byte	0x50
 3208 026d 9F       		.byte	0x9f
 3209 026e 5A000000 		.4byte	.LVL57
 3210 0272 7C000000 		.4byte	.LFE11
 3211 0276 0100     		.2byte	0x1
 3212 0278 50       		.byte	0x50
 3213 0279 00000000 		.4byte	0
 3214 027d 00000000 		.4byte	0
 3215              	.LLST17:
 3216 0281 00000000 		.4byte	.LVL48
 3217 0285 4A000000 		.4byte	.LVL55
 3218 0289 0100     		.2byte	0x1
 3219 028b 51       		.byte	0x51
 3220 028c 4A000000 		.4byte	.LVL55
 3221 0290 5A000000 		.4byte	.LVL57
 3222 0294 0400     		.2byte	0x4
 3223 0296 F3       		.byte	0xf3
 3224 0297 01       		.uleb128 0x1
 3225 0298 51       		.byte	0x51
 3226 0299 9F       		.byte	0x9f
 3227 029a 5A000000 		.4byte	.LVL57
 3228 029e 7C000000 		.4byte	.LFE11
 3229 02a2 0100     		.2byte	0x1
 3230 02a4 51       		.byte	0x51
 3231 02a5 00000000 		.4byte	0
 3232 02a9 00000000 		.4byte	0
 3233              	.LLST18:
 3234 02ad 00000000 		.4byte	.LVL48
 3235 02b1 28000000 		.4byte	.LVL52
 3236 02b5 0100     		.2byte	0x1
 3237 02b7 52       		.byte	0x52
 3238 02b8 28000000 		.4byte	.LVL52
 3239 02bc 2E000000 		.4byte	.LVL53
 3240 02c0 0400     		.2byte	0x4
 3241 02c2 F3       		.byte	0xf3
 3242 02c3 01       		.uleb128 0x1
 3243 02c4 52       		.byte	0x52
 3244 02c5 9F       		.byte	0x9f
 3245 02c6 2E000000 		.4byte	.LVL53
 3246 02ca 48000000 		.4byte	.LVL54
 3247 02ce 0100     		.2byte	0x1
 3248 02d0 52       		.byte	0x52
 3249 02d1 5A000000 		.4byte	.LVL57
 3250 02d5 7C000000 		.4byte	.LFE11
 3251 02d9 0100     		.2byte	0x1
 3252 02db 52       		.byte	0x52
 3253 02dc 00000000 		.4byte	0
 3254 02e0 00000000 		.4byte	0
 3255              	.LLST19:
 3256 02e4 0A000000 		.4byte	.LVL49
 3257 02e8 12000000 		.4byte	.LVL50
 3258 02ec 0500     		.2byte	0x5
 3259 02ee 73       		.byte	0x73
 3260 02ef 00       		.sleb128 0
ARM GAS  C:\Users\Luke\AppData\Local\Temp\ccuzhVDD.s 			page 83


 3261 02f0 34       		.byte	0x34
 3262 02f1 24       		.byte	0x24
 3263 02f2 9F       		.byte	0x9f
 3264 02f3 12000000 		.4byte	.LVL50
 3265 02f7 4E000000 		.4byte	.LVL56
 3266 02fb 0500     		.2byte	0x5
 3267 02fd 70       		.byte	0x70
 3268 02fe 7F       		.sleb128 -1
 3269 02ff 34       		.byte	0x34
 3270 0300 24       		.byte	0x24
 3271 0301 9F       		.byte	0x9f
 3272 0302 5A000000 		.4byte	.LVL57
 3273 0306 6A000000 		.4byte	.LVL58
 3274 030a 0500     		.2byte	0x5
 3275 030c 70       		.byte	0x70
 3276 030d 7F       		.sleb128 -1
 3277 030e 34       		.byte	0x34
 3278 030f 24       		.byte	0x24
 3279 0310 9F       		.byte	0x9f
 3280 0311 00000000 		.4byte	0
 3281 0315 00000000 		.4byte	0
 3282              	.LLST20:
 3283 0319 24000000 		.4byte	.LVL51
 3284 031d 6A000000 		.4byte	.LVL58
 3285 0321 0100     		.2byte	0x1
 3286 0323 55       		.byte	0x55
 3287 0324 00000000 		.4byte	0
 3288 0328 00000000 		.4byte	0
 3289              	.LLST21:
 3290 032c 00000000 		.4byte	.LVL59
 3291 0330 10000000 		.4byte	.LVL61
 3292 0334 0100     		.2byte	0x1
 3293 0336 50       		.byte	0x50
 3294 0337 10000000 		.4byte	.LVL61
 3295 033b 28000000 		.4byte	.LFE13
 3296 033f 0400     		.2byte	0x4
 3297 0341 F3       		.byte	0xf3
 3298 0342 01       		.uleb128 0x1
 3299 0343 50       		.byte	0x50
 3300 0344 9F       		.byte	0x9f
 3301 0345 00000000 		.4byte	0
 3302 0349 00000000 		.4byte	0
 3303              	.LLST22:
 3304 034d 08000000 		.4byte	.LVL60
 3305 0351 16000000 		.4byte	.LVL62
 3306 0355 0500     		.2byte	0x5
 3307 0357 73       		.byte	0x73
 3308 0358 00       		.sleb128 0
 3309 0359 34       		.byte	0x34
 3310 035a 24       		.byte	0x24
 3311 035b 9F       		.byte	0x9f
 3312 035c 00000000 		.4byte	0
 3313 0360 00000000 		.4byte	0
 3314              	.LLST23:
 3315 0364 00000000 		.4byte	.LFB12
 3316 0368 02000000 		.4byte	.LCFI4
 3317 036c 0200     		.2byte	0x2
ARM GAS  C:\Users\Luke\AppData\Local\Temp\ccuzhVDD.s 			page 84


 3318 036e 7D       		.byte	0x7d
 3319 036f 00       		.sleb128 0
 3320 0370 02000000 		.4byte	.LCFI4
 3321 0374 4C000000 		.4byte	.LFE12
 3322 0378 0200     		.2byte	0x2
 3323 037a 7D       		.byte	0x7d
 3324 037b 18       		.sleb128 24
 3325 037c 00000000 		.4byte	0
 3326 0380 00000000 		.4byte	0
 3327              	.LLST24:
 3328 0384 00000000 		.4byte	.LVL63
 3329 0388 1D000000 		.4byte	.LVL68-1
 3330 038c 0100     		.2byte	0x1
 3331 038e 50       		.byte	0x50
 3332 038f 1D000000 		.4byte	.LVL68-1
 3333 0393 3E000000 		.4byte	.LVL73
 3334 0397 0400     		.2byte	0x4
 3335 0399 F3       		.byte	0xf3
 3336 039a 01       		.uleb128 0x1
 3337 039b 50       		.byte	0x50
 3338 039c 9F       		.byte	0x9f
 3339 039d 3E000000 		.4byte	.LVL73
 3340 03a1 44000000 		.4byte	.LVL74
 3341 03a5 0100     		.2byte	0x1
 3342 03a7 50       		.byte	0x50
 3343 03a8 44000000 		.4byte	.LVL74
 3344 03ac 4C000000 		.4byte	.LFE12
 3345 03b0 0400     		.2byte	0x4
 3346 03b2 F3       		.byte	0xf3
 3347 03b3 01       		.uleb128 0x1
 3348 03b4 50       		.byte	0x50
 3349 03b5 9F       		.byte	0x9f
 3350 03b6 00000000 		.4byte	0
 3351 03ba 00000000 		.4byte	0
 3352              	.LLST25:
 3353 03be 00000000 		.4byte	.LVL63
 3354 03c2 08000000 		.4byte	.LVL64
 3355 03c6 0100     		.2byte	0x1
 3356 03c8 51       		.byte	0x51
 3357 03c9 08000000 		.4byte	.LVL64
 3358 03cd 4C000000 		.4byte	.LFE12
 3359 03d1 0100     		.2byte	0x1
 3360 03d3 55       		.byte	0x55
 3361 03d4 00000000 		.4byte	0
 3362 03d8 00000000 		.4byte	0
 3363              	.LLST26:
 3364 03dc 00000000 		.4byte	.LVL63
 3365 03e0 14000000 		.4byte	.LVL66
 3366 03e4 0100     		.2byte	0x1
 3367 03e6 52       		.byte	0x52
 3368 03e7 14000000 		.4byte	.LVL66
 3369 03eb 26000000 		.4byte	.LVL70
 3370 03ef 0400     		.2byte	0x4
 3371 03f1 F3       		.byte	0xf3
 3372 03f2 01       		.uleb128 0x1
 3373 03f3 52       		.byte	0x52
 3374 03f4 9F       		.byte	0x9f
ARM GAS  C:\Users\Luke\AppData\Local\Temp\ccuzhVDD.s 			page 85


 3375 03f5 26000000 		.4byte	.LVL70
 3376 03f9 28000000 		.4byte	.LVL71
 3377 03fd 0100     		.2byte	0x1
 3378 03ff 50       		.byte	0x50
 3379 0400 28000000 		.4byte	.LVL71
 3380 0404 3E000000 		.4byte	.LVL73
 3381 0408 0100     		.2byte	0x1
 3382 040a 54       		.byte	0x54
 3383 040b 3E000000 		.4byte	.LVL73
 3384 040f 44000000 		.4byte	.LVL74
 3385 0413 0100     		.2byte	0x1
 3386 0415 52       		.byte	0x52
 3387 0416 44000000 		.4byte	.LVL74
 3388 041a 4C000000 		.4byte	.LFE12
 3389 041e 0100     		.2byte	0x1
 3390 0420 54       		.byte	0x54
 3391 0421 00000000 		.4byte	0
 3392 0425 00000000 		.4byte	0
 3393              	.LLST27:
 3394 0429 12000000 		.4byte	.LVL65
 3395 042d 1D000000 		.4byte	.LVL68-1
 3396 0431 0500     		.2byte	0x5
 3397 0433 71       		.byte	0x71
 3398 0434 00       		.sleb128 0
 3399 0435 34       		.byte	0x34
 3400 0436 24       		.byte	0x24
 3401 0437 9F       		.byte	0x9f
 3402 0438 1D000000 		.4byte	.LVL68-1
 3403 043c 3E000000 		.4byte	.LVL73
 3404 0440 0500     		.2byte	0x5
 3405 0442 77       		.byte	0x77
 3406 0443 7F       		.sleb128 -1
 3407 0444 34       		.byte	0x34
 3408 0445 24       		.byte	0x24
 3409 0446 9F       		.byte	0x9f
 3410 0447 00000000 		.4byte	0
 3411 044b 00000000 		.4byte	0
 3412              	.LLST28:
 3413 044f 1A000000 		.4byte	.LVL67
 3414 0453 3E000000 		.4byte	.LVL73
 3415 0457 0100     		.2byte	0x1
 3416 0459 56       		.byte	0x56
 3417 045a 00000000 		.4byte	0
 3418 045e 00000000 		.4byte	0
 3419              	.LLST29:
 3420 0462 26000000 		.4byte	.LVL70
 3421 0466 28000000 		.4byte	.LVL71
 3422 046a 0200     		.2byte	0x2
 3423 046c 30       		.byte	0x30
 3424 046d 9F       		.byte	0x9f
 3425 046e 00000000 		.4byte	0
 3426 0472 00000000 		.4byte	0
 3427              	.LLST30:
 3428 0476 1E000000 		.4byte	.LVL68
 3429 047a 24000000 		.4byte	.LVL69
 3430 047e 0100     		.2byte	0x1
 3431 0480 50       		.byte	0x50
ARM GAS  C:\Users\Luke\AppData\Local\Temp\ccuzhVDD.s 			page 86


 3432 0481 00000000 		.4byte	0
 3433 0485 00000000 		.4byte	0
 3434              	.LLST31:
 3435 0489 00000000 		.4byte	.LVL75
 3436 048d 02000000 		.4byte	.LVL76
 3437 0491 0100     		.2byte	0x1
 3438 0493 50       		.byte	0x50
 3439 0494 02000000 		.4byte	.LVL76
 3440 0498 18000000 		.4byte	.LFE14
 3441 049c 0400     		.2byte	0x4
 3442 049e F3       		.byte	0xf3
 3443 049f 01       		.uleb128 0x1
 3444 04a0 50       		.byte	0x50
 3445 04a1 9F       		.byte	0x9f
 3446 04a2 00000000 		.4byte	0
 3447 04a6 00000000 		.4byte	0
 3448              	.LLST32:
 3449 04aa 08000000 		.4byte	.LVL77
 3450 04ae 10000000 		.4byte	.LVL78
 3451 04b2 0500     		.2byte	0x5
 3452 04b4 71       		.byte	0x71
 3453 04b5 00       		.sleb128 0
 3454 04b6 34       		.byte	0x34
 3455 04b7 24       		.byte	0x24
 3456 04b8 9F       		.byte	0x9f
 3457 04b9 00000000 		.4byte	0
 3458 04bd 00000000 		.4byte	0
 3459              	.LLST33:
 3460 04c1 00000000 		.4byte	.LVL80
 3461 04c5 02000000 		.4byte	.LVL81
 3462 04c9 0100     		.2byte	0x1
 3463 04cb 50       		.byte	0x50
 3464 04cc 02000000 		.4byte	.LVL81
 3465 04d0 20000000 		.4byte	.LFE16
 3466 04d4 0400     		.2byte	0x4
 3467 04d6 F3       		.byte	0xf3
 3468 04d7 01       		.uleb128 0x1
 3469 04d8 50       		.byte	0x50
 3470 04d9 9F       		.byte	0x9f
 3471 04da 00000000 		.4byte	0
 3472 04de 00000000 		.4byte	0
 3473              	.LLST34:
 3474 04e2 08000000 		.4byte	.LVL82
 3475 04e6 10000000 		.4byte	.LVL83
 3476 04ea 0500     		.2byte	0x5
 3477 04ec 71       		.byte	0x71
 3478 04ed 00       		.sleb128 0
 3479 04ee 34       		.byte	0x34
 3480 04ef 24       		.byte	0x24
 3481 04f0 9F       		.byte	0x9f
 3482 04f1 00000000 		.4byte	0
 3483 04f5 00000000 		.4byte	0
 3484              	.LLST35:
 3485 04f9 00000000 		.4byte	.LVL80
 3486 04fd 16000000 		.4byte	.LVL84
 3487 0501 0200     		.2byte	0x2
 3488 0503 30       		.byte	0x30
ARM GAS  C:\Users\Luke\AppData\Local\Temp\ccuzhVDD.s 			page 87


 3489 0504 9F       		.byte	0x9f
 3490 0505 16000000 		.4byte	.LVL84
 3491 0509 18000000 		.4byte	.LVL85
 3492 050d 0100     		.2byte	0x1
 3493 050f 52       		.byte	0x52
 3494 0510 18000000 		.4byte	.LVL85
 3495 0514 1A000000 		.4byte	.LVL86
 3496 0518 0200     		.2byte	0x2
 3497 051a 30       		.byte	0x30
 3498 051b 9F       		.byte	0x9f
 3499 051c 1A000000 		.4byte	.LVL86
 3500 0520 20000000 		.4byte	.LFE16
 3501 0524 0100     		.2byte	0x1
 3502 0526 50       		.byte	0x50
 3503 0527 00000000 		.4byte	0
 3504 052b 00000000 		.4byte	0
 3505              	.LLST36:
 3506 052f 00000000 		.4byte	.LVL87
 3507 0533 0A000000 		.4byte	.LVL88
 3508 0537 0100     		.2byte	0x1
 3509 0539 50       		.byte	0x50
 3510 053a 0A000000 		.4byte	.LVL88
 3511 053e 0C000000 		.4byte	.LVL89
 3512 0542 0400     		.2byte	0x4
 3513 0544 F3       		.byte	0xf3
 3514 0545 01       		.uleb128 0x1
 3515 0546 50       		.byte	0x50
 3516 0547 9F       		.byte	0x9f
 3517 0548 0C000000 		.4byte	.LVL89
 3518 054c 10000000 		.4byte	.LVL90
 3519 0550 0100     		.2byte	0x1
 3520 0552 50       		.byte	0x50
 3521 0553 10000000 		.4byte	.LVL90
 3522 0557 18000000 		.4byte	.LFE17
 3523 055b 0400     		.2byte	0x4
 3524 055d F3       		.byte	0xf3
 3525 055e 01       		.uleb128 0x1
 3526 055f 50       		.byte	0x50
 3527 0560 9F       		.byte	0x9f
 3528 0561 00000000 		.4byte	0
 3529 0565 00000000 		.4byte	0
 3530              	.LLST37:
 3531 0569 00000000 		.4byte	.LVL91
 3532 056d 04000000 		.4byte	.LVL92
 3533 0571 0200     		.2byte	0x2
 3534 0573 30       		.byte	0x30
 3535 0574 9F       		.byte	0x9f
 3536 0575 04000000 		.4byte	.LVL92
 3537 0579 08000000 		.4byte	.LVL93
 3538 057d 0900     		.2byte	0x9
 3539 057f 70       		.byte	0x70
 3540 0580 00       		.sleb128 0
 3541 0581 32       		.byte	0x32
 3542 0582 1A       		.byte	0x1a
 3543 0583 48       		.byte	0x48
 3544 0584 24       		.byte	0x24
 3545 0585 30       		.byte	0x30
ARM GAS  C:\Users\Luke\AppData\Local\Temp\ccuzhVDD.s 			page 88


 3546 0586 2E       		.byte	0x2e
 3547 0587 9F       		.byte	0x9f
 3548 0588 00000000 		.4byte	0
 3549 058c 00000000 		.4byte	0
 3550              		.section	.debug_aranges,"",%progbits
 3551 0000 B4000000 		.4byte	0xb4
 3552 0004 0200     		.2byte	0x2
 3553 0006 00000000 		.4byte	.Ldebug_info0
 3554 000a 04       		.byte	0x4
 3555 000b 00       		.byte	0
 3556 000c 0000     		.2byte	0
 3557 000e 0000     		.2byte	0
 3558 0010 00000000 		.4byte	.LFB1
 3559 0014 28010000 		.4byte	.LFE1-.LFB1
 3560 0018 00000000 		.4byte	.LFB2
 3561 001c 98000000 		.4byte	.LFE2-.LFB2
 3562 0020 00000000 		.4byte	.LFB0
 3563 0024 24000000 		.4byte	.LFE0-.LFB0
 3564 0028 00000000 		.4byte	.LFB3
 3565 002c 4C000000 		.4byte	.LFE3-.LFB3
 3566 0030 00000000 		.4byte	.LFB4
 3567 0034 80000000 		.4byte	.LFE4-.LFB4
 3568 0038 00000000 		.4byte	.LFB5
 3569 003c 14000000 		.4byte	.LFE5-.LFB5
 3570 0040 00000000 		.4byte	.LFB6
 3571 0044 0C000000 		.4byte	.LFE6-.LFB6
 3572 0048 00000000 		.4byte	.LFB7
 3573 004c 14000000 		.4byte	.LFE7-.LFB7
 3574 0050 00000000 		.4byte	.LFB8
 3575 0054 0C000000 		.4byte	.LFE8-.LFB8
 3576 0058 00000000 		.4byte	.LFB9
 3577 005c 10000000 		.4byte	.LFE9-.LFB9
 3578 0060 00000000 		.4byte	.LFB10
 3579 0064 2C000000 		.4byte	.LFE10-.LFB10
 3580 0068 00000000 		.4byte	.LFB11
 3581 006c 7C000000 		.4byte	.LFE11-.LFB11
 3582 0070 00000000 		.4byte	.LFB13
 3583 0074 28000000 		.4byte	.LFE13-.LFB13
 3584 0078 00000000 		.4byte	.LFB12
 3585 007c 4C000000 		.4byte	.LFE12-.LFB12
 3586 0080 00000000 		.4byte	.LFB14
 3587 0084 18000000 		.4byte	.LFE14-.LFB14
 3588 0088 00000000 		.4byte	.LFB15
 3589 008c 0C000000 		.4byte	.LFE15-.LFB15
 3590 0090 00000000 		.4byte	.LFB16
 3591 0094 20000000 		.4byte	.LFE16-.LFB16
 3592 0098 00000000 		.4byte	.LFB17
 3593 009c 18000000 		.4byte	.LFE17-.LFB17
 3594 00a0 00000000 		.4byte	.LFB18
 3595 00a4 10000000 		.4byte	.LFE18-.LFB18
 3596 00a8 00000000 		.4byte	.LFB19
 3597 00ac 10000000 		.4byte	.LFE19-.LFB19
 3598 00b0 00000000 		.4byte	0
 3599 00b4 00000000 		.4byte	0
 3600              		.section	.debug_ranges,"",%progbits
 3601              	.Ldebug_ranges0:
 3602 0000 00000000 		.4byte	.LFB1
ARM GAS  C:\Users\Luke\AppData\Local\Temp\ccuzhVDD.s 			page 89


 3603 0004 28010000 		.4byte	.LFE1
 3604 0008 00000000 		.4byte	.LFB2
 3605 000c 98000000 		.4byte	.LFE2
 3606 0010 00000000 		.4byte	.LFB0
 3607 0014 24000000 		.4byte	.LFE0
 3608 0018 00000000 		.4byte	.LFB3
 3609 001c 4C000000 		.4byte	.LFE3
 3610 0020 00000000 		.4byte	.LFB4
 3611 0024 80000000 		.4byte	.LFE4
 3612 0028 00000000 		.4byte	.LFB5
 3613 002c 14000000 		.4byte	.LFE5
 3614 0030 00000000 		.4byte	.LFB6
 3615 0034 0C000000 		.4byte	.LFE6
 3616 0038 00000000 		.4byte	.LFB7
 3617 003c 14000000 		.4byte	.LFE7
 3618 0040 00000000 		.4byte	.LFB8
 3619 0044 0C000000 		.4byte	.LFE8
 3620 0048 00000000 		.4byte	.LFB9
 3621 004c 10000000 		.4byte	.LFE9
 3622 0050 00000000 		.4byte	.LFB10
 3623 0054 2C000000 		.4byte	.LFE10
 3624 0058 00000000 		.4byte	.LFB11
 3625 005c 7C000000 		.4byte	.LFE11
 3626 0060 00000000 		.4byte	.LFB13
 3627 0064 28000000 		.4byte	.LFE13
 3628 0068 00000000 		.4byte	.LFB12
 3629 006c 4C000000 		.4byte	.LFE12
 3630 0070 00000000 		.4byte	.LFB14
 3631 0074 18000000 		.4byte	.LFE14
 3632 0078 00000000 		.4byte	.LFB15
 3633 007c 0C000000 		.4byte	.LFE15
 3634 0080 00000000 		.4byte	.LFB16
 3635 0084 20000000 		.4byte	.LFE16
 3636 0088 00000000 		.4byte	.LFB17
 3637 008c 18000000 		.4byte	.LFE17
 3638 0090 00000000 		.4byte	.LFB18
 3639 0094 10000000 		.4byte	.LFE18
 3640 0098 00000000 		.4byte	.LFB19
 3641 009c 10000000 		.4byte	.LFE19
 3642 00a0 00000000 		.4byte	0
 3643 00a4 00000000 		.4byte	0
 3644              		.section	.debug_line,"",%progbits
 3645              	.Ldebug_line0:
 3646 0000 E0020000 		.section	.debug_str,"MS",%progbits,1
 3646      02007500 
 3646      00000201 
 3646      FB0E0D00 
 3646      01010101 
 3647              	.LASF10:
 3648 0000 75696E74 		.ascii	"uint16\000"
 3648      313600
 3649              	.LASF67:
 3650 0007 55534255 		.ascii	"USBUART_1_interfaceSetting\000"
 3650      4152545F 
 3650      315F696E 
 3650      74657266 
 3650      61636553 
ARM GAS  C:\Users\Luke\AppData\Local\Temp\ccuzhVDD.s 			page 90


 3651              	.LASF61:
 3652 0022 55534255 		.ascii	"USBUART_1_device\000"
 3652      4152545F 
 3652      315F6465 
 3652      76696365 
 3652      00
 3653              	.LASF76:
 3654 0033 433A5C55 		.ascii	"C:\\Users\\Luke\\Desktop\\Laserschutzschaltung.cyds"
 3654      73657273 
 3654      5C4C756B 
 3654      655C4465 
 3654      736B746F 
 3655 0062 6E5C4C61 		.ascii	"n\\Laserschutzschaltung.cydsn\000"
 3655      73657273 
 3655      63687574 
 3655      7A736368 
 3655      616C7475 
 3656              	.LASF29:
 3657 007f 55534255 		.ascii	"USBUART_1_Init\000"
 3657      4152545F 
 3657      315F496E 
 3657      697400
 3658              	.LASF58:
 3659 008e 55534255 		.ascii	"USBUART_1_VBusPresent\000"
 3659      4152545F 
 3659      315F5642 
 3659      75735072 
 3659      6573656E 
 3660              	.LASF39:
 3661 00a4 55534255 		.ascii	"USBUART_1_GetInterfaceSetting\000"
 3661      4152545F 
 3661      315F4765 
 3661      74496E74 
 3661      65726661 
 3662              	.LASF7:
 3663 00c2 6C6F6E67 		.ascii	"long long unsigned int\000"
 3663      206C6F6E 
 3663      6720756E 
 3663      7369676E 
 3663      65642069 
 3664              	.LASF23:
 3665 00d9 61646472 		.ascii	"addr\000"
 3665      00
 3666              	.LASF40:
 3667 00de 696E7465 		.ascii	"interfaceNumber\000"
 3667      72666163 
 3667      654E756D 
 3667      62657200 
 3668              	.LASF42:
 3669 00ee 65704E75 		.ascii	"epNumber\000"
 3669      6D626572 
 3669      00
 3670              	.LASF31:
 3671 00f7 64657669 		.ascii	"device\000"
 3671      636500
 3672              	.LASF6:
 3673 00fe 6C6F6E67 		.ascii	"long long int\000"
ARM GAS  C:\Users\Luke\AppData\Local\Temp\ccuzhVDD.s 			page 91


 3673      206C6F6E 
 3673      6720696E 
 3673      7400
 3674              	.LASF0:
 3675 010c 7369676E 		.ascii	"signed char\000"
 3675      65642063 
 3675      68617200 
 3676              	.LASF48:
 3677 0118 55534255 		.ascii	"USBUART_1_EnableOutEP\000"
 3677      4152545F 
 3677      315F456E 
 3677      61626C65 
 3677      4F757445 
 3678              	.LASF4:
 3679 012e 6C6F6E67 		.ascii	"long int\000"
 3679      20696E74 
 3679      00
 3680              	.LASF9:
 3681 0137 75696E74 		.ascii	"uint8\000"
 3681      3800
 3682              	.LASF22:
 3683 013d 6570546F 		.ascii	"epToggle\000"
 3683      67676C65 
 3683      00
 3684              	.LASF71:
 3685 0146 43794465 		.ascii	"CyDelayUs\000"
 3685      6C617955 
 3685      7300
 3686              	.LASF13:
 3687 0150 646F7562 		.ascii	"double\000"
 3687      6C6500
 3688              	.LASF56:
 3689 0157 706F7765 		.ascii	"powerStatus\000"
 3689      72537461 
 3689      74757300 
 3690              	.LASF64:
 3691 0163 55534255 		.ascii	"USBUART_1_configurationChanged\000"
 3691      4152545F 
 3691      315F636F 
 3691      6E666967 
 3691      75726174 
 3692              	.LASF11:
 3693 0182 75696E74 		.ascii	"uint32\000"
 3693      333200
 3694              	.LASF46:
 3695 0189 70446174 		.ascii	"pData\000"
 3695      6100
 3696              	.LASF51:
 3697 018f 55534255 		.ascii	"USBUART_1_DisableOutEP\000"
 3697      4152545F 
 3697      315F4469 
 3697      7361626C 
 3697      654F7574 
 3698              	.LASF24:
 3699 01a6 65704D6F 		.ascii	"epMode\000"
 3699      646500
 3700              	.LASF41:
ARM GAS  C:\Users\Luke\AppData\Local\Temp\ccuzhVDD.s 			page 92


 3701 01ad 55534255 		.ascii	"USBUART_1_GetEPState\000"
 3701      4152545F 
 3701      315F4765 
 3701      74455053 
 3701      74617465 
 3702              	.LASF28:
 3703 01c2 545F5553 		.ascii	"T_USBUART_1_EP_CTL_BLOCK\000"
 3703      42554152 
 3703      545F315F 
 3703      45505F43 
 3703      544C5F42 
 3704              	.LASF65:
 3705 01db 55534255 		.ascii	"USBUART_1_deviceStatus\000"
 3705      4152545F 
 3705      315F6465 
 3705      76696365 
 3705      53746174 
 3706              	.LASF8:
 3707 01f2 756E7369 		.ascii	"unsigned int\000"
 3707      676E6564 
 3707      20696E74 
 3707      00
 3708              	.LASF5:
 3709 01ff 6C6F6E67 		.ascii	"long unsigned int\000"
 3709      20756E73 
 3709      69676E65 
 3709      6420696E 
 3709      7400
 3710              	.LASF60:
 3711 0211 55534255 		.ascii	"USBUART_1_initVar\000"
 3711      4152545F 
 3711      315F696E 
 3711      69745661 
 3711      7200
 3712              	.LASF55:
 3713 0223 55534255 		.ascii	"USBUART_1_SetPowerStatus\000"
 3713      4152545F 
 3713      315F5365 
 3713      74506F77 
 3713      65725374 
 3714              	.LASF3:
 3715 023c 73686F72 		.ascii	"short unsigned int\000"
 3715      7420756E 
 3715      7369676E 
 3715      65642069 
 3715      6E7400
 3716              	.LASF49:
 3717 024f 55534255 		.ascii	"USBUART_1_ReadOutEP\000"
 3717      4152545F 
 3717      315F5265 
 3717      61644F75 
 3717      74455000 
 3718              	.LASF78:
 3719 0263 4379496E 		.ascii	"CyIntSetVector\000"
 3719      74536574 
 3719      56656374 
 3719      6F7200
ARM GAS  C:\Users\Luke\AppData\Local\Temp\ccuzhVDD.s 			page 93


 3720              	.LASF43:
 3721 0272 55534255 		.ascii	"USBUART_1_GetEPCount\000"
 3721      4152545F 
 3721      315F4765 
 3721      74455043 
 3721      6F756E74 
 3722              	.LASF77:
 3723 0287 4379456E 		.ascii	"CyEnterCriticalSection\000"
 3723      74657243 
 3723      72697469 
 3723      63616C53 
 3723      65637469 
 3724              	.LASF68:
 3725 029e 55534255 		.ascii	"USBUART_1_deviceAddress\000"
 3725      4152545F 
 3725      315F6465 
 3725      76696365 
 3725      41646472 
 3726              	.LASF75:
 3727 02b6 2E5C4765 		.ascii	".\\Generated_Source\\PSoC5\\USBUART_1.c\000"
 3727      6E657261 
 3727      7465645F 
 3727      536F7572 
 3727      63655C50 
 3728              	.LASF27:
 3729 02db 696E7465 		.ascii	"interface\000"
 3729      72666163 
 3729      6500
 3730              	.LASF16:
 3731 02e5 72656733 		.ascii	"reg32\000"
 3731      3200
 3732              	.LASF21:
 3733 02eb 68774570 		.ascii	"hwEpState\000"
 3733      53746174 
 3733      6500
 3734              	.LASF18:
 3735 02f5 73697A65 		.ascii	"sizetype\000"
 3735      74797065 
 3735      00
 3736              	.LASF19:
 3737 02fe 61747472 		.ascii	"attrib\000"
 3737      696200
 3738              	.LASF63:
 3739 0305 55534255 		.ascii	"USBUART_1_configuration\000"
 3739      4152545F 
 3739      315F636F 
 3739      6E666967 
 3739      75726174 
 3740              	.LASF34:
 3741 031d 55534255 		.ascii	"USBUART_1_ReInitComponent\000"
 3741      4152545F 
 3741      315F5265 
 3741      496E6974 
 3741      436F6D70 
 3742              	.LASF73:
 3743 0337 4379496E 		.ascii	"CyIntSetPriority\000"
 3743      74536574 
ARM GAS  C:\Users\Luke\AppData\Local\Temp\ccuzhVDD.s 			page 94


 3743      5072696F 
 3743      72697479 
 3743      00
 3744              	.LASF12:
 3745 0348 666C6F61 		.ascii	"float\000"
 3745      7400
 3746              	.LASF72:
 3747 034e 43794578 		.ascii	"CyExitCriticalSection\000"
 3747      69744372 
 3747      69746963 
 3747      616C5365 
 3747      6374696F 
 3748              	.LASF20:
 3749 0364 61706945 		.ascii	"apiEpState\000"
 3749      70537461 
 3749      746500
 3750              	.LASF33:
 3751 036f 55534255 		.ascii	"USBUART_1_Start\000"
 3751      4152545F 
 3751      315F5374 
 3751      61727400 
 3752              	.LASF79:
 3753 037f 43794465 		.ascii	"CyDelayCycles\000"
 3753      6C617943 
 3753      79636C65 
 3753      7300
 3754              	.LASF59:
 3755 038d 55534255 		.ascii	"USBUART_1_RWUEnabled\000"
 3755      4152545F 
 3755      315F5257 
 3755      55456E61 
 3755      626C6564 
 3756              	.LASF74:
 3757 03a2 474E5520 		.ascii	"GNU C 4.7.3 20130312 (release) [ARM/embedded-4_7-br"
 3757      4320342E 
 3757      372E3320 
 3757      32303133 
 3757      30333132 
 3758 03d5 616E6368 		.ascii	"anch revision 196615]\000"
 3758      20726576 
 3758      6973696F 
 3758      6E203139 
 3758      36363135 
 3759              	.LASF15:
 3760 03eb 72656738 		.ascii	"reg8\000"
 3760      00
 3761              	.LASF1:
 3762 03f0 756E7369 		.ascii	"unsigned char\000"
 3762      676E6564 
 3762      20636861 
 3762      7200
 3763              	.LASF35:
 3764 03fe 55534255 		.ascii	"USBUART_1_Stop\000"
 3764      4152545F 
 3764      315F5374 
 3764      6F7000
 3765              	.LASF2:
ARM GAS  C:\Users\Luke\AppData\Local\Temp\ccuzhVDD.s 			page 95


 3766 040d 73686F72 		.ascii	"short int\000"
 3766      7420696E 
 3766      7400
 3767              	.LASF37:
 3768 0417 55534255 		.ascii	"USBUART_1_CheckActivity\000"
 3768      4152545F 
 3768      315F4368 
 3768      65636B41 
 3768      63746976 
 3769              	.LASF53:
 3770 042f 62537461 		.ascii	"bState\000"
 3770      746500
 3771              	.LASF47:
 3772 0436 6C656E67 		.ascii	"length\000"
 3772      746800
 3773              	.LASF14:
 3774 043d 63686172 		.ascii	"char\000"
 3774      00
 3775              	.LASF32:
 3776 0442 6D6F6465 		.ascii	"mode\000"
 3776      00
 3777              	.LASF17:
 3778 0447 63796973 		.ascii	"cyisraddress\000"
 3778      72616464 
 3778      72657373 
 3778      00
 3779              	.LASF54:
 3780 0454 55534255 		.ascii	"USBUART_1_GetEPAckState\000"
 3780      4152545F 
 3780      315F4765 
 3780      74455041 
 3780      636B5374 
 3781              	.LASF26:
 3782 046c 62756666 		.ascii	"bufferSize\000"
 3782      65725369 
 3782      7A6500
 3783              	.LASF25:
 3784 0477 62756666 		.ascii	"buffOffset\000"
 3784      4F666673 
 3784      657400
 3785              	.LASF30:
 3786 0482 55534255 		.ascii	"USBUART_1_InitComponent\000"
 3786      4152545F 
 3786      315F496E 
 3786      6974436F 
 3786      6D706F6E 
 3787              	.LASF45:
 3788 049a 55534255 		.ascii	"USBUART_1_LoadInEP\000"
 3788      4152545F 
 3788      315F4C6F 
 3788      6164496E 
 3788      455000
 3789              	.LASF36:
 3790 04ad 656E6162 		.ascii	"enableInterrupts\000"
 3790      6C65496E 
 3790      74657272 
 3790      75707473 
ARM GAS  C:\Users\Luke\AppData\Local\Temp\ccuzhVDD.s 			page 96


 3790      00
 3791              	.LASF66:
 3792 04be 55534255 		.ascii	"USBUART_1_interfaceNumber\000"
 3792      4152545F 
 3792      315F696E 
 3792      74657266 
 3792      6163654E 
 3793              	.LASF70:
 3794 04d8 55534255 		.ascii	"USBUART_1_lastPacketSize\000"
 3794      4152545F 
 3794      315F6C61 
 3794      73745061 
 3794      636B6574 
 3795              	.LASF57:
 3796 04f1 55534255 		.ascii	"USBUART_1_GetConfiguration\000"
 3796      4152545F 
 3796      315F4765 
 3796      74436F6E 
 3796      66696775 
 3797              	.LASF62:
 3798 050c 55534255 		.ascii	"USBUART_1_transferState\000"
 3798      4152545F 
 3798      315F7472 
 3798      616E7366 
 3798      65725374 
 3799              	.LASF50:
 3800 0524 78666572 		.ascii	"xferCount\000"
 3800      436F756E 
 3800      7400
 3801              	.LASF52:
 3802 052e 55534255 		.ascii	"USBUART_1_Force\000"
 3802      4152545F 
 3802      315F466F 
 3802      72636500 
 3803              	.LASF69:
 3804 053e 55534255 		.ascii	"USBUART_1_EP\000"
 3804      4152545F 
 3804      315F4550 
 3804      00
 3805              	.LASF44:
 3806 054b 72657375 		.ascii	"result\000"
 3806      6C7400
 3807              	.LASF38:
 3808 0552 55534255 		.ascii	"USBUART_1_IsConfigurationChanged\000"
 3808      4152545F 
 3808      315F4973 
 3808      436F6E66 
 3808      69677572 
 3809              		.ident	"GCC: (GNU Tools for ARM Embedded Processors) 4.7.3 20130312 (release) [ARM/embedded-4_7-br
