ARM GAS  C:\Users\Luke\AppData\Local\Temp\ccuzhVDD.s 			page 1


   1              		.syntax unified
   2              		.cpu cortex-m3
   3              		.fpu softvfp
   4              		.eabi_attribute 20, 1
   5              		.eabi_attribute 21, 1
   6              		.eabi_attribute 23, 3
   7              		.eabi_attribute 24, 1
   8              		.eabi_attribute 25, 1
   9              		.eabi_attribute 26, 1
  10              		.eabi_attribute 30, 4
  11              		.eabi_attribute 34, 1
  12              		.eabi_attribute 18, 4
  13              		.thumb
  14              		.file	"USBUART_1.c"
  15              		.text
  16              	.Ltext0:
  17              		.cfi_sections	.debug_frame
  18              		.section	.text.USBUART_1_Init,"ax",%progbits
  19              		.align	1
  20              		.global	USBUART_1_Init
  21              		.thumb
  22              		.thumb_func
  23              		.type	USBUART_1_Init, %function
  24              	USBUART_1_Init:
  25              	.LFB1:
  26              		.file 1 ".\\Generated_Source\\PSoC5\\USBUART_1.c"
   1:.\Generated_Source\PSoC5/USBUART_1.c **** /*******************************************************************************
   2:.\Generated_Source\PSoC5/USBUART_1.c **** * File Name: USBUART_1.c
   3:.\Generated_Source\PSoC5/USBUART_1.c **** * Version 2.60
   4:.\Generated_Source\PSoC5/USBUART_1.c **** *
   5:.\Generated_Source\PSoC5/USBUART_1.c **** * Description:
   6:.\Generated_Source\PSoC5/USBUART_1.c **** *  API for USBFS Component.
   7:.\Generated_Source\PSoC5/USBUART_1.c **** *
   8:.\Generated_Source\PSoC5/USBUART_1.c **** * Note:
   9:.\Generated_Source\PSoC5/USBUART_1.c **** *  Many of the functions use endpoint number.  RAM arrays are sized with 9
  10:.\Generated_Source\PSoC5/USBUART_1.c **** *  elements so they are indexed directly by epNumber.  The SIE and ARB
  11:.\Generated_Source\PSoC5/USBUART_1.c **** *  registers are indexed by variations of epNumber - 1.
  12:.\Generated_Source\PSoC5/USBUART_1.c **** *
  13:.\Generated_Source\PSoC5/USBUART_1.c **** ********************************************************************************
  14:.\Generated_Source\PSoC5/USBUART_1.c **** * Copyright 2008-2013, Cypress Semiconductor Corporation.  All rights reserved.
  15:.\Generated_Source\PSoC5/USBUART_1.c **** * You may use this file only in accordance with the license, terms, conditions,
  16:.\Generated_Source\PSoC5/USBUART_1.c **** * disclaimers, and limitations in the end user license agreement accompanying
  17:.\Generated_Source\PSoC5/USBUART_1.c **** * the software package with which this file was provided.
  18:.\Generated_Source\PSoC5/USBUART_1.c **** *******************************************************************************/
  19:.\Generated_Source\PSoC5/USBUART_1.c **** 
  20:.\Generated_Source\PSoC5/USBUART_1.c **** #include <CyDmac.h>
  21:.\Generated_Source\PSoC5/USBUART_1.c **** #include "USBUART_1.h"
  22:.\Generated_Source\PSoC5/USBUART_1.c **** #include "USBUART_1_pvt.h"
  23:.\Generated_Source\PSoC5/USBUART_1.c **** #include "USBUART_1_hid.h"
  24:.\Generated_Source\PSoC5/USBUART_1.c **** #if(USBUART_1_DMA1_REMOVE == 0u)
  25:.\Generated_Source\PSoC5/USBUART_1.c ****     #include "USBUART_1_ep1_dma.h"
  26:.\Generated_Source\PSoC5/USBUART_1.c **** #endif   /* End USBUART_1_DMA1_REMOVE */
  27:.\Generated_Source\PSoC5/USBUART_1.c **** #if(USBUART_1_DMA2_REMOVE == 0u)
  28:.\Generated_Source\PSoC5/USBUART_1.c ****     #include "USBUART_1_ep2_dma.h"
  29:.\Generated_Source\PSoC5/USBUART_1.c **** #endif   /* End USBUART_1_DMA2_REMOVE */
  30:.\Generated_Source\PSoC5/USBUART_1.c **** #if(USBUART_1_DMA3_REMOVE == 0u)
  31:.\Generated_Source\PSoC5/USBUART_1.c ****     #include "USBUART_1_ep3_dma.h"
ARM GAS  C:\Users\Luke\AppData\Local\Temp\ccuzhVDD.s 			page 2


  32:.\Generated_Source\PSoC5/USBUART_1.c **** #endif   /* End USBUART_1_DMA3_REMOVE */
  33:.\Generated_Source\PSoC5/USBUART_1.c **** #if(USBUART_1_DMA4_REMOVE == 0u)
  34:.\Generated_Source\PSoC5/USBUART_1.c ****     #include "USBUART_1_ep4_dma.h"
  35:.\Generated_Source\PSoC5/USBUART_1.c **** #endif   /* End USBUART_1_DMA4_REMOVE */
  36:.\Generated_Source\PSoC5/USBUART_1.c **** #if(USBUART_1_DMA5_REMOVE == 0u)
  37:.\Generated_Source\PSoC5/USBUART_1.c ****     #include "USBUART_1_ep5_dma.h"
  38:.\Generated_Source\PSoC5/USBUART_1.c **** #endif   /* End USBUART_1_DMA5_REMOVE */
  39:.\Generated_Source\PSoC5/USBUART_1.c **** #if(USBUART_1_DMA6_REMOVE == 0u)
  40:.\Generated_Source\PSoC5/USBUART_1.c ****     #include "USBUART_1_ep6_dma.h"
  41:.\Generated_Source\PSoC5/USBUART_1.c **** #endif   /* End USBUART_1_DMA6_REMOVE */
  42:.\Generated_Source\PSoC5/USBUART_1.c **** #if(USBUART_1_DMA7_REMOVE == 0u)
  43:.\Generated_Source\PSoC5/USBUART_1.c ****     #include "USBUART_1_ep7_dma.h"
  44:.\Generated_Source\PSoC5/USBUART_1.c **** #endif   /* End USBUART_1_DMA7_REMOVE */
  45:.\Generated_Source\PSoC5/USBUART_1.c **** #if(USBUART_1_DMA8_REMOVE == 0u)
  46:.\Generated_Source\PSoC5/USBUART_1.c ****     #include "USBUART_1_ep8_dma.h"
  47:.\Generated_Source\PSoC5/USBUART_1.c **** #endif   /* End USBUART_1_DMA8_REMOVE */
  48:.\Generated_Source\PSoC5/USBUART_1.c **** 
  49:.\Generated_Source\PSoC5/USBUART_1.c **** 
  50:.\Generated_Source\PSoC5/USBUART_1.c **** /***************************************
  51:.\Generated_Source\PSoC5/USBUART_1.c **** * Global data allocation
  52:.\Generated_Source\PSoC5/USBUART_1.c **** ***************************************/
  53:.\Generated_Source\PSoC5/USBUART_1.c **** 
  54:.\Generated_Source\PSoC5/USBUART_1.c **** uint8 USBUART_1_initVar = 0u;
  55:.\Generated_Source\PSoC5/USBUART_1.c **** #if(USBUART_1_EP_MM != USBUART_1__EP_MANUAL)
  56:.\Generated_Source\PSoC5/USBUART_1.c ****     uint8 USBUART_1_DmaChan[USBUART_1_MAX_EP];
  57:.\Generated_Source\PSoC5/USBUART_1.c ****     uint8 USBUART_1_DmaTd[USBUART_1_MAX_EP];
  58:.\Generated_Source\PSoC5/USBUART_1.c **** #endif /* End USBUART_1_EP_MM */
  59:.\Generated_Source\PSoC5/USBUART_1.c **** 
  60:.\Generated_Source\PSoC5/USBUART_1.c **** 
  61:.\Generated_Source\PSoC5/USBUART_1.c **** /*******************************************************************************
  62:.\Generated_Source\PSoC5/USBUART_1.c **** * Function Name: USBUART_1_Start
  63:.\Generated_Source\PSoC5/USBUART_1.c **** ********************************************************************************
  64:.\Generated_Source\PSoC5/USBUART_1.c **** *
  65:.\Generated_Source\PSoC5/USBUART_1.c **** * Summary:
  66:.\Generated_Source\PSoC5/USBUART_1.c **** *  This function initialize the USB SIE, arbiter and the
  67:.\Generated_Source\PSoC5/USBUART_1.c **** *  endpoint APIs, including setting the D+ Pullup
  68:.\Generated_Source\PSoC5/USBUART_1.c **** *
  69:.\Generated_Source\PSoC5/USBUART_1.c **** * Parameters:
  70:.\Generated_Source\PSoC5/USBUART_1.c **** *  device: Contains the device number of the desired device descriptor.
  71:.\Generated_Source\PSoC5/USBUART_1.c **** *          The device number can be found in the Device Descriptor Tab of
  72:.\Generated_Source\PSoC5/USBUART_1.c **** *          "Configure" dialog, under the settings of desired Device Descriptor,
  73:.\Generated_Source\PSoC5/USBUART_1.c **** *          in the "Device Number" field.
  74:.\Generated_Source\PSoC5/USBUART_1.c **** *  mode: The operating voltage. This determines whether the voltage regulator
  75:.\Generated_Source\PSoC5/USBUART_1.c **** *        is enabled for 5V operation or if pass through mode is used for 3.3V
  76:.\Generated_Source\PSoC5/USBUART_1.c **** *        operation. Symbolic names and their associated values are given in the
  77:.\Generated_Source\PSoC5/USBUART_1.c **** *        following table.
  78:.\Generated_Source\PSoC5/USBUART_1.c **** *       USBUART_1_3V_OPERATION - Disable voltage regulator and pass-thru
  79:.\Generated_Source\PSoC5/USBUART_1.c **** *                                       Vcc for pull-up
  80:.\Generated_Source\PSoC5/USBUART_1.c **** *       USBUART_1_5V_OPERATION - Enable voltage regulator and use
  81:.\Generated_Source\PSoC5/USBUART_1.c **** *                                       regulator for pull-up
  82:.\Generated_Source\PSoC5/USBUART_1.c **** *       USBUART_1_DWR_VDDD_OPERATION - Enable or Disable voltage
  83:.\Generated_Source\PSoC5/USBUART_1.c **** *                         regulator depend on Vddd Voltage configuration in DWR.
  84:.\Generated_Source\PSoC5/USBUART_1.c **** *
  85:.\Generated_Source\PSoC5/USBUART_1.c **** * Return:
  86:.\Generated_Source\PSoC5/USBUART_1.c **** *   None.
  87:.\Generated_Source\PSoC5/USBUART_1.c **** *
  88:.\Generated_Source\PSoC5/USBUART_1.c **** * Global variables:
ARM GAS  C:\Users\Luke\AppData\Local\Temp\ccuzhVDD.s 			page 3


  89:.\Generated_Source\PSoC5/USBUART_1.c **** *  The USBUART_1_intiVar variable is used to indicate initial
  90:.\Generated_Source\PSoC5/USBUART_1.c **** *  configuration of this component. The variable is initialized to zero (0u)
  91:.\Generated_Source\PSoC5/USBUART_1.c **** *  and set to one (1u) the first time USBUART_1_Start() is called.
  92:.\Generated_Source\PSoC5/USBUART_1.c **** *  This allows for component Re-Start without unnecessary re-initialization
  93:.\Generated_Source\PSoC5/USBUART_1.c **** *  in all subsequent calls to the USBUART_1_Start() routine.
  94:.\Generated_Source\PSoC5/USBUART_1.c **** *  If re-initialization of the component is required the variable should be set
  95:.\Generated_Source\PSoC5/USBUART_1.c **** *  to zero before call of UART_Start() routine, or the user may call
  96:.\Generated_Source\PSoC5/USBUART_1.c **** *  USBUART_1_Init() and USBUART_1_InitComponent() as done
  97:.\Generated_Source\PSoC5/USBUART_1.c **** *  in the USBUART_1_Start() routine.
  98:.\Generated_Source\PSoC5/USBUART_1.c **** *
  99:.\Generated_Source\PSoC5/USBUART_1.c **** * Side Effects:
 100:.\Generated_Source\PSoC5/USBUART_1.c **** *   This function will reset all communication states to default.
 101:.\Generated_Source\PSoC5/USBUART_1.c **** *
 102:.\Generated_Source\PSoC5/USBUART_1.c **** * Reentrant:
 103:.\Generated_Source\PSoC5/USBUART_1.c **** *  No.
 104:.\Generated_Source\PSoC5/USBUART_1.c **** *
 105:.\Generated_Source\PSoC5/USBUART_1.c **** *******************************************************************************/
 106:.\Generated_Source\PSoC5/USBUART_1.c **** void USBUART_1_Start(uint8 device, uint8 mode) 
 107:.\Generated_Source\PSoC5/USBUART_1.c **** {
 108:.\Generated_Source\PSoC5/USBUART_1.c ****     /* If not Initialized then initialize all required hardware and software */
 109:.\Generated_Source\PSoC5/USBUART_1.c ****     if(USBUART_1_initVar == 0u)
 110:.\Generated_Source\PSoC5/USBUART_1.c ****     {
 111:.\Generated_Source\PSoC5/USBUART_1.c ****         USBUART_1_Init();
 112:.\Generated_Source\PSoC5/USBUART_1.c ****         USBUART_1_initVar = 1u;
 113:.\Generated_Source\PSoC5/USBUART_1.c ****     }
 114:.\Generated_Source\PSoC5/USBUART_1.c ****     USBUART_1_InitComponent(device, mode);
 115:.\Generated_Source\PSoC5/USBUART_1.c **** }
 116:.\Generated_Source\PSoC5/USBUART_1.c **** 
 117:.\Generated_Source\PSoC5/USBUART_1.c **** 
 118:.\Generated_Source\PSoC5/USBUART_1.c **** /*******************************************************************************
 119:.\Generated_Source\PSoC5/USBUART_1.c **** * Function Name: USBUART_1_Init
 120:.\Generated_Source\PSoC5/USBUART_1.c **** ********************************************************************************
 121:.\Generated_Source\PSoC5/USBUART_1.c **** *
 122:.\Generated_Source\PSoC5/USBUART_1.c **** * Summary:
 123:.\Generated_Source\PSoC5/USBUART_1.c **** *  Initialize component's hardware. Usually called in USBUART_1_Start().
 124:.\Generated_Source\PSoC5/USBUART_1.c **** *
 125:.\Generated_Source\PSoC5/USBUART_1.c **** * Parameters:
 126:.\Generated_Source\PSoC5/USBUART_1.c **** *  None.
 127:.\Generated_Source\PSoC5/USBUART_1.c **** *
 128:.\Generated_Source\PSoC5/USBUART_1.c **** * Return:
 129:.\Generated_Source\PSoC5/USBUART_1.c **** *  None.
 130:.\Generated_Source\PSoC5/USBUART_1.c **** *
 131:.\Generated_Source\PSoC5/USBUART_1.c **** * Reentrant:
 132:.\Generated_Source\PSoC5/USBUART_1.c **** *  No.
 133:.\Generated_Source\PSoC5/USBUART_1.c **** *
 134:.\Generated_Source\PSoC5/USBUART_1.c **** *******************************************************************************/
 135:.\Generated_Source\PSoC5/USBUART_1.c **** void USBUART_1_Init(void) 
 136:.\Generated_Source\PSoC5/USBUART_1.c **** {
  27              		.loc 1 136 0
  28              		.cfi_startproc
  29              		@ args = 0, pretend = 0, frame = 0
  30              		@ frame_needed = 0, uses_anonymous_args = 0
  31 0000 F8B5     		push	{r3, r4, r5, r6, r7, lr}
  32              	.LCFI0:
  33              		.cfi_def_cfa_offset 24
  34              		.cfi_offset 3, -24
  35              		.cfi_offset 4, -20
ARM GAS  C:\Users\Luke\AppData\Local\Temp\ccuzhVDD.s 			page 4


  36              		.cfi_offset 5, -16
  37              		.cfi_offset 6, -12
  38              		.cfi_offset 7, -8
  39              		.cfi_offset 14, -4
 137:.\Generated_Source\PSoC5/USBUART_1.c ****     uint8 enableInterrupts;
 138:.\Generated_Source\PSoC5/USBUART_1.c ****     #if(USBUART_1_EP_MM != USBUART_1__EP_MANUAL)
 139:.\Generated_Source\PSoC5/USBUART_1.c ****         uint16 i;
 140:.\Generated_Source\PSoC5/USBUART_1.c ****     #endif   /* End USBUART_1_EP_MM != USBUART_1__EP_MANUAL */
 141:.\Generated_Source\PSoC5/USBUART_1.c **** 
 142:.\Generated_Source\PSoC5/USBUART_1.c ****     enableInterrupts = CyEnterCriticalSection();
  40              		.loc 1 142 0
  41 0002 FFF7FEFF 		bl	CyEnterCriticalSection
  42              	.LVL0:
 143:.\Generated_Source\PSoC5/USBUART_1.c **** 
 144:.\Generated_Source\PSoC5/USBUART_1.c ****     /* Enable USB block  */
 145:.\Generated_Source\PSoC5/USBUART_1.c ****     USBUART_1_PM_ACT_CFG_REG |= USBUART_1_PM_ACT_EN_FSUSB;
  43              		.loc 1 145 0
  44 0006 3C4B     		ldr	r3, .L2
 142:.\Generated_Source\PSoC5/USBUART_1.c ****     enableInterrupts = CyEnterCriticalSection();
  45              		.loc 1 142 0
  46 0008 0746     		mov	r7, r0
  47              	.LVL1:
  48              		.loc 1 145 0
  49 000a 1A78     		ldrb	r2, [r3, #0]	@ zero_extendqisi2
 146:.\Generated_Source\PSoC5/USBUART_1.c ****     /* Enable USB block for Standby Power Mode */
 147:.\Generated_Source\PSoC5/USBUART_1.c ****     USBUART_1_PM_STBY_CFG_REG |= USBUART_1_PM_STBY_EN_FSUSB;
 148:.\Generated_Source\PSoC5/USBUART_1.c **** 
 149:.\Generated_Source\PSoC5/USBUART_1.c ****     /* Enable core clock */
 150:.\Generated_Source\PSoC5/USBUART_1.c ****     USBUART_1_USB_CLK_EN_REG = USBUART_1_USB_CLK_ENABLE;
  50              		.loc 1 150 0
  51 000c 0126     		movs	r6, #1
 145:.\Generated_Source\PSoC5/USBUART_1.c ****     USBUART_1_PM_ACT_CFG_REG |= USBUART_1_PM_ACT_EN_FSUSB;
  52              		.loc 1 145 0
  53 000e 42F00100 		orr	r0, r2, #1
  54              	.LVL2:
  55 0012 1870     		strb	r0, [r3, #0]
 147:.\Generated_Source\PSoC5/USBUART_1.c ****     USBUART_1_PM_STBY_CFG_REG |= USBUART_1_PM_STBY_EN_FSUSB;
  56              		.loc 1 147 0
  57 0014 197C     		ldrb	r1, [r3, #16]	@ zero_extendqisi2
 151:.\Generated_Source\PSoC5/USBUART_1.c **** 
 152:.\Generated_Source\PSoC5/USBUART_1.c ****     USBUART_1_CR1_REG = USBUART_1_CR1_ENABLE_LOCK;
  58              		.loc 1 152 0
  59 0016 0225     		movs	r5, #2
 147:.\Generated_Source\PSoC5/USBUART_1.c ****     USBUART_1_PM_STBY_CFG_REG |= USBUART_1_PM_STBY_EN_FSUSB;
  60              		.loc 1 147 0
  61 0018 41F00104 		orr	r4, r1, #1
  62 001c 1C74     		strb	r4, [r3, #16]
 150:.\Generated_Source\PSoC5/USBUART_1.c ****     USBUART_1_USB_CLK_EN_REG = USBUART_1_USB_CLK_ENABLE;
  63              		.loc 1 150 0
  64 001e 374B     		ldr	r3, .L2+4
 153:.\Generated_Source\PSoC5/USBUART_1.c **** 
 154:.\Generated_Source\PSoC5/USBUART_1.c ****     /* ENABLING USBIO PADS IN USB MODE FROM I/O MODE */
 155:.\Generated_Source\PSoC5/USBUART_1.c ****     /* Ensure USB transmit enable is low (USB_USBIO_CR0.ten). - Manual Transmission - Disabled */
 156:.\Generated_Source\PSoC5/USBUART_1.c ****     USBUART_1_USBIO_CR0_REG &= ((uint8)(~USBUART_1_USBIO_CR0_TEN));
 157:.\Generated_Source\PSoC5/USBUART_1.c ****     CyDelayUs(0u);  /*~50ns delay */
 158:.\Generated_Source\PSoC5/USBUART_1.c ****     /* Disable the USBIO by asserting PM.USB_CR0.fsusbio_pd_n(Inverted)
 159:.\Generated_Source\PSoC5/USBUART_1.c ****     *  high. This will have been set low by the power manger out of reset.
ARM GAS  C:\Users\Luke\AppData\Local\Temp\ccuzhVDD.s 			page 5


 160:.\Generated_Source\PSoC5/USBUART_1.c ****     *  Also confirm USBIO pull-up disabled
 161:.\Generated_Source\PSoC5/USBUART_1.c ****     */
 162:.\Generated_Source\PSoC5/USBUART_1.c ****     USBUART_1_PM_USB_CR0_REG &= ((uint8)(~(USBUART_1_PM_USB_CR0_PD_N |
  65              		.loc 1 162 0
  66 0020 374C     		ldr	r4, .L2+8
 150:.\Generated_Source\PSoC5/USBUART_1.c ****     USBUART_1_USB_CLK_EN_REG = USBUART_1_USB_CLK_ENABLE;
  67              		.loc 1 150 0
  68 0022 1E70     		strb	r6, [r3, #0]
 152:.\Generated_Source\PSoC5/USBUART_1.c ****     USBUART_1_CR1_REG = USBUART_1_CR1_ENABLE_LOCK;
  69              		.loc 1 152 0
  70 0024 03F8945C 		strb	r5, [r3, #-148]
 156:.\Generated_Source\PSoC5/USBUART_1.c ****     USBUART_1_USBIO_CR0_REG &= ((uint8)(~USBUART_1_USBIO_CR0_TEN));
  71              		.loc 1 156 0
  72 0028 13F88D2C 		ldrb	r2, [r3, #-141]	@ zero_extendqisi2
  73 002c 02F07F00 		and	r0, r2, #127
  74 0030 03F88D0C 		strb	r0, [r3, #-141]
 157:.\Generated_Source\PSoC5/USBUART_1.c ****     CyDelayUs(0u);  /*~50ns delay */
  75              		.loc 1 157 0
  76 0034 0020     		movs	r0, #0
  77 0036 FFF7FEFF 		bl	CyDelayUs
  78              	.LVL3:
  79              		.loc 1 162 0
  80 003a 2178     		ldrb	r1, [r4, #0]	@ zero_extendqisi2
 163:.\Generated_Source\PSoC5/USBUART_1.c ****                                                   USBUART_1_PM_USB_CR0_PD_PULLUP_N)));
 164:.\Generated_Source\PSoC5/USBUART_1.c **** 
 165:.\Generated_Source\PSoC5/USBUART_1.c ****     /* Select iomode to USB mode*/
 166:.\Generated_Source\PSoC5/USBUART_1.c ****     USBUART_1_USBIO_CR1_REG &= ((uint8)(~USBUART_1_USBIO_CR1_IOMODE));
  81              		.loc 1 166 0
  82 003c 3148     		ldr	r0, .L2+12
 162:.\Generated_Source\PSoC5/USBUART_1.c ****     USBUART_1_PM_USB_CR0_REG &= ((uint8)(~(USBUART_1_PM_USB_CR0_PD_N |
  83              		.loc 1 162 0
  84 003e 01F0F903 		and	r3, r1, #249
  85 0042 2370     		strb	r3, [r4, #0]
  86              		.loc 1 166 0
  87 0044 0278     		ldrb	r2, [r0, #0]	@ zero_extendqisi2
  88 0046 02F0DF01 		and	r1, r2, #223
  89 004a 0170     		strb	r1, [r0, #0]
 167:.\Generated_Source\PSoC5/USBUART_1.c **** 
 168:.\Generated_Source\PSoC5/USBUART_1.c ****     /* Enable the USBIO reference by setting PM.USB_CR0.fsusbio_ref_en.*/
 169:.\Generated_Source\PSoC5/USBUART_1.c ****     USBUART_1_PM_USB_CR0_REG |= USBUART_1_PM_USB_CR0_REF_EN;
  90              		.loc 1 169 0
  91 004c 2378     		ldrb	r3, [r4, #0]	@ zero_extendqisi2
 170:.\Generated_Source\PSoC5/USBUART_1.c ****     /* The reference will be available 1 us after the regulator is enabled */
 171:.\Generated_Source\PSoC5/USBUART_1.c ****     CyDelayUs(1u);
  92              		.loc 1 171 0
  93 004e 3046     		mov	r0, r6
 169:.\Generated_Source\PSoC5/USBUART_1.c ****     USBUART_1_PM_USB_CR0_REG |= USBUART_1_PM_USB_CR0_REF_EN;
  94              		.loc 1 169 0
  95 0050 3343     		orrs	r3, r3, r6
  96 0052 2370     		strb	r3, [r4, #0]
  97              		.loc 1 171 0
  98 0054 FFF7FEFF 		bl	CyDelayUs
  99              	.LVL4:
 172:.\Generated_Source\PSoC5/USBUART_1.c ****     /* OR 40us after power restored */
 173:.\Generated_Source\PSoC5/USBUART_1.c ****     CyDelayUs(40u);
 100              		.loc 1 173 0
 101 0058 2820     		movs	r0, #40
ARM GAS  C:\Users\Luke\AppData\Local\Temp\ccuzhVDD.s 			page 6


 102 005a FFF7FEFF 		bl	CyDelayUs
 103              	.LVL5:
 174:.\Generated_Source\PSoC5/USBUART_1.c ****     /* Ensure the single ended disable bits are low (PRT15.INP_DIS[7:6])(input receiver enabled). *
 175:.\Generated_Source\PSoC5/USBUART_1.c ****     USBUART_1_DM_INP_DIS_REG &= ((uint8)(~USBUART_1_DM_MASK));
 104              		.loc 1 175 0
 105 005e 2A48     		ldr	r0, .L2+16
 106 0060 0278     		ldrb	r2, [r0, #0]	@ zero_extendqisi2
 107 0062 02F07F01 		and	r1, r2, #127
 108 0066 0170     		strb	r1, [r0, #0]
 176:.\Generated_Source\PSoC5/USBUART_1.c ****     USBUART_1_DP_INP_DIS_REG &= ((uint8)(~USBUART_1_DP_MASK));
 109              		.loc 1 176 0
 110 0068 0378     		ldrb	r3, [r0, #0]	@ zero_extendqisi2
 111 006a 03F0BF02 		and	r2, r3, #191
 112 006e 0270     		strb	r2, [r0, #0]
 177:.\Generated_Source\PSoC5/USBUART_1.c **** 
 178:.\Generated_Source\PSoC5/USBUART_1.c ****     /* Enable USBIO */
 179:.\Generated_Source\PSoC5/USBUART_1.c ****     USBUART_1_PM_USB_CR0_REG |= USBUART_1_PM_USB_CR0_PD_N;
 113              		.loc 1 179 0
 114 0070 2078     		ldrb	r0, [r4, #0]	@ zero_extendqisi2
 115 0072 2843     		orrs	r0, r0, r5
 116 0074 2070     		strb	r0, [r4, #0]
 180:.\Generated_Source\PSoC5/USBUART_1.c ****     CyDelayUs(2u);
 117              		.loc 1 180 0
 118 0076 2846     		mov	r0, r5
 119 0078 FFF7FEFF 		bl	CyDelayUs
 120              	.LVL6:
 181:.\Generated_Source\PSoC5/USBUART_1.c ****     /* Set the USBIO pull-up enable */
 182:.\Generated_Source\PSoC5/USBUART_1.c ****     USBUART_1_PM_USB_CR0_REG |= USBUART_1_PM_USB_CR0_PD_PULLUP_N;
 121              		.loc 1 182 0
 122 007c 2178     		ldrb	r1, [r4, #0]	@ zero_extendqisi2
 183:.\Generated_Source\PSoC5/USBUART_1.c **** 
 184:.\Generated_Source\PSoC5/USBUART_1.c ****     /* Write WAx */
 185:.\Generated_Source\PSoC5/USBUART_1.c ****     CY_SET_REG8(USBUART_1_ARB_RW1_WA_PTR,     0u);
 123              		.loc 1 185 0
 124 007e 234A     		ldr	r2, .L2+20
 182:.\Generated_Source\PSoC5/USBUART_1.c ****     USBUART_1_PM_USB_CR0_REG |= USBUART_1_PM_USB_CR0_PD_PULLUP_N;
 125              		.loc 1 182 0
 126 0080 41F00403 		orr	r3, r1, #4
 127              		.loc 1 185 0
 128 0084 0020     		movs	r0, #0
 182:.\Generated_Source\PSoC5/USBUART_1.c ****     USBUART_1_PM_USB_CR0_REG |= USBUART_1_PM_USB_CR0_PD_PULLUP_N;
 129              		.loc 1 182 0
 130 0086 2370     		strb	r3, [r4, #0]
 131              		.loc 1 185 0
 132 0088 1070     		strb	r0, [r2, #0]
 186:.\Generated_Source\PSoC5/USBUART_1.c ****     CY_SET_REG8(USBUART_1_ARB_RW1_WA_MSB_PTR, 0u);
 133              		.loc 1 186 0
 134 008a 5070     		strb	r0, [r2, #1]
 187:.\Generated_Source\PSoC5/USBUART_1.c **** 
 188:.\Generated_Source\PSoC5/USBUART_1.c ****     #if(USBUART_1_EP_MM != USBUART_1__EP_MANUAL)
 189:.\Generated_Source\PSoC5/USBUART_1.c ****         /* Init transfer descriptor. This will be used to detect the DMA state - initialized or not
 190:.\Generated_Source\PSoC5/USBUART_1.c ****         for (i = 0u; i < USBUART_1_MAX_EP; i++)
 191:.\Generated_Source\PSoC5/USBUART_1.c ****         {
 192:.\Generated_Source\PSoC5/USBUART_1.c ****             USBUART_1_DmaTd[i] = DMA_INVALID_TD;
 193:.\Generated_Source\PSoC5/USBUART_1.c ****         }
 194:.\Generated_Source\PSoC5/USBUART_1.c ****     #endif   /* End USBUART_1_EP_MM != USBUART_1__EP_MANUAL */
 195:.\Generated_Source\PSoC5/USBUART_1.c **** 
ARM GAS  C:\Users\Luke\AppData\Local\Temp\ccuzhVDD.s 			page 7


 196:.\Generated_Source\PSoC5/USBUART_1.c ****     CyExitCriticalSection(enableInterrupts);
 135              		.loc 1 196 0
 136 008c 3846     		mov	r0, r7
 137 008e FFF7FEFF 		bl	CyExitCriticalSection
 138              	.LVL7:
 197:.\Generated_Source\PSoC5/USBUART_1.c **** 
 198:.\Generated_Source\PSoC5/USBUART_1.c **** 
 199:.\Generated_Source\PSoC5/USBUART_1.c ****     /* Set the bus reset Interrupt. */
 200:.\Generated_Source\PSoC5/USBUART_1.c ****     (void) CyIntSetVector(USBUART_1_BUS_RESET_VECT_NUM,   &USBUART_1_BUS_RESET_ISR);
 139              		.loc 1 200 0
 140 0092 1720     		movs	r0, #23
 141 0094 1E49     		ldr	r1, .L2+24
 142 0096 FFF7FEFF 		bl	CyIntSetVector
 143              	.LVL8:
 201:.\Generated_Source\PSoC5/USBUART_1.c ****     CyIntSetPriority(USBUART_1_BUS_RESET_VECT_NUM, USBUART_1_BUS_RESET_PRIOR);
 144              		.loc 1 201 0
 145 009a 1720     		movs	r0, #23
 146 009c 0721     		movs	r1, #7
 147 009e FFF7FEFF 		bl	CyIntSetPriority
 148              	.LVL9:
 202:.\Generated_Source\PSoC5/USBUART_1.c **** 
 203:.\Generated_Source\PSoC5/USBUART_1.c ****     /* Set the SOF Interrupt. */
 204:.\Generated_Source\PSoC5/USBUART_1.c ****     #if(USBUART_1_SOF_ISR_REMOVE == 0u)
 205:.\Generated_Source\PSoC5/USBUART_1.c ****         (void) CyIntSetVector(USBUART_1_SOF_VECT_NUM,   &USBUART_1_SOF_ISR);
 149              		.loc 1 205 0
 150 00a2 1520     		movs	r0, #21
 151 00a4 1B49     		ldr	r1, .L2+28
 152 00a6 FFF7FEFF 		bl	CyIntSetVector
 153              	.LVL10:
 206:.\Generated_Source\PSoC5/USBUART_1.c ****         CyIntSetPriority(USBUART_1_SOF_VECT_NUM, USBUART_1_SOF_PRIOR);
 154              		.loc 1 206 0
 155 00aa 1520     		movs	r0, #21
 156 00ac 0721     		movs	r1, #7
 157 00ae FFF7FEFF 		bl	CyIntSetPriority
 158              	.LVL11:
 207:.\Generated_Source\PSoC5/USBUART_1.c ****     #endif   /* End USBUART_1_SOF_ISR_REMOVE */
 208:.\Generated_Source\PSoC5/USBUART_1.c **** 
 209:.\Generated_Source\PSoC5/USBUART_1.c ****     /* Set the Control Endpoint Interrupt. */
 210:.\Generated_Source\PSoC5/USBUART_1.c ****     (void) CyIntSetVector(USBUART_1_EP_0_VECT_NUM,   &USBUART_1_EP_0_ISR);
 159              		.loc 1 210 0
 160 00b2 1820     		movs	r0, #24
 161 00b4 1849     		ldr	r1, .L2+32
 162 00b6 FFF7FEFF 		bl	CyIntSetVector
 163              	.LVL12:
 211:.\Generated_Source\PSoC5/USBUART_1.c ****     CyIntSetPriority(USBUART_1_EP_0_VECT_NUM, USBUART_1_EP_0_PRIOR);
 164              		.loc 1 211 0
 165 00ba 1820     		movs	r0, #24
 166 00bc 0721     		movs	r1, #7
 167 00be FFF7FEFF 		bl	CyIntSetPriority
 168              	.LVL13:
 212:.\Generated_Source\PSoC5/USBUART_1.c **** 
 213:.\Generated_Source\PSoC5/USBUART_1.c ****     /* Set the Data Endpoint 1 Interrupt. */
 214:.\Generated_Source\PSoC5/USBUART_1.c ****     #if(USBUART_1_EP1_ISR_REMOVE == 0u)
 215:.\Generated_Source\PSoC5/USBUART_1.c ****         (void) CyIntSetVector(USBUART_1_EP_1_VECT_NUM,   &USBUART_1_EP_1_ISR);
 169              		.loc 1 215 0
 170 00c2 0320     		movs	r0, #3
 171 00c4 1549     		ldr	r1, .L2+36
ARM GAS  C:\Users\Luke\AppData\Local\Temp\ccuzhVDD.s 			page 8


 172 00c6 FFF7FEFF 		bl	CyIntSetVector
 173              	.LVL14:
 216:.\Generated_Source\PSoC5/USBUART_1.c ****         CyIntSetPriority(USBUART_1_EP_1_VECT_NUM, USBUART_1_EP_1_PRIOR);
 174              		.loc 1 216 0
 175 00ca 0320     		movs	r0, #3
 176 00cc 0721     		movs	r1, #7
 177 00ce FFF7FEFF 		bl	CyIntSetPriority
 178              	.LVL15:
 217:.\Generated_Source\PSoC5/USBUART_1.c ****     #endif   /* End USBUART_1_EP1_ISR_REMOVE */
 218:.\Generated_Source\PSoC5/USBUART_1.c **** 
 219:.\Generated_Source\PSoC5/USBUART_1.c ****     /* Set the Data Endpoint 2 Interrupt. */
 220:.\Generated_Source\PSoC5/USBUART_1.c ****     #if(USBUART_1_EP2_ISR_REMOVE == 0u)
 221:.\Generated_Source\PSoC5/USBUART_1.c ****         (void) CyIntSetVector(USBUART_1_EP_2_VECT_NUM,   &USBUART_1_EP_2_ISR);
 179              		.loc 1 221 0
 180 00d2 0420     		movs	r0, #4
 181 00d4 1249     		ldr	r1, .L2+40
 182 00d6 FFF7FEFF 		bl	CyIntSetVector
 183              	.LVL16:
 222:.\Generated_Source\PSoC5/USBUART_1.c ****         CyIntSetPriority(USBUART_1_EP_2_VECT_NUM, USBUART_1_EP_2_PRIOR);
 184              		.loc 1 222 0
 185 00da 0420     		movs	r0, #4
 186 00dc 0721     		movs	r1, #7
 187 00de FFF7FEFF 		bl	CyIntSetPriority
 188              	.LVL17:
 223:.\Generated_Source\PSoC5/USBUART_1.c ****     #endif   /* End USBUART_1_EP2_ISR_REMOVE */
 224:.\Generated_Source\PSoC5/USBUART_1.c **** 
 225:.\Generated_Source\PSoC5/USBUART_1.c ****     /* Set the Data Endpoint 3 Interrupt. */
 226:.\Generated_Source\PSoC5/USBUART_1.c ****     #if(USBUART_1_EP3_ISR_REMOVE == 0u)
 227:.\Generated_Source\PSoC5/USBUART_1.c ****         (void) CyIntSetVector(USBUART_1_EP_3_VECT_NUM,   &USBUART_1_EP_3_ISR);
 189              		.loc 1 227 0
 190 00e2 0520     		movs	r0, #5
 191 00e4 0F49     		ldr	r1, .L2+44
 192 00e6 FFF7FEFF 		bl	CyIntSetVector
 193              	.LVL18:
 228:.\Generated_Source\PSoC5/USBUART_1.c ****         CyIntSetPriority(USBUART_1_EP_3_VECT_NUM, USBUART_1_EP_3_PRIOR);
 194              		.loc 1 228 0
 195 00ea 0520     		movs	r0, #5
 196 00ec 0721     		movs	r1, #7
 229:.\Generated_Source\PSoC5/USBUART_1.c ****     #endif   /* End USBUART_1_EP3_ISR_REMOVE */
 230:.\Generated_Source\PSoC5/USBUART_1.c **** 
 231:.\Generated_Source\PSoC5/USBUART_1.c ****     /* Set the Data Endpoint 4 Interrupt. */
 232:.\Generated_Source\PSoC5/USBUART_1.c ****     #if(USBUART_1_EP4_ISR_REMOVE == 0u)
 233:.\Generated_Source\PSoC5/USBUART_1.c ****         (void) CyIntSetVector(USBUART_1_EP_4_VECT_NUM,   &USBUART_1_EP_4_ISR);
 234:.\Generated_Source\PSoC5/USBUART_1.c ****         CyIntSetPriority(USBUART_1_EP_4_VECT_NUM, USBUART_1_EP_4_PRIOR);
 235:.\Generated_Source\PSoC5/USBUART_1.c ****     #endif   /* End USBUART_1_EP4_ISR_REMOVE */
 236:.\Generated_Source\PSoC5/USBUART_1.c **** 
 237:.\Generated_Source\PSoC5/USBUART_1.c ****     /* Set the Data Endpoint 5 Interrupt. */
 238:.\Generated_Source\PSoC5/USBUART_1.c ****     #if(USBUART_1_EP5_ISR_REMOVE == 0u)
 239:.\Generated_Source\PSoC5/USBUART_1.c ****         (void) CyIntSetVector(USBUART_1_EP_5_VECT_NUM,   &USBUART_1_EP_5_ISR);
 240:.\Generated_Source\PSoC5/USBUART_1.c ****         CyIntSetPriority(USBUART_1_EP_5_VECT_NUM, USBUART_1_EP_5_PRIOR);
 241:.\Generated_Source\PSoC5/USBUART_1.c ****     #endif   /* End USBUART_1_EP5_ISR_REMOVE */
 242:.\Generated_Source\PSoC5/USBUART_1.c **** 
 243:.\Generated_Source\PSoC5/USBUART_1.c ****     /* Set the Data Endpoint 6 Interrupt. */
 244:.\Generated_Source\PSoC5/USBUART_1.c ****     #if(USBUART_1_EP6_ISR_REMOVE == 0u)
 245:.\Generated_Source\PSoC5/USBUART_1.c ****         (void) CyIntSetVector(USBUART_1_EP_6_VECT_NUM,   &USBUART_1_EP_6_ISR);
 246:.\Generated_Source\PSoC5/USBUART_1.c ****         CyIntSetPriority(USBUART_1_EP_6_VECT_NUM, USBUART_1_EP_6_PRIOR);
 247:.\Generated_Source\PSoC5/USBUART_1.c ****     #endif   /* End USBUART_1_EP6_ISR_REMOVE */
ARM GAS  C:\Users\Luke\AppData\Local\Temp\ccuzhVDD.s 			page 9


 248:.\Generated_Source\PSoC5/USBUART_1.c **** 
 249:.\Generated_Source\PSoC5/USBUART_1.c ****      /* Set the Data Endpoint 7 Interrupt. */
 250:.\Generated_Source\PSoC5/USBUART_1.c ****     #if(USBUART_1_EP7_ISR_REMOVE == 0u)
 251:.\Generated_Source\PSoC5/USBUART_1.c ****         (void) CyIntSetVector(USBUART_1_EP_7_VECT_NUM,   &USBUART_1_EP_7_ISR);
 252:.\Generated_Source\PSoC5/USBUART_1.c ****         CyIntSetPriority(USBUART_1_EP_7_VECT_NUM, USBUART_1_EP_7_PRIOR);
 253:.\Generated_Source\PSoC5/USBUART_1.c ****     #endif   /* End USBUART_1_EP7_ISR_REMOVE */
 254:.\Generated_Source\PSoC5/USBUART_1.c **** 
 255:.\Generated_Source\PSoC5/USBUART_1.c ****     /* Set the Data Endpoint 8 Interrupt. */
 256:.\Generated_Source\PSoC5/USBUART_1.c ****     #if(USBUART_1_EP8_ISR_REMOVE == 0u)
 257:.\Generated_Source\PSoC5/USBUART_1.c ****         (void) CyIntSetVector(USBUART_1_EP_8_VECT_NUM,   &USBUART_1_EP_8_ISR);
 258:.\Generated_Source\PSoC5/USBUART_1.c ****         CyIntSetPriority(USBUART_1_EP_8_VECT_NUM, USBUART_1_EP_8_PRIOR);
 259:.\Generated_Source\PSoC5/USBUART_1.c ****     #endif   /* End USBUART_1_EP8_ISR_REMOVE */
 260:.\Generated_Source\PSoC5/USBUART_1.c **** 
 261:.\Generated_Source\PSoC5/USBUART_1.c ****     #if((USBUART_1_EP_MM != USBUART_1__EP_MANUAL) && (USBUART_1_ARB_ISR_REMOVE == 0u))
 262:.\Generated_Source\PSoC5/USBUART_1.c ****         /* Set the ARB Interrupt. */
 263:.\Generated_Source\PSoC5/USBUART_1.c ****         (void) CyIntSetVector(USBUART_1_ARB_VECT_NUM,   &USBUART_1_ARB_ISR);
 264:.\Generated_Source\PSoC5/USBUART_1.c ****         CyIntSetPriority(USBUART_1_ARB_VECT_NUM, USBUART_1_ARB_PRIOR);
 265:.\Generated_Source\PSoC5/USBUART_1.c ****     #endif   /* End USBUART_1_EP_MM != USBUART_1__EP_MANUAL */
 266:.\Generated_Source\PSoC5/USBUART_1.c **** 
 267:.\Generated_Source\PSoC5/USBUART_1.c **** }
 197              		.loc 1 267 0
 198 00ee BDE8F840 		pop	{r3, r4, r5, r6, r7, lr}
 228:.\Generated_Source\PSoC5/USBUART_1.c ****         CyIntSetPriority(USBUART_1_EP_3_VECT_NUM, USBUART_1_EP_3_PRIOR);
 199              		.loc 1 228 0
 200 00f2 FFF7FEBF 		b	CyIntSetPriority
 201              	.LVL19:
 202              	.L3:
 203 00f6 00BF     		.align	2
 204              	.L2:
 205 00f8 A5430040 		.word	1073759141
 206 00fc 9D600040 		.word	1073766557
 207 0100 94430040 		.word	1073759124
 208 0104 12600040 		.word	1073766418
 209 0108 F8510040 		.word	1073762808
 210 010c 84600040 		.word	1073766532
 211 0110 00000000 		.word	USBUART_1_BUS_RESET_ISR
 212 0114 00000000 		.word	USBUART_1_SOF_ISR
 213 0118 00000000 		.word	USBUART_1_EP_0_ISR
 214 011c 00000000 		.word	USBUART_1_EP_1_ISR
 215 0120 00000000 		.word	USBUART_1_EP_2_ISR
 216 0124 00000000 		.word	USBUART_1_EP_3_ISR
 217              		.cfi_endproc
 218              	.LFE1:
 219              		.size	USBUART_1_Init, .-USBUART_1_Init
 220              		.section	.text.USBUART_1_InitComponent,"ax",%progbits
 221              		.align	1
 222              		.global	USBUART_1_InitComponent
 223              		.thumb
 224              		.thumb_func
 225              		.type	USBUART_1_InitComponent, %function
 226              	USBUART_1_InitComponent:
 227              	.LFB2:
 268:.\Generated_Source\PSoC5/USBUART_1.c **** 
 269:.\Generated_Source\PSoC5/USBUART_1.c **** 
 270:.\Generated_Source\PSoC5/USBUART_1.c **** /*******************************************************************************
 271:.\Generated_Source\PSoC5/USBUART_1.c **** * Function Name: USBUART_1_InitComponent
 272:.\Generated_Source\PSoC5/USBUART_1.c **** ********************************************************************************
ARM GAS  C:\Users\Luke\AppData\Local\Temp\ccuzhVDD.s 			page 10


 273:.\Generated_Source\PSoC5/USBUART_1.c **** *
 274:.\Generated_Source\PSoC5/USBUART_1.c **** * Summary:
 275:.\Generated_Source\PSoC5/USBUART_1.c **** *  Initialize the component, except for the HW which is done one time in
 276:.\Generated_Source\PSoC5/USBUART_1.c **** *  the Start function.  This function pulls up D+.
 277:.\Generated_Source\PSoC5/USBUART_1.c **** *
 278:.\Generated_Source\PSoC5/USBUART_1.c **** * Parameters:
 279:.\Generated_Source\PSoC5/USBUART_1.c **** *  device: Contains the device number of the desired device descriptor.
 280:.\Generated_Source\PSoC5/USBUART_1.c **** *          The device number can be found in the Device Descriptor Tab of
 281:.\Generated_Source\PSoC5/USBUART_1.c **** *          "Configure" dialog, under the settings of desired Device Descriptor,
 282:.\Generated_Source\PSoC5/USBUART_1.c **** *          in the "Device Number" field.
 283:.\Generated_Source\PSoC5/USBUART_1.c **** *  mode: The operating voltage. This determines whether the voltage regulator
 284:.\Generated_Source\PSoC5/USBUART_1.c **** *        is enabled for 5V operation or if pass through mode is used for 3.3V
 285:.\Generated_Source\PSoC5/USBUART_1.c **** *        operation. Symbolic names and their associated values are given in the
 286:.\Generated_Source\PSoC5/USBUART_1.c **** *        following table.
 287:.\Generated_Source\PSoC5/USBUART_1.c **** *       USBUART_1_3V_OPERATION - Disable voltage regulator and pass-thru
 288:.\Generated_Source\PSoC5/USBUART_1.c **** *                                       Vcc for pull-up
 289:.\Generated_Source\PSoC5/USBUART_1.c **** *       USBUART_1_5V_OPERATION - Enable voltage regulator and use
 290:.\Generated_Source\PSoC5/USBUART_1.c **** *                                       regulator for pull-up
 291:.\Generated_Source\PSoC5/USBUART_1.c **** *       USBUART_1_DWR_VDDD_OPERATION - Enable or Disable voltage
 292:.\Generated_Source\PSoC5/USBUART_1.c **** *                         regulator depend on Vddd Voltage configuration in DWR.
 293:.\Generated_Source\PSoC5/USBUART_1.c **** *
 294:.\Generated_Source\PSoC5/USBUART_1.c **** * Return:
 295:.\Generated_Source\PSoC5/USBUART_1.c **** *   None.
 296:.\Generated_Source\PSoC5/USBUART_1.c **** *
 297:.\Generated_Source\PSoC5/USBUART_1.c **** * Global variables:
 298:.\Generated_Source\PSoC5/USBUART_1.c **** *   USBUART_1_device: Contains the device number of the desired device
 299:.\Generated_Source\PSoC5/USBUART_1.c **** *       descriptor. The device number can be found in the Device Descriptor Tab
 300:.\Generated_Source\PSoC5/USBUART_1.c **** *       of "Configure" dialog, under the settings of desired Device Descriptor,
 301:.\Generated_Source\PSoC5/USBUART_1.c **** *       in the "Device Number" field.
 302:.\Generated_Source\PSoC5/USBUART_1.c **** *   USBUART_1_transferState: This variable used by the communication
 303:.\Generated_Source\PSoC5/USBUART_1.c **** *       functions to handle current transfer state. Initialized to
 304:.\Generated_Source\PSoC5/USBUART_1.c **** *       TRANS_STATE_IDLE in this API.
 305:.\Generated_Source\PSoC5/USBUART_1.c **** *   USBUART_1_configuration: Contains current configuration number
 306:.\Generated_Source\PSoC5/USBUART_1.c **** *       which is set by the Host using SET_CONFIGURATION request.
 307:.\Generated_Source\PSoC5/USBUART_1.c **** *       Initialized to zero in this API.
 308:.\Generated_Source\PSoC5/USBUART_1.c **** *   USBUART_1_deviceAddress: Contains current device address. This
 309:.\Generated_Source\PSoC5/USBUART_1.c **** *       variable is initialized to zero in this API. Host starts to communicate
 310:.\Generated_Source\PSoC5/USBUART_1.c **** *      to device with address 0 and then set it to whatever value using
 311:.\Generated_Source\PSoC5/USBUART_1.c **** *      SET_ADDRESS request.
 312:.\Generated_Source\PSoC5/USBUART_1.c **** *   USBUART_1_deviceStatus: initialized to 0.
 313:.\Generated_Source\PSoC5/USBUART_1.c **** *       This is two bit variable which contain power status in first bit
 314:.\Generated_Source\PSoC5/USBUART_1.c **** *       (DEVICE_STATUS_BUS_POWERED or DEVICE_STATUS_SELF_POWERED) and remote
 315:.\Generated_Source\PSoC5/USBUART_1.c **** *       wakeup status (DEVICE_STATUS_REMOTE_WAKEUP) in second bit.
 316:.\Generated_Source\PSoC5/USBUART_1.c **** *   USBUART_1_lastPacketSize initialized to 0;
 317:.\Generated_Source\PSoC5/USBUART_1.c **** *
 318:.\Generated_Source\PSoC5/USBUART_1.c **** * Reentrant:
 319:.\Generated_Source\PSoC5/USBUART_1.c **** *  No.
 320:.\Generated_Source\PSoC5/USBUART_1.c **** *
 321:.\Generated_Source\PSoC5/USBUART_1.c **** *******************************************************************************/
 322:.\Generated_Source\PSoC5/USBUART_1.c **** void USBUART_1_InitComponent(uint8 device, uint8 mode) 
 323:.\Generated_Source\PSoC5/USBUART_1.c **** {
 228              		.loc 1 323 0
 229              		.cfi_startproc
 230              		@ args = 0, pretend = 0, frame = 0
 231              		@ frame_needed = 0, uses_anonymous_args = 0
 232              	.LVL20:
 233 0000 08B5     		push	{r3, lr}
ARM GAS  C:\Users\Luke\AppData\Local\Temp\ccuzhVDD.s 			page 11


 234              	.LCFI1:
 235              		.cfi_def_cfa_offset 8
 236              		.cfi_offset 3, -8
 237              		.cfi_offset 14, -4
 324:.\Generated_Source\PSoC5/USBUART_1.c ****     /* Initialize _hidProtocol variable to comply with
 325:.\Generated_Source\PSoC5/USBUART_1.c ****     *  HID 7.2.6 Set_Protocol Request:
 326:.\Generated_Source\PSoC5/USBUART_1.c ****     *  "When initialized, all devices default to report protocol."
 327:.\Generated_Source\PSoC5/USBUART_1.c ****     */
 328:.\Generated_Source\PSoC5/USBUART_1.c ****     #if defined(USBUART_1_ENABLE_HID_CLASS)
 329:.\Generated_Source\PSoC5/USBUART_1.c ****         uint8 i;
 330:.\Generated_Source\PSoC5/USBUART_1.c **** 
 331:.\Generated_Source\PSoC5/USBUART_1.c ****         for (i = 0u; i < USBUART_1_MAX_INTERFACES_NUMBER; i++)
 332:.\Generated_Source\PSoC5/USBUART_1.c ****         {
 333:.\Generated_Source\PSoC5/USBUART_1.c ****             USBUART_1_hidProtocol[i] = USBUART_1_PROTOCOL_REPORT;
 334:.\Generated_Source\PSoC5/USBUART_1.c ****         }
 335:.\Generated_Source\PSoC5/USBUART_1.c ****     #endif /* USBUART_1_ENABLE_HID_CLASS */
 336:.\Generated_Source\PSoC5/USBUART_1.c **** 
 337:.\Generated_Source\PSoC5/USBUART_1.c ****     /* Enable Interrupts. */
 338:.\Generated_Source\PSoC5/USBUART_1.c ****     CyIntEnable(USBUART_1_BUS_RESET_VECT_NUM);
 238              		.loc 1 338 0
 239 0002 194B     		ldr	r3, .L11
 240 0004 4FF40002 		mov	r2, #8388608
 241 0008 1A60     		str	r2, [r3, #0]
 339:.\Generated_Source\PSoC5/USBUART_1.c ****     CyIntEnable(USBUART_1_EP_0_VECT_NUM);
 242              		.loc 1 339 0
 243 000a 4FF08072 		mov	r2, #16777216
 244 000e 1A60     		str	r2, [r3, #0]
 340:.\Generated_Source\PSoC5/USBUART_1.c ****     #if(USBUART_1_EP1_ISR_REMOVE == 0u)
 341:.\Generated_Source\PSoC5/USBUART_1.c ****         CyIntEnable(USBUART_1_EP_1_VECT_NUM);
 245              		.loc 1 341 0
 246 0010 0822     		movs	r2, #8
 247 0012 1A60     		str	r2, [r3, #0]
 342:.\Generated_Source\PSoC5/USBUART_1.c ****     #endif   /* End USBUART_1_EP1_ISR_REMOVE */
 343:.\Generated_Source\PSoC5/USBUART_1.c ****     #if(USBUART_1_EP2_ISR_REMOVE == 0u)
 344:.\Generated_Source\PSoC5/USBUART_1.c ****         CyIntEnable(USBUART_1_EP_2_VECT_NUM);
 248              		.loc 1 344 0
 249 0014 1022     		movs	r2, #16
 250 0016 1A60     		str	r2, [r3, #0]
 345:.\Generated_Source\PSoC5/USBUART_1.c ****     #endif   /* End USBUART_1_EP2_ISR_REMOVE */
 346:.\Generated_Source\PSoC5/USBUART_1.c ****     #if(USBUART_1_EP3_ISR_REMOVE == 0u)
 347:.\Generated_Source\PSoC5/USBUART_1.c ****         CyIntEnable(USBUART_1_EP_3_VECT_NUM);
 251              		.loc 1 347 0
 252 0018 2022     		movs	r2, #32
 253 001a 1A60     		str	r2, [r3, #0]
 348:.\Generated_Source\PSoC5/USBUART_1.c ****     #endif   /* End USBUART_1_EP3_ISR_REMOVE */
 349:.\Generated_Source\PSoC5/USBUART_1.c ****     #if(USBUART_1_EP4_ISR_REMOVE == 0u)
 350:.\Generated_Source\PSoC5/USBUART_1.c ****         CyIntEnable(USBUART_1_EP_4_VECT_NUM);
 351:.\Generated_Source\PSoC5/USBUART_1.c ****     #endif   /* End USBUART_1_EP4_ISR_REMOVE */
 352:.\Generated_Source\PSoC5/USBUART_1.c ****     #if(USBUART_1_EP5_ISR_REMOVE == 0u)
 353:.\Generated_Source\PSoC5/USBUART_1.c ****         CyIntEnable(USBUART_1_EP_5_VECT_NUM);
 354:.\Generated_Source\PSoC5/USBUART_1.c ****     #endif   /* End USBUART_1_EP5_ISR_REMOVE */
 355:.\Generated_Source\PSoC5/USBUART_1.c ****     #if(USBUART_1_EP6_ISR_REMOVE == 0u)
 356:.\Generated_Source\PSoC5/USBUART_1.c ****         CyIntEnable(USBUART_1_EP_6_VECT_NUM);
 357:.\Generated_Source\PSoC5/USBUART_1.c ****     #endif   /* End USBUART_1_EP6_ISR_REMOVE */
 358:.\Generated_Source\PSoC5/USBUART_1.c ****     #if(USBUART_1_EP7_ISR_REMOVE == 0u)
 359:.\Generated_Source\PSoC5/USBUART_1.c ****         CyIntEnable(USBUART_1_EP_7_VECT_NUM);
 360:.\Generated_Source\PSoC5/USBUART_1.c ****     #endif   /* End USBUART_1_EP7_ISR_REMOVE */
ARM GAS  C:\Users\Luke\AppData\Local\Temp\ccuzhVDD.s 			page 12


 361:.\Generated_Source\PSoC5/USBUART_1.c ****     #if(USBUART_1_EP8_ISR_REMOVE == 0u)
 362:.\Generated_Source\PSoC5/USBUART_1.c ****         CyIntEnable(USBUART_1_EP_8_VECT_NUM);
 363:.\Generated_Source\PSoC5/USBUART_1.c ****     #endif   /* End USBUART_1_EP8_ISR_REMOVE */
 364:.\Generated_Source\PSoC5/USBUART_1.c ****     #if((USBUART_1_EP_MM != USBUART_1__EP_MANUAL) && (USBUART_1_ARB_ISR_REMOVE == 0u))
 365:.\Generated_Source\PSoC5/USBUART_1.c ****         /* usb arb interrupt enable */
 366:.\Generated_Source\PSoC5/USBUART_1.c ****         USBUART_1_ARB_INT_EN_REG = USBUART_1_ARB_INT_MASK;
 367:.\Generated_Source\PSoC5/USBUART_1.c ****         CyIntEnable(USBUART_1_ARB_VECT_NUM);
 368:.\Generated_Source\PSoC5/USBUART_1.c ****     #endif   /* End USBUART_1_EP_MM != USBUART_1__EP_MANUAL */
 369:.\Generated_Source\PSoC5/USBUART_1.c **** 
 370:.\Generated_Source\PSoC5/USBUART_1.c ****     /* Arbiter configuration for DMA transfers */
 371:.\Generated_Source\PSoC5/USBUART_1.c ****     #if(USBUART_1_EP_MM != USBUART_1__EP_MANUAL)
 372:.\Generated_Source\PSoC5/USBUART_1.c **** 
 373:.\Generated_Source\PSoC5/USBUART_1.c ****         #if(USBUART_1_EP_MM == USBUART_1__EP_DMAMANUAL)
 374:.\Generated_Source\PSoC5/USBUART_1.c ****             USBUART_1_ARB_CFG_REG = USBUART_1_ARB_CFG_MANUAL_DMA;
 375:.\Generated_Source\PSoC5/USBUART_1.c ****         #endif   /* End USBUART_1_EP_MM == USBUART_1__EP_DMAMANUAL */
 376:.\Generated_Source\PSoC5/USBUART_1.c ****         #if(USBUART_1_EP_MM == USBUART_1__EP_DMAAUTO)
 377:.\Generated_Source\PSoC5/USBUART_1.c ****             /*Set cfg cmplt this rises DMA request when the full configuration is done */
 378:.\Generated_Source\PSoC5/USBUART_1.c ****             USBUART_1_ARB_CFG_REG = USBUART_1_ARB_CFG_AUTO_DMA | USBUART_1_ARB_CFG_AUTO_MEM;
 379:.\Generated_Source\PSoC5/USBUART_1.c ****         #endif   /* End USBUART_1_EP_MM == USBUART_1__EP_DMAAUTO */
 380:.\Generated_Source\PSoC5/USBUART_1.c ****     #endif   /* End USBUART_1_EP_MM != USBUART_1__EP_MANUAL */
 381:.\Generated_Source\PSoC5/USBUART_1.c **** 
 382:.\Generated_Source\PSoC5/USBUART_1.c ****     USBUART_1_transferState = USBUART_1_TRANS_STATE_IDLE;
 254              		.loc 1 382 0
 255 001c 134B     		ldr	r3, .L11+4
 256 001e 0022     		movs	r2, #0
 257 0020 1A70     		strb	r2, [r3, #0]
 258 0022 134B     		ldr	r3, .L11+8
 383:.\Generated_Source\PSoC5/USBUART_1.c **** 
 384:.\Generated_Source\PSoC5/USBUART_1.c ****     /* USB Locking: Enabled, VRegulator: depend on mode or DWR Voltage configuration*/
 385:.\Generated_Source\PSoC5/USBUART_1.c ****     switch(mode)
 259              		.loc 1 385 0
 260 0024 09B1     		cbz	r1, .L6
 261 0026 0321     		movs	r1, #3
 262              	.LVL21:
 263 0028 00E0     		b	.L9
 264              	.LVL22:
 265              	.L6:
 386:.\Generated_Source\PSoC5/USBUART_1.c ****     {
 387:.\Generated_Source\PSoC5/USBUART_1.c ****         case USBUART_1_3V_OPERATION:
 388:.\Generated_Source\PSoC5/USBUART_1.c ****             USBUART_1_CR1_REG = USBUART_1_CR1_ENABLE_LOCK;
 266              		.loc 1 388 0
 267 002a 0221     		movs	r1, #2
 268              	.LVL23:
 269              	.L9:
 389:.\Generated_Source\PSoC5/USBUART_1.c ****             break;
 390:.\Generated_Source\PSoC5/USBUART_1.c ****         case USBUART_1_5V_OPERATION:
 391:.\Generated_Source\PSoC5/USBUART_1.c ****             USBUART_1_CR1_REG = USBUART_1_CR1_ENABLE_LOCK | USBUART_1_CR1_REG_ENABLE;
 392:.\Generated_Source\PSoC5/USBUART_1.c ****             break;
 393:.\Generated_Source\PSoC5/USBUART_1.c ****         default:   /*USBUART_1_DWR_VDDD_OPERATION */
 394:.\Generated_Source\PSoC5/USBUART_1.c ****             #if(USBUART_1_VDDD_MV < USBUART_1_3500MV)
 395:.\Generated_Source\PSoC5/USBUART_1.c ****                 USBUART_1_CR1_REG = USBUART_1_CR1_ENABLE_LOCK;
 396:.\Generated_Source\PSoC5/USBUART_1.c ****             #else
 397:.\Generated_Source\PSoC5/USBUART_1.c ****                 USBUART_1_CR1_REG = USBUART_1_CR1_ENABLE_LOCK | USBUART_1_CR1_REG_ENABLE;
 398:.\Generated_Source\PSoC5/USBUART_1.c ****             #endif /* End USBUART_1_VDDD_MV < USBUART_1_3500MV */
 399:.\Generated_Source\PSoC5/USBUART_1.c ****             break;
 400:.\Generated_Source\PSoC5/USBUART_1.c ****     }
 401:.\Generated_Source\PSoC5/USBUART_1.c **** 
ARM GAS  C:\Users\Luke\AppData\Local\Temp\ccuzhVDD.s 			page 13


 402:.\Generated_Source\PSoC5/USBUART_1.c ****     /* Record the descriptor selection */
 403:.\Generated_Source\PSoC5/USBUART_1.c ****     USBUART_1_device = device;
 270              		.loc 1 403 0
 271 002c 114A     		ldr	r2, .L11+12
 397:.\Generated_Source\PSoC5/USBUART_1.c ****                 USBUART_1_CR1_REG = USBUART_1_CR1_ENABLE_LOCK | USBUART_1_CR1_REG_ENABLE;
 272              		.loc 1 397 0
 273 002e 1970     		strb	r1, [r3, #0]
 404:.\Generated_Source\PSoC5/USBUART_1.c **** 
 405:.\Generated_Source\PSoC5/USBUART_1.c ****     /* Clear all of the component data */
 406:.\Generated_Source\PSoC5/USBUART_1.c ****     USBUART_1_configuration = 0u;
 274              		.loc 1 406 0
 275 0030 114B     		ldr	r3, .L11+16
 403:.\Generated_Source\PSoC5/USBUART_1.c ****     USBUART_1_device = device;
 276              		.loc 1 403 0
 277 0032 1070     		strb	r0, [r2, #0]
 407:.\Generated_Source\PSoC5/USBUART_1.c ****     USBUART_1_interfaceNumber = 0u;
 278              		.loc 1 407 0
 279 0034 1149     		ldr	r1, .L11+20
 406:.\Generated_Source\PSoC5/USBUART_1.c ****     USBUART_1_configuration = 0u;
 280              		.loc 1 406 0
 281 0036 0020     		movs	r0, #0
 282              	.LVL24:
 408:.\Generated_Source\PSoC5/USBUART_1.c ****     USBUART_1_configurationChanged = 0u;
 283              		.loc 1 408 0
 284 0038 114A     		ldr	r2, .L11+24
 285              	.LVL25:
 406:.\Generated_Source\PSoC5/USBUART_1.c ****     USBUART_1_configuration = 0u;
 286              		.loc 1 406 0
 287 003a 1870     		strb	r0, [r3, #0]
 409:.\Generated_Source\PSoC5/USBUART_1.c ****     USBUART_1_deviceAddress  = 0u;
 288              		.loc 1 409 0
 289 003c 114B     		ldr	r3, .L11+28
 407:.\Generated_Source\PSoC5/USBUART_1.c ****     USBUART_1_interfaceNumber = 0u;
 290              		.loc 1 407 0
 291 003e 0870     		strb	r0, [r1, #0]
 408:.\Generated_Source\PSoC5/USBUART_1.c ****     USBUART_1_configurationChanged = 0u;
 292              		.loc 1 408 0
 293 0040 1070     		strb	r0, [r2, #0]
 410:.\Generated_Source\PSoC5/USBUART_1.c ****     USBUART_1_deviceStatus = 0u;
 294              		.loc 1 410 0
 295 0042 1149     		ldr	r1, .L11+32
 411:.\Generated_Source\PSoC5/USBUART_1.c **** 
 412:.\Generated_Source\PSoC5/USBUART_1.c ****     USBUART_1_lastPacketSize = 0u;
 296              		.loc 1 412 0
 297 0044 114A     		ldr	r2, .L11+36
 409:.\Generated_Source\PSoC5/USBUART_1.c ****     USBUART_1_deviceAddress  = 0u;
 298              		.loc 1 409 0
 299 0046 1870     		strb	r0, [r3, #0]
 413:.\Generated_Source\PSoC5/USBUART_1.c **** 
 414:.\Generated_Source\PSoC5/USBUART_1.c ****     /*  ACK Setup, Stall IN/OUT */
 415:.\Generated_Source\PSoC5/USBUART_1.c ****     CY_SET_REG8(USBUART_1_EP0_CR_PTR, USBUART_1_MODE_STALL_IN_OUT);
 300              		.loc 1 415 0
 301 0048 114B     		ldr	r3, .L11+40
 410:.\Generated_Source\PSoC5/USBUART_1.c ****     USBUART_1_deviceStatus = 0u;
 302              		.loc 1 410 0
 303 004a 0870     		strb	r0, [r1, #0]
 412:.\Generated_Source\PSoC5/USBUART_1.c ****     USBUART_1_lastPacketSize = 0u;
ARM GAS  C:\Users\Luke\AppData\Local\Temp\ccuzhVDD.s 			page 14


 304              		.loc 1 412 0
 305 004c 1070     		strb	r0, [r2, #0]
 416:.\Generated_Source\PSoC5/USBUART_1.c **** 
 417:.\Generated_Source\PSoC5/USBUART_1.c ****     /* Enable the SIE with an address 0 */
 418:.\Generated_Source\PSoC5/USBUART_1.c ****     CY_SET_REG8(USBUART_1_CR0_PTR, USBUART_1_CR0_ENABLE);
 306              		.loc 1 418 0
 307 004e 8021     		movs	r1, #128
 415:.\Generated_Source\PSoC5/USBUART_1.c ****     CY_SET_REG8(USBUART_1_EP0_CR_PTR, USBUART_1_MODE_STALL_IN_OUT);
 308              		.loc 1 415 0
 309 0050 0320     		movs	r0, #3
 310 0052 1870     		strb	r0, [r3, #0]
 419:.\Generated_Source\PSoC5/USBUART_1.c **** 
 420:.\Generated_Source\PSoC5/USBUART_1.c ****     /* Workaround for PSOC5LP */
 421:.\Generated_Source\PSoC5/USBUART_1.c ****     CyDelayCycles(1u);
 311              		.loc 1 421 0
 312 0054 0120     		movs	r0, #1
 418:.\Generated_Source\PSoC5/USBUART_1.c ****     CY_SET_REG8(USBUART_1_CR0_PTR, USBUART_1_CR0_ENABLE);
 313              		.loc 1 418 0
 314 0056 03F8201C 		strb	r1, [r3, #-32]
 315              		.loc 1 421 0
 316 005a FFF7FEFF 		bl	CyDelayCycles
 317              	.LVL26:
 422:.\Generated_Source\PSoC5/USBUART_1.c **** 
 423:.\Generated_Source\PSoC5/USBUART_1.c ****     /* Finally, Enable d+ pullup and select iomode to USB mode*/
 424:.\Generated_Source\PSoC5/USBUART_1.c ****     CY_SET_REG8(USBUART_1_USBIO_CR1_PTR, USBUART_1_USBIO_CR1_USBPUEN);
 318              		.loc 1 424 0
 319 005e 0D48     		ldr	r0, .L11+44
 320 0060 0422     		movs	r2, #4
 321 0062 0270     		strb	r2, [r0, #0]
 322 0064 08BD     		pop	{r3, pc}
 323              	.L12:
 324 0066 00BF     		.align	2
 325              	.L11:
 326 0068 00E100E0 		.word	-536813312
 327 006c 00000000 		.word	USBUART_1_transferState
 328 0070 09600040 		.word	1073766409
 329 0074 00000000 		.word	USBUART_1_device
 330 0078 00000000 		.word	USBUART_1_configuration
 331 007c 00000000 		.word	USBUART_1_interfaceNumber
 332 0080 00000000 		.word	USBUART_1_configurationChanged
 333 0084 00000000 		.word	USBUART_1_deviceAddress
 334 0088 00000000 		.word	USBUART_1_deviceStatus
 335 008c 00000000 		.word	USBUART_1_lastPacketSize
 336 0090 28600040 		.word	1073766440
 337 0094 12600040 		.word	1073766418
 338              		.cfi_endproc
 339              	.LFE2:
 340              		.size	USBUART_1_InitComponent, .-USBUART_1_InitComponent
 341              		.section	.text.USBUART_1_Start,"ax",%progbits
 342              		.align	1
 343              		.global	USBUART_1_Start
 344              		.thumb
 345              		.thumb_func
 346              		.type	USBUART_1_Start, %function
 347              	USBUART_1_Start:
 348              	.LFB0:
 107:.\Generated_Source\PSoC5/USBUART_1.c **** {
ARM GAS  C:\Users\Luke\AppData\Local\Temp\ccuzhVDD.s 			page 15


 349              		.loc 1 107 0
 350              		.cfi_startproc
 351              		@ args = 0, pretend = 0, frame = 0
 352              		@ frame_needed = 0, uses_anonymous_args = 0
 353              	.LVL27:
 354 0000 70B5     		push	{r4, r5, r6, lr}
 355              	.LCFI2:
 356              		.cfi_def_cfa_offset 16
 357              		.cfi_offset 4, -16
 358              		.cfi_offset 5, -12
 359              		.cfi_offset 6, -8
 360              		.cfi_offset 14, -4
 109:.\Generated_Source\PSoC5/USBUART_1.c ****     if(USBUART_1_initVar == 0u)
 361              		.loc 1 109 0
 362 0002 074C     		ldr	r4, .L15
 107:.\Generated_Source\PSoC5/USBUART_1.c **** {
 363              		.loc 1 107 0
 364 0004 0646     		mov	r6, r0
 109:.\Generated_Source\PSoC5/USBUART_1.c ****     if(USBUART_1_initVar == 0u)
 365              		.loc 1 109 0
 366 0006 2378     		ldrb	r3, [r4, #0]	@ zero_extendqisi2
 107:.\Generated_Source\PSoC5/USBUART_1.c **** {
 367              		.loc 1 107 0
 368 0008 0D46     		mov	r5, r1
 109:.\Generated_Source\PSoC5/USBUART_1.c ****     if(USBUART_1_initVar == 0u)
 369              		.loc 1 109 0
 370 000a 1BB9     		cbnz	r3, .L14
 111:.\Generated_Source\PSoC5/USBUART_1.c ****         USBUART_1_Init();
 371              		.loc 1 111 0
 372 000c FFF7FEFF 		bl	USBUART_1_Init
 373              	.LVL28:
 112:.\Generated_Source\PSoC5/USBUART_1.c ****         USBUART_1_initVar = 1u;
 374              		.loc 1 112 0
 375 0010 0120     		movs	r0, #1
 376 0012 2070     		strb	r0, [r4, #0]
 377              	.L14:
 114:.\Generated_Source\PSoC5/USBUART_1.c ****     USBUART_1_InitComponent(device, mode);
 378              		.loc 1 114 0
 379 0014 3046     		mov	r0, r6
 380 0016 2946     		mov	r1, r5
 115:.\Generated_Source\PSoC5/USBUART_1.c **** }
 381              		.loc 1 115 0
 382 0018 BDE87040 		pop	{r4, r5, r6, lr}
 114:.\Generated_Source\PSoC5/USBUART_1.c ****     USBUART_1_InitComponent(device, mode);
 383              		.loc 1 114 0
 384 001c FFF7FEBF 		b	USBUART_1_InitComponent
 385              	.LVL29:
 386              	.L16:
 387              		.align	2
 388              	.L15:
 389 0020 00000000 		.word	.LANCHOR0
 390              		.cfi_endproc
 391              	.LFE0:
 392              		.size	USBUART_1_Start, .-USBUART_1_Start
 393              		.section	.text.USBUART_1_ReInitComponent,"ax",%progbits
 394              		.align	1
 395              		.global	USBUART_1_ReInitComponent
ARM GAS  C:\Users\Luke\AppData\Local\Temp\ccuzhVDD.s 			page 16


 396              		.thumb
 397              		.thumb_func
 398              		.type	USBUART_1_ReInitComponent, %function
 399              	USBUART_1_ReInitComponent:
 400              	.LFB3:
 425:.\Generated_Source\PSoC5/USBUART_1.c **** }
 426:.\Generated_Source\PSoC5/USBUART_1.c **** 
 427:.\Generated_Source\PSoC5/USBUART_1.c **** 
 428:.\Generated_Source\PSoC5/USBUART_1.c **** /*******************************************************************************
 429:.\Generated_Source\PSoC5/USBUART_1.c **** * Function Name: USBUART_1_ReInitComponent
 430:.\Generated_Source\PSoC5/USBUART_1.c **** ********************************************************************************
 431:.\Generated_Source\PSoC5/USBUART_1.c **** *
 432:.\Generated_Source\PSoC5/USBUART_1.c **** * Summary:
 433:.\Generated_Source\PSoC5/USBUART_1.c **** *  This function reinitialize the component configuration and is
 434:.\Generated_Source\PSoC5/USBUART_1.c **** *  intend to be called from the Reset interrupt.
 435:.\Generated_Source\PSoC5/USBUART_1.c **** *
 436:.\Generated_Source\PSoC5/USBUART_1.c **** * Parameters:
 437:.\Generated_Source\PSoC5/USBUART_1.c **** *  None.
 438:.\Generated_Source\PSoC5/USBUART_1.c **** *
 439:.\Generated_Source\PSoC5/USBUART_1.c **** * Return:
 440:.\Generated_Source\PSoC5/USBUART_1.c **** *   None.
 441:.\Generated_Source\PSoC5/USBUART_1.c **** *
 442:.\Generated_Source\PSoC5/USBUART_1.c **** * Global variables:
 443:.\Generated_Source\PSoC5/USBUART_1.c **** *   USBUART_1_device: Contains the device number of the desired device
 444:.\Generated_Source\PSoC5/USBUART_1.c **** *        descriptor. The device number can be found in the Device Descriptor Tab
 445:.\Generated_Source\PSoC5/USBUART_1.c **** *       of "Configure" dialog, under the settings of desired Device Descriptor,
 446:.\Generated_Source\PSoC5/USBUART_1.c **** *       in the "Device Number" field.
 447:.\Generated_Source\PSoC5/USBUART_1.c **** *   USBUART_1_transferState: This variable used by the communication
 448:.\Generated_Source\PSoC5/USBUART_1.c **** *       functions to handle current transfer state. Initialized to
 449:.\Generated_Source\PSoC5/USBUART_1.c **** *       TRANS_STATE_IDLE in this API.
 450:.\Generated_Source\PSoC5/USBUART_1.c **** *   USBUART_1_configuration: Contains current configuration number
 451:.\Generated_Source\PSoC5/USBUART_1.c **** *       which is set by the Host using SET_CONFIGURATION request.
 452:.\Generated_Source\PSoC5/USBUART_1.c **** *       Initialized to zero in this API.
 453:.\Generated_Source\PSoC5/USBUART_1.c **** *   USBUART_1_deviceAddress: Contains current device address. This
 454:.\Generated_Source\PSoC5/USBUART_1.c **** *       variable is initialized to zero in this API. Host starts to communicate
 455:.\Generated_Source\PSoC5/USBUART_1.c **** *      to device with address 0 and then set it to whatever value using
 456:.\Generated_Source\PSoC5/USBUART_1.c **** *      SET_ADDRESS request.
 457:.\Generated_Source\PSoC5/USBUART_1.c **** *   USBUART_1_deviceStatus: initialized to 0.
 458:.\Generated_Source\PSoC5/USBUART_1.c **** *       This is two bit variable which contain power status in first bit
 459:.\Generated_Source\PSoC5/USBUART_1.c **** *       (DEVICE_STATUS_BUS_POWERED or DEVICE_STATUS_SELF_POWERED) and remote
 460:.\Generated_Source\PSoC5/USBUART_1.c **** *       wakeup status (DEVICE_STATUS_REMOTE_WAKEUP) in second bit.
 461:.\Generated_Source\PSoC5/USBUART_1.c **** *   USBUART_1_lastPacketSize initialized to 0;
 462:.\Generated_Source\PSoC5/USBUART_1.c **** *
 463:.\Generated_Source\PSoC5/USBUART_1.c **** * Reentrant:
 464:.\Generated_Source\PSoC5/USBUART_1.c **** *  No.
 465:.\Generated_Source\PSoC5/USBUART_1.c **** *
 466:.\Generated_Source\PSoC5/USBUART_1.c **** *******************************************************************************/
 467:.\Generated_Source\PSoC5/USBUART_1.c **** void USBUART_1_ReInitComponent(void) 
 468:.\Generated_Source\PSoC5/USBUART_1.c **** {
 401              		.loc 1 468 0
 402              		.cfi_startproc
 403              		@ args = 0, pretend = 0, frame = 0
 404              		@ frame_needed = 0, uses_anonymous_args = 0
 405              		@ link register save eliminated.
 469:.\Generated_Source\PSoC5/USBUART_1.c ****     /* Initialize _hidProtocol variable to comply with HID 7.2.6 Set_Protocol
 470:.\Generated_Source\PSoC5/USBUART_1.c ****     *  Request: "When initialized, all devices default to report protocol."
 471:.\Generated_Source\PSoC5/USBUART_1.c ****     */
ARM GAS  C:\Users\Luke\AppData\Local\Temp\ccuzhVDD.s 			page 17


 472:.\Generated_Source\PSoC5/USBUART_1.c ****     #if defined(USBUART_1_ENABLE_HID_CLASS)
 473:.\Generated_Source\PSoC5/USBUART_1.c ****         uint8 i;
 474:.\Generated_Source\PSoC5/USBUART_1.c **** 
 475:.\Generated_Source\PSoC5/USBUART_1.c ****         for (i = 0u; i < USBUART_1_MAX_INTERFACES_NUMBER; i++)
 476:.\Generated_Source\PSoC5/USBUART_1.c ****         {
 477:.\Generated_Source\PSoC5/USBUART_1.c ****             USBUART_1_hidProtocol[i] = USBUART_1_PROTOCOL_REPORT;
 478:.\Generated_Source\PSoC5/USBUART_1.c ****         }
 479:.\Generated_Source\PSoC5/USBUART_1.c ****     #endif /* USBUART_1_ENABLE_HID_CLASS */
 480:.\Generated_Source\PSoC5/USBUART_1.c **** 
 481:.\Generated_Source\PSoC5/USBUART_1.c ****     USBUART_1_transferState = USBUART_1_TRANS_STATE_IDLE;
 406              		.loc 1 481 0
 407 0000 0A4A     		ldr	r2, .L18
 408 0002 0023     		movs	r3, #0
 409 0004 1370     		strb	r3, [r2, #0]
 482:.\Generated_Source\PSoC5/USBUART_1.c **** 
 483:.\Generated_Source\PSoC5/USBUART_1.c ****     /* Clear all of the component data */
 484:.\Generated_Source\PSoC5/USBUART_1.c ****     USBUART_1_configuration = 0u;
 410              		.loc 1 484 0
 411 0006 0A48     		ldr	r0, .L18+4
 485:.\Generated_Source\PSoC5/USBUART_1.c ****     USBUART_1_interfaceNumber = 0u;
 412              		.loc 1 485 0
 413 0008 0A49     		ldr	r1, .L18+8
 486:.\Generated_Source\PSoC5/USBUART_1.c ****     USBUART_1_configurationChanged = 0u;
 414              		.loc 1 486 0
 415 000a 0B4A     		ldr	r2, .L18+12
 484:.\Generated_Source\PSoC5/USBUART_1.c ****     USBUART_1_configuration = 0u;
 416              		.loc 1 484 0
 417 000c 0370     		strb	r3, [r0, #0]
 485:.\Generated_Source\PSoC5/USBUART_1.c ****     USBUART_1_interfaceNumber = 0u;
 418              		.loc 1 485 0
 419 000e 0B70     		strb	r3, [r1, #0]
 487:.\Generated_Source\PSoC5/USBUART_1.c ****     USBUART_1_deviceAddress  = 0u;
 420              		.loc 1 487 0
 421 0010 0A48     		ldr	r0, .L18+16
 486:.\Generated_Source\PSoC5/USBUART_1.c ****     USBUART_1_configurationChanged = 0u;
 422              		.loc 1 486 0
 423 0012 1370     		strb	r3, [r2, #0]
 488:.\Generated_Source\PSoC5/USBUART_1.c ****     USBUART_1_deviceStatus = 0u;
 424              		.loc 1 488 0
 425 0014 0A49     		ldr	r1, .L18+20
 489:.\Generated_Source\PSoC5/USBUART_1.c **** 
 490:.\Generated_Source\PSoC5/USBUART_1.c ****     USBUART_1_lastPacketSize = 0u;
 426              		.loc 1 490 0
 427 0016 0B4A     		ldr	r2, .L18+24
 487:.\Generated_Source\PSoC5/USBUART_1.c ****     USBUART_1_deviceAddress  = 0u;
 428              		.loc 1 487 0
 429 0018 0370     		strb	r3, [r0, #0]
 488:.\Generated_Source\PSoC5/USBUART_1.c ****     USBUART_1_deviceStatus = 0u;
 430              		.loc 1 488 0
 431 001a 0B70     		strb	r3, [r1, #0]
 432              		.loc 1 490 0
 433 001c 1370     		strb	r3, [r2, #0]
 491:.\Generated_Source\PSoC5/USBUART_1.c **** 
 492:.\Generated_Source\PSoC5/USBUART_1.c **** 
 493:.\Generated_Source\PSoC5/USBUART_1.c ****     /*  ACK Setup, Stall IN/OUT */
 494:.\Generated_Source\PSoC5/USBUART_1.c ****     CY_SET_REG8(USBUART_1_EP0_CR_PTR, USBUART_1_MODE_STALL_IN_OUT);
 434              		.loc 1 494 0
ARM GAS  C:\Users\Luke\AppData\Local\Temp\ccuzhVDD.s 			page 18


 435 001e 0A4B     		ldr	r3, .L18+28
 436 0020 0320     		movs	r0, #3
 495:.\Generated_Source\PSoC5/USBUART_1.c **** 
 496:.\Generated_Source\PSoC5/USBUART_1.c ****     /* Enable the SIE with an address 0 */
 497:.\Generated_Source\PSoC5/USBUART_1.c ****     CY_SET_REG8(USBUART_1_CR0_PTR, USBUART_1_CR0_ENABLE);
 437              		.loc 1 497 0
 438 0022 8021     		movs	r1, #128
 494:.\Generated_Source\PSoC5/USBUART_1.c ****     CY_SET_REG8(USBUART_1_EP0_CR_PTR, USBUART_1_MODE_STALL_IN_OUT);
 439              		.loc 1 494 0
 440 0024 1870     		strb	r0, [r3, #0]
 441              		.loc 1 497 0
 442 0026 03F8201C 		strb	r1, [r3, #-32]
 443 002a 7047     		bx	lr
 444              	.L19:
 445              		.align	2
 446              	.L18:
 447 002c 00000000 		.word	USBUART_1_transferState
 448 0030 00000000 		.word	USBUART_1_configuration
 449 0034 00000000 		.word	USBUART_1_interfaceNumber
 450 0038 00000000 		.word	USBUART_1_configurationChanged
 451 003c 00000000 		.word	USBUART_1_deviceAddress
 452 0040 00000000 		.word	USBUART_1_deviceStatus
 453 0044 00000000 		.word	USBUART_1_lastPacketSize
 454 0048 28600040 		.word	1073766440
 455              		.cfi_endproc
 456              	.LFE3:
 457              		.size	USBUART_1_ReInitComponent, .-USBUART_1_ReInitComponent
 458              		.section	.text.USBUART_1_Stop,"ax",%progbits
 459              		.align	1
 460              		.global	USBUART_1_Stop
 461              		.thumb
 462              		.thumb_func
 463              		.type	USBUART_1_Stop, %function
 464              	USBUART_1_Stop:
 465              	.LFB4:
 498:.\Generated_Source\PSoC5/USBUART_1.c **** 
 499:.\Generated_Source\PSoC5/USBUART_1.c **** }
 500:.\Generated_Source\PSoC5/USBUART_1.c **** 
 501:.\Generated_Source\PSoC5/USBUART_1.c **** 
 502:.\Generated_Source\PSoC5/USBUART_1.c **** /*******************************************************************************
 503:.\Generated_Source\PSoC5/USBUART_1.c **** * Function Name: USBUART_1_Stop
 504:.\Generated_Source\PSoC5/USBUART_1.c **** ********************************************************************************
 505:.\Generated_Source\PSoC5/USBUART_1.c **** *
 506:.\Generated_Source\PSoC5/USBUART_1.c **** * Summary:
 507:.\Generated_Source\PSoC5/USBUART_1.c **** *  This function shuts down the USB function including to release
 508:.\Generated_Source\PSoC5/USBUART_1.c **** *  the D+ Pullup and disabling the SIE.
 509:.\Generated_Source\PSoC5/USBUART_1.c **** *
 510:.\Generated_Source\PSoC5/USBUART_1.c **** * Parameters:
 511:.\Generated_Source\PSoC5/USBUART_1.c **** *  None.
 512:.\Generated_Source\PSoC5/USBUART_1.c **** *
 513:.\Generated_Source\PSoC5/USBUART_1.c **** * Return:
 514:.\Generated_Source\PSoC5/USBUART_1.c **** *  None.
 515:.\Generated_Source\PSoC5/USBUART_1.c **** *
 516:.\Generated_Source\PSoC5/USBUART_1.c **** * Global variables:
 517:.\Generated_Source\PSoC5/USBUART_1.c **** *   USBUART_1_configuration: Contains current configuration number
 518:.\Generated_Source\PSoC5/USBUART_1.c **** *       which is set by the Host using SET_CONFIGURATION request.
 519:.\Generated_Source\PSoC5/USBUART_1.c **** *       Initialized to zero in this API.
ARM GAS  C:\Users\Luke\AppData\Local\Temp\ccuzhVDD.s 			page 19


 520:.\Generated_Source\PSoC5/USBUART_1.c **** *   USBUART_1_deviceAddress: Contains current device address. This
 521:.\Generated_Source\PSoC5/USBUART_1.c **** *       variable is initialized to zero in this API. Host starts to communicate
 522:.\Generated_Source\PSoC5/USBUART_1.c **** *      to device with address 0 and then set it to whatever value using
 523:.\Generated_Source\PSoC5/USBUART_1.c **** *      SET_ADDRESS request.
 524:.\Generated_Source\PSoC5/USBUART_1.c **** *   USBUART_1_deviceStatus: initialized to 0.
 525:.\Generated_Source\PSoC5/USBUART_1.c **** *       This is two bit variable which contain power status in first bit
 526:.\Generated_Source\PSoC5/USBUART_1.c **** *       (DEVICE_STATUS_BUS_POWERED or DEVICE_STATUS_SELF_POWERED) and remote
 527:.\Generated_Source\PSoC5/USBUART_1.c **** *       wakeup status (DEVICE_STATUS_REMOTE_WAKEUP) in second bit.
 528:.\Generated_Source\PSoC5/USBUART_1.c **** *   USBUART_1_configurationChanged: This variable is set to one after
 529:.\Generated_Source\PSoC5/USBUART_1.c **** *       SET_CONFIGURATION request and cleared in this function.
 530:.\Generated_Source\PSoC5/USBUART_1.c **** *   USBUART_1_intiVar variable is set to zero
 531:.\Generated_Source\PSoC5/USBUART_1.c **** *
 532:.\Generated_Source\PSoC5/USBUART_1.c **** *******************************************************************************/
 533:.\Generated_Source\PSoC5/USBUART_1.c **** void USBUART_1_Stop(void) 
 534:.\Generated_Source\PSoC5/USBUART_1.c **** {
 466              		.loc 1 534 0
 467              		.cfi_startproc
 468              		@ args = 0, pretend = 0, frame = 0
 469              		@ frame_needed = 0, uses_anonymous_args = 0
 470              		@ link register save eliminated.
 535:.\Generated_Source\PSoC5/USBUART_1.c **** 
 536:.\Generated_Source\PSoC5/USBUART_1.c ****     #if(USBUART_1_EP_MM != USBUART_1__EP_MANUAL)
 537:.\Generated_Source\PSoC5/USBUART_1.c ****         USBUART_1_Stop_DMA(USBUART_1_MAX_EP);     /* Stop all DMAs */
 538:.\Generated_Source\PSoC5/USBUART_1.c ****     #endif   /* End USBUART_1_EP_MM != USBUART_1__EP_MANUAL */
 539:.\Generated_Source\PSoC5/USBUART_1.c **** 
 540:.\Generated_Source\PSoC5/USBUART_1.c ****     /* Disable the SIE */
 541:.\Generated_Source\PSoC5/USBUART_1.c ****     USBUART_1_CR0_REG &= (uint8)(~USBUART_1_CR0_ENABLE);
 471              		.loc 1 541 0
 472 0000 164B     		ldr	r3, .L21
 473 0002 1A78     		ldrb	r2, [r3, #0]	@ zero_extendqisi2
 474 0004 02F07F00 		and	r0, r2, #127
 475 0008 1870     		strb	r0, [r3, #0]
 542:.\Generated_Source\PSoC5/USBUART_1.c ****     /* Disable the d+ pullup */
 543:.\Generated_Source\PSoC5/USBUART_1.c ****     USBUART_1_USBIO_CR1_REG &= (uint8)(~USBUART_1_USBIO_CR1_USBPUEN);
 476              		.loc 1 543 0
 477 000a 997A     		ldrb	r1, [r3, #10]	@ zero_extendqisi2
 478 000c 01F0FB02 		and	r2, r1, #251
 479 0010 9A72     		strb	r2, [r3, #10]
 544:.\Generated_Source\PSoC5/USBUART_1.c ****     /* Disable USB in ACT PM */
 545:.\Generated_Source\PSoC5/USBUART_1.c ****     USBUART_1_PM_ACT_CFG_REG &= (uint8)(~USBUART_1_PM_ACT_EN_FSUSB);
 480              		.loc 1 545 0
 481 0012 134B     		ldr	r3, .L21+4
 482 0014 1878     		ldrb	r0, [r3, #0]	@ zero_extendqisi2
 483 0016 00F0FE01 		and	r1, r0, #254
 484 001a 1970     		strb	r1, [r3, #0]
 546:.\Generated_Source\PSoC5/USBUART_1.c ****     /* Disable USB block for Standby Power Mode */
 547:.\Generated_Source\PSoC5/USBUART_1.c ****     USBUART_1_PM_STBY_CFG_REG &= (uint8)(~USBUART_1_PM_STBY_EN_FSUSB);
 485              		.loc 1 547 0
 486 001c 1A7C     		ldrb	r2, [r3, #16]	@ zero_extendqisi2
 548:.\Generated_Source\PSoC5/USBUART_1.c **** 
 549:.\Generated_Source\PSoC5/USBUART_1.c ****     /* Disable the reset and EP interrupts */
 550:.\Generated_Source\PSoC5/USBUART_1.c ****     CyIntDisable(USBUART_1_BUS_RESET_VECT_NUM);
 487              		.loc 1 550 0
 488 001e 4FF40001 		mov	r1, #8388608
 547:.\Generated_Source\PSoC5/USBUART_1.c ****     USBUART_1_PM_STBY_CFG_REG &= (uint8)(~USBUART_1_PM_STBY_EN_FSUSB);
 489              		.loc 1 547 0
 490 0022 02F0FE00 		and	r0, r2, #254
ARM GAS  C:\Users\Luke\AppData\Local\Temp\ccuzhVDD.s 			page 20


 491 0026 1874     		strb	r0, [r3, #16]
 492              		.loc 1 550 0
 493 0028 0E4B     		ldr	r3, .L21+8
 551:.\Generated_Source\PSoC5/USBUART_1.c ****     CyIntDisable(USBUART_1_EP_0_VECT_NUM);
 494              		.loc 1 551 0
 495 002a 4FF08072 		mov	r2, #16777216
 550:.\Generated_Source\PSoC5/USBUART_1.c ****     CyIntDisable(USBUART_1_BUS_RESET_VECT_NUM);
 496              		.loc 1 550 0
 497 002e 1960     		str	r1, [r3, #0]
 552:.\Generated_Source\PSoC5/USBUART_1.c ****     #if(USBUART_1_EP1_ISR_REMOVE == 0u)
 553:.\Generated_Source\PSoC5/USBUART_1.c ****         CyIntDisable(USBUART_1_EP_1_VECT_NUM);
 498              		.loc 1 553 0
 499 0030 0820     		movs	r0, #8
 551:.\Generated_Source\PSoC5/USBUART_1.c ****     CyIntDisable(USBUART_1_EP_0_VECT_NUM);
 500              		.loc 1 551 0
 501 0032 1A60     		str	r2, [r3, #0]
 554:.\Generated_Source\PSoC5/USBUART_1.c ****     #endif   /* End USBUART_1_EP1_ISR_REMOVE */
 555:.\Generated_Source\PSoC5/USBUART_1.c ****     #if(USBUART_1_EP2_ISR_REMOVE == 0u)
 556:.\Generated_Source\PSoC5/USBUART_1.c ****         CyIntDisable(USBUART_1_EP_2_VECT_NUM);
 502              		.loc 1 556 0
 503 0034 1021     		movs	r1, #16
 557:.\Generated_Source\PSoC5/USBUART_1.c ****     #endif   /* End USBUART_1_EP2_ISR_REMOVE */
 558:.\Generated_Source\PSoC5/USBUART_1.c ****     #if(USBUART_1_EP3_ISR_REMOVE == 0u)
 559:.\Generated_Source\PSoC5/USBUART_1.c ****         CyIntDisable(USBUART_1_EP_3_VECT_NUM);
 504              		.loc 1 559 0
 505 0036 2022     		movs	r2, #32
 553:.\Generated_Source\PSoC5/USBUART_1.c ****         CyIntDisable(USBUART_1_EP_1_VECT_NUM);
 506              		.loc 1 553 0
 507 0038 1860     		str	r0, [r3, #0]
 556:.\Generated_Source\PSoC5/USBUART_1.c ****         CyIntDisable(USBUART_1_EP_2_VECT_NUM);
 508              		.loc 1 556 0
 509 003a 1960     		str	r1, [r3, #0]
 560:.\Generated_Source\PSoC5/USBUART_1.c ****     #endif   /* End USBUART_1_EP3_ISR_REMOVE */
 561:.\Generated_Source\PSoC5/USBUART_1.c ****     #if(USBUART_1_EP4_ISR_REMOVE == 0u)
 562:.\Generated_Source\PSoC5/USBUART_1.c ****         CyIntDisable(USBUART_1_EP_4_VECT_NUM);
 563:.\Generated_Source\PSoC5/USBUART_1.c ****     #endif   /* End USBUART_1_EP4_ISR_REMOVE */
 564:.\Generated_Source\PSoC5/USBUART_1.c ****     #if(USBUART_1_EP5_ISR_REMOVE == 0u)
 565:.\Generated_Source\PSoC5/USBUART_1.c ****         CyIntDisable(USBUART_1_EP_5_VECT_NUM);
 566:.\Generated_Source\PSoC5/USBUART_1.c ****     #endif   /* End USBUART_1_EP5_ISR_REMOVE */
 567:.\Generated_Source\PSoC5/USBUART_1.c ****     #if(USBUART_1_EP6_ISR_REMOVE == 0u)
 568:.\Generated_Source\PSoC5/USBUART_1.c ****         CyIntDisable(USBUART_1_EP_6_VECT_NUM);
 569:.\Generated_Source\PSoC5/USBUART_1.c ****     #endif   /* End USBUART_1_EP6_ISR_REMOVE */
 570:.\Generated_Source\PSoC5/USBUART_1.c ****     #if(USBUART_1_EP7_ISR_REMOVE == 0u)
 571:.\Generated_Source\PSoC5/USBUART_1.c ****         CyIntDisable(USBUART_1_EP_7_VECT_NUM);
 572:.\Generated_Source\PSoC5/USBUART_1.c ****     #endif   /* End USBUART_1_EP7_ISR_REMOVE */
 573:.\Generated_Source\PSoC5/USBUART_1.c ****     #if(USBUART_1_EP8_ISR_REMOVE == 0u)
 574:.\Generated_Source\PSoC5/USBUART_1.c ****         CyIntDisable(USBUART_1_EP_8_VECT_NUM);
 575:.\Generated_Source\PSoC5/USBUART_1.c ****     #endif   /* End USBUART_1_EP8_ISR_REMOVE */
 576:.\Generated_Source\PSoC5/USBUART_1.c **** 
 577:.\Generated_Source\PSoC5/USBUART_1.c ****     /* Clear all of the component data */
 578:.\Generated_Source\PSoC5/USBUART_1.c ****     USBUART_1_configuration = 0u;
 510              		.loc 1 578 0
 511 003c 0A48     		ldr	r0, .L21+12
 559:.\Generated_Source\PSoC5/USBUART_1.c ****         CyIntDisable(USBUART_1_EP_3_VECT_NUM);
 512              		.loc 1 559 0
 513 003e 1A60     		str	r2, [r3, #0]
 579:.\Generated_Source\PSoC5/USBUART_1.c ****     USBUART_1_interfaceNumber = 0u;
ARM GAS  C:\Users\Luke\AppData\Local\Temp\ccuzhVDD.s 			page 21


 514              		.loc 1 579 0
 515 0040 0A49     		ldr	r1, .L21+16
 580:.\Generated_Source\PSoC5/USBUART_1.c ****     USBUART_1_configurationChanged = 0u;
 516              		.loc 1 580 0
 517 0042 0B4A     		ldr	r2, .L21+20
 578:.\Generated_Source\PSoC5/USBUART_1.c ****     USBUART_1_configuration = 0u;
 518              		.loc 1 578 0
 519 0044 0023     		movs	r3, #0
 520 0046 0370     		strb	r3, [r0, #0]
 579:.\Generated_Source\PSoC5/USBUART_1.c ****     USBUART_1_interfaceNumber = 0u;
 521              		.loc 1 579 0
 522 0048 0B70     		strb	r3, [r1, #0]
 581:.\Generated_Source\PSoC5/USBUART_1.c ****     USBUART_1_deviceAddress  = 0u;
 523              		.loc 1 581 0
 524 004a 0A48     		ldr	r0, .L21+24
 580:.\Generated_Source\PSoC5/USBUART_1.c ****     USBUART_1_configurationChanged = 0u;
 525              		.loc 1 580 0
 526 004c 1370     		strb	r3, [r2, #0]
 582:.\Generated_Source\PSoC5/USBUART_1.c ****     USBUART_1_deviceStatus = 0u;
 527              		.loc 1 582 0
 528 004e 0A49     		ldr	r1, .L21+28
 583:.\Generated_Source\PSoC5/USBUART_1.c ****     USBUART_1_initVar = 0u;
 529              		.loc 1 583 0
 530 0050 0A4A     		ldr	r2, .L21+32
 581:.\Generated_Source\PSoC5/USBUART_1.c ****     USBUART_1_deviceAddress  = 0u;
 531              		.loc 1 581 0
 532 0052 0370     		strb	r3, [r0, #0]
 533              		.loc 1 583 0
 534 0054 1370     		strb	r3, [r2, #0]
 582:.\Generated_Source\PSoC5/USBUART_1.c ****     USBUART_1_deviceStatus = 0u;
 535              		.loc 1 582 0
 536 0056 0B70     		strb	r3, [r1, #0]
 537              		.loc 1 583 0
 538 0058 7047     		bx	lr
 539              	.L22:
 540 005a 00BF     		.align	2
 541              	.L21:
 542 005c 08600040 		.word	1073766408
 543 0060 A5430040 		.word	1073759141
 544 0064 80E100E0 		.word	-536813184
 545 0068 00000000 		.word	USBUART_1_configuration
 546 006c 00000000 		.word	USBUART_1_interfaceNumber
 547 0070 00000000 		.word	USBUART_1_configurationChanged
 548 0074 00000000 		.word	USBUART_1_deviceAddress
 549 0078 00000000 		.word	USBUART_1_deviceStatus
 550 007c 00000000 		.word	.LANCHOR0
 551              		.cfi_endproc
 552              	.LFE4:
 553              		.size	USBUART_1_Stop, .-USBUART_1_Stop
 554              		.section	.text.USBUART_1_CheckActivity,"ax",%progbits
 555              		.align	1
 556              		.global	USBUART_1_CheckActivity
 557              		.thumb
 558              		.thumb_func
 559              		.type	USBUART_1_CheckActivity, %function
 560              	USBUART_1_CheckActivity:
 561              	.LFB5:
ARM GAS  C:\Users\Luke\AppData\Local\Temp\ccuzhVDD.s 			page 22


 584:.\Generated_Source\PSoC5/USBUART_1.c **** 
 585:.\Generated_Source\PSoC5/USBUART_1.c **** }
 586:.\Generated_Source\PSoC5/USBUART_1.c **** 
 587:.\Generated_Source\PSoC5/USBUART_1.c **** 
 588:.\Generated_Source\PSoC5/USBUART_1.c **** /*******************************************************************************
 589:.\Generated_Source\PSoC5/USBUART_1.c **** * Function Name: USBUART_1_CheckActivity
 590:.\Generated_Source\PSoC5/USBUART_1.c **** ********************************************************************************
 591:.\Generated_Source\PSoC5/USBUART_1.c **** *
 592:.\Generated_Source\PSoC5/USBUART_1.c **** * Summary:
 593:.\Generated_Source\PSoC5/USBUART_1.c **** *  Returns the activity status of the bus.  Clears the status hardware to
 594:.\Generated_Source\PSoC5/USBUART_1.c **** *  provide fresh activity status on the next call of this routine.
 595:.\Generated_Source\PSoC5/USBUART_1.c **** *
 596:.\Generated_Source\PSoC5/USBUART_1.c **** * Parameters:
 597:.\Generated_Source\PSoC5/USBUART_1.c **** *  None.
 598:.\Generated_Source\PSoC5/USBUART_1.c **** *
 599:.\Generated_Source\PSoC5/USBUART_1.c **** * Return:
 600:.\Generated_Source\PSoC5/USBUART_1.c **** *  1 - If bus activity was detected since the last call to this function
 601:.\Generated_Source\PSoC5/USBUART_1.c **** *  0 - If bus activity not was detected since the last call to this function
 602:.\Generated_Source\PSoC5/USBUART_1.c **** *
 603:.\Generated_Source\PSoC5/USBUART_1.c **** *******************************************************************************/
 604:.\Generated_Source\PSoC5/USBUART_1.c **** uint8 USBUART_1_CheckActivity(void) 
 605:.\Generated_Source\PSoC5/USBUART_1.c **** {
 562              		.loc 1 605 0
 563              		.cfi_startproc
 564              		@ args = 0, pretend = 0, frame = 0
 565              		@ frame_needed = 0, uses_anonymous_args = 0
 566              		@ link register save eliminated.
 606:.\Generated_Source\PSoC5/USBUART_1.c ****     uint8 r;
 607:.\Generated_Source\PSoC5/USBUART_1.c **** 
 608:.\Generated_Source\PSoC5/USBUART_1.c ****     r = CY_GET_REG8(USBUART_1_CR1_PTR);
 567              		.loc 1 608 0
 568 0000 034B     		ldr	r3, .L24
 569 0002 1878     		ldrb	r0, [r3, #0]	@ zero_extendqisi2
 570              	.LVL30:
 609:.\Generated_Source\PSoC5/USBUART_1.c ****     CY_SET_REG8(USBUART_1_CR1_PTR, (r & ((uint8)(~USBUART_1_CR1_BUS_ACTIVITY))));
 571              		.loc 1 609 0
 572 0004 00F0FB02 		and	r2, r0, #251
 573 0008 1A70     		strb	r2, [r3, #0]
 610:.\Generated_Source\PSoC5/USBUART_1.c **** 
 611:.\Generated_Source\PSoC5/USBUART_1.c ****     return((r & USBUART_1_CR1_BUS_ACTIVITY) >> USBUART_1_CR1_BUS_ACTIVITY_SHIFT);
 612:.\Generated_Source\PSoC5/USBUART_1.c **** }
 574              		.loc 1 612 0
 575 000a C0F38000 		ubfx	r0, r0, #2, #1
 576              	.LVL31:
 577 000e 7047     		bx	lr
 578              	.L25:
 579              		.align	2
 580              	.L24:
 581 0010 09600040 		.word	1073766409
 582              		.cfi_endproc
 583              	.LFE5:
 584              		.size	USBUART_1_CheckActivity, .-USBUART_1_CheckActivity
 585              		.section	.text.USBUART_1_GetConfiguration,"ax",%progbits
 586              		.align	1
 587              		.global	USBUART_1_GetConfiguration
 588              		.thumb
 589              		.thumb_func
ARM GAS  C:\Users\Luke\AppData\Local\Temp\ccuzhVDD.s 			page 23


 590              		.type	USBUART_1_GetConfiguration, %function
 591              	USBUART_1_GetConfiguration:
 592              	.LFB6:
 613:.\Generated_Source\PSoC5/USBUART_1.c **** 
 614:.\Generated_Source\PSoC5/USBUART_1.c **** 
 615:.\Generated_Source\PSoC5/USBUART_1.c **** /*******************************************************************************
 616:.\Generated_Source\PSoC5/USBUART_1.c **** * Function Name: USBUART_1_GetConfiguration
 617:.\Generated_Source\PSoC5/USBUART_1.c **** ********************************************************************************
 618:.\Generated_Source\PSoC5/USBUART_1.c **** *
 619:.\Generated_Source\PSoC5/USBUART_1.c **** * Summary:
 620:.\Generated_Source\PSoC5/USBUART_1.c **** *  Returns the current configuration setting
 621:.\Generated_Source\PSoC5/USBUART_1.c **** *
 622:.\Generated_Source\PSoC5/USBUART_1.c **** * Parameters:
 623:.\Generated_Source\PSoC5/USBUART_1.c **** *  None.
 624:.\Generated_Source\PSoC5/USBUART_1.c **** *
 625:.\Generated_Source\PSoC5/USBUART_1.c **** * Return:
 626:.\Generated_Source\PSoC5/USBUART_1.c **** *  configuration.
 627:.\Generated_Source\PSoC5/USBUART_1.c **** *
 628:.\Generated_Source\PSoC5/USBUART_1.c **** *******************************************************************************/
 629:.\Generated_Source\PSoC5/USBUART_1.c **** uint8 USBUART_1_GetConfiguration(void) 
 630:.\Generated_Source\PSoC5/USBUART_1.c **** {
 593              		.loc 1 630 0
 594              		.cfi_startproc
 595              		@ args = 0, pretend = 0, frame = 0
 596              		@ frame_needed = 0, uses_anonymous_args = 0
 597              		@ link register save eliminated.
 631:.\Generated_Source\PSoC5/USBUART_1.c ****     return(USBUART_1_configuration);
 598              		.loc 1 631 0
 599 0000 014B     		ldr	r3, .L27
 600 0002 1878     		ldrb	r0, [r3, #0]	@ zero_extendqisi2
 632:.\Generated_Source\PSoC5/USBUART_1.c **** }
 601              		.loc 1 632 0
 602 0004 7047     		bx	lr
 603              	.L28:
 604 0006 00BF     		.align	2
 605              	.L27:
 606 0008 00000000 		.word	USBUART_1_configuration
 607              		.cfi_endproc
 608              	.LFE6:
 609              		.size	USBUART_1_GetConfiguration, .-USBUART_1_GetConfiguration
 610              		.section	.text.USBUART_1_IsConfigurationChanged,"ax",%progbits
 611              		.align	1
 612              		.global	USBUART_1_IsConfigurationChanged
 613              		.thumb
 614              		.thumb_func
 615              		.type	USBUART_1_IsConfigurationChanged, %function
 616              	USBUART_1_IsConfigurationChanged:
 617              	.LFB7:
 633:.\Generated_Source\PSoC5/USBUART_1.c **** 
 634:.\Generated_Source\PSoC5/USBUART_1.c **** 
 635:.\Generated_Source\PSoC5/USBUART_1.c **** /*******************************************************************************
 636:.\Generated_Source\PSoC5/USBUART_1.c **** * Function Name: USBUART_1_IsConfigurationChanged
 637:.\Generated_Source\PSoC5/USBUART_1.c **** ********************************************************************************
 638:.\Generated_Source\PSoC5/USBUART_1.c **** *
 639:.\Generated_Source\PSoC5/USBUART_1.c **** * Summary:
 640:.\Generated_Source\PSoC5/USBUART_1.c **** *  Returns the clear on read configuration state. It is usefull when PC send
 641:.\Generated_Source\PSoC5/USBUART_1.c **** *  double SET_CONFIGURATION request with same configuration number.
ARM GAS  C:\Users\Luke\AppData\Local\Temp\ccuzhVDD.s 			page 24


 642:.\Generated_Source\PSoC5/USBUART_1.c **** *
 643:.\Generated_Source\PSoC5/USBUART_1.c **** * Parameters:
 644:.\Generated_Source\PSoC5/USBUART_1.c **** *  None.
 645:.\Generated_Source\PSoC5/USBUART_1.c **** *
 646:.\Generated_Source\PSoC5/USBUART_1.c **** * Return:
 647:.\Generated_Source\PSoC5/USBUART_1.c **** *  Not zero value when new configuration has been changed, otherwise zero is
 648:.\Generated_Source\PSoC5/USBUART_1.c **** *  returned.
 649:.\Generated_Source\PSoC5/USBUART_1.c **** *
 650:.\Generated_Source\PSoC5/USBUART_1.c **** * Global variables:
 651:.\Generated_Source\PSoC5/USBUART_1.c **** *   USBUART_1_configurationChanged: This variable is set to one after
 652:.\Generated_Source\PSoC5/USBUART_1.c **** *       SET_CONFIGURATION request and cleared in this function.
 653:.\Generated_Source\PSoC5/USBUART_1.c **** *
 654:.\Generated_Source\PSoC5/USBUART_1.c **** *******************************************************************************/
 655:.\Generated_Source\PSoC5/USBUART_1.c **** uint8 USBUART_1_IsConfigurationChanged(void) 
 656:.\Generated_Source\PSoC5/USBUART_1.c **** {
 618              		.loc 1 656 0
 619              		.cfi_startproc
 620              		@ args = 0, pretend = 0, frame = 0
 621              		@ frame_needed = 0, uses_anonymous_args = 0
 622              		@ link register save eliminated.
 623              	.LVL32:
 657:.\Generated_Source\PSoC5/USBUART_1.c ****     uint8 res = 0u;
 658:.\Generated_Source\PSoC5/USBUART_1.c **** 
 659:.\Generated_Source\PSoC5/USBUART_1.c ****     if(USBUART_1_configurationChanged != 0u)
 624              		.loc 1 659 0
 625 0000 034B     		ldr	r3, .L32
 626 0002 1878     		ldrb	r0, [r3, #0]	@ zero_extendqisi2
 627 0004 10B1     		cbz	r0, .L30
 660:.\Generated_Source\PSoC5/USBUART_1.c ****     {
 661:.\Generated_Source\PSoC5/USBUART_1.c ****         res = USBUART_1_configurationChanged;
 662:.\Generated_Source\PSoC5/USBUART_1.c ****         USBUART_1_configurationChanged = 0u;
 628              		.loc 1 662 0
 629 0006 0022     		movs	r2, #0
 661:.\Generated_Source\PSoC5/USBUART_1.c ****         res = USBUART_1_configurationChanged;
 630              		.loc 1 661 0
 631 0008 1878     		ldrb	r0, [r3, #0]	@ zero_extendqisi2
 632              	.LVL33:
 633              		.loc 1 662 0
 634 000a 1A70     		strb	r2, [r3, #0]
 635              	.LVL34:
 636              	.L30:
 663:.\Generated_Source\PSoC5/USBUART_1.c ****     }
 664:.\Generated_Source\PSoC5/USBUART_1.c **** 
 665:.\Generated_Source\PSoC5/USBUART_1.c ****     return(res);
 666:.\Generated_Source\PSoC5/USBUART_1.c **** }
 637              		.loc 1 666 0
 638 000c 7047     		bx	lr
 639              	.L33:
 640 000e 00BF     		.align	2
 641              	.L32:
 642 0010 00000000 		.word	USBUART_1_configurationChanged
 643              		.cfi_endproc
 644              	.LFE7:
 645              		.size	USBUART_1_IsConfigurationChanged, .-USBUART_1_IsConfigurationChanged
 646              		.section	.text.USBUART_1_GetInterfaceSetting,"ax",%progbits
 647              		.align	1
 648              		.global	USBUART_1_GetInterfaceSetting
ARM GAS  C:\Users\Luke\AppData\Local\Temp\ccuzhVDD.s 			page 25


 649              		.thumb
 650              		.thumb_func
 651              		.type	USBUART_1_GetInterfaceSetting, %function
 652              	USBUART_1_GetInterfaceSetting:
 653              	.LFB8:
 667:.\Generated_Source\PSoC5/USBUART_1.c **** 
 668:.\Generated_Source\PSoC5/USBUART_1.c **** 
 669:.\Generated_Source\PSoC5/USBUART_1.c **** /*******************************************************************************
 670:.\Generated_Source\PSoC5/USBUART_1.c **** * Function Name: USBUART_1_GetInterfaceSetting
 671:.\Generated_Source\PSoC5/USBUART_1.c **** ********************************************************************************
 672:.\Generated_Source\PSoC5/USBUART_1.c **** *
 673:.\Generated_Source\PSoC5/USBUART_1.c **** * Summary:
 674:.\Generated_Source\PSoC5/USBUART_1.c **** *  Returns the alternate setting from current interface
 675:.\Generated_Source\PSoC5/USBUART_1.c **** *
 676:.\Generated_Source\PSoC5/USBUART_1.c **** * Parameters:
 677:.\Generated_Source\PSoC5/USBUART_1.c **** *  uint8 interfaceNumber, interface number
 678:.\Generated_Source\PSoC5/USBUART_1.c **** *
 679:.\Generated_Source\PSoC5/USBUART_1.c **** * Return:
 680:.\Generated_Source\PSoC5/USBUART_1.c **** *  Alternate setting.
 681:.\Generated_Source\PSoC5/USBUART_1.c **** *
 682:.\Generated_Source\PSoC5/USBUART_1.c **** *******************************************************************************/
 683:.\Generated_Source\PSoC5/USBUART_1.c **** uint8  USBUART_1_GetInterfaceSetting(uint8 interfaceNumber)
 684:.\Generated_Source\PSoC5/USBUART_1.c ****                                                     
 685:.\Generated_Source\PSoC5/USBUART_1.c **** {
 654              		.loc 1 685 0
 655              		.cfi_startproc
 656              		@ args = 0, pretend = 0, frame = 0
 657              		@ frame_needed = 0, uses_anonymous_args = 0
 658              		@ link register save eliminated.
 659              	.LVL35:
 686:.\Generated_Source\PSoC5/USBUART_1.c ****     return(USBUART_1_interfaceSetting[interfaceNumber]);
 660              		.loc 1 686 0
 661 0000 014B     		ldr	r3, .L35
 662 0002 185C     		ldrb	r0, [r3, r0]	@ zero_extendqisi2
 663              	.LVL36:
 687:.\Generated_Source\PSoC5/USBUART_1.c **** }
 664              		.loc 1 687 0
 665 0004 7047     		bx	lr
 666              	.L36:
 667 0006 00BF     		.align	2
 668              	.L35:
 669 0008 00000000 		.word	USBUART_1_interfaceSetting
 670              		.cfi_endproc
 671              	.LFE8:
 672              		.size	USBUART_1_GetInterfaceSetting, .-USBUART_1_GetInterfaceSetting
 673              		.section	.text.USBUART_1_GetEPState,"ax",%progbits
 674              		.align	1
 675              		.global	USBUART_1_GetEPState
 676              		.thumb
 677              		.thumb_func
 678              		.type	USBUART_1_GetEPState, %function
 679              	USBUART_1_GetEPState:
 680              	.LFB9:
 688:.\Generated_Source\PSoC5/USBUART_1.c **** 
 689:.\Generated_Source\PSoC5/USBUART_1.c **** 
 690:.\Generated_Source\PSoC5/USBUART_1.c **** /*******************************************************************************
 691:.\Generated_Source\PSoC5/USBUART_1.c **** * Function Name: USBUART_1_GetEPState
ARM GAS  C:\Users\Luke\AppData\Local\Temp\ccuzhVDD.s 			page 26


 692:.\Generated_Source\PSoC5/USBUART_1.c **** ********************************************************************************
 693:.\Generated_Source\PSoC5/USBUART_1.c **** *
 694:.\Generated_Source\PSoC5/USBUART_1.c **** * Summary:
 695:.\Generated_Source\PSoC5/USBUART_1.c **** *  Returned the state of the requested endpoint.
 696:.\Generated_Source\PSoC5/USBUART_1.c **** *
 697:.\Generated_Source\PSoC5/USBUART_1.c **** * Parameters:
 698:.\Generated_Source\PSoC5/USBUART_1.c **** *  epNumber: Endpoint Number
 699:.\Generated_Source\PSoC5/USBUART_1.c **** *
 700:.\Generated_Source\PSoC5/USBUART_1.c **** * Return:
 701:.\Generated_Source\PSoC5/USBUART_1.c **** *  State of the requested endpoint.
 702:.\Generated_Source\PSoC5/USBUART_1.c **** *
 703:.\Generated_Source\PSoC5/USBUART_1.c **** *******************************************************************************/
 704:.\Generated_Source\PSoC5/USBUART_1.c **** uint8 USBUART_1_GetEPState(uint8 epNumber) 
 705:.\Generated_Source\PSoC5/USBUART_1.c **** {
 681              		.loc 1 705 0
 682              		.cfi_startproc
 683              		@ args = 0, pretend = 0, frame = 0
 684              		@ frame_needed = 0, uses_anonymous_args = 0
 685              		@ link register save eliminated.
 686              	.LVL37:
 706:.\Generated_Source\PSoC5/USBUART_1.c ****     return(USBUART_1_EP[epNumber].apiEpState);
 687              		.loc 1 706 0
 688 0000 024B     		ldr	r3, .L38
 689 0002 0C22     		movs	r2, #12
 690 0004 02FB0030 		mla	r0, r2, r0, r3
 691              	.LVL38:
 692 0008 4078     		ldrb	r0, [r0, #1]	@ zero_extendqisi2
 707:.\Generated_Source\PSoC5/USBUART_1.c **** }
 693              		.loc 1 707 0
 694 000a 7047     		bx	lr
 695              	.L39:
 696              		.align	2
 697              	.L38:
 698 000c 00000000 		.word	USBUART_1_EP
 699              		.cfi_endproc
 700              	.LFE9:
 701              		.size	USBUART_1_GetEPState, .-USBUART_1_GetEPState
 702              		.section	.text.USBUART_1_GetEPCount,"ax",%progbits
 703              		.align	1
 704              		.global	USBUART_1_GetEPCount
 705              		.thumb
 706              		.thumb_func
 707              		.type	USBUART_1_GetEPCount, %function
 708              	USBUART_1_GetEPCount:
 709              	.LFB10:
 708:.\Generated_Source\PSoC5/USBUART_1.c **** 
 709:.\Generated_Source\PSoC5/USBUART_1.c **** 
 710:.\Generated_Source\PSoC5/USBUART_1.c **** /*******************************************************************************
 711:.\Generated_Source\PSoC5/USBUART_1.c **** * Function Name: USBUART_1_GetEPCount
 712:.\Generated_Source\PSoC5/USBUART_1.c **** ********************************************************************************
 713:.\Generated_Source\PSoC5/USBUART_1.c **** *
 714:.\Generated_Source\PSoC5/USBUART_1.c **** * Summary:
 715:.\Generated_Source\PSoC5/USBUART_1.c **** *  This function supports Data Endpoints only(EP1-EP8).
 716:.\Generated_Source\PSoC5/USBUART_1.c **** *  Returns the transfer count for the requested endpoint.  The value from
 717:.\Generated_Source\PSoC5/USBUART_1.c **** *  the count registers includes 2 counts for the two byte checksum of the
 718:.\Generated_Source\PSoC5/USBUART_1.c **** *  packet.  This function subtracts the two counts.
 719:.\Generated_Source\PSoC5/USBUART_1.c **** *
ARM GAS  C:\Users\Luke\AppData\Local\Temp\ccuzhVDD.s 			page 27


 720:.\Generated_Source\PSoC5/USBUART_1.c **** * Parameters:
 721:.\Generated_Source\PSoC5/USBUART_1.c **** *  epNumber: Data Endpoint Number.
 722:.\Generated_Source\PSoC5/USBUART_1.c **** *            Valid values are between 1 and 8.
 723:.\Generated_Source\PSoC5/USBUART_1.c **** *
 724:.\Generated_Source\PSoC5/USBUART_1.c **** * Return:
 725:.\Generated_Source\PSoC5/USBUART_1.c **** *  Returns the current byte count from the specified endpoint or 0 for an
 726:.\Generated_Source\PSoC5/USBUART_1.c **** *  invalid endpoint.
 727:.\Generated_Source\PSoC5/USBUART_1.c **** *
 728:.\Generated_Source\PSoC5/USBUART_1.c **** *******************************************************************************/
 729:.\Generated_Source\PSoC5/USBUART_1.c **** uint16 USBUART_1_GetEPCount(uint8 epNumber) 
 730:.\Generated_Source\PSoC5/USBUART_1.c **** {
 710              		.loc 1 730 0
 711              		.cfi_startproc
 712              		@ args = 0, pretend = 0, frame = 0
 713              		@ frame_needed = 0, uses_anonymous_args = 0
 714              		@ link register save eliminated.
 715              	.LVL39:
 731:.\Generated_Source\PSoC5/USBUART_1.c ****     uint8 ri;
 732:.\Generated_Source\PSoC5/USBUART_1.c ****     uint16 result = 0u;
 733:.\Generated_Source\PSoC5/USBUART_1.c **** 
 734:.\Generated_Source\PSoC5/USBUART_1.c ****     if((epNumber > USBUART_1_EP0) && (epNumber < USBUART_1_MAX_EP))
 716              		.loc 1 734 0
 717 0000 0138     		subs	r0, r0, #1
 718              	.LVL40:
 719 0002 C3B2     		uxtb	r3, r0
 720 0004 072B     		cmp	r3, #7
 721 0006 0CD8     		bhi	.L42
 722              	.LVL41:
 735:.\Generated_Source\PSoC5/USBUART_1.c ****     {
 736:.\Generated_Source\PSoC5/USBUART_1.c ****         ri = ((epNumber - USBUART_1_EP1) << USBUART_1_EPX_CNTX_ADDR_SHIFT);
 723              		.loc 1 736 0
 724 0008 1901     		lsls	r1, r3, #4
 737:.\Generated_Source\PSoC5/USBUART_1.c **** 
 738:.\Generated_Source\PSoC5/USBUART_1.c ****         result = (uint8)(CY_GET_REG8((reg8 *)(USBUART_1_SIE_EP1_CNT0_IND + ri)) &
 725              		.loc 1 738 0
 726 000a 074A     		ldr	r2, .L43
 727 000c CBB2     		uxtb	r3, r1
 728              	.LVL42:
 729 000e 985C     		ldrb	r0, [r3, r2]	@ zero_extendqisi2
 730              	.LVL43:
 739:.\Generated_Source\PSoC5/USBUART_1.c ****                           USBUART_1_EPX_CNT0_MASK);
 740:.\Generated_Source\PSoC5/USBUART_1.c ****         result = (result << 8u) | CY_GET_REG8((reg8 *)(USBUART_1_SIE_EP1_CNT1_IND + ri));
 731              		.loc 1 740 0
 732 0010 511C     		adds	r1, r2, #1
 733 0012 5B5C     		ldrb	r3, [r3, r1]	@ zero_extendqisi2
 734 0014 00F00F02 		and	r2, r0, #15
 735 0018 43EA0220 		orr	r0, r3, r2, lsl #8
 736              	.LVL44:
 741:.\Generated_Source\PSoC5/USBUART_1.c ****         result -= USBUART_1_EPX_CNTX_CRC_COUNT;
 737              		.loc 1 741 0
 738 001c 811E     		subs	r1, r0, #2
 739 001e 88B2     		uxth	r0, r1
 740              	.LVL45:
 741 0020 7047     		bx	lr
 742              	.LVL46:
 743              	.L42:
 732:.\Generated_Source\PSoC5/USBUART_1.c ****     uint16 result = 0u;
ARM GAS  C:\Users\Luke\AppData\Local\Temp\ccuzhVDD.s 			page 28


 744              		.loc 1 732 0
 745 0022 0020     		movs	r0, #0
 746              	.LVL47:
 742:.\Generated_Source\PSoC5/USBUART_1.c ****     }
 743:.\Generated_Source\PSoC5/USBUART_1.c ****     return(result);
 744:.\Generated_Source\PSoC5/USBUART_1.c **** }
 747              		.loc 1 744 0
 748 0024 7047     		bx	lr
 749              	.L44:
 750 0026 00BF     		.align	2
 751              	.L43:
 752 0028 0C600040 		.word	1073766412
 753              		.cfi_endproc
 754              	.LFE10:
 755              		.size	USBUART_1_GetEPCount, .-USBUART_1_GetEPCount
 756              		.section	.text.USBUART_1_LoadInEP,"ax",%progbits
 757              		.align	1
 758              		.global	USBUART_1_LoadInEP
 759              		.thumb
 760              		.thumb_func
 761              		.type	USBUART_1_LoadInEP, %function
 762              	USBUART_1_LoadInEP:
 763              	.LFB11:
 745:.\Generated_Source\PSoC5/USBUART_1.c **** 
 746:.\Generated_Source\PSoC5/USBUART_1.c **** 
 747:.\Generated_Source\PSoC5/USBUART_1.c **** #if(USBUART_1_EP_MM != USBUART_1__EP_MANUAL)
 748:.\Generated_Source\PSoC5/USBUART_1.c **** 
 749:.\Generated_Source\PSoC5/USBUART_1.c **** 
 750:.\Generated_Source\PSoC5/USBUART_1.c ****     /*******************************************************************************
 751:.\Generated_Source\PSoC5/USBUART_1.c ****     * Function Name: USBUART_1_InitEP_DMA
 752:.\Generated_Source\PSoC5/USBUART_1.c ****     ********************************************************************************
 753:.\Generated_Source\PSoC5/USBUART_1.c ****     *
 754:.\Generated_Source\PSoC5/USBUART_1.c ****     * Summary:
 755:.\Generated_Source\PSoC5/USBUART_1.c ****     *  This function allocates and initializes a DMA channel to be used by the
 756:.\Generated_Source\PSoC5/USBUART_1.c ****     *  USBUART_1_LoadInEP() or USBUART_1_ReadOutEP() APIs for data
 757:.\Generated_Source\PSoC5/USBUART_1.c ****     *  transfer.
 758:.\Generated_Source\PSoC5/USBUART_1.c ****     *
 759:.\Generated_Source\PSoC5/USBUART_1.c ****     * Parameters:
 760:.\Generated_Source\PSoC5/USBUART_1.c ****     *  epNumber: Contains the data endpoint number.
 761:.\Generated_Source\PSoC5/USBUART_1.c ****     *            Valid values are between 1 and 8.
 762:.\Generated_Source\PSoC5/USBUART_1.c ****     *  *pData: Pointer to a data array that is related to the EP transfers.
 763:.\Generated_Source\PSoC5/USBUART_1.c ****     *
 764:.\Generated_Source\PSoC5/USBUART_1.c ****     * Return:
 765:.\Generated_Source\PSoC5/USBUART_1.c ****     *  None.
 766:.\Generated_Source\PSoC5/USBUART_1.c ****     *
 767:.\Generated_Source\PSoC5/USBUART_1.c ****     * Reentrant:
 768:.\Generated_Source\PSoC5/USBUART_1.c ****     *  No.
 769:.\Generated_Source\PSoC5/USBUART_1.c ****     *
 770:.\Generated_Source\PSoC5/USBUART_1.c ****     *******************************************************************************/
 771:.\Generated_Source\PSoC5/USBUART_1.c ****     void USBUART_1_InitEP_DMA(uint8 epNumber, const uint8 *pData)
 772:.\Generated_Source\PSoC5/USBUART_1.c ****                                                                     
 773:.\Generated_Source\PSoC5/USBUART_1.c ****     {
 774:.\Generated_Source\PSoC5/USBUART_1.c ****         uint16 src;
 775:.\Generated_Source\PSoC5/USBUART_1.c ****         uint16 dst;
 776:.\Generated_Source\PSoC5/USBUART_1.c ****         #if (CY_PSOC3)                  /* PSoC 3 */
 777:.\Generated_Source\PSoC5/USBUART_1.c ****             src = HI16(CYDEV_SRAM_BASE);
 778:.\Generated_Source\PSoC5/USBUART_1.c ****             dst = HI16(CYDEV_PERIPH_BASE);
ARM GAS  C:\Users\Luke\AppData\Local\Temp\ccuzhVDD.s 			page 29


 779:.\Generated_Source\PSoC5/USBUART_1.c ****             pData = pData;
 780:.\Generated_Source\PSoC5/USBUART_1.c ****         #else                           /* PSoC 5 */
 781:.\Generated_Source\PSoC5/USBUART_1.c ****             if((USBUART_1_EP[epNumber].addr & USBUART_1_DIR_IN) != 0u )
 782:.\Generated_Source\PSoC5/USBUART_1.c ****             {   /* for the IN EP source is the SRAM memory buffer */
 783:.\Generated_Source\PSoC5/USBUART_1.c ****                 src = HI16(pData);
 784:.\Generated_Source\PSoC5/USBUART_1.c ****                 dst = HI16(CYDEV_PERIPH_BASE);
 785:.\Generated_Source\PSoC5/USBUART_1.c ****             }
 786:.\Generated_Source\PSoC5/USBUART_1.c ****             else
 787:.\Generated_Source\PSoC5/USBUART_1.c ****             {   /* for the OUT EP source is the SIE register */
 788:.\Generated_Source\PSoC5/USBUART_1.c ****                 src = HI16(CYDEV_PERIPH_BASE);
 789:.\Generated_Source\PSoC5/USBUART_1.c ****                 dst = HI16(pData);
 790:.\Generated_Source\PSoC5/USBUART_1.c ****             }
 791:.\Generated_Source\PSoC5/USBUART_1.c ****         #endif  /* End C51 */
 792:.\Generated_Source\PSoC5/USBUART_1.c ****         switch(epNumber)
 793:.\Generated_Source\PSoC5/USBUART_1.c ****         {
 794:.\Generated_Source\PSoC5/USBUART_1.c ****             case USBUART_1_EP1:
 795:.\Generated_Source\PSoC5/USBUART_1.c ****                 #if(USBUART_1_DMA1_REMOVE == 0u)
 796:.\Generated_Source\PSoC5/USBUART_1.c ****                     USBUART_1_DmaChan[epNumber] = USBUART_1_ep1_DmaInitialize(
 797:.\Generated_Source\PSoC5/USBUART_1.c ****                         USBUART_1_DMA_BYTES_PER_BURST, USBUART_1_DMA_REQUEST_PER_BURST, src, dst);
 798:.\Generated_Source\PSoC5/USBUART_1.c ****                 #endif   /* End USBUART_1_DMA1_REMOVE */
 799:.\Generated_Source\PSoC5/USBUART_1.c ****                 break;
 800:.\Generated_Source\PSoC5/USBUART_1.c ****             case USBUART_1_EP2:
 801:.\Generated_Source\PSoC5/USBUART_1.c ****                 #if(USBUART_1_DMA2_REMOVE == 0u)
 802:.\Generated_Source\PSoC5/USBUART_1.c ****                     USBUART_1_DmaChan[epNumber] = USBUART_1_ep2_DmaInitialize(
 803:.\Generated_Source\PSoC5/USBUART_1.c ****                         USBUART_1_DMA_BYTES_PER_BURST, USBUART_1_DMA_REQUEST_PER_BURST, src, dst);
 804:.\Generated_Source\PSoC5/USBUART_1.c ****                 #endif   /* End USBUART_1_DMA2_REMOVE */
 805:.\Generated_Source\PSoC5/USBUART_1.c ****                 break;
 806:.\Generated_Source\PSoC5/USBUART_1.c ****             case USBUART_1_EP3:
 807:.\Generated_Source\PSoC5/USBUART_1.c ****                 #if(USBUART_1_DMA3_REMOVE == 0u)
 808:.\Generated_Source\PSoC5/USBUART_1.c ****                     USBUART_1_DmaChan[epNumber] = USBUART_1_ep3_DmaInitialize(
 809:.\Generated_Source\PSoC5/USBUART_1.c ****                         USBUART_1_DMA_BYTES_PER_BURST, USBUART_1_DMA_REQUEST_PER_BURST, src, dst);
 810:.\Generated_Source\PSoC5/USBUART_1.c ****                 #endif   /* End USBUART_1_DMA3_REMOVE */
 811:.\Generated_Source\PSoC5/USBUART_1.c ****                 break;
 812:.\Generated_Source\PSoC5/USBUART_1.c ****             case USBUART_1_EP4:
 813:.\Generated_Source\PSoC5/USBUART_1.c ****                 #if(USBUART_1_DMA4_REMOVE == 0u)
 814:.\Generated_Source\PSoC5/USBUART_1.c ****                     USBUART_1_DmaChan[epNumber] = USBUART_1_ep4_DmaInitialize(
 815:.\Generated_Source\PSoC5/USBUART_1.c ****                         USBUART_1_DMA_BYTES_PER_BURST, USBUART_1_DMA_REQUEST_PER_BURST, src, dst);
 816:.\Generated_Source\PSoC5/USBUART_1.c ****                 #endif   /* End USBUART_1_DMA4_REMOVE */
 817:.\Generated_Source\PSoC5/USBUART_1.c ****                 break;
 818:.\Generated_Source\PSoC5/USBUART_1.c ****             case USBUART_1_EP5:
 819:.\Generated_Source\PSoC5/USBUART_1.c ****                 #if(USBUART_1_DMA5_REMOVE == 0u)
 820:.\Generated_Source\PSoC5/USBUART_1.c ****                     USBUART_1_DmaChan[epNumber] = USBUART_1_ep5_DmaInitialize(
 821:.\Generated_Source\PSoC5/USBUART_1.c ****                         USBUART_1_DMA_BYTES_PER_BURST, USBUART_1_DMA_REQUEST_PER_BURST, src, dst);
 822:.\Generated_Source\PSoC5/USBUART_1.c ****                 #endif   /* End USBUART_1_DMA5_REMOVE */
 823:.\Generated_Source\PSoC5/USBUART_1.c ****                 break;
 824:.\Generated_Source\PSoC5/USBUART_1.c ****             case USBUART_1_EP6:
 825:.\Generated_Source\PSoC5/USBUART_1.c ****                 #if(USBUART_1_DMA6_REMOVE == 0u)
 826:.\Generated_Source\PSoC5/USBUART_1.c ****                     USBUART_1_DmaChan[epNumber] = USBUART_1_ep6_DmaInitialize(
 827:.\Generated_Source\PSoC5/USBUART_1.c ****                         USBUART_1_DMA_BYTES_PER_BURST, USBUART_1_DMA_REQUEST_PER_BURST, src, dst);
 828:.\Generated_Source\PSoC5/USBUART_1.c ****                 #endif   /* End USBUART_1_DMA6_REMOVE */
 829:.\Generated_Source\PSoC5/USBUART_1.c ****                 break;
 830:.\Generated_Source\PSoC5/USBUART_1.c ****             case USBUART_1_EP7:
 831:.\Generated_Source\PSoC5/USBUART_1.c ****                 #if(USBUART_1_DMA7_REMOVE == 0u)
 832:.\Generated_Source\PSoC5/USBUART_1.c ****                     USBUART_1_DmaChan[epNumber] = USBUART_1_ep7_DmaInitialize(
 833:.\Generated_Source\PSoC5/USBUART_1.c ****                         USBUART_1_DMA_BYTES_PER_BURST, USBUART_1_DMA_REQUEST_PER_BURST, src, dst);
 834:.\Generated_Source\PSoC5/USBUART_1.c ****                 #endif   /* End USBUART_1_DMA7_REMOVE */
 835:.\Generated_Source\PSoC5/USBUART_1.c ****                 break;
ARM GAS  C:\Users\Luke\AppData\Local\Temp\ccuzhVDD.s 			page 30


 836:.\Generated_Source\PSoC5/USBUART_1.c ****             case USBUART_1_EP8:
 837:.\Generated_Source\PSoC5/USBUART_1.c ****                 #if(USBUART_1_DMA8_REMOVE == 0u)
 838:.\Generated_Source\PSoC5/USBUART_1.c ****                     USBUART_1_DmaChan[epNumber] = USBUART_1_ep8_DmaInitialize(
 839:.\Generated_Source\PSoC5/USBUART_1.c ****                         USBUART_1_DMA_BYTES_PER_BURST, USBUART_1_DMA_REQUEST_PER_BURST, src, dst);
 840:.\Generated_Source\PSoC5/USBUART_1.c ****                 #endif   /* End USBUART_1_DMA8_REMOVE */
 841:.\Generated_Source\PSoC5/USBUART_1.c ****                 break;
 842:.\Generated_Source\PSoC5/USBUART_1.c ****             default:
 843:.\Generated_Source\PSoC5/USBUART_1.c ****                 /* Do not support EP0 DMA transfers */
 844:.\Generated_Source\PSoC5/USBUART_1.c ****                 break;
 845:.\Generated_Source\PSoC5/USBUART_1.c ****         }
 846:.\Generated_Source\PSoC5/USBUART_1.c ****         if((epNumber > USBUART_1_EP0) && (epNumber < USBUART_1_MAX_EP))
 847:.\Generated_Source\PSoC5/USBUART_1.c ****         {
 848:.\Generated_Source\PSoC5/USBUART_1.c ****             USBUART_1_DmaTd[epNumber] = CyDmaTdAllocate();
 849:.\Generated_Source\PSoC5/USBUART_1.c ****         }
 850:.\Generated_Source\PSoC5/USBUART_1.c ****     }
 851:.\Generated_Source\PSoC5/USBUART_1.c **** 
 852:.\Generated_Source\PSoC5/USBUART_1.c **** 
 853:.\Generated_Source\PSoC5/USBUART_1.c ****     /*******************************************************************************
 854:.\Generated_Source\PSoC5/USBUART_1.c ****     * Function Name: USBUART_1_Stop_DMA
 855:.\Generated_Source\PSoC5/USBUART_1.c ****     ********************************************************************************
 856:.\Generated_Source\PSoC5/USBUART_1.c ****     *
 857:.\Generated_Source\PSoC5/USBUART_1.c ****     * Summary: Stops and free DMA
 858:.\Generated_Source\PSoC5/USBUART_1.c ****     *
 859:.\Generated_Source\PSoC5/USBUART_1.c ****     * Parameters:
 860:.\Generated_Source\PSoC5/USBUART_1.c ****     *  epNumber: Contains the data endpoint number or
 861:.\Generated_Source\PSoC5/USBUART_1.c ****     *           USBUART_1_MAX_EP to stop all DMAs
 862:.\Generated_Source\PSoC5/USBUART_1.c ****     *
 863:.\Generated_Source\PSoC5/USBUART_1.c ****     * Return:
 864:.\Generated_Source\PSoC5/USBUART_1.c ****     *  None.
 865:.\Generated_Source\PSoC5/USBUART_1.c ****     *
 866:.\Generated_Source\PSoC5/USBUART_1.c ****     * Reentrant:
 867:.\Generated_Source\PSoC5/USBUART_1.c ****     *  No.
 868:.\Generated_Source\PSoC5/USBUART_1.c ****     *
 869:.\Generated_Source\PSoC5/USBUART_1.c ****     *******************************************************************************/
 870:.\Generated_Source\PSoC5/USBUART_1.c ****     void USBUART_1_Stop_DMA(uint8 epNumber) 
 871:.\Generated_Source\PSoC5/USBUART_1.c ****     {
 872:.\Generated_Source\PSoC5/USBUART_1.c ****         uint8 i;
 873:.\Generated_Source\PSoC5/USBUART_1.c ****         i = (epNumber < USBUART_1_MAX_EP) ? epNumber : USBUART_1_EP1;
 874:.\Generated_Source\PSoC5/USBUART_1.c ****         do
 875:.\Generated_Source\PSoC5/USBUART_1.c ****         {
 876:.\Generated_Source\PSoC5/USBUART_1.c ****             if(USBUART_1_DmaTd[i] != DMA_INVALID_TD)
 877:.\Generated_Source\PSoC5/USBUART_1.c ****             {
 878:.\Generated_Source\PSoC5/USBUART_1.c ****                 (void) CyDmaChDisable(USBUART_1_DmaChan[i]);
 879:.\Generated_Source\PSoC5/USBUART_1.c ****                 CyDmaTdFree(USBUART_1_DmaTd[i]);
 880:.\Generated_Source\PSoC5/USBUART_1.c ****                 USBUART_1_DmaTd[i] = DMA_INVALID_TD;
 881:.\Generated_Source\PSoC5/USBUART_1.c ****             }
 882:.\Generated_Source\PSoC5/USBUART_1.c ****             i++;
 883:.\Generated_Source\PSoC5/USBUART_1.c ****         }while((i < USBUART_1_MAX_EP) && (epNumber == USBUART_1_MAX_EP));
 884:.\Generated_Source\PSoC5/USBUART_1.c ****     }
 885:.\Generated_Source\PSoC5/USBUART_1.c **** 
 886:.\Generated_Source\PSoC5/USBUART_1.c **** #endif /* End USBUART_1_EP_MM != USBUART_1__EP_MANUAL */
 887:.\Generated_Source\PSoC5/USBUART_1.c **** 
 888:.\Generated_Source\PSoC5/USBUART_1.c **** 
 889:.\Generated_Source\PSoC5/USBUART_1.c **** /*******************************************************************************
 890:.\Generated_Source\PSoC5/USBUART_1.c **** * Function Name: USBUART_1_LoadInEP
 891:.\Generated_Source\PSoC5/USBUART_1.c **** ********************************************************************************
 892:.\Generated_Source\PSoC5/USBUART_1.c **** *
ARM GAS  C:\Users\Luke\AppData\Local\Temp\ccuzhVDD.s 			page 31


 893:.\Generated_Source\PSoC5/USBUART_1.c **** * Summary:
 894:.\Generated_Source\PSoC5/USBUART_1.c **** *  Loads and enables the specified USB data endpoint for an IN interrupt or bulk
 895:.\Generated_Source\PSoC5/USBUART_1.c **** *  transfer.
 896:.\Generated_Source\PSoC5/USBUART_1.c **** *
 897:.\Generated_Source\PSoC5/USBUART_1.c **** * Parameters:
 898:.\Generated_Source\PSoC5/USBUART_1.c **** *  epNumber: Contains the data endpoint number.
 899:.\Generated_Source\PSoC5/USBUART_1.c **** *            Valid values are between 1 and 8.
 900:.\Generated_Source\PSoC5/USBUART_1.c **** *  *pData: A pointer to a data array from which the data for the endpoint space
 901:.\Generated_Source\PSoC5/USBUART_1.c **** *          is loaded.
 902:.\Generated_Source\PSoC5/USBUART_1.c **** *  length: The number of bytes to transfer from the array and then send as a
 903:.\Generated_Source\PSoC5/USBUART_1.c **** *          result of an IN request. Valid values are between 0 and 512.
 904:.\Generated_Source\PSoC5/USBUART_1.c **** *
 905:.\Generated_Source\PSoC5/USBUART_1.c **** * Return:
 906:.\Generated_Source\PSoC5/USBUART_1.c **** *  None.
 907:.\Generated_Source\PSoC5/USBUART_1.c **** *
 908:.\Generated_Source\PSoC5/USBUART_1.c **** * Reentrant:
 909:.\Generated_Source\PSoC5/USBUART_1.c **** *  No.
 910:.\Generated_Source\PSoC5/USBUART_1.c **** *
 911:.\Generated_Source\PSoC5/USBUART_1.c **** *******************************************************************************/
 912:.\Generated_Source\PSoC5/USBUART_1.c **** void USBUART_1_LoadInEP(uint8 epNumber, const uint8 pData[], uint16 length)
 913:.\Generated_Source\PSoC5/USBUART_1.c ****                                                                         
 914:.\Generated_Source\PSoC5/USBUART_1.c **** {
 764              		.loc 1 914 0
 765              		.cfi_startproc
 766              		@ args = 0, pretend = 0, frame = 0
 767              		@ frame_needed = 0, uses_anonymous_args = 0
 768              	.LVL48:
 915:.\Generated_Source\PSoC5/USBUART_1.c ****     uint8 ri;
 916:.\Generated_Source\PSoC5/USBUART_1.c ****     reg8 *p;
 917:.\Generated_Source\PSoC5/USBUART_1.c ****     #if(USBUART_1_EP_MM == USBUART_1__EP_MANUAL)
 918:.\Generated_Source\PSoC5/USBUART_1.c ****         uint16 i;
 919:.\Generated_Source\PSoC5/USBUART_1.c ****     #endif /* End USBUART_1_EP_MM == USBUART_1__EP_MANUAL */
 920:.\Generated_Source\PSoC5/USBUART_1.c **** 
 921:.\Generated_Source\PSoC5/USBUART_1.c ****     if((epNumber > USBUART_1_EP0) && (epNumber < USBUART_1_MAX_EP))
 769              		.loc 1 921 0
 770 0000 431E     		subs	r3, r0, #1
 771 0002 DBB2     		uxtb	r3, r3
 772 0004 072B     		cmp	r3, #7
 914:.\Generated_Source\PSoC5/USBUART_1.c **** {
 773              		.loc 1 914 0
 774 0006 F0B5     		push	{r4, r5, r6, r7, lr}
 775              	.LCFI3:
 776              		.cfi_def_cfa_offset 20
 777              		.cfi_offset 4, -20
 778              		.cfi_offset 5, -16
 779              		.cfi_offset 6, -12
 780              		.cfi_offset 7, -8
 781              		.cfi_offset 14, -4
 782              		.loc 1 921 0
 783 0008 2FD8     		bhi	.L45
 784              	.LVL49:
 922:.\Generated_Source\PSoC5/USBUART_1.c ****     {
 923:.\Generated_Source\PSoC5/USBUART_1.c ****         ri = ((epNumber - USBUART_1_EP1) << USBUART_1_EPX_CNTX_ADDR_SHIFT);
 924:.\Generated_Source\PSoC5/USBUART_1.c ****         p = (reg8 *)(USBUART_1_ARB_RW1_DR_IND + ri);
 925:.\Generated_Source\PSoC5/USBUART_1.c **** 
 926:.\Generated_Source\PSoC5/USBUART_1.c ****         #if(USBUART_1_EP_MM != USBUART_1__EP_DMAAUTO)
 927:.\Generated_Source\PSoC5/USBUART_1.c ****             /* Limits length to available buffer space, auto MM could send packets up to 1024 bytes
ARM GAS  C:\Users\Luke\AppData\Local\Temp\ccuzhVDD.s 			page 32


 928:.\Generated_Source\PSoC5/USBUART_1.c ****             if(length > (USBUART_1_EPX_DATA_BUF_MAX - USBUART_1_EP[epNumber].buffOffset))
 785              		.loc 1 928 0
 786 000a 184E     		ldr	r6, .L52
 923:.\Generated_Source\PSoC5/USBUART_1.c ****         ri = ((epNumber - USBUART_1_EP1) << USBUART_1_EPX_CNTX_ADDR_SHIFT);
 787              		.loc 1 923 0
 788 000c 1C01     		lsls	r4, r3, #4
 789              		.loc 1 928 0
 790 000e 0C27     		movs	r7, #12
 924:.\Generated_Source\PSoC5/USBUART_1.c ****         p = (reg8 *)(USBUART_1_ARB_RW1_DR_IND + ri);
 791              		.loc 1 924 0
 792 0010 E3B2     		uxtb	r3, r4
 793              	.LVL50:
 794              		.loc 1 928 0
 795 0012 07FB0064 		mla	r4, r7, r0, r6
 796 0016 E788     		ldrh	r7, [r4, #6]
 924:.\Generated_Source\PSoC5/USBUART_1.c ****         p = (reg8 *)(USBUART_1_ARB_RW1_DR_IND + ri);
 797              		.loc 1 924 0
 798 0018 154D     		ldr	r5, .L52+4
 799              		.loc 1 928 0
 800 001a BFB2     		uxth	r7, r7
 801 001c C7F50077 		rsb	r7, r7, #512
 802 0020 BA42     		cmp	r2, r7
 924:.\Generated_Source\PSoC5/USBUART_1.c ****         p = (reg8 *)(USBUART_1_ARB_RW1_DR_IND + ri);
 803              		.loc 1 924 0
 804 0022 1D44     		add	r5, r3, r5
 805              	.LVL51:
 806              		.loc 1 928 0
 807 0024 03D9     		bls	.L47
 929:.\Generated_Source\PSoC5/USBUART_1.c ****             {
 930:.\Generated_Source\PSoC5/USBUART_1.c ****                 length = USBUART_1_EPX_DATA_BUF_MAX - USBUART_1_EP[epNumber].buffOffset;
 808              		.loc 1 930 0
 809 0026 E288     		ldrh	r2, [r4, #6]
 810              	.LVL52:
 811 0028 C2F50074 		rsb	r4, r2, #512
 812 002c A2B2     		uxth	r2, r4
 813              	.LVL53:
 814              	.L47:
 931:.\Generated_Source\PSoC5/USBUART_1.c ****             }
 932:.\Generated_Source\PSoC5/USBUART_1.c ****         #endif /* End USBUART_1_EP_MM != USBUART_1__EP_DMAAUTO */
 933:.\Generated_Source\PSoC5/USBUART_1.c **** 
 934:.\Generated_Source\PSoC5/USBUART_1.c ****         /* Set the count and data toggle */
 935:.\Generated_Source\PSoC5/USBUART_1.c ****         CY_SET_REG8((reg8 *)(USBUART_1_SIE_EP1_CNT0_IND + ri),
 815              		.loc 1 935 0
 816 002e 0C24     		movs	r4, #12
 817 0030 04FB0066 		mla	r6, r4, r0, r6
 818 0034 F478     		ldrb	r4, [r6, #3]	@ zero_extendqisi2
 819 0036 44EA1226 		orr	r6, r4, r2, lsr #8
 820 003a 0E4C     		ldr	r4, .L52+8
 821 003c 1E55     		strb	r6, [r3, r4]
 936:.\Generated_Source\PSoC5/USBUART_1.c ****                             (length >> 8u) | (USBUART_1_EP[epNumber].epToggle));
 937:.\Generated_Source\PSoC5/USBUART_1.c ****         CY_SET_REG8((reg8 *)(USBUART_1_SIE_EP1_CNT1_IND + ri),  length & 0xFFu);
 822              		.loc 1 937 0
 823 003e D6B2     		uxtb	r6, r2
 824 0040 0134     		adds	r4, r4, #1
 825 0042 1E55     		strb	r6, [r3, r4]
 938:.\Generated_Source\PSoC5/USBUART_1.c **** 
 939:.\Generated_Source\PSoC5/USBUART_1.c ****         #if(USBUART_1_EP_MM == USBUART_1__EP_MANUAL)
ARM GAS  C:\Users\Luke\AppData\Local\Temp\ccuzhVDD.s 			page 33


 940:.\Generated_Source\PSoC5/USBUART_1.c ****             if(pData != NULL)
 826              		.loc 1 940 0
 827 0044 49B9     		cbnz	r1, .L51
 828              	.L50:
 941:.\Generated_Source\PSoC5/USBUART_1.c ****             {
 942:.\Generated_Source\PSoC5/USBUART_1.c ****                 /* Copy the data using the arbiter data register */
 943:.\Generated_Source\PSoC5/USBUART_1.c ****                 for (i = 0u; i < length; i++)
 944:.\Generated_Source\PSoC5/USBUART_1.c ****                 {
 945:.\Generated_Source\PSoC5/USBUART_1.c ****                     CY_SET_REG8(p, pData[i]);
 946:.\Generated_Source\PSoC5/USBUART_1.c ****                 }
 947:.\Generated_Source\PSoC5/USBUART_1.c ****             }
 948:.\Generated_Source\PSoC5/USBUART_1.c ****             USBUART_1_EP[epNumber].apiEpState = USBUART_1_NO_EVENT_PENDING;
 829              		.loc 1 948 0
 830 0046 094A     		ldr	r2, .L52
 831              	.LVL54:
 832 0048 0C21     		movs	r1, #12
 833              	.LVL55:
 834 004a 01FB0020 		mla	r0, r1, r0, r2
 835              	.LVL56:
 836 004e 0021     		movs	r1, #0
 837 0050 4170     		strb	r1, [r0, #1]
 949:.\Generated_Source\PSoC5/USBUART_1.c ****             /* Write the Mode register */
 950:.\Generated_Source\PSoC5/USBUART_1.c ****             CY_SET_REG8((reg8 *)(USBUART_1_SIE_EP1_CR0_IND + ri), USBUART_1_EP[epNumber].epMode);
 838              		.loc 1 950 0
 839 0052 4079     		ldrb	r0, [r0, #5]	@ zero_extendqisi2
 840 0054 084A     		ldr	r2, .L52+12
 841 0056 9854     		strb	r0, [r3, r2]
 842 0058 F0BD     		pop	{r4, r5, r6, r7, pc}
 843              	.LVL57:
 844              	.L51:
 940:.\Generated_Source\PSoC5/USBUART_1.c ****             if(pData != NULL)
 845              		.loc 1 940 0
 846 005a 0024     		movs	r4, #0
 847              	.L48:
 943:.\Generated_Source\PSoC5/USBUART_1.c ****                 for (i = 0u; i < length; i++)
 848              		.loc 1 943 0 discriminator 1
 849 005c A6B2     		uxth	r6, r4
 850 005e 9642     		cmp	r6, r2
 851 0060 F1D2     		bcs	.L50
 852              	.L49:
 945:.\Generated_Source\PSoC5/USBUART_1.c ****                     CY_SET_REG8(p, pData[i]);
 853              		.loc 1 945 0 discriminator 2
 854 0062 0E5D     		ldrb	r6, [r1, r4]	@ zero_extendqisi2
 855 0064 0134     		adds	r4, r4, #1
 856 0066 2E70     		strb	r6, [r5, #0]
 857 0068 F8E7     		b	.L48
 858              	.LVL58:
 859              	.L45:
 860 006a F0BD     		pop	{r4, r5, r6, r7, pc}
 861              	.L53:
 862              		.align	2
 863              	.L52:
 864 006c 00000000 		.word	USBUART_1_EP
 865 0070 88600040 		.word	1073766536
 866 0074 0C600040 		.word	1073766412
 867 0078 0E600040 		.word	1073766414
 868              		.cfi_endproc
ARM GAS  C:\Users\Luke\AppData\Local\Temp\ccuzhVDD.s 			page 34


 869              	.LFE11:
 870              		.size	USBUART_1_LoadInEP, .-USBUART_1_LoadInEP
 871              		.section	.text.USBUART_1_EnableOutEP,"ax",%progbits
 872              		.align	1
 873              		.global	USBUART_1_EnableOutEP
 874              		.thumb
 875              		.thumb_func
 876              		.type	USBUART_1_EnableOutEP, %function
 877              	USBUART_1_EnableOutEP:
 878              	.LFB13:
 951:.\Generated_Source\PSoC5/USBUART_1.c ****         #else
 952:.\Generated_Source\PSoC5/USBUART_1.c ****             /* Init DMA if it was not initialized */
 953:.\Generated_Source\PSoC5/USBUART_1.c ****             if(USBUART_1_DmaTd[epNumber] == DMA_INVALID_TD)
 954:.\Generated_Source\PSoC5/USBUART_1.c ****             {
 955:.\Generated_Source\PSoC5/USBUART_1.c ****                 USBUART_1_InitEP_DMA(epNumber, pData);
 956:.\Generated_Source\PSoC5/USBUART_1.c ****             }
 957:.\Generated_Source\PSoC5/USBUART_1.c ****         #endif /* End USBUART_1_EP_MM == USBUART_1__EP_MANUAL */
 958:.\Generated_Source\PSoC5/USBUART_1.c **** 
 959:.\Generated_Source\PSoC5/USBUART_1.c ****         #if(USBUART_1_EP_MM == USBUART_1__EP_DMAMANUAL)
 960:.\Generated_Source\PSoC5/USBUART_1.c ****             USBUART_1_EP[epNumber].apiEpState = USBUART_1_NO_EVENT_PENDING;
 961:.\Generated_Source\PSoC5/USBUART_1.c ****             if((pData != NULL) && (length > 0u))
 962:.\Generated_Source\PSoC5/USBUART_1.c ****             {
 963:.\Generated_Source\PSoC5/USBUART_1.c ****                 /* Enable DMA in mode2 for transferring data */
 964:.\Generated_Source\PSoC5/USBUART_1.c ****                 (void) CyDmaChDisable(USBUART_1_DmaChan[epNumber]);
 965:.\Generated_Source\PSoC5/USBUART_1.c ****                 (void) CyDmaTdSetConfiguration(USBUART_1_DmaTd[epNumber], length, CY_DMA_DISABLE_TD
 966:.\Generated_Source\PSoC5/USBUART_1.c ****                                                                                  TD_TERMIN_EN | TD_
 967:.\Generated_Source\PSoC5/USBUART_1.c ****                 (void) CyDmaTdSetAddress(USBUART_1_DmaTd[epNumber],  LO16((uint32)pData), LO16((uin
 968:.\Generated_Source\PSoC5/USBUART_1.c ****                 /* Enable the DMA */
 969:.\Generated_Source\PSoC5/USBUART_1.c ****                 (void) CyDmaChSetInitialTd(USBUART_1_DmaChan[epNumber], USBUART_1_DmaTd[epNumber]);
 970:.\Generated_Source\PSoC5/USBUART_1.c ****                 (void) CyDmaChEnable(USBUART_1_DmaChan[epNumber], 1u);
 971:.\Generated_Source\PSoC5/USBUART_1.c ****                 /* Generate DMA request */
 972:.\Generated_Source\PSoC5/USBUART_1.c ****                 * (reg8 *)(USBUART_1_ARB_EP1_CFG_IND + ri) |= USBUART_1_ARB_EPX_CFG_DMA_REQ;
 973:.\Generated_Source\PSoC5/USBUART_1.c ****                 * (reg8 *)(USBUART_1_ARB_EP1_CFG_IND + ri) &= ((uint8)(~USBUART_1_ARB_EPX_CFG_DMA_R
 974:.\Generated_Source\PSoC5/USBUART_1.c ****                 /* Mode register will be written in arb ISR after DMA transfer complete */
 975:.\Generated_Source\PSoC5/USBUART_1.c ****             }
 976:.\Generated_Source\PSoC5/USBUART_1.c ****             else
 977:.\Generated_Source\PSoC5/USBUART_1.c ****             {
 978:.\Generated_Source\PSoC5/USBUART_1.c ****                 /* When zero-length packet - write the Mode register directly */
 979:.\Generated_Source\PSoC5/USBUART_1.c ****                 CY_SET_REG8((reg8 *)(USBUART_1_SIE_EP1_CR0_IND + ri), USBUART_1_EP[epNumber].epMode
 980:.\Generated_Source\PSoC5/USBUART_1.c ****             }
 981:.\Generated_Source\PSoC5/USBUART_1.c ****         #endif /* End USBUART_1_EP_MM == USBUART_1__EP_DMAMANUAL */
 982:.\Generated_Source\PSoC5/USBUART_1.c **** 
 983:.\Generated_Source\PSoC5/USBUART_1.c ****         #if(USBUART_1_EP_MM == USBUART_1__EP_DMAAUTO)
 984:.\Generated_Source\PSoC5/USBUART_1.c ****             if(pData != NULL)
 985:.\Generated_Source\PSoC5/USBUART_1.c ****             {
 986:.\Generated_Source\PSoC5/USBUART_1.c ****                 /* Enable DMA in mode3 for transferring data */
 987:.\Generated_Source\PSoC5/USBUART_1.c ****                 (void) CyDmaChDisable(USBUART_1_DmaChan[epNumber]);
 988:.\Generated_Source\PSoC5/USBUART_1.c ****                 (void) CyDmaTdSetConfiguration(USBUART_1_DmaTd[epNumber], length,
 989:.\Generated_Source\PSoC5/USBUART_1.c ****                                                USBUART_1_DmaTd[epNumber], TD_TERMIN_EN | TD_INC_SRC
 990:.\Generated_Source\PSoC5/USBUART_1.c ****                 (void) CyDmaTdSetAddress(USBUART_1_DmaTd[epNumber],  LO16((uint32)pData), LO16((uin
 991:.\Generated_Source\PSoC5/USBUART_1.c ****                 /* Clear Any potential pending DMA requests before starting the DMA channel to tran
 992:.\Generated_Source\PSoC5/USBUART_1.c ****                 (void) CyDmaClearPendingDrq(USBUART_1_DmaChan[epNumber]);
 993:.\Generated_Source\PSoC5/USBUART_1.c ****                 /* Enable the DMA */
 994:.\Generated_Source\PSoC5/USBUART_1.c ****                 (void) CyDmaChSetInitialTd(USBUART_1_DmaChan[epNumber], USBUART_1_DmaTd[epNumber]);
 995:.\Generated_Source\PSoC5/USBUART_1.c ****                 (void) CyDmaChEnable(USBUART_1_DmaChan[epNumber], 1u);
 996:.\Generated_Source\PSoC5/USBUART_1.c ****             }
 997:.\Generated_Source\PSoC5/USBUART_1.c ****             else
ARM GAS  C:\Users\Luke\AppData\Local\Temp\ccuzhVDD.s 			page 35


 998:.\Generated_Source\PSoC5/USBUART_1.c ****             {
 999:.\Generated_Source\PSoC5/USBUART_1.c ****                 USBUART_1_EP[epNumber].apiEpState = USBUART_1_NO_EVENT_PENDING;
1000:.\Generated_Source\PSoC5/USBUART_1.c ****                 if(length > 0u)
1001:.\Generated_Source\PSoC5/USBUART_1.c ****                 {
1002:.\Generated_Source\PSoC5/USBUART_1.c ****                     /* Set Data ready status, This will generate DMA request */
1003:.\Generated_Source\PSoC5/USBUART_1.c ****                     * (reg8 *)(USBUART_1_ARB_EP1_CFG_IND + ri) |= USBUART_1_ARB_EPX_CFG_IN_DATA_RDY
1004:.\Generated_Source\PSoC5/USBUART_1.c ****                     /* Mode register will be written in arb ISR(In Buffer Full) after first DMA tra
1005:.\Generated_Source\PSoC5/USBUART_1.c ****                 }
1006:.\Generated_Source\PSoC5/USBUART_1.c ****                 else
1007:.\Generated_Source\PSoC5/USBUART_1.c ****                 {
1008:.\Generated_Source\PSoC5/USBUART_1.c ****                     /* When zero-length packet - write the Mode register directly */
1009:.\Generated_Source\PSoC5/USBUART_1.c ****                     CY_SET_REG8((reg8 *)(USBUART_1_SIE_EP1_CR0_IND + ri), USBUART_1_EP[epNumber].ep
1010:.\Generated_Source\PSoC5/USBUART_1.c ****                 }
1011:.\Generated_Source\PSoC5/USBUART_1.c ****             }
1012:.\Generated_Source\PSoC5/USBUART_1.c ****         #endif /* End USBUART_1_EP_MM == USBUART_1__EP_DMAAUTO */
1013:.\Generated_Source\PSoC5/USBUART_1.c **** 
1014:.\Generated_Source\PSoC5/USBUART_1.c ****     }
1015:.\Generated_Source\PSoC5/USBUART_1.c **** }
1016:.\Generated_Source\PSoC5/USBUART_1.c **** 
1017:.\Generated_Source\PSoC5/USBUART_1.c **** 
1018:.\Generated_Source\PSoC5/USBUART_1.c **** /*******************************************************************************
1019:.\Generated_Source\PSoC5/USBUART_1.c **** * Function Name: USBUART_1_ReadOutEP
1020:.\Generated_Source\PSoC5/USBUART_1.c **** ********************************************************************************
1021:.\Generated_Source\PSoC5/USBUART_1.c **** *
1022:.\Generated_Source\PSoC5/USBUART_1.c **** * Summary:
1023:.\Generated_Source\PSoC5/USBUART_1.c **** *  Read data from an endpoint.  The application must call
1024:.\Generated_Source\PSoC5/USBUART_1.c **** *  USBUART_1_GetEPState to see if an event is pending.
1025:.\Generated_Source\PSoC5/USBUART_1.c **** *
1026:.\Generated_Source\PSoC5/USBUART_1.c **** * Parameters:
1027:.\Generated_Source\PSoC5/USBUART_1.c **** *  epNumber: Contains the data endpoint number.
1028:.\Generated_Source\PSoC5/USBUART_1.c **** *            Valid values are between 1 and 8.
1029:.\Generated_Source\PSoC5/USBUART_1.c **** *  pData: A pointer to a data array from which the data for the endpoint space
1030:.\Generated_Source\PSoC5/USBUART_1.c **** *         is loaded.
1031:.\Generated_Source\PSoC5/USBUART_1.c **** *  length: The number of bytes to transfer from the USB Out endpoint and loads
1032:.\Generated_Source\PSoC5/USBUART_1.c **** *          it into data array. Valid values are between 0 and 1023. The function
1033:.\Generated_Source\PSoC5/USBUART_1.c **** *          moves fewer than the requested number of bytes if the host sends
1034:.\Generated_Source\PSoC5/USBUART_1.c **** *          fewer bytes than requested.
1035:.\Generated_Source\PSoC5/USBUART_1.c **** *
1036:.\Generated_Source\PSoC5/USBUART_1.c **** * Returns:
1037:.\Generated_Source\PSoC5/USBUART_1.c **** *  Number of bytes received, 0 for an invalid endpoint.
1038:.\Generated_Source\PSoC5/USBUART_1.c **** *
1039:.\Generated_Source\PSoC5/USBUART_1.c **** * Reentrant:
1040:.\Generated_Source\PSoC5/USBUART_1.c **** *  No.
1041:.\Generated_Source\PSoC5/USBUART_1.c **** *
1042:.\Generated_Source\PSoC5/USBUART_1.c **** *******************************************************************************/
1043:.\Generated_Source\PSoC5/USBUART_1.c **** uint16 USBUART_1_ReadOutEP(uint8 epNumber, uint8 pData[], uint16 length)
1044:.\Generated_Source\PSoC5/USBUART_1.c ****                                                                         
1045:.\Generated_Source\PSoC5/USBUART_1.c **** {
1046:.\Generated_Source\PSoC5/USBUART_1.c ****     uint8 ri;
1047:.\Generated_Source\PSoC5/USBUART_1.c ****     reg8 *p;
1048:.\Generated_Source\PSoC5/USBUART_1.c ****     #if(USBUART_1_EP_MM == USBUART_1__EP_MANUAL)
1049:.\Generated_Source\PSoC5/USBUART_1.c ****         uint16 i;
1050:.\Generated_Source\PSoC5/USBUART_1.c ****     #endif /* End USBUART_1_EP_MM == USBUART_1__EP_MANUAL */
1051:.\Generated_Source\PSoC5/USBUART_1.c ****     #if(USBUART_1_EP_MM != USBUART_1__EP_DMAAUTO)
1052:.\Generated_Source\PSoC5/USBUART_1.c ****         uint16 xferCount;
1053:.\Generated_Source\PSoC5/USBUART_1.c ****     #endif /* End USBUART_1_EP_MM != USBUART_1__EP_DMAAUTO */
1054:.\Generated_Source\PSoC5/USBUART_1.c **** 
ARM GAS  C:\Users\Luke\AppData\Local\Temp\ccuzhVDD.s 			page 36


1055:.\Generated_Source\PSoC5/USBUART_1.c ****     if((epNumber > USBUART_1_EP0) && (epNumber < USBUART_1_MAX_EP) && (pData != NULL))
1056:.\Generated_Source\PSoC5/USBUART_1.c ****     {
1057:.\Generated_Source\PSoC5/USBUART_1.c ****         ri = ((epNumber - USBUART_1_EP1) << USBUART_1_EPX_CNTX_ADDR_SHIFT);
1058:.\Generated_Source\PSoC5/USBUART_1.c ****         p = (reg8 *)(USBUART_1_ARB_RW1_DR_IND + ri);
1059:.\Generated_Source\PSoC5/USBUART_1.c **** 
1060:.\Generated_Source\PSoC5/USBUART_1.c ****         #if(USBUART_1_EP_MM != USBUART_1__EP_DMAAUTO)
1061:.\Generated_Source\PSoC5/USBUART_1.c ****             /* Determine which is smaller the requested data or the available data */
1062:.\Generated_Source\PSoC5/USBUART_1.c ****             xferCount = USBUART_1_GetEPCount(epNumber);
1063:.\Generated_Source\PSoC5/USBUART_1.c ****             if (length > xferCount)
1064:.\Generated_Source\PSoC5/USBUART_1.c ****             {
1065:.\Generated_Source\PSoC5/USBUART_1.c ****                 length = xferCount;
1066:.\Generated_Source\PSoC5/USBUART_1.c ****             }
1067:.\Generated_Source\PSoC5/USBUART_1.c ****         #endif /* End USBUART_1_EP_MM != USBUART_1__EP_DMAAUTO */
1068:.\Generated_Source\PSoC5/USBUART_1.c **** 
1069:.\Generated_Source\PSoC5/USBUART_1.c ****         #if(USBUART_1_EP_MM == USBUART_1__EP_MANUAL)
1070:.\Generated_Source\PSoC5/USBUART_1.c ****             /* Copy the data using the arbiter data register */
1071:.\Generated_Source\PSoC5/USBUART_1.c ****             for (i = 0u; i < length; i++)
1072:.\Generated_Source\PSoC5/USBUART_1.c ****             {
1073:.\Generated_Source\PSoC5/USBUART_1.c ****                 pData[i] = CY_GET_REG8(p);
1074:.\Generated_Source\PSoC5/USBUART_1.c ****             }
1075:.\Generated_Source\PSoC5/USBUART_1.c **** 
1076:.\Generated_Source\PSoC5/USBUART_1.c ****             /* (re)arming of OUT endpoint */
1077:.\Generated_Source\PSoC5/USBUART_1.c ****             USBUART_1_EnableOutEP(epNumber);
1078:.\Generated_Source\PSoC5/USBUART_1.c ****         #else
1079:.\Generated_Source\PSoC5/USBUART_1.c ****             /*Init DMA if it was not initialized */
1080:.\Generated_Source\PSoC5/USBUART_1.c ****             if(USBUART_1_DmaTd[epNumber] == DMA_INVALID_TD)
1081:.\Generated_Source\PSoC5/USBUART_1.c ****             {
1082:.\Generated_Source\PSoC5/USBUART_1.c ****                 USBUART_1_InitEP_DMA(epNumber, pData);
1083:.\Generated_Source\PSoC5/USBUART_1.c ****             }
1084:.\Generated_Source\PSoC5/USBUART_1.c ****         #endif /* End USBUART_1_EP_MM == USBUART_1__EP_MANUAL */
1085:.\Generated_Source\PSoC5/USBUART_1.c **** 
1086:.\Generated_Source\PSoC5/USBUART_1.c ****         #if(USBUART_1_EP_MM == USBUART_1__EP_DMAMANUAL)
1087:.\Generated_Source\PSoC5/USBUART_1.c ****             /* Enable DMA in mode2 for transferring data */
1088:.\Generated_Source\PSoC5/USBUART_1.c ****             (void) CyDmaChDisable(USBUART_1_DmaChan[epNumber]);
1089:.\Generated_Source\PSoC5/USBUART_1.c ****             (void) CyDmaTdSetConfiguration(USBUART_1_DmaTd[epNumber], length, CY_DMA_DISABLE_TD,
1090:.\Generated_Source\PSoC5/USBUART_1.c ****                                                                                 TD_TERMIN_EN | TD_I
1091:.\Generated_Source\PSoC5/USBUART_1.c ****             (void) CyDmaTdSetAddress(USBUART_1_DmaTd[epNumber],  LO16((uint32)p), LO16((uint32)pDat
1092:.\Generated_Source\PSoC5/USBUART_1.c ****             /* Enable the DMA */
1093:.\Generated_Source\PSoC5/USBUART_1.c ****             (void) CyDmaChSetInitialTd(USBUART_1_DmaChan[epNumber], USBUART_1_DmaTd[epNumber]);
1094:.\Generated_Source\PSoC5/USBUART_1.c ****             (void) CyDmaChEnable(USBUART_1_DmaChan[epNumber], 1u);
1095:.\Generated_Source\PSoC5/USBUART_1.c **** 
1096:.\Generated_Source\PSoC5/USBUART_1.c ****             /* Generate DMA request */
1097:.\Generated_Source\PSoC5/USBUART_1.c ****             * (reg8 *)(USBUART_1_ARB_EP1_CFG_IND + ri) |= USBUART_1_ARB_EPX_CFG_DMA_REQ;
1098:.\Generated_Source\PSoC5/USBUART_1.c ****             * (reg8 *)(USBUART_1_ARB_EP1_CFG_IND + ri) &= ((uint8)(~USBUART_1_ARB_EPX_CFG_DMA_REQ))
1099:.\Generated_Source\PSoC5/USBUART_1.c ****             /* Out EP will be (re)armed in arb ISR after transfer complete */
1100:.\Generated_Source\PSoC5/USBUART_1.c ****         #endif /* End USBUART_1_EP_MM == USBUART_1__EP_DMAMANUAL */
1101:.\Generated_Source\PSoC5/USBUART_1.c **** 
1102:.\Generated_Source\PSoC5/USBUART_1.c ****         #if(USBUART_1_EP_MM == USBUART_1__EP_DMAAUTO)
1103:.\Generated_Source\PSoC5/USBUART_1.c ****             /* Enable DMA in mode3 for transferring data */
1104:.\Generated_Source\PSoC5/USBUART_1.c ****             (void) CyDmaChDisable(USBUART_1_DmaChan[epNumber]);
1105:.\Generated_Source\PSoC5/USBUART_1.c ****             (void) CyDmaTdSetConfiguration(USBUART_1_DmaTd[epNumber], length, USBUART_1_DmaTd[epNum
1106:.\Generated_Source\PSoC5/USBUART_1.c ****                                                                                 TD_TERMIN_EN | TD_I
1107:.\Generated_Source\PSoC5/USBUART_1.c ****             (void) CyDmaTdSetAddress(USBUART_1_DmaTd[epNumber],  LO16((uint32)p), LO16((uint32)pDat
1108:.\Generated_Source\PSoC5/USBUART_1.c **** 
1109:.\Generated_Source\PSoC5/USBUART_1.c ****             /* Clear Any potential pending DMA requests before starting the DMA channel to transfer
1110:.\Generated_Source\PSoC5/USBUART_1.c ****             (void) CyDmaClearPendingDrq(USBUART_1_DmaChan[epNumber]);
1111:.\Generated_Source\PSoC5/USBUART_1.c ****             /* Enable the DMA */
ARM GAS  C:\Users\Luke\AppData\Local\Temp\ccuzhVDD.s 			page 37


1112:.\Generated_Source\PSoC5/USBUART_1.c ****             (void) CyDmaChSetInitialTd(USBUART_1_DmaChan[epNumber], USBUART_1_DmaTd[epNumber]);
1113:.\Generated_Source\PSoC5/USBUART_1.c ****             (void) CyDmaChEnable(USBUART_1_DmaChan[epNumber], 1u);
1114:.\Generated_Source\PSoC5/USBUART_1.c ****             /* Out EP will be (re)armed in arb ISR after transfer complete */
1115:.\Generated_Source\PSoC5/USBUART_1.c ****         #endif /* End USBUART_1_EP_MM == USBUART_1__EP_DMAAUTO */
1116:.\Generated_Source\PSoC5/USBUART_1.c **** 
1117:.\Generated_Source\PSoC5/USBUART_1.c ****     }
1118:.\Generated_Source\PSoC5/USBUART_1.c ****     else
1119:.\Generated_Source\PSoC5/USBUART_1.c ****     {
1120:.\Generated_Source\PSoC5/USBUART_1.c ****         length = 0u;
1121:.\Generated_Source\PSoC5/USBUART_1.c ****     }
1122:.\Generated_Source\PSoC5/USBUART_1.c **** 
1123:.\Generated_Source\PSoC5/USBUART_1.c ****     return(length);
1124:.\Generated_Source\PSoC5/USBUART_1.c **** }
1125:.\Generated_Source\PSoC5/USBUART_1.c **** 
1126:.\Generated_Source\PSoC5/USBUART_1.c **** 
1127:.\Generated_Source\PSoC5/USBUART_1.c **** /*******************************************************************************
1128:.\Generated_Source\PSoC5/USBUART_1.c **** * Function Name: USBUART_1_EnableOutEP
1129:.\Generated_Source\PSoC5/USBUART_1.c **** ********************************************************************************
1130:.\Generated_Source\PSoC5/USBUART_1.c **** *
1131:.\Generated_Source\PSoC5/USBUART_1.c **** * Summary:
1132:.\Generated_Source\PSoC5/USBUART_1.c **** *  This function enables an OUT endpoint.  It should not be
1133:.\Generated_Source\PSoC5/USBUART_1.c **** *  called for an IN endpoint.
1134:.\Generated_Source\PSoC5/USBUART_1.c **** *
1135:.\Generated_Source\PSoC5/USBUART_1.c **** * Parameters:
1136:.\Generated_Source\PSoC5/USBUART_1.c **** *  epNumber: Endpoint Number
1137:.\Generated_Source\PSoC5/USBUART_1.c **** *            Valid values are between 1 and 8.
1138:.\Generated_Source\PSoC5/USBUART_1.c **** *
1139:.\Generated_Source\PSoC5/USBUART_1.c **** * Return:
1140:.\Generated_Source\PSoC5/USBUART_1.c **** *   None.
1141:.\Generated_Source\PSoC5/USBUART_1.c **** *
1142:.\Generated_Source\PSoC5/USBUART_1.c **** * Global variables:
1143:.\Generated_Source\PSoC5/USBUART_1.c **** *  USBUART_1_EP[epNumber].apiEpState - set to NO_EVENT_PENDING
1144:.\Generated_Source\PSoC5/USBUART_1.c **** *
1145:.\Generated_Source\PSoC5/USBUART_1.c **** * Reentrant:
1146:.\Generated_Source\PSoC5/USBUART_1.c **** *  No.
1147:.\Generated_Source\PSoC5/USBUART_1.c **** *
1148:.\Generated_Source\PSoC5/USBUART_1.c **** *******************************************************************************/
1149:.\Generated_Source\PSoC5/USBUART_1.c **** void USBUART_1_EnableOutEP(uint8 epNumber) 
1150:.\Generated_Source\PSoC5/USBUART_1.c **** {
 879              		.loc 1 1150 0
 880              		.cfi_startproc
 881              		@ args = 0, pretend = 0, frame = 0
 882              		@ frame_needed = 0, uses_anonymous_args = 0
 883              		@ link register save eliminated.
 884              	.LVL59:
1151:.\Generated_Source\PSoC5/USBUART_1.c ****     uint8 ri;
1152:.\Generated_Source\PSoC5/USBUART_1.c **** 
1153:.\Generated_Source\PSoC5/USBUART_1.c ****     if((epNumber > USBUART_1_EP0) && (epNumber < USBUART_1_MAX_EP))
 885              		.loc 1 1153 0
 886 0000 431E     		subs	r3, r0, #1
 887 0002 DBB2     		uxtb	r3, r3
 888 0004 072B     		cmp	r3, #7
 889 0006 0AD8     		bhi	.L54
 890              	.LVL60:
1154:.\Generated_Source\PSoC5/USBUART_1.c ****     {
1155:.\Generated_Source\PSoC5/USBUART_1.c ****         ri = ((epNumber - USBUART_1_EP1) << USBUART_1_EPX_CNTX_ADDR_SHIFT);
1156:.\Generated_Source\PSoC5/USBUART_1.c ****         USBUART_1_EP[epNumber].apiEpState = USBUART_1_NO_EVENT_PENDING;
ARM GAS  C:\Users\Luke\AppData\Local\Temp\ccuzhVDD.s 			page 38


 891              		.loc 1 1156 0
 892 0008 054A     		ldr	r2, .L56
 893 000a 0C21     		movs	r1, #12
 894 000c 01FB0020 		mla	r0, r1, r0, r2
 895              	.LVL61:
 896 0010 0021     		movs	r1, #0
 897 0012 4170     		strb	r1, [r0, #1]
1155:.\Generated_Source\PSoC5/USBUART_1.c ****         ri = ((epNumber - USBUART_1_EP1) << USBUART_1_EPX_CNTX_ADDR_SHIFT);
 898              		.loc 1 1155 0
 899 0014 1B01     		lsls	r3, r3, #4
 900              	.LVL62:
1157:.\Generated_Source\PSoC5/USBUART_1.c ****         /* Write the Mode register */
1158:.\Generated_Source\PSoC5/USBUART_1.c ****         CY_SET_REG8((reg8 *)(USBUART_1_SIE_EP1_CR0_IND + ri), USBUART_1_EP[epNumber].epMode);
 901              		.loc 1 1158 0
 902 0016 4079     		ldrb	r0, [r0, #5]	@ zero_extendqisi2
 903 0018 024A     		ldr	r2, .L56+4
 904 001a DBB2     		uxtb	r3, r3
 905 001c 9854     		strb	r0, [r3, r2]
 906              	.L54:
 907 001e 7047     		bx	lr
 908              	.L57:
 909              		.align	2
 910              	.L56:
 911 0020 00000000 		.word	USBUART_1_EP
 912 0024 0E600040 		.word	1073766414
 913              		.cfi_endproc
 914              	.LFE13:
 915              		.size	USBUART_1_EnableOutEP, .-USBUART_1_EnableOutEP
 916              		.section	.text.USBUART_1_ReadOutEP,"ax",%progbits
 917              		.align	1
 918              		.global	USBUART_1_ReadOutEP
 919              		.thumb
 920              		.thumb_func
 921              		.type	USBUART_1_ReadOutEP, %function
 922              	USBUART_1_ReadOutEP:
 923              	.LFB12:
1045:.\Generated_Source\PSoC5/USBUART_1.c **** {
 924              		.loc 1 1045 0
 925              		.cfi_startproc
 926              		@ args = 0, pretend = 0, frame = 0
 927              		@ frame_needed = 0, uses_anonymous_args = 0
 928              	.LVL63:
 929 0000 F8B5     		push	{r3, r4, r5, r6, r7, lr}
 930              	.LCFI4:
 931              		.cfi_def_cfa_offset 24
 932              		.cfi_offset 3, -24
 933              		.cfi_offset 4, -20
 934              		.cfi_offset 5, -16
 935              		.cfi_offset 6, -12
 936              		.cfi_offset 7, -8
 937              		.cfi_offset 14, -4
1055:.\Generated_Source\PSoC5/USBUART_1.c ****     if((epNumber > USBUART_1_EP0) && (epNumber < USBUART_1_MAX_EP) && (pData != NULL))
 938              		.loc 1 1055 0
 939 0002 431E     		subs	r3, r0, #1
1045:.\Generated_Source\PSoC5/USBUART_1.c **** {
 940              		.loc 1 1045 0
 941 0004 0D46     		mov	r5, r1
ARM GAS  C:\Users\Luke\AppData\Local\Temp\ccuzhVDD.s 			page 39


1055:.\Generated_Source\PSoC5/USBUART_1.c ****     if((epNumber > USBUART_1_EP0) && (epNumber < USBUART_1_MAX_EP) && (pData != NULL))
 942              		.loc 1 1055 0
 943 0006 D9B2     		uxtb	r1, r3
 944              	.LVL64:
 945 0008 0729     		cmp	r1, #7
1045:.\Generated_Source\PSoC5/USBUART_1.c **** {
 946              		.loc 1 1045 0
 947 000a 0746     		mov	r7, r0
 948 000c 1446     		mov	r4, r2
1055:.\Generated_Source\PSoC5/USBUART_1.c ****     if((epNumber > USBUART_1_EP0) && (epNumber < USBUART_1_MAX_EP) && (pData != NULL))
 949              		.loc 1 1055 0
 950 000e 16D8     		bhi	.L62
1055:.\Generated_Source\PSoC5/USBUART_1.c ****     if((epNumber > USBUART_1_EP0) && (epNumber < USBUART_1_MAX_EP) && (pData != NULL))
 951              		.loc 1 1055 0 is_stmt 0 discriminator 1
 952 0010 BDB1     		cbz	r5, .L63
 953              	.LVL65:
1057:.\Generated_Source\PSoC5/USBUART_1.c ****         ri = ((epNumber - USBUART_1_EP1) << USBUART_1_EPX_CNTX_ADDR_SHIFT);
 954              		.loc 1 1057 0 is_stmt 1
 955 0012 0A01     		lsls	r2, r1, #4
 956              	.LVL66:
1058:.\Generated_Source\PSoC5/USBUART_1.c ****         p = (reg8 *)(USBUART_1_ARB_RW1_DR_IND + ri);
 957              		.loc 1 1058 0
 958 0014 0C4E     		ldr	r6, .L65
 959 0016 D3B2     		uxtb	r3, r2
 960 0018 9E19     		adds	r6, r3, r6
 961              	.LVL67:
1062:.\Generated_Source\PSoC5/USBUART_1.c ****             xferCount = USBUART_1_GetEPCount(epNumber);
 962              		.loc 1 1062 0
 963 001a FFF7FEFF 		bl	USBUART_1_GetEPCount
 964              	.LVL68:
 965 001e A042     		cmp	r0, r4
 966 0020 28BF     		it	cs
 967 0022 2046     		movcs	r0, r4
 968              	.LVL69:
 969 0024 84B2     		uxth	r4, r0
 970              	.LVL70:
1071:.\Generated_Source\PSoC5/USBUART_1.c ****             for (i = 0u; i < length; i++)
 971              		.loc 1 1071 0
 972 0026 0022     		movs	r2, #0
 973              	.LVL71:
 974              	.L60:
1071:.\Generated_Source\PSoC5/USBUART_1.c ****             for (i = 0u; i < length; i++)
 975              		.loc 1 1071 0 is_stmt 0 discriminator 1
 976 0028 90B2     		uxth	r0, r2
 977 002a A042     		cmp	r0, r4
 978 002c 03D2     		bcs	.L64
 979              	.L61:
1073:.\Generated_Source\PSoC5/USBUART_1.c ****                 pData[i] = CY_GET_REG8(p);
 980              		.loc 1 1073 0 is_stmt 1 discriminator 2
 981 002e 3178     		ldrb	r1, [r6, #0]	@ zero_extendqisi2
 982 0030 A954     		strb	r1, [r5, r2]
 983 0032 0132     		adds	r2, r2, #1
 984 0034 F8E7     		b	.L60
 985              	.L64:
1077:.\Generated_Source\PSoC5/USBUART_1.c ****             USBUART_1_EnableOutEP(epNumber);
 986              		.loc 1 1077 0
 987 0036 3846     		mov	r0, r7
ARM GAS  C:\Users\Luke\AppData\Local\Temp\ccuzhVDD.s 			page 40


 988 0038 FFF7FEFF 		bl	USBUART_1_EnableOutEP
 989              	.LVL72:
 990 003c 02E0     		b	.L59
 991              	.LVL73:
 992              	.L62:
1120:.\Generated_Source\PSoC5/USBUART_1.c ****         length = 0u;
 993              		.loc 1 1120 0
 994 003e 0024     		movs	r4, #0
 995 0040 00E0     		b	.L59
 996              	.L63:
 997 0042 2C46     		mov	r4, r5
 998              	.LVL74:
 999              	.L59:
1124:.\Generated_Source\PSoC5/USBUART_1.c **** }
 1000              		.loc 1 1124 0
 1001 0044 2046     		mov	r0, r4
 1002 0046 F8BD     		pop	{r3, r4, r5, r6, r7, pc}
 1003              	.L66:
 1004              		.align	2
 1005              	.L65:
 1006 0048 88600040 		.word	1073766536
 1007              		.cfi_endproc
 1008              	.LFE12:
 1009              		.size	USBUART_1_ReadOutEP, .-USBUART_1_ReadOutEP
 1010              		.section	.text.USBUART_1_DisableOutEP,"ax",%progbits
 1011              		.align	1
 1012              		.global	USBUART_1_DisableOutEP
 1013              		.thumb
 1014              		.thumb_func
 1015              		.type	USBUART_1_DisableOutEP, %function
 1016              	USBUART_1_DisableOutEP:
 1017              	.LFB14:
1159:.\Generated_Source\PSoC5/USBUART_1.c ****     }
1160:.\Generated_Source\PSoC5/USBUART_1.c **** }
1161:.\Generated_Source\PSoC5/USBUART_1.c **** 
1162:.\Generated_Source\PSoC5/USBUART_1.c **** 
1163:.\Generated_Source\PSoC5/USBUART_1.c **** /*******************************************************************************
1164:.\Generated_Source\PSoC5/USBUART_1.c **** * Function Name: USBUART_1_DisableOutEP
1165:.\Generated_Source\PSoC5/USBUART_1.c **** ********************************************************************************
1166:.\Generated_Source\PSoC5/USBUART_1.c **** *
1167:.\Generated_Source\PSoC5/USBUART_1.c **** * Summary:
1168:.\Generated_Source\PSoC5/USBUART_1.c **** *  This function disables an OUT endpoint.  It should not be
1169:.\Generated_Source\PSoC5/USBUART_1.c **** *  called for an IN endpoint.
1170:.\Generated_Source\PSoC5/USBUART_1.c **** *
1171:.\Generated_Source\PSoC5/USBUART_1.c **** * Parameters:
1172:.\Generated_Source\PSoC5/USBUART_1.c **** *  epNumber: Endpoint Number
1173:.\Generated_Source\PSoC5/USBUART_1.c **** *            Valid values are between 1 and 8.
1174:.\Generated_Source\PSoC5/USBUART_1.c **** *
1175:.\Generated_Source\PSoC5/USBUART_1.c **** * Return:
1176:.\Generated_Source\PSoC5/USBUART_1.c **** *  None.
1177:.\Generated_Source\PSoC5/USBUART_1.c **** *
1178:.\Generated_Source\PSoC5/USBUART_1.c **** *******************************************************************************/
1179:.\Generated_Source\PSoC5/USBUART_1.c **** void USBUART_1_DisableOutEP(uint8 epNumber) 
1180:.\Generated_Source\PSoC5/USBUART_1.c **** {
 1018              		.loc 1 1180 0
 1019              		.cfi_startproc
 1020              		@ args = 0, pretend = 0, frame = 0
ARM GAS  C:\Users\Luke\AppData\Local\Temp\ccuzhVDD.s 			page 41


 1021              		@ frame_needed = 0, uses_anonymous_args = 0
 1022              		@ link register save eliminated.
 1023              	.LVL75:
1181:.\Generated_Source\PSoC5/USBUART_1.c ****     uint8 ri ;
1182:.\Generated_Source\PSoC5/USBUART_1.c **** 
1183:.\Generated_Source\PSoC5/USBUART_1.c ****     if((epNumber > USBUART_1_EP0) && (epNumber < USBUART_1_MAX_EP))
 1024              		.loc 1 1183 0
 1025 0000 0138     		subs	r0, r0, #1
 1026              	.LVL76:
 1027 0002 C1B2     		uxtb	r1, r0
 1028 0004 0729     		cmp	r1, #7
 1029 0006 04D8     		bhi	.L67
 1030              	.LVL77:
1184:.\Generated_Source\PSoC5/USBUART_1.c ****     {
1185:.\Generated_Source\PSoC5/USBUART_1.c ****         ri = ((epNumber - USBUART_1_EP1) << USBUART_1_EPX_CNTX_ADDR_SHIFT);
 1031              		.loc 1 1185 0
 1032 0008 0A01     		lsls	r2, r1, #4
1186:.\Generated_Source\PSoC5/USBUART_1.c ****         /* Write the Mode register */
1187:.\Generated_Source\PSoC5/USBUART_1.c ****         CY_SET_REG8((reg8 *)(USBUART_1_SIE_EP1_CR0_IND + ri), USBUART_1_MODE_NAK_OUT);
 1033              		.loc 1 1187 0
 1034 000a 024B     		ldr	r3, .L69
 1035 000c D0B2     		uxtb	r0, r2
 1036 000e 0821     		movs	r1, #8
 1037              	.LVL78:
 1038 0010 C154     		strb	r1, [r0, r3]
 1039              	.L67:
 1040 0012 7047     		bx	lr
 1041              	.L70:
 1042              		.align	2
 1043              	.L69:
 1044 0014 0E600040 		.word	1073766414
 1045              		.cfi_endproc
 1046              	.LFE14:
 1047              		.size	USBUART_1_DisableOutEP, .-USBUART_1_DisableOutEP
 1048              		.section	.text.USBUART_1_Force,"ax",%progbits
 1049              		.align	1
 1050              		.global	USBUART_1_Force
 1051              		.thumb
 1052              		.thumb_func
 1053              		.type	USBUART_1_Force, %function
 1054              	USBUART_1_Force:
 1055              	.LFB15:
1188:.\Generated_Source\PSoC5/USBUART_1.c ****     }
1189:.\Generated_Source\PSoC5/USBUART_1.c **** }
1190:.\Generated_Source\PSoC5/USBUART_1.c **** 
1191:.\Generated_Source\PSoC5/USBUART_1.c **** 
1192:.\Generated_Source\PSoC5/USBUART_1.c **** /*******************************************************************************
1193:.\Generated_Source\PSoC5/USBUART_1.c **** * Function Name: USBUART_1_Force
1194:.\Generated_Source\PSoC5/USBUART_1.c **** ********************************************************************************
1195:.\Generated_Source\PSoC5/USBUART_1.c **** *
1196:.\Generated_Source\PSoC5/USBUART_1.c **** * Summary:
1197:.\Generated_Source\PSoC5/USBUART_1.c **** *  Forces the bus state
1198:.\Generated_Source\PSoC5/USBUART_1.c **** *
1199:.\Generated_Source\PSoC5/USBUART_1.c **** * Parameters:
1200:.\Generated_Source\PSoC5/USBUART_1.c **** *  bState
1201:.\Generated_Source\PSoC5/USBUART_1.c **** *    USBUART_1_FORCE_J
1202:.\Generated_Source\PSoC5/USBUART_1.c **** *    USBUART_1_FORCE_K
ARM GAS  C:\Users\Luke\AppData\Local\Temp\ccuzhVDD.s 			page 42


1203:.\Generated_Source\PSoC5/USBUART_1.c **** *    USBUART_1_FORCE_SE0
1204:.\Generated_Source\PSoC5/USBUART_1.c **** *    USBUART_1_FORCE_NONE
1205:.\Generated_Source\PSoC5/USBUART_1.c **** *
1206:.\Generated_Source\PSoC5/USBUART_1.c **** * Return:
1207:.\Generated_Source\PSoC5/USBUART_1.c **** *  None.
1208:.\Generated_Source\PSoC5/USBUART_1.c **** *
1209:.\Generated_Source\PSoC5/USBUART_1.c **** *******************************************************************************/
1210:.\Generated_Source\PSoC5/USBUART_1.c **** void USBUART_1_Force(uint8 bState) 
1211:.\Generated_Source\PSoC5/USBUART_1.c **** {
 1056              		.loc 1 1211 0
 1057              		.cfi_startproc
 1058              		@ args = 0, pretend = 0, frame = 0
 1059              		@ frame_needed = 0, uses_anonymous_args = 0
 1060              		@ link register save eliminated.
 1061              	.LVL79:
1212:.\Generated_Source\PSoC5/USBUART_1.c ****     CY_SET_REG8(USBUART_1_USBIO_CR0_PTR, bState);
 1062              		.loc 1 1212 0
 1063 0000 014B     		ldr	r3, .L72
 1064 0002 1870     		strb	r0, [r3, #0]
 1065 0004 7047     		bx	lr
 1066              	.L73:
 1067 0006 00BF     		.align	2
 1068              	.L72:
 1069 0008 10600040 		.word	1073766416
 1070              		.cfi_endproc
 1071              	.LFE15:
 1072              		.size	USBUART_1_Force, .-USBUART_1_Force
 1073              		.section	.text.USBUART_1_GetEPAckState,"ax",%progbits
 1074              		.align	1
 1075              		.global	USBUART_1_GetEPAckState
 1076              		.thumb
 1077              		.thumb_func
 1078              		.type	USBUART_1_GetEPAckState, %function
 1079              	USBUART_1_GetEPAckState:
 1080              	.LFB16:
1213:.\Generated_Source\PSoC5/USBUART_1.c **** }
1214:.\Generated_Source\PSoC5/USBUART_1.c **** 
1215:.\Generated_Source\PSoC5/USBUART_1.c **** 
1216:.\Generated_Source\PSoC5/USBUART_1.c **** /*******************************************************************************
1217:.\Generated_Source\PSoC5/USBUART_1.c **** * Function Name: USBUART_1_GetEPAckState
1218:.\Generated_Source\PSoC5/USBUART_1.c **** ********************************************************************************
1219:.\Generated_Source\PSoC5/USBUART_1.c **** *
1220:.\Generated_Source\PSoC5/USBUART_1.c **** * Summary:
1221:.\Generated_Source\PSoC5/USBUART_1.c **** *  Returns the ACK of the CR0 Register (ACKD)
1222:.\Generated_Source\PSoC5/USBUART_1.c **** *
1223:.\Generated_Source\PSoC5/USBUART_1.c **** * Parameters:
1224:.\Generated_Source\PSoC5/USBUART_1.c **** *  epNumber: Endpoint Number
1225:.\Generated_Source\PSoC5/USBUART_1.c **** *            Valid values are between 1 and 8.
1226:.\Generated_Source\PSoC5/USBUART_1.c **** *
1227:.\Generated_Source\PSoC5/USBUART_1.c **** * Returns
1228:.\Generated_Source\PSoC5/USBUART_1.c **** *  0 if nothing has been ACKD, non-=zero something has been ACKD
1229:.\Generated_Source\PSoC5/USBUART_1.c **** *
1230:.\Generated_Source\PSoC5/USBUART_1.c **** *******************************************************************************/
1231:.\Generated_Source\PSoC5/USBUART_1.c **** uint8 USBUART_1_GetEPAckState(uint8 epNumber) 
1232:.\Generated_Source\PSoC5/USBUART_1.c **** {
 1081              		.loc 1 1232 0
 1082              		.cfi_startproc
ARM GAS  C:\Users\Luke\AppData\Local\Temp\ccuzhVDD.s 			page 43


 1083              		@ args = 0, pretend = 0, frame = 0
 1084              		@ frame_needed = 0, uses_anonymous_args = 0
 1085              		@ link register save eliminated.
 1086              	.LVL80:
1233:.\Generated_Source\PSoC5/USBUART_1.c ****     uint8 ri;
1234:.\Generated_Source\PSoC5/USBUART_1.c ****     uint8 cr = 0u;
1235:.\Generated_Source\PSoC5/USBUART_1.c **** 
1236:.\Generated_Source\PSoC5/USBUART_1.c ****     if((epNumber > USBUART_1_EP0) && (epNumber < USBUART_1_MAX_EP))
 1087              		.loc 1 1236 0
 1088 0000 0138     		subs	r0, r0, #1
 1089              	.LVL81:
 1090 0002 C1B2     		uxtb	r1, r0
 1091 0004 0729     		cmp	r1, #7
 1092 0006 07D8     		bhi	.L76
 1093              	.LVL82:
1237:.\Generated_Source\PSoC5/USBUART_1.c ****     {
1238:.\Generated_Source\PSoC5/USBUART_1.c ****         ri = ((epNumber - USBUART_1_EP1) << USBUART_1_EPX_CNTX_ADDR_SHIFT);
 1094              		.loc 1 1238 0
 1095 0008 0A01     		lsls	r2, r1, #4
1239:.\Generated_Source\PSoC5/USBUART_1.c ****         cr = CY_GET_REG8((reg8 *)(USBUART_1_SIE_EP1_CR0_IND + ri)) & USBUART_1_MODE_ACKD;
 1096              		.loc 1 1239 0
 1097 000a 044B     		ldr	r3, .L77
 1098 000c D0B2     		uxtb	r0, r2
 1099 000e C15C     		ldrb	r1, [r0, r3]	@ zero_extendqisi2
 1100              	.LVL83:
 1101 0010 01F01002 		and	r2, r1, #16
 1102 0014 D0B2     		uxtb	r0, r2
 1103              	.LVL84:
 1104 0016 7047     		bx	lr
 1105              	.LVL85:
 1106              	.L76:
1234:.\Generated_Source\PSoC5/USBUART_1.c ****     uint8 cr = 0u;
 1107              		.loc 1 1234 0
 1108 0018 0020     		movs	r0, #0
 1109              	.LVL86:
1240:.\Generated_Source\PSoC5/USBUART_1.c ****     }
1241:.\Generated_Source\PSoC5/USBUART_1.c **** 
1242:.\Generated_Source\PSoC5/USBUART_1.c ****     return(cr);
1243:.\Generated_Source\PSoC5/USBUART_1.c **** }
 1110              		.loc 1 1243 0
 1111 001a 7047     		bx	lr
 1112              	.L78:
 1113              		.align	2
 1114              	.L77:
 1115 001c 0E600040 		.word	1073766414
 1116              		.cfi_endproc
 1117              	.LFE16:
 1118              		.size	USBUART_1_GetEPAckState, .-USBUART_1_GetEPAckState
 1119              		.section	.text.USBUART_1_SetPowerStatus,"ax",%progbits
 1120              		.align	1
 1121              		.global	USBUART_1_SetPowerStatus
 1122              		.thumb
 1123              		.thumb_func
 1124              		.type	USBUART_1_SetPowerStatus, %function
 1125              	USBUART_1_SetPowerStatus:
 1126              	.LFB17:
1244:.\Generated_Source\PSoC5/USBUART_1.c **** 
ARM GAS  C:\Users\Luke\AppData\Local\Temp\ccuzhVDD.s 			page 44


1245:.\Generated_Source\PSoC5/USBUART_1.c **** 
1246:.\Generated_Source\PSoC5/USBUART_1.c **** /*******************************************************************************
1247:.\Generated_Source\PSoC5/USBUART_1.c **** * Function Name: USBUART_1_SetPowerStatus
1248:.\Generated_Source\PSoC5/USBUART_1.c **** ********************************************************************************
1249:.\Generated_Source\PSoC5/USBUART_1.c **** *
1250:.\Generated_Source\PSoC5/USBUART_1.c **** * Summary:
1251:.\Generated_Source\PSoC5/USBUART_1.c **** *  Sets the device power status for reporting in the Get Device Status
1252:.\Generated_Source\PSoC5/USBUART_1.c **** *  request
1253:.\Generated_Source\PSoC5/USBUART_1.c **** *
1254:.\Generated_Source\PSoC5/USBUART_1.c **** * Parameters:
1255:.\Generated_Source\PSoC5/USBUART_1.c **** *  powerStatus: USBUART_1_DEVICE_STATUS_BUS_POWERED(0) - Bus Powered,
1256:.\Generated_Source\PSoC5/USBUART_1.c **** *               USBUART_1_DEVICE_STATUS_SELF_POWERED(1) - Self Powered
1257:.\Generated_Source\PSoC5/USBUART_1.c **** *
1258:.\Generated_Source\PSoC5/USBUART_1.c **** * Return:
1259:.\Generated_Source\PSoC5/USBUART_1.c **** *   None.
1260:.\Generated_Source\PSoC5/USBUART_1.c **** *
1261:.\Generated_Source\PSoC5/USBUART_1.c **** * Global variables:
1262:.\Generated_Source\PSoC5/USBUART_1.c **** *  USBUART_1_deviceStatus - set power status
1263:.\Generated_Source\PSoC5/USBUART_1.c **** *
1264:.\Generated_Source\PSoC5/USBUART_1.c **** * Reentrant:
1265:.\Generated_Source\PSoC5/USBUART_1.c **** *  No.
1266:.\Generated_Source\PSoC5/USBUART_1.c **** *
1267:.\Generated_Source\PSoC5/USBUART_1.c **** *******************************************************************************/
1268:.\Generated_Source\PSoC5/USBUART_1.c **** void USBUART_1_SetPowerStatus(uint8 powerStatus) 
1269:.\Generated_Source\PSoC5/USBUART_1.c **** {
 1127              		.loc 1 1269 0
 1128              		.cfi_startproc
 1129              		@ args = 0, pretend = 0, frame = 0
 1130              		@ frame_needed = 0, uses_anonymous_args = 0
 1131              		@ link register save eliminated.
 1132              	.LVL87:
 1133 0000 044B     		ldr	r3, .L83
1270:.\Generated_Source\PSoC5/USBUART_1.c ****     if (powerStatus != USBUART_1_DEVICE_STATUS_BUS_POWERED)
1271:.\Generated_Source\PSoC5/USBUART_1.c ****     {
1272:.\Generated_Source\PSoC5/USBUART_1.c ****         USBUART_1_deviceStatus |=  USBUART_1_DEVICE_STATUS_SELF_POWERED;
 1134              		.loc 1 1272 0
 1135 0002 1A78     		ldrb	r2, [r3, #0]	@ zero_extendqisi2
1270:.\Generated_Source\PSoC5/USBUART_1.c ****     if (powerStatus != USBUART_1_DEVICE_STATUS_BUS_POWERED)
 1136              		.loc 1 1270 0
 1137 0004 10B1     		cbz	r0, .L80
 1138              		.loc 1 1272 0
 1139 0006 42F00100 		orr	r0, r2, #1
 1140              	.LVL88:
 1141 000a 01E0     		b	.L82
 1142              	.LVL89:
 1143              	.L80:
1273:.\Generated_Source\PSoC5/USBUART_1.c ****     }
1274:.\Generated_Source\PSoC5/USBUART_1.c ****     else
1275:.\Generated_Source\PSoC5/USBUART_1.c ****     {
1276:.\Generated_Source\PSoC5/USBUART_1.c ****         USBUART_1_deviceStatus &=  ((uint8)(~USBUART_1_DEVICE_STATUS_SELF_POWERED));
 1144              		.loc 1 1276 0
 1145 000c 02F0FE00 		and	r0, r2, #254
 1146              	.LVL90:
 1147              	.L82:
 1148 0010 1870     		strb	r0, [r3, #0]
 1149 0012 7047     		bx	lr
 1150              	.L84:
ARM GAS  C:\Users\Luke\AppData\Local\Temp\ccuzhVDD.s 			page 45


 1151              		.align	2
 1152              	.L83:
 1153 0014 00000000 		.word	USBUART_1_deviceStatus
 1154              		.cfi_endproc
 1155              	.LFE17:
 1156              		.size	USBUART_1_SetPowerStatus, .-USBUART_1_SetPowerStatus
 1157              		.section	.text.USBUART_1_VBusPresent,"ax",%progbits
 1158              		.align	1
 1159              		.global	USBUART_1_VBusPresent
 1160              		.thumb
 1161              		.thumb_func
 1162              		.type	USBUART_1_VBusPresent, %function
 1163              	USBUART_1_VBusPresent:
 1164              	.LFB18:
1277:.\Generated_Source\PSoC5/USBUART_1.c ****     }
1278:.\Generated_Source\PSoC5/USBUART_1.c **** }
1279:.\Generated_Source\PSoC5/USBUART_1.c **** 
1280:.\Generated_Source\PSoC5/USBUART_1.c **** 
1281:.\Generated_Source\PSoC5/USBUART_1.c **** #if (USBUART_1_MON_VBUS == 1u)
1282:.\Generated_Source\PSoC5/USBUART_1.c **** 
1283:.\Generated_Source\PSoC5/USBUART_1.c ****     /*******************************************************************************
1284:.\Generated_Source\PSoC5/USBUART_1.c ****     * Function Name: USBUART_1_VBusPresent
1285:.\Generated_Source\PSoC5/USBUART_1.c ****     ********************************************************************************
1286:.\Generated_Source\PSoC5/USBUART_1.c ****     *
1287:.\Generated_Source\PSoC5/USBUART_1.c ****     * Summary:
1288:.\Generated_Source\PSoC5/USBUART_1.c ****     *  Determines VBUS presence for Self Powered Devices.
1289:.\Generated_Source\PSoC5/USBUART_1.c ****     *
1290:.\Generated_Source\PSoC5/USBUART_1.c ****     * Parameters:
1291:.\Generated_Source\PSoC5/USBUART_1.c ****     *  None.
1292:.\Generated_Source\PSoC5/USBUART_1.c ****     *
1293:.\Generated_Source\PSoC5/USBUART_1.c ****     * Return:
1294:.\Generated_Source\PSoC5/USBUART_1.c ****     *  1 if VBUS is present, otherwise 0.
1295:.\Generated_Source\PSoC5/USBUART_1.c ****     *
1296:.\Generated_Source\PSoC5/USBUART_1.c ****     *******************************************************************************/
1297:.\Generated_Source\PSoC5/USBUART_1.c ****     uint8 USBUART_1_VBusPresent(void) 
1298:.\Generated_Source\PSoC5/USBUART_1.c ****     {
 1165              		.loc 1 1298 0
 1166              		.cfi_startproc
 1167              		@ args = 0, pretend = 0, frame = 0
 1168              		@ frame_needed = 0, uses_anonymous_args = 0
 1169              		@ link register save eliminated.
1299:.\Generated_Source\PSoC5/USBUART_1.c ****         return((0u != (CY_GET_REG8(USBUART_1_VBUS_PS_PTR) & USBUART_1_VBUS_MASK)) ? 1u : 0u);
 1170              		.loc 1 1299 0
 1171 0000 024B     		ldr	r3, .L86
 1172 0002 1878     		ldrb	r0, [r3, #0]	@ zero_extendqisi2
1300:.\Generated_Source\PSoC5/USBUART_1.c ****     }
 1173              		.loc 1 1300 0
 1174 0004 00F00100 		and	r0, r0, #1
 1175 0008 7047     		bx	lr
 1176              	.L87:
 1177 000a 00BF     		.align	2
 1178              	.L86:
 1179 000c 65640040 		.word	1073767525
 1180              		.cfi_endproc
 1181              	.LFE18:
 1182              		.size	USBUART_1_VBusPresent, .-USBUART_1_VBusPresent
 1183              		.section	.text.USBUART_1_RWUEnabled,"ax",%progbits
ARM GAS  C:\Users\Luke\AppData\Local\Temp\ccuzhVDD.s 			page 46


 1184              		.align	1
 1185              		.global	USBUART_1_RWUEnabled
 1186              		.thumb
 1187              		.thumb_func
 1188              		.type	USBUART_1_RWUEnabled, %function
 1189              	USBUART_1_RWUEnabled:
 1190              	.LFB19:
1301:.\Generated_Source\PSoC5/USBUART_1.c **** 
1302:.\Generated_Source\PSoC5/USBUART_1.c **** #endif /* USBUART_1_MON_VBUS */
1303:.\Generated_Source\PSoC5/USBUART_1.c **** 
1304:.\Generated_Source\PSoC5/USBUART_1.c **** 
1305:.\Generated_Source\PSoC5/USBUART_1.c **** /*******************************************************************************
1306:.\Generated_Source\PSoC5/USBUART_1.c **** * Function Name: USBUART_1_RWUEnabled
1307:.\Generated_Source\PSoC5/USBUART_1.c **** ********************************************************************************
1308:.\Generated_Source\PSoC5/USBUART_1.c **** *
1309:.\Generated_Source\PSoC5/USBUART_1.c **** * Summary:
1310:.\Generated_Source\PSoC5/USBUART_1.c **** *  Returns TRUE if Remote Wake Up is enabled, otherwise FALSE
1311:.\Generated_Source\PSoC5/USBUART_1.c **** *
1312:.\Generated_Source\PSoC5/USBUART_1.c **** * Parameters:
1313:.\Generated_Source\PSoC5/USBUART_1.c **** *   None.
1314:.\Generated_Source\PSoC5/USBUART_1.c **** *
1315:.\Generated_Source\PSoC5/USBUART_1.c **** * Return:
1316:.\Generated_Source\PSoC5/USBUART_1.c **** *  TRUE -  Remote Wake Up Enabled
1317:.\Generated_Source\PSoC5/USBUART_1.c **** *  FALSE - Remote Wake Up Disabled
1318:.\Generated_Source\PSoC5/USBUART_1.c **** *
1319:.\Generated_Source\PSoC5/USBUART_1.c **** * Global variables:
1320:.\Generated_Source\PSoC5/USBUART_1.c **** *  USBUART_1_deviceStatus - checked to determine remote status
1321:.\Generated_Source\PSoC5/USBUART_1.c **** *
1322:.\Generated_Source\PSoC5/USBUART_1.c **** *******************************************************************************/
1323:.\Generated_Source\PSoC5/USBUART_1.c **** uint8 USBUART_1_RWUEnabled(void) 
1324:.\Generated_Source\PSoC5/USBUART_1.c **** {
 1191              		.loc 1 1324 0
 1192              		.cfi_startproc
 1193              		@ args = 0, pretend = 0, frame = 0
 1194              		@ frame_needed = 0, uses_anonymous_args = 0
 1195              		@ link register save eliminated.
 1196              	.LVL91:
1325:.\Generated_Source\PSoC5/USBUART_1.c ****     uint8 result = USBUART_1_FALSE;
1326:.\Generated_Source\PSoC5/USBUART_1.c ****     if((USBUART_1_deviceStatus & USBUART_1_DEVICE_STATUS_REMOTE_WAKEUP) != 0u)
 1197              		.loc 1 1326 0
 1198 0000 024B     		ldr	r3, .L89
 1199 0002 1878     		ldrb	r0, [r3, #0]	@ zero_extendqisi2
 1200              	.LVL92:
1327:.\Generated_Source\PSoC5/USBUART_1.c ****     {
1328:.\Generated_Source\PSoC5/USBUART_1.c ****         result = USBUART_1_TRUE;
1329:.\Generated_Source\PSoC5/USBUART_1.c ****     }
1330:.\Generated_Source\PSoC5/USBUART_1.c **** 
1331:.\Generated_Source\PSoC5/USBUART_1.c ****     return(result);
1332:.\Generated_Source\PSoC5/USBUART_1.c **** }
 1201              		.loc 1 1332 0
 1202 0004 C0F34000 		ubfx	r0, r0, #1, #1
 1203              	.LVL93:
 1204 0008 7047     		bx	lr
 1205              	.L90:
 1206 000a 00BF     		.align	2
 1207              	.L89:
 1208 000c 00000000 		.word	USBUART_1_deviceStatus
ARM GAS  C:\Users\Luke\AppData\Local\Temp\ccuzhVDD.s 			page 47


 1209              		.cfi_endproc
 1210              	.LFE19:
 1211              		.size	USBUART_1_RWUEnabled, .-USBUART_1_RWUEnabled
 1212              		.global	USBUART_1_initVar
 1213              		.bss
 1214              		.set	.LANCHOR0,. + 0
 1215              		.type	USBUART_1_initVar, %object
 1216              		.size	USBUART_1_initVar, 1
 1217              	USBUART_1_initVar:
 1218 0000 00       		.space	1
 1219              		.text
 1220              	.Letext0:
 1221              		.file 2 "./Generated_Source/PSoC5/cytypes.h"
 1222              		.file 3 ".\\Generated_Source\\PSoC5\\USBUART_1.h"
 1223              		.file 4 ".\\Generated_Source\\PSoC5\\USBUART_1_pvt.h"
 1224              		.file 5 "./Generated_Source/PSoC5/CyLib.h"