ARM GAS  C:\Users\Luke\AppData\Local\Temp\ccJIvIRB.s 			page 1


   1              		.syntax unified
   2              		.cpu cortex-m3
   3              		.fpu softvfp
   4              		.eabi_attribute 20, 1
   5              		.eabi_attribute 21, 1
   6              		.eabi_attribute 23, 3
   7              		.eabi_attribute 24, 1
   8              		.eabi_attribute 25, 1
   9              		.eabi_attribute 26, 1
  10              		.eabi_attribute 30, 4
  11              		.eabi_attribute 34, 1
  12              		.eabi_attribute 18, 4
  13              		.thumb
  14              		.file	"USBUART_1_cdc.c"
  15              		.text
  16              	.Ltext0:
  17              		.cfi_sections	.debug_frame
  18              		.section	.text.USBUART_1_DispatchCDCClassRqst,"ax",%progbits
  19              		.align	1
  20              		.global	USBUART_1_DispatchCDCClassRqst
  21              		.thumb
  22              		.thumb_func
  23              		.type	USBUART_1_DispatchCDCClassRqst, %function
  24              	USBUART_1_DispatchCDCClassRqst:
  25              	.LFB0:
  26              		.file 1 ".\\Generated_Source\\PSoC5\\USBUART_1_cdc.c"
   1:.\Generated_Source\PSoC5/USBUART_1_cdc.c **** /*******************************************************************************
   2:.\Generated_Source\PSoC5/USBUART_1_cdc.c **** * File Name: USBUART_1_cdc.c
   3:.\Generated_Source\PSoC5/USBUART_1_cdc.c **** * Version 2.60
   4:.\Generated_Source\PSoC5/USBUART_1_cdc.c **** *
   5:.\Generated_Source\PSoC5/USBUART_1_cdc.c **** * Description:
   6:.\Generated_Source\PSoC5/USBUART_1_cdc.c **** *  USB HID Class request handler.
   7:.\Generated_Source\PSoC5/USBUART_1_cdc.c **** *
   8:.\Generated_Source\PSoC5/USBUART_1_cdc.c **** * Note:
   9:.\Generated_Source\PSoC5/USBUART_1_cdc.c **** *
  10:.\Generated_Source\PSoC5/USBUART_1_cdc.c **** ********************************************************************************
  11:.\Generated_Source\PSoC5/USBUART_1_cdc.c **** * Copyright 2012-2013, Cypress Semiconductor Corporation.  All rights reserved.
  12:.\Generated_Source\PSoC5/USBUART_1_cdc.c **** * You may use this file only in accordance with the license, terms, conditions,
  13:.\Generated_Source\PSoC5/USBUART_1_cdc.c **** * disclaimers, and limitations in the end user license agreement accompanying
  14:.\Generated_Source\PSoC5/USBUART_1_cdc.c **** * the software package with which this file was provided.
  15:.\Generated_Source\PSoC5/USBUART_1_cdc.c **** *******************************************************************************/
  16:.\Generated_Source\PSoC5/USBUART_1_cdc.c **** 
  17:.\Generated_Source\PSoC5/USBUART_1_cdc.c **** #include "USBUART_1.h"
  18:.\Generated_Source\PSoC5/USBUART_1_cdc.c **** 
  19:.\Generated_Source\PSoC5/USBUART_1_cdc.c **** #if defined(USBUART_1_ENABLE_CDC_CLASS)
  20:.\Generated_Source\PSoC5/USBUART_1_cdc.c **** 
  21:.\Generated_Source\PSoC5/USBUART_1_cdc.c **** #include "USBUART_1_cdc.h"
  22:.\Generated_Source\PSoC5/USBUART_1_cdc.c **** #include "USBUART_1_pvt.h"
  23:.\Generated_Source\PSoC5/USBUART_1_cdc.c **** 
  24:.\Generated_Source\PSoC5/USBUART_1_cdc.c **** 
  25:.\Generated_Source\PSoC5/USBUART_1_cdc.c **** /***************************************
  26:.\Generated_Source\PSoC5/USBUART_1_cdc.c **** *    CDC Variables
  27:.\Generated_Source\PSoC5/USBUART_1_cdc.c **** ***************************************/
  28:.\Generated_Source\PSoC5/USBUART_1_cdc.c **** 
  29:.\Generated_Source\PSoC5/USBUART_1_cdc.c **** volatile uint8 USBUART_1_lineCoding[USBUART_1_LINE_CODING_SIZE];
  30:.\Generated_Source\PSoC5/USBUART_1_cdc.c **** volatile uint8 USBUART_1_lineChanged;
  31:.\Generated_Source\PSoC5/USBUART_1_cdc.c **** volatile uint16 USBUART_1_lineControlBitmap;
ARM GAS  C:\Users\Luke\AppData\Local\Temp\ccJIvIRB.s 			page 2


  32:.\Generated_Source\PSoC5/USBUART_1_cdc.c **** volatile uint8 USBUART_1_cdc_data_in_ep;
  33:.\Generated_Source\PSoC5/USBUART_1_cdc.c **** volatile uint8 USBUART_1_cdc_data_out_ep;
  34:.\Generated_Source\PSoC5/USBUART_1_cdc.c **** 
  35:.\Generated_Source\PSoC5/USBUART_1_cdc.c **** 
  36:.\Generated_Source\PSoC5/USBUART_1_cdc.c **** /***************************************
  37:.\Generated_Source\PSoC5/USBUART_1_cdc.c **** *     Static Function Prototypes
  38:.\Generated_Source\PSoC5/USBUART_1_cdc.c **** ***************************************/
  39:.\Generated_Source\PSoC5/USBUART_1_cdc.c **** static uint16 USBUART_1_StrLen(const char8 string[]) ;
  40:.\Generated_Source\PSoC5/USBUART_1_cdc.c **** 
  41:.\Generated_Source\PSoC5/USBUART_1_cdc.c **** 
  42:.\Generated_Source\PSoC5/USBUART_1_cdc.c **** /***************************************
  43:.\Generated_Source\PSoC5/USBUART_1_cdc.c **** * Custom Declarations
  44:.\Generated_Source\PSoC5/USBUART_1_cdc.c **** ***************************************/
  45:.\Generated_Source\PSoC5/USBUART_1_cdc.c **** 
  46:.\Generated_Source\PSoC5/USBUART_1_cdc.c **** /* `#START CDC_CUSTOM_DECLARATIONS` Place your declaration here */
  47:.\Generated_Source\PSoC5/USBUART_1_cdc.c **** 
  48:.\Generated_Source\PSoC5/USBUART_1_cdc.c **** /* `#END` */
  49:.\Generated_Source\PSoC5/USBUART_1_cdc.c **** 
  50:.\Generated_Source\PSoC5/USBUART_1_cdc.c **** 
  51:.\Generated_Source\PSoC5/USBUART_1_cdc.c **** /*******************************************************************************
  52:.\Generated_Source\PSoC5/USBUART_1_cdc.c **** * Function Name: USBUART_1_DispatchCDCClassRqst
  53:.\Generated_Source\PSoC5/USBUART_1_cdc.c **** ********************************************************************************
  54:.\Generated_Source\PSoC5/USBUART_1_cdc.c **** *
  55:.\Generated_Source\PSoC5/USBUART_1_cdc.c **** * Summary:
  56:.\Generated_Source\PSoC5/USBUART_1_cdc.c **** *  This routine dispatches CDC class requests.
  57:.\Generated_Source\PSoC5/USBUART_1_cdc.c **** *
  58:.\Generated_Source\PSoC5/USBUART_1_cdc.c **** * Parameters:
  59:.\Generated_Source\PSoC5/USBUART_1_cdc.c **** *  None.
  60:.\Generated_Source\PSoC5/USBUART_1_cdc.c **** *
  61:.\Generated_Source\PSoC5/USBUART_1_cdc.c **** * Return:
  62:.\Generated_Source\PSoC5/USBUART_1_cdc.c **** *  requestHandled
  63:.\Generated_Source\PSoC5/USBUART_1_cdc.c **** *
  64:.\Generated_Source\PSoC5/USBUART_1_cdc.c **** * Global variables:
  65:.\Generated_Source\PSoC5/USBUART_1_cdc.c **** *   USBUART_1_lineCoding: Contains the current line coding structure.
  66:.\Generated_Source\PSoC5/USBUART_1_cdc.c **** *     It is set by the Host using SET_LINE_CODING request and returned to the
  67:.\Generated_Source\PSoC5/USBUART_1_cdc.c **** *     user code by the USBFS_GetDTERate(), USBFS_GetCharFormat(),
  68:.\Generated_Source\PSoC5/USBUART_1_cdc.c **** *     USBFS_GetParityType(), USBFS_GetDataBits() APIs.
  69:.\Generated_Source\PSoC5/USBUART_1_cdc.c **** *   USBUART_1_lineControlBitmap: Contains the current control signal
  70:.\Generated_Source\PSoC5/USBUART_1_cdc.c **** *     bitmap. It is set by the Host using SET_CONTROL_LINE request and returned
  71:.\Generated_Source\PSoC5/USBUART_1_cdc.c **** *     to the user code by the USBFS_GetLineControl() API.
  72:.\Generated_Source\PSoC5/USBUART_1_cdc.c **** *   USBUART_1_lineChanged: This variable is used as a flag for the
  73:.\Generated_Source\PSoC5/USBUART_1_cdc.c **** *     USBFS_IsLineChanged() API, to be aware that Host has been sent request
  74:.\Generated_Source\PSoC5/USBUART_1_cdc.c **** *     for changing Line Coding or Control Bitmap.
  75:.\Generated_Source\PSoC5/USBUART_1_cdc.c **** *
  76:.\Generated_Source\PSoC5/USBUART_1_cdc.c **** * Reentrant:
  77:.\Generated_Source\PSoC5/USBUART_1_cdc.c **** *  No.
  78:.\Generated_Source\PSoC5/USBUART_1_cdc.c **** *
  79:.\Generated_Source\PSoC5/USBUART_1_cdc.c **** *******************************************************************************/
  80:.\Generated_Source\PSoC5/USBUART_1_cdc.c **** uint8 USBUART_1_DispatchCDCClassRqst(void) 
  81:.\Generated_Source\PSoC5/USBUART_1_cdc.c **** {
  27              		.loc 1 81 0
  28              		.cfi_startproc
  29              		@ args = 0, pretend = 0, frame = 0
  30              		@ frame_needed = 0, uses_anonymous_args = 0
  31              		@ link register save eliminated.
  32              	.LVL0:
  82:.\Generated_Source\PSoC5/USBUART_1_cdc.c ****     uint8 requestHandled = USBUART_1_FALSE;
ARM GAS  C:\Users\Luke\AppData\Local\Temp\ccJIvIRB.s 			page 3


  83:.\Generated_Source\PSoC5/USBUART_1_cdc.c **** 
  84:.\Generated_Source\PSoC5/USBUART_1_cdc.c ****     if ((CY_GET_REG8(USBUART_1_bmRequestType) & USBUART_1_RQST_DIR_MASK) == USBUART_1_RQST_DIR_D2H)
  33              		.loc 1 84 0
  34 0000 184B     		ldr	r3, .L11
  35 0002 1A78     		ldrb	r2, [r3, #0]	@ zero_extendqisi2
  36 0004 1206     		lsls	r2, r2, #24
  37 0006 0AD5     		bpl	.L2
  85:.\Generated_Source\PSoC5/USBUART_1_cdc.c ****     {   /* Control Read */
  86:.\Generated_Source\PSoC5/USBUART_1_cdc.c ****         switch (CY_GET_REG8(USBUART_1_bRequest))
  38              		.loc 1 86 0
  39 0008 5A1C     		adds	r2, r3, #1
  40 000a 1078     		ldrb	r0, [r2, #0]	@ zero_extendqisi2
  41 000c 2128     		cmp	r0, #33
  42 000e 26D1     		bne	.L3
  87:.\Generated_Source\PSoC5/USBUART_1_cdc.c ****         {
  88:.\Generated_Source\PSoC5/USBUART_1_cdc.c ****             case USBUART_1_CDC_GET_LINE_CODING:
  89:.\Generated_Source\PSoC5/USBUART_1_cdc.c ****                 USBUART_1_currentTD.count = USBUART_1_LINE_CODING_SIZE;
  43              		.loc 1 89 0
  44 0010 1549     		ldr	r1, .L11+4
  90:.\Generated_Source\PSoC5/USBUART_1_cdc.c ****                 USBUART_1_currentTD.pData = USBUART_1_lineCoding;
  45              		.loc 1 90 0
  46 0012 164A     		ldr	r2, .L11+8
  89:.\Generated_Source\PSoC5/USBUART_1_cdc.c ****                 USBUART_1_currentTD.count = USBUART_1_LINE_CODING_SIZE;
  47              		.loc 1 89 0
  48 0014 0723     		movs	r3, #7
  49 0016 0B80     		strh	r3, [r1, #0]	@ movhi
  50              		.loc 1 90 0
  51 0018 4A60     		str	r2, [r1, #4]
  91:.\Generated_Source\PSoC5/USBUART_1_cdc.c ****                 requestHandled  = USBUART_1_InitControlRead();
  92:.\Generated_Source\PSoC5/USBUART_1_cdc.c ****                 break;
  93:.\Generated_Source\PSoC5/USBUART_1_cdc.c **** 
  94:.\Generated_Source\PSoC5/USBUART_1_cdc.c ****             /* `#START CDC_READ_REQUESTS` Place other request handler here */
  95:.\Generated_Source\PSoC5/USBUART_1_cdc.c **** 
  96:.\Generated_Source\PSoC5/USBUART_1_cdc.c ****             /* `#END` */
  97:.\Generated_Source\PSoC5/USBUART_1_cdc.c **** 
  98:.\Generated_Source\PSoC5/USBUART_1_cdc.c ****             default:    /* requestHandled is initialized as FALSE by default */
  99:.\Generated_Source\PSoC5/USBUART_1_cdc.c ****                 break;
 100:.\Generated_Source\PSoC5/USBUART_1_cdc.c ****         }
 101:.\Generated_Source\PSoC5/USBUART_1_cdc.c ****     }
 102:.\Generated_Source\PSoC5/USBUART_1_cdc.c ****     else if ((CY_GET_REG8(USBUART_1_bmRequestType) & USBUART_1_RQST_DIR_MASK) == \
 103:.\Generated_Source\PSoC5/USBUART_1_cdc.c ****                                                                             USBUART_1_RQST_DIR_H2D)
 104:.\Generated_Source\PSoC5/USBUART_1_cdc.c ****     {   /* Control Write */
 105:.\Generated_Source\PSoC5/USBUART_1_cdc.c ****         switch (CY_GET_REG8(USBUART_1_bRequest))
 106:.\Generated_Source\PSoC5/USBUART_1_cdc.c ****         {
 107:.\Generated_Source\PSoC5/USBUART_1_cdc.c ****             case USBUART_1_CDC_SET_LINE_CODING:
 108:.\Generated_Source\PSoC5/USBUART_1_cdc.c ****                 USBUART_1_currentTD.count = USBUART_1_LINE_CODING_SIZE;
 109:.\Generated_Source\PSoC5/USBUART_1_cdc.c ****                 USBUART_1_currentTD.pData = USBUART_1_lineCoding;
 110:.\Generated_Source\PSoC5/USBUART_1_cdc.c ****                 USBUART_1_lineChanged |= USBUART_1_LINE_CODING_CHANGED;
 111:.\Generated_Source\PSoC5/USBUART_1_cdc.c ****                 requestHandled = USBUART_1_InitControlWrite();
 112:.\Generated_Source\PSoC5/USBUART_1_cdc.c ****                 break;
 113:.\Generated_Source\PSoC5/USBUART_1_cdc.c **** 
 114:.\Generated_Source\PSoC5/USBUART_1_cdc.c ****             case USBUART_1_CDC_SET_CONTROL_LINE_STATE:
 115:.\Generated_Source\PSoC5/USBUART_1_cdc.c ****                 USBUART_1_lineControlBitmap = CY_GET_REG8(USBUART_1_wValueLo);
 116:.\Generated_Source\PSoC5/USBUART_1_cdc.c ****                 USBUART_1_lineChanged |= USBUART_1_LINE_CONTROL_CHANGED;
 117:.\Generated_Source\PSoC5/USBUART_1_cdc.c ****                 requestHandled = USBUART_1_InitNoDataControlTransfer();
 118:.\Generated_Source\PSoC5/USBUART_1_cdc.c ****                 break;
 119:.\Generated_Source\PSoC5/USBUART_1_cdc.c **** 
ARM GAS  C:\Users\Luke\AppData\Local\Temp\ccJIvIRB.s 			page 4


 120:.\Generated_Source\PSoC5/USBUART_1_cdc.c ****             /* `#START CDC_WRITE_REQUESTS` Place other request handler here */
 121:.\Generated_Source\PSoC5/USBUART_1_cdc.c **** 
 122:.\Generated_Source\PSoC5/USBUART_1_cdc.c ****             /* `#END` */
 123:.\Generated_Source\PSoC5/USBUART_1_cdc.c **** 
 124:.\Generated_Source\PSoC5/USBUART_1_cdc.c ****             default:    /* requestHandled is initialized as FALSE by default */
 125:.\Generated_Source\PSoC5/USBUART_1_cdc.c ****                 break;
 126:.\Generated_Source\PSoC5/USBUART_1_cdc.c ****         }
 127:.\Generated_Source\PSoC5/USBUART_1_cdc.c ****     }
 128:.\Generated_Source\PSoC5/USBUART_1_cdc.c ****     else
 129:.\Generated_Source\PSoC5/USBUART_1_cdc.c ****     {   /* requestHandled is initialized as FALSE by default */
 130:.\Generated_Source\PSoC5/USBUART_1_cdc.c ****     }
 131:.\Generated_Source\PSoC5/USBUART_1_cdc.c **** 
 132:.\Generated_Source\PSoC5/USBUART_1_cdc.c ****     return(requestHandled);
 133:.\Generated_Source\PSoC5/USBUART_1_cdc.c **** }
  52              		.loc 1 133 0
  91:.\Generated_Source\PSoC5/USBUART_1_cdc.c ****                 requestHandled  = USBUART_1_InitControlRead();
  53              		.loc 1 91 0
  54 001a FFF7FEBF 		b	USBUART_1_InitControlRead
  55              	.LVL1:
  56              	.L2:
 102:.\Generated_Source\PSoC5/USBUART_1_cdc.c ****     else if ((CY_GET_REG8(USBUART_1_bmRequestType) & USBUART_1_RQST_DIR_MASK) == \
  57              		.loc 1 102 0
  58 001e 1878     		ldrb	r0, [r3, #0]	@ zero_extendqisi2
  59 0020 0306     		lsls	r3, r0, #24
  60 0022 1CD4     		bmi	.L3
 105:.\Generated_Source\PSoC5/USBUART_1_cdc.c ****         switch (CY_GET_REG8(USBUART_1_bRequest))
  61              		.loc 1 105 0
  62 0024 1249     		ldr	r1, .L11+12
  63 0026 0B78     		ldrb	r3, [r1, #0]	@ zero_extendqisi2
  64 0028 202B     		cmp	r3, #32
  65 002a 0CD0     		beq	.L5
  66 002c 222B     		cmp	r3, #34
  67 002e 16D1     		bne	.L3
 115:.\Generated_Source\PSoC5/USBUART_1_cdc.c ****                 USBUART_1_lineControlBitmap = CY_GET_REG8(USBUART_1_wValueLo);
  68              		.loc 1 115 0
  69 0030 104A     		ldr	r2, .L11+16
  70 0032 1149     		ldr	r1, .L11+20
  71 0034 1078     		ldrb	r0, [r2, #0]	@ zero_extendqisi2
 116:.\Generated_Source\PSoC5/USBUART_1_cdc.c ****                 USBUART_1_lineChanged |= USBUART_1_LINE_CONTROL_CHANGED;
  72              		.loc 1 116 0
  73 0036 114B     		ldr	r3, .L11+24
 115:.\Generated_Source\PSoC5/USBUART_1_cdc.c ****                 USBUART_1_lineControlBitmap = CY_GET_REG8(USBUART_1_wValueLo);
  74              		.loc 1 115 0
  75 0038 0880     		strh	r0, [r1, #0]	@ movhi
 116:.\Generated_Source\PSoC5/USBUART_1_cdc.c ****                 USBUART_1_lineChanged |= USBUART_1_LINE_CONTROL_CHANGED;
  76              		.loc 1 116 0
  77 003a 1A78     		ldrb	r2, [r3, #0]	@ zero_extendqisi2
  78 003c 42F00200 		orr	r0, r2, #2
  79 0040 1870     		strb	r0, [r3, #0]
  80              		.loc 1 133 0
 117:.\Generated_Source\PSoC5/USBUART_1_cdc.c ****                 requestHandled = USBUART_1_InitNoDataControlTransfer();
  81              		.loc 1 117 0
  82 0042 FFF7FEBF 		b	USBUART_1_InitNoDataControlTransfer
  83              	.LVL2:
  84              	.L5:
 108:.\Generated_Source\PSoC5/USBUART_1_cdc.c ****                 USBUART_1_currentTD.count = USBUART_1_LINE_CODING_SIZE;
  85              		.loc 1 108 0
ARM GAS  C:\Users\Luke\AppData\Local\Temp\ccJIvIRB.s 			page 5


  86 0046 0849     		ldr	r1, .L11+4
 109:.\Generated_Source\PSoC5/USBUART_1_cdc.c ****                 USBUART_1_currentTD.pData = USBUART_1_lineCoding;
  87              		.loc 1 109 0
  88 0048 084A     		ldr	r2, .L11+8
 108:.\Generated_Source\PSoC5/USBUART_1_cdc.c ****                 USBUART_1_currentTD.count = USBUART_1_LINE_CODING_SIZE;
  89              		.loc 1 108 0
  90 004a 0723     		movs	r3, #7
 110:.\Generated_Source\PSoC5/USBUART_1_cdc.c ****                 USBUART_1_lineChanged |= USBUART_1_LINE_CODING_CHANGED;
  91              		.loc 1 110 0
  92 004c 0B48     		ldr	r0, .L11+24
 108:.\Generated_Source\PSoC5/USBUART_1_cdc.c ****                 USBUART_1_currentTD.count = USBUART_1_LINE_CODING_SIZE;
  93              		.loc 1 108 0
  94 004e 0B80     		strh	r3, [r1, #0]	@ movhi
 109:.\Generated_Source\PSoC5/USBUART_1_cdc.c ****                 USBUART_1_currentTD.pData = USBUART_1_lineCoding;
  95              		.loc 1 109 0
  96 0050 4A60     		str	r2, [r1, #4]
 110:.\Generated_Source\PSoC5/USBUART_1_cdc.c ****                 USBUART_1_lineChanged |= USBUART_1_LINE_CODING_CHANGED;
  97              		.loc 1 110 0
  98 0052 0178     		ldrb	r1, [r0, #0]	@ zero_extendqisi2
  99 0054 41F00103 		orr	r3, r1, #1
 100 0058 0370     		strb	r3, [r0, #0]
 101              		.loc 1 133 0
 111:.\Generated_Source\PSoC5/USBUART_1_cdc.c ****                 requestHandled = USBUART_1_InitControlWrite();
 102              		.loc 1 111 0
 103 005a FFF7FEBF 		b	USBUART_1_InitControlWrite
 104              	.LVL3:
 105              	.L3:
 106              		.loc 1 133 0
 107 005e 0020     		movs	r0, #0
 108 0060 7047     		bx	lr
 109              	.L12:
 110 0062 00BF     		.align	2
 111              	.L11:
 112 0064 00600040 		.word	1073766400
 113 0068 00000000 		.word	USBUART_1_currentTD
 114 006c 00000000 		.word	USBUART_1_lineCoding
 115 0070 01600040 		.word	1073766401
 116 0074 02600040 		.word	1073766402
 117 0078 00000000 		.word	USBUART_1_lineControlBitmap
 118 007c 00000000 		.word	USBUART_1_lineChanged
 119              		.cfi_endproc
 120              	.LFE0:
 121              		.size	USBUART_1_DispatchCDCClassRqst, .-USBUART_1_DispatchCDCClassRqst
 122              		.section	.text.USBUART_1_CDC_Init,"ax",%progbits
 123              		.align	1
 124              		.global	USBUART_1_CDC_Init
 125              		.thumb
 126              		.thumb_func
 127              		.type	USBUART_1_CDC_Init, %function
 128              	USBUART_1_CDC_Init:
 129              	.LFB1:
 134:.\Generated_Source\PSoC5/USBUART_1_cdc.c **** 
 135:.\Generated_Source\PSoC5/USBUART_1_cdc.c **** 
 136:.\Generated_Source\PSoC5/USBUART_1_cdc.c **** /***************************************
 137:.\Generated_Source\PSoC5/USBUART_1_cdc.c **** * Optional CDC APIs
 138:.\Generated_Source\PSoC5/USBUART_1_cdc.c **** ***************************************/
 139:.\Generated_Source\PSoC5/USBUART_1_cdc.c **** #if (USBUART_1_ENABLE_CDC_CLASS_API != 0u)
ARM GAS  C:\Users\Luke\AppData\Local\Temp\ccJIvIRB.s 			page 6


 140:.\Generated_Source\PSoC5/USBUART_1_cdc.c **** 
 141:.\Generated_Source\PSoC5/USBUART_1_cdc.c **** 
 142:.\Generated_Source\PSoC5/USBUART_1_cdc.c ****     /*******************************************************************************
 143:.\Generated_Source\PSoC5/USBUART_1_cdc.c ****     * Function Name: USBUART_1_CDC_Init
 144:.\Generated_Source\PSoC5/USBUART_1_cdc.c ****     ********************************************************************************
 145:.\Generated_Source\PSoC5/USBUART_1_cdc.c ****     *
 146:.\Generated_Source\PSoC5/USBUART_1_cdc.c ****     * Summary:
 147:.\Generated_Source\PSoC5/USBUART_1_cdc.c ****     *  This function initialize the CDC interface to be ready for the receive data
 148:.\Generated_Source\PSoC5/USBUART_1_cdc.c ****     *  from the PC.
 149:.\Generated_Source\PSoC5/USBUART_1_cdc.c ****     *
 150:.\Generated_Source\PSoC5/USBUART_1_cdc.c ****     * Parameters:
 151:.\Generated_Source\PSoC5/USBUART_1_cdc.c ****     *  None.
 152:.\Generated_Source\PSoC5/USBUART_1_cdc.c ****     *
 153:.\Generated_Source\PSoC5/USBUART_1_cdc.c ****     * Return:
 154:.\Generated_Source\PSoC5/USBUART_1_cdc.c ****     *  None.
 155:.\Generated_Source\PSoC5/USBUART_1_cdc.c ****     *
 156:.\Generated_Source\PSoC5/USBUART_1_cdc.c ****     * Global variables:
 157:.\Generated_Source\PSoC5/USBUART_1_cdc.c ****     *   USBUART_1_lineChanged: Initialized to zero.
 158:.\Generated_Source\PSoC5/USBUART_1_cdc.c ****     *   USBUART_1_cdc_data_out_ep: Used as an OUT endpoint number.
 159:.\Generated_Source\PSoC5/USBUART_1_cdc.c ****     *
 160:.\Generated_Source\PSoC5/USBUART_1_cdc.c ****     * Reentrant:
 161:.\Generated_Source\PSoC5/USBUART_1_cdc.c ****     *  No.
 162:.\Generated_Source\PSoC5/USBUART_1_cdc.c ****     *
 163:.\Generated_Source\PSoC5/USBUART_1_cdc.c ****     *******************************************************************************/
 164:.\Generated_Source\PSoC5/USBUART_1_cdc.c ****     void USBUART_1_CDC_Init(void) 
 165:.\Generated_Source\PSoC5/USBUART_1_cdc.c ****     {
 130              		.loc 1 165 0
 131              		.cfi_startproc
 132              		@ args = 0, pretend = 0, frame = 0
 133              		@ frame_needed = 0, uses_anonymous_args = 0
 134              		@ link register save eliminated.
 166:.\Generated_Source\PSoC5/USBUART_1_cdc.c ****         USBUART_1_lineChanged = 0u;
 135              		.loc 1 166 0
 136 0000 034B     		ldr	r3, .L14
 137 0002 0022     		movs	r2, #0
 167:.\Generated_Source\PSoC5/USBUART_1_cdc.c ****         USBUART_1_EnableOutEP(USBUART_1_cdc_data_out_ep);
 138              		.loc 1 167 0
 139 0004 0348     		ldr	r0, .L14+4
 166:.\Generated_Source\PSoC5/USBUART_1_cdc.c ****         USBUART_1_lineChanged = 0u;
 140              		.loc 1 166 0
 141 0006 1A70     		strb	r2, [r3, #0]
 142              		.loc 1 167 0
 143 0008 0078     		ldrb	r0, [r0, #0]	@ zero_extendqisi2
 168:.\Generated_Source\PSoC5/USBUART_1_cdc.c ****     }
 144              		.loc 1 168 0
 167:.\Generated_Source\PSoC5/USBUART_1_cdc.c ****         USBUART_1_EnableOutEP(USBUART_1_cdc_data_out_ep);
 145              		.loc 1 167 0
 146 000a FFF7FEBF 		b	USBUART_1_EnableOutEP
 147              	.LVL4:
 148              	.L15:
 149 000e 00BF     		.align	2
 150              	.L14:
 151 0010 00000000 		.word	USBUART_1_lineChanged
 152 0014 00000000 		.word	USBUART_1_cdc_data_out_ep
 153              		.cfi_endproc
 154              	.LFE1:
 155              		.size	USBUART_1_CDC_Init, .-USBUART_1_CDC_Init
ARM GAS  C:\Users\Luke\AppData\Local\Temp\ccJIvIRB.s 			page 7


 156              		.section	.text.USBUART_1_PutData,"ax",%progbits
 157              		.align	1
 158              		.global	USBUART_1_PutData
 159              		.thumb
 160              		.thumb_func
 161              		.type	USBUART_1_PutData, %function
 162              	USBUART_1_PutData:
 163              	.LFB2:
 169:.\Generated_Source\PSoC5/USBUART_1_cdc.c **** 
 170:.\Generated_Source\PSoC5/USBUART_1_cdc.c **** 
 171:.\Generated_Source\PSoC5/USBUART_1_cdc.c ****     /*******************************************************************************
 172:.\Generated_Source\PSoC5/USBUART_1_cdc.c ****     * Function Name: USBUART_1_PutData
 173:.\Generated_Source\PSoC5/USBUART_1_cdc.c ****     ********************************************************************************
 174:.\Generated_Source\PSoC5/USBUART_1_cdc.c ****     *
 175:.\Generated_Source\PSoC5/USBUART_1_cdc.c ****     * Summary:
 176:.\Generated_Source\PSoC5/USBUART_1_cdc.c ****     *  Sends a specified number of bytes from the location specified by a
 177:.\Generated_Source\PSoC5/USBUART_1_cdc.c ****     *  pointer to the PC.
 178:.\Generated_Source\PSoC5/USBUART_1_cdc.c ****     *
 179:.\Generated_Source\PSoC5/USBUART_1_cdc.c ****     * Parameters:
 180:.\Generated_Source\PSoC5/USBUART_1_cdc.c ****     *  pData: pointer to the buffer containing data to be sent.
 181:.\Generated_Source\PSoC5/USBUART_1_cdc.c ****     *  length: Specifies the number of bytes to send from the pData
 182:.\Generated_Source\PSoC5/USBUART_1_cdc.c ****     *  buffer. Maximum length will be limited by the maximum packet
 183:.\Generated_Source\PSoC5/USBUART_1_cdc.c ****     *  size for the endpoint.
 184:.\Generated_Source\PSoC5/USBUART_1_cdc.c ****     *
 185:.\Generated_Source\PSoC5/USBUART_1_cdc.c ****     * Return:
 186:.\Generated_Source\PSoC5/USBUART_1_cdc.c ****     *  None.
 187:.\Generated_Source\PSoC5/USBUART_1_cdc.c ****     *
 188:.\Generated_Source\PSoC5/USBUART_1_cdc.c ****     * Global variables:
 189:.\Generated_Source\PSoC5/USBUART_1_cdc.c ****     *   USBUART_1_cdc_data_in_ep: CDC IN endpoint number used for sending
 190:.\Generated_Source\PSoC5/USBUART_1_cdc.c ****     *     data.
 191:.\Generated_Source\PSoC5/USBUART_1_cdc.c ****     *
 192:.\Generated_Source\PSoC5/USBUART_1_cdc.c ****     * Reentrant:
 193:.\Generated_Source\PSoC5/USBUART_1_cdc.c ****     *  No.
 194:.\Generated_Source\PSoC5/USBUART_1_cdc.c ****     *
 195:.\Generated_Source\PSoC5/USBUART_1_cdc.c ****     *******************************************************************************/
 196:.\Generated_Source\PSoC5/USBUART_1_cdc.c ****     void USBUART_1_PutData(const uint8* pData, uint16 length) 
 197:.\Generated_Source\PSoC5/USBUART_1_cdc.c ****     {
 164              		.loc 1 197 0
 165              		.cfi_startproc
 166              		@ args = 0, pretend = 0, frame = 0
 167              		@ frame_needed = 0, uses_anonymous_args = 0
 168              	.LVL5:
 169 0000 70B5     		push	{r4, r5, r6, lr}
 170              	.LCFI0:
 171              		.cfi_def_cfa_offset 16
 172              		.cfi_offset 4, -16
 173              		.cfi_offset 5, -12
 174              		.cfi_offset 6, -8
 175              		.cfi_offset 14, -4
 198:.\Generated_Source\PSoC5/USBUART_1_cdc.c ****         /* Limits length to maximum packet size for the EP */
 199:.\Generated_Source\PSoC5/USBUART_1_cdc.c ****         if(length > USBUART_1_EP[USBUART_1_cdc_data_in_ep].bufferSize)
 176              		.loc 1 199 0
 177 0002 0B4B     		ldr	r3, .L18
 197:.\Generated_Source\PSoC5/USBUART_1_cdc.c ****     {
 178              		.loc 1 197 0
 179 0004 0A46     		mov	r2, r1
 180              		.loc 1 199 0
ARM GAS  C:\Users\Luke\AppData\Local\Temp\ccJIvIRB.s 			page 8


 181 0006 0B4C     		ldr	r4, .L18+4
 182 0008 1978     		ldrb	r1, [r3, #0]	@ zero_extendqisi2
 183              	.LVL6:
 184 000a 0C25     		movs	r5, #12
 197:.\Generated_Source\PSoC5/USBUART_1_cdc.c ****     {
 185              		.loc 1 197 0
 186 000c 0646     		mov	r6, r0
 187              		.loc 1 199 0
 188 000e 05FB0140 		mla	r0, r5, r1, r4
 189              	.LVL7:
 190 0012 0189     		ldrh	r1, [r0, #8]
 191 0014 88B2     		uxth	r0, r1
 192 0016 8242     		cmp	r2, r0
 193 0018 04D9     		bls	.L17
 200:.\Generated_Source\PSoC5/USBUART_1_cdc.c ****         {
 201:.\Generated_Source\PSoC5/USBUART_1_cdc.c ****             /* Caution: Data will be lost if length is greater than Max Packet Length */
 202:.\Generated_Source\PSoC5/USBUART_1_cdc.c ****             length = USBUART_1_EP[USBUART_1_cdc_data_in_ep].bufferSize;
 194              		.loc 1 202 0
 195 001a 1A78     		ldrb	r2, [r3, #0]	@ zero_extendqisi2
 196 001c 05FB0244 		mla	r4, r5, r2, r4
 197 0020 2189     		ldrh	r1, [r4, #8]
 198 0022 8AB2     		uxth	r2, r1
 199              	.LVL8:
 200              	.L17:
 203:.\Generated_Source\PSoC5/USBUART_1_cdc.c ****              /* Halt CPU in debug mode */
 204:.\Generated_Source\PSoC5/USBUART_1_cdc.c ****             CYASSERT(0u != 0u);
 205:.\Generated_Source\PSoC5/USBUART_1_cdc.c ****         }
 206:.\Generated_Source\PSoC5/USBUART_1_cdc.c ****         USBUART_1_LoadInEP(USBUART_1_cdc_data_in_ep, pData, length);
 201              		.loc 1 206 0
 202 0024 1878     		ldrb	r0, [r3, #0]	@ zero_extendqisi2
 203 0026 3146     		mov	r1, r6
 207:.\Generated_Source\PSoC5/USBUART_1_cdc.c ****     }
 204              		.loc 1 207 0
 205 0028 BDE87040 		pop	{r4, r5, r6, lr}
 206:.\Generated_Source\PSoC5/USBUART_1_cdc.c ****         USBUART_1_LoadInEP(USBUART_1_cdc_data_in_ep, pData, length);
 206              		.loc 1 206 0
 207 002c FFF7FEBF 		b	USBUART_1_LoadInEP
 208              	.LVL9:
 209              	.L19:
 210              		.align	2
 211              	.L18:
 212 0030 00000000 		.word	USBUART_1_cdc_data_in_ep
 213 0034 00000000 		.word	USBUART_1_EP
 214              		.cfi_endproc
 215              	.LFE2:
 216              		.size	USBUART_1_PutData, .-USBUART_1_PutData
 217              		.section	.text.USBUART_1_PutString,"ax",%progbits
 218              		.align	1
 219              		.global	USBUART_1_PutString
 220              		.thumb
 221              		.thumb_func
 222              		.type	USBUART_1_PutString, %function
 223              	USBUART_1_PutString:
 224              	.LFB4:
 208:.\Generated_Source\PSoC5/USBUART_1_cdc.c **** 
 209:.\Generated_Source\PSoC5/USBUART_1_cdc.c **** 
 210:.\Generated_Source\PSoC5/USBUART_1_cdc.c ****     /*******************************************************************************
ARM GAS  C:\Users\Luke\AppData\Local\Temp\ccJIvIRB.s 			page 9


 211:.\Generated_Source\PSoC5/USBUART_1_cdc.c ****     * Function Name: USBUART_1_StrLen
 212:.\Generated_Source\PSoC5/USBUART_1_cdc.c ****     ********************************************************************************
 213:.\Generated_Source\PSoC5/USBUART_1_cdc.c ****     *
 214:.\Generated_Source\PSoC5/USBUART_1_cdc.c ****     * Summary:
 215:.\Generated_Source\PSoC5/USBUART_1_cdc.c ****     *  Calculates length of a null terminated string.
 216:.\Generated_Source\PSoC5/USBUART_1_cdc.c ****     *
 217:.\Generated_Source\PSoC5/USBUART_1_cdc.c ****     * Parameters:
 218:.\Generated_Source\PSoC5/USBUART_1_cdc.c ****     *  string: pointer to the string.
 219:.\Generated_Source\PSoC5/USBUART_1_cdc.c ****     *
 220:.\Generated_Source\PSoC5/USBUART_1_cdc.c ****     * Return:
 221:.\Generated_Source\PSoC5/USBUART_1_cdc.c ****     *  Length of the string
 222:.\Generated_Source\PSoC5/USBUART_1_cdc.c ****     *
 223:.\Generated_Source\PSoC5/USBUART_1_cdc.c ****     *******************************************************************************/
 224:.\Generated_Source\PSoC5/USBUART_1_cdc.c ****     static uint16 USBUART_1_StrLen(const char8 string[]) 
 225:.\Generated_Source\PSoC5/USBUART_1_cdc.c ****     {
 226:.\Generated_Source\PSoC5/USBUART_1_cdc.c ****         uint16 len = 0u;
 227:.\Generated_Source\PSoC5/USBUART_1_cdc.c **** 
 228:.\Generated_Source\PSoC5/USBUART_1_cdc.c ****         while (string[len] != (char8)0)
 229:.\Generated_Source\PSoC5/USBUART_1_cdc.c ****         {
 230:.\Generated_Source\PSoC5/USBUART_1_cdc.c ****             len++;
 231:.\Generated_Source\PSoC5/USBUART_1_cdc.c ****         }
 232:.\Generated_Source\PSoC5/USBUART_1_cdc.c **** 
 233:.\Generated_Source\PSoC5/USBUART_1_cdc.c ****         return (len);
 234:.\Generated_Source\PSoC5/USBUART_1_cdc.c ****     }
 235:.\Generated_Source\PSoC5/USBUART_1_cdc.c **** 
 236:.\Generated_Source\PSoC5/USBUART_1_cdc.c **** 
 237:.\Generated_Source\PSoC5/USBUART_1_cdc.c ****     /*******************************************************************************
 238:.\Generated_Source\PSoC5/USBUART_1_cdc.c ****     * Function Name: USBUART_1_PutString
 239:.\Generated_Source\PSoC5/USBUART_1_cdc.c ****     ********************************************************************************
 240:.\Generated_Source\PSoC5/USBUART_1_cdc.c ****     *
 241:.\Generated_Source\PSoC5/USBUART_1_cdc.c ****     * Summary:
 242:.\Generated_Source\PSoC5/USBUART_1_cdc.c ****     *  Sends a null terminated string to the PC.
 243:.\Generated_Source\PSoC5/USBUART_1_cdc.c ****     *
 244:.\Generated_Source\PSoC5/USBUART_1_cdc.c ****     * Parameters:
 245:.\Generated_Source\PSoC5/USBUART_1_cdc.c ****     *  string: pointer to the string to be sent to the PC
 246:.\Generated_Source\PSoC5/USBUART_1_cdc.c ****     *
 247:.\Generated_Source\PSoC5/USBUART_1_cdc.c ****     * Return:
 248:.\Generated_Source\PSoC5/USBUART_1_cdc.c ****     *  None.
 249:.\Generated_Source\PSoC5/USBUART_1_cdc.c ****     *
 250:.\Generated_Source\PSoC5/USBUART_1_cdc.c ****     * Global variables:
 251:.\Generated_Source\PSoC5/USBUART_1_cdc.c ****     *   USBUART_1_cdc_data_in_ep: CDC IN endpoint number used for sending
 252:.\Generated_Source\PSoC5/USBUART_1_cdc.c ****     *     data.
 253:.\Generated_Source\PSoC5/USBUART_1_cdc.c ****     *
 254:.\Generated_Source\PSoC5/USBUART_1_cdc.c ****     * Reentrant:
 255:.\Generated_Source\PSoC5/USBUART_1_cdc.c ****     *  No.
 256:.\Generated_Source\PSoC5/USBUART_1_cdc.c ****     *
 257:.\Generated_Source\PSoC5/USBUART_1_cdc.c ****     * Theory:
 258:.\Generated_Source\PSoC5/USBUART_1_cdc.c ****     *  This function will block if there is not enough memory to place the whole
 259:.\Generated_Source\PSoC5/USBUART_1_cdc.c ****     *  string, it will block until the entire string has been written to the
 260:.\Generated_Source\PSoC5/USBUART_1_cdc.c ****     *  transmit buffer.
 261:.\Generated_Source\PSoC5/USBUART_1_cdc.c ****     *
 262:.\Generated_Source\PSoC5/USBUART_1_cdc.c ****     *******************************************************************************/
 263:.\Generated_Source\PSoC5/USBUART_1_cdc.c ****     void USBUART_1_PutString(const char8 string[]) 
 264:.\Generated_Source\PSoC5/USBUART_1_cdc.c ****     {
 225              		.loc 1 264 0
 226              		.cfi_startproc
 227              		@ args = 0, pretend = 0, frame = 0
ARM GAS  C:\Users\Luke\AppData\Local\Temp\ccJIvIRB.s 			page 10


 228              		@ frame_needed = 0, uses_anonymous_args = 0
 229              	.LVL10:
 230 0000 F8B5     		push	{r3, r4, r5, r6, r7, lr}
 231              	.LCFI1:
 232              		.cfi_def_cfa_offset 24
 233              		.cfi_offset 3, -24
 234              		.cfi_offset 4, -20
 235              		.cfi_offset 5, -16
 236              		.cfi_offset 6, -12
 237              		.cfi_offset 7, -8
 238              		.cfi_offset 14, -4
 239              		.loc 1 264 0
 240 0002 0746     		mov	r7, r0
 241              	.LVL11:
 226:.\Generated_Source\PSoC5/USBUART_1_cdc.c ****         uint16 len = 0u;
 242              		.loc 1 226 0
 243 0004 0024     		movs	r4, #0
 244              	.LVL12:
 245              	.L21:
 246              	.LBB4:
 247              	.LBB5:
 228:.\Generated_Source\PSoC5/USBUART_1_cdc.c ****         while (string[len] != (char8)0)
 248              		.loc 1 228 0
 249 0006 3E5D     		ldrb	r6, [r7, r4]	@ zero_extendqisi2
 250 0008 BEB1     		cbz	r6, .L26
 251              	.L22:
 230:.\Generated_Source\PSoC5/USBUART_1_cdc.c ****             len++;
 252              		.loc 1 230 0
 253 000a 0134     		adds	r4, r4, #1
 254              	.LVL13:
 255 000c A4B2     		uxth	r4, r4
 256              	.LVL14:
 257 000e FAE7     		b	.L21
 258              	.LVL15:
 259              	.L27:
 260              	.LBE5:
 261              	.LBE4:
 265:.\Generated_Source\PSoC5/USBUART_1_cdc.c ****         uint16 str_length;
 266:.\Generated_Source\PSoC5/USBUART_1_cdc.c ****         uint16 send_length;
 267:.\Generated_Source\PSoC5/USBUART_1_cdc.c ****         uint16 buf_index = 0u;
 268:.\Generated_Source\PSoC5/USBUART_1_cdc.c **** 
 269:.\Generated_Source\PSoC5/USBUART_1_cdc.c ****         /* Get length of the null terminated string */
 270:.\Generated_Source\PSoC5/USBUART_1_cdc.c ****         str_length = USBUART_1_StrLen(string);
 271:.\Generated_Source\PSoC5/USBUART_1_cdc.c ****         do
 272:.\Generated_Source\PSoC5/USBUART_1_cdc.c ****         {
 273:.\Generated_Source\PSoC5/USBUART_1_cdc.c ****             /* Limits length to maximum packet size for the EP */
 274:.\Generated_Source\PSoC5/USBUART_1_cdc.c ****             send_length = (str_length > USBUART_1_EP[USBUART_1_cdc_data_in_ep].bufferSize) ?
 262              		.loc 1 274 0
 263 0010 2546     		mov	r5, r4
 264              	.L23:
 265              	.LVL16:
 275:.\Generated_Source\PSoC5/USBUART_1_cdc.c ****                           USBUART_1_EP[USBUART_1_cdc_data_in_ep].bufferSize : str_length;
 276:.\Generated_Source\PSoC5/USBUART_1_cdc.c ****              /* Enable IN transfer */
 277:.\Generated_Source\PSoC5/USBUART_1_cdc.c ****             USBUART_1_LoadInEP(USBUART_1_cdc_data_in_ep, (const uint8 *)&string[buf_index], send_le
 266              		.loc 1 277 0 discriminator 2
 267 0012 1248     		ldr	r0, .L32
 278:.\Generated_Source\PSoC5/USBUART_1_cdc.c ****             str_length -= send_length;
ARM GAS  C:\Users\Luke\AppData\Local\Temp\ccJIvIRB.s 			page 11


 268              		.loc 1 278 0 discriminator 2
 269 0014 641B     		subs	r4, r4, r5
 270              	.LVL17:
 277:.\Generated_Source\PSoC5/USBUART_1_cdc.c ****             USBUART_1_LoadInEP(USBUART_1_cdc_data_in_ep, (const uint8 *)&string[buf_index], send_le
 271              		.loc 1 277 0 discriminator 2
 272 0016 0078     		ldrb	r0, [r0, #0]	@ zero_extendqisi2
 273 0018 B919     		adds	r1, r7, r6
 274 001a 2A46     		mov	r2, r5
 275              		.loc 1 278 0 discriminator 2
 276 001c A4B2     		uxth	r4, r4
 277:.\Generated_Source\PSoC5/USBUART_1_cdc.c ****             USBUART_1_LoadInEP(USBUART_1_cdc_data_in_ep, (const uint8 *)&string[buf_index], send_le
 277              		.loc 1 277 0 discriminator 2
 278 001e FFF7FEFF 		bl	USBUART_1_LoadInEP
 279              	.LVL18:
 279:.\Generated_Source\PSoC5/USBUART_1_cdc.c **** 
 280:.\Generated_Source\PSoC5/USBUART_1_cdc.c ****             /* If more data are present to send */
 281:.\Generated_Source\PSoC5/USBUART_1_cdc.c ****             if(str_length > 0u)
 280              		.loc 1 281 0 discriminator 2
 281 0022 D4B1     		cbz	r4, .L20
 282:.\Generated_Source\PSoC5/USBUART_1_cdc.c ****             {
 283:.\Generated_Source\PSoC5/USBUART_1_cdc.c ****                 buf_index += send_length;
 282              		.loc 1 283 0
 283 0024 AE19     		adds	r6, r5, r6
 284              	.LVL19:
 285 0026 B6B2     		uxth	r6, r6
 286              	.LVL20:
 287              	.L25:
 284:.\Generated_Source\PSoC5/USBUART_1_cdc.c ****                 /* Wait for the Host to read it. */
 285:.\Generated_Source\PSoC5/USBUART_1_cdc.c ****                 while(USBUART_1_EP[USBUART_1_cdc_data_in_ep].apiEpState ==
 288              		.loc 1 285 0 discriminator 1
 289 0028 0C4D     		ldr	r5, .L32
 290 002a 0D4A     		ldr	r2, .L32+4
 291 002c 2B78     		ldrb	r3, [r5, #0]	@ zero_extendqisi2
 292 002e 0C21     		movs	r1, #12
 293 0030 01FB0320 		mla	r0, r1, r3, r2
 294 0034 4578     		ldrb	r5, [r0, #1]	@ zero_extendqisi2
 295 0036 002D     		cmp	r5, #0
 296 0038 F6D0     		beq	.L25
 297              	.LVL21:
 298              	.L26:
 274:.\Generated_Source\PSoC5/USBUART_1_cdc.c ****             send_length = (str_length > USBUART_1_EP[USBUART_1_cdc_data_in_ep].bufferSize) ?
 299              		.loc 1 274 0
 300 003a 0849     		ldr	r1, .L32
 301 003c 084B     		ldr	r3, .L32+4
 302 003e 0878     		ldrb	r0, [r1, #0]	@ zero_extendqisi2
 303 0040 0C22     		movs	r2, #12
 304 0042 02FB0035 		mla	r5, r2, r0, r3
 305 0046 2889     		ldrh	r0, [r5, #8]
 306 0048 85B2     		uxth	r5, r0
 307 004a AC42     		cmp	r4, r5
 308 004c E0D9     		bls	.L27
 275:.\Generated_Source\PSoC5/USBUART_1_cdc.c ****                           USBUART_1_EP[USBUART_1_cdc_data_in_ep].bufferSize : str_length;
 309              		.loc 1 275 0
 310 004e 0978     		ldrb	r1, [r1, #0]	@ zero_extendqisi2
 274:.\Generated_Source\PSoC5/USBUART_1_cdc.c ****             send_length = (str_length > USBUART_1_EP[USBUART_1_cdc_data_in_ep].bufferSize) ?
 311              		.loc 1 274 0
 312 0050 02FB0133 		mla	r3, r2, r1, r3
ARM GAS  C:\Users\Luke\AppData\Local\Temp\ccJIvIRB.s 			page 12


 313 0054 1A89     		ldrh	r2, [r3, #8]
 314 0056 95B2     		uxth	r5, r2
 315 0058 DBE7     		b	.L23
 316              	.LVL22:
 317              	.L20:
 318 005a F8BD     		pop	{r3, r4, r5, r6, r7, pc}
 319              	.L33:
 320              		.align	2
 321              	.L32:
 322 005c 00000000 		.word	USBUART_1_cdc_data_in_ep
 323 0060 00000000 		.word	USBUART_1_EP
 324              		.cfi_endproc
 325              	.LFE4:
 326              		.size	USBUART_1_PutString, .-USBUART_1_PutString
 327              		.section	.text.USBUART_1_PutChar,"ax",%progbits
 328              		.align	1
 329              		.global	USBUART_1_PutChar
 330              		.thumb
 331              		.thumb_func
 332              		.type	USBUART_1_PutChar, %function
 333              	USBUART_1_PutChar:
 334              	.LFB5:
 286:.\Generated_Source\PSoC5/USBUART_1_cdc.c ****                                           USBUART_1_IN_BUFFER_FULL)
 287:.\Generated_Source\PSoC5/USBUART_1_cdc.c ****                 {
 288:.\Generated_Source\PSoC5/USBUART_1_cdc.c ****                     ;
 289:.\Generated_Source\PSoC5/USBUART_1_cdc.c ****                 }
 290:.\Generated_Source\PSoC5/USBUART_1_cdc.c ****             }
 291:.\Generated_Source\PSoC5/USBUART_1_cdc.c ****         }while(str_length > 0u);
 292:.\Generated_Source\PSoC5/USBUART_1_cdc.c ****     }
 293:.\Generated_Source\PSoC5/USBUART_1_cdc.c **** 
 294:.\Generated_Source\PSoC5/USBUART_1_cdc.c **** 
 295:.\Generated_Source\PSoC5/USBUART_1_cdc.c ****     /*******************************************************************************
 296:.\Generated_Source\PSoC5/USBUART_1_cdc.c ****     * Function Name: USBUART_1_PutChar
 297:.\Generated_Source\PSoC5/USBUART_1_cdc.c ****     ********************************************************************************
 298:.\Generated_Source\PSoC5/USBUART_1_cdc.c ****     *
 299:.\Generated_Source\PSoC5/USBUART_1_cdc.c ****     * Summary:
 300:.\Generated_Source\PSoC5/USBUART_1_cdc.c ****     *  Writes a single character to the PC.
 301:.\Generated_Source\PSoC5/USBUART_1_cdc.c ****     *
 302:.\Generated_Source\PSoC5/USBUART_1_cdc.c ****     * Parameters:
 303:.\Generated_Source\PSoC5/USBUART_1_cdc.c ****     *  txDataByte: Character to be sent to the PC.
 304:.\Generated_Source\PSoC5/USBUART_1_cdc.c ****     *
 305:.\Generated_Source\PSoC5/USBUART_1_cdc.c ****     * Return:
 306:.\Generated_Source\PSoC5/USBUART_1_cdc.c ****     *  None.
 307:.\Generated_Source\PSoC5/USBUART_1_cdc.c ****     *
 308:.\Generated_Source\PSoC5/USBUART_1_cdc.c ****     * Global variables:
 309:.\Generated_Source\PSoC5/USBUART_1_cdc.c ****     *   USBUART_1_cdc_data_in_ep: CDC IN endpoint number used for sending
 310:.\Generated_Source\PSoC5/USBUART_1_cdc.c ****     *     data.
 311:.\Generated_Source\PSoC5/USBUART_1_cdc.c ****     *
 312:.\Generated_Source\PSoC5/USBUART_1_cdc.c ****     * Reentrant:
 313:.\Generated_Source\PSoC5/USBUART_1_cdc.c ****     *  No.
 314:.\Generated_Source\PSoC5/USBUART_1_cdc.c ****     *
 315:.\Generated_Source\PSoC5/USBUART_1_cdc.c ****     *******************************************************************************/
 316:.\Generated_Source\PSoC5/USBUART_1_cdc.c ****     void USBUART_1_PutChar(char8 txDataByte) 
 317:.\Generated_Source\PSoC5/USBUART_1_cdc.c ****     {
 335              		.loc 1 317 0
 336              		.cfi_startproc
 337              		@ args = 0, pretend = 0, frame = 8
ARM GAS  C:\Users\Luke\AppData\Local\Temp\ccJIvIRB.s 			page 13


 338              		@ frame_needed = 0, uses_anonymous_args = 0
 339              	.LVL23:
 340 0000 07B5     		push	{r0, r1, r2, lr}
 341              	.LCFI2:
 342              		.cfi_def_cfa_offset 16
 343              		.cfi_offset 0, -16
 344              		.cfi_offset 1, -12
 345              		.cfi_offset 2, -8
 346              		.cfi_offset 14, -4
 318:.\Generated_Source\PSoC5/USBUART_1_cdc.c ****         uint8 dataByte;
 319:.\Generated_Source\PSoC5/USBUART_1_cdc.c ****         dataByte = (uint8)txDataByte;
 320:.\Generated_Source\PSoC5/USBUART_1_cdc.c **** 
 321:.\Generated_Source\PSoC5/USBUART_1_cdc.c ****         USBUART_1_LoadInEP(USBUART_1_cdc_data_in_ep, &dataByte, 1u);
 347              		.loc 1 321 0
 348 0002 044B     		ldr	r3, .L35
 319:.\Generated_Source\PSoC5/USBUART_1_cdc.c ****         dataByte = (uint8)txDataByte;
 349              		.loc 1 319 0
 350 0004 02A9     		add	r1, sp, #8
 351 0006 01F8010D 		strb	r0, [r1, #-1]!
 352              	.LVL24:
 353              		.loc 1 321 0
 354 000a 0122     		movs	r2, #1
 355 000c 1878     		ldrb	r0, [r3, #0]	@ zero_extendqisi2
 356              	.LVL25:
 357 000e FFF7FEFF 		bl	USBUART_1_LoadInEP
 358              	.LVL26:
 322:.\Generated_Source\PSoC5/USBUART_1_cdc.c ****     }
 359              		.loc 1 322 0
 360 0012 0EBD     		pop	{r1, r2, r3, pc}
 361              	.L36:
 362              		.align	2
 363              	.L35:
 364 0014 00000000 		.word	USBUART_1_cdc_data_in_ep
 365              		.cfi_endproc
 366              	.LFE5:
 367              		.size	USBUART_1_PutChar, .-USBUART_1_PutChar
 368              		.section	.text.USBUART_1_PutCRLF,"ax",%progbits
 369              		.align	1
 370              		.global	USBUART_1_PutCRLF
 371              		.thumb
 372              		.thumb_func
 373              		.type	USBUART_1_PutCRLF, %function
 374              	USBUART_1_PutCRLF:
 375              	.LFB6:
 323:.\Generated_Source\PSoC5/USBUART_1_cdc.c **** 
 324:.\Generated_Source\PSoC5/USBUART_1_cdc.c **** 
 325:.\Generated_Source\PSoC5/USBUART_1_cdc.c ****     /*******************************************************************************
 326:.\Generated_Source\PSoC5/USBUART_1_cdc.c ****     * Function Name: USBUART_1_PutCRLF
 327:.\Generated_Source\PSoC5/USBUART_1_cdc.c ****     ********************************************************************************
 328:.\Generated_Source\PSoC5/USBUART_1_cdc.c ****     *
 329:.\Generated_Source\PSoC5/USBUART_1_cdc.c ****     * Summary:
 330:.\Generated_Source\PSoC5/USBUART_1_cdc.c ****     *  Sends a carriage return (0x0D) and line feed (0x0A) to the PC
 331:.\Generated_Source\PSoC5/USBUART_1_cdc.c ****     *
 332:.\Generated_Source\PSoC5/USBUART_1_cdc.c ****     * Parameters:
 333:.\Generated_Source\PSoC5/USBUART_1_cdc.c ****     *  None.
 334:.\Generated_Source\PSoC5/USBUART_1_cdc.c ****     *
 335:.\Generated_Source\PSoC5/USBUART_1_cdc.c ****     * Return:
ARM GAS  C:\Users\Luke\AppData\Local\Temp\ccJIvIRB.s 			page 14


 336:.\Generated_Source\PSoC5/USBUART_1_cdc.c ****     *  None.
 337:.\Generated_Source\PSoC5/USBUART_1_cdc.c ****     *
 338:.\Generated_Source\PSoC5/USBUART_1_cdc.c ****     * Global variables:
 339:.\Generated_Source\PSoC5/USBUART_1_cdc.c ****     *   USBUART_1_cdc_data_in_ep: CDC IN endpoint number used for sending
 340:.\Generated_Source\PSoC5/USBUART_1_cdc.c ****     *     data.
 341:.\Generated_Source\PSoC5/USBUART_1_cdc.c ****     *
 342:.\Generated_Source\PSoC5/USBUART_1_cdc.c ****     * Reentrant:
 343:.\Generated_Source\PSoC5/USBUART_1_cdc.c ****     *  No.
 344:.\Generated_Source\PSoC5/USBUART_1_cdc.c ****     *
 345:.\Generated_Source\PSoC5/USBUART_1_cdc.c ****     *******************************************************************************/
 346:.\Generated_Source\PSoC5/USBUART_1_cdc.c ****     void USBUART_1_PutCRLF(void) 
 347:.\Generated_Source\PSoC5/USBUART_1_cdc.c ****     {
 376              		.loc 1 347 0
 377              		.cfi_startproc
 378              		@ args = 0, pretend = 0, frame = 8
 379              		@ frame_needed = 0, uses_anonymous_args = 0
 380 0000 07B5     		push	{r0, r1, r2, lr}
 381              	.LCFI3:
 382              		.cfi_def_cfa_offset 16
 383              		.cfi_offset 0, -16
 384              		.cfi_offset 1, -12
 385              		.cfi_offset 2, -8
 386              		.cfi_offset 14, -4
 348:.\Generated_Source\PSoC5/USBUART_1_cdc.c ****         const uint8 CYCODE txData[] = {0x0Du, 0x0Au};
 387              		.loc 1 348 0
 388 0002 054B     		ldr	r3, .L38
 349:.\Generated_Source\PSoC5/USBUART_1_cdc.c **** 
 350:.\Generated_Source\PSoC5/USBUART_1_cdc.c ****         USBUART_1_LoadInEP(USBUART_1_cdc_data_in_ep, (const uint8 *)txData, 2u);
 389              		.loc 1 350 0
 390 0004 0549     		ldr	r1, .L38+4
 348:.\Generated_Source\PSoC5/USBUART_1_cdc.c ****         const uint8 CYCODE txData[] = {0x0Du, 0x0Au};
 391              		.loc 1 348 0
 392 0006 1888     		ldrh	r0, [r3, #0]	@ unaligned
 393              		.loc 1 350 0
 394 0008 0222     		movs	r2, #2
 348:.\Generated_Source\PSoC5/USBUART_1_cdc.c ****         const uint8 CYCODE txData[] = {0x0Du, 0x0Au};
 395              		.loc 1 348 0
 396 000a ADF80400 		strh	r0, [sp, #4]	@ unaligned
 397              		.loc 1 350 0
 398 000e 0878     		ldrb	r0, [r1, #0]	@ zero_extendqisi2
 399 0010 01A9     		add	r1, sp, #4
 400 0012 FFF7FEFF 		bl	USBUART_1_LoadInEP
 401              	.LVL27:
 351:.\Generated_Source\PSoC5/USBUART_1_cdc.c ****     }
 402              		.loc 1 351 0
 403 0016 0EBD     		pop	{r1, r2, r3, pc}
 404              	.L39:
 405              		.align	2
 406              	.L38:
 407 0018 00000000 		.word	.LANCHOR0
 408 001c 00000000 		.word	USBUART_1_cdc_data_in_ep
 409              		.cfi_endproc
 410              	.LFE6:
 411              		.size	USBUART_1_PutCRLF, .-USBUART_1_PutCRLF
 412              		.section	.text.USBUART_1_GetCount,"ax",%progbits
 413              		.align	1
 414              		.global	USBUART_1_GetCount
ARM GAS  C:\Users\Luke\AppData\Local\Temp\ccJIvIRB.s 			page 15


 415              		.thumb
 416              		.thumb_func
 417              		.type	USBUART_1_GetCount, %function
 418              	USBUART_1_GetCount:
 419              	.LFB7:
 352:.\Generated_Source\PSoC5/USBUART_1_cdc.c **** 
 353:.\Generated_Source\PSoC5/USBUART_1_cdc.c **** 
 354:.\Generated_Source\PSoC5/USBUART_1_cdc.c ****     /*******************************************************************************
 355:.\Generated_Source\PSoC5/USBUART_1_cdc.c ****     * Function Name: USBUART_1_GetCount
 356:.\Generated_Source\PSoC5/USBUART_1_cdc.c ****     ********************************************************************************
 357:.\Generated_Source\PSoC5/USBUART_1_cdc.c ****     *
 358:.\Generated_Source\PSoC5/USBUART_1_cdc.c ****     * Summary:
 359:.\Generated_Source\PSoC5/USBUART_1_cdc.c ****     *  This function returns the number of bytes that were received from the PC.
 360:.\Generated_Source\PSoC5/USBUART_1_cdc.c ****     *
 361:.\Generated_Source\PSoC5/USBUART_1_cdc.c ****     * Parameters:
 362:.\Generated_Source\PSoC5/USBUART_1_cdc.c ****     *  None.
 363:.\Generated_Source\PSoC5/USBUART_1_cdc.c ****     *
 364:.\Generated_Source\PSoC5/USBUART_1_cdc.c ****     * Return:
 365:.\Generated_Source\PSoC5/USBUART_1_cdc.c ****     *  Returns the number of received bytes.
 366:.\Generated_Source\PSoC5/USBUART_1_cdc.c ****     *
 367:.\Generated_Source\PSoC5/USBUART_1_cdc.c ****     * Global variables:
 368:.\Generated_Source\PSoC5/USBUART_1_cdc.c ****     *   USBUART_1_cdc_data_out_ep: CDC OUT endpoint number used.
 369:.\Generated_Source\PSoC5/USBUART_1_cdc.c ****     *
 370:.\Generated_Source\PSoC5/USBUART_1_cdc.c ****     *******************************************************************************/
 371:.\Generated_Source\PSoC5/USBUART_1_cdc.c ****     uint16 USBUART_1_GetCount(void) 
 372:.\Generated_Source\PSoC5/USBUART_1_cdc.c ****     {
 420              		.loc 1 372 0
 421              		.cfi_startproc
 422              		@ args = 0, pretend = 0, frame = 0
 423              		@ frame_needed = 0, uses_anonymous_args = 0
 424              		@ link register save eliminated.
 425              	.LVL28:
 373:.\Generated_Source\PSoC5/USBUART_1_cdc.c ****         uint16 bytesCount = 0u;
 374:.\Generated_Source\PSoC5/USBUART_1_cdc.c **** 
 375:.\Generated_Source\PSoC5/USBUART_1_cdc.c ****         if (USBUART_1_EP[USBUART_1_cdc_data_out_ep].apiEpState == USBUART_1_OUT_BUFFER_FULL)
 426              		.loc 1 375 0
 427 0000 064B     		ldr	r3, .L42
 428 0002 0749     		ldr	r1, .L42+4
 429 0004 1A78     		ldrb	r2, [r3, #0]	@ zero_extendqisi2
 430 0006 0C20     		movs	r0, #12
 431 0008 00FB0212 		mla	r2, r0, r2, r1
 432 000c 5078     		ldrb	r0, [r2, #1]	@ zero_extendqisi2
 433 000e 0128     		cmp	r0, #1
 434 0010 02D1     		bne	.L41
 376:.\Generated_Source\PSoC5/USBUART_1_cdc.c ****         {
 377:.\Generated_Source\PSoC5/USBUART_1_cdc.c ****             bytesCount = USBUART_1_GetEPCount(USBUART_1_cdc_data_out_ep);
 435              		.loc 1 377 0
 436 0012 1878     		ldrb	r0, [r3, #0]	@ zero_extendqisi2
 378:.\Generated_Source\PSoC5/USBUART_1_cdc.c ****         }
 379:.\Generated_Source\PSoC5/USBUART_1_cdc.c **** 
 380:.\Generated_Source\PSoC5/USBUART_1_cdc.c ****         return(bytesCount);
 381:.\Generated_Source\PSoC5/USBUART_1_cdc.c ****     }
 437              		.loc 1 381 0
 377:.\Generated_Source\PSoC5/USBUART_1_cdc.c ****             bytesCount = USBUART_1_GetEPCount(USBUART_1_cdc_data_out_ep);
 438              		.loc 1 377 0
 439 0014 FFF7FEBF 		b	USBUART_1_GetEPCount
 440              	.LVL29:
ARM GAS  C:\Users\Luke\AppData\Local\Temp\ccJIvIRB.s 			page 16


 441              	.L41:
 442              		.loc 1 381 0
 443 0018 0020     		movs	r0, #0
 444 001a 7047     		bx	lr
 445              	.L43:
 446              		.align	2
 447              	.L42:
 448 001c 00000000 		.word	USBUART_1_cdc_data_out_ep
 449 0020 00000000 		.word	USBUART_1_EP
 450              		.cfi_endproc
 451              	.LFE7:
 452              		.size	USBUART_1_GetCount, .-USBUART_1_GetCount
 453              		.section	.text.USBUART_1_DataIsReady,"ax",%progbits
 454              		.align	1
 455              		.global	USBUART_1_DataIsReady
 456              		.thumb
 457              		.thumb_func
 458              		.type	USBUART_1_DataIsReady, %function
 459              	USBUART_1_DataIsReady:
 460              	.LFB8:
 382:.\Generated_Source\PSoC5/USBUART_1_cdc.c **** 
 383:.\Generated_Source\PSoC5/USBUART_1_cdc.c **** 
 384:.\Generated_Source\PSoC5/USBUART_1_cdc.c ****     /*******************************************************************************
 385:.\Generated_Source\PSoC5/USBUART_1_cdc.c ****     * Function Name: USBUART_1_DataIsReady
 386:.\Generated_Source\PSoC5/USBUART_1_cdc.c ****     ********************************************************************************
 387:.\Generated_Source\PSoC5/USBUART_1_cdc.c ****     *
 388:.\Generated_Source\PSoC5/USBUART_1_cdc.c ****     * Summary:
 389:.\Generated_Source\PSoC5/USBUART_1_cdc.c ****     *  Returns a nonzero value if the component received data or received
 390:.\Generated_Source\PSoC5/USBUART_1_cdc.c ****     *  zero-length packet. The GetAll() or GetData() API should be called to read
 391:.\Generated_Source\PSoC5/USBUART_1_cdc.c ****     *  data from the buffer and re-init OUT endpoint even when zero-length packet
 392:.\Generated_Source\PSoC5/USBUART_1_cdc.c ****     *  received.
 393:.\Generated_Source\PSoC5/USBUART_1_cdc.c ****     *
 394:.\Generated_Source\PSoC5/USBUART_1_cdc.c ****     * Parameters:
 395:.\Generated_Source\PSoC5/USBUART_1_cdc.c ****     *  None.
 396:.\Generated_Source\PSoC5/USBUART_1_cdc.c ****     *
 397:.\Generated_Source\PSoC5/USBUART_1_cdc.c ****     * Return:
 398:.\Generated_Source\PSoC5/USBUART_1_cdc.c ****     *  If the OUT packet received this function returns a nonzero value.
 399:.\Generated_Source\PSoC5/USBUART_1_cdc.c ****     *  Otherwise zero is returned.
 400:.\Generated_Source\PSoC5/USBUART_1_cdc.c ****     *
 401:.\Generated_Source\PSoC5/USBUART_1_cdc.c ****     * Global variables:
 402:.\Generated_Source\PSoC5/USBUART_1_cdc.c ****     *   USBUART_1_cdc_data_out_ep: CDC OUT endpoint number used.
 403:.\Generated_Source\PSoC5/USBUART_1_cdc.c ****     *
 404:.\Generated_Source\PSoC5/USBUART_1_cdc.c ****     *******************************************************************************/
 405:.\Generated_Source\PSoC5/USBUART_1_cdc.c ****     uint8 USBUART_1_DataIsReady(void) 
 406:.\Generated_Source\PSoC5/USBUART_1_cdc.c ****     {
 461              		.loc 1 406 0
 462              		.cfi_startproc
 463              		@ args = 0, pretend = 0, frame = 0
 464              		@ frame_needed = 0, uses_anonymous_args = 0
 465              		@ link register save eliminated.
 407:.\Generated_Source\PSoC5/USBUART_1_cdc.c ****         return(USBUART_1_EP[USBUART_1_cdc_data_out_ep].apiEpState);
 466              		.loc 1 407 0
 467 0000 034B     		ldr	r3, .L45
 468 0002 044A     		ldr	r2, .L45+4
 469 0004 1878     		ldrb	r0, [r3, #0]	@ zero_extendqisi2
 470 0006 0C21     		movs	r1, #12
 471 0008 01FB0023 		mla	r3, r1, r0, r2
ARM GAS  C:\Users\Luke\AppData\Local\Temp\ccJIvIRB.s 			page 17


 472 000c 5878     		ldrb	r0, [r3, #1]	@ zero_extendqisi2
 408:.\Generated_Source\PSoC5/USBUART_1_cdc.c ****     }
 473              		.loc 1 408 0
 474 000e 7047     		bx	lr
 475              	.L46:
 476              		.align	2
 477              	.L45:
 478 0010 00000000 		.word	USBUART_1_cdc_data_out_ep
 479 0014 00000000 		.word	USBUART_1_EP
 480              		.cfi_endproc
 481              	.LFE8:
 482              		.size	USBUART_1_DataIsReady, .-USBUART_1_DataIsReady
 483              		.section	.text.USBUART_1_CDCIsReady,"ax",%progbits
 484              		.align	1
 485              		.global	USBUART_1_CDCIsReady
 486              		.thumb
 487              		.thumb_func
 488              		.type	USBUART_1_CDCIsReady, %function
 489              	USBUART_1_CDCIsReady:
 490              	.LFB9:
 409:.\Generated_Source\PSoC5/USBUART_1_cdc.c **** 
 410:.\Generated_Source\PSoC5/USBUART_1_cdc.c **** 
 411:.\Generated_Source\PSoC5/USBUART_1_cdc.c ****     /*******************************************************************************
 412:.\Generated_Source\PSoC5/USBUART_1_cdc.c ****     * Function Name: USBUART_1_CDCIsReady
 413:.\Generated_Source\PSoC5/USBUART_1_cdc.c ****     ********************************************************************************
 414:.\Generated_Source\PSoC5/USBUART_1_cdc.c ****     *
 415:.\Generated_Source\PSoC5/USBUART_1_cdc.c ****     * Summary:
 416:.\Generated_Source\PSoC5/USBUART_1_cdc.c ****     *  Returns a nonzero value if the component is ready to send more data to the
 417:.\Generated_Source\PSoC5/USBUART_1_cdc.c ****     *  PC. Otherwise returns zero. Should be called before sending new data to
 418:.\Generated_Source\PSoC5/USBUART_1_cdc.c ****     *  ensure the previous data has finished sending.This function returns the
 419:.\Generated_Source\PSoC5/USBUART_1_cdc.c ****     *  number of bytes that were received from the PC.
 420:.\Generated_Source\PSoC5/USBUART_1_cdc.c ****     *
 421:.\Generated_Source\PSoC5/USBUART_1_cdc.c ****     * Parameters:
 422:.\Generated_Source\PSoC5/USBUART_1_cdc.c ****     *  None.
 423:.\Generated_Source\PSoC5/USBUART_1_cdc.c ****     *
 424:.\Generated_Source\PSoC5/USBUART_1_cdc.c ****     * Return:
 425:.\Generated_Source\PSoC5/USBUART_1_cdc.c ****     *  If the buffer can accept new data then this function returns a nonzero value.
 426:.\Generated_Source\PSoC5/USBUART_1_cdc.c ****     *  Otherwise zero is returned.
 427:.\Generated_Source\PSoC5/USBUART_1_cdc.c ****     *
 428:.\Generated_Source\PSoC5/USBUART_1_cdc.c ****     * Global variables:
 429:.\Generated_Source\PSoC5/USBUART_1_cdc.c ****     *   USBUART_1_cdc_data_in_ep: CDC IN endpoint number used.
 430:.\Generated_Source\PSoC5/USBUART_1_cdc.c ****     *
 431:.\Generated_Source\PSoC5/USBUART_1_cdc.c ****     *******************************************************************************/
 432:.\Generated_Source\PSoC5/USBUART_1_cdc.c ****     uint8 USBUART_1_CDCIsReady(void) 
 433:.\Generated_Source\PSoC5/USBUART_1_cdc.c ****     {
 491              		.loc 1 433 0
 492              		.cfi_startproc
 493              		@ args = 0, pretend = 0, frame = 0
 494              		@ frame_needed = 0, uses_anonymous_args = 0
 495              		@ link register save eliminated.
 434:.\Generated_Source\PSoC5/USBUART_1_cdc.c ****         return(USBUART_1_EP[USBUART_1_cdc_data_in_ep].apiEpState);
 496              		.loc 1 434 0
 497 0000 034B     		ldr	r3, .L48
 498 0002 044A     		ldr	r2, .L48+4
 499 0004 1878     		ldrb	r0, [r3, #0]	@ zero_extendqisi2
 500 0006 0C21     		movs	r1, #12
 501 0008 01FB0023 		mla	r3, r1, r0, r2
ARM GAS  C:\Users\Luke\AppData\Local\Temp\ccJIvIRB.s 			page 18


 502 000c 5878     		ldrb	r0, [r3, #1]	@ zero_extendqisi2
 435:.\Generated_Source\PSoC5/USBUART_1_cdc.c ****     }
 503              		.loc 1 435 0
 504 000e 7047     		bx	lr
 505              	.L49:
 506              		.align	2
 507              	.L48:
 508 0010 00000000 		.word	USBUART_1_cdc_data_in_ep
 509 0014 00000000 		.word	USBUART_1_EP
 510              		.cfi_endproc
 511              	.LFE9:
 512              		.size	USBUART_1_CDCIsReady, .-USBUART_1_CDCIsReady
 513              		.section	.text.USBUART_1_GetData,"ax",%progbits
 514              		.align	1
 515              		.global	USBUART_1_GetData
 516              		.thumb
 517              		.thumb_func
 518              		.type	USBUART_1_GetData, %function
 519              	USBUART_1_GetData:
 520              	.LFB10:
 436:.\Generated_Source\PSoC5/USBUART_1_cdc.c **** 
 437:.\Generated_Source\PSoC5/USBUART_1_cdc.c **** 
 438:.\Generated_Source\PSoC5/USBUART_1_cdc.c ****     /*******************************************************************************
 439:.\Generated_Source\PSoC5/USBUART_1_cdc.c ****     * Function Name: USBUART_1_GetData
 440:.\Generated_Source\PSoC5/USBUART_1_cdc.c ****     ********************************************************************************
 441:.\Generated_Source\PSoC5/USBUART_1_cdc.c ****     *
 442:.\Generated_Source\PSoC5/USBUART_1_cdc.c ****     * Summary:
 443:.\Generated_Source\PSoC5/USBUART_1_cdc.c ****     *  Gets a specified number of bytes from the input buffer and places it in a
 444:.\Generated_Source\PSoC5/USBUART_1_cdc.c ****     *  data array specified by the passed pointer.
 445:.\Generated_Source\PSoC5/USBUART_1_cdc.c ****     *  USBUART_1_DataIsReady() API should be called before, to be sure
 446:.\Generated_Source\PSoC5/USBUART_1_cdc.c ****     *  that data is received from the Host.
 447:.\Generated_Source\PSoC5/USBUART_1_cdc.c ****     *
 448:.\Generated_Source\PSoC5/USBUART_1_cdc.c ****     * Parameters:
 449:.\Generated_Source\PSoC5/USBUART_1_cdc.c ****     *  pData: Pointer to the data array where data will be placed.
 450:.\Generated_Source\PSoC5/USBUART_1_cdc.c ****     *  Length: Number of bytes to read into the data array from the RX buffer.
 451:.\Generated_Source\PSoC5/USBUART_1_cdc.c ****     *          Maximum length is limited by the the number of received bytes.
 452:.\Generated_Source\PSoC5/USBUART_1_cdc.c ****     *
 453:.\Generated_Source\PSoC5/USBUART_1_cdc.c ****     * Return:
 454:.\Generated_Source\PSoC5/USBUART_1_cdc.c ****     *  Number of bytes received.
 455:.\Generated_Source\PSoC5/USBUART_1_cdc.c ****     *
 456:.\Generated_Source\PSoC5/USBUART_1_cdc.c ****     * Global variables:
 457:.\Generated_Source\PSoC5/USBUART_1_cdc.c ****     *   USBUART_1_cdc_data_out_ep: CDC OUT endpoint number used.
 458:.\Generated_Source\PSoC5/USBUART_1_cdc.c ****     *
 459:.\Generated_Source\PSoC5/USBUART_1_cdc.c ****     * Reentrant:
 460:.\Generated_Source\PSoC5/USBUART_1_cdc.c ****     *  No.
 461:.\Generated_Source\PSoC5/USBUART_1_cdc.c ****     *
 462:.\Generated_Source\PSoC5/USBUART_1_cdc.c ****     *******************************************************************************/
 463:.\Generated_Source\PSoC5/USBUART_1_cdc.c ****     uint16 USBUART_1_GetData(uint8* pData, uint16 length) 
 464:.\Generated_Source\PSoC5/USBUART_1_cdc.c ****     {
 521              		.loc 1 464 0
 522              		.cfi_startproc
 523              		@ args = 0, pretend = 0, frame = 0
 524              		@ frame_needed = 0, uses_anonymous_args = 0
 525              		@ link register save eliminated.
 526              	.LVL30:
 527              		.loc 1 464 0
 528 0000 0A46     		mov	r2, r1
ARM GAS  C:\Users\Luke\AppData\Local\Temp\ccJIvIRB.s 			page 19


 465:.\Generated_Source\PSoC5/USBUART_1_cdc.c ****         return(USBUART_1_ReadOutEP(USBUART_1_cdc_data_out_ep, pData, length));
 529              		.loc 1 465 0
 530 0002 0349     		ldr	r1, .L51
 531              	.LVL31:
 464:.\Generated_Source\PSoC5/USBUART_1_cdc.c ****     {
 532              		.loc 1 464 0
 533 0004 0346     		mov	r3, r0
 534              		.loc 1 465 0
 535 0006 0878     		ldrb	r0, [r1, #0]	@ zero_extendqisi2
 536              	.LVL32:
 537 0008 1946     		mov	r1, r3
 466:.\Generated_Source\PSoC5/USBUART_1_cdc.c ****     }
 538              		.loc 1 466 0
 465:.\Generated_Source\PSoC5/USBUART_1_cdc.c ****         return(USBUART_1_ReadOutEP(USBUART_1_cdc_data_out_ep, pData, length));
 539              		.loc 1 465 0
 540 000a FFF7FEBF 		b	USBUART_1_ReadOutEP
 541              	.LVL33:
 542              	.L52:
 543 000e 00BF     		.align	2
 544              	.L51:
 545 0010 00000000 		.word	USBUART_1_cdc_data_out_ep
 546              		.cfi_endproc
 547              	.LFE10:
 548              		.size	USBUART_1_GetData, .-USBUART_1_GetData
 549              		.section	.text.USBUART_1_GetAll,"ax",%progbits
 550              		.align	1
 551              		.global	USBUART_1_GetAll
 552              		.thumb
 553              		.thumb_func
 554              		.type	USBUART_1_GetAll, %function
 555              	USBUART_1_GetAll:
 556              	.LFB11:
 467:.\Generated_Source\PSoC5/USBUART_1_cdc.c **** 
 468:.\Generated_Source\PSoC5/USBUART_1_cdc.c **** 
 469:.\Generated_Source\PSoC5/USBUART_1_cdc.c ****     /*******************************************************************************
 470:.\Generated_Source\PSoC5/USBUART_1_cdc.c ****     * Function Name: USBUART_1_GetAll
 471:.\Generated_Source\PSoC5/USBUART_1_cdc.c ****     ********************************************************************************
 472:.\Generated_Source\PSoC5/USBUART_1_cdc.c ****     *
 473:.\Generated_Source\PSoC5/USBUART_1_cdc.c ****     * Summary:
 474:.\Generated_Source\PSoC5/USBUART_1_cdc.c ****     *  Gets all bytes of received data from the input buffer and places it into a
 475:.\Generated_Source\PSoC5/USBUART_1_cdc.c ****     *  specified data array. USBUART_1_DataIsReady() API should be called
 476:.\Generated_Source\PSoC5/USBUART_1_cdc.c ****     *  before, to be sure that data is received from the Host.
 477:.\Generated_Source\PSoC5/USBUART_1_cdc.c ****     *
 478:.\Generated_Source\PSoC5/USBUART_1_cdc.c ****     * Parameters:
 479:.\Generated_Source\PSoC5/USBUART_1_cdc.c ****     *  pData: Pointer to the data array where data will be placed.
 480:.\Generated_Source\PSoC5/USBUART_1_cdc.c ****     *
 481:.\Generated_Source\PSoC5/USBUART_1_cdc.c ****     * Return:
 482:.\Generated_Source\PSoC5/USBUART_1_cdc.c ****     *  Number of bytes received.
 483:.\Generated_Source\PSoC5/USBUART_1_cdc.c ****     *
 484:.\Generated_Source\PSoC5/USBUART_1_cdc.c ****     * Global variables:
 485:.\Generated_Source\PSoC5/USBUART_1_cdc.c ****     *   USBUART_1_cdc_data_out_ep: CDC OUT endpoint number used.
 486:.\Generated_Source\PSoC5/USBUART_1_cdc.c ****     *   USBUART_1_EP[].bufferSize: EP max packet size is used as a length
 487:.\Generated_Source\PSoC5/USBUART_1_cdc.c ****     *     to read all data from the EP buffer.
 488:.\Generated_Source\PSoC5/USBUART_1_cdc.c ****     *
 489:.\Generated_Source\PSoC5/USBUART_1_cdc.c ****     * Reentrant:
 490:.\Generated_Source\PSoC5/USBUART_1_cdc.c ****     *  No.
 491:.\Generated_Source\PSoC5/USBUART_1_cdc.c ****     *
ARM GAS  C:\Users\Luke\AppData\Local\Temp\ccJIvIRB.s 			page 20


 492:.\Generated_Source\PSoC5/USBUART_1_cdc.c ****     *******************************************************************************/
 493:.\Generated_Source\PSoC5/USBUART_1_cdc.c ****     uint16 USBUART_1_GetAll(uint8* pData) 
 494:.\Generated_Source\PSoC5/USBUART_1_cdc.c ****     {
 557              		.loc 1 494 0
 558              		.cfi_startproc
 559              		@ args = 0, pretend = 0, frame = 0
 560              		@ frame_needed = 0, uses_anonymous_args = 0
 561              	.LVL34:
 562 0000 10B5     		push	{r4, lr}
 563              	.LCFI4:
 564              		.cfi_def_cfa_offset 8
 565              		.cfi_offset 4, -8
 566              		.cfi_offset 14, -4
 495:.\Generated_Source\PSoC5/USBUART_1_cdc.c ****         return (USBUART_1_ReadOutEP(USBUART_1_cdc_data_out_ep, pData,
 567              		.loc 1 495 0
 568 0002 074B     		ldr	r3, .L54
 494:.\Generated_Source\PSoC5/USBUART_1_cdc.c ****     {
 569              		.loc 1 494 0
 570 0004 0146     		mov	r1, r0
 571              		.loc 1 495 0
 572 0006 074A     		ldr	r2, .L54+4
 573 0008 1878     		ldrb	r0, [r3, #0]	@ zero_extendqisi2
 574              	.LVL35:
 575 000a 1B78     		ldrb	r3, [r3, #0]	@ zero_extendqisi2
 576 000c 0C24     		movs	r4, #12
 577 000e 04FB0323 		mla	r3, r4, r3, r2
 578 0012 1A89     		ldrh	r2, [r3, #8]
 579 0014 92B2     		uxth	r2, r2
 496:.\Generated_Source\PSoC5/USBUART_1_cdc.c ****                                            USBUART_1_EP[USBUART_1_cdc_data_out_ep].bufferSize));
 497:.\Generated_Source\PSoC5/USBUART_1_cdc.c ****     }
 580              		.loc 1 497 0
 581 0016 BDE81040 		pop	{r4, lr}
 495:.\Generated_Source\PSoC5/USBUART_1_cdc.c ****         return (USBUART_1_ReadOutEP(USBUART_1_cdc_data_out_ep, pData,
 582              		.loc 1 495 0
 583 001a FFF7FEBF 		b	USBUART_1_ReadOutEP
 584              	.LVL36:
 585              	.L55:
 586 001e 00BF     		.align	2
 587              	.L54:
 588 0020 00000000 		.word	USBUART_1_cdc_data_out_ep
 589 0024 00000000 		.word	USBUART_1_EP
 590              		.cfi_endproc
 591              	.LFE11:
 592              		.size	USBUART_1_GetAll, .-USBUART_1_GetAll
 593              		.section	.text.USBUART_1_GetChar,"ax",%progbits
 594              		.align	1
 595              		.global	USBUART_1_GetChar
 596              		.thumb
 597              		.thumb_func
 598              		.type	USBUART_1_GetChar, %function
 599              	USBUART_1_GetChar:
 600              	.LFB12:
 498:.\Generated_Source\PSoC5/USBUART_1_cdc.c **** 
 499:.\Generated_Source\PSoC5/USBUART_1_cdc.c **** 
 500:.\Generated_Source\PSoC5/USBUART_1_cdc.c ****     /*******************************************************************************
 501:.\Generated_Source\PSoC5/USBUART_1_cdc.c ****     * Function Name: USBUART_1_GetChar
 502:.\Generated_Source\PSoC5/USBUART_1_cdc.c ****     ********************************************************************************
ARM GAS  C:\Users\Luke\AppData\Local\Temp\ccJIvIRB.s 			page 21


 503:.\Generated_Source\PSoC5/USBUART_1_cdc.c ****     *
 504:.\Generated_Source\PSoC5/USBUART_1_cdc.c ****     * Summary:
 505:.\Generated_Source\PSoC5/USBUART_1_cdc.c ****     *  Reads one byte of received data from the buffer.
 506:.\Generated_Source\PSoC5/USBUART_1_cdc.c ****     *
 507:.\Generated_Source\PSoC5/USBUART_1_cdc.c ****     * Parameters:
 508:.\Generated_Source\PSoC5/USBUART_1_cdc.c ****     *  None.
 509:.\Generated_Source\PSoC5/USBUART_1_cdc.c ****     *
 510:.\Generated_Source\PSoC5/USBUART_1_cdc.c ****     * Return:
 511:.\Generated_Source\PSoC5/USBUART_1_cdc.c ****     *  Received one character.
 512:.\Generated_Source\PSoC5/USBUART_1_cdc.c ****     *
 513:.\Generated_Source\PSoC5/USBUART_1_cdc.c ****     * Global variables:
 514:.\Generated_Source\PSoC5/USBUART_1_cdc.c ****     *   USBUART_1_cdc_data_out_ep: CDC OUT endpoint number used.
 515:.\Generated_Source\PSoC5/USBUART_1_cdc.c ****     *
 516:.\Generated_Source\PSoC5/USBUART_1_cdc.c ****     * Reentrant:
 517:.\Generated_Source\PSoC5/USBUART_1_cdc.c ****     *  No.
 518:.\Generated_Source\PSoC5/USBUART_1_cdc.c ****     *
 519:.\Generated_Source\PSoC5/USBUART_1_cdc.c ****     *******************************************************************************/
 520:.\Generated_Source\PSoC5/USBUART_1_cdc.c ****     uint8 USBUART_1_GetChar(void) 
 521:.\Generated_Source\PSoC5/USBUART_1_cdc.c ****     {
 601              		.loc 1 521 0
 602              		.cfi_startproc
 603              		@ args = 0, pretend = 0, frame = 8
 604              		@ frame_needed = 0, uses_anonymous_args = 0
 605 0000 07B5     		push	{r0, r1, r2, lr}
 606              	.LCFI5:
 607              		.cfi_def_cfa_offset 16
 608              		.cfi_offset 0, -16
 609              		.cfi_offset 1, -12
 610              		.cfi_offset 2, -8
 611              		.cfi_offset 14, -4
 522:.\Generated_Source\PSoC5/USBUART_1_cdc.c ****          uint8 rxData;
 523:.\Generated_Source\PSoC5/USBUART_1_cdc.c **** 
 524:.\Generated_Source\PSoC5/USBUART_1_cdc.c ****         (void) USBUART_1_ReadOutEP(USBUART_1_cdc_data_out_ep, &rxData, 1u);
 612              		.loc 1 524 0
 613 0002 054B     		ldr	r3, .L57
 614 0004 0DF10701 		add	r1, sp, #7
 615 0008 1878     		ldrb	r0, [r3, #0]	@ zero_extendqisi2
 616 000a 0122     		movs	r2, #1
 617 000c FFF7FEFF 		bl	USBUART_1_ReadOutEP
 618              	.LVL37:
 525:.\Generated_Source\PSoC5/USBUART_1_cdc.c **** 
 526:.\Generated_Source\PSoC5/USBUART_1_cdc.c ****         return(rxData);
 527:.\Generated_Source\PSoC5/USBUART_1_cdc.c ****     }
 619              		.loc 1 527 0
 620 0010 9DF80700 		ldrb	r0, [sp, #7]	@ zero_extendqisi2
 621 0014 0EBD     		pop	{r1, r2, r3, pc}
 622              	.L58:
 623 0016 00BF     		.align	2
 624              	.L57:
 625 0018 00000000 		.word	USBUART_1_cdc_data_out_ep
 626              		.cfi_endproc
 627              	.LFE12:
 628              		.size	USBUART_1_GetChar, .-USBUART_1_GetChar
 629              		.section	.text.USBUART_1_IsLineChanged,"ax",%progbits
 630              		.align	1
 631              		.global	USBUART_1_IsLineChanged
 632              		.thumb
ARM GAS  C:\Users\Luke\AppData\Local\Temp\ccJIvIRB.s 			page 22


 633              		.thumb_func
 634              		.type	USBUART_1_IsLineChanged, %function
 635              	USBUART_1_IsLineChanged:
 636              	.LFB13:
 528:.\Generated_Source\PSoC5/USBUART_1_cdc.c **** 
 529:.\Generated_Source\PSoC5/USBUART_1_cdc.c ****     /*******************************************************************************
 530:.\Generated_Source\PSoC5/USBUART_1_cdc.c ****     * Function Name: USBUART_1_IsLineChanged
 531:.\Generated_Source\PSoC5/USBUART_1_cdc.c ****     ********************************************************************************
 532:.\Generated_Source\PSoC5/USBUART_1_cdc.c ****     *
 533:.\Generated_Source\PSoC5/USBUART_1_cdc.c ****     * Summary:
 534:.\Generated_Source\PSoC5/USBUART_1_cdc.c ****     *  This function returns clear on read status of the line.
 535:.\Generated_Source\PSoC5/USBUART_1_cdc.c ****     *
 536:.\Generated_Source\PSoC5/USBUART_1_cdc.c ****     * Parameters:
 537:.\Generated_Source\PSoC5/USBUART_1_cdc.c ****     *  None.
 538:.\Generated_Source\PSoC5/USBUART_1_cdc.c ****     *
 539:.\Generated_Source\PSoC5/USBUART_1_cdc.c ****     * Return:
 540:.\Generated_Source\PSoC5/USBUART_1_cdc.c ****     *  If SET_LINE_CODING or CDC_SET_CONTROL_LINE_STATE request received then not
 541:.\Generated_Source\PSoC5/USBUART_1_cdc.c ****     *  zero value returned. Otherwise zero is returned.
 542:.\Generated_Source\PSoC5/USBUART_1_cdc.c ****     *
 543:.\Generated_Source\PSoC5/USBUART_1_cdc.c ****     * Global variables:
 544:.\Generated_Source\PSoC5/USBUART_1_cdc.c ****     *  USBUART_1_transferState - it is checked to be sure then OUT data
 545:.\Generated_Source\PSoC5/USBUART_1_cdc.c ****     *    phase has been complete, and data written to the lineCoding or Control
 546:.\Generated_Source\PSoC5/USBUART_1_cdc.c ****     *    Bitmap buffer.
 547:.\Generated_Source\PSoC5/USBUART_1_cdc.c ****     *  USBUART_1_lineChanged: used as a flag to be aware that Host has been
 548:.\Generated_Source\PSoC5/USBUART_1_cdc.c ****     *    sent request for changing Line Coding or Control Bitmap.
 549:.\Generated_Source\PSoC5/USBUART_1_cdc.c ****     *
 550:.\Generated_Source\PSoC5/USBUART_1_cdc.c ****     *******************************************************************************/
 551:.\Generated_Source\PSoC5/USBUART_1_cdc.c ****     uint8 USBUART_1_IsLineChanged(void) 
 552:.\Generated_Source\PSoC5/USBUART_1_cdc.c ****     {
 637              		.loc 1 552 0
 638              		.cfi_startproc
 639              		@ args = 0, pretend = 0, frame = 0
 640              		@ frame_needed = 0, uses_anonymous_args = 0
 641              		@ link register save eliminated.
 642              	.LVL38:
 553:.\Generated_Source\PSoC5/USBUART_1_cdc.c ****         uint8 state = 0u;
 554:.\Generated_Source\PSoC5/USBUART_1_cdc.c **** 
 555:.\Generated_Source\PSoC5/USBUART_1_cdc.c ****         /* transferState is checked to be sure then OUT data phase has been complete */
 556:.\Generated_Source\PSoC5/USBUART_1_cdc.c ****         if(USBUART_1_transferState == USBUART_1_TRANS_STATE_IDLE)
 643              		.loc 1 556 0
 644 0000 054B     		ldr	r3, .L63
 645 0002 1A78     		ldrb	r2, [r3, #0]	@ zero_extendqisi2
 646 0004 2AB9     		cbnz	r2, .L61
 557:.\Generated_Source\PSoC5/USBUART_1_cdc.c ****         {
 558:.\Generated_Source\PSoC5/USBUART_1_cdc.c ****             if(USBUART_1_lineChanged != 0u)
 647              		.loc 1 558 0
 648 0006 0549     		ldr	r1, .L63+4
 649 0008 0878     		ldrb	r0, [r1, #0]	@ zero_extendqisi2
 650 000a 18B1     		cbz	r0, .L60
 559:.\Generated_Source\PSoC5/USBUART_1_cdc.c ****             {
 560:.\Generated_Source\PSoC5/USBUART_1_cdc.c ****                 state = USBUART_1_lineChanged;
 651              		.loc 1 560 0
 652 000c 0878     		ldrb	r0, [r1, #0]	@ zero_extendqisi2
 653              	.LVL39:
 561:.\Generated_Source\PSoC5/USBUART_1_cdc.c ****                 USBUART_1_lineChanged = 0u;
 654              		.loc 1 561 0
 655 000e 0A70     		strb	r2, [r1, #0]
ARM GAS  C:\Users\Luke\AppData\Local\Temp\ccJIvIRB.s 			page 23


 656 0010 7047     		bx	lr
 657              	.LVL40:
 658              	.L61:
 553:.\Generated_Source\PSoC5/USBUART_1_cdc.c ****         uint8 state = 0u;
 659              		.loc 1 553 0
 660 0012 0020     		movs	r0, #0
 661              	.L60:
 662              	.LVL41:
 562:.\Generated_Source\PSoC5/USBUART_1_cdc.c ****             }
 563:.\Generated_Source\PSoC5/USBUART_1_cdc.c ****         }
 564:.\Generated_Source\PSoC5/USBUART_1_cdc.c **** 
 565:.\Generated_Source\PSoC5/USBUART_1_cdc.c ****         return(state);
 566:.\Generated_Source\PSoC5/USBUART_1_cdc.c ****     }
 663              		.loc 1 566 0
 664 0014 7047     		bx	lr
 665              	.L64:
 666 0016 00BF     		.align	2
 667              	.L63:
 668 0018 00000000 		.word	USBUART_1_transferState
 669 001c 00000000 		.word	USBUART_1_lineChanged
 670              		.cfi_endproc
 671              	.LFE13:
 672              		.size	USBUART_1_IsLineChanged, .-USBUART_1_IsLineChanged
 673              		.section	.text.USBUART_1_GetDTERate,"ax",%progbits
 674              		.align	1
 675              		.global	USBUART_1_GetDTERate
 676              		.thumb
 677              		.thumb_func
 678              		.type	USBUART_1_GetDTERate, %function
 679              	USBUART_1_GetDTERate:
 680              	.LFB14:
 567:.\Generated_Source\PSoC5/USBUART_1_cdc.c **** 
 568:.\Generated_Source\PSoC5/USBUART_1_cdc.c **** 
 569:.\Generated_Source\PSoC5/USBUART_1_cdc.c ****     /*******************************************************************************
 570:.\Generated_Source\PSoC5/USBUART_1_cdc.c ****     * Function Name: USBUART_1_GetDTERate
 571:.\Generated_Source\PSoC5/USBUART_1_cdc.c ****     ********************************************************************************
 572:.\Generated_Source\PSoC5/USBUART_1_cdc.c ****     *
 573:.\Generated_Source\PSoC5/USBUART_1_cdc.c ****     * Summary:
 574:.\Generated_Source\PSoC5/USBUART_1_cdc.c ****     *  Returns the data terminal rate set for this port in bits per second.
 575:.\Generated_Source\PSoC5/USBUART_1_cdc.c ****     *
 576:.\Generated_Source\PSoC5/USBUART_1_cdc.c ****     * Parameters:
 577:.\Generated_Source\PSoC5/USBUART_1_cdc.c ****     *  None.
 578:.\Generated_Source\PSoC5/USBUART_1_cdc.c ****     *
 579:.\Generated_Source\PSoC5/USBUART_1_cdc.c ****     * Return:
 580:.\Generated_Source\PSoC5/USBUART_1_cdc.c ****     *  Returns a uint32 value of the data rate in bits per second.
 581:.\Generated_Source\PSoC5/USBUART_1_cdc.c ****     *
 582:.\Generated_Source\PSoC5/USBUART_1_cdc.c ****     * Global variables:
 583:.\Generated_Source\PSoC5/USBUART_1_cdc.c ****     *  USBUART_1_lineCoding: First four bytes converted to uint32
 584:.\Generated_Source\PSoC5/USBUART_1_cdc.c ****     *    depend on compiler, and returned as a data rate.
 585:.\Generated_Source\PSoC5/USBUART_1_cdc.c ****     *
 586:.\Generated_Source\PSoC5/USBUART_1_cdc.c ****     *******************************************************************************/
 587:.\Generated_Source\PSoC5/USBUART_1_cdc.c ****     uint32 USBUART_1_GetDTERate(void) 
 588:.\Generated_Source\PSoC5/USBUART_1_cdc.c ****     {
 681              		.loc 1 588 0
 682              		.cfi_startproc
 683              		@ args = 0, pretend = 0, frame = 0
 684              		@ frame_needed = 0, uses_anonymous_args = 0
ARM GAS  C:\Users\Luke\AppData\Local\Temp\ccJIvIRB.s 			page 24


 685              		@ link register save eliminated.
 589:.\Generated_Source\PSoC5/USBUART_1_cdc.c ****         uint32 rate;
 590:.\Generated_Source\PSoC5/USBUART_1_cdc.c **** 
 591:.\Generated_Source\PSoC5/USBUART_1_cdc.c ****         rate = USBUART_1_lineCoding[USBUART_1_LINE_CODING_RATE + 3u];
 686              		.loc 1 591 0
 687 0000 054B     		ldr	r3, .L66
 688 0002 D878     		ldrb	r0, [r3, #3]	@ zero_extendqisi2
 689              	.LVL42:
 592:.\Generated_Source\PSoC5/USBUART_1_cdc.c ****         rate = (rate << 8u) | USBUART_1_lineCoding[USBUART_1_LINE_CODING_RATE + 2u];
 690              		.loc 1 592 0
 691 0004 9A78     		ldrb	r2, [r3, #2]	@ zero_extendqisi2
 692 0006 42EA0021 		orr	r1, r2, r0, lsl #8
 693              	.LVL43:
 593:.\Generated_Source\PSoC5/USBUART_1_cdc.c ****         rate = (rate << 8u) | USBUART_1_lineCoding[USBUART_1_LINE_CODING_RATE + 1u];
 694              		.loc 1 593 0
 695 000a 5878     		ldrb	r0, [r3, #1]	@ zero_extendqisi2
 594:.\Generated_Source\PSoC5/USBUART_1_cdc.c ****         rate = (rate << 8u) | USBUART_1_lineCoding[USBUART_1_LINE_CODING_RATE];
 696              		.loc 1 594 0
 697 000c 1B78     		ldrb	r3, [r3, #0]	@ zero_extendqisi2
 593:.\Generated_Source\PSoC5/USBUART_1_cdc.c ****         rate = (rate << 8u) | USBUART_1_lineCoding[USBUART_1_LINE_CODING_RATE + 1u];
 698              		.loc 1 593 0
 699 000e 40EA0122 		orr	r2, r0, r1, lsl #8
 700              	.LVL44:
 595:.\Generated_Source\PSoC5/USBUART_1_cdc.c **** 
 596:.\Generated_Source\PSoC5/USBUART_1_cdc.c ****         return(rate);
 597:.\Generated_Source\PSoC5/USBUART_1_cdc.c ****     }
 701              		.loc 1 597 0
 702 0012 43EA0220 		orr	r0, r3, r2, lsl #8
 703 0016 7047     		bx	lr
 704              	.L67:
 705              		.align	2
 706              	.L66:
 707 0018 00000000 		.word	USBUART_1_lineCoding
 708              		.cfi_endproc
 709              	.LFE14:
 710              		.size	USBUART_1_GetDTERate, .-USBUART_1_GetDTERate
 711              		.section	.text.USBUART_1_GetCharFormat,"ax",%progbits
 712              		.align	1
 713              		.global	USBUART_1_GetCharFormat
 714              		.thumb
 715              		.thumb_func
 716              		.type	USBUART_1_GetCharFormat, %function
 717              	USBUART_1_GetCharFormat:
 718              	.LFB15:
 598:.\Generated_Source\PSoC5/USBUART_1_cdc.c **** 
 599:.\Generated_Source\PSoC5/USBUART_1_cdc.c **** 
 600:.\Generated_Source\PSoC5/USBUART_1_cdc.c ****     /*******************************************************************************
 601:.\Generated_Source\PSoC5/USBUART_1_cdc.c ****     * Function Name: USBUART_1_GetCharFormat
 602:.\Generated_Source\PSoC5/USBUART_1_cdc.c ****     ********************************************************************************
 603:.\Generated_Source\PSoC5/USBUART_1_cdc.c ****     *
 604:.\Generated_Source\PSoC5/USBUART_1_cdc.c ****     * Summary:
 605:.\Generated_Source\PSoC5/USBUART_1_cdc.c ****     *  Returns the number of stop bits.
 606:.\Generated_Source\PSoC5/USBUART_1_cdc.c ****     *
 607:.\Generated_Source\PSoC5/USBUART_1_cdc.c ****     * Parameters:
 608:.\Generated_Source\PSoC5/USBUART_1_cdc.c ****     *  None.
 609:.\Generated_Source\PSoC5/USBUART_1_cdc.c ****     *
 610:.\Generated_Source\PSoC5/USBUART_1_cdc.c ****     * Return:
ARM GAS  C:\Users\Luke\AppData\Local\Temp\ccJIvIRB.s 			page 25


 611:.\Generated_Source\PSoC5/USBUART_1_cdc.c ****     *  Returns the number of stop bits.
 612:.\Generated_Source\PSoC5/USBUART_1_cdc.c ****     *
 613:.\Generated_Source\PSoC5/USBUART_1_cdc.c ****     * Global variables:
 614:.\Generated_Source\PSoC5/USBUART_1_cdc.c ****     *  USBUART_1_lineCoding: used to get a parameter.
 615:.\Generated_Source\PSoC5/USBUART_1_cdc.c ****     *
 616:.\Generated_Source\PSoC5/USBUART_1_cdc.c ****     *******************************************************************************/
 617:.\Generated_Source\PSoC5/USBUART_1_cdc.c ****     uint8 USBUART_1_GetCharFormat(void) 
 618:.\Generated_Source\PSoC5/USBUART_1_cdc.c ****     {
 719              		.loc 1 618 0
 720              		.cfi_startproc
 721              		@ args = 0, pretend = 0, frame = 0
 722              		@ frame_needed = 0, uses_anonymous_args = 0
 723              		@ link register save eliminated.
 619:.\Generated_Source\PSoC5/USBUART_1_cdc.c ****         return(USBUART_1_lineCoding[USBUART_1_LINE_CODING_STOP_BITS]);
 724              		.loc 1 619 0
 725 0000 014B     		ldr	r3, .L69
 726 0002 1879     		ldrb	r0, [r3, #4]	@ zero_extendqisi2
 620:.\Generated_Source\PSoC5/USBUART_1_cdc.c ****     }
 727              		.loc 1 620 0
 728 0004 7047     		bx	lr
 729              	.L70:
 730 0006 00BF     		.align	2
 731              	.L69:
 732 0008 00000000 		.word	USBUART_1_lineCoding
 733              		.cfi_endproc
 734              	.LFE15:
 735              		.size	USBUART_1_GetCharFormat, .-USBUART_1_GetCharFormat
 736              		.section	.text.USBUART_1_GetParityType,"ax",%progbits
 737              		.align	1
 738              		.global	USBUART_1_GetParityType
 739              		.thumb
 740              		.thumb_func
 741              		.type	USBUART_1_GetParityType, %function
 742              	USBUART_1_GetParityType:
 743              	.LFB16:
 621:.\Generated_Source\PSoC5/USBUART_1_cdc.c **** 
 622:.\Generated_Source\PSoC5/USBUART_1_cdc.c **** 
 623:.\Generated_Source\PSoC5/USBUART_1_cdc.c ****     /*******************************************************************************
 624:.\Generated_Source\PSoC5/USBUART_1_cdc.c ****     * Function Name: USBUART_1_GetParityType
 625:.\Generated_Source\PSoC5/USBUART_1_cdc.c ****     ********************************************************************************
 626:.\Generated_Source\PSoC5/USBUART_1_cdc.c ****     *
 627:.\Generated_Source\PSoC5/USBUART_1_cdc.c ****     * Summary:
 628:.\Generated_Source\PSoC5/USBUART_1_cdc.c ****     *  Returns the parity type for the CDC port.
 629:.\Generated_Source\PSoC5/USBUART_1_cdc.c ****     *
 630:.\Generated_Source\PSoC5/USBUART_1_cdc.c ****     * Parameters:
 631:.\Generated_Source\PSoC5/USBUART_1_cdc.c ****     *  None.
 632:.\Generated_Source\PSoC5/USBUART_1_cdc.c ****     *
 633:.\Generated_Source\PSoC5/USBUART_1_cdc.c ****     * Return:
 634:.\Generated_Source\PSoC5/USBUART_1_cdc.c ****     *  Returns the parity type.
 635:.\Generated_Source\PSoC5/USBUART_1_cdc.c ****     *
 636:.\Generated_Source\PSoC5/USBUART_1_cdc.c ****     * Global variables:
 637:.\Generated_Source\PSoC5/USBUART_1_cdc.c ****     *  USBUART_1_lineCoding: used to get a parameter.
 638:.\Generated_Source\PSoC5/USBUART_1_cdc.c ****     *
 639:.\Generated_Source\PSoC5/USBUART_1_cdc.c ****     *******************************************************************************/
 640:.\Generated_Source\PSoC5/USBUART_1_cdc.c ****     uint8 USBUART_1_GetParityType(void) 
 641:.\Generated_Source\PSoC5/USBUART_1_cdc.c ****     {
 744              		.loc 1 641 0
ARM GAS  C:\Users\Luke\AppData\Local\Temp\ccJIvIRB.s 			page 26


 745              		.cfi_startproc
 746              		@ args = 0, pretend = 0, frame = 0
 747              		@ frame_needed = 0, uses_anonymous_args = 0
 748              		@ link register save eliminated.
 642:.\Generated_Source\PSoC5/USBUART_1_cdc.c ****         return(USBUART_1_lineCoding[USBUART_1_LINE_CODING_PARITY]);
 749              		.loc 1 642 0
 750 0000 014B     		ldr	r3, .L72
 751 0002 5879     		ldrb	r0, [r3, #5]	@ zero_extendqisi2
 643:.\Generated_Source\PSoC5/USBUART_1_cdc.c ****     }
 752              		.loc 1 643 0
 753 0004 7047     		bx	lr
 754              	.L73:
 755 0006 00BF     		.align	2
 756              	.L72:
 757 0008 00000000 		.word	USBUART_1_lineCoding
 758              		.cfi_endproc
 759              	.LFE16:
 760              		.size	USBUART_1_GetParityType, .-USBUART_1_GetParityType
 761              		.section	.text.USBUART_1_GetDataBits,"ax",%progbits
 762              		.align	1
 763              		.global	USBUART_1_GetDataBits
 764              		.thumb
 765              		.thumb_func
 766              		.type	USBUART_1_GetDataBits, %function
 767              	USBUART_1_GetDataBits:
 768              	.LFB17:
 644:.\Generated_Source\PSoC5/USBUART_1_cdc.c **** 
 645:.\Generated_Source\PSoC5/USBUART_1_cdc.c **** 
 646:.\Generated_Source\PSoC5/USBUART_1_cdc.c ****     /*******************************************************************************
 647:.\Generated_Source\PSoC5/USBUART_1_cdc.c ****     * Function Name: USBUART_1_GetDataBits
 648:.\Generated_Source\PSoC5/USBUART_1_cdc.c ****     ********************************************************************************
 649:.\Generated_Source\PSoC5/USBUART_1_cdc.c ****     *
 650:.\Generated_Source\PSoC5/USBUART_1_cdc.c ****     * Summary:
 651:.\Generated_Source\PSoC5/USBUART_1_cdc.c ****     *  Returns the number of data bits for the CDC port.
 652:.\Generated_Source\PSoC5/USBUART_1_cdc.c ****     *
 653:.\Generated_Source\PSoC5/USBUART_1_cdc.c ****     * Parameters:
 654:.\Generated_Source\PSoC5/USBUART_1_cdc.c ****     *  None.
 655:.\Generated_Source\PSoC5/USBUART_1_cdc.c ****     *
 656:.\Generated_Source\PSoC5/USBUART_1_cdc.c ****     * Return:
 657:.\Generated_Source\PSoC5/USBUART_1_cdc.c ****     *  Returns the number of data bits.
 658:.\Generated_Source\PSoC5/USBUART_1_cdc.c ****     *  The number of data bits can be 5, 6, 7, 8 or 16.
 659:.\Generated_Source\PSoC5/USBUART_1_cdc.c ****     *
 660:.\Generated_Source\PSoC5/USBUART_1_cdc.c ****     * Global variables:
 661:.\Generated_Source\PSoC5/USBUART_1_cdc.c ****     *  USBUART_1_lineCoding: used to get a parameter.
 662:.\Generated_Source\PSoC5/USBUART_1_cdc.c ****     *
 663:.\Generated_Source\PSoC5/USBUART_1_cdc.c ****     *******************************************************************************/
 664:.\Generated_Source\PSoC5/USBUART_1_cdc.c ****     uint8 USBUART_1_GetDataBits(void) 
 665:.\Generated_Source\PSoC5/USBUART_1_cdc.c ****     {
 769              		.loc 1 665 0
 770              		.cfi_startproc
 771              		@ args = 0, pretend = 0, frame = 0
 772              		@ frame_needed = 0, uses_anonymous_args = 0
 773              		@ link register save eliminated.
 666:.\Generated_Source\PSoC5/USBUART_1_cdc.c ****         return(USBUART_1_lineCoding[USBUART_1_LINE_CODING_DATA_BITS]);
 774              		.loc 1 666 0
 775 0000 014B     		ldr	r3, .L75
 776 0002 9879     		ldrb	r0, [r3, #6]	@ zero_extendqisi2
ARM GAS  C:\Users\Luke\AppData\Local\Temp\ccJIvIRB.s 			page 27


 667:.\Generated_Source\PSoC5/USBUART_1_cdc.c ****     }
 777              		.loc 1 667 0
 778 0004 7047     		bx	lr
 779              	.L76:
 780 0006 00BF     		.align	2
 781              	.L75:
 782 0008 00000000 		.word	USBUART_1_lineCoding
 783              		.cfi_endproc
 784              	.LFE17:
 785              		.size	USBUART_1_GetDataBits, .-USBUART_1_GetDataBits
 786              		.section	.text.USBUART_1_GetLineControl,"ax",%progbits
 787              		.align	1
 788              		.global	USBUART_1_GetLineControl
 789              		.thumb
 790              		.thumb_func
 791              		.type	USBUART_1_GetLineControl, %function
 792              	USBUART_1_GetLineControl:
 793              	.LFB18:
 668:.\Generated_Source\PSoC5/USBUART_1_cdc.c **** 
 669:.\Generated_Source\PSoC5/USBUART_1_cdc.c **** 
 670:.\Generated_Source\PSoC5/USBUART_1_cdc.c ****     /*******************************************************************************
 671:.\Generated_Source\PSoC5/USBUART_1_cdc.c ****     * Function Name: USBUART_1_GetLineControl
 672:.\Generated_Source\PSoC5/USBUART_1_cdc.c ****     ********************************************************************************
 673:.\Generated_Source\PSoC5/USBUART_1_cdc.c ****     *
 674:.\Generated_Source\PSoC5/USBUART_1_cdc.c ****     * Summary:
 675:.\Generated_Source\PSoC5/USBUART_1_cdc.c ****     *  Returns Line control bitmap.
 676:.\Generated_Source\PSoC5/USBUART_1_cdc.c ****     *
 677:.\Generated_Source\PSoC5/USBUART_1_cdc.c ****     * Parameters:
 678:.\Generated_Source\PSoC5/USBUART_1_cdc.c ****     *  None.
 679:.\Generated_Source\PSoC5/USBUART_1_cdc.c ****     *
 680:.\Generated_Source\PSoC5/USBUART_1_cdc.c ****     * Return:
 681:.\Generated_Source\PSoC5/USBUART_1_cdc.c ****     *  Returns Line control bitmap.
 682:.\Generated_Source\PSoC5/USBUART_1_cdc.c ****     *
 683:.\Generated_Source\PSoC5/USBUART_1_cdc.c ****     * Global variables:
 684:.\Generated_Source\PSoC5/USBUART_1_cdc.c ****     *  USBUART_1_lineControlBitmap: used to get a parameter.
 685:.\Generated_Source\PSoC5/USBUART_1_cdc.c ****     *
 686:.\Generated_Source\PSoC5/USBUART_1_cdc.c ****     *******************************************************************************/
 687:.\Generated_Source\PSoC5/USBUART_1_cdc.c ****     uint16 USBUART_1_GetLineControl(void) 
 688:.\Generated_Source\PSoC5/USBUART_1_cdc.c ****     {
 794              		.loc 1 688 0
 795              		.cfi_startproc
 796              		@ args = 0, pretend = 0, frame = 0
 797              		@ frame_needed = 0, uses_anonymous_args = 0
 798              		@ link register save eliminated.
 689:.\Generated_Source\PSoC5/USBUART_1_cdc.c ****         return(USBUART_1_lineControlBitmap);
 799              		.loc 1 689 0
 800 0000 014B     		ldr	r3, .L78
 801 0002 1888     		ldrh	r0, [r3, #0]
 690:.\Generated_Source\PSoC5/USBUART_1_cdc.c ****     }
 802              		.loc 1 690 0
 803 0004 80B2     		uxth	r0, r0
 804 0006 7047     		bx	lr
 805              	.L79:
 806              		.align	2
 807              	.L78:
 808 0008 00000000 		.word	USBUART_1_lineControlBitmap
 809              		.cfi_endproc
ARM GAS  C:\Users\Luke\AppData\Local\Temp\ccJIvIRB.s 			page 28


 810              	.LFE18:
 811              		.size	USBUART_1_GetLineControl, .-USBUART_1_GetLineControl
 812              		.comm	USBUART_1_cdc_data_out_ep,1,1
 813              		.comm	USBUART_1_cdc_data_in_ep,1,1
 814              		.comm	USBUART_1_lineControlBitmap,2,2
 815              		.comm	USBUART_1_lineChanged,1,1
 816              		.comm	USBUART_1_lineCoding,7,1
 817              		.section	.rodata
 818              		.set	.LANCHOR0,. + 0
 819              	.LC0:
 820 0000 0D       		.byte	13
 821 0001 0A       		.byte	10
 822              		.text
 823              	.Letext0:
 824              		.file 2 ".\\Generated_Source\\PSoC5\\cytypes.h"
 825              		.file 3 ".\\Generated_Source\\PSoC5\\USBUART_1.h"
 826              		.file 4 ".\\Generated_Source\\PSoC5\\USBUART_1_pvt.h"