ARM GAS  C:\Users\Luke\AppData\Local\Temp\ccE7QuzP.s 			page 1


   1              		.syntax unified
   2              		.cpu cortex-m3
   3              		.fpu softvfp
   4              		.eabi_attribute 20, 1
   5              		.eabi_attribute 21, 1
   6              		.eabi_attribute 23, 3
   7              		.eabi_attribute 24, 1
   8              		.eabi_attribute 25, 1
   9              		.eabi_attribute 26, 1
  10              		.eabi_attribute 30, 4
  11              		.eabi_attribute 34, 1
  12              		.eabi_attribute 18, 4
  13              		.thumb
  14              		.file	"VDAC8.c"
  15              		.text
  16              	.Ltext0:
  17              		.cfi_sections	.debug_frame
  18              		.section	.text.VDAC8_Enable,"ax",%progbits
  19              		.align	1
  20              		.global	VDAC8_Enable
  21              		.thumb
  22              		.thumb_func
  23              		.type	VDAC8_Enable, %function
  24              	VDAC8_Enable:
  25              	.LFB1:
  26              		.file 1 ".\\Generated_Source\\PSoC5\\VDAC8.c"
   1:.\Generated_Source\PSoC5/VDAC8.c **** /*******************************************************************************
   2:.\Generated_Source\PSoC5/VDAC8.c **** * File Name: VDAC8.c  
   3:.\Generated_Source\PSoC5/VDAC8.c **** * Version 1.90
   4:.\Generated_Source\PSoC5/VDAC8.c **** *
   5:.\Generated_Source\PSoC5/VDAC8.c **** * Description:
   6:.\Generated_Source\PSoC5/VDAC8.c **** *  This file provides the source code to the API for the 8-bit Voltage DAC 
   7:.\Generated_Source\PSoC5/VDAC8.c **** *  (VDAC8) User Module.
   8:.\Generated_Source\PSoC5/VDAC8.c **** *
   9:.\Generated_Source\PSoC5/VDAC8.c **** * Note:
  10:.\Generated_Source\PSoC5/VDAC8.c **** *  Any unusual or non-standard behavior should be noted here. Other-
  11:.\Generated_Source\PSoC5/VDAC8.c **** *  wise, this section should remain blank.
  12:.\Generated_Source\PSoC5/VDAC8.c **** *
  13:.\Generated_Source\PSoC5/VDAC8.c **** ********************************************************************************
  14:.\Generated_Source\PSoC5/VDAC8.c **** * Copyright 2008-2012, Cypress Semiconductor Corporation.  All rights reserved.
  15:.\Generated_Source\PSoC5/VDAC8.c **** * You may use this file only in accordance with the license, terms, conditions, 
  16:.\Generated_Source\PSoC5/VDAC8.c **** * disclaimers, and limitations in the end user license agreement accompanying 
  17:.\Generated_Source\PSoC5/VDAC8.c **** * the software package with which this file was provided.
  18:.\Generated_Source\PSoC5/VDAC8.c **** *******************************************************************************/
  19:.\Generated_Source\PSoC5/VDAC8.c **** 
  20:.\Generated_Source\PSoC5/VDAC8.c **** #include "cytypes.h"
  21:.\Generated_Source\PSoC5/VDAC8.c **** #include "VDAC8.h"
  22:.\Generated_Source\PSoC5/VDAC8.c **** 
  23:.\Generated_Source\PSoC5/VDAC8.c **** #if (CY_PSOC5A)
  24:.\Generated_Source\PSoC5/VDAC8.c **** #include <CyLib.h>
  25:.\Generated_Source\PSoC5/VDAC8.c **** #endif /* CY_PSOC5A */
  26:.\Generated_Source\PSoC5/VDAC8.c **** 
  27:.\Generated_Source\PSoC5/VDAC8.c **** uint8 VDAC8_initVar = 0u;
  28:.\Generated_Source\PSoC5/VDAC8.c **** 
  29:.\Generated_Source\PSoC5/VDAC8.c **** #if (CY_PSOC5A)
  30:.\Generated_Source\PSoC5/VDAC8.c ****     static uint8 VDAC8_restoreVal = 0u;
  31:.\Generated_Source\PSoC5/VDAC8.c **** #endif /* CY_PSOC5A */
ARM GAS  C:\Users\Luke\AppData\Local\Temp\ccE7QuzP.s 			page 2


  32:.\Generated_Source\PSoC5/VDAC8.c **** 
  33:.\Generated_Source\PSoC5/VDAC8.c **** #if (CY_PSOC5A)
  34:.\Generated_Source\PSoC5/VDAC8.c ****     static VDAC8_backupStruct VDAC8_backup;
  35:.\Generated_Source\PSoC5/VDAC8.c **** #endif /* CY_PSOC5A */
  36:.\Generated_Source\PSoC5/VDAC8.c **** 
  37:.\Generated_Source\PSoC5/VDAC8.c **** 
  38:.\Generated_Source\PSoC5/VDAC8.c **** /*******************************************************************************
  39:.\Generated_Source\PSoC5/VDAC8.c **** * Function Name: VDAC8_Init
  40:.\Generated_Source\PSoC5/VDAC8.c **** ********************************************************************************
  41:.\Generated_Source\PSoC5/VDAC8.c **** * Summary:
  42:.\Generated_Source\PSoC5/VDAC8.c **** *  Initialize to the schematic state.
  43:.\Generated_Source\PSoC5/VDAC8.c **** * 
  44:.\Generated_Source\PSoC5/VDAC8.c **** * Parameters:
  45:.\Generated_Source\PSoC5/VDAC8.c **** *  void:
  46:.\Generated_Source\PSoC5/VDAC8.c **** *
  47:.\Generated_Source\PSoC5/VDAC8.c **** * Return:
  48:.\Generated_Source\PSoC5/VDAC8.c **** *  void
  49:.\Generated_Source\PSoC5/VDAC8.c **** *
  50:.\Generated_Source\PSoC5/VDAC8.c **** * Theory:
  51:.\Generated_Source\PSoC5/VDAC8.c **** *
  52:.\Generated_Source\PSoC5/VDAC8.c **** * Side Effects:
  53:.\Generated_Source\PSoC5/VDAC8.c **** *
  54:.\Generated_Source\PSoC5/VDAC8.c **** *******************************************************************************/
  55:.\Generated_Source\PSoC5/VDAC8.c **** void VDAC8_Init(void) 
  56:.\Generated_Source\PSoC5/VDAC8.c **** {
  57:.\Generated_Source\PSoC5/VDAC8.c ****     VDAC8_CR0 = (VDAC8_MODE_V );
  58:.\Generated_Source\PSoC5/VDAC8.c **** 
  59:.\Generated_Source\PSoC5/VDAC8.c ****     /* Set default data source */
  60:.\Generated_Source\PSoC5/VDAC8.c ****     #if(VDAC8_DEFAULT_DATA_SRC != 0 )
  61:.\Generated_Source\PSoC5/VDAC8.c ****         VDAC8_CR1 = (VDAC8_DEFAULT_CNTL | VDAC8_DACBUS_ENABLE) ;
  62:.\Generated_Source\PSoC5/VDAC8.c ****     #else
  63:.\Generated_Source\PSoC5/VDAC8.c ****         VDAC8_CR1 = (VDAC8_DEFAULT_CNTL | VDAC8_DACBUS_DISABLE) ;
  64:.\Generated_Source\PSoC5/VDAC8.c ****     #endif /* (VDAC8_DEFAULT_DATA_SRC != 0 ) */
  65:.\Generated_Source\PSoC5/VDAC8.c **** 
  66:.\Generated_Source\PSoC5/VDAC8.c ****     /* Set default strobe mode */
  67:.\Generated_Source\PSoC5/VDAC8.c ****     #if(VDAC8_DEFAULT_STRB != 0)
  68:.\Generated_Source\PSoC5/VDAC8.c ****         VDAC8_Strobe |= VDAC8_STRB_EN ;
  69:.\Generated_Source\PSoC5/VDAC8.c ****     #endif/* (VDAC8_DEFAULT_STRB != 0) */
  70:.\Generated_Source\PSoC5/VDAC8.c **** 
  71:.\Generated_Source\PSoC5/VDAC8.c ****     /* Set default range */
  72:.\Generated_Source\PSoC5/VDAC8.c ****     VDAC8_SetRange(VDAC8_DEFAULT_RANGE); 
  73:.\Generated_Source\PSoC5/VDAC8.c **** 
  74:.\Generated_Source\PSoC5/VDAC8.c ****     /* Set default speed */
  75:.\Generated_Source\PSoC5/VDAC8.c ****     VDAC8_SetSpeed(VDAC8_DEFAULT_SPEED);
  76:.\Generated_Source\PSoC5/VDAC8.c **** }
  77:.\Generated_Source\PSoC5/VDAC8.c **** 
  78:.\Generated_Source\PSoC5/VDAC8.c **** 
  79:.\Generated_Source\PSoC5/VDAC8.c **** /*******************************************************************************
  80:.\Generated_Source\PSoC5/VDAC8.c **** * Function Name: VDAC8_Enable
  81:.\Generated_Source\PSoC5/VDAC8.c **** ********************************************************************************
  82:.\Generated_Source\PSoC5/VDAC8.c **** * Summary:
  83:.\Generated_Source\PSoC5/VDAC8.c **** *  Enable the VDAC8
  84:.\Generated_Source\PSoC5/VDAC8.c **** * 
  85:.\Generated_Source\PSoC5/VDAC8.c **** * Parameters:
  86:.\Generated_Source\PSoC5/VDAC8.c **** *  void
  87:.\Generated_Source\PSoC5/VDAC8.c **** *
  88:.\Generated_Source\PSoC5/VDAC8.c **** * Return:
ARM GAS  C:\Users\Luke\AppData\Local\Temp\ccE7QuzP.s 			page 3


  89:.\Generated_Source\PSoC5/VDAC8.c **** *  void
  90:.\Generated_Source\PSoC5/VDAC8.c **** *
  91:.\Generated_Source\PSoC5/VDAC8.c **** * Theory:
  92:.\Generated_Source\PSoC5/VDAC8.c **** *
  93:.\Generated_Source\PSoC5/VDAC8.c **** * Side Effects:
  94:.\Generated_Source\PSoC5/VDAC8.c **** *
  95:.\Generated_Source\PSoC5/VDAC8.c **** *******************************************************************************/
  96:.\Generated_Source\PSoC5/VDAC8.c **** void VDAC8_Enable(void) 
  97:.\Generated_Source\PSoC5/VDAC8.c **** {
  27              		.loc 1 97 0
  28              		.cfi_startproc
  29              		@ args = 0, pretend = 0, frame = 0
  30              		@ frame_needed = 0, uses_anonymous_args = 0
  31              		@ link register save eliminated.
  98:.\Generated_Source\PSoC5/VDAC8.c ****     VDAC8_PWRMGR |= VDAC8_ACT_PWR_EN;
  32              		.loc 1 98 0
  33 0000 044B     		ldr	r3, .L2
  34 0002 1A78     		ldrb	r2, [r3, #0]	@ zero_extendqisi2
  35 0004 42F00400 		orr	r0, r2, #4
  36 0008 1870     		strb	r0, [r3, #0]
  99:.\Generated_Source\PSoC5/VDAC8.c ****     VDAC8_STBY_PWRMGR |= VDAC8_STBY_PWR_EN;
  37              		.loc 1 99 0
  38 000a 197C     		ldrb	r1, [r3, #16]	@ zero_extendqisi2
  39 000c 41F00402 		orr	r2, r1, #4
  40 0010 1A74     		strb	r2, [r3, #16]
  41 0012 7047     		bx	lr
  42              	.L3:
  43              		.align	2
  44              	.L2:
  45 0014 A8430040 		.word	1073759144
  46              		.cfi_endproc
  47              	.LFE1:
  48              		.size	VDAC8_Enable, .-VDAC8_Enable
  49              		.section	.text.VDAC8_Stop,"ax",%progbits
  50              		.align	1
  51              		.global	VDAC8_Stop
  52              		.thumb
  53              		.thumb_func
  54              		.type	VDAC8_Stop, %function
  55              	VDAC8_Stop:
  56              	.LFB3:
 100:.\Generated_Source\PSoC5/VDAC8.c **** 
 101:.\Generated_Source\PSoC5/VDAC8.c ****     /*This is to restore the value of register CR0 ,
 102:.\Generated_Source\PSoC5/VDAC8.c ****     which is modified  in Stop API , this prevents misbehaviour of VDAC */
 103:.\Generated_Source\PSoC5/VDAC8.c ****     #if (CY_PSOC5A)
 104:.\Generated_Source\PSoC5/VDAC8.c ****         if(VDAC8_restoreVal == 1u) 
 105:.\Generated_Source\PSoC5/VDAC8.c ****         {
 106:.\Generated_Source\PSoC5/VDAC8.c ****              VDAC8_CR0 = VDAC8_backup.data_value;
 107:.\Generated_Source\PSoC5/VDAC8.c ****              VDAC8_restoreVal = 0u;
 108:.\Generated_Source\PSoC5/VDAC8.c ****         }
 109:.\Generated_Source\PSoC5/VDAC8.c ****     #endif /* CY_PSOC5A */
 110:.\Generated_Source\PSoC5/VDAC8.c **** }
 111:.\Generated_Source\PSoC5/VDAC8.c **** 
 112:.\Generated_Source\PSoC5/VDAC8.c **** 
 113:.\Generated_Source\PSoC5/VDAC8.c **** /*******************************************************************************
 114:.\Generated_Source\PSoC5/VDAC8.c **** * Function Name: VDAC8_Start
 115:.\Generated_Source\PSoC5/VDAC8.c **** ********************************************************************************
ARM GAS  C:\Users\Luke\AppData\Local\Temp\ccE7QuzP.s 			page 4


 116:.\Generated_Source\PSoC5/VDAC8.c **** *
 117:.\Generated_Source\PSoC5/VDAC8.c **** * Summary:
 118:.\Generated_Source\PSoC5/VDAC8.c **** *  The start function initializes the voltage DAC with the default values, 
 119:.\Generated_Source\PSoC5/VDAC8.c **** *  and sets the power to the given level.  A power level of 0, is the same as
 120:.\Generated_Source\PSoC5/VDAC8.c **** *  executing the stop function.
 121:.\Generated_Source\PSoC5/VDAC8.c **** *
 122:.\Generated_Source\PSoC5/VDAC8.c **** * Parameters:
 123:.\Generated_Source\PSoC5/VDAC8.c **** *  Power: Sets power level between off (0) and (3) high power
 124:.\Generated_Source\PSoC5/VDAC8.c **** *
 125:.\Generated_Source\PSoC5/VDAC8.c **** * Return:
 126:.\Generated_Source\PSoC5/VDAC8.c **** *  void 
 127:.\Generated_Source\PSoC5/VDAC8.c **** *
 128:.\Generated_Source\PSoC5/VDAC8.c **** * Global variables:
 129:.\Generated_Source\PSoC5/VDAC8.c **** *  VDAC8_initVar: Is modified when this function is called for the 
 130:.\Generated_Source\PSoC5/VDAC8.c **** *  first time. Is used to ensure that initialization happens only once.
 131:.\Generated_Source\PSoC5/VDAC8.c **** *
 132:.\Generated_Source\PSoC5/VDAC8.c **** *******************************************************************************/
 133:.\Generated_Source\PSoC5/VDAC8.c **** void VDAC8_Start(void)  
 134:.\Generated_Source\PSoC5/VDAC8.c **** {
 135:.\Generated_Source\PSoC5/VDAC8.c ****     /* Hardware initiazation only needs to occure the first time */
 136:.\Generated_Source\PSoC5/VDAC8.c ****     if(VDAC8_initVar == 0u)
 137:.\Generated_Source\PSoC5/VDAC8.c ****     { 
 138:.\Generated_Source\PSoC5/VDAC8.c ****         VDAC8_Init();
 139:.\Generated_Source\PSoC5/VDAC8.c ****         VDAC8_initVar = 1u;
 140:.\Generated_Source\PSoC5/VDAC8.c ****     }
 141:.\Generated_Source\PSoC5/VDAC8.c **** 
 142:.\Generated_Source\PSoC5/VDAC8.c ****     /* Enable power to DAC */
 143:.\Generated_Source\PSoC5/VDAC8.c ****     VDAC8_Enable();
 144:.\Generated_Source\PSoC5/VDAC8.c **** 
 145:.\Generated_Source\PSoC5/VDAC8.c ****     /* Set default value */
 146:.\Generated_Source\PSoC5/VDAC8.c ****     VDAC8_SetValue(VDAC8_DEFAULT_DATA); 
 147:.\Generated_Source\PSoC5/VDAC8.c **** }
 148:.\Generated_Source\PSoC5/VDAC8.c **** 
 149:.\Generated_Source\PSoC5/VDAC8.c **** 
 150:.\Generated_Source\PSoC5/VDAC8.c **** /*******************************************************************************
 151:.\Generated_Source\PSoC5/VDAC8.c **** * Function Name: VDAC8_Stop
 152:.\Generated_Source\PSoC5/VDAC8.c **** ********************************************************************************
 153:.\Generated_Source\PSoC5/VDAC8.c **** *
 154:.\Generated_Source\PSoC5/VDAC8.c **** * Summary:
 155:.\Generated_Source\PSoC5/VDAC8.c **** *  Powers down DAC to lowest power state.
 156:.\Generated_Source\PSoC5/VDAC8.c **** *
 157:.\Generated_Source\PSoC5/VDAC8.c **** * Parameters:
 158:.\Generated_Source\PSoC5/VDAC8.c **** *  void
 159:.\Generated_Source\PSoC5/VDAC8.c **** *
 160:.\Generated_Source\PSoC5/VDAC8.c **** * Return:
 161:.\Generated_Source\PSoC5/VDAC8.c **** *  void
 162:.\Generated_Source\PSoC5/VDAC8.c **** *
 163:.\Generated_Source\PSoC5/VDAC8.c **** * Theory:
 164:.\Generated_Source\PSoC5/VDAC8.c **** *
 165:.\Generated_Source\PSoC5/VDAC8.c **** * Side Effects:
 166:.\Generated_Source\PSoC5/VDAC8.c **** *
 167:.\Generated_Source\PSoC5/VDAC8.c **** *******************************************************************************/
 168:.\Generated_Source\PSoC5/VDAC8.c **** void VDAC8_Stop(void) 
 169:.\Generated_Source\PSoC5/VDAC8.c **** {
  57              		.loc 1 169 0
  58              		.cfi_startproc
  59              		@ args = 0, pretend = 0, frame = 0
ARM GAS  C:\Users\Luke\AppData\Local\Temp\ccE7QuzP.s 			page 5


  60              		@ frame_needed = 0, uses_anonymous_args = 0
  61              		@ link register save eliminated.
 170:.\Generated_Source\PSoC5/VDAC8.c ****     /* Disble power to DAC */
 171:.\Generated_Source\PSoC5/VDAC8.c ****     VDAC8_PWRMGR &= (uint8)(~VDAC8_ACT_PWR_EN);
  62              		.loc 1 171 0
  63 0000 044B     		ldr	r3, .L5
  64 0002 1A78     		ldrb	r2, [r3, #0]	@ zero_extendqisi2
  65 0004 02F0FB00 		and	r0, r2, #251
  66 0008 1870     		strb	r0, [r3, #0]
 172:.\Generated_Source\PSoC5/VDAC8.c ****     VDAC8_STBY_PWRMGR &= (uint8)(~VDAC8_STBY_PWR_EN);
  67              		.loc 1 172 0
  68 000a 197C     		ldrb	r1, [r3, #16]	@ zero_extendqisi2
  69 000c 01F0FB02 		and	r2, r1, #251
  70 0010 1A74     		strb	r2, [r3, #16]
  71 0012 7047     		bx	lr
  72              	.L6:
  73              		.align	2
  74              	.L5:
  75 0014 A8430040 		.word	1073759144
  76              		.cfi_endproc
  77              	.LFE3:
  78              		.size	VDAC8_Stop, .-VDAC8_Stop
  79              		.section	.text.VDAC8_SetSpeed,"ax",%progbits
  80              		.align	1
  81              		.global	VDAC8_SetSpeed
  82              		.thumb
  83              		.thumb_func
  84              		.type	VDAC8_SetSpeed, %function
  85              	VDAC8_SetSpeed:
  86              	.LFB4:
 173:.\Generated_Source\PSoC5/VDAC8.c **** 
 174:.\Generated_Source\PSoC5/VDAC8.c ****     /* This is a work around for PSoC5A  ,
 175:.\Generated_Source\PSoC5/VDAC8.c ****     this sets VDAC to current mode with output off */
 176:.\Generated_Source\PSoC5/VDAC8.c ****     #if (CY_PSOC5A)
 177:.\Generated_Source\PSoC5/VDAC8.c ****         VDAC8_backup.data_value = VDAC8_CR0;
 178:.\Generated_Source\PSoC5/VDAC8.c ****         VDAC8_CR0 = VDAC8_CUR_MODE_OUT_OFF;
 179:.\Generated_Source\PSoC5/VDAC8.c ****         VDAC8_restoreVal = 1u;
 180:.\Generated_Source\PSoC5/VDAC8.c ****     #endif /* CY_PSOC5A */
 181:.\Generated_Source\PSoC5/VDAC8.c **** }
 182:.\Generated_Source\PSoC5/VDAC8.c **** 
 183:.\Generated_Source\PSoC5/VDAC8.c **** 
 184:.\Generated_Source\PSoC5/VDAC8.c **** /*******************************************************************************
 185:.\Generated_Source\PSoC5/VDAC8.c **** * Function Name: VDAC8_SetSpeed
 186:.\Generated_Source\PSoC5/VDAC8.c **** ********************************************************************************
 187:.\Generated_Source\PSoC5/VDAC8.c **** *
 188:.\Generated_Source\PSoC5/VDAC8.c **** * Summary:
 189:.\Generated_Source\PSoC5/VDAC8.c **** *  Set DAC speed
 190:.\Generated_Source\PSoC5/VDAC8.c **** *
 191:.\Generated_Source\PSoC5/VDAC8.c **** * Parameters:
 192:.\Generated_Source\PSoC5/VDAC8.c **** *  power: Sets speed value
 193:.\Generated_Source\PSoC5/VDAC8.c **** *
 194:.\Generated_Source\PSoC5/VDAC8.c **** * Return:
 195:.\Generated_Source\PSoC5/VDAC8.c **** *  void
 196:.\Generated_Source\PSoC5/VDAC8.c **** *
 197:.\Generated_Source\PSoC5/VDAC8.c **** * Theory:
 198:.\Generated_Source\PSoC5/VDAC8.c **** *
 199:.\Generated_Source\PSoC5/VDAC8.c **** * Side Effects:
ARM GAS  C:\Users\Luke\AppData\Local\Temp\ccE7QuzP.s 			page 6


 200:.\Generated_Source\PSoC5/VDAC8.c **** *
 201:.\Generated_Source\PSoC5/VDAC8.c **** *******************************************************************************/
 202:.\Generated_Source\PSoC5/VDAC8.c **** void VDAC8_SetSpeed(uint8 speed) 
 203:.\Generated_Source\PSoC5/VDAC8.c **** {
  87              		.loc 1 203 0
  88              		.cfi_startproc
  89              		@ args = 0, pretend = 0, frame = 0
  90              		@ frame_needed = 0, uses_anonymous_args = 0
  91              		@ link register save eliminated.
  92              	.LVL0:
 204:.\Generated_Source\PSoC5/VDAC8.c ****     /* Clear power mask then write in new value */
 205:.\Generated_Source\PSoC5/VDAC8.c ****     VDAC8_CR0 &= (uint8)(~VDAC8_HS_MASK);
  93              		.loc 1 205 0
  94 0000 054B     		ldr	r3, .L8
 206:.\Generated_Source\PSoC5/VDAC8.c ****     VDAC8_CR0 |=  (speed & VDAC8_HS_MASK);
  95              		.loc 1 206 0
  96 0002 00F00200 		and	r0, r0, #2
  97              	.LVL1:
 205:.\Generated_Source\PSoC5/VDAC8.c ****     VDAC8_CR0 &= (uint8)(~VDAC8_HS_MASK);
  98              		.loc 1 205 0
  99 0006 1A78     		ldrb	r2, [r3, #0]	@ zero_extendqisi2
 100 0008 02F0FD01 		and	r1, r2, #253
 101 000c 1970     		strb	r1, [r3, #0]
 102              		.loc 1 206 0
 103 000e 1A78     		ldrb	r2, [r3, #0]	@ zero_extendqisi2
 104 0010 0243     		orrs	r2, r2, r0
 105 0012 1A70     		strb	r2, [r3, #0]
 106 0014 7047     		bx	lr
 107              	.L9:
 108 0016 00BF     		.align	2
 109              	.L8:
 110 0018 28580040 		.word	1073764392
 111              		.cfi_endproc
 112              	.LFE4:
 113              		.size	VDAC8_SetSpeed, .-VDAC8_SetSpeed
 114              		.section	.text.VDAC8_SetValue,"ax",%progbits
 115              		.align	1
 116              		.global	VDAC8_SetValue
 117              		.thumb
 118              		.thumb_func
 119              		.type	VDAC8_SetValue, %function
 120              	VDAC8_SetValue:
 121              	.LFB6:
 207:.\Generated_Source\PSoC5/VDAC8.c **** }
 208:.\Generated_Source\PSoC5/VDAC8.c **** 
 209:.\Generated_Source\PSoC5/VDAC8.c **** 
 210:.\Generated_Source\PSoC5/VDAC8.c **** /*******************************************************************************
 211:.\Generated_Source\PSoC5/VDAC8.c **** * Function Name: VDAC8_SetRange
 212:.\Generated_Source\PSoC5/VDAC8.c **** ********************************************************************************
 213:.\Generated_Source\PSoC5/VDAC8.c **** *
 214:.\Generated_Source\PSoC5/VDAC8.c **** * Summary:
 215:.\Generated_Source\PSoC5/VDAC8.c **** *  Set one of three current ranges.
 216:.\Generated_Source\PSoC5/VDAC8.c **** *
 217:.\Generated_Source\PSoC5/VDAC8.c **** * Parameters:
 218:.\Generated_Source\PSoC5/VDAC8.c **** *  Range: Sets one of Three valid ranges.
 219:.\Generated_Source\PSoC5/VDAC8.c **** *
 220:.\Generated_Source\PSoC5/VDAC8.c **** * Return:
ARM GAS  C:\Users\Luke\AppData\Local\Temp\ccE7QuzP.s 			page 7


 221:.\Generated_Source\PSoC5/VDAC8.c **** *  void 
 222:.\Generated_Source\PSoC5/VDAC8.c **** *
 223:.\Generated_Source\PSoC5/VDAC8.c **** * Theory:
 224:.\Generated_Source\PSoC5/VDAC8.c **** *
 225:.\Generated_Source\PSoC5/VDAC8.c **** * Side Effects:
 226:.\Generated_Source\PSoC5/VDAC8.c **** *
 227:.\Generated_Source\PSoC5/VDAC8.c **** *******************************************************************************/
 228:.\Generated_Source\PSoC5/VDAC8.c **** void VDAC8_SetRange(uint8 range) 
 229:.\Generated_Source\PSoC5/VDAC8.c **** {
 230:.\Generated_Source\PSoC5/VDAC8.c ****     VDAC8_CR0 &= (uint8)(~VDAC8_RANGE_MASK);      /* Clear existing mode */
 231:.\Generated_Source\PSoC5/VDAC8.c ****     VDAC8_CR0 |= (range & VDAC8_RANGE_MASK);      /*  Set Range  */
 232:.\Generated_Source\PSoC5/VDAC8.c ****     VDAC8_DacTrim();
 233:.\Generated_Source\PSoC5/VDAC8.c **** }
 234:.\Generated_Source\PSoC5/VDAC8.c **** 
 235:.\Generated_Source\PSoC5/VDAC8.c **** 
 236:.\Generated_Source\PSoC5/VDAC8.c **** /*******************************************************************************
 237:.\Generated_Source\PSoC5/VDAC8.c **** * Function Name: VDAC8_SetValue
 238:.\Generated_Source\PSoC5/VDAC8.c **** ********************************************************************************
 239:.\Generated_Source\PSoC5/VDAC8.c **** *
 240:.\Generated_Source\PSoC5/VDAC8.c **** * Summary:
 241:.\Generated_Source\PSoC5/VDAC8.c **** *  Set 8-bit DAC value
 242:.\Generated_Source\PSoC5/VDAC8.c **** *
 243:.\Generated_Source\PSoC5/VDAC8.c **** * Parameters:  
 244:.\Generated_Source\PSoC5/VDAC8.c **** *  value:  Sets DAC value between 0 and 255.
 245:.\Generated_Source\PSoC5/VDAC8.c **** *
 246:.\Generated_Source\PSoC5/VDAC8.c **** * Return: 
 247:.\Generated_Source\PSoC5/VDAC8.c **** *  void 
 248:.\Generated_Source\PSoC5/VDAC8.c **** *
 249:.\Generated_Source\PSoC5/VDAC8.c **** * Theory: 
 250:.\Generated_Source\PSoC5/VDAC8.c **** *
 251:.\Generated_Source\PSoC5/VDAC8.c **** * Side Effects:
 252:.\Generated_Source\PSoC5/VDAC8.c **** *
 253:.\Generated_Source\PSoC5/VDAC8.c **** *******************************************************************************/
 254:.\Generated_Source\PSoC5/VDAC8.c **** void VDAC8_SetValue(uint8 value) 
 255:.\Generated_Source\PSoC5/VDAC8.c **** {
 122              		.loc 1 255 0
 123              		.cfi_startproc
 124              		@ args = 0, pretend = 0, frame = 0
 125              		@ frame_needed = 0, uses_anonymous_args = 0
 126              		@ link register save eliminated.
 127              	.LVL2:
 256:.\Generated_Source\PSoC5/VDAC8.c ****     #if (CY_PSOC5A)
 257:.\Generated_Source\PSoC5/VDAC8.c ****         uint8 VDAC8_intrStatus = CyEnterCriticalSection();
 258:.\Generated_Source\PSoC5/VDAC8.c ****     #endif /* CY_PSOC5A */
 259:.\Generated_Source\PSoC5/VDAC8.c **** 
 260:.\Generated_Source\PSoC5/VDAC8.c ****     VDAC8_Data = value;                /*  Set Value  */
 128              		.loc 1 260 0
 129 0000 014B     		ldr	r3, .L11
 130 0002 1870     		strb	r0, [r3, #0]
 131 0004 7047     		bx	lr
 132              	.L12:
 133 0006 00BF     		.align	2
 134              	.L11:
 135 0008 825B0040 		.word	1073765250
 136              		.cfi_endproc
 137              	.LFE6:
 138              		.size	VDAC8_SetValue, .-VDAC8_SetValue
ARM GAS  C:\Users\Luke\AppData\Local\Temp\ccE7QuzP.s 			page 8


 139              		.section	.text.VDAC8_DacTrim,"ax",%progbits
 140              		.align	1
 141              		.global	VDAC8_DacTrim
 142              		.thumb
 143              		.thumb_func
 144              		.type	VDAC8_DacTrim, %function
 145              	VDAC8_DacTrim:
 146              	.LFB7:
 261:.\Generated_Source\PSoC5/VDAC8.c **** 
 262:.\Generated_Source\PSoC5/VDAC8.c ****     /* PSOC5A requires a double write */
 263:.\Generated_Source\PSoC5/VDAC8.c ****     /* Exit Critical Section */
 264:.\Generated_Source\PSoC5/VDAC8.c ****     #if (CY_PSOC5A)
 265:.\Generated_Source\PSoC5/VDAC8.c ****         VDAC8_Data = value;
 266:.\Generated_Source\PSoC5/VDAC8.c ****         CyExitCriticalSection(VDAC8_intrStatus);
 267:.\Generated_Source\PSoC5/VDAC8.c ****     #endif /* CY_PSOC5A */
 268:.\Generated_Source\PSoC5/VDAC8.c **** }
 269:.\Generated_Source\PSoC5/VDAC8.c **** 
 270:.\Generated_Source\PSoC5/VDAC8.c **** 
 271:.\Generated_Source\PSoC5/VDAC8.c **** /*******************************************************************************
 272:.\Generated_Source\PSoC5/VDAC8.c **** * Function Name: VDAC8_DacTrim
 273:.\Generated_Source\PSoC5/VDAC8.c **** ********************************************************************************
 274:.\Generated_Source\PSoC5/VDAC8.c **** *
 275:.\Generated_Source\PSoC5/VDAC8.c **** * Summary:
 276:.\Generated_Source\PSoC5/VDAC8.c **** *  Set the trim value for the given range.
 277:.\Generated_Source\PSoC5/VDAC8.c **** *
 278:.\Generated_Source\PSoC5/VDAC8.c **** * Parameters:
 279:.\Generated_Source\PSoC5/VDAC8.c **** *  range:  1V or 4V range.  See constants.
 280:.\Generated_Source\PSoC5/VDAC8.c **** *
 281:.\Generated_Source\PSoC5/VDAC8.c **** * Return:
 282:.\Generated_Source\PSoC5/VDAC8.c **** *  void
 283:.\Generated_Source\PSoC5/VDAC8.c **** *
 284:.\Generated_Source\PSoC5/VDAC8.c **** * Theory: 
 285:.\Generated_Source\PSoC5/VDAC8.c **** *
 286:.\Generated_Source\PSoC5/VDAC8.c **** * Side Effects:
 287:.\Generated_Source\PSoC5/VDAC8.c **** *
 288:.\Generated_Source\PSoC5/VDAC8.c **** *******************************************************************************/
 289:.\Generated_Source\PSoC5/VDAC8.c **** void VDAC8_DacTrim(void) 
 290:.\Generated_Source\PSoC5/VDAC8.c **** {
 147              		.loc 1 290 0
 148              		.cfi_startproc
 149              		@ args = 0, pretend = 0, frame = 0
 150              		@ frame_needed = 0, uses_anonymous_args = 0
 151              		@ link register save eliminated.
 291:.\Generated_Source\PSoC5/VDAC8.c ****     uint8 mode;
 292:.\Generated_Source\PSoC5/VDAC8.c **** 
 293:.\Generated_Source\PSoC5/VDAC8.c ****     mode = (uint8)((VDAC8_CR0 & VDAC8_RANGE_MASK) >> 2) + VDAC8_TRIM_M7_1V_RNG_OFFSET;
 152              		.loc 1 293 0
 153 0000 054B     		ldr	r3, .L14
 154 0002 1878     		ldrb	r0, [r3, #0]	@ zero_extendqisi2
 155              	.LVL3:
 156 0004 C0F38101 		ubfx	r1, r0, #2, #2
 294:.\Generated_Source\PSoC5/VDAC8.c ****     VDAC8_TR = CY_GET_XTND_REG8((uint8 *)(VDAC8_DAC_TRIM_BASE + mode));
 157              		.loc 1 294 0
 158 0008 8A1D     		adds	r2, r1, #6
 159 000a 02F19243 		add	r3, r2, #1224736768
 160 000e 93F82801 		ldrb	r0, [r3, #296]	@ zero_extendqisi2
 161              	.LVL4:
ARM GAS  C:\Users\Luke\AppData\Local\Temp\ccE7QuzP.s 			page 9


 162 0012 0249     		ldr	r1, .L14+4
 163 0014 0870     		strb	r0, [r1, #0]
 164 0016 7047     		bx	lr
 165              	.L15:
 166              		.align	2
 167              	.L14:
 168 0018 28580040 		.word	1073764392
 169 001c 0A460040 		.word	1073759754
 170              		.cfi_endproc
 171              	.LFE7:
 172              		.size	VDAC8_DacTrim, .-VDAC8_DacTrim
 173              		.section	.text.VDAC8_SetRange,"ax",%progbits
 174              		.align	1
 175              		.global	VDAC8_SetRange
 176              		.thumb
 177              		.thumb_func
 178              		.type	VDAC8_SetRange, %function
 179              	VDAC8_SetRange:
 180              	.LFB5:
 229:.\Generated_Source\PSoC5/VDAC8.c **** {
 181              		.loc 1 229 0
 182              		.cfi_startproc
 183              		@ args = 0, pretend = 0, frame = 0
 184              		@ frame_needed = 0, uses_anonymous_args = 0
 185              		@ link register save eliminated.
 186              	.LVL5:
 230:.\Generated_Source\PSoC5/VDAC8.c ****     VDAC8_CR0 &= (uint8)(~VDAC8_RANGE_MASK);      /* Clear existing mode */
 187              		.loc 1 230 0
 188 0000 054B     		ldr	r3, .L17
 231:.\Generated_Source\PSoC5/VDAC8.c ****     VDAC8_CR0 |= (range & VDAC8_RANGE_MASK);      /*  Set Range  */
 189              		.loc 1 231 0
 190 0002 00F00C00 		and	r0, r0, #12
 191              	.LVL6:
 230:.\Generated_Source\PSoC5/VDAC8.c ****     VDAC8_CR0 &= (uint8)(~VDAC8_RANGE_MASK);      /* Clear existing mode */
 192              		.loc 1 230 0
 193 0006 1A78     		ldrb	r2, [r3, #0]	@ zero_extendqisi2
 194 0008 02F0F301 		and	r1, r2, #243
 195 000c 1970     		strb	r1, [r3, #0]
 231:.\Generated_Source\PSoC5/VDAC8.c ****     VDAC8_CR0 |= (range & VDAC8_RANGE_MASK);      /*  Set Range  */
 196              		.loc 1 231 0
 197 000e 1A78     		ldrb	r2, [r3, #0]	@ zero_extendqisi2
 198 0010 0243     		orrs	r2, r2, r0
 199 0012 1A70     		strb	r2, [r3, #0]
 233:.\Generated_Source\PSoC5/VDAC8.c **** }
 200              		.loc 1 233 0
 232:.\Generated_Source\PSoC5/VDAC8.c ****     VDAC8_DacTrim();
 201              		.loc 1 232 0
 202 0014 FFF7FEBF 		b	VDAC8_DacTrim
 203              	.LVL7:
 204              	.L18:
 205              		.align	2
 206              	.L17:
 207 0018 28580040 		.word	1073764392
 208              		.cfi_endproc
 209              	.LFE5:
 210              		.size	VDAC8_SetRange, .-VDAC8_SetRange
 211              		.section	.text.VDAC8_Init,"ax",%progbits
ARM GAS  C:\Users\Luke\AppData\Local\Temp\ccE7QuzP.s 			page 10


 212              		.align	1
 213              		.global	VDAC8_Init
 214              		.thumb
 215              		.thumb_func
 216              		.type	VDAC8_Init, %function
 217              	VDAC8_Init:
 218              	.LFB0:
  56:.\Generated_Source\PSoC5/VDAC8.c **** {
 219              		.loc 1 56 0
 220              		.cfi_startproc
 221              		@ args = 0, pretend = 0, frame = 0
 222              		@ frame_needed = 0, uses_anonymous_args = 0
  57:.\Generated_Source\PSoC5/VDAC8.c ****     VDAC8_CR0 = (VDAC8_MODE_V );
 223              		.loc 1 57 0
 224 0000 064A     		ldr	r2, .L20
  56:.\Generated_Source\PSoC5/VDAC8.c **** {
 225              		.loc 1 56 0
 226 0002 08B5     		push	{r3, lr}
 227              	.LCFI0:
 228              		.cfi_def_cfa_offset 8
 229              		.cfi_offset 3, -8
 230              		.cfi_offset 14, -4
  57:.\Generated_Source\PSoC5/VDAC8.c ****     VDAC8_CR0 = (VDAC8_MODE_V );
 231              		.loc 1 57 0
 232 0004 0023     		movs	r3, #0
 233 0006 1370     		strb	r3, [r2, #0]
  72:.\Generated_Source\PSoC5/VDAC8.c ****     VDAC8_SetRange(VDAC8_DEFAULT_RANGE); 
 234              		.loc 1 72 0
 235 0008 0420     		movs	r0, #4
  63:.\Generated_Source\PSoC5/VDAC8.c ****         VDAC8_CR1 = (VDAC8_DEFAULT_CNTL | VDAC8_DACBUS_DISABLE) ;
 236              		.loc 1 63 0
 237 000a 5370     		strb	r3, [r2, #1]
  72:.\Generated_Source\PSoC5/VDAC8.c ****     VDAC8_SetRange(VDAC8_DEFAULT_RANGE); 
 238              		.loc 1 72 0
 239 000c FFF7FEFF 		bl	VDAC8_SetRange
 240              	.LVL8:
  75:.\Generated_Source\PSoC5/VDAC8.c ****     VDAC8_SetSpeed(VDAC8_DEFAULT_SPEED);
 241              		.loc 1 75 0
 242 0010 0220     		movs	r0, #2
  76:.\Generated_Source\PSoC5/VDAC8.c **** }
 243              		.loc 1 76 0
 244 0012 BDE80840 		pop	{r3, lr}
  75:.\Generated_Source\PSoC5/VDAC8.c ****     VDAC8_SetSpeed(VDAC8_DEFAULT_SPEED);
 245              		.loc 1 75 0
 246 0016 FFF7FEBF 		b	VDAC8_SetSpeed
 247              	.LVL9:
 248              	.L21:
 249 001a 00BF     		.align	2
 250              	.L20:
 251 001c 28580040 		.word	1073764392
 252              		.cfi_endproc
 253              	.LFE0:
 254              		.size	VDAC8_Init, .-VDAC8_Init
 255              		.section	.text.VDAC8_Start,"ax",%progbits
 256              		.align	1
 257              		.global	VDAC8_Start
 258              		.thumb
ARM GAS  C:\Users\Luke\AppData\Local\Temp\ccE7QuzP.s 			page 11


 259              		.thumb_func
 260              		.type	VDAC8_Start, %function
 261              	VDAC8_Start:
 262              	.LFB2:
 134:.\Generated_Source\PSoC5/VDAC8.c **** {
 263              		.loc 1 134 0
 264              		.cfi_startproc
 265              		@ args = 0, pretend = 0, frame = 0
 266              		@ frame_needed = 0, uses_anonymous_args = 0
 267 0000 10B5     		push	{r4, lr}
 268              	.LCFI1:
 269              		.cfi_def_cfa_offset 8
 270              		.cfi_offset 4, -8
 271              		.cfi_offset 14, -4
 136:.\Generated_Source\PSoC5/VDAC8.c ****     if(VDAC8_initVar == 0u)
 272              		.loc 1 136 0
 273 0002 064C     		ldr	r4, .L25
 274 0004 2378     		ldrb	r3, [r4, #0]	@ zero_extendqisi2
 275 0006 1BB9     		cbnz	r3, .L23
 138:.\Generated_Source\PSoC5/VDAC8.c ****         VDAC8_Init();
 276              		.loc 1 138 0
 277 0008 FFF7FEFF 		bl	VDAC8_Init
 278              	.LVL10:
 139:.\Generated_Source\PSoC5/VDAC8.c ****         VDAC8_initVar = 1u;
 279              		.loc 1 139 0
 280 000c 0120     		movs	r0, #1
 281 000e 2070     		strb	r0, [r4, #0]
 282              	.L23:
 143:.\Generated_Source\PSoC5/VDAC8.c ****     VDAC8_Enable();
 283              		.loc 1 143 0
 284 0010 FFF7FEFF 		bl	VDAC8_Enable
 285              	.LVL11:
 286              	.LBB4:
 287              	.LBB5:
 260:.\Generated_Source\PSoC5/VDAC8.c ****     VDAC8_Data = value;                /*  Set Value  */
 288              		.loc 1 260 0
 289 0014 0249     		ldr	r1, .L25+4
 290 0016 6422     		movs	r2, #100
 291 0018 0A70     		strb	r2, [r1, #0]
 292 001a 10BD     		pop	{r4, pc}
 293              	.L26:
 294              		.align	2
 295              	.L25:
 296 001c 00000000 		.word	.LANCHOR0
 297 0020 825B0040 		.word	1073765250
 298              	.LBE5:
 299              	.LBE4:
 300              		.cfi_endproc
 301              	.LFE2:
 302              		.size	VDAC8_Start, .-VDAC8_Start
 303              		.global	VDAC8_initVar
 304              		.bss
 305              		.set	.LANCHOR0,. + 0
 306              		.type	VDAC8_initVar, %object
 307              		.size	VDAC8_initVar, 1
 308              	VDAC8_initVar:
 309 0000 00       		.space	1
ARM GAS  C:\Users\Luke\AppData\Local\Temp\ccE7QuzP.s 			page 12


 310              		.text
 311              	.Letext0:
 312              		.file 2 ".\\Generated_Source\\PSoC5\\cytypes.h"