ARM GAS  C:\Users\Luggi\AppData\Local\Temp\cclY8GBN.s 			page 1


   1              		.syntax unified
   2              		.cpu cortex-m3
   3              		.fpu softvfp
   4              		.eabi_attribute 20, 1
   5              		.eabi_attribute 21, 1
   6              		.eabi_attribute 23, 3
   7              		.eabi_attribute 24, 1
   8              		.eabi_attribute 25, 1
   9              		.eabi_attribute 26, 1
  10              		.eabi_attribute 30, 4
  11              		.eabi_attribute 34, 1
  12              		.eabi_attribute 18, 4
  13              		.thumb
  14              		.file	"ADC_SAR_2.c"
  15              		.text
  16              	.Ltext0:
  17              		.cfi_sections	.debug_frame
  18              		.section	.text.ADC_SAR_2_Enable,"ax",%progbits
  19              		.align	1
  20              		.global	ADC_SAR_2_Enable
  21              		.thumb
  22              		.thumb_func
  23              		.type	ADC_SAR_2_Enable, %function
  24              	ADC_SAR_2_Enable:
  25              	.LFB2:
  26              		.file 1 "Generated_Source\\PSoC5\\ADC_SAR_2.c"
   1:Generated_Source\PSoC5/ADC_SAR_2.c **** /*******************************************************************************
   2:Generated_Source\PSoC5/ADC_SAR_2.c **** * File Name: ADC_SAR_2.c
   3:Generated_Source\PSoC5/ADC_SAR_2.c **** * Version 3.0
   4:Generated_Source\PSoC5/ADC_SAR_2.c **** *
   5:Generated_Source\PSoC5/ADC_SAR_2.c **** * Description:
   6:Generated_Source\PSoC5/ADC_SAR_2.c **** *  This file provides the source code to the API for the Successive
   7:Generated_Source\PSoC5/ADC_SAR_2.c **** *  approximation ADC Component.
   8:Generated_Source\PSoC5/ADC_SAR_2.c **** *
   9:Generated_Source\PSoC5/ADC_SAR_2.c **** * Note:
  10:Generated_Source\PSoC5/ADC_SAR_2.c **** *
  11:Generated_Source\PSoC5/ADC_SAR_2.c **** ********************************************************************************
  12:Generated_Source\PSoC5/ADC_SAR_2.c **** * Copyright 2008-2015, Cypress Semiconductor Corporation.  All rights reserved.
  13:Generated_Source\PSoC5/ADC_SAR_2.c **** * You may use this file only in accordance with the license, terms, conditions,
  14:Generated_Source\PSoC5/ADC_SAR_2.c **** * disclaimers, and limitations in the end user license agreement accompanying
  15:Generated_Source\PSoC5/ADC_SAR_2.c **** * the software package with which this file was provided.
  16:Generated_Source\PSoC5/ADC_SAR_2.c **** *******************************************************************************/
  17:Generated_Source\PSoC5/ADC_SAR_2.c **** 
  18:Generated_Source\PSoC5/ADC_SAR_2.c **** #include "CyLib.h"
  19:Generated_Source\PSoC5/ADC_SAR_2.c **** #include "ADC_SAR_2.h"
  20:Generated_Source\PSoC5/ADC_SAR_2.c **** 
  21:Generated_Source\PSoC5/ADC_SAR_2.c **** #if(ADC_SAR_2_DEFAULT_INTERNAL_CLK)
  22:Generated_Source\PSoC5/ADC_SAR_2.c ****     #include "ADC_SAR_2_theACLK.h"
  23:Generated_Source\PSoC5/ADC_SAR_2.c **** #endif /* End ADC_SAR_2_DEFAULT_INTERNAL_CLK */
  24:Generated_Source\PSoC5/ADC_SAR_2.c **** 
  25:Generated_Source\PSoC5/ADC_SAR_2.c **** 
  26:Generated_Source\PSoC5/ADC_SAR_2.c **** /***************************************
  27:Generated_Source\PSoC5/ADC_SAR_2.c **** * Forward function references
  28:Generated_Source\PSoC5/ADC_SAR_2.c **** ***************************************/
  29:Generated_Source\PSoC5/ADC_SAR_2.c **** static void ADC_SAR_2_CalcGain(uint8 resolution);
  30:Generated_Source\PSoC5/ADC_SAR_2.c **** 
  31:Generated_Source\PSoC5/ADC_SAR_2.c **** 
ARM GAS  C:\Users\Luggi\AppData\Local\Temp\cclY8GBN.s 			page 2


  32:Generated_Source\PSoC5/ADC_SAR_2.c **** /***************************************
  33:Generated_Source\PSoC5/ADC_SAR_2.c **** * Global data allocation
  34:Generated_Source\PSoC5/ADC_SAR_2.c **** ***************************************/
  35:Generated_Source\PSoC5/ADC_SAR_2.c **** uint8 ADC_SAR_2_initVar = 0u;
  36:Generated_Source\PSoC5/ADC_SAR_2.c **** volatile int16 ADC_SAR_2_offset;
  37:Generated_Source\PSoC5/ADC_SAR_2.c **** volatile int16 ADC_SAR_2_countsPerVolt;     /* Obsolete Gain compensation */
  38:Generated_Source\PSoC5/ADC_SAR_2.c **** volatile int32 ADC_SAR_2_countsPer10Volt;   /* Gain compensation */
  39:Generated_Source\PSoC5/ADC_SAR_2.c **** volatile int16 ADC_SAR_2_shift;
  40:Generated_Source\PSoC5/ADC_SAR_2.c **** 
  41:Generated_Source\PSoC5/ADC_SAR_2.c **** 
  42:Generated_Source\PSoC5/ADC_SAR_2.c **** /*******************************************************************************
  43:Generated_Source\PSoC5/ADC_SAR_2.c **** * Function Name: ADC_SAR_2_Start
  44:Generated_Source\PSoC5/ADC_SAR_2.c **** ********************************************************************************
  45:Generated_Source\PSoC5/ADC_SAR_2.c **** *
  46:Generated_Source\PSoC5/ADC_SAR_2.c **** * Summary:
  47:Generated_Source\PSoC5/ADC_SAR_2.c **** *  This is the preferred method to begin component operation.
  48:Generated_Source\PSoC5/ADC_SAR_2.c **** *  ADC_SAR_2_Start() sets the initVar variable, calls the
  49:Generated_Source\PSoC5/ADC_SAR_2.c **** *  ADC_SAR_2_Init() function, and then calls the
  50:Generated_Source\PSoC5/ADC_SAR_2.c **** *  ADC_SAR_2_Enable() function.
  51:Generated_Source\PSoC5/ADC_SAR_2.c **** *
  52:Generated_Source\PSoC5/ADC_SAR_2.c **** * Parameters:
  53:Generated_Source\PSoC5/ADC_SAR_2.c **** *  None.
  54:Generated_Source\PSoC5/ADC_SAR_2.c **** *
  55:Generated_Source\PSoC5/ADC_SAR_2.c **** * Return:
  56:Generated_Source\PSoC5/ADC_SAR_2.c **** *  None.
  57:Generated_Source\PSoC5/ADC_SAR_2.c **** *
  58:Generated_Source\PSoC5/ADC_SAR_2.c **** * Global variables:
  59:Generated_Source\PSoC5/ADC_SAR_2.c **** *  The ADC_SAR_2_initVar variable is used to indicate when/if initial
  60:Generated_Source\PSoC5/ADC_SAR_2.c **** *  configuration of this component has happened. The variable is initialized to
  61:Generated_Source\PSoC5/ADC_SAR_2.c **** *  zero and set to 1 the first time ADC_Start() is called. This allows for
  62:Generated_Source\PSoC5/ADC_SAR_2.c **** *  component Re-Start without re-initialization in all subsequent calls to the
  63:Generated_Source\PSoC5/ADC_SAR_2.c **** *  ADC_SAR_2_Start() routine.
  64:Generated_Source\PSoC5/ADC_SAR_2.c **** *  If re-initialization of the component is required the variable should be set
  65:Generated_Source\PSoC5/ADC_SAR_2.c **** *  to zero before call of ADC_SAR_2_Start() routine, or the user may call
  66:Generated_Source\PSoC5/ADC_SAR_2.c **** *  ADC_SAR_2_Init() and ADC_SAR_2_Enable() as done in the
  67:Generated_Source\PSoC5/ADC_SAR_2.c **** *  ADC_SAR_2_Start() routine.
  68:Generated_Source\PSoC5/ADC_SAR_2.c **** *
  69:Generated_Source\PSoC5/ADC_SAR_2.c **** * Side Effect:
  70:Generated_Source\PSoC5/ADC_SAR_2.c **** *  If the initVar variable is already set, this function only calls the
  71:Generated_Source\PSoC5/ADC_SAR_2.c **** *  ADC_SAR_2_Enable() function.
  72:Generated_Source\PSoC5/ADC_SAR_2.c **** *
  73:Generated_Source\PSoC5/ADC_SAR_2.c **** *******************************************************************************/
  74:Generated_Source\PSoC5/ADC_SAR_2.c **** void ADC_SAR_2_Start(void)
  75:Generated_Source\PSoC5/ADC_SAR_2.c **** {
  76:Generated_Source\PSoC5/ADC_SAR_2.c **** 
  77:Generated_Source\PSoC5/ADC_SAR_2.c ****     /* If not Initialized then initialize all required hardware and software */
  78:Generated_Source\PSoC5/ADC_SAR_2.c ****     if(ADC_SAR_2_initVar == 0u)
  79:Generated_Source\PSoC5/ADC_SAR_2.c ****     {
  80:Generated_Source\PSoC5/ADC_SAR_2.c ****         ADC_SAR_2_Init();
  81:Generated_Source\PSoC5/ADC_SAR_2.c ****         ADC_SAR_2_initVar = 1u;
  82:Generated_Source\PSoC5/ADC_SAR_2.c ****     }
  83:Generated_Source\PSoC5/ADC_SAR_2.c ****     ADC_SAR_2_Enable();
  84:Generated_Source\PSoC5/ADC_SAR_2.c **** }
  85:Generated_Source\PSoC5/ADC_SAR_2.c **** 
  86:Generated_Source\PSoC5/ADC_SAR_2.c **** 
  87:Generated_Source\PSoC5/ADC_SAR_2.c **** /*******************************************************************************
  88:Generated_Source\PSoC5/ADC_SAR_2.c **** * Function Name: ADC_SAR_2_Init
ARM GAS  C:\Users\Luggi\AppData\Local\Temp\cclY8GBN.s 			page 3


  89:Generated_Source\PSoC5/ADC_SAR_2.c **** ********************************************************************************
  90:Generated_Source\PSoC5/ADC_SAR_2.c **** *
  91:Generated_Source\PSoC5/ADC_SAR_2.c **** * Summary:
  92:Generated_Source\PSoC5/ADC_SAR_2.c **** *  Initialize component's parameters to the parameters set by user in the
  93:Generated_Source\PSoC5/ADC_SAR_2.c **** *  customizer of the component placed onto schematic. Usually called in
  94:Generated_Source\PSoC5/ADC_SAR_2.c **** *  ADC_SAR_2_Start().
  95:Generated_Source\PSoC5/ADC_SAR_2.c **** *
  96:Generated_Source\PSoC5/ADC_SAR_2.c **** * Parameters:
  97:Generated_Source\PSoC5/ADC_SAR_2.c **** *  None.
  98:Generated_Source\PSoC5/ADC_SAR_2.c **** *
  99:Generated_Source\PSoC5/ADC_SAR_2.c **** * Return:
 100:Generated_Source\PSoC5/ADC_SAR_2.c **** *  None.
 101:Generated_Source\PSoC5/ADC_SAR_2.c **** *
 102:Generated_Source\PSoC5/ADC_SAR_2.c **** * Global variables:
 103:Generated_Source\PSoC5/ADC_SAR_2.c **** *  The ADC_SAR_2_offset variable is initialized to 0.
 104:Generated_Source\PSoC5/ADC_SAR_2.c **** *
 105:Generated_Source\PSoC5/ADC_SAR_2.c **** *******************************************************************************/
 106:Generated_Source\PSoC5/ADC_SAR_2.c **** void ADC_SAR_2_Init(void)
 107:Generated_Source\PSoC5/ADC_SAR_2.c **** {
 108:Generated_Source\PSoC5/ADC_SAR_2.c **** 
 109:Generated_Source\PSoC5/ADC_SAR_2.c ****     /* This is only valid if there is an internal clock */
 110:Generated_Source\PSoC5/ADC_SAR_2.c ****     #if(ADC_SAR_2_DEFAULT_INTERNAL_CLK)
 111:Generated_Source\PSoC5/ADC_SAR_2.c ****         ADC_SAR_2_theACLK_SetMode(CYCLK_DUTY);
 112:Generated_Source\PSoC5/ADC_SAR_2.c ****     #endif /* End ADC_SAR_2_DEFAULT_INTERNAL_CLK */
 113:Generated_Source\PSoC5/ADC_SAR_2.c **** 
 114:Generated_Source\PSoC5/ADC_SAR_2.c ****     #if(ADC_SAR_2_IRQ_REMOVE == 0u)
 115:Generated_Source\PSoC5/ADC_SAR_2.c ****         /* Start and set interrupt vector */
 116:Generated_Source\PSoC5/ADC_SAR_2.c ****         CyIntSetPriority(ADC_SAR_2_INTC_NUMBER, ADC_SAR_2_INTC_PRIOR_NUMBER);
 117:Generated_Source\PSoC5/ADC_SAR_2.c ****         (void)CyIntSetVector(ADC_SAR_2_INTC_NUMBER, &ADC_SAR_2_ISR);
 118:Generated_Source\PSoC5/ADC_SAR_2.c ****     #endif   /* End ADC_SAR_2_IRQ_REMOVE */
 119:Generated_Source\PSoC5/ADC_SAR_2.c **** 
 120:Generated_Source\PSoC5/ADC_SAR_2.c ****     /* Enable IRQ mode*/
 121:Generated_Source\PSoC5/ADC_SAR_2.c ****     ADC_SAR_2_SAR_CSR1_REG |= ADC_SAR_2_SAR_IRQ_MASK_EN | ADC_SAR_2_SAR_IRQ_MODE_EDGE;
 122:Generated_Source\PSoC5/ADC_SAR_2.c **** 
 123:Generated_Source\PSoC5/ADC_SAR_2.c ****     /*Set SAR ADC resolution ADC */
 124:Generated_Source\PSoC5/ADC_SAR_2.c ****     ADC_SAR_2_SetResolution(ADC_SAR_2_DEFAULT_RESOLUTION);
 125:Generated_Source\PSoC5/ADC_SAR_2.c ****     ADC_SAR_2_offset = 0;
 126:Generated_Source\PSoC5/ADC_SAR_2.c **** }
 127:Generated_Source\PSoC5/ADC_SAR_2.c **** 
 128:Generated_Source\PSoC5/ADC_SAR_2.c **** 
 129:Generated_Source\PSoC5/ADC_SAR_2.c **** /*******************************************************************************
 130:Generated_Source\PSoC5/ADC_SAR_2.c **** * Function Name: ADC_SAR_2_Enable
 131:Generated_Source\PSoC5/ADC_SAR_2.c **** ********************************************************************************
 132:Generated_Source\PSoC5/ADC_SAR_2.c **** *
 133:Generated_Source\PSoC5/ADC_SAR_2.c **** * Summary:
 134:Generated_Source\PSoC5/ADC_SAR_2.c **** *  Enables the reference, clock and power for SAR ADC.
 135:Generated_Source\PSoC5/ADC_SAR_2.c **** *
 136:Generated_Source\PSoC5/ADC_SAR_2.c **** * Parameters:
 137:Generated_Source\PSoC5/ADC_SAR_2.c **** *  None.
 138:Generated_Source\PSoC5/ADC_SAR_2.c **** *
 139:Generated_Source\PSoC5/ADC_SAR_2.c **** * Return:
 140:Generated_Source\PSoC5/ADC_SAR_2.c **** *  None.
 141:Generated_Source\PSoC5/ADC_SAR_2.c **** *
 142:Generated_Source\PSoC5/ADC_SAR_2.c **** *******************************************************************************/
 143:Generated_Source\PSoC5/ADC_SAR_2.c **** void ADC_SAR_2_Enable(void)
 144:Generated_Source\PSoC5/ADC_SAR_2.c **** {
  27              		.loc 1 144 0
ARM GAS  C:\Users\Luggi\AppData\Local\Temp\cclY8GBN.s 			page 4


  28              		.cfi_startproc
  29              		@ args = 0, pretend = 0, frame = 0
  30              		@ frame_needed = 0, uses_anonymous_args = 0
  31 0000 10B5     		push	{r4, lr}
  32              		.cfi_def_cfa_offset 8
  33              		.cfi_offset 4, -8
  34              		.cfi_offset 14, -4
 145:Generated_Source\PSoC5/ADC_SAR_2.c ****     uint8 tmpReg;
 146:Generated_Source\PSoC5/ADC_SAR_2.c ****     uint8 enableInterrupts;
 147:Generated_Source\PSoC5/ADC_SAR_2.c ****     enableInterrupts = CyEnterCriticalSection();
  35              		.loc 1 147 0
  36 0002 FFF7FEFF 		bl	CyEnterCriticalSection
  37              	.LVL0:
 148:Generated_Source\PSoC5/ADC_SAR_2.c **** 
 149:Generated_Source\PSoC5/ADC_SAR_2.c ****     /* Enable the SAR ADC block in Active Power Mode */
 150:Generated_Source\PSoC5/ADC_SAR_2.c ****     ADC_SAR_2_PWRMGR_SAR_REG |= ADC_SAR_2_ACT_PWR_SAR_EN;
  38              		.loc 1 150 0
  39 0006 214A     		ldr	r2, .L2
 147:Generated_Source\PSoC5/ADC_SAR_2.c **** 
  40              		.loc 1 147 0
  41 0008 0446     		mov	r4, r0
  42              	.LVL1:
  43              		.loc 1 150 0
  44 000a 1378     		ldrb	r3, [r2]	@ zero_extendqisi2
 151:Generated_Source\PSoC5/ADC_SAR_2.c **** 
 152:Generated_Source\PSoC5/ADC_SAR_2.c ****      /* Enable the SAR ADC in Standby Power Mode*/
 153:Generated_Source\PSoC5/ADC_SAR_2.c ****     ADC_SAR_2_STBY_PWRMGR_SAR_REG |= ADC_SAR_2_STBY_PWR_SAR_EN;
 154:Generated_Source\PSoC5/ADC_SAR_2.c **** 
 155:Generated_Source\PSoC5/ADC_SAR_2.c ****     /* This is only valid if there is an internal clock */
 156:Generated_Source\PSoC5/ADC_SAR_2.c ****     #if(ADC_SAR_2_DEFAULT_INTERNAL_CLK)
 157:Generated_Source\PSoC5/ADC_SAR_2.c ****         ADC_SAR_2_PWRMGR_CLK_REG |= ADC_SAR_2_ACT_PWR_CLK_EN;
 158:Generated_Source\PSoC5/ADC_SAR_2.c ****         ADC_SAR_2_STBY_PWRMGR_CLK_REG |= ADC_SAR_2_STBY_PWR_CLK_EN;
 159:Generated_Source\PSoC5/ADC_SAR_2.c ****     #endif /* End ADC_SAR_2_DEFAULT_INTERNAL_CLK */
 160:Generated_Source\PSoC5/ADC_SAR_2.c **** 
 161:Generated_Source\PSoC5/ADC_SAR_2.c ****     /* Enable VCM buffer and Enable Int Ref Amp */
 162:Generated_Source\PSoC5/ADC_SAR_2.c ****     tmpReg = ADC_SAR_2_SAR_CSR3_REG;
 163:Generated_Source\PSoC5/ADC_SAR_2.c ****     tmpReg |= ADC_SAR_2_SAR_EN_BUF_VCM_EN;
 164:Generated_Source\PSoC5/ADC_SAR_2.c ****     /* PD_BUF_VREF is OFF in External reference or Vdda reference mode */
 165:Generated_Source\PSoC5/ADC_SAR_2.c ****     #if((ADC_SAR_2_DEFAULT_REFERENCE == ADC_SAR_2__EXT_REF) || \
 166:Generated_Source\PSoC5/ADC_SAR_2.c ****         (ADC_SAR_2_DEFAULT_RANGE == ADC_SAR_2__VNEG_VDDA_DIFF))
 167:Generated_Source\PSoC5/ADC_SAR_2.c ****         tmpReg &= (uint8)~ADC_SAR_2_SAR_EN_BUF_VREF_EN;
 168:Generated_Source\PSoC5/ADC_SAR_2.c ****     #else /* In INTREF or INTREF Bypassed this buffer is ON */
 169:Generated_Source\PSoC5/ADC_SAR_2.c ****         tmpReg |= ADC_SAR_2_SAR_EN_BUF_VREF_EN;
 170:Generated_Source\PSoC5/ADC_SAR_2.c ****     #endif /* ADC_SAR_2_DEFAULT_REFERENCE == ADC_SAR_2__EXT_REF */
 171:Generated_Source\PSoC5/ADC_SAR_2.c ****     ADC_SAR_2_SAR_CSR3_REG = tmpReg;
 172:Generated_Source\PSoC5/ADC_SAR_2.c **** 
 173:Generated_Source\PSoC5/ADC_SAR_2.c ****     /* Set reference for ADC */
 174:Generated_Source\PSoC5/ADC_SAR_2.c ****     #if(ADC_SAR_2_DEFAULT_RANGE == ADC_SAR_2__VNEG_VDDA_DIFF)
 175:Generated_Source\PSoC5/ADC_SAR_2.c ****         #if(ADC_SAR_2_DEFAULT_REFERENCE == ADC_SAR_2__EXT_REF)
 176:Generated_Source\PSoC5/ADC_SAR_2.c ****             ADC_SAR_2_SAR_CSR6_REG = ADC_SAR_2_INT_BYPASS_EXT_VREF; /* S2 */
 177:Generated_Source\PSoC5/ADC_SAR_2.c ****         #else /* Internal Vdda reference or obsolete bypass mode */
 178:Generated_Source\PSoC5/ADC_SAR_2.c ****             ADC_SAR_2_SAR_CSR6_REG = ADC_SAR_2_VDDA_VREF;           /* S7 */
 179:Generated_Source\PSoC5/ADC_SAR_2.c ****         #endif /* ADC_SAR_2_DEFAULT_REFERENCE == ADC_SAR_2__EXT_REF */
 180:Generated_Source\PSoC5/ADC_SAR_2.c ****     #else  /* Reference goes through internal buffer */
 181:Generated_Source\PSoC5/ADC_SAR_2.c ****         #if(ADC_SAR_2_DEFAULT_REFERENCE == ADC_SAR_2__INT_REF_NOT_BYPASSED)
 182:Generated_Source\PSoC5/ADC_SAR_2.c ****             ADC_SAR_2_SAR_CSR6_REG = ADC_SAR_2_INT_VREF;            /* S3 + S4 */
 183:Generated_Source\PSoC5/ADC_SAR_2.c ****         #else /* INTREF Bypassed of External */
ARM GAS  C:\Users\Luggi\AppData\Local\Temp\cclY8GBN.s 			page 5


 184:Generated_Source\PSoC5/ADC_SAR_2.c ****             ADC_SAR_2_SAR_CSR6_REG = ADC_SAR_2_INT_BYPASS_EXT_VREF; /* S2 */
 185:Generated_Source\PSoC5/ADC_SAR_2.c ****         #endif /* ADC_SAR_2_DEFAULT_REFERENCE == ADC_SAR_2__INT_REF_NOT_BYPASSED */
 186:Generated_Source\PSoC5/ADC_SAR_2.c ****     #endif /* VNEG_VDDA_DIFF */
 187:Generated_Source\PSoC5/ADC_SAR_2.c **** 
 188:Generated_Source\PSoC5/ADC_SAR_2.c ****     /* Low non-overlap delay for sampling clock signals (for 1MSPS) */
 189:Generated_Source\PSoC5/ADC_SAR_2.c ****     #if(ADC_SAR_2_HIGH_POWER_PULSE == 0u) /* MinPulseWidth <= 50 ns */
 190:Generated_Source\PSoC5/ADC_SAR_2.c ****         ADC_SAR_2_SAR_CSR5_REG &= (uint8)~ADC_SAR_2_SAR_DLY_INC;
 191:Generated_Source\PSoC5/ADC_SAR_2.c ****     #else /* Set High non-overlap delay for sampling clock signals (for <500KSPS)*/
 192:Generated_Source\PSoC5/ADC_SAR_2.c ****         ADC_SAR_2_SAR_CSR5_REG |= ADC_SAR_2_SAR_DLY_INC;
 193:Generated_Source\PSoC5/ADC_SAR_2.c ****     #endif /* ADC_SAR_2_HIGH_POWER_PULSE == 0u */
 194:Generated_Source\PSoC5/ADC_SAR_2.c **** 
 195:Generated_Source\PSoC5/ADC_SAR_2.c ****     /* Increase comparator latch enable delay by 20%, 
 196:Generated_Source\PSoC5/ADC_SAR_2.c ****     *  Increase comparator bias current by 30% without impacting delaysDelay 
 197:Generated_Source\PSoC5/ADC_SAR_2.c ****     *  Default for 1MSPS) 
 198:Generated_Source\PSoC5/ADC_SAR_2.c ****     */
 199:Generated_Source\PSoC5/ADC_SAR_2.c ****     #if(ADC_SAR_2_HIGH_POWER_PULSE == 0u)    /* MinPulseWidth <= 50 ns */
 200:Generated_Source\PSoC5/ADC_SAR_2.c ****         ADC_SAR_2_SAR_CSR5_REG |= ADC_SAR_2_SAR_SEL_CSEL_DFT_CHAR;
 201:Generated_Source\PSoC5/ADC_SAR_2.c ****     #else /* for <500ksps */
 202:Generated_Source\PSoC5/ADC_SAR_2.c ****         ADC_SAR_2_SAR_CSR5_REG &= (uint8)~ADC_SAR_2_SAR_SEL_CSEL_DFT_CHAR;
 203:Generated_Source\PSoC5/ADC_SAR_2.c ****     #endif /* ADC_SAR_2_HIGH_POWER_PULSE == 0u */
 204:Generated_Source\PSoC5/ADC_SAR_2.c **** 
 205:Generated_Source\PSoC5/ADC_SAR_2.c ****     /* Set default power and other configurations for control register 0 in multiple lines */
 206:Generated_Source\PSoC5/ADC_SAR_2.c ****     ADC_SAR_2_SAR_CSR0_REG = (uint8)((uint8)ADC_SAR_2_DEFAULT_POWER << ADC_SAR_2_SAR_POWER_SHIFT)
 207:Generated_Source\PSoC5/ADC_SAR_2.c ****     /* SAR_HIZ_CLEAR:   Should not be used for LP */
 208:Generated_Source\PSoC5/ADC_SAR_2.c ****     #if ((CY_PSOC5LP) || (ADC_SAR_2_DEFAULT_REFERENCE != ADC_SAR_2__EXT_REF))
 209:Generated_Source\PSoC5/ADC_SAR_2.c ****         | ADC_SAR_2_SAR_HIZ_CLEAR
 210:Generated_Source\PSoC5/ADC_SAR_2.c ****     #endif /* SAR_HIZ_CLEAR */
 211:Generated_Source\PSoC5/ADC_SAR_2.c ****     /*Set Convertion mode */
 212:Generated_Source\PSoC5/ADC_SAR_2.c ****     #if(ADC_SAR_2_DEFAULT_CONV_MODE != ADC_SAR_2__FREE_RUNNING)      /* If triggered mode */
 213:Generated_Source\PSoC5/ADC_SAR_2.c ****         | ADC_SAR_2_SAR_MX_SOF_UDB           /* source: UDB */
 214:Generated_Source\PSoC5/ADC_SAR_2.c ****         | ADC_SAR_2_SAR_SOF_MODE_EDGE        /* Set edge-sensitive sof source */
 215:Generated_Source\PSoC5/ADC_SAR_2.c ****     #endif /* ADC_SAR_2_DEFAULT_CONV_MODE */
 216:Generated_Source\PSoC5/ADC_SAR_2.c ****     ; /* end of multiple line initialization */
 217:Generated_Source\PSoC5/ADC_SAR_2.c **** 
 218:Generated_Source\PSoC5/ADC_SAR_2.c ****     ADC_SAR_2_SAR_TR0_REG = ADC_SAR_2_SAR_CAP_TRIM_2;
 219:Generated_Source\PSoC5/ADC_SAR_2.c **** 
 220:Generated_Source\PSoC5/ADC_SAR_2.c ****     /* Enable clock for SAR ADC*/
 221:Generated_Source\PSoC5/ADC_SAR_2.c ****     ADC_SAR_2_SAR_CLK_REG |= ADC_SAR_2_SAR_MX_CLK_EN;
 222:Generated_Source\PSoC5/ADC_SAR_2.c **** 
 223:Generated_Source\PSoC5/ADC_SAR_2.c ****     CyDelayUs(10u); /* The block is ready to use 10 us after the enable signal is set high. */
  45              		.loc 1 223 0
  46 000c 0A20     		movs	r0, #10
 150:Generated_Source\PSoC5/ADC_SAR_2.c **** 
  47              		.loc 1 150 0
  48 000e 43F00103 		orr	r3, r3, #1
  49 0012 1370     		strb	r3, [r2]
 153:Generated_Source\PSoC5/ADC_SAR_2.c **** 
  50              		.loc 1 153 0
  51 0014 137C     		ldrb	r3, [r2, #16]	@ zero_extendqisi2
  52 0016 43F00103 		orr	r3, r3, #1
  53 001a 1374     		strb	r3, [r2, #16]
 157:Generated_Source\PSoC5/ADC_SAR_2.c ****         ADC_SAR_2_STBY_PWRMGR_CLK_REG |= ADC_SAR_2_STBY_PWR_CLK_EN;
  54              		.loc 1 157 0
  55 001c 12F8093C 		ldrb	r3, [r2, #-9]	@ zero_extendqisi2
  56 0020 43F00403 		orr	r3, r3, #4
  57 0024 02F8093C 		strb	r3, [r2, #-9]
 158:Generated_Source\PSoC5/ADC_SAR_2.c ****     #endif /* End ADC_SAR_2_DEFAULT_INTERNAL_CLK */
ARM GAS  C:\Users\Luggi\AppData\Local\Temp\cclY8GBN.s 			page 6


  58              		.loc 1 158 0
  59 0028 D379     		ldrb	r3, [r2, #7]	@ zero_extendqisi2
  60 002a 43F00403 		orr	r3, r3, #4
  61 002e D371     		strb	r3, [r2, #7]
 162:Generated_Source\PSoC5/ADC_SAR_2.c ****     tmpReg |= ADC_SAR_2_SAR_EN_BUF_VCM_EN;
  62              		.loc 1 162 0
  63 0030 02F5AA52 		add	r2, r2, #5440
  64 0034 1832     		adds	r2, r2, #24
  65 0036 1378     		ldrb	r3, [r2]	@ zero_extendqisi2
  66              	.LVL2:
 169:Generated_Source\PSoC5/ADC_SAR_2.c ****     #endif /* ADC_SAR_2_DEFAULT_REFERENCE == ADC_SAR_2__EXT_REF */
  67              		.loc 1 169 0
  68 0038 43F00303 		orr	r3, r3, #3
  69              	.LVL3:
 171:Generated_Source\PSoC5/ADC_SAR_2.c **** 
  70              		.loc 1 171 0
  71 003c 1370     		strb	r3, [r2]
 182:Generated_Source\PSoC5/ADC_SAR_2.c ****         #else /* INTREF Bypassed of External */
  72              		.loc 1 182 0
  73 003e 144B     		ldr	r3, .L2+4
  74              	.LVL4:
  75 0040 1822     		movs	r2, #24
  76              	.LVL5:
  77 0042 1A70     		strb	r2, [r3]
  78              	.LVL6:
 192:Generated_Source\PSoC5/ADC_SAR_2.c ****     #endif /* ADC_SAR_2_HIGH_POWER_PULSE == 0u */
  79              		.loc 1 192 0
  80 0044 13F8012C 		ldrb	r2, [r3, #-1]	@ zero_extendqisi2
  81 0048 42F04002 		orr	r2, r2, #64
  82 004c 03F8012C 		strb	r2, [r3, #-1]
 202:Generated_Source\PSoC5/ADC_SAR_2.c ****     #endif /* ADC_SAR_2_HIGH_POWER_PULSE == 0u */
  83              		.loc 1 202 0
  84 0050 13F8012C 		ldrb	r2, [r3, #-1]	@ zero_extendqisi2
  85 0054 02F0FC02 		and	r2, r2, #252
  86 0058 03F8012C 		strb	r2, [r3, #-1]
 206:Generated_Source\PSoC5/ADC_SAR_2.c ****     /* SAR_HIZ_CLEAR:   Should not be used for LP */
  87              		.loc 1 206 0
  88 005c C822     		movs	r2, #200
  89 005e 03F8062C 		strb	r2, [r3, #-6]
 218:Generated_Source\PSoC5/ADC_SAR_2.c **** 
  90              		.loc 1 218 0
  91 0062 A3F59753 		sub	r3, r3, #4832
  92 0066 0222     		movs	r2, #2
  93 0068 123B     		subs	r3, r3, #18
  94 006a 1A70     		strb	r2, [r3]
 221:Generated_Source\PSoC5/ADC_SAR_2.c **** 
  95              		.loc 1 221 0
  96 006c 094A     		ldr	r2, .L2+8
  97 006e 1378     		ldrb	r3, [r2]	@ zero_extendqisi2
  98 0070 43F00803 		orr	r3, r3, #8
  99 0074 1370     		strb	r3, [r2]
 100              		.loc 1 223 0
 101 0076 FFF7FEFF 		bl	CyDelayUs
 102              	.LVL7:
 224:Generated_Source\PSoC5/ADC_SAR_2.c **** 
 225:Generated_Source\PSoC5/ADC_SAR_2.c ****     #if(ADC_SAR_2_IRQ_REMOVE == 0u)
 226:Generated_Source\PSoC5/ADC_SAR_2.c ****         /* Clear a pending interrupt */
ARM GAS  C:\Users\Luggi\AppData\Local\Temp\cclY8GBN.s 			page 7


 227:Generated_Source\PSoC5/ADC_SAR_2.c ****         CyIntClearPending(ADC_SAR_2_INTC_NUMBER);
 103              		.loc 1 227 0
 104 007a 074B     		ldr	r3, .L2+12
 105 007c 0422     		movs	r2, #4
 228:Generated_Source\PSoC5/ADC_SAR_2.c ****     #endif   /* End ADC_SAR_2_IRQ_REMOVE */
 229:Generated_Source\PSoC5/ADC_SAR_2.c **** 
 230:Generated_Source\PSoC5/ADC_SAR_2.c ****     CyExitCriticalSection(enableInterrupts);
 106              		.loc 1 230 0
 107 007e 2046     		mov	r0, r4
 231:Generated_Source\PSoC5/ADC_SAR_2.c **** }
 108              		.loc 1 231 0
 109 0080 BDE81040 		pop	{r4, lr}
 110              		.cfi_restore 14
 111              		.cfi_restore 4
 112              		.cfi_def_cfa_offset 0
 113              	.LVL8:
 227:Generated_Source\PSoC5/ADC_SAR_2.c ****     #endif   /* End ADC_SAR_2_IRQ_REMOVE */
 114              		.loc 1 227 0
 115 0084 1A60     		str	r2, [r3]
 230:Generated_Source\PSoC5/ADC_SAR_2.c **** }
 116              		.loc 1 230 0
 117 0086 FFF7FEBF 		b	CyExitCriticalSection
 118              	.LVL9:
 119              	.L3:
 120 008a 00BF     		.align	2
 121              	.L2:
 122 008c AB430040 		.word	1073759147
 123 0090 06590040 		.word	1073764614
 124 0094 275B0040 		.word	1073765159
 125 0098 80E200E0 		.word	-536812928
 126              		.cfi_endproc
 127              	.LFE2:
 128              		.size	ADC_SAR_2_Enable, .-ADC_SAR_2_Enable
 129              		.section	.text.ADC_SAR_2_Stop,"ax",%progbits
 130              		.align	1
 131              		.global	ADC_SAR_2_Stop
 132              		.thumb
 133              		.thumb_func
 134              		.type	ADC_SAR_2_Stop, %function
 135              	ADC_SAR_2_Stop:
 136              	.LFB3:
 232:Generated_Source\PSoC5/ADC_SAR_2.c **** 
 233:Generated_Source\PSoC5/ADC_SAR_2.c **** 
 234:Generated_Source\PSoC5/ADC_SAR_2.c **** /*******************************************************************************
 235:Generated_Source\PSoC5/ADC_SAR_2.c **** * Function Name: ADC_SAR_2_Stop
 236:Generated_Source\PSoC5/ADC_SAR_2.c **** ********************************************************************************
 237:Generated_Source\PSoC5/ADC_SAR_2.c **** *
 238:Generated_Source\PSoC5/ADC_SAR_2.c **** * Summary:
 239:Generated_Source\PSoC5/ADC_SAR_2.c **** *  Stops ADC conversions and puts the ADC into its lowest power mode.
 240:Generated_Source\PSoC5/ADC_SAR_2.c **** *
 241:Generated_Source\PSoC5/ADC_SAR_2.c **** * Parameters:
 242:Generated_Source\PSoC5/ADC_SAR_2.c **** *  None.
 243:Generated_Source\PSoC5/ADC_SAR_2.c **** *
 244:Generated_Source\PSoC5/ADC_SAR_2.c **** * Return:
 245:Generated_Source\PSoC5/ADC_SAR_2.c **** *  None.
 246:Generated_Source\PSoC5/ADC_SAR_2.c **** *
 247:Generated_Source\PSoC5/ADC_SAR_2.c **** *******************************************************************************/
ARM GAS  C:\Users\Luggi\AppData\Local\Temp\cclY8GBN.s 			page 8


 248:Generated_Source\PSoC5/ADC_SAR_2.c **** void ADC_SAR_2_Stop(void)
 249:Generated_Source\PSoC5/ADC_SAR_2.c **** {
 137              		.loc 1 249 0
 138              		.cfi_startproc
 139              		@ args = 0, pretend = 0, frame = 0
 140              		@ frame_needed = 0, uses_anonymous_args = 0
 141 0000 08B5     		push	{r3, lr}
 142              		.cfi_def_cfa_offset 8
 143              		.cfi_offset 3, -8
 144              		.cfi_offset 14, -4
 250:Generated_Source\PSoC5/ADC_SAR_2.c ****     uint8 enableInterrupts;
 251:Generated_Source\PSoC5/ADC_SAR_2.c ****     enableInterrupts = CyEnterCriticalSection();
 145              		.loc 1 251 0
 146 0002 FFF7FEFF 		bl	CyEnterCriticalSection
 147              	.LVL10:
 252:Generated_Source\PSoC5/ADC_SAR_2.c **** 
 253:Generated_Source\PSoC5/ADC_SAR_2.c ****     /* Stop all conversions */
 254:Generated_Source\PSoC5/ADC_SAR_2.c ****     ADC_SAR_2_SAR_CSR0_REG &= (uint8)~ADC_SAR_2_SAR_SOF_START_CONV;
 148              		.loc 1 254 0
 149 0006 0F4A     		ldr	r2, .L5
 150 0008 1378     		ldrb	r3, [r2]	@ zero_extendqisi2
 151 000a 03F0FE03 		and	r3, r3, #254
 152 000e 1370     		strb	r3, [r2]
 255:Generated_Source\PSoC5/ADC_SAR_2.c ****     /* Disable the SAR ADC block in Active Power Mode */
 256:Generated_Source\PSoC5/ADC_SAR_2.c ****     ADC_SAR_2_PWRMGR_SAR_REG &= (uint8)~ADC_SAR_2_ACT_PWR_SAR_EN;
 153              		.loc 1 256 0
 154 0010 A2F5AA52 		sub	r2, r2, #5440
 155 0014 153A     		subs	r2, r2, #21
 156 0016 1378     		ldrb	r3, [r2]	@ zero_extendqisi2
 157 0018 03F0FE03 		and	r3, r3, #254
 158 001c 1370     		strb	r3, [r2]
 257:Generated_Source\PSoC5/ADC_SAR_2.c ****     /* Disable the SAR ADC in Standby Power Mode */
 258:Generated_Source\PSoC5/ADC_SAR_2.c ****     ADC_SAR_2_STBY_PWRMGR_SAR_REG &= (uint8)~ADC_SAR_2_STBY_PWR_SAR_EN;
 159              		.loc 1 258 0
 160 001e 137C     		ldrb	r3, [r2, #16]	@ zero_extendqisi2
 161 0020 03F0FE03 		and	r3, r3, #254
 162 0024 1374     		strb	r3, [r2, #16]
 259:Generated_Source\PSoC5/ADC_SAR_2.c **** 
 260:Generated_Source\PSoC5/ADC_SAR_2.c ****     /* This is only valid if there is an internal clock */
 261:Generated_Source\PSoC5/ADC_SAR_2.c ****     #if(ADC_SAR_2_DEFAULT_INTERNAL_CLK)
 262:Generated_Source\PSoC5/ADC_SAR_2.c ****         ADC_SAR_2_PWRMGR_CLK_REG &= (uint8)~ADC_SAR_2_ACT_PWR_CLK_EN;
 163              		.loc 1 262 0
 164 0026 12F8093C 		ldrb	r3, [r2, #-9]	@ zero_extendqisi2
 165 002a 03F0FB03 		and	r3, r3, #251
 166 002e 02F8093C 		strb	r3, [r2, #-9]
 263:Generated_Source\PSoC5/ADC_SAR_2.c ****         ADC_SAR_2_STBY_PWRMGR_CLK_REG &= (uint8)~ADC_SAR_2_STBY_PWR_CLK_EN;
 167              		.loc 1 263 0
 168 0032 D379     		ldrb	r3, [r2, #7]	@ zero_extendqisi2
 169 0034 03F0FB03 		and	r3, r3, #251
 170 0038 D371     		strb	r3, [r2, #7]
 264:Generated_Source\PSoC5/ADC_SAR_2.c ****     #endif /* End ADC_SAR_2_DEFAULT_INTERNAL_CLK */
 265:Generated_Source\PSoC5/ADC_SAR_2.c **** 
 266:Generated_Source\PSoC5/ADC_SAR_2.c ****     CyExitCriticalSection(enableInterrupts);
 267:Generated_Source\PSoC5/ADC_SAR_2.c **** 
 268:Generated_Source\PSoC5/ADC_SAR_2.c **** }
 171              		.loc 1 268 0
 172 003a BDE80840 		pop	{r3, lr}
ARM GAS  C:\Users\Luggi\AppData\Local\Temp\cclY8GBN.s 			page 9


 173              		.cfi_restore 14
 174              		.cfi_restore 3
 175              		.cfi_def_cfa_offset 0
 266:Generated_Source\PSoC5/ADC_SAR_2.c **** 
 176              		.loc 1 266 0
 177 003e FFF7FEBF 		b	CyExitCriticalSection
 178              	.LVL11:
 179              	.L6:
 180 0042 00BF     		.align	2
 181              	.L5:
 182 0044 00590040 		.word	1073764608
 183              		.cfi_endproc
 184              	.LFE3:
 185              		.size	ADC_SAR_2_Stop, .-ADC_SAR_2_Stop
 186              		.section	.text.ADC_SAR_2_SetPower,"ax",%progbits
 187              		.align	1
 188              		.global	ADC_SAR_2_SetPower
 189              		.thumb
 190              		.thumb_func
 191              		.type	ADC_SAR_2_SetPower, %function
 192              	ADC_SAR_2_SetPower:
 193              	.LFB4:
 269:Generated_Source\PSoC5/ADC_SAR_2.c **** 
 270:Generated_Source\PSoC5/ADC_SAR_2.c **** 
 271:Generated_Source\PSoC5/ADC_SAR_2.c **** /*******************************************************************************
 272:Generated_Source\PSoC5/ADC_SAR_2.c **** * Function Name: ADC_SAR_2_SetPower
 273:Generated_Source\PSoC5/ADC_SAR_2.c **** ********************************************************************************
 274:Generated_Source\PSoC5/ADC_SAR_2.c **** *
 275:Generated_Source\PSoC5/ADC_SAR_2.c **** * Summary:
 276:Generated_Source\PSoC5/ADC_SAR_2.c **** *  Sets the operational power of the ADC. You should use the higher power
 277:Generated_Source\PSoC5/ADC_SAR_2.c **** *  settings with faster clock speeds.
 278:Generated_Source\PSoC5/ADC_SAR_2.c **** *
 279:Generated_Source\PSoC5/ADC_SAR_2.c **** * Parameters:
 280:Generated_Source\PSoC5/ADC_SAR_2.c **** *  power:  Power setting for ADC
 281:Generated_Source\PSoC5/ADC_SAR_2.c **** *  0 ->    Normal
 282:Generated_Source\PSoC5/ADC_SAR_2.c **** *  1 ->    Medium power
 283:Generated_Source\PSoC5/ADC_SAR_2.c **** *  2 ->    1.25 power
 284:Generated_Source\PSoC5/ADC_SAR_2.c **** *  3 ->    Minimum power.
 285:Generated_Source\PSoC5/ADC_SAR_2.c **** *
 286:Generated_Source\PSoC5/ADC_SAR_2.c **** * Return:
 287:Generated_Source\PSoC5/ADC_SAR_2.c **** *  None.
 288:Generated_Source\PSoC5/ADC_SAR_2.c **** *
 289:Generated_Source\PSoC5/ADC_SAR_2.c **** *******************************************************************************/
 290:Generated_Source\PSoC5/ADC_SAR_2.c **** void ADC_SAR_2_SetPower(uint8 power)
 291:Generated_Source\PSoC5/ADC_SAR_2.c **** {
 194              		.loc 1 291 0
 195              		.cfi_startproc
 196              		@ args = 0, pretend = 0, frame = 0
 197              		@ frame_needed = 0, uses_anonymous_args = 0
 198              		@ link register save eliminated.
 199              	.LVL12:
 292:Generated_Source\PSoC5/ADC_SAR_2.c ****     uint8 tmpReg;
 293:Generated_Source\PSoC5/ADC_SAR_2.c **** 
 294:Generated_Source\PSoC5/ADC_SAR_2.c ****     /* mask off invalid power settings */
 295:Generated_Source\PSoC5/ADC_SAR_2.c ****     power &= ADC_SAR_2_SAR_API_POWER_MASK;
 296:Generated_Source\PSoC5/ADC_SAR_2.c **** 
 297:Generated_Source\PSoC5/ADC_SAR_2.c ****     /* Set Power parameter  */
ARM GAS  C:\Users\Luggi\AppData\Local\Temp\cclY8GBN.s 			page 10


 298:Generated_Source\PSoC5/ADC_SAR_2.c ****     tmpReg = ADC_SAR_2_SAR_CSR0_REG & (uint8)~ADC_SAR_2_SAR_POWER_MASK;
 200              		.loc 1 298 0
 201 0000 044A     		ldr	r2, .L8
 295:Generated_Source\PSoC5/ADC_SAR_2.c **** 
 202              		.loc 1 295 0
 203 0002 00F00300 		and	r0, r0, #3
 204              	.LVL13:
 205              		.loc 1 298 0
 206 0006 1378     		ldrb	r3, [r2]	@ zero_extendqisi2
 207 0008 03F03F03 		and	r3, r3, #63
 208              	.LVL14:
 299:Generated_Source\PSoC5/ADC_SAR_2.c ****     tmpReg |= (uint8)(power << ADC_SAR_2_SAR_POWER_SHIFT);
 209              		.loc 1 299 0
 210 000c 43EA8013 		orr	r3, r3, r0, lsl #6
 211              	.LVL15:
 300:Generated_Source\PSoC5/ADC_SAR_2.c ****     ADC_SAR_2_SAR_CSR0_REG = tmpReg;
 212              		.loc 1 300 0
 213 0010 1370     		strb	r3, [r2]
 214 0012 7047     		bx	lr
 215              	.L9:
 216              		.align	2
 217              	.L8:
 218 0014 00590040 		.word	1073764608
 219              		.cfi_endproc
 220              	.LFE4:
 221              		.size	ADC_SAR_2_SetPower, .-ADC_SAR_2_SetPower
 222              		.section	.text.ADC_SAR_2_SetResolution,"ax",%progbits
 223              		.align	1
 224              		.global	ADC_SAR_2_SetResolution
 225              		.thumb
 226              		.thumb_func
 227              		.type	ADC_SAR_2_SetResolution, %function
 228              	ADC_SAR_2_SetResolution:
 229              	.LFB5:
 301:Generated_Source\PSoC5/ADC_SAR_2.c **** }
 302:Generated_Source\PSoC5/ADC_SAR_2.c **** 
 303:Generated_Source\PSoC5/ADC_SAR_2.c **** 
 304:Generated_Source\PSoC5/ADC_SAR_2.c **** /*******************************************************************************
 305:Generated_Source\PSoC5/ADC_SAR_2.c **** * Function Name: ADC_SAR_2_SetResolution
 306:Generated_Source\PSoC5/ADC_SAR_2.c **** ********************************************************************************
 307:Generated_Source\PSoC5/ADC_SAR_2.c **** *
 308:Generated_Source\PSoC5/ADC_SAR_2.c **** * Summary:
 309:Generated_Source\PSoC5/ADC_SAR_2.c **** *  Sets the Relution of the SAR.
 310:Generated_Source\PSoC5/ADC_SAR_2.c **** *
 311:Generated_Source\PSoC5/ADC_SAR_2.c **** * Parameters:
 312:Generated_Source\PSoC5/ADC_SAR_2.c **** *  resolution:
 313:Generated_Source\PSoC5/ADC_SAR_2.c **** *  12 ->    RES12
 314:Generated_Source\PSoC5/ADC_SAR_2.c **** *  10 ->    RES10
 315:Generated_Source\PSoC5/ADC_SAR_2.c **** *  8  ->    RES8
 316:Generated_Source\PSoC5/ADC_SAR_2.c **** *
 317:Generated_Source\PSoC5/ADC_SAR_2.c **** * Return:
 318:Generated_Source\PSoC5/ADC_SAR_2.c **** *  None.
 319:Generated_Source\PSoC5/ADC_SAR_2.c **** *
 320:Generated_Source\PSoC5/ADC_SAR_2.c **** * Side Effects:
 321:Generated_Source\PSoC5/ADC_SAR_2.c **** *  The ADC resolution cannot be changed during a conversion cycle. The
 322:Generated_Source\PSoC5/ADC_SAR_2.c **** *  recommended best practice is to stop conversions with
 323:Generated_Source\PSoC5/ADC_SAR_2.c **** *  ADC_StopConvert(), change the resolution, then restart the
ARM GAS  C:\Users\Luggi\AppData\Local\Temp\cclY8GBN.s 			page 11


 324:Generated_Source\PSoC5/ADC_SAR_2.c **** *  conversions with ADC_StartConvert().
 325:Generated_Source\PSoC5/ADC_SAR_2.c **** *  If you decide not to stop conversions before calling this API, you
 326:Generated_Source\PSoC5/ADC_SAR_2.c **** *  should use ADC_IsEndConversion() to wait until conversion is complete
 327:Generated_Source\PSoC5/ADC_SAR_2.c **** *  before changing the resolution.
 328:Generated_Source\PSoC5/ADC_SAR_2.c **** *  If you call ADC_SetResolution() during a conversion, the resolution will
 329:Generated_Source\PSoC5/ADC_SAR_2.c **** *  not be changed until the current conversion is complete. Data will not be
 330:Generated_Source\PSoC5/ADC_SAR_2.c **** *  available in the new resolution for another 6 + "New Resolution(in bits)"
 331:Generated_Source\PSoC5/ADC_SAR_2.c **** *  clock cycles.
 332:Generated_Source\PSoC5/ADC_SAR_2.c **** *  You may need add a delay of this number of clock cycles after
 333:Generated_Source\PSoC5/ADC_SAR_2.c **** *  ADC_SetResolution() is called before data is valid again.
 334:Generated_Source\PSoC5/ADC_SAR_2.c **** *  Affects ADC_CountsTo_Volts(), ADC_CountsTo_mVolts(), and
 335:Generated_Source\PSoC5/ADC_SAR_2.c **** *  ADC_CountsTo_uVolts() by calculating the correct conversion between ADC
 336:Generated_Source\PSoC5/ADC_SAR_2.c **** *  counts and the applied input voltage. Calculation depends on resolution,
 337:Generated_Source\PSoC5/ADC_SAR_2.c **** *  input range, and voltage reference.
 338:Generated_Source\PSoC5/ADC_SAR_2.c **** *
 339:Generated_Source\PSoC5/ADC_SAR_2.c **** *******************************************************************************/
 340:Generated_Source\PSoC5/ADC_SAR_2.c **** void ADC_SAR_2_SetResolution(uint8 resolution)
 341:Generated_Source\PSoC5/ADC_SAR_2.c **** {
 230              		.loc 1 341 0
 231              		.cfi_startproc
 232              		@ args = 0, pretend = 0, frame = 0
 233              		@ frame_needed = 0, uses_anonymous_args = 0
 234              		@ link register save eliminated.
 235              	.LVL16:
 342:Generated_Source\PSoC5/ADC_SAR_2.c ****     uint8 tmpReg;
 343:Generated_Source\PSoC5/ADC_SAR_2.c **** 
 344:Generated_Source\PSoC5/ADC_SAR_2.c ****     /* Set SAR ADC resolution and sample width: 18 conversion cycles at 12bits + 1 gap */
 345:Generated_Source\PSoC5/ADC_SAR_2.c ****     switch (resolution)
 236              		.loc 1 345 0
 237 0000 0828     		cmp	r0, #8
 238 0002 04D0     		beq	.L12
 239 0004 0A28     		cmp	r0, #10
 346:Generated_Source\PSoC5/ADC_SAR_2.c ****     {
 347:Generated_Source\PSoC5/ADC_SAR_2.c ****         case (uint8)ADC_SAR_2__BITS_12:
 348:Generated_Source\PSoC5/ADC_SAR_2.c ****             tmpReg = ADC_SAR_2_SAR_RESOLUTION_12BIT | ADC_SAR_2_SAR_SAMPLE_WIDTH;
 240              		.loc 1 348 0
 241 0006 0CBF     		ite	eq
 242 0008 8223     		moveq	r3, #130
 243 000a C223     		movne	r3, #194
 244 000c 00E0     		b	.L13
 245              	.L12:
 246              	.LVL17:
 349:Generated_Source\PSoC5/ADC_SAR_2.c ****             break;
 350:Generated_Source\PSoC5/ADC_SAR_2.c ****         case (uint8)ADC_SAR_2__BITS_10:
 351:Generated_Source\PSoC5/ADC_SAR_2.c ****             tmpReg = ADC_SAR_2_SAR_RESOLUTION_10BIT | ADC_SAR_2_SAR_SAMPLE_WIDTH;
 352:Generated_Source\PSoC5/ADC_SAR_2.c ****             break;
 353:Generated_Source\PSoC5/ADC_SAR_2.c ****         case (uint8)ADC_SAR_2__BITS_8:
 354:Generated_Source\PSoC5/ADC_SAR_2.c ****             tmpReg = ADC_SAR_2_SAR_RESOLUTION_8BIT | ADC_SAR_2_SAR_SAMPLE_WIDTH;
 247              		.loc 1 354 0
 248 000e 4223     		movs	r3, #66
 249              	.LVL18:
 250              	.L13:
 251 0010 0838     		subs	r0, r0, #8
 252              	.LVL19:
 355:Generated_Source\PSoC5/ADC_SAR_2.c ****             break;
 356:Generated_Source\PSoC5/ADC_SAR_2.c ****         default:
 357:Generated_Source\PSoC5/ADC_SAR_2.c ****             tmpReg = ADC_SAR_2_SAR_RESOLUTION_12BIT | ADC_SAR_2_SAR_SAMPLE_WIDTH;
ARM GAS  C:\Users\Luggi\AppData\Local\Temp\cclY8GBN.s 			page 12


 358:Generated_Source\PSoC5/ADC_SAR_2.c ****             /* Halt CPU in debug mode if resolution is out of valid range */
 359:Generated_Source\PSoC5/ADC_SAR_2.c ****             CYASSERT(0u != 0u);
 360:Generated_Source\PSoC5/ADC_SAR_2.c ****             break;
 361:Generated_Source\PSoC5/ADC_SAR_2.c ****     }
 362:Generated_Source\PSoC5/ADC_SAR_2.c ****     ADC_SAR_2_SAR_CSR2_REG = tmpReg;
 253              		.loc 1 362 0
 254 0012 0E4A     		ldr	r2, .L18
 255 0014 C0B2     		uxtb	r0, r0
 256 0016 0428     		cmp	r0, #4
 257 0018 1370     		strb	r3, [r2]
 258              	.LVL20:
 259 001a 98BF     		it	ls
 260 001c 0C4B     		ldrls	r3, .L18+4
 261 001e 4FF00002 		mov	r2, #0
 262 0022 98BF     		it	ls
 263 0024 33F91010 		ldrshls	r1, [r3, r0, lsl #1]
 264              	.LBB4:
 265              	.LBB5:
 363:Generated_Source\PSoC5/ADC_SAR_2.c **** 
 364:Generated_Source\PSoC5/ADC_SAR_2.c ****      /* Calculate gain for convert counts to volts */
 365:Generated_Source\PSoC5/ADC_SAR_2.c ****     ADC_SAR_2_CalcGain(resolution);
 366:Generated_Source\PSoC5/ADC_SAR_2.c **** }
 367:Generated_Source\PSoC5/ADC_SAR_2.c **** 
 368:Generated_Source\PSoC5/ADC_SAR_2.c **** 
 369:Generated_Source\PSoC5/ADC_SAR_2.c **** #if(ADC_SAR_2_DEFAULT_CONV_MODE != ADC_SAR_2__HARDWARE_TRIGGER)
 370:Generated_Source\PSoC5/ADC_SAR_2.c **** 
 371:Generated_Source\PSoC5/ADC_SAR_2.c **** 
 372:Generated_Source\PSoC5/ADC_SAR_2.c ****     /*******************************************************************************
 373:Generated_Source\PSoC5/ADC_SAR_2.c ****     * Function Name: ADC_SAR_2_StartConvert
 374:Generated_Source\PSoC5/ADC_SAR_2.c ****     ********************************************************************************
 375:Generated_Source\PSoC5/ADC_SAR_2.c ****     *
 376:Generated_Source\PSoC5/ADC_SAR_2.c ****     * Summary:
 377:Generated_Source\PSoC5/ADC_SAR_2.c ****     *  Forces the ADC to initiate a conversion. In free-running mode, the ADC runs
 378:Generated_Source\PSoC5/ADC_SAR_2.c ****     *  continuously. In software trigger mode, the function also acts as a software
 379:Generated_Source\PSoC5/ADC_SAR_2.c ****     *  version of the SOC and every conversion must be triggered by
 380:Generated_Source\PSoC5/ADC_SAR_2.c ****     *  ADC_SAR_2_StartConvert(). This function is not available when the
 381:Generated_Source\PSoC5/ADC_SAR_2.c ****     *  Hardware Trigger sample mode is selected.
 382:Generated_Source\PSoC5/ADC_SAR_2.c ****     *
 383:Generated_Source\PSoC5/ADC_SAR_2.c ****     * Parameters:
 384:Generated_Source\PSoC5/ADC_SAR_2.c ****     *  None.
 385:Generated_Source\PSoC5/ADC_SAR_2.c ****     *
 386:Generated_Source\PSoC5/ADC_SAR_2.c ****     * Return:
 387:Generated_Source\PSoC5/ADC_SAR_2.c ****     *  None.
 388:Generated_Source\PSoC5/ADC_SAR_2.c ****     *
 389:Generated_Source\PSoC5/ADC_SAR_2.c ****     * Theory:
 390:Generated_Source\PSoC5/ADC_SAR_2.c ****     *  Forces the ADC to initiate a conversion. In Free Running mode, the ADC will
 391:Generated_Source\PSoC5/ADC_SAR_2.c ****     *  run continuously. In a software trigger mode the function also acts as a
 392:Generated_Source\PSoC5/ADC_SAR_2.c ****     *  software version of the SOC. Here every conversion has to be triggered by
 393:Generated_Source\PSoC5/ADC_SAR_2.c ****     *  the routine. This writes into the SOC bit in SAR_CTRL reg.
 394:Generated_Source\PSoC5/ADC_SAR_2.c ****     *
 395:Generated_Source\PSoC5/ADC_SAR_2.c ****     * Side Effects:
 396:Generated_Source\PSoC5/ADC_SAR_2.c ****     *  In a software trigger mode the function switches source for SOF from the
 397:Generated_Source\PSoC5/ADC_SAR_2.c ****     *  external pin to the internal SOF generation. Application should not call
 398:Generated_Source\PSoC5/ADC_SAR_2.c ****     *  StartConvert if external source used for SOF.
 399:Generated_Source\PSoC5/ADC_SAR_2.c ****     *
 400:Generated_Source\PSoC5/ADC_SAR_2.c ****     *******************************************************************************/
 401:Generated_Source\PSoC5/ADC_SAR_2.c ****     void ADC_SAR_2_StartConvert(void)
ARM GAS  C:\Users\Luggi\AppData\Local\Temp\cclY8GBN.s 			page 13


 402:Generated_Source\PSoC5/ADC_SAR_2.c ****     {
 403:Generated_Source\PSoC5/ADC_SAR_2.c ****         #if(ADC_SAR_2_DEFAULT_CONV_MODE != ADC_SAR_2__FREE_RUNNING)  /* If software triggered mode 
 404:Generated_Source\PSoC5/ADC_SAR_2.c ****             ADC_SAR_2_SAR_CSR0_REG &= (uint8)~ADC_SAR_2_SAR_MX_SOF_UDB;   /* source: SOF bit */
 405:Generated_Source\PSoC5/ADC_SAR_2.c ****         #endif /* End ADC_SAR_2_DEFAULT_CONV_MODE */
 406:Generated_Source\PSoC5/ADC_SAR_2.c **** 
 407:Generated_Source\PSoC5/ADC_SAR_2.c ****         /* Start the conversion */
 408:Generated_Source\PSoC5/ADC_SAR_2.c ****         ADC_SAR_2_SAR_CSR0_REG |= ADC_SAR_2_SAR_SOF_START_CONV;
 409:Generated_Source\PSoC5/ADC_SAR_2.c ****     }
 410:Generated_Source\PSoC5/ADC_SAR_2.c **** 
 411:Generated_Source\PSoC5/ADC_SAR_2.c **** 
 412:Generated_Source\PSoC5/ADC_SAR_2.c ****     /*******************************************************************************
 413:Generated_Source\PSoC5/ADC_SAR_2.c ****     * Function Name: ADC_SAR_2_StopConvert
 414:Generated_Source\PSoC5/ADC_SAR_2.c ****     ********************************************************************************
 415:Generated_Source\PSoC5/ADC_SAR_2.c ****     *
 416:Generated_Source\PSoC5/ADC_SAR_2.c ****     * Summary:
 417:Generated_Source\PSoC5/ADC_SAR_2.c ****     *  Forces the ADC to stop conversions. If a conversion is currently executing,
 418:Generated_Source\PSoC5/ADC_SAR_2.c ****     *  that conversion will complete, but no further conversions will occur. This
 419:Generated_Source\PSoC5/ADC_SAR_2.c ****     *  function is not available when the Hardware Trigger sample mode is selected.
 420:Generated_Source\PSoC5/ADC_SAR_2.c ****     *
 421:Generated_Source\PSoC5/ADC_SAR_2.c ****     * Parameters:
 422:Generated_Source\PSoC5/ADC_SAR_2.c ****     *  None.
 423:Generated_Source\PSoC5/ADC_SAR_2.c ****     *
 424:Generated_Source\PSoC5/ADC_SAR_2.c ****     * Return:
 425:Generated_Source\PSoC5/ADC_SAR_2.c ****     *  None.
 426:Generated_Source\PSoC5/ADC_SAR_2.c ****     *
 427:Generated_Source\PSoC5/ADC_SAR_2.c ****     * Theory:
 428:Generated_Source\PSoC5/ADC_SAR_2.c ****     *  Stops ADC conversion in Free Running mode.
 429:Generated_Source\PSoC5/ADC_SAR_2.c ****     *
 430:Generated_Source\PSoC5/ADC_SAR_2.c ****     * Side Effects:
 431:Generated_Source\PSoC5/ADC_SAR_2.c ****     *  In Software Trigger sample mode, this function sets a software version of the
 432:Generated_Source\PSoC5/ADC_SAR_2.c ****     *  SOC to low level and switches the SOC source to hardware SOC input.
 433:Generated_Source\PSoC5/ADC_SAR_2.c ****     *
 434:Generated_Source\PSoC5/ADC_SAR_2.c ****     *******************************************************************************/
 435:Generated_Source\PSoC5/ADC_SAR_2.c ****     void ADC_SAR_2_StopConvert(void)
 436:Generated_Source\PSoC5/ADC_SAR_2.c ****     {
 437:Generated_Source\PSoC5/ADC_SAR_2.c ****         /* Stop all conversions */
 438:Generated_Source\PSoC5/ADC_SAR_2.c ****         ADC_SAR_2_SAR_CSR0_REG &= (uint8)~ADC_SAR_2_SAR_SOF_START_CONV;
 439:Generated_Source\PSoC5/ADC_SAR_2.c **** 
 440:Generated_Source\PSoC5/ADC_SAR_2.c ****         #if(ADC_SAR_2_DEFAULT_CONV_MODE != ADC_SAR_2__FREE_RUNNING)  /* If software triggered mode 
 441:Generated_Source\PSoC5/ADC_SAR_2.c ****             /* Return source to UDB for hardware SOF signal */
 442:Generated_Source\PSoC5/ADC_SAR_2.c ****             ADC_SAR_2_SAR_CSR0_REG |= ADC_SAR_2_SAR_MX_SOF_UDB;    /* source: UDB */
 443:Generated_Source\PSoC5/ADC_SAR_2.c ****         #endif /* End ADC_SAR_2_DEFAULT_CONV_MODE */
 444:Generated_Source\PSoC5/ADC_SAR_2.c **** 
 445:Generated_Source\PSoC5/ADC_SAR_2.c ****     }
 446:Generated_Source\PSoC5/ADC_SAR_2.c **** 
 447:Generated_Source\PSoC5/ADC_SAR_2.c **** #endif /* End ADC_SAR_2_DEFAULT_CONV_MODE != ADC_SAR_2__HARDWARE_TRIGGER */
 448:Generated_Source\PSoC5/ADC_SAR_2.c **** 
 449:Generated_Source\PSoC5/ADC_SAR_2.c **** 
 450:Generated_Source\PSoC5/ADC_SAR_2.c **** /*******************************************************************************
 451:Generated_Source\PSoC5/ADC_SAR_2.c **** * Function Name: ADC_SAR_2_IsEndConversion
 452:Generated_Source\PSoC5/ADC_SAR_2.c **** ********************************************************************************
 453:Generated_Source\PSoC5/ADC_SAR_2.c **** *
 454:Generated_Source\PSoC5/ADC_SAR_2.c **** * Summary:
 455:Generated_Source\PSoC5/ADC_SAR_2.c **** *  Immediately returns the status of the conversion or does not return
 456:Generated_Source\PSoC5/ADC_SAR_2.c **** *  (blocking) until the conversion completes, depending on the retMode
 457:Generated_Source\PSoC5/ADC_SAR_2.c **** *  parameter.
 458:Generated_Source\PSoC5/ADC_SAR_2.c **** *
ARM GAS  C:\Users\Luggi\AppData\Local\Temp\cclY8GBN.s 			page 14


 459:Generated_Source\PSoC5/ADC_SAR_2.c **** * Parameters:
 460:Generated_Source\PSoC5/ADC_SAR_2.c **** *  retMode:  Check conversion return mode.
 461:Generated_Source\PSoC5/ADC_SAR_2.c **** *   ADC_SAR_2_RETURN_STATUS: Immediately returns the status. If the
 462:Generated_Source\PSoC5/ADC_SAR_2.c **** *     value returned is zero, the conversion is not complete, and this function
 463:Generated_Source\PSoC5/ADC_SAR_2.c **** *     should be retried until a nonzero result is returned.
 464:Generated_Source\PSoC5/ADC_SAR_2.c **** *   ADC_SAR_2_WAIT_FOR_RESULT: Does not return a result until the ADC
 465:Generated_Source\PSoC5/ADC_SAR_2.c **** *     conversion is complete.
 466:Generated_Source\PSoC5/ADC_SAR_2.c **** *
 467:Generated_Source\PSoC5/ADC_SAR_2.c **** * Return:
 468:Generated_Source\PSoC5/ADC_SAR_2.c **** *  (uint8)  0 =>  The ADC is still calculating the last result.
 469:Generated_Source\PSoC5/ADC_SAR_2.c **** *           1 =>  The last conversion is complete.
 470:Generated_Source\PSoC5/ADC_SAR_2.c **** *
 471:Generated_Source\PSoC5/ADC_SAR_2.c **** * Side Effects:
 472:Generated_Source\PSoC5/ADC_SAR_2.c **** *  This function reads the end of conversion status, which is cleared on read.
 473:Generated_Source\PSoC5/ADC_SAR_2.c **** *
 474:Generated_Source\PSoC5/ADC_SAR_2.c **** *******************************************************************************/
 475:Generated_Source\PSoC5/ADC_SAR_2.c **** uint8 ADC_SAR_2_IsEndConversion(uint8 retMode)
 476:Generated_Source\PSoC5/ADC_SAR_2.c **** {
 477:Generated_Source\PSoC5/ADC_SAR_2.c ****     uint8 status;
 478:Generated_Source\PSoC5/ADC_SAR_2.c **** 
 479:Generated_Source\PSoC5/ADC_SAR_2.c ****     do
 480:Generated_Source\PSoC5/ADC_SAR_2.c ****     {
 481:Generated_Source\PSoC5/ADC_SAR_2.c ****         status = ADC_SAR_2_SAR_CSR1_REG & ADC_SAR_2_SAR_EOF_1;
 482:Generated_Source\PSoC5/ADC_SAR_2.c ****     } while ((status != ADC_SAR_2_SAR_EOF_1) && (retMode == ADC_SAR_2_WAIT_FOR_RESULT));
 483:Generated_Source\PSoC5/ADC_SAR_2.c ****     /* If convertion complete, wait until EOF bit released */
 484:Generated_Source\PSoC5/ADC_SAR_2.c ****     if(status == ADC_SAR_2_SAR_EOF_1)
 485:Generated_Source\PSoC5/ADC_SAR_2.c ****     {
 486:Generated_Source\PSoC5/ADC_SAR_2.c ****         /* wait one ADC clock to let the EOC status bit release */
 487:Generated_Source\PSoC5/ADC_SAR_2.c ****         CyDelayUs(1u);
 488:Generated_Source\PSoC5/ADC_SAR_2.c ****         /* Do the unconditional read operation of the CSR1 register to make sure the EOC bit has be
 489:Generated_Source\PSoC5/ADC_SAR_2.c ****         CY_GET_REG8(ADC_SAR_2_SAR_CSR1_PTR);
 490:Generated_Source\PSoC5/ADC_SAR_2.c ****     }
 491:Generated_Source\PSoC5/ADC_SAR_2.c **** 
 492:Generated_Source\PSoC5/ADC_SAR_2.c ****     return(status);
 493:Generated_Source\PSoC5/ADC_SAR_2.c **** }
 494:Generated_Source\PSoC5/ADC_SAR_2.c **** 
 495:Generated_Source\PSoC5/ADC_SAR_2.c **** 
 496:Generated_Source\PSoC5/ADC_SAR_2.c **** /*******************************************************************************
 497:Generated_Source\PSoC5/ADC_SAR_2.c **** * Function Name: ADC_SAR_2_GetResult8
 498:Generated_Source\PSoC5/ADC_SAR_2.c **** ********************************************************************************
 499:Generated_Source\PSoC5/ADC_SAR_2.c **** *
 500:Generated_Source\PSoC5/ADC_SAR_2.c **** * Summary:
 501:Generated_Source\PSoC5/ADC_SAR_2.c **** *  Returns the result of an 8-bit conversion. If the resolution is set greater
 502:Generated_Source\PSoC5/ADC_SAR_2.c **** *  than 8 bits, the function returns the LSB of the result.
 503:Generated_Source\PSoC5/ADC_SAR_2.c **** *  ADC_SAR_2_IsEndConversion() should be called to verify that the data
 504:Generated_Source\PSoC5/ADC_SAR_2.c **** *   sample is ready.
 505:Generated_Source\PSoC5/ADC_SAR_2.c **** *
 506:Generated_Source\PSoC5/ADC_SAR_2.c **** * Parameters:
 507:Generated_Source\PSoC5/ADC_SAR_2.c **** *  None.
 508:Generated_Source\PSoC5/ADC_SAR_2.c **** *
 509:Generated_Source\PSoC5/ADC_SAR_2.c **** * Return:
 510:Generated_Source\PSoC5/ADC_SAR_2.c **** *  The LSB of the last ADC conversion.
 511:Generated_Source\PSoC5/ADC_SAR_2.c **** *
 512:Generated_Source\PSoC5/ADC_SAR_2.c **** * Global Variables:
 513:Generated_Source\PSoC5/ADC_SAR_2.c **** *  ADC_SAR_2_shift - used to convert the ADC counts to the 2s
 514:Generated_Source\PSoC5/ADC_SAR_2.c **** *  compliment form.
 515:Generated_Source\PSoC5/ADC_SAR_2.c **** *
ARM GAS  C:\Users\Luggi\AppData\Local\Temp\cclY8GBN.s 			page 15


 516:Generated_Source\PSoC5/ADC_SAR_2.c **** * Side Effects:
 517:Generated_Source\PSoC5/ADC_SAR_2.c **** *  Converts the ADC counts to the 2s complement form.
 518:Generated_Source\PSoC5/ADC_SAR_2.c **** *
 519:Generated_Source\PSoC5/ADC_SAR_2.c **** *******************************************************************************/
 520:Generated_Source\PSoC5/ADC_SAR_2.c **** int8 ADC_SAR_2_GetResult8( void )
 521:Generated_Source\PSoC5/ADC_SAR_2.c **** {
 522:Generated_Source\PSoC5/ADC_SAR_2.c ****     return( (int8)ADC_SAR_2_SAR_WRK0_REG - (int8)ADC_SAR_2_shift);
 523:Generated_Source\PSoC5/ADC_SAR_2.c **** }
 524:Generated_Source\PSoC5/ADC_SAR_2.c **** 
 525:Generated_Source\PSoC5/ADC_SAR_2.c **** 
 526:Generated_Source\PSoC5/ADC_SAR_2.c **** /*******************************************************************************
 527:Generated_Source\PSoC5/ADC_SAR_2.c **** * Function Name: ADC_SAR_2_GetResult16
 528:Generated_Source\PSoC5/ADC_SAR_2.c **** ********************************************************************************
 529:Generated_Source\PSoC5/ADC_SAR_2.c **** *
 530:Generated_Source\PSoC5/ADC_SAR_2.c **** * Summary:
 531:Generated_Source\PSoC5/ADC_SAR_2.c **** *  Returns a 16-bit result for a conversion with a result that has a resolution
 532:Generated_Source\PSoC5/ADC_SAR_2.c **** *  of 8 to 12 bits.
 533:Generated_Source\PSoC5/ADC_SAR_2.c **** *  ADC_SAR_2_IsEndConversion() should be called to verify that the data
 534:Generated_Source\PSoC5/ADC_SAR_2.c **** *   sample is ready
 535:Generated_Source\PSoC5/ADC_SAR_2.c **** *
 536:Generated_Source\PSoC5/ADC_SAR_2.c **** * Parameters:
 537:Generated_Source\PSoC5/ADC_SAR_2.c **** *  None.
 538:Generated_Source\PSoC5/ADC_SAR_2.c **** *
 539:Generated_Source\PSoC5/ADC_SAR_2.c **** * Return:
 540:Generated_Source\PSoC5/ADC_SAR_2.c **** *  The 16-bit result of the last ADC conversion
 541:Generated_Source\PSoC5/ADC_SAR_2.c **** *
 542:Generated_Source\PSoC5/ADC_SAR_2.c **** * Global Variables:
 543:Generated_Source\PSoC5/ADC_SAR_2.c **** *  ADC_SAR_2_shift - used to convert the ADC counts to the 2s
 544:Generated_Source\PSoC5/ADC_SAR_2.c **** *  compliment form.
 545:Generated_Source\PSoC5/ADC_SAR_2.c **** *
 546:Generated_Source\PSoC5/ADC_SAR_2.c **** * Side Effects:
 547:Generated_Source\PSoC5/ADC_SAR_2.c **** *  Converts the ADC counts to the 2s complement form.
 548:Generated_Source\PSoC5/ADC_SAR_2.c **** *
 549:Generated_Source\PSoC5/ADC_SAR_2.c **** *******************************************************************************/
 550:Generated_Source\PSoC5/ADC_SAR_2.c **** int16 ADC_SAR_2_GetResult16( void )
 551:Generated_Source\PSoC5/ADC_SAR_2.c **** {
 552:Generated_Source\PSoC5/ADC_SAR_2.c ****     uint16 res;
 553:Generated_Source\PSoC5/ADC_SAR_2.c **** 
 554:Generated_Source\PSoC5/ADC_SAR_2.c ****     res = CY_GET_REG16(ADC_SAR_2_SAR_WRK_PTR);
 555:Generated_Source\PSoC5/ADC_SAR_2.c **** 
 556:Generated_Source\PSoC5/ADC_SAR_2.c ****     return( (int16)res - ADC_SAR_2_shift );
 557:Generated_Source\PSoC5/ADC_SAR_2.c **** }
 558:Generated_Source\PSoC5/ADC_SAR_2.c **** 
 559:Generated_Source\PSoC5/ADC_SAR_2.c **** 
 560:Generated_Source\PSoC5/ADC_SAR_2.c **** /*******************************************************************************
 561:Generated_Source\PSoC5/ADC_SAR_2.c **** * Function Name: ADC_SAR_2_SetOffset
 562:Generated_Source\PSoC5/ADC_SAR_2.c **** ********************************************************************************
 563:Generated_Source\PSoC5/ADC_SAR_2.c **** *
 564:Generated_Source\PSoC5/ADC_SAR_2.c **** * Summary:
 565:Generated_Source\PSoC5/ADC_SAR_2.c **** *  Sets the ADC offset, which is used by ADC_SAR_2_CountsTo_Volts(),
 566:Generated_Source\PSoC5/ADC_SAR_2.c **** *  ADC_SAR_2_CountsTo_mVolts(), and ADC_SAR_2_CountsTo_uVolts()
 567:Generated_Source\PSoC5/ADC_SAR_2.c **** *  to subtract the offset from the given reading before calculating the voltage
 568:Generated_Source\PSoC5/ADC_SAR_2.c **** *  conversion.
 569:Generated_Source\PSoC5/ADC_SAR_2.c **** *
 570:Generated_Source\PSoC5/ADC_SAR_2.c **** * Parameters:
 571:Generated_Source\PSoC5/ADC_SAR_2.c **** *  int16: This value is measured when the inputs are shorted or connected to
 572:Generated_Source\PSoC5/ADC_SAR_2.c ****    the same input voltage.
ARM GAS  C:\Users\Luggi\AppData\Local\Temp\cclY8GBN.s 			page 16


 573:Generated_Source\PSoC5/ADC_SAR_2.c **** *
 574:Generated_Source\PSoC5/ADC_SAR_2.c **** * Return:
 575:Generated_Source\PSoC5/ADC_SAR_2.c **** *  None.
 576:Generated_Source\PSoC5/ADC_SAR_2.c **** *
 577:Generated_Source\PSoC5/ADC_SAR_2.c **** * Global Variables:
 578:Generated_Source\PSoC5/ADC_SAR_2.c **** *  The ADC_SAR_2_offset variable modified. This variable is used for
 579:Generated_Source\PSoC5/ADC_SAR_2.c **** *  offset calibration purpose.
 580:Generated_Source\PSoC5/ADC_SAR_2.c **** *  Affects the ADC_SAR_2_CountsTo_Volts,
 581:Generated_Source\PSoC5/ADC_SAR_2.c **** *  ADC_SAR_2_CountsTo_mVolts, ADC_SAR_2_CountsTo_uVolts functions
 582:Generated_Source\PSoC5/ADC_SAR_2.c **** *  by subtracting the given offset.
 583:Generated_Source\PSoC5/ADC_SAR_2.c **** *
 584:Generated_Source\PSoC5/ADC_SAR_2.c **** *******************************************************************************/
 585:Generated_Source\PSoC5/ADC_SAR_2.c **** void ADC_SAR_2_SetOffset(int16 offset)
 586:Generated_Source\PSoC5/ADC_SAR_2.c **** {
 587:Generated_Source\PSoC5/ADC_SAR_2.c ****     ADC_SAR_2_offset = offset;
 588:Generated_Source\PSoC5/ADC_SAR_2.c **** }
 589:Generated_Source\PSoC5/ADC_SAR_2.c **** 
 590:Generated_Source\PSoC5/ADC_SAR_2.c **** 
 591:Generated_Source\PSoC5/ADC_SAR_2.c **** /*******************************************************************************
 592:Generated_Source\PSoC5/ADC_SAR_2.c **** * Function Name: ADC_SAR_2_CalcGain
 593:Generated_Source\PSoC5/ADC_SAR_2.c **** ********************************************************************************
 594:Generated_Source\PSoC5/ADC_SAR_2.c **** *
 595:Generated_Source\PSoC5/ADC_SAR_2.c **** * Summary:
 596:Generated_Source\PSoC5/ADC_SAR_2.c **** *  This function calculates the ADC gain in counts per 10 volt.
 597:Generated_Source\PSoC5/ADC_SAR_2.c **** *
 598:Generated_Source\PSoC5/ADC_SAR_2.c **** * Parameters:
 599:Generated_Source\PSoC5/ADC_SAR_2.c **** *  uint8: resolution
 600:Generated_Source\PSoC5/ADC_SAR_2.c **** *
 601:Generated_Source\PSoC5/ADC_SAR_2.c **** * Return:
 602:Generated_Source\PSoC5/ADC_SAR_2.c **** *  None.
 603:Generated_Source\PSoC5/ADC_SAR_2.c **** *
 604:Generated_Source\PSoC5/ADC_SAR_2.c **** * Global Variables:
 605:Generated_Source\PSoC5/ADC_SAR_2.c **** *  ADC_SAR_2_shift variable initialized. This variable is used to
 606:Generated_Source\PSoC5/ADC_SAR_2.c **** *  convert the ADC counts to the 2s compliment form.
 607:Generated_Source\PSoC5/ADC_SAR_2.c **** *  ADC_SAR_2_countsPer10Volt variable initialized. This variable is used
 608:Generated_Source\PSoC5/ADC_SAR_2.c **** *  for gain calibration purpose.
 609:Generated_Source\PSoC5/ADC_SAR_2.c **** *
 610:Generated_Source\PSoC5/ADC_SAR_2.c **** *******************************************************************************/
 611:Generated_Source\PSoC5/ADC_SAR_2.c **** static void ADC_SAR_2_CalcGain( uint8 resolution )
 612:Generated_Source\PSoC5/ADC_SAR_2.c **** {
 613:Generated_Source\PSoC5/ADC_SAR_2.c ****     int32 counts;
 614:Generated_Source\PSoC5/ADC_SAR_2.c ****     #if(!((ADC_SAR_2_DEFAULT_RANGE == ADC_SAR_2__VSS_TO_VREF) || \
 615:Generated_Source\PSoC5/ADC_SAR_2.c ****          (ADC_SAR_2_DEFAULT_RANGE == ADC_SAR_2__VSSA_TO_VDDA) || \
 616:Generated_Source\PSoC5/ADC_SAR_2.c ****          (ADC_SAR_2_DEFAULT_RANGE == ADC_SAR_2__VSSA_TO_VDAC)) )
 617:Generated_Source\PSoC5/ADC_SAR_2.c ****         uint16 diff_zero;
 618:Generated_Source\PSoC5/ADC_SAR_2.c ****     #endif /* End ADC_SAR_2_DEFAULT_RANGE */
 619:Generated_Source\PSoC5/ADC_SAR_2.c **** 
 620:Generated_Source\PSoC5/ADC_SAR_2.c ****     switch (resolution)
 621:Generated_Source\PSoC5/ADC_SAR_2.c ****     {
 622:Generated_Source\PSoC5/ADC_SAR_2.c ****         case (uint8)ADC_SAR_2__BITS_12:
 623:Generated_Source\PSoC5/ADC_SAR_2.c ****             counts = (int32)ADC_SAR_2_SAR_WRK_MAX_12BIT;
 624:Generated_Source\PSoC5/ADC_SAR_2.c ****             #if(!((ADC_SAR_2_DEFAULT_RANGE == ADC_SAR_2__VSS_TO_VREF) || \
 625:Generated_Source\PSoC5/ADC_SAR_2.c ****                  (ADC_SAR_2_DEFAULT_RANGE == ADC_SAR_2__VSSA_TO_VDDA) || \
 626:Generated_Source\PSoC5/ADC_SAR_2.c ****                  (ADC_SAR_2_DEFAULT_RANGE == ADC_SAR_2__VSSA_TO_VDAC)) )
 627:Generated_Source\PSoC5/ADC_SAR_2.c ****                 diff_zero = ADC_SAR_2_SAR_DIFF_SHIFT;
 628:Generated_Source\PSoC5/ADC_SAR_2.c ****             #endif /* End ADC_SAR_2_DEFAULT_RANGE */
 629:Generated_Source\PSoC5/ADC_SAR_2.c ****             break;
ARM GAS  C:\Users\Luggi\AppData\Local\Temp\cclY8GBN.s 			page 17


 630:Generated_Source\PSoC5/ADC_SAR_2.c ****         case (uint8)ADC_SAR_2__BITS_10:
 631:Generated_Source\PSoC5/ADC_SAR_2.c ****             counts = (int32)ADC_SAR_2_SAR_WRK_MAX_10BIT;
 632:Generated_Source\PSoC5/ADC_SAR_2.c ****             #if(!((ADC_SAR_2_DEFAULT_RANGE == ADC_SAR_2__VSS_TO_VREF) || \
 633:Generated_Source\PSoC5/ADC_SAR_2.c ****                  (ADC_SAR_2_DEFAULT_RANGE == ADC_SAR_2__VSSA_TO_VDDA) || \
 634:Generated_Source\PSoC5/ADC_SAR_2.c ****                  (ADC_SAR_2_DEFAULT_RANGE == ADC_SAR_2__VSSA_TO_VDAC)) )
 635:Generated_Source\PSoC5/ADC_SAR_2.c ****                 diff_zero = ADC_SAR_2_SAR_DIFF_SHIFT >> 2u;
 636:Generated_Source\PSoC5/ADC_SAR_2.c ****             #endif /* End ADC_SAR_2_DEFAULT_RANGE */
 637:Generated_Source\PSoC5/ADC_SAR_2.c ****             break;
 638:Generated_Source\PSoC5/ADC_SAR_2.c ****         case (uint8)ADC_SAR_2__BITS_8:
 639:Generated_Source\PSoC5/ADC_SAR_2.c ****             counts = (int32)ADC_SAR_2_SAR_WRK_MAX_8BIT;
 640:Generated_Source\PSoC5/ADC_SAR_2.c ****             #if(!((ADC_SAR_2_DEFAULT_RANGE == ADC_SAR_2__VSS_TO_VREF) || \
 641:Generated_Source\PSoC5/ADC_SAR_2.c ****                  (ADC_SAR_2_DEFAULT_RANGE == ADC_SAR_2__VSSA_TO_VDDA) || \
 642:Generated_Source\PSoC5/ADC_SAR_2.c ****                  (ADC_SAR_2_DEFAULT_RANGE == ADC_SAR_2__VSSA_TO_VDAC)) )
 643:Generated_Source\PSoC5/ADC_SAR_2.c ****                 diff_zero = ADC_SAR_2_SAR_DIFF_SHIFT >> 4u;
 644:Generated_Source\PSoC5/ADC_SAR_2.c ****             #endif /* End ADC_SAR_2_DEFAULT_RANGE */
 645:Generated_Source\PSoC5/ADC_SAR_2.c ****             break;
 646:Generated_Source\PSoC5/ADC_SAR_2.c ****         default: /* Halt CPU in debug mode if resolution is out of valid range */
 647:Generated_Source\PSoC5/ADC_SAR_2.c ****             counts = 0;
 648:Generated_Source\PSoC5/ADC_SAR_2.c ****             #if(!((ADC_SAR_2_DEFAULT_RANGE == ADC_SAR_2__VSS_TO_VREF) || \
 649:Generated_Source\PSoC5/ADC_SAR_2.c ****                  (ADC_SAR_2_DEFAULT_RANGE == ADC_SAR_2__VSSA_TO_VDDA) || \
 650:Generated_Source\PSoC5/ADC_SAR_2.c ****                  (ADC_SAR_2_DEFAULT_RANGE == ADC_SAR_2__VSSA_TO_VDAC)) )
 651:Generated_Source\PSoC5/ADC_SAR_2.c ****                 diff_zero = 0u;
 652:Generated_Source\PSoC5/ADC_SAR_2.c ****             #endif /* End ADC_SAR_2_DEFAULT_RANGE */
 653:Generated_Source\PSoC5/ADC_SAR_2.c ****             CYASSERT(0u != 0u);
 654:Generated_Source\PSoC5/ADC_SAR_2.c ****             break;
 655:Generated_Source\PSoC5/ADC_SAR_2.c ****     }
 656:Generated_Source\PSoC5/ADC_SAR_2.c ****     ADC_SAR_2_countsPerVolt = 0; /* Clear obsolete variable */
 266              		.loc 1 656 0
 267 0028 0A4B     		ldr	r3, .L18+8
 268              	.LBE5:
 269              	.LBE4:
 362:Generated_Source\PSoC5/ADC_SAR_2.c **** 
 270              		.loc 1 362 0
 271 002a 88BF     		it	hi
 272 002c 1146     		movhi	r1, r2
 273              	.LVL21:
 274              	.LBB7:
 275              	.LBB6:
 276              		.loc 1 656 0
 277 002e 1A80     		strh	r2, [r3]	@ movhi
 657:Generated_Source\PSoC5/ADC_SAR_2.c ****     /* Calculate gain in counts per 10 volts with rounding */
 658:Generated_Source\PSoC5/ADC_SAR_2.c ****     ADC_SAR_2_countsPer10Volt = (((counts * ADC_SAR_2_10MV_COUNTS) +
 278              		.loc 1 658 0
 279 0030 42F21073 		movw	r3, #10000
 280 0034 4B43     		muls	r3, r1, r3
 659:Generated_Source\PSoC5/ADC_SAR_2.c ****                         ADC_SAR_2_DEFAULT_REF_VOLTAGE_MV) / (ADC_SAR_2_DEFAULT_REF_VOLTAGE_MV * 2))
 281              		.loc 1 659 0
 282 0036 41F28831 		movw	r1, #5000
 283              	.LVL22:
 658:Generated_Source\PSoC5/ADC_SAR_2.c ****                         ADC_SAR_2_DEFAULT_REF_VOLTAGE_MV) / (ADC_SAR_2_DEFAULT_REF_VOLTAGE_MV * 2))
 284              		.loc 1 658 0
 285 003a 03F6C413 		addw	r3, r3, #2500
 286              		.loc 1 659 0
 287 003e 93FBF1F3 		sdiv	r3, r3, r1
 658:Generated_Source\PSoC5/ADC_SAR_2.c ****                         ADC_SAR_2_DEFAULT_REF_VOLTAGE_MV) / (ADC_SAR_2_DEFAULT_REF_VOLTAGE_MV * 2))
 288              		.loc 1 658 0
 289 0042 0549     		ldr	r1, .L18+12
ARM GAS  C:\Users\Luggi\AppData\Local\Temp\cclY8GBN.s 			page 18


 290 0044 0B60     		str	r3, [r1]
 660:Generated_Source\PSoC5/ADC_SAR_2.c **** 
 661:Generated_Source\PSoC5/ADC_SAR_2.c ****     #if( (ADC_SAR_2_DEFAULT_RANGE == ADC_SAR_2__VSS_TO_VREF) || \
 662:Generated_Source\PSoC5/ADC_SAR_2.c ****          (ADC_SAR_2_DEFAULT_RANGE == ADC_SAR_2__VSSA_TO_VDDA) || \
 663:Generated_Source\PSoC5/ADC_SAR_2.c ****          (ADC_SAR_2_DEFAULT_RANGE == ADC_SAR_2__VSSA_TO_VDAC) )
 664:Generated_Source\PSoC5/ADC_SAR_2.c ****         ADC_SAR_2_shift = 0;
 291              		.loc 1 664 0
 292 0046 054B     		ldr	r3, .L18+16
 293 0048 1A80     		strh	r2, [r3]	@ movhi
 294 004a 7047     		bx	lr
 295              	.L19:
 296              		.align	2
 297              	.L18:
 298 004c 02590040 		.word	1073764610
 299 0050 00000000 		.word	.LANCHOR0
 300 0054 00000000 		.word	ADC_SAR_2_countsPerVolt
 301 0058 00000000 		.word	ADC_SAR_2_countsPer10Volt
 302 005c 00000000 		.word	ADC_SAR_2_shift
 303              	.LBE6:
 304              	.LBE7:
 305              		.cfi_endproc
 306              	.LFE5:
 307              		.size	ADC_SAR_2_SetResolution, .-ADC_SAR_2_SetResolution
 308              		.section	.text.ADC_SAR_2_Init,"ax",%progbits
 309              		.align	1
 310              		.global	ADC_SAR_2_Init
 311              		.thumb
 312              		.thumb_func
 313              		.type	ADC_SAR_2_Init, %function
 314              	ADC_SAR_2_Init:
 315              	.LFB1:
 107:Generated_Source\PSoC5/ADC_SAR_2.c **** 
 316              		.loc 1 107 0
 317              		.cfi_startproc
 318              		@ args = 0, pretend = 0, frame = 0
 319              		@ frame_needed = 0, uses_anonymous_args = 0
 320 0000 08B5     		push	{r3, lr}
 321              		.cfi_def_cfa_offset 8
 322              		.cfi_offset 3, -8
 323              		.cfi_offset 14, -4
 111:Generated_Source\PSoC5/ADC_SAR_2.c ****     #endif /* End ADC_SAR_2_DEFAULT_INTERNAL_CLK */
 324              		.loc 1 111 0
 325 0002 1020     		movs	r0, #16
 326 0004 FFF7FEFF 		bl	ADC_SAR_2_theACLK_SetModeRegister
 327              	.LVL23:
 116:Generated_Source\PSoC5/ADC_SAR_2.c ****         (void)CyIntSetVector(ADC_SAR_2_INTC_NUMBER, &ADC_SAR_2_ISR);
 328              		.loc 1 116 0
 329 0008 0220     		movs	r0, #2
 330 000a 0721     		movs	r1, #7
 331 000c FFF7FEFF 		bl	CyIntSetPriority
 332              	.LVL24:
 117:Generated_Source\PSoC5/ADC_SAR_2.c ****     #endif   /* End ADC_SAR_2_IRQ_REMOVE */
 333              		.loc 1 117 0
 334 0010 0749     		ldr	r1, .L21
 335 0012 0220     		movs	r0, #2
 336 0014 FFF7FEFF 		bl	CyIntSetVector
 337              	.LVL25:
ARM GAS  C:\Users\Luggi\AppData\Local\Temp\cclY8GBN.s 			page 19


 121:Generated_Source\PSoC5/ADC_SAR_2.c **** 
 338              		.loc 1 121 0
 339 0018 064A     		ldr	r2, .L21+4
 124:Generated_Source\PSoC5/ADC_SAR_2.c ****     ADC_SAR_2_offset = 0;
 340              		.loc 1 124 0
 341 001a 0C20     		movs	r0, #12
 121:Generated_Source\PSoC5/ADC_SAR_2.c **** 
 342              		.loc 1 121 0
 343 001c 1378     		ldrb	r3, [r2]	@ zero_extendqisi2
 344 001e 43F00603 		orr	r3, r3, #6
 345 0022 1370     		strb	r3, [r2]
 124:Generated_Source\PSoC5/ADC_SAR_2.c ****     ADC_SAR_2_offset = 0;
 346              		.loc 1 124 0
 347 0024 FFF7FEFF 		bl	ADC_SAR_2_SetResolution
 348              	.LVL26:
 125:Generated_Source\PSoC5/ADC_SAR_2.c **** }
 349              		.loc 1 125 0
 350 0028 034B     		ldr	r3, .L21+8
 351 002a 0022     		movs	r2, #0
 352 002c 1A80     		strh	r2, [r3]	@ movhi
 353 002e 08BD     		pop	{r3, pc}
 354              	.L22:
 355              		.align	2
 356              	.L21:
 357 0030 00000000 		.word	ADC_SAR_2_ISR
 358 0034 01590040 		.word	1073764609
 359 0038 00000000 		.word	ADC_SAR_2_offset
 360              		.cfi_endproc
 361              	.LFE1:
 362              		.size	ADC_SAR_2_Init, .-ADC_SAR_2_Init
 363              		.section	.text.ADC_SAR_2_Start,"ax",%progbits
 364              		.align	1
 365              		.global	ADC_SAR_2_Start
 366              		.thumb
 367              		.thumb_func
 368              		.type	ADC_SAR_2_Start, %function
 369              	ADC_SAR_2_Start:
 370              	.LFB0:
  75:Generated_Source\PSoC5/ADC_SAR_2.c **** 
 371              		.loc 1 75 0
 372              		.cfi_startproc
 373              		@ args = 0, pretend = 0, frame = 0
 374              		@ frame_needed = 0, uses_anonymous_args = 0
 375 0000 10B5     		push	{r4, lr}
 376              		.cfi_def_cfa_offset 8
 377              		.cfi_offset 4, -8
 378              		.cfi_offset 14, -4
  78:Generated_Source\PSoC5/ADC_SAR_2.c ****     {
 379              		.loc 1 78 0
 380 0002 054C     		ldr	r4, .L25
 381 0004 2378     		ldrb	r3, [r4]	@ zero_extendqisi2
 382 0006 1BB9     		cbnz	r3, .L24
  80:Generated_Source\PSoC5/ADC_SAR_2.c ****         ADC_SAR_2_initVar = 1u;
 383              		.loc 1 80 0
 384 0008 FFF7FEFF 		bl	ADC_SAR_2_Init
 385              	.LVL27:
  81:Generated_Source\PSoC5/ADC_SAR_2.c ****     }
ARM GAS  C:\Users\Luggi\AppData\Local\Temp\cclY8GBN.s 			page 20


 386              		.loc 1 81 0
 387 000c 0123     		movs	r3, #1
 388 000e 2370     		strb	r3, [r4]
 389              	.L24:
  84:Generated_Source\PSoC5/ADC_SAR_2.c **** 
 390              		.loc 1 84 0
 391 0010 BDE81040 		pop	{r4, lr}
 392              		.cfi_restore 14
 393              		.cfi_restore 4
 394              		.cfi_def_cfa_offset 0
  83:Generated_Source\PSoC5/ADC_SAR_2.c **** }
 395              		.loc 1 83 0
 396 0014 FFF7FEBF 		b	ADC_SAR_2_Enable
 397              	.LVL28:
 398              	.L26:
 399              		.align	2
 400              	.L25:
 401 0018 00000000 		.word	.LANCHOR1
 402              		.cfi_endproc
 403              	.LFE0:
 404              		.size	ADC_SAR_2_Start, .-ADC_SAR_2_Start
 405              		.section	.text.ADC_SAR_2_StartConvert,"ax",%progbits
 406              		.align	1
 407              		.global	ADC_SAR_2_StartConvert
 408              		.thumb
 409              		.thumb_func
 410              		.type	ADC_SAR_2_StartConvert, %function
 411              	ADC_SAR_2_StartConvert:
 412              	.LFB6:
 402:Generated_Source\PSoC5/ADC_SAR_2.c ****         #if(ADC_SAR_2_DEFAULT_CONV_MODE != ADC_SAR_2__FREE_RUNNING)  /* If software triggered mode 
 413              		.loc 1 402 0
 414              		.cfi_startproc
 415              		@ args = 0, pretend = 0, frame = 0
 416              		@ frame_needed = 0, uses_anonymous_args = 0
 417              		@ link register save eliminated.
 408:Generated_Source\PSoC5/ADC_SAR_2.c ****     }
 418              		.loc 1 408 0
 419 0000 024A     		ldr	r2, .L28
 420 0002 1378     		ldrb	r3, [r2]	@ zero_extendqisi2
 421 0004 43F00103 		orr	r3, r3, #1
 422 0008 1370     		strb	r3, [r2]
 423 000a 7047     		bx	lr
 424              	.L29:
 425              		.align	2
 426              	.L28:
 427 000c 00590040 		.word	1073764608
 428              		.cfi_endproc
 429              	.LFE6:
 430              		.size	ADC_SAR_2_StartConvert, .-ADC_SAR_2_StartConvert
 431              		.section	.text.ADC_SAR_2_StopConvert,"ax",%progbits
 432              		.align	1
 433              		.global	ADC_SAR_2_StopConvert
 434              		.thumb
 435              		.thumb_func
 436              		.type	ADC_SAR_2_StopConvert, %function
 437              	ADC_SAR_2_StopConvert:
 438              	.LFB7:
ARM GAS  C:\Users\Luggi\AppData\Local\Temp\cclY8GBN.s 			page 21


 436:Generated_Source\PSoC5/ADC_SAR_2.c ****         /* Stop all conversions */
 439              		.loc 1 436 0
 440              		.cfi_startproc
 441              		@ args = 0, pretend = 0, frame = 0
 442              		@ frame_needed = 0, uses_anonymous_args = 0
 443              		@ link register save eliminated.
 438:Generated_Source\PSoC5/ADC_SAR_2.c **** 
 444              		.loc 1 438 0
 445 0000 024A     		ldr	r2, .L31
 446 0002 1378     		ldrb	r3, [r2]	@ zero_extendqisi2
 447 0004 03F0FE03 		and	r3, r3, #254
 448 0008 1370     		strb	r3, [r2]
 449 000a 7047     		bx	lr
 450              	.L32:
 451              		.align	2
 452              	.L31:
 453 000c 00590040 		.word	1073764608
 454              		.cfi_endproc
 455              	.LFE7:
 456              		.size	ADC_SAR_2_StopConvert, .-ADC_SAR_2_StopConvert
 457              		.section	.text.ADC_SAR_2_IsEndConversion,"ax",%progbits
 458              		.align	1
 459              		.global	ADC_SAR_2_IsEndConversion
 460              		.thumb
 461              		.thumb_func
 462              		.type	ADC_SAR_2_IsEndConversion, %function
 463              	ADC_SAR_2_IsEndConversion:
 464              	.LFB8:
 476:Generated_Source\PSoC5/ADC_SAR_2.c ****     uint8 status;
 465              		.loc 1 476 0
 466              		.cfi_startproc
 467              		@ args = 0, pretend = 0, frame = 0
 468              		@ frame_needed = 0, uses_anonymous_args = 0
 469              	.LVL29:
 470 0000 38B5     		push	{r3, r4, r5, lr}
 471              		.cfi_def_cfa_offset 16
 472              		.cfi_offset 3, -16
 473              		.cfi_offset 4, -12
 474              		.cfi_offset 5, -8
 475              		.cfi_offset 14, -4
 476              	.L35:
 481:Generated_Source\PSoC5/ADC_SAR_2.c ****     } while ((status != ADC_SAR_2_SAR_EOF_1) && (retMode == ADC_SAR_2_WAIT_FOR_RESULT));
 477              		.loc 1 481 0 discriminator 2
 478 0002 074D     		ldr	r5, .L40
 479 0004 2C78     		ldrb	r4, [r5]	@ zero_extendqisi2
 480              	.LVL30:
 482:Generated_Source\PSoC5/ADC_SAR_2.c ****     /* If convertion complete, wait until EOF bit released */
 481              		.loc 1 482 0 discriminator 2
 482 0006 14F00104 		ands	r4, r4, #1
 483              	.LVL31:
 484 000a 03D1     		bne	.L34
 482:Generated_Source\PSoC5/ADC_SAR_2.c ****     /* If convertion complete, wait until EOF bit released */
 485              		.loc 1 482 0 is_stmt 0 discriminator 1
 486 000c 0028     		cmp	r0, #0
 487 000e F8D0     		beq	.L35
 488 0010 0024     		movs	r4, #0
 489 0012 03E0     		b	.L39
ARM GAS  C:\Users\Luggi\AppData\Local\Temp\cclY8GBN.s 			page 22


 490              	.L34:
 487:Generated_Source\PSoC5/ADC_SAR_2.c ****         /* Do the unconditional read operation of the CSR1 register to make sure the EOC bit has be
 491              		.loc 1 487 0 is_stmt 1
 492 0014 2046     		mov	r0, r4
 493              	.LVL32:
 494 0016 FFF7FEFF 		bl	CyDelayUs
 495              	.LVL33:
 489:Generated_Source\PSoC5/ADC_SAR_2.c ****     }
 496              		.loc 1 489 0
 497 001a 2B78     		ldrb	r3, [r5]	@ zero_extendqisi2
 498              	.L39:
 493:Generated_Source\PSoC5/ADC_SAR_2.c **** 
 499              		.loc 1 493 0
 500 001c 2046     		mov	r0, r4
 501 001e 38BD     		pop	{r3, r4, r5, pc}
 502              	.L41:
 503              		.align	2
 504              	.L40:
 505 0020 01590040 		.word	1073764609
 506              		.cfi_endproc
 507              	.LFE8:
 508              		.size	ADC_SAR_2_IsEndConversion, .-ADC_SAR_2_IsEndConversion
 509              		.section	.text.ADC_SAR_2_GetResult8,"ax",%progbits
 510              		.align	1
 511              		.global	ADC_SAR_2_GetResult8
 512              		.thumb
 513              		.thumb_func
 514              		.type	ADC_SAR_2_GetResult8, %function
 515              	ADC_SAR_2_GetResult8:
 516              	.LFB9:
 521:Generated_Source\PSoC5/ADC_SAR_2.c ****     return( (int8)ADC_SAR_2_SAR_WRK0_REG - (int8)ADC_SAR_2_shift);
 517              		.loc 1 521 0
 518              		.cfi_startproc
 519              		@ args = 0, pretend = 0, frame = 0
 520              		@ frame_needed = 0, uses_anonymous_args = 0
 521              		@ link register save eliminated.
 522:Generated_Source\PSoC5/ADC_SAR_2.c **** }
 522              		.loc 1 522 0
 523 0000 034A     		ldr	r2, .L43
 524 0002 044B     		ldr	r3, .L43+4
 525 0004 1B78     		ldrb	r3, [r3]	@ zero_extendqisi2
 526 0006 1088     		ldrh	r0, [r2]
 527 0008 181A     		subs	r0, r3, r0
 523:Generated_Source\PSoC5/ADC_SAR_2.c **** 
 528              		.loc 1 523 0
 529 000a 40B2     		sxtb	r0, r0
 530 000c 7047     		bx	lr
 531              	.L44:
 532 000e 00BF     		.align	2
 533              	.L43:
 534 0010 00000000 		.word	ADC_SAR_2_shift
 535 0014 A05B0040 		.word	1073765280
 536              		.cfi_endproc
 537              	.LFE9:
 538              		.size	ADC_SAR_2_GetResult8, .-ADC_SAR_2_GetResult8
 539              		.section	.text.ADC_SAR_2_GetResult16,"ax",%progbits
 540              		.align	1
ARM GAS  C:\Users\Luggi\AppData\Local\Temp\cclY8GBN.s 			page 23


 541              		.global	ADC_SAR_2_GetResult16
 542              		.thumb
 543              		.thumb_func
 544              		.type	ADC_SAR_2_GetResult16, %function
 545              	ADC_SAR_2_GetResult16:
 546              	.LFB10:
 551:Generated_Source\PSoC5/ADC_SAR_2.c ****     uint16 res;
 547              		.loc 1 551 0
 548              		.cfi_startproc
 549              		@ args = 0, pretend = 0, frame = 0
 550              		@ frame_needed = 0, uses_anonymous_args = 0
 551              		@ link register save eliminated.
 556:Generated_Source\PSoC5/ADC_SAR_2.c **** }
 552              		.loc 1 556 0
 553 0000 034A     		ldr	r2, .L46
 554:Generated_Source\PSoC5/ADC_SAR_2.c **** 
 554              		.loc 1 554 0
 555 0002 044B     		ldr	r3, .L46+4
 556 0004 1B88     		ldrh	r3, [r3]
 557              	.LVL34:
 556:Generated_Source\PSoC5/ADC_SAR_2.c **** }
 558              		.loc 1 556 0
 559 0006 1088     		ldrh	r0, [r2]
 560 0008 181A     		subs	r0, r3, r0
 557:Generated_Source\PSoC5/ADC_SAR_2.c **** 
 561              		.loc 1 557 0
 562 000a 00B2     		sxth	r0, r0
 563 000c 7047     		bx	lr
 564              	.L47:
 565 000e 00BF     		.align	2
 566              	.L46:
 567 0010 00000000 		.word	ADC_SAR_2_shift
 568 0014 A05B0040 		.word	1073765280
 569              		.cfi_endproc
 570              	.LFE10:
 571              		.size	ADC_SAR_2_GetResult16, .-ADC_SAR_2_GetResult16
 572              		.section	.text.ADC_SAR_2_SetOffset,"ax",%progbits
 573              		.align	1
 574              		.global	ADC_SAR_2_SetOffset
 575              		.thumb
 576              		.thumb_func
 577              		.type	ADC_SAR_2_SetOffset, %function
 578              	ADC_SAR_2_SetOffset:
 579              	.LFB11:
 586:Generated_Source\PSoC5/ADC_SAR_2.c ****     ADC_SAR_2_offset = offset;
 580              		.loc 1 586 0
 581              		.cfi_startproc
 582              		@ args = 0, pretend = 0, frame = 0
 583              		@ frame_needed = 0, uses_anonymous_args = 0
 584              		@ link register save eliminated.
 585              	.LVL35:
 587:Generated_Source\PSoC5/ADC_SAR_2.c **** }
 586              		.loc 1 587 0
 587 0000 014B     		ldr	r3, .L49
 588 0002 1880     		strh	r0, [r3]	@ movhi
 589 0004 7047     		bx	lr
 590              	.L50:
ARM GAS  C:\Users\Luggi\AppData\Local\Temp\cclY8GBN.s 			page 24


 591 0006 00BF     		.align	2
 592              	.L49:
 593 0008 00000000 		.word	ADC_SAR_2_offset
 594              		.cfi_endproc
 595              	.LFE11:
 596              		.size	ADC_SAR_2_SetOffset, .-ADC_SAR_2_SetOffset
 597              		.section	.text.ADC_SAR_2_SetGain,"ax",%progbits
 598              		.align	1
 599              		.global	ADC_SAR_2_SetGain
 600              		.thumb
 601              		.thumb_func
 602              		.type	ADC_SAR_2_SetGain, %function
 603              	ADC_SAR_2_SetGain:
 604              	.LFB13:
 665:Generated_Source\PSoC5/ADC_SAR_2.c ****     #else
 666:Generated_Source\PSoC5/ADC_SAR_2.c ****         ADC_SAR_2_shift = diff_zero;
 667:Generated_Source\PSoC5/ADC_SAR_2.c ****     #endif /* End ADC_SAR_2_DEFAULT_RANGE */
 668:Generated_Source\PSoC5/ADC_SAR_2.c **** }
 669:Generated_Source\PSoC5/ADC_SAR_2.c **** 
 670:Generated_Source\PSoC5/ADC_SAR_2.c **** 
 671:Generated_Source\PSoC5/ADC_SAR_2.c **** /*******************************************************************************
 672:Generated_Source\PSoC5/ADC_SAR_2.c **** * Function Name: ADC_SAR_2_SetGain
 673:Generated_Source\PSoC5/ADC_SAR_2.c **** ********************************************************************************
 674:Generated_Source\PSoC5/ADC_SAR_2.c **** *
 675:Generated_Source\PSoC5/ADC_SAR_2.c **** * Summary:
 676:Generated_Source\PSoC5/ADC_SAR_2.c **** *  Sets the ADC gain in counts per volt for the voltage conversion functions
 677:Generated_Source\PSoC5/ADC_SAR_2.c **** *  that follow. This value is set by default by the reference and input range
 678:Generated_Source\PSoC5/ADC_SAR_2.c **** *  settings. It should only be used to further calibrate the ADC with a known
 679:Generated_Source\PSoC5/ADC_SAR_2.c **** *  input or if the ADC is using an external reference.
 680:Generated_Source\PSoC5/ADC_SAR_2.c **** *
 681:Generated_Source\PSoC5/ADC_SAR_2.c **** * Parameters:
 682:Generated_Source\PSoC5/ADC_SAR_2.c **** *  int16 adcGain counts per volt
 683:Generated_Source\PSoC5/ADC_SAR_2.c **** *
 684:Generated_Source\PSoC5/ADC_SAR_2.c **** * Return:
 685:Generated_Source\PSoC5/ADC_SAR_2.c **** *  None.
 686:Generated_Source\PSoC5/ADC_SAR_2.c **** *
 687:Generated_Source\PSoC5/ADC_SAR_2.c **** * Global Variables:
 688:Generated_Source\PSoC5/ADC_SAR_2.c **** *  ADC_SAR_2_countsPer10Volt variable modified. This variable is used
 689:Generated_Source\PSoC5/ADC_SAR_2.c **** *  for gain calibration purpose.
 690:Generated_Source\PSoC5/ADC_SAR_2.c **** *
 691:Generated_Source\PSoC5/ADC_SAR_2.c **** *******************************************************************************/
 692:Generated_Source\PSoC5/ADC_SAR_2.c **** void ADC_SAR_2_SetGain(int16 adcGain)
 693:Generated_Source\PSoC5/ADC_SAR_2.c **** {
 605              		.loc 1 693 0
 606              		.cfi_startproc
 607              		@ args = 0, pretend = 0, frame = 0
 608              		@ frame_needed = 0, uses_anonymous_args = 0
 609              		@ link register save eliminated.
 610              	.LVL36:
 694:Generated_Source\PSoC5/ADC_SAR_2.c ****     ADC_SAR_2_countsPer10Volt = (int32)adcGain * 10;
 611              		.loc 1 694 0
 612 0000 0A23     		movs	r3, #10
 613 0002 5843     		muls	r0, r3, r0
 614              	.LVL37:
 615 0004 014B     		ldr	r3, .L52
 616 0006 1860     		str	r0, [r3]
 617 0008 7047     		bx	lr
ARM GAS  C:\Users\Luggi\AppData\Local\Temp\cclY8GBN.s 			page 25


 618              	.L53:
 619 000a 00BF     		.align	2
 620              	.L52:
 621 000c 00000000 		.word	ADC_SAR_2_countsPer10Volt
 622              		.cfi_endproc
 623              	.LFE13:
 624              		.size	ADC_SAR_2_SetGain, .-ADC_SAR_2_SetGain
 625              		.section	.text.ADC_SAR_2_SetScaledGain,"ax",%progbits
 626              		.align	1
 627              		.global	ADC_SAR_2_SetScaledGain
 628              		.thumb
 629              		.thumb_func
 630              		.type	ADC_SAR_2_SetScaledGain, %function
 631              	ADC_SAR_2_SetScaledGain:
 632              	.LFB14:
 695:Generated_Source\PSoC5/ADC_SAR_2.c **** }
 696:Generated_Source\PSoC5/ADC_SAR_2.c **** 
 697:Generated_Source\PSoC5/ADC_SAR_2.c **** 
 698:Generated_Source\PSoC5/ADC_SAR_2.c **** /*******************************************************************************
 699:Generated_Source\PSoC5/ADC_SAR_2.c **** * Function Name: ADC_SAR_2_SetScaledGain
 700:Generated_Source\PSoC5/ADC_SAR_2.c **** ********************************************************************************
 701:Generated_Source\PSoC5/ADC_SAR_2.c **** *
 702:Generated_Source\PSoC5/ADC_SAR_2.c **** * Summary:
 703:Generated_Source\PSoC5/ADC_SAR_2.c **** *  Sets the ADC gain in counts per 10 volt for the voltage conversion functions
 704:Generated_Source\PSoC5/ADC_SAR_2.c **** *  that follow. This value is set by default by the reference and input range
 705:Generated_Source\PSoC5/ADC_SAR_2.c **** *  settings. It should only be used to further calibrate the ADC with a known
 706:Generated_Source\PSoC5/ADC_SAR_2.c **** *  input or if the ADC is using an external reference.
 707:Generated_Source\PSoC5/ADC_SAR_2.c **** *
 708:Generated_Source\PSoC5/ADC_SAR_2.c **** * Parameters:
 709:Generated_Source\PSoC5/ADC_SAR_2.c **** *  int32 adcGain  counts per 10 volt
 710:Generated_Source\PSoC5/ADC_SAR_2.c **** *
 711:Generated_Source\PSoC5/ADC_SAR_2.c **** * Return:
 712:Generated_Source\PSoC5/ADC_SAR_2.c **** *  None.
 713:Generated_Source\PSoC5/ADC_SAR_2.c **** *
 714:Generated_Source\PSoC5/ADC_SAR_2.c **** * Global Variables:
 715:Generated_Source\PSoC5/ADC_SAR_2.c **** *  ADC_SAR_2_countsPer10Volt variable modified. This variable is used
 716:Generated_Source\PSoC5/ADC_SAR_2.c **** *  for gain calibration purpose.
 717:Generated_Source\PSoC5/ADC_SAR_2.c **** *
 718:Generated_Source\PSoC5/ADC_SAR_2.c **** *******************************************************************************/
 719:Generated_Source\PSoC5/ADC_SAR_2.c **** void ADC_SAR_2_SetScaledGain(int32 adcGain)
 720:Generated_Source\PSoC5/ADC_SAR_2.c **** {
 633              		.loc 1 720 0
 634              		.cfi_startproc
 635              		@ args = 0, pretend = 0, frame = 0
 636              		@ frame_needed = 0, uses_anonymous_args = 0
 637              		@ link register save eliminated.
 638              	.LVL38:
 721:Generated_Source\PSoC5/ADC_SAR_2.c ****     ADC_SAR_2_countsPer10Volt = adcGain;
 639              		.loc 1 721 0
 640 0000 014B     		ldr	r3, .L55
 641 0002 1860     		str	r0, [r3]
 642 0004 7047     		bx	lr
 643              	.L56:
 644 0006 00BF     		.align	2
 645              	.L55:
 646 0008 00000000 		.word	ADC_SAR_2_countsPer10Volt
 647              		.cfi_endproc
ARM GAS  C:\Users\Luggi\AppData\Local\Temp\cclY8GBN.s 			page 26


 648              	.LFE14:
 649              		.size	ADC_SAR_2_SetScaledGain, .-ADC_SAR_2_SetScaledGain
 650              		.section	.text.ADC_SAR_2_CountsTo_mVolts,"ax",%progbits
 651              		.align	1
 652              		.global	ADC_SAR_2_CountsTo_mVolts
 653              		.thumb
 654              		.thumb_func
 655              		.type	ADC_SAR_2_CountsTo_mVolts, %function
 656              	ADC_SAR_2_CountsTo_mVolts:
 657              	.LFB15:
 722:Generated_Source\PSoC5/ADC_SAR_2.c **** }
 723:Generated_Source\PSoC5/ADC_SAR_2.c **** 
 724:Generated_Source\PSoC5/ADC_SAR_2.c **** 
 725:Generated_Source\PSoC5/ADC_SAR_2.c **** /*******************************************************************************
 726:Generated_Source\PSoC5/ADC_SAR_2.c **** * Function Name: ADC_SAR_2_CountsTo_mVolts
 727:Generated_Source\PSoC5/ADC_SAR_2.c **** ********************************************************************************
 728:Generated_Source\PSoC5/ADC_SAR_2.c **** *
 729:Generated_Source\PSoC5/ADC_SAR_2.c **** * Summary:
 730:Generated_Source\PSoC5/ADC_SAR_2.c **** *  Converts the ADC output to millivolts as a 16-bit integer.
 731:Generated_Source\PSoC5/ADC_SAR_2.c **** *
 732:Generated_Source\PSoC5/ADC_SAR_2.c **** * Parameters:
 733:Generated_Source\PSoC5/ADC_SAR_2.c **** *  int16 adcCounts:  Result from the ADC conversion
 734:Generated_Source\PSoC5/ADC_SAR_2.c **** *
 735:Generated_Source\PSoC5/ADC_SAR_2.c **** * Return:
 736:Generated_Source\PSoC5/ADC_SAR_2.c **** *  int16 Result in mVolts
 737:Generated_Source\PSoC5/ADC_SAR_2.c **** *
 738:Generated_Source\PSoC5/ADC_SAR_2.c **** * Global Variables:
 739:Generated_Source\PSoC5/ADC_SAR_2.c **** *  ADC_SAR_2_offset variable used.
 740:Generated_Source\PSoC5/ADC_SAR_2.c **** *  ADC_SAR_2_countsPer10Volt variable used.
 741:Generated_Source\PSoC5/ADC_SAR_2.c **** *
 742:Generated_Source\PSoC5/ADC_SAR_2.c **** *******************************************************************************/
 743:Generated_Source\PSoC5/ADC_SAR_2.c **** int16 ADC_SAR_2_CountsTo_mVolts(int16 adcCounts)
 744:Generated_Source\PSoC5/ADC_SAR_2.c **** {
 658              		.loc 1 744 0
 659              		.cfi_startproc
 660              		@ args = 0, pretend = 0, frame = 0
 661              		@ frame_needed = 0, uses_anonymous_args = 0
 662              		@ link register save eliminated.
 663              	.LVL39:
 745:Generated_Source\PSoC5/ADC_SAR_2.c ****     int16 mVolts;
 746:Generated_Source\PSoC5/ADC_SAR_2.c ****     int32 countsPer10Volt;
 747:Generated_Source\PSoC5/ADC_SAR_2.c **** 
 748:Generated_Source\PSoC5/ADC_SAR_2.c ****     if(ADC_SAR_2_countsPerVolt != 0)
 664              		.loc 1 748 0
 665 0000 0E4A     		ldr	r2, .L62
 666 0002 1388     		ldrh	r3, [r2]
 667 0004 9BB2     		uxth	r3, r3
 668 0006 23B1     		cbz	r3, .L58
 749:Generated_Source\PSoC5/ADC_SAR_2.c ****     {   /* Support obsolete method */
 750:Generated_Source\PSoC5/ADC_SAR_2.c ****         countsPer10Volt = (int32)ADC_SAR_2_countsPerVolt * 10;
 669              		.loc 1 750 0
 670 0008 1288     		ldrh	r2, [r2]
 671 000a 0A23     		movs	r3, #10
 672 000c 12B2     		sxth	r2, r2
 673 000e 5A43     		muls	r2, r3, r2
 674              	.LVL40:
 675 0010 01E0     		b	.L59
ARM GAS  C:\Users\Luggi\AppData\Local\Temp\cclY8GBN.s 			page 27


 676              	.LVL41:
 677              	.L58:
 751:Generated_Source\PSoC5/ADC_SAR_2.c ****     }
 752:Generated_Source\PSoC5/ADC_SAR_2.c ****     else
 753:Generated_Source\PSoC5/ADC_SAR_2.c ****     {
 754:Generated_Source\PSoC5/ADC_SAR_2.c ****         countsPer10Volt = ADC_SAR_2_countsPer10Volt;
 678              		.loc 1 754 0
 679 0012 0B4B     		ldr	r3, .L62+4
 680 0014 1A68     		ldr	r2, [r3]
 681              	.LVL42:
 682              	.L59:
 755:Generated_Source\PSoC5/ADC_SAR_2.c ****     }
 756:Generated_Source\PSoC5/ADC_SAR_2.c **** 
 757:Generated_Source\PSoC5/ADC_SAR_2.c ****     /* Subtract ADC offset */
 758:Generated_Source\PSoC5/ADC_SAR_2.c ****     adcCounts -= ADC_SAR_2_offset;
 683              		.loc 1 758 0
 684 0016 0B4B     		ldr	r3, .L62+8
 685 0018 1988     		ldrh	r1, [r3]
 686 001a 0223     		movs	r3, #2
 687 001c 411A     		subs	r1, r0, r1
 759:Generated_Source\PSoC5/ADC_SAR_2.c ****     /* Convert to millivolts with rounding */
 760:Generated_Source\PSoC5/ADC_SAR_2.c ****     mVolts = (int16)( (( (int32)adcCounts * ADC_SAR_2_10MV_COUNTS ) + ( (adcCounts > 0) ?
 688              		.loc 1 760 0
 689 001e 42F21070 		movw	r0, #10000
 690              	.LVL43:
 761:Generated_Source\PSoC5/ADC_SAR_2.c ****                        (countsPer10Volt / 2) : (-(countsPer10Volt / 2)) )) / countsPer10Volt);
 691              		.loc 1 761 0
 692 0022 92FBF3F3 		sdiv	r3, r2, r3
 758:Generated_Source\PSoC5/ADC_SAR_2.c ****     /* Convert to millivolts with rounding */
 693              		.loc 1 758 0
 694 0026 09B2     		sxth	r1, r1
 695              	.LVL44:
 760:Generated_Source\PSoC5/ADC_SAR_2.c ****                        (countsPer10Volt / 2) : (-(countsPer10Volt / 2)) )) / countsPer10Volt);
 696              		.loc 1 760 0
 697 0028 4843     		muls	r0, r1, r0
 698              		.loc 1 761 0
 699 002a 0029     		cmp	r1, #0
 700 002c D8BF     		it	le
 701 002e 5B42     		rsble	r3, r3, #0
 702              	.LVL45:
 760:Generated_Source\PSoC5/ADC_SAR_2.c ****                        (countsPer10Volt / 2) : (-(countsPer10Volt / 2)) )) / countsPer10Volt);
 703              		.loc 1 760 0
 704 0030 0344     		add	r3, r3, r0
 705              	.LVL46:
 706              		.loc 1 761 0
 707 0032 93FBF2F0 		sdiv	r0, r3, r2
 708              	.LVL47:
 762:Generated_Source\PSoC5/ADC_SAR_2.c **** 
 763:Generated_Source\PSoC5/ADC_SAR_2.c ****     return( mVolts );
 764:Generated_Source\PSoC5/ADC_SAR_2.c **** }
 709              		.loc 1 764 0
 710 0036 00B2     		sxth	r0, r0
 711 0038 7047     		bx	lr
 712              	.L63:
 713 003a 00BF     		.align	2
 714              	.L62:
 715 003c 00000000 		.word	ADC_SAR_2_countsPerVolt
ARM GAS  C:\Users\Luggi\AppData\Local\Temp\cclY8GBN.s 			page 28


 716 0040 00000000 		.word	ADC_SAR_2_countsPer10Volt
 717 0044 00000000 		.word	ADC_SAR_2_offset
 718              		.cfi_endproc
 719              	.LFE15:
 720              		.size	ADC_SAR_2_CountsTo_mVolts, .-ADC_SAR_2_CountsTo_mVolts
 721              		.global	__aeabi_ldivmod
 722              		.section	.text.ADC_SAR_2_CountsTo_uVolts,"ax",%progbits
 723              		.align	1
 724              		.global	ADC_SAR_2_CountsTo_uVolts
 725              		.thumb
 726              		.thumb_func
 727              		.type	ADC_SAR_2_CountsTo_uVolts, %function
 728              	ADC_SAR_2_CountsTo_uVolts:
 729              	.LFB16:
 765:Generated_Source\PSoC5/ADC_SAR_2.c **** 
 766:Generated_Source\PSoC5/ADC_SAR_2.c **** 
 767:Generated_Source\PSoC5/ADC_SAR_2.c **** /*******************************************************************************
 768:Generated_Source\PSoC5/ADC_SAR_2.c **** * Function Name: ADC_SAR_2_CountsTo_uVolts
 769:Generated_Source\PSoC5/ADC_SAR_2.c **** ********************************************************************************
 770:Generated_Source\PSoC5/ADC_SAR_2.c **** *
 771:Generated_Source\PSoC5/ADC_SAR_2.c **** * Summary:
 772:Generated_Source\PSoC5/ADC_SAR_2.c **** *  Converts the ADC output to microvolts as a 32-bit integer.
 773:Generated_Source\PSoC5/ADC_SAR_2.c **** *
 774:Generated_Source\PSoC5/ADC_SAR_2.c **** * Parameters:
 775:Generated_Source\PSoC5/ADC_SAR_2.c **** *  int16 adcCounts: Result from the ADC conversion
 776:Generated_Source\PSoC5/ADC_SAR_2.c **** *
 777:Generated_Source\PSoC5/ADC_SAR_2.c **** * Return:
 778:Generated_Source\PSoC5/ADC_SAR_2.c **** *  int32 Result in micro Volts
 779:Generated_Source\PSoC5/ADC_SAR_2.c **** *
 780:Generated_Source\PSoC5/ADC_SAR_2.c **** * Global Variables:
 781:Generated_Source\PSoC5/ADC_SAR_2.c **** *  ADC_SAR_2_offset variable used.
 782:Generated_Source\PSoC5/ADC_SAR_2.c **** *  ADC_SAR_2_countsPer10Volt used to convert ADC counts to uVolts.
 783:Generated_Source\PSoC5/ADC_SAR_2.c **** *
 784:Generated_Source\PSoC5/ADC_SAR_2.c **** *******************************************************************************/
 785:Generated_Source\PSoC5/ADC_SAR_2.c **** int32 ADC_SAR_2_CountsTo_uVolts(int16 adcCounts)
 786:Generated_Source\PSoC5/ADC_SAR_2.c **** {
 730              		.loc 1 786 0
 731              		.cfi_startproc
 732              		@ args = 0, pretend = 0, frame = 0
 733              		@ frame_needed = 0, uses_anonymous_args = 0
 734              	.LVL48:
 787:Generated_Source\PSoC5/ADC_SAR_2.c **** 
 788:Generated_Source\PSoC5/ADC_SAR_2.c ****     int64 uVolts;
 789:Generated_Source\PSoC5/ADC_SAR_2.c ****     int32 countsPer10Volt;
 790:Generated_Source\PSoC5/ADC_SAR_2.c **** 
 791:Generated_Source\PSoC5/ADC_SAR_2.c ****     if(ADC_SAR_2_countsPerVolt != 0)
 735              		.loc 1 791 0
 736 0000 0C4A     		ldr	r2, .L67
 786:Generated_Source\PSoC5/ADC_SAR_2.c **** 
 737              		.loc 1 786 0
 738 0002 38B5     		push	{r3, r4, r5, lr}
 739              		.cfi_def_cfa_offset 16
 740              		.cfi_offset 3, -16
 741              		.cfi_offset 4, -12
 742              		.cfi_offset 5, -8
 743              		.cfi_offset 14, -4
 744              		.loc 1 791 0
ARM GAS  C:\Users\Luggi\AppData\Local\Temp\cclY8GBN.s 			page 29


 745 0004 1388     		ldrh	r3, [r2]
 746 0006 9BB2     		uxth	r3, r3
 747 0008 23B1     		cbz	r3, .L65
 792:Generated_Source\PSoC5/ADC_SAR_2.c ****     {   /* Support obsolete method */
 793:Generated_Source\PSoC5/ADC_SAR_2.c ****         countsPer10Volt = (int32)ADC_SAR_2_countsPerVolt * 10;
 748              		.loc 1 793 0
 749 000a 1288     		ldrh	r2, [r2]
 750 000c 0A23     		movs	r3, #10
 751 000e 12B2     		sxth	r2, r2
 752 0010 5A43     		muls	r2, r3, r2
 753              	.LVL49:
 754 0012 01E0     		b	.L66
 755              	.LVL50:
 756              	.L65:
 794:Generated_Source\PSoC5/ADC_SAR_2.c ****     }
 795:Generated_Source\PSoC5/ADC_SAR_2.c ****     else
 796:Generated_Source\PSoC5/ADC_SAR_2.c ****     {
 797:Generated_Source\PSoC5/ADC_SAR_2.c ****         countsPer10Volt = ADC_SAR_2_countsPer10Volt;
 757              		.loc 1 797 0
 758 0014 084B     		ldr	r3, .L67+4
 759 0016 1A68     		ldr	r2, [r3]
 760              	.LVL51:
 761              	.L66:
 798:Generated_Source\PSoC5/ADC_SAR_2.c ****     }
 799:Generated_Source\PSoC5/ADC_SAR_2.c **** 
 800:Generated_Source\PSoC5/ADC_SAR_2.c ****     /* Subtract ADC offset */
 801:Generated_Source\PSoC5/ADC_SAR_2.c ****     adcCounts -= ADC_SAR_2_offset;
 762              		.loc 1 801 0
 763 0018 084B     		ldr	r3, .L67+8
 764 001a 1C88     		ldrh	r4, [r3]
 765              	.LVL52:
 802:Generated_Source\PSoC5/ADC_SAR_2.c ****     /* To convert adcCounts to microVolts it is required to be multiplied
 803:Generated_Source\PSoC5/ADC_SAR_2.c ****     *  on 10 million and later divide on gain in counts per 10V.
 804:Generated_Source\PSoC5/ADC_SAR_2.c ****     */
 805:Generated_Source\PSoC5/ADC_SAR_2.c ****     uVolts = (( (int64)adcCounts * ADC_SAR_2_10UV_COUNTS ) / countsPer10Volt);
 766              		.loc 1 805 0
 767 001c 084B     		ldr	r3, .L67+12
 768 001e 041B     		subs	r4, r0, r4
 769              	.LVL53:
 770 0020 24B2     		sxth	r4, r4
 771 0022 A4FB0301 		umull	r0, r1, r4, r3
 772 0026 E517     		asrs	r5, r4, #31
 773 0028 03FB0511 		mla	r1, r3, r5, r1
 774 002c D317     		asrs	r3, r2, #31
 775 002e FFF7FEFF 		bl	__aeabi_ldivmod
 776              	.LVL54:
 806:Generated_Source\PSoC5/ADC_SAR_2.c **** 
 807:Generated_Source\PSoC5/ADC_SAR_2.c ****     return( uVolts );
 808:Generated_Source\PSoC5/ADC_SAR_2.c **** }
 777              		.loc 1 808 0
 778 0032 38BD     		pop	{r3, r4, r5, pc}
 779              	.L68:
 780              		.align	2
 781              	.L67:
 782 0034 00000000 		.word	ADC_SAR_2_countsPerVolt
 783 0038 00000000 		.word	ADC_SAR_2_countsPer10Volt
 784 003c 00000000 		.word	ADC_SAR_2_offset
ARM GAS  C:\Users\Luggi\AppData\Local\Temp\cclY8GBN.s 			page 30


 785 0040 80969800 		.word	10000000
 786              		.cfi_endproc
 787              	.LFE16:
 788              		.size	ADC_SAR_2_CountsTo_uVolts, .-ADC_SAR_2_CountsTo_uVolts
 789              		.global	__aeabi_i2f
 790              		.global	__aeabi_fmul
 791              		.global	__aeabi_fdiv
 792              		.section	.text.ADC_SAR_2_CountsTo_Volts,"ax",%progbits
 793              		.align	1
 794              		.global	ADC_SAR_2_CountsTo_Volts
 795              		.thumb
 796              		.thumb_func
 797              		.type	ADC_SAR_2_CountsTo_Volts, %function
 798              	ADC_SAR_2_CountsTo_Volts:
 799              	.LFB17:
 809:Generated_Source\PSoC5/ADC_SAR_2.c **** 
 810:Generated_Source\PSoC5/ADC_SAR_2.c **** 
 811:Generated_Source\PSoC5/ADC_SAR_2.c **** /*******************************************************************************
 812:Generated_Source\PSoC5/ADC_SAR_2.c **** * Function Name: ADC_SAR_2_CountsTo_Volts
 813:Generated_Source\PSoC5/ADC_SAR_2.c **** ********************************************************************************
 814:Generated_Source\PSoC5/ADC_SAR_2.c **** *
 815:Generated_Source\PSoC5/ADC_SAR_2.c **** * Summary:
 816:Generated_Source\PSoC5/ADC_SAR_2.c **** *  Converts the ADC output to volts as a floating-point number.
 817:Generated_Source\PSoC5/ADC_SAR_2.c **** *
 818:Generated_Source\PSoC5/ADC_SAR_2.c **** * Parameters:
 819:Generated_Source\PSoC5/ADC_SAR_2.c **** *  int16 adcCounts: Result from the ADC conversion
 820:Generated_Source\PSoC5/ADC_SAR_2.c **** *
 821:Generated_Source\PSoC5/ADC_SAR_2.c **** * Return:
 822:Generated_Source\PSoC5/ADC_SAR_2.c **** *  float Result in Volts
 823:Generated_Source\PSoC5/ADC_SAR_2.c **** *
 824:Generated_Source\PSoC5/ADC_SAR_2.c **** * Global Variables:
 825:Generated_Source\PSoC5/ADC_SAR_2.c **** *  ADC_SAR_2_offset variable used.
 826:Generated_Source\PSoC5/ADC_SAR_2.c **** *  ADC_SAR_2_countsPer10Volt used to convert ADC counts to Volts.
 827:Generated_Source\PSoC5/ADC_SAR_2.c **** *
 828:Generated_Source\PSoC5/ADC_SAR_2.c **** *******************************************************************************/
 829:Generated_Source\PSoC5/ADC_SAR_2.c **** float32 ADC_SAR_2_CountsTo_Volts(int16 adcCounts)
 830:Generated_Source\PSoC5/ADC_SAR_2.c **** {
 800              		.loc 1 830 0
 801              		.cfi_startproc
 802              		@ args = 0, pretend = 0, frame = 0
 803              		@ frame_needed = 0, uses_anonymous_args = 0
 804              	.LVL55:
 831:Generated_Source\PSoC5/ADC_SAR_2.c ****     float32 volts;
 832:Generated_Source\PSoC5/ADC_SAR_2.c ****     int32 countsPer10Volt;
 833:Generated_Source\PSoC5/ADC_SAR_2.c **** 
 834:Generated_Source\PSoC5/ADC_SAR_2.c ****     if(ADC_SAR_2_countsPerVolt != 0)
 805              		.loc 1 834 0
 806 0000 0E4A     		ldr	r2, .L72
 830:Generated_Source\PSoC5/ADC_SAR_2.c ****     float32 volts;
 807              		.loc 1 830 0
 808 0002 38B5     		push	{r3, r4, r5, lr}
 809              		.cfi_def_cfa_offset 16
 810              		.cfi_offset 3, -16
 811              		.cfi_offset 4, -12
 812              		.cfi_offset 5, -8
 813              		.cfi_offset 14, -4
 814              		.loc 1 834 0
ARM GAS  C:\Users\Luggi\AppData\Local\Temp\cclY8GBN.s 			page 31


 815 0004 1388     		ldrh	r3, [r2]
 816 0006 9BB2     		uxth	r3, r3
 817 0008 23B1     		cbz	r3, .L70
 835:Generated_Source\PSoC5/ADC_SAR_2.c ****     {   /* Support obsolete method */
 836:Generated_Source\PSoC5/ADC_SAR_2.c ****         countsPer10Volt = (int32)ADC_SAR_2_countsPerVolt * 10;
 818              		.loc 1 836 0
 819 000a 1488     		ldrh	r4, [r2]
 820 000c 0A23     		movs	r3, #10
 821 000e 24B2     		sxth	r4, r4
 822 0010 5C43     		muls	r4, r3, r4
 823              	.LVL56:
 824 0012 01E0     		b	.L71
 825              	.LVL57:
 826              	.L70:
 837:Generated_Source\PSoC5/ADC_SAR_2.c ****     }
 838:Generated_Source\PSoC5/ADC_SAR_2.c ****     else
 839:Generated_Source\PSoC5/ADC_SAR_2.c ****     {
 840:Generated_Source\PSoC5/ADC_SAR_2.c ****         countsPer10Volt = ADC_SAR_2_countsPer10Volt;
 827              		.loc 1 840 0
 828 0014 0A4B     		ldr	r3, .L72+4
 829 0016 1C68     		ldr	r4, [r3]
 830              	.LVL58:
 831              	.L71:
 841:Generated_Source\PSoC5/ADC_SAR_2.c ****     }
 842:Generated_Source\PSoC5/ADC_SAR_2.c **** 
 843:Generated_Source\PSoC5/ADC_SAR_2.c ****     /* Subtract ADC offset */
 844:Generated_Source\PSoC5/ADC_SAR_2.c ****     adcCounts -= ADC_SAR_2_offset;
 832              		.loc 1 844 0
 833 0018 0A4B     		ldr	r3, .L72+8
 834 001a 1B88     		ldrh	r3, [r3]
 835 001c C01A     		subs	r0, r0, r3
 836              	.LVL59:
 845:Generated_Source\PSoC5/ADC_SAR_2.c **** 
 846:Generated_Source\PSoC5/ADC_SAR_2.c ****     volts = ((float32)adcCounts * ADC_SAR_2_10V_COUNTS) / (float32)countsPer10Volt;
 837              		.loc 1 846 0
 838 001e 00B2     		sxth	r0, r0
 839 0020 FFF7FEFF 		bl	__aeabi_i2f
 840              	.LVL60:
 841 0024 0849     		ldr	r1, .L72+12
 842 0026 FFF7FEFF 		bl	__aeabi_fmul
 843              	.LVL61:
 844 002a 0546     		mov	r5, r0
 845 002c 2046     		mov	r0, r4
 846 002e FFF7FEFF 		bl	__aeabi_i2f
 847              	.LVL62:
 848 0032 0146     		mov	r1, r0
 849 0034 2846     		mov	r0, r5
 850 0036 FFF7FEFF 		bl	__aeabi_fdiv
 851              	.LVL63:
 847:Generated_Source\PSoC5/ADC_SAR_2.c **** 
 848:Generated_Source\PSoC5/ADC_SAR_2.c ****     return( volts );
 849:Generated_Source\PSoC5/ADC_SAR_2.c **** }
 852              		.loc 1 849 0
 853 003a 38BD     		pop	{r3, r4, r5, pc}
 854              	.LVL64:
 855              	.L73:
 856              		.align	2
ARM GAS  C:\Users\Luggi\AppData\Local\Temp\cclY8GBN.s 			page 32


 857              	.L72:
 858 003c 00000000 		.word	ADC_SAR_2_countsPerVolt
 859 0040 00000000 		.word	ADC_SAR_2_countsPer10Volt
 860 0044 00000000 		.word	ADC_SAR_2_offset
 861 0048 00002041 		.word	1092616192
 862              		.cfi_endproc
 863              	.LFE17:
 864              		.size	ADC_SAR_2_CountsTo_Volts, .-ADC_SAR_2_CountsTo_Volts
 865              		.comm	ADC_SAR_2_shift,2,2
 866              		.comm	ADC_SAR_2_countsPer10Volt,4,4
 867              		.comm	ADC_SAR_2_countsPerVolt,2,2
 868              		.comm	ADC_SAR_2_offset,2,2
 869              		.global	ADC_SAR_2_initVar
 870              		.section	.rodata
 871              		.align	1
 872              		.set	.LANCHOR0,. + 0
 873              		.type	CSWTCH.24, %object
 874              		.size	CSWTCH.24, 10
 875              	CSWTCH.24:
 876 0000 0001     		.short	256
 877 0002 0000     		.short	0
 878 0004 0004     		.short	1024
 879 0006 0000     		.short	0
 880 0008 0010     		.short	4096
 881              		.bss
 882              		.set	.LANCHOR1,. + 0
 883              		.type	ADC_SAR_2_initVar, %object
 884              		.size	ADC_SAR_2_initVar, 1
 885              	ADC_SAR_2_initVar:
 886 0000 00       		.space	1
 887              		.text
 888              	.Letext0:
 889              		.file 2 "Generated_Source\\PSoC5\\cytypes.h"
 890              		.file 3 "Generated_Source\\PSoC5\\CyLib.h"
 891              		.file 4 "Generated_Source\\PSoC5\\ADC_SAR_2_theACLK.h"