ARM GAS  C:\Users\Luggi\AppData\Local\Temp\cccwB3aA.s 			page 1


   1              		.syntax unified
   2              		.cpu cortex-m3
   3              		.fpu softvfp
   4              		.eabi_attribute 20, 1
   5              		.eabi_attribute 21, 1
   6              		.eabi_attribute 23, 3
   7              		.eabi_attribute 24, 1
   8              		.eabi_attribute 25, 1
   9              		.eabi_attribute 26, 1
  10              		.eabi_attribute 30, 4
  11              		.eabi_attribute 34, 1
  12              		.eabi_attribute 18, 4
  13              		.thumb
  14              		.file	"ADC_SAR_1.c"
  15              		.text
  16              	.Ltext0:
  17              		.cfi_sections	.debug_frame
  18              		.section	.text.ADC_SAR_1_Enable,"ax",%progbits
  19              		.align	1
  20              		.global	ADC_SAR_1_Enable
  21              		.thumb
  22              		.thumb_func
  23              		.type	ADC_SAR_1_Enable, %function
  24              	ADC_SAR_1_Enable:
  25              	.LFB2:
  26              		.file 1 "Generated_Source\\PSoC5\\ADC_SAR_1.c"
   1:Generated_Source\PSoC5/ADC_SAR_1.c **** /*******************************************************************************
   2:Generated_Source\PSoC5/ADC_SAR_1.c **** * File Name: ADC_SAR_1.c
   3:Generated_Source\PSoC5/ADC_SAR_1.c **** * Version 3.0
   4:Generated_Source\PSoC5/ADC_SAR_1.c **** *
   5:Generated_Source\PSoC5/ADC_SAR_1.c **** * Description:
   6:Generated_Source\PSoC5/ADC_SAR_1.c **** *  This file provides the source code to the API for the Successive
   7:Generated_Source\PSoC5/ADC_SAR_1.c **** *  approximation ADC Component.
   8:Generated_Source\PSoC5/ADC_SAR_1.c **** *
   9:Generated_Source\PSoC5/ADC_SAR_1.c **** * Note:
  10:Generated_Source\PSoC5/ADC_SAR_1.c **** *
  11:Generated_Source\PSoC5/ADC_SAR_1.c **** ********************************************************************************
  12:Generated_Source\PSoC5/ADC_SAR_1.c **** * Copyright 2008-2015, Cypress Semiconductor Corporation.  All rights reserved.
  13:Generated_Source\PSoC5/ADC_SAR_1.c **** * You may use this file only in accordance with the license, terms, conditions,
  14:Generated_Source\PSoC5/ADC_SAR_1.c **** * disclaimers, and limitations in the end user license agreement accompanying
  15:Generated_Source\PSoC5/ADC_SAR_1.c **** * the software package with which this file was provided.
  16:Generated_Source\PSoC5/ADC_SAR_1.c **** *******************************************************************************/
  17:Generated_Source\PSoC5/ADC_SAR_1.c **** 
  18:Generated_Source\PSoC5/ADC_SAR_1.c **** #include "CyLib.h"
  19:Generated_Source\PSoC5/ADC_SAR_1.c **** #include "ADC_SAR_1.h"
  20:Generated_Source\PSoC5/ADC_SAR_1.c **** 
  21:Generated_Source\PSoC5/ADC_SAR_1.c **** #if(ADC_SAR_1_DEFAULT_INTERNAL_CLK)
  22:Generated_Source\PSoC5/ADC_SAR_1.c ****     #include "ADC_SAR_1_theACLK.h"
  23:Generated_Source\PSoC5/ADC_SAR_1.c **** #endif /* End ADC_SAR_1_DEFAULT_INTERNAL_CLK */
  24:Generated_Source\PSoC5/ADC_SAR_1.c **** 
  25:Generated_Source\PSoC5/ADC_SAR_1.c **** 
  26:Generated_Source\PSoC5/ADC_SAR_1.c **** /***************************************
  27:Generated_Source\PSoC5/ADC_SAR_1.c **** * Forward function references
  28:Generated_Source\PSoC5/ADC_SAR_1.c **** ***************************************/
  29:Generated_Source\PSoC5/ADC_SAR_1.c **** static void ADC_SAR_1_CalcGain(uint8 resolution);
  30:Generated_Source\PSoC5/ADC_SAR_1.c **** 
  31:Generated_Source\PSoC5/ADC_SAR_1.c **** 
ARM GAS  C:\Users\Luggi\AppData\Local\Temp\cccwB3aA.s 			page 2


  32:Generated_Source\PSoC5/ADC_SAR_1.c **** /***************************************
  33:Generated_Source\PSoC5/ADC_SAR_1.c **** * Global data allocation
  34:Generated_Source\PSoC5/ADC_SAR_1.c **** ***************************************/
  35:Generated_Source\PSoC5/ADC_SAR_1.c **** uint8 ADC_SAR_1_initVar = 0u;
  36:Generated_Source\PSoC5/ADC_SAR_1.c **** volatile int16 ADC_SAR_1_offset;
  37:Generated_Source\PSoC5/ADC_SAR_1.c **** volatile int16 ADC_SAR_1_countsPerVolt;     /* Obsolete Gain compensation */
  38:Generated_Source\PSoC5/ADC_SAR_1.c **** volatile int32 ADC_SAR_1_countsPer10Volt;   /* Gain compensation */
  39:Generated_Source\PSoC5/ADC_SAR_1.c **** volatile int16 ADC_SAR_1_shift;
  40:Generated_Source\PSoC5/ADC_SAR_1.c **** 
  41:Generated_Source\PSoC5/ADC_SAR_1.c **** 
  42:Generated_Source\PSoC5/ADC_SAR_1.c **** /*******************************************************************************
  43:Generated_Source\PSoC5/ADC_SAR_1.c **** * Function Name: ADC_SAR_1_Start
  44:Generated_Source\PSoC5/ADC_SAR_1.c **** ********************************************************************************
  45:Generated_Source\PSoC5/ADC_SAR_1.c **** *
  46:Generated_Source\PSoC5/ADC_SAR_1.c **** * Summary:
  47:Generated_Source\PSoC5/ADC_SAR_1.c **** *  This is the preferred method to begin component operation.
  48:Generated_Source\PSoC5/ADC_SAR_1.c **** *  ADC_SAR_1_Start() sets the initVar variable, calls the
  49:Generated_Source\PSoC5/ADC_SAR_1.c **** *  ADC_SAR_1_Init() function, and then calls the
  50:Generated_Source\PSoC5/ADC_SAR_1.c **** *  ADC_SAR_1_Enable() function.
  51:Generated_Source\PSoC5/ADC_SAR_1.c **** *
  52:Generated_Source\PSoC5/ADC_SAR_1.c **** * Parameters:
  53:Generated_Source\PSoC5/ADC_SAR_1.c **** *  None.
  54:Generated_Source\PSoC5/ADC_SAR_1.c **** *
  55:Generated_Source\PSoC5/ADC_SAR_1.c **** * Return:
  56:Generated_Source\PSoC5/ADC_SAR_1.c **** *  None.
  57:Generated_Source\PSoC5/ADC_SAR_1.c **** *
  58:Generated_Source\PSoC5/ADC_SAR_1.c **** * Global variables:
  59:Generated_Source\PSoC5/ADC_SAR_1.c **** *  The ADC_SAR_1_initVar variable is used to indicate when/if initial
  60:Generated_Source\PSoC5/ADC_SAR_1.c **** *  configuration of this component has happened. The variable is initialized to
  61:Generated_Source\PSoC5/ADC_SAR_1.c **** *  zero and set to 1 the first time ADC_Start() is called. This allows for
  62:Generated_Source\PSoC5/ADC_SAR_1.c **** *  component Re-Start without re-initialization in all subsequent calls to the
  63:Generated_Source\PSoC5/ADC_SAR_1.c **** *  ADC_SAR_1_Start() routine.
  64:Generated_Source\PSoC5/ADC_SAR_1.c **** *  If re-initialization of the component is required the variable should be set
  65:Generated_Source\PSoC5/ADC_SAR_1.c **** *  to zero before call of ADC_SAR_1_Start() routine, or the user may call
  66:Generated_Source\PSoC5/ADC_SAR_1.c **** *  ADC_SAR_1_Init() and ADC_SAR_1_Enable() as done in the
  67:Generated_Source\PSoC5/ADC_SAR_1.c **** *  ADC_SAR_1_Start() routine.
  68:Generated_Source\PSoC5/ADC_SAR_1.c **** *
  69:Generated_Source\PSoC5/ADC_SAR_1.c **** * Side Effect:
  70:Generated_Source\PSoC5/ADC_SAR_1.c **** *  If the initVar variable is already set, this function only calls the
  71:Generated_Source\PSoC5/ADC_SAR_1.c **** *  ADC_SAR_1_Enable() function.
  72:Generated_Source\PSoC5/ADC_SAR_1.c **** *
  73:Generated_Source\PSoC5/ADC_SAR_1.c **** *******************************************************************************/
  74:Generated_Source\PSoC5/ADC_SAR_1.c **** void ADC_SAR_1_Start(void)
  75:Generated_Source\PSoC5/ADC_SAR_1.c **** {
  76:Generated_Source\PSoC5/ADC_SAR_1.c **** 
  77:Generated_Source\PSoC5/ADC_SAR_1.c ****     /* If not Initialized then initialize all required hardware and software */
  78:Generated_Source\PSoC5/ADC_SAR_1.c ****     if(ADC_SAR_1_initVar == 0u)
  79:Generated_Source\PSoC5/ADC_SAR_1.c ****     {
  80:Generated_Source\PSoC5/ADC_SAR_1.c ****         ADC_SAR_1_Init();
  81:Generated_Source\PSoC5/ADC_SAR_1.c ****         ADC_SAR_1_initVar = 1u;
  82:Generated_Source\PSoC5/ADC_SAR_1.c ****     }
  83:Generated_Source\PSoC5/ADC_SAR_1.c ****     ADC_SAR_1_Enable();
  84:Generated_Source\PSoC5/ADC_SAR_1.c **** }
  85:Generated_Source\PSoC5/ADC_SAR_1.c **** 
  86:Generated_Source\PSoC5/ADC_SAR_1.c **** 
  87:Generated_Source\PSoC5/ADC_SAR_1.c **** /*******************************************************************************
  88:Generated_Source\PSoC5/ADC_SAR_1.c **** * Function Name: ADC_SAR_1_Init
ARM GAS  C:\Users\Luggi\AppData\Local\Temp\cccwB3aA.s 			page 3


  89:Generated_Source\PSoC5/ADC_SAR_1.c **** ********************************************************************************
  90:Generated_Source\PSoC5/ADC_SAR_1.c **** *
  91:Generated_Source\PSoC5/ADC_SAR_1.c **** * Summary:
  92:Generated_Source\PSoC5/ADC_SAR_1.c **** *  Initialize component's parameters to the parameters set by user in the
  93:Generated_Source\PSoC5/ADC_SAR_1.c **** *  customizer of the component placed onto schematic. Usually called in
  94:Generated_Source\PSoC5/ADC_SAR_1.c **** *  ADC_SAR_1_Start().
  95:Generated_Source\PSoC5/ADC_SAR_1.c **** *
  96:Generated_Source\PSoC5/ADC_SAR_1.c **** * Parameters:
  97:Generated_Source\PSoC5/ADC_SAR_1.c **** *  None.
  98:Generated_Source\PSoC5/ADC_SAR_1.c **** *
  99:Generated_Source\PSoC5/ADC_SAR_1.c **** * Return:
 100:Generated_Source\PSoC5/ADC_SAR_1.c **** *  None.
 101:Generated_Source\PSoC5/ADC_SAR_1.c **** *
 102:Generated_Source\PSoC5/ADC_SAR_1.c **** * Global variables:
 103:Generated_Source\PSoC5/ADC_SAR_1.c **** *  The ADC_SAR_1_offset variable is initialized to 0.
 104:Generated_Source\PSoC5/ADC_SAR_1.c **** *
 105:Generated_Source\PSoC5/ADC_SAR_1.c **** *******************************************************************************/
 106:Generated_Source\PSoC5/ADC_SAR_1.c **** void ADC_SAR_1_Init(void)
 107:Generated_Source\PSoC5/ADC_SAR_1.c **** {
 108:Generated_Source\PSoC5/ADC_SAR_1.c **** 
 109:Generated_Source\PSoC5/ADC_SAR_1.c ****     /* This is only valid if there is an internal clock */
 110:Generated_Source\PSoC5/ADC_SAR_1.c ****     #if(ADC_SAR_1_DEFAULT_INTERNAL_CLK)
 111:Generated_Source\PSoC5/ADC_SAR_1.c ****         ADC_SAR_1_theACLK_SetMode(CYCLK_DUTY);
 112:Generated_Source\PSoC5/ADC_SAR_1.c ****     #endif /* End ADC_SAR_1_DEFAULT_INTERNAL_CLK */
 113:Generated_Source\PSoC5/ADC_SAR_1.c **** 
 114:Generated_Source\PSoC5/ADC_SAR_1.c ****     #if(ADC_SAR_1_IRQ_REMOVE == 0u)
 115:Generated_Source\PSoC5/ADC_SAR_1.c ****         /* Start and set interrupt vector */
 116:Generated_Source\PSoC5/ADC_SAR_1.c ****         CyIntSetPriority(ADC_SAR_1_INTC_NUMBER, ADC_SAR_1_INTC_PRIOR_NUMBER);
 117:Generated_Source\PSoC5/ADC_SAR_1.c ****         (void)CyIntSetVector(ADC_SAR_1_INTC_NUMBER, &ADC_SAR_1_ISR);
 118:Generated_Source\PSoC5/ADC_SAR_1.c ****     #endif   /* End ADC_SAR_1_IRQ_REMOVE */
 119:Generated_Source\PSoC5/ADC_SAR_1.c **** 
 120:Generated_Source\PSoC5/ADC_SAR_1.c ****     /* Enable IRQ mode*/
 121:Generated_Source\PSoC5/ADC_SAR_1.c ****     ADC_SAR_1_SAR_CSR1_REG |= ADC_SAR_1_SAR_IRQ_MASK_EN | ADC_SAR_1_SAR_IRQ_MODE_EDGE;
 122:Generated_Source\PSoC5/ADC_SAR_1.c **** 
 123:Generated_Source\PSoC5/ADC_SAR_1.c ****     /*Set SAR ADC resolution ADC */
 124:Generated_Source\PSoC5/ADC_SAR_1.c ****     ADC_SAR_1_SetResolution(ADC_SAR_1_DEFAULT_RESOLUTION);
 125:Generated_Source\PSoC5/ADC_SAR_1.c ****     ADC_SAR_1_offset = 0;
 126:Generated_Source\PSoC5/ADC_SAR_1.c **** }
 127:Generated_Source\PSoC5/ADC_SAR_1.c **** 
 128:Generated_Source\PSoC5/ADC_SAR_1.c **** 
 129:Generated_Source\PSoC5/ADC_SAR_1.c **** /*******************************************************************************
 130:Generated_Source\PSoC5/ADC_SAR_1.c **** * Function Name: ADC_SAR_1_Enable
 131:Generated_Source\PSoC5/ADC_SAR_1.c **** ********************************************************************************
 132:Generated_Source\PSoC5/ADC_SAR_1.c **** *
 133:Generated_Source\PSoC5/ADC_SAR_1.c **** * Summary:
 134:Generated_Source\PSoC5/ADC_SAR_1.c **** *  Enables the reference, clock and power for SAR ADC.
 135:Generated_Source\PSoC5/ADC_SAR_1.c **** *
 136:Generated_Source\PSoC5/ADC_SAR_1.c **** * Parameters:
 137:Generated_Source\PSoC5/ADC_SAR_1.c **** *  None.
 138:Generated_Source\PSoC5/ADC_SAR_1.c **** *
 139:Generated_Source\PSoC5/ADC_SAR_1.c **** * Return:
 140:Generated_Source\PSoC5/ADC_SAR_1.c **** *  None.
 141:Generated_Source\PSoC5/ADC_SAR_1.c **** *
 142:Generated_Source\PSoC5/ADC_SAR_1.c **** *******************************************************************************/
 143:Generated_Source\PSoC5/ADC_SAR_1.c **** void ADC_SAR_1_Enable(void)
 144:Generated_Source\PSoC5/ADC_SAR_1.c **** {
  27              		.loc 1 144 0
ARM GAS  C:\Users\Luggi\AppData\Local\Temp\cccwB3aA.s 			page 4


  28              		.cfi_startproc
  29              		@ args = 0, pretend = 0, frame = 0
  30              		@ frame_needed = 0, uses_anonymous_args = 0
  31 0000 38B5     		push	{r3, r4, r5, lr}
  32              		.cfi_def_cfa_offset 16
  33              		.cfi_offset 3, -16
  34              		.cfi_offset 4, -12
  35              		.cfi_offset 5, -8
  36              		.cfi_offset 14, -4
 145:Generated_Source\PSoC5/ADC_SAR_1.c ****     uint8 tmpReg;
 146:Generated_Source\PSoC5/ADC_SAR_1.c ****     uint8 enableInterrupts;
 147:Generated_Source\PSoC5/ADC_SAR_1.c ****     enableInterrupts = CyEnterCriticalSection();
  37              		.loc 1 147 0
  38 0002 FFF7FEFF 		bl	CyEnterCriticalSection
  39              	.LVL0:
 148:Generated_Source\PSoC5/ADC_SAR_1.c **** 
 149:Generated_Source\PSoC5/ADC_SAR_1.c ****     /* Enable the SAR ADC block in Active Power Mode */
 150:Generated_Source\PSoC5/ADC_SAR_1.c ****     ADC_SAR_1_PWRMGR_SAR_REG |= ADC_SAR_1_ACT_PWR_SAR_EN;
  40              		.loc 1 150 0
  41 0006 204A     		ldr	r2, .L2
 147:Generated_Source\PSoC5/ADC_SAR_1.c **** 
  42              		.loc 1 147 0
  43 0008 0446     		mov	r4, r0
  44              	.LVL1:
  45              		.loc 1 150 0
  46 000a 1378     		ldrb	r3, [r2]	@ zero_extendqisi2
 151:Generated_Source\PSoC5/ADC_SAR_1.c **** 
 152:Generated_Source\PSoC5/ADC_SAR_1.c ****      /* Enable the SAR ADC in Standby Power Mode*/
 153:Generated_Source\PSoC5/ADC_SAR_1.c ****     ADC_SAR_1_STBY_PWRMGR_SAR_REG |= ADC_SAR_1_STBY_PWR_SAR_EN;
 154:Generated_Source\PSoC5/ADC_SAR_1.c **** 
 155:Generated_Source\PSoC5/ADC_SAR_1.c ****     /* This is only valid if there is an internal clock */
 156:Generated_Source\PSoC5/ADC_SAR_1.c ****     #if(ADC_SAR_1_DEFAULT_INTERNAL_CLK)
 157:Generated_Source\PSoC5/ADC_SAR_1.c ****         ADC_SAR_1_PWRMGR_CLK_REG |= ADC_SAR_1_ACT_PWR_CLK_EN;
 158:Generated_Source\PSoC5/ADC_SAR_1.c ****         ADC_SAR_1_STBY_PWRMGR_CLK_REG |= ADC_SAR_1_STBY_PWR_CLK_EN;
 159:Generated_Source\PSoC5/ADC_SAR_1.c ****     #endif /* End ADC_SAR_1_DEFAULT_INTERNAL_CLK */
 160:Generated_Source\PSoC5/ADC_SAR_1.c **** 
 161:Generated_Source\PSoC5/ADC_SAR_1.c ****     /* Enable VCM buffer and Enable Int Ref Amp */
 162:Generated_Source\PSoC5/ADC_SAR_1.c ****     tmpReg = ADC_SAR_1_SAR_CSR3_REG;
 163:Generated_Source\PSoC5/ADC_SAR_1.c ****     tmpReg |= ADC_SAR_1_SAR_EN_BUF_VCM_EN;
 164:Generated_Source\PSoC5/ADC_SAR_1.c ****     /* PD_BUF_VREF is OFF in External reference or Vdda reference mode */
 165:Generated_Source\PSoC5/ADC_SAR_1.c ****     #if((ADC_SAR_1_DEFAULT_REFERENCE == ADC_SAR_1__EXT_REF) || \
 166:Generated_Source\PSoC5/ADC_SAR_1.c ****         (ADC_SAR_1_DEFAULT_RANGE == ADC_SAR_1__VNEG_VDDA_DIFF))
 167:Generated_Source\PSoC5/ADC_SAR_1.c ****         tmpReg &= (uint8)~ADC_SAR_1_SAR_EN_BUF_VREF_EN;
 168:Generated_Source\PSoC5/ADC_SAR_1.c ****     #else /* In INTREF or INTREF Bypassed this buffer is ON */
 169:Generated_Source\PSoC5/ADC_SAR_1.c ****         tmpReg |= ADC_SAR_1_SAR_EN_BUF_VREF_EN;
 170:Generated_Source\PSoC5/ADC_SAR_1.c ****     #endif /* ADC_SAR_1_DEFAULT_REFERENCE == ADC_SAR_1__EXT_REF */
 171:Generated_Source\PSoC5/ADC_SAR_1.c ****     ADC_SAR_1_SAR_CSR3_REG = tmpReg;
 172:Generated_Source\PSoC5/ADC_SAR_1.c **** 
 173:Generated_Source\PSoC5/ADC_SAR_1.c ****     /* Set reference for ADC */
 174:Generated_Source\PSoC5/ADC_SAR_1.c ****     #if(ADC_SAR_1_DEFAULT_RANGE == ADC_SAR_1__VNEG_VDDA_DIFF)
 175:Generated_Source\PSoC5/ADC_SAR_1.c ****         #if(ADC_SAR_1_DEFAULT_REFERENCE == ADC_SAR_1__EXT_REF)
 176:Generated_Source\PSoC5/ADC_SAR_1.c ****             ADC_SAR_1_SAR_CSR6_REG = ADC_SAR_1_INT_BYPASS_EXT_VREF; /* S2 */
 177:Generated_Source\PSoC5/ADC_SAR_1.c ****         #else /* Internal Vdda reference or obsolete bypass mode */
 178:Generated_Source\PSoC5/ADC_SAR_1.c ****             ADC_SAR_1_SAR_CSR6_REG = ADC_SAR_1_VDDA_VREF;           /* S7 */
 179:Generated_Source\PSoC5/ADC_SAR_1.c ****         #endif /* ADC_SAR_1_DEFAULT_REFERENCE == ADC_SAR_1__EXT_REF */
 180:Generated_Source\PSoC5/ADC_SAR_1.c ****     #else  /* Reference goes through internal buffer */
 181:Generated_Source\PSoC5/ADC_SAR_1.c ****         #if(ADC_SAR_1_DEFAULT_REFERENCE == ADC_SAR_1__INT_REF_NOT_BYPASSED)
ARM GAS  C:\Users\Luggi\AppData\Local\Temp\cccwB3aA.s 			page 5


 182:Generated_Source\PSoC5/ADC_SAR_1.c ****             ADC_SAR_1_SAR_CSR6_REG = ADC_SAR_1_INT_VREF;            /* S3 + S4 */
 183:Generated_Source\PSoC5/ADC_SAR_1.c ****         #else /* INTREF Bypassed of External */
 184:Generated_Source\PSoC5/ADC_SAR_1.c ****             ADC_SAR_1_SAR_CSR6_REG = ADC_SAR_1_INT_BYPASS_EXT_VREF; /* S2 */
 185:Generated_Source\PSoC5/ADC_SAR_1.c ****         #endif /* ADC_SAR_1_DEFAULT_REFERENCE == ADC_SAR_1__INT_REF_NOT_BYPASSED */
 186:Generated_Source\PSoC5/ADC_SAR_1.c ****     #endif /* VNEG_VDDA_DIFF */
 187:Generated_Source\PSoC5/ADC_SAR_1.c **** 
 188:Generated_Source\PSoC5/ADC_SAR_1.c ****     /* Low non-overlap delay for sampling clock signals (for 1MSPS) */
 189:Generated_Source\PSoC5/ADC_SAR_1.c ****     #if(ADC_SAR_1_HIGH_POWER_PULSE == 0u) /* MinPulseWidth <= 50 ns */
 190:Generated_Source\PSoC5/ADC_SAR_1.c ****         ADC_SAR_1_SAR_CSR5_REG &= (uint8)~ADC_SAR_1_SAR_DLY_INC;
 191:Generated_Source\PSoC5/ADC_SAR_1.c ****     #else /* Set High non-overlap delay for sampling clock signals (for <500KSPS)*/
 192:Generated_Source\PSoC5/ADC_SAR_1.c ****         ADC_SAR_1_SAR_CSR5_REG |= ADC_SAR_1_SAR_DLY_INC;
 193:Generated_Source\PSoC5/ADC_SAR_1.c ****     #endif /* ADC_SAR_1_HIGH_POWER_PULSE == 0u */
 194:Generated_Source\PSoC5/ADC_SAR_1.c **** 
 195:Generated_Source\PSoC5/ADC_SAR_1.c ****     /* Increase comparator latch enable delay by 20%, 
 196:Generated_Source\PSoC5/ADC_SAR_1.c ****     *  Increase comparator bias current by 30% without impacting delaysDelay 
 197:Generated_Source\PSoC5/ADC_SAR_1.c ****     *  Default for 1MSPS) 
 198:Generated_Source\PSoC5/ADC_SAR_1.c ****     */
 199:Generated_Source\PSoC5/ADC_SAR_1.c ****     #if(ADC_SAR_1_HIGH_POWER_PULSE == 0u)    /* MinPulseWidth <= 50 ns */
 200:Generated_Source\PSoC5/ADC_SAR_1.c ****         ADC_SAR_1_SAR_CSR5_REG |= ADC_SAR_1_SAR_SEL_CSEL_DFT_CHAR;
 201:Generated_Source\PSoC5/ADC_SAR_1.c ****     #else /* for <500ksps */
 202:Generated_Source\PSoC5/ADC_SAR_1.c ****         ADC_SAR_1_SAR_CSR5_REG &= (uint8)~ADC_SAR_1_SAR_SEL_CSEL_DFT_CHAR;
 203:Generated_Source\PSoC5/ADC_SAR_1.c ****     #endif /* ADC_SAR_1_HIGH_POWER_PULSE == 0u */
 204:Generated_Source\PSoC5/ADC_SAR_1.c **** 
 205:Generated_Source\PSoC5/ADC_SAR_1.c ****     /* Set default power and other configurations for control register 0 in multiple lines */
 206:Generated_Source\PSoC5/ADC_SAR_1.c ****     ADC_SAR_1_SAR_CSR0_REG = (uint8)((uint8)ADC_SAR_1_DEFAULT_POWER << ADC_SAR_1_SAR_POWER_SHIFT)
 207:Generated_Source\PSoC5/ADC_SAR_1.c ****     /* SAR_HIZ_CLEAR:   Should not be used for LP */
 208:Generated_Source\PSoC5/ADC_SAR_1.c ****     #if ((CY_PSOC5LP) || (ADC_SAR_1_DEFAULT_REFERENCE != ADC_SAR_1__EXT_REF))
 209:Generated_Source\PSoC5/ADC_SAR_1.c ****         | ADC_SAR_1_SAR_HIZ_CLEAR
 210:Generated_Source\PSoC5/ADC_SAR_1.c ****     #endif /* SAR_HIZ_CLEAR */
 211:Generated_Source\PSoC5/ADC_SAR_1.c ****     /*Set Convertion mode */
 212:Generated_Source\PSoC5/ADC_SAR_1.c ****     #if(ADC_SAR_1_DEFAULT_CONV_MODE != ADC_SAR_1__FREE_RUNNING)      /* If triggered mode */
 213:Generated_Source\PSoC5/ADC_SAR_1.c ****         | ADC_SAR_1_SAR_MX_SOF_UDB           /* source: UDB */
 214:Generated_Source\PSoC5/ADC_SAR_1.c ****         | ADC_SAR_1_SAR_SOF_MODE_EDGE        /* Set edge-sensitive sof source */
 215:Generated_Source\PSoC5/ADC_SAR_1.c ****     #endif /* ADC_SAR_1_DEFAULT_CONV_MODE */
 216:Generated_Source\PSoC5/ADC_SAR_1.c ****     ; /* end of multiple line initialization */
 217:Generated_Source\PSoC5/ADC_SAR_1.c **** 
 218:Generated_Source\PSoC5/ADC_SAR_1.c ****     ADC_SAR_1_SAR_TR0_REG = ADC_SAR_1_SAR_CAP_TRIM_2;
  47              		.loc 1 218 0
  48 000c 0225     		movs	r5, #2
 150:Generated_Source\PSoC5/ADC_SAR_1.c **** 
  49              		.loc 1 150 0
  50 000e 43F00203 		orr	r3, r3, #2
  51 0012 1370     		strb	r3, [r2]
 153:Generated_Source\PSoC5/ADC_SAR_1.c **** 
  52              		.loc 1 153 0
  53 0014 137C     		ldrb	r3, [r2, #16]	@ zero_extendqisi2
 219:Generated_Source\PSoC5/ADC_SAR_1.c **** 
 220:Generated_Source\PSoC5/ADC_SAR_1.c ****     /* Enable clock for SAR ADC*/
 221:Generated_Source\PSoC5/ADC_SAR_1.c ****     ADC_SAR_1_SAR_CLK_REG |= ADC_SAR_1_SAR_MX_CLK_EN;
 222:Generated_Source\PSoC5/ADC_SAR_1.c **** 
 223:Generated_Source\PSoC5/ADC_SAR_1.c ****     CyDelayUs(10u); /* The block is ready to use 10 us after the enable signal is set high. */
  54              		.loc 1 223 0
  55 0016 0A20     		movs	r0, #10
 153:Generated_Source\PSoC5/ADC_SAR_1.c **** 
  56              		.loc 1 153 0
  57 0018 43F00203 		orr	r3, r3, #2
  58 001c 1374     		strb	r3, [r2, #16]
ARM GAS  C:\Users\Luggi\AppData\Local\Temp\cccwB3aA.s 			page 6


 157:Generated_Source\PSoC5/ADC_SAR_1.c ****         ADC_SAR_1_STBY_PWRMGR_CLK_REG |= ADC_SAR_1_STBY_PWR_CLK_EN;
  59              		.loc 1 157 0
  60 001e 12F8093C 		ldrb	r3, [r2, #-9]	@ zero_extendqisi2
  61 0022 43F00803 		orr	r3, r3, #8
  62 0026 02F8093C 		strb	r3, [r2, #-9]
 158:Generated_Source\PSoC5/ADC_SAR_1.c ****     #endif /* End ADC_SAR_1_DEFAULT_INTERNAL_CLK */
  63              		.loc 1 158 0
  64 002a D379     		ldrb	r3, [r2, #7]	@ zero_extendqisi2
  65 002c 43F00803 		orr	r3, r3, #8
  66 0030 D371     		strb	r3, [r2, #7]
 162:Generated_Source\PSoC5/ADC_SAR_1.c ****     tmpReg |= ADC_SAR_1_SAR_EN_BUF_VCM_EN;
  67              		.loc 1 162 0
  68 0032 02F5AB52 		add	r2, r2, #5472
  69 0036 1378     		ldrb	r3, [r2]	@ zero_extendqisi2
  70              	.LVL2:
 169:Generated_Source\PSoC5/ADC_SAR_1.c ****     #endif /* ADC_SAR_1_DEFAULT_REFERENCE == ADC_SAR_1__EXT_REF */
  71              		.loc 1 169 0
  72 0038 43F00303 		orr	r3, r3, #3
  73              	.LVL3:
 171:Generated_Source\PSoC5/ADC_SAR_1.c **** 
  74              		.loc 1 171 0
  75 003c 1370     		strb	r3, [r2]
 182:Generated_Source\PSoC5/ADC_SAR_1.c ****         #else /* INTREF Bypassed of External */
  76              		.loc 1 182 0
  77 003e 134B     		ldr	r3, .L2+4
  78              	.LVL4:
  79 0040 1822     		movs	r2, #24
  80              	.LVL5:
  81 0042 1A70     		strb	r2, [r3]
  82              	.LVL6:
 192:Generated_Source\PSoC5/ADC_SAR_1.c ****     #endif /* ADC_SAR_1_HIGH_POWER_PULSE == 0u */
  83              		.loc 1 192 0
  84 0044 13F8012C 		ldrb	r2, [r3, #-1]	@ zero_extendqisi2
  85 0048 42F04002 		orr	r2, r2, #64
  86 004c 03F8012C 		strb	r2, [r3, #-1]
 202:Generated_Source\PSoC5/ADC_SAR_1.c ****     #endif /* ADC_SAR_1_HIGH_POWER_PULSE == 0u */
  87              		.loc 1 202 0
  88 0050 13F8012C 		ldrb	r2, [r3, #-1]	@ zero_extendqisi2
  89 0054 02F0FC02 		and	r2, r2, #252
  90 0058 03F8012C 		strb	r2, [r3, #-1]
 206:Generated_Source\PSoC5/ADC_SAR_1.c ****     /* SAR_HIZ_CLEAR:   Should not be used for LP */
  91              		.loc 1 206 0
  92 005c C822     		movs	r2, #200
  93 005e 03F8062C 		strb	r2, [r3, #-6]
 218:Generated_Source\PSoC5/ADC_SAR_1.c **** 
  94              		.loc 1 218 0
  95 0062 A3F59753 		sub	r3, r3, #4832
 221:Generated_Source\PSoC5/ADC_SAR_1.c **** 
  96              		.loc 1 221 0
  97 0066 0A4A     		ldr	r2, .L2+8
 218:Generated_Source\PSoC5/ADC_SAR_1.c **** 
  98              		.loc 1 218 0
  99 0068 183B     		subs	r3, r3, #24
 100 006a 1D70     		strb	r5, [r3]
 221:Generated_Source\PSoC5/ADC_SAR_1.c **** 
 101              		.loc 1 221 0
 102 006c 1378     		ldrb	r3, [r2]	@ zero_extendqisi2
ARM GAS  C:\Users\Luggi\AppData\Local\Temp\cccwB3aA.s 			page 7


 103 006e 43F00803 		orr	r3, r3, #8
 104 0072 1370     		strb	r3, [r2]
 105              		.loc 1 223 0
 106 0074 FFF7FEFF 		bl	CyDelayUs
 107              	.LVL7:
 224:Generated_Source\PSoC5/ADC_SAR_1.c **** 
 225:Generated_Source\PSoC5/ADC_SAR_1.c ****     #if(ADC_SAR_1_IRQ_REMOVE == 0u)
 226:Generated_Source\PSoC5/ADC_SAR_1.c ****         /* Clear a pending interrupt */
 227:Generated_Source\PSoC5/ADC_SAR_1.c ****         CyIntClearPending(ADC_SAR_1_INTC_NUMBER);
 108              		.loc 1 227 0
 109 0078 064B     		ldr	r3, .L2+12
 228:Generated_Source\PSoC5/ADC_SAR_1.c ****     #endif   /* End ADC_SAR_1_IRQ_REMOVE */
 229:Generated_Source\PSoC5/ADC_SAR_1.c **** 
 230:Generated_Source\PSoC5/ADC_SAR_1.c ****     CyExitCriticalSection(enableInterrupts);
 110              		.loc 1 230 0
 111 007a 2046     		mov	r0, r4
 227:Generated_Source\PSoC5/ADC_SAR_1.c ****     #endif   /* End ADC_SAR_1_IRQ_REMOVE */
 112              		.loc 1 227 0
 113 007c 1D60     		str	r5, [r3]
 231:Generated_Source\PSoC5/ADC_SAR_1.c **** }
 114              		.loc 1 231 0
 115 007e BDE83840 		pop	{r3, r4, r5, lr}
 116              		.cfi_restore 14
 117              		.cfi_restore 5
 118              		.cfi_restore 4
 119              		.cfi_restore 3
 120              		.cfi_def_cfa_offset 0
 121              	.LVL8:
 230:Generated_Source\PSoC5/ADC_SAR_1.c **** }
 122              		.loc 1 230 0
 123 0082 FFF7FEBF 		b	CyExitCriticalSection
 124              	.LVL9:
 125              	.L3:
 126 0086 00BF     		.align	2
 127              	.L2:
 128 0088 AB430040 		.word	1073759147
 129 008c 0E590040 		.word	1073764622
 130 0090 2F5B0040 		.word	1073765167
 131 0094 80E200E0 		.word	-536812928
 132              		.cfi_endproc
 133              	.LFE2:
 134              		.size	ADC_SAR_1_Enable, .-ADC_SAR_1_Enable
 135              		.section	.text.ADC_SAR_1_Stop,"ax",%progbits
 136              		.align	1
 137              		.global	ADC_SAR_1_Stop
 138              		.thumb
 139              		.thumb_func
 140              		.type	ADC_SAR_1_Stop, %function
 141              	ADC_SAR_1_Stop:
 142              	.LFB3:
 232:Generated_Source\PSoC5/ADC_SAR_1.c **** 
 233:Generated_Source\PSoC5/ADC_SAR_1.c **** 
 234:Generated_Source\PSoC5/ADC_SAR_1.c **** /*******************************************************************************
 235:Generated_Source\PSoC5/ADC_SAR_1.c **** * Function Name: ADC_SAR_1_Stop
 236:Generated_Source\PSoC5/ADC_SAR_1.c **** ********************************************************************************
 237:Generated_Source\PSoC5/ADC_SAR_1.c **** *
 238:Generated_Source\PSoC5/ADC_SAR_1.c **** * Summary:
ARM GAS  C:\Users\Luggi\AppData\Local\Temp\cccwB3aA.s 			page 8


 239:Generated_Source\PSoC5/ADC_SAR_1.c **** *  Stops ADC conversions and puts the ADC into its lowest power mode.
 240:Generated_Source\PSoC5/ADC_SAR_1.c **** *
 241:Generated_Source\PSoC5/ADC_SAR_1.c **** * Parameters:
 242:Generated_Source\PSoC5/ADC_SAR_1.c **** *  None.
 243:Generated_Source\PSoC5/ADC_SAR_1.c **** *
 244:Generated_Source\PSoC5/ADC_SAR_1.c **** * Return:
 245:Generated_Source\PSoC5/ADC_SAR_1.c **** *  None.
 246:Generated_Source\PSoC5/ADC_SAR_1.c **** *
 247:Generated_Source\PSoC5/ADC_SAR_1.c **** *******************************************************************************/
 248:Generated_Source\PSoC5/ADC_SAR_1.c **** void ADC_SAR_1_Stop(void)
 249:Generated_Source\PSoC5/ADC_SAR_1.c **** {
 143              		.loc 1 249 0
 144              		.cfi_startproc
 145              		@ args = 0, pretend = 0, frame = 0
 146              		@ frame_needed = 0, uses_anonymous_args = 0
 147 0000 08B5     		push	{r3, lr}
 148              		.cfi_def_cfa_offset 8
 149              		.cfi_offset 3, -8
 150              		.cfi_offset 14, -4
 250:Generated_Source\PSoC5/ADC_SAR_1.c ****     uint8 enableInterrupts;
 251:Generated_Source\PSoC5/ADC_SAR_1.c ****     enableInterrupts = CyEnterCriticalSection();
 151              		.loc 1 251 0
 152 0002 FFF7FEFF 		bl	CyEnterCriticalSection
 153              	.LVL10:
 252:Generated_Source\PSoC5/ADC_SAR_1.c **** 
 253:Generated_Source\PSoC5/ADC_SAR_1.c ****     /* Stop all conversions */
 254:Generated_Source\PSoC5/ADC_SAR_1.c ****     ADC_SAR_1_SAR_CSR0_REG &= (uint8)~ADC_SAR_1_SAR_SOF_START_CONV;
 154              		.loc 1 254 0
 155 0006 0F4A     		ldr	r2, .L5
 156 0008 1378     		ldrb	r3, [r2]	@ zero_extendqisi2
 157 000a 03F0FE03 		and	r3, r3, #254
 158 000e 1370     		strb	r3, [r2]
 255:Generated_Source\PSoC5/ADC_SAR_1.c ****     /* Disable the SAR ADC block in Active Power Mode */
 256:Generated_Source\PSoC5/ADC_SAR_1.c ****     ADC_SAR_1_PWRMGR_SAR_REG &= (uint8)~ADC_SAR_1_ACT_PWR_SAR_EN;
 159              		.loc 1 256 0
 160 0010 A2F5AA52 		sub	r2, r2, #5440
 161 0014 1D3A     		subs	r2, r2, #29
 162 0016 1378     		ldrb	r3, [r2]	@ zero_extendqisi2
 163 0018 03F0FD03 		and	r3, r3, #253
 164 001c 1370     		strb	r3, [r2]
 257:Generated_Source\PSoC5/ADC_SAR_1.c ****     /* Disable the SAR ADC in Standby Power Mode */
 258:Generated_Source\PSoC5/ADC_SAR_1.c ****     ADC_SAR_1_STBY_PWRMGR_SAR_REG &= (uint8)~ADC_SAR_1_STBY_PWR_SAR_EN;
 165              		.loc 1 258 0
 166 001e 137C     		ldrb	r3, [r2, #16]	@ zero_extendqisi2
 167 0020 03F0FD03 		and	r3, r3, #253
 168 0024 1374     		strb	r3, [r2, #16]
 259:Generated_Source\PSoC5/ADC_SAR_1.c **** 
 260:Generated_Source\PSoC5/ADC_SAR_1.c ****     /* This is only valid if there is an internal clock */
 261:Generated_Source\PSoC5/ADC_SAR_1.c ****     #if(ADC_SAR_1_DEFAULT_INTERNAL_CLK)
 262:Generated_Source\PSoC5/ADC_SAR_1.c ****         ADC_SAR_1_PWRMGR_CLK_REG &= (uint8)~ADC_SAR_1_ACT_PWR_CLK_EN;
 169              		.loc 1 262 0
 170 0026 12F8093C 		ldrb	r3, [r2, #-9]	@ zero_extendqisi2
 171 002a 03F0F703 		and	r3, r3, #247
 172 002e 02F8093C 		strb	r3, [r2, #-9]
 263:Generated_Source\PSoC5/ADC_SAR_1.c ****         ADC_SAR_1_STBY_PWRMGR_CLK_REG &= (uint8)~ADC_SAR_1_STBY_PWR_CLK_EN;
 173              		.loc 1 263 0
 174 0032 D379     		ldrb	r3, [r2, #7]	@ zero_extendqisi2
ARM GAS  C:\Users\Luggi\AppData\Local\Temp\cccwB3aA.s 			page 9


 175 0034 03F0F703 		and	r3, r3, #247
 176 0038 D371     		strb	r3, [r2, #7]
 264:Generated_Source\PSoC5/ADC_SAR_1.c ****     #endif /* End ADC_SAR_1_DEFAULT_INTERNAL_CLK */
 265:Generated_Source\PSoC5/ADC_SAR_1.c **** 
 266:Generated_Source\PSoC5/ADC_SAR_1.c ****     CyExitCriticalSection(enableInterrupts);
 267:Generated_Source\PSoC5/ADC_SAR_1.c **** 
 268:Generated_Source\PSoC5/ADC_SAR_1.c **** }
 177              		.loc 1 268 0
 178 003a BDE80840 		pop	{r3, lr}
 179              		.cfi_restore 14
 180              		.cfi_restore 3
 181              		.cfi_def_cfa_offset 0
 266:Generated_Source\PSoC5/ADC_SAR_1.c **** 
 182              		.loc 1 266 0
 183 003e FFF7FEBF 		b	CyExitCriticalSection
 184              	.LVL11:
 185              	.L6:
 186 0042 00BF     		.align	2
 187              	.L5:
 188 0044 08590040 		.word	1073764616
 189              		.cfi_endproc
 190              	.LFE3:
 191              		.size	ADC_SAR_1_Stop, .-ADC_SAR_1_Stop
 192              		.section	.text.ADC_SAR_1_SetPower,"ax",%progbits
 193              		.align	1
 194              		.global	ADC_SAR_1_SetPower
 195              		.thumb
 196              		.thumb_func
 197              		.type	ADC_SAR_1_SetPower, %function
 198              	ADC_SAR_1_SetPower:
 199              	.LFB4:
 269:Generated_Source\PSoC5/ADC_SAR_1.c **** 
 270:Generated_Source\PSoC5/ADC_SAR_1.c **** 
 271:Generated_Source\PSoC5/ADC_SAR_1.c **** /*******************************************************************************
 272:Generated_Source\PSoC5/ADC_SAR_1.c **** * Function Name: ADC_SAR_1_SetPower
 273:Generated_Source\PSoC5/ADC_SAR_1.c **** ********************************************************************************
 274:Generated_Source\PSoC5/ADC_SAR_1.c **** *
 275:Generated_Source\PSoC5/ADC_SAR_1.c **** * Summary:
 276:Generated_Source\PSoC5/ADC_SAR_1.c **** *  Sets the operational power of the ADC. You should use the higher power
 277:Generated_Source\PSoC5/ADC_SAR_1.c **** *  settings with faster clock speeds.
 278:Generated_Source\PSoC5/ADC_SAR_1.c **** *
 279:Generated_Source\PSoC5/ADC_SAR_1.c **** * Parameters:
 280:Generated_Source\PSoC5/ADC_SAR_1.c **** *  power:  Power setting for ADC
 281:Generated_Source\PSoC5/ADC_SAR_1.c **** *  0 ->    Normal
 282:Generated_Source\PSoC5/ADC_SAR_1.c **** *  1 ->    Medium power
 283:Generated_Source\PSoC5/ADC_SAR_1.c **** *  2 ->    1.25 power
 284:Generated_Source\PSoC5/ADC_SAR_1.c **** *  3 ->    Minimum power.
 285:Generated_Source\PSoC5/ADC_SAR_1.c **** *
 286:Generated_Source\PSoC5/ADC_SAR_1.c **** * Return:
 287:Generated_Source\PSoC5/ADC_SAR_1.c **** *  None.
 288:Generated_Source\PSoC5/ADC_SAR_1.c **** *
 289:Generated_Source\PSoC5/ADC_SAR_1.c **** *******************************************************************************/
 290:Generated_Source\PSoC5/ADC_SAR_1.c **** void ADC_SAR_1_SetPower(uint8 power)
 291:Generated_Source\PSoC5/ADC_SAR_1.c **** {
 200              		.loc 1 291 0
 201              		.cfi_startproc
 202              		@ args = 0, pretend = 0, frame = 0
ARM GAS  C:\Users\Luggi\AppData\Local\Temp\cccwB3aA.s 			page 10


 203              		@ frame_needed = 0, uses_anonymous_args = 0
 204              		@ link register save eliminated.
 205              	.LVL12:
 292:Generated_Source\PSoC5/ADC_SAR_1.c ****     uint8 tmpReg;
 293:Generated_Source\PSoC5/ADC_SAR_1.c **** 
 294:Generated_Source\PSoC5/ADC_SAR_1.c ****     /* mask off invalid power settings */
 295:Generated_Source\PSoC5/ADC_SAR_1.c ****     power &= ADC_SAR_1_SAR_API_POWER_MASK;
 296:Generated_Source\PSoC5/ADC_SAR_1.c **** 
 297:Generated_Source\PSoC5/ADC_SAR_1.c ****     /* Set Power parameter  */
 298:Generated_Source\PSoC5/ADC_SAR_1.c ****     tmpReg = ADC_SAR_1_SAR_CSR0_REG & (uint8)~ADC_SAR_1_SAR_POWER_MASK;
 206              		.loc 1 298 0
 207 0000 044A     		ldr	r2, .L8
 295:Generated_Source\PSoC5/ADC_SAR_1.c **** 
 208              		.loc 1 295 0
 209 0002 00F00300 		and	r0, r0, #3
 210              	.LVL13:
 211              		.loc 1 298 0
 212 0006 1378     		ldrb	r3, [r2]	@ zero_extendqisi2
 213 0008 03F03F03 		and	r3, r3, #63
 214              	.LVL14:
 299:Generated_Source\PSoC5/ADC_SAR_1.c ****     tmpReg |= (uint8)(power << ADC_SAR_1_SAR_POWER_SHIFT);
 215              		.loc 1 299 0
 216 000c 43EA8013 		orr	r3, r3, r0, lsl #6
 217              	.LVL15:
 300:Generated_Source\PSoC5/ADC_SAR_1.c ****     ADC_SAR_1_SAR_CSR0_REG = tmpReg;
 218              		.loc 1 300 0
 219 0010 1370     		strb	r3, [r2]
 220 0012 7047     		bx	lr
 221              	.L9:
 222              		.align	2
 223              	.L8:
 224 0014 08590040 		.word	1073764616
 225              		.cfi_endproc
 226              	.LFE4:
 227              		.size	ADC_SAR_1_SetPower, .-ADC_SAR_1_SetPower
 228              		.section	.text.ADC_SAR_1_SetResolution,"ax",%progbits
 229              		.align	1
 230              		.global	ADC_SAR_1_SetResolution
 231              		.thumb
 232              		.thumb_func
 233              		.type	ADC_SAR_1_SetResolution, %function
 234              	ADC_SAR_1_SetResolution:
 235              	.LFB5:
 301:Generated_Source\PSoC5/ADC_SAR_1.c **** }
 302:Generated_Source\PSoC5/ADC_SAR_1.c **** 
 303:Generated_Source\PSoC5/ADC_SAR_1.c **** 
 304:Generated_Source\PSoC5/ADC_SAR_1.c **** /*******************************************************************************
 305:Generated_Source\PSoC5/ADC_SAR_1.c **** * Function Name: ADC_SAR_1_SetResolution
 306:Generated_Source\PSoC5/ADC_SAR_1.c **** ********************************************************************************
 307:Generated_Source\PSoC5/ADC_SAR_1.c **** *
 308:Generated_Source\PSoC5/ADC_SAR_1.c **** * Summary:
 309:Generated_Source\PSoC5/ADC_SAR_1.c **** *  Sets the Relution of the SAR.
 310:Generated_Source\PSoC5/ADC_SAR_1.c **** *
 311:Generated_Source\PSoC5/ADC_SAR_1.c **** * Parameters:
 312:Generated_Source\PSoC5/ADC_SAR_1.c **** *  resolution:
 313:Generated_Source\PSoC5/ADC_SAR_1.c **** *  12 ->    RES12
 314:Generated_Source\PSoC5/ADC_SAR_1.c **** *  10 ->    RES10
ARM GAS  C:\Users\Luggi\AppData\Local\Temp\cccwB3aA.s 			page 11


 315:Generated_Source\PSoC5/ADC_SAR_1.c **** *  8  ->    RES8
 316:Generated_Source\PSoC5/ADC_SAR_1.c **** *
 317:Generated_Source\PSoC5/ADC_SAR_1.c **** * Return:
 318:Generated_Source\PSoC5/ADC_SAR_1.c **** *  None.
 319:Generated_Source\PSoC5/ADC_SAR_1.c **** *
 320:Generated_Source\PSoC5/ADC_SAR_1.c **** * Side Effects:
 321:Generated_Source\PSoC5/ADC_SAR_1.c **** *  The ADC resolution cannot be changed during a conversion cycle. The
 322:Generated_Source\PSoC5/ADC_SAR_1.c **** *  recommended best practice is to stop conversions with
 323:Generated_Source\PSoC5/ADC_SAR_1.c **** *  ADC_StopConvert(), change the resolution, then restart the
 324:Generated_Source\PSoC5/ADC_SAR_1.c **** *  conversions with ADC_StartConvert().
 325:Generated_Source\PSoC5/ADC_SAR_1.c **** *  If you decide not to stop conversions before calling this API, you
 326:Generated_Source\PSoC5/ADC_SAR_1.c **** *  should use ADC_IsEndConversion() to wait until conversion is complete
 327:Generated_Source\PSoC5/ADC_SAR_1.c **** *  before changing the resolution.
 328:Generated_Source\PSoC5/ADC_SAR_1.c **** *  If you call ADC_SetResolution() during a conversion, the resolution will
 329:Generated_Source\PSoC5/ADC_SAR_1.c **** *  not be changed until the current conversion is complete. Data will not be
 330:Generated_Source\PSoC5/ADC_SAR_1.c **** *  available in the new resolution for another 6 + "New Resolution(in bits)"
 331:Generated_Source\PSoC5/ADC_SAR_1.c **** *  clock cycles.
 332:Generated_Source\PSoC5/ADC_SAR_1.c **** *  You may need add a delay of this number of clock cycles after
 333:Generated_Source\PSoC5/ADC_SAR_1.c **** *  ADC_SetResolution() is called before data is valid again.
 334:Generated_Source\PSoC5/ADC_SAR_1.c **** *  Affects ADC_CountsTo_Volts(), ADC_CountsTo_mVolts(), and
 335:Generated_Source\PSoC5/ADC_SAR_1.c **** *  ADC_CountsTo_uVolts() by calculating the correct conversion between ADC
 336:Generated_Source\PSoC5/ADC_SAR_1.c **** *  counts and the applied input voltage. Calculation depends on resolution,
 337:Generated_Source\PSoC5/ADC_SAR_1.c **** *  input range, and voltage reference.
 338:Generated_Source\PSoC5/ADC_SAR_1.c **** *
 339:Generated_Source\PSoC5/ADC_SAR_1.c **** *******************************************************************************/
 340:Generated_Source\PSoC5/ADC_SAR_1.c **** void ADC_SAR_1_SetResolution(uint8 resolution)
 341:Generated_Source\PSoC5/ADC_SAR_1.c **** {
 236              		.loc 1 341 0
 237              		.cfi_startproc
 238              		@ args = 0, pretend = 0, frame = 0
 239              		@ frame_needed = 0, uses_anonymous_args = 0
 240              		@ link register save eliminated.
 241              	.LVL16:
 342:Generated_Source\PSoC5/ADC_SAR_1.c ****     uint8 tmpReg;
 343:Generated_Source\PSoC5/ADC_SAR_1.c **** 
 344:Generated_Source\PSoC5/ADC_SAR_1.c ****     /* Set SAR ADC resolution and sample width: 18 conversion cycles at 12bits + 1 gap */
 345:Generated_Source\PSoC5/ADC_SAR_1.c ****     switch (resolution)
 242              		.loc 1 345 0
 243 0000 0828     		cmp	r0, #8
 244 0002 04D0     		beq	.L12
 245 0004 0A28     		cmp	r0, #10
 346:Generated_Source\PSoC5/ADC_SAR_1.c ****     {
 347:Generated_Source\PSoC5/ADC_SAR_1.c ****         case (uint8)ADC_SAR_1__BITS_12:
 348:Generated_Source\PSoC5/ADC_SAR_1.c ****             tmpReg = ADC_SAR_1_SAR_RESOLUTION_12BIT | ADC_SAR_1_SAR_SAMPLE_WIDTH;
 246              		.loc 1 348 0
 247 0006 0CBF     		ite	eq
 248 0008 8223     		moveq	r3, #130
 249 000a C223     		movne	r3, #194
 250 000c 00E0     		b	.L13
 251              	.L12:
 252              	.LVL17:
 349:Generated_Source\PSoC5/ADC_SAR_1.c ****             break;
 350:Generated_Source\PSoC5/ADC_SAR_1.c ****         case (uint8)ADC_SAR_1__BITS_10:
 351:Generated_Source\PSoC5/ADC_SAR_1.c ****             tmpReg = ADC_SAR_1_SAR_RESOLUTION_10BIT | ADC_SAR_1_SAR_SAMPLE_WIDTH;
 352:Generated_Source\PSoC5/ADC_SAR_1.c ****             break;
 353:Generated_Source\PSoC5/ADC_SAR_1.c ****         case (uint8)ADC_SAR_1__BITS_8:
 354:Generated_Source\PSoC5/ADC_SAR_1.c ****             tmpReg = ADC_SAR_1_SAR_RESOLUTION_8BIT | ADC_SAR_1_SAR_SAMPLE_WIDTH;
ARM GAS  C:\Users\Luggi\AppData\Local\Temp\cccwB3aA.s 			page 12


 253              		.loc 1 354 0
 254 000e 4223     		movs	r3, #66
 255              	.LVL18:
 256              	.L13:
 257 0010 0838     		subs	r0, r0, #8
 258              	.LVL19:
 355:Generated_Source\PSoC5/ADC_SAR_1.c ****             break;
 356:Generated_Source\PSoC5/ADC_SAR_1.c ****         default:
 357:Generated_Source\PSoC5/ADC_SAR_1.c ****             tmpReg = ADC_SAR_1_SAR_RESOLUTION_12BIT | ADC_SAR_1_SAR_SAMPLE_WIDTH;
 358:Generated_Source\PSoC5/ADC_SAR_1.c ****             /* Halt CPU in debug mode if resolution is out of valid range */
 359:Generated_Source\PSoC5/ADC_SAR_1.c ****             CYASSERT(0u != 0u);
 360:Generated_Source\PSoC5/ADC_SAR_1.c ****             break;
 361:Generated_Source\PSoC5/ADC_SAR_1.c ****     }
 362:Generated_Source\PSoC5/ADC_SAR_1.c ****     ADC_SAR_1_SAR_CSR2_REG = tmpReg;
 259              		.loc 1 362 0
 260 0012 0E4A     		ldr	r2, .L18
 261 0014 C0B2     		uxtb	r0, r0
 262 0016 0428     		cmp	r0, #4
 263 0018 1370     		strb	r3, [r2]
 264              	.LVL20:
 265 001a 98BF     		it	ls
 266 001c 0C4B     		ldrls	r3, .L18+4
 267 001e 4FF00002 		mov	r2, #0
 268 0022 98BF     		it	ls
 269 0024 33F91010 		ldrshls	r1, [r3, r0, lsl #1]
 270              	.LBB4:
 271              	.LBB5:
 363:Generated_Source\PSoC5/ADC_SAR_1.c **** 
 364:Generated_Source\PSoC5/ADC_SAR_1.c ****      /* Calculate gain for convert counts to volts */
 365:Generated_Source\PSoC5/ADC_SAR_1.c ****     ADC_SAR_1_CalcGain(resolution);
 366:Generated_Source\PSoC5/ADC_SAR_1.c **** }
 367:Generated_Source\PSoC5/ADC_SAR_1.c **** 
 368:Generated_Source\PSoC5/ADC_SAR_1.c **** 
 369:Generated_Source\PSoC5/ADC_SAR_1.c **** #if(ADC_SAR_1_DEFAULT_CONV_MODE != ADC_SAR_1__HARDWARE_TRIGGER)
 370:Generated_Source\PSoC5/ADC_SAR_1.c **** 
 371:Generated_Source\PSoC5/ADC_SAR_1.c **** 
 372:Generated_Source\PSoC5/ADC_SAR_1.c ****     /*******************************************************************************
 373:Generated_Source\PSoC5/ADC_SAR_1.c ****     * Function Name: ADC_SAR_1_StartConvert
 374:Generated_Source\PSoC5/ADC_SAR_1.c ****     ********************************************************************************
 375:Generated_Source\PSoC5/ADC_SAR_1.c ****     *
 376:Generated_Source\PSoC5/ADC_SAR_1.c ****     * Summary:
 377:Generated_Source\PSoC5/ADC_SAR_1.c ****     *  Forces the ADC to initiate a conversion. In free-running mode, the ADC runs
 378:Generated_Source\PSoC5/ADC_SAR_1.c ****     *  continuously. In software trigger mode, the function also acts as a software
 379:Generated_Source\PSoC5/ADC_SAR_1.c ****     *  version of the SOC and every conversion must be triggered by
 380:Generated_Source\PSoC5/ADC_SAR_1.c ****     *  ADC_SAR_1_StartConvert(). This function is not available when the
 381:Generated_Source\PSoC5/ADC_SAR_1.c ****     *  Hardware Trigger sample mode is selected.
 382:Generated_Source\PSoC5/ADC_SAR_1.c ****     *
 383:Generated_Source\PSoC5/ADC_SAR_1.c ****     * Parameters:
 384:Generated_Source\PSoC5/ADC_SAR_1.c ****     *  None.
 385:Generated_Source\PSoC5/ADC_SAR_1.c ****     *
 386:Generated_Source\PSoC5/ADC_SAR_1.c ****     * Return:
 387:Generated_Source\PSoC5/ADC_SAR_1.c ****     *  None.
 388:Generated_Source\PSoC5/ADC_SAR_1.c ****     *
 389:Generated_Source\PSoC5/ADC_SAR_1.c ****     * Theory:
 390:Generated_Source\PSoC5/ADC_SAR_1.c ****     *  Forces the ADC to initiate a conversion. In Free Running mode, the ADC will
 391:Generated_Source\PSoC5/ADC_SAR_1.c ****     *  run continuously. In a software trigger mode the function also acts as a
 392:Generated_Source\PSoC5/ADC_SAR_1.c ****     *  software version of the SOC. Here every conversion has to be triggered by
ARM GAS  C:\Users\Luggi\AppData\Local\Temp\cccwB3aA.s 			page 13


 393:Generated_Source\PSoC5/ADC_SAR_1.c ****     *  the routine. This writes into the SOC bit in SAR_CTRL reg.
 394:Generated_Source\PSoC5/ADC_SAR_1.c ****     *
 395:Generated_Source\PSoC5/ADC_SAR_1.c ****     * Side Effects:
 396:Generated_Source\PSoC5/ADC_SAR_1.c ****     *  In a software trigger mode the function switches source for SOF from the
 397:Generated_Source\PSoC5/ADC_SAR_1.c ****     *  external pin to the internal SOF generation. Application should not call
 398:Generated_Source\PSoC5/ADC_SAR_1.c ****     *  StartConvert if external source used for SOF.
 399:Generated_Source\PSoC5/ADC_SAR_1.c ****     *
 400:Generated_Source\PSoC5/ADC_SAR_1.c ****     *******************************************************************************/
 401:Generated_Source\PSoC5/ADC_SAR_1.c ****     void ADC_SAR_1_StartConvert(void)
 402:Generated_Source\PSoC5/ADC_SAR_1.c ****     {
 403:Generated_Source\PSoC5/ADC_SAR_1.c ****         #if(ADC_SAR_1_DEFAULT_CONV_MODE != ADC_SAR_1__FREE_RUNNING)  /* If software triggered mode 
 404:Generated_Source\PSoC5/ADC_SAR_1.c ****             ADC_SAR_1_SAR_CSR0_REG &= (uint8)~ADC_SAR_1_SAR_MX_SOF_UDB;   /* source: SOF bit */
 405:Generated_Source\PSoC5/ADC_SAR_1.c ****         #endif /* End ADC_SAR_1_DEFAULT_CONV_MODE */
 406:Generated_Source\PSoC5/ADC_SAR_1.c **** 
 407:Generated_Source\PSoC5/ADC_SAR_1.c ****         /* Start the conversion */
 408:Generated_Source\PSoC5/ADC_SAR_1.c ****         ADC_SAR_1_SAR_CSR0_REG |= ADC_SAR_1_SAR_SOF_START_CONV;
 409:Generated_Source\PSoC5/ADC_SAR_1.c ****     }
 410:Generated_Source\PSoC5/ADC_SAR_1.c **** 
 411:Generated_Source\PSoC5/ADC_SAR_1.c **** 
 412:Generated_Source\PSoC5/ADC_SAR_1.c ****     /*******************************************************************************
 413:Generated_Source\PSoC5/ADC_SAR_1.c ****     * Function Name: ADC_SAR_1_StopConvert
 414:Generated_Source\PSoC5/ADC_SAR_1.c ****     ********************************************************************************
 415:Generated_Source\PSoC5/ADC_SAR_1.c ****     *
 416:Generated_Source\PSoC5/ADC_SAR_1.c ****     * Summary:
 417:Generated_Source\PSoC5/ADC_SAR_1.c ****     *  Forces the ADC to stop conversions. If a conversion is currently executing,
 418:Generated_Source\PSoC5/ADC_SAR_1.c ****     *  that conversion will complete, but no further conversions will occur. This
 419:Generated_Source\PSoC5/ADC_SAR_1.c ****     *  function is not available when the Hardware Trigger sample mode is selected.
 420:Generated_Source\PSoC5/ADC_SAR_1.c ****     *
 421:Generated_Source\PSoC5/ADC_SAR_1.c ****     * Parameters:
 422:Generated_Source\PSoC5/ADC_SAR_1.c ****     *  None.
 423:Generated_Source\PSoC5/ADC_SAR_1.c ****     *
 424:Generated_Source\PSoC5/ADC_SAR_1.c ****     * Return:
 425:Generated_Source\PSoC5/ADC_SAR_1.c ****     *  None.
 426:Generated_Source\PSoC5/ADC_SAR_1.c ****     *
 427:Generated_Source\PSoC5/ADC_SAR_1.c ****     * Theory:
 428:Generated_Source\PSoC5/ADC_SAR_1.c ****     *  Stops ADC conversion in Free Running mode.
 429:Generated_Source\PSoC5/ADC_SAR_1.c ****     *
 430:Generated_Source\PSoC5/ADC_SAR_1.c ****     * Side Effects:
 431:Generated_Source\PSoC5/ADC_SAR_1.c ****     *  In Software Trigger sample mode, this function sets a software version of the
 432:Generated_Source\PSoC5/ADC_SAR_1.c ****     *  SOC to low level and switches the SOC source to hardware SOC input.
 433:Generated_Source\PSoC5/ADC_SAR_1.c ****     *
 434:Generated_Source\PSoC5/ADC_SAR_1.c ****     *******************************************************************************/
 435:Generated_Source\PSoC5/ADC_SAR_1.c ****     void ADC_SAR_1_StopConvert(void)
 436:Generated_Source\PSoC5/ADC_SAR_1.c ****     {
 437:Generated_Source\PSoC5/ADC_SAR_1.c ****         /* Stop all conversions */
 438:Generated_Source\PSoC5/ADC_SAR_1.c ****         ADC_SAR_1_SAR_CSR0_REG &= (uint8)~ADC_SAR_1_SAR_SOF_START_CONV;
 439:Generated_Source\PSoC5/ADC_SAR_1.c **** 
 440:Generated_Source\PSoC5/ADC_SAR_1.c ****         #if(ADC_SAR_1_DEFAULT_CONV_MODE != ADC_SAR_1__FREE_RUNNING)  /* If software triggered mode 
 441:Generated_Source\PSoC5/ADC_SAR_1.c ****             /* Return source to UDB for hardware SOF signal */
 442:Generated_Source\PSoC5/ADC_SAR_1.c ****             ADC_SAR_1_SAR_CSR0_REG |= ADC_SAR_1_SAR_MX_SOF_UDB;    /* source: UDB */
 443:Generated_Source\PSoC5/ADC_SAR_1.c ****         #endif /* End ADC_SAR_1_DEFAULT_CONV_MODE */
 444:Generated_Source\PSoC5/ADC_SAR_1.c **** 
 445:Generated_Source\PSoC5/ADC_SAR_1.c ****     }
 446:Generated_Source\PSoC5/ADC_SAR_1.c **** 
 447:Generated_Source\PSoC5/ADC_SAR_1.c **** #endif /* End ADC_SAR_1_DEFAULT_CONV_MODE != ADC_SAR_1__HARDWARE_TRIGGER */
 448:Generated_Source\PSoC5/ADC_SAR_1.c **** 
 449:Generated_Source\PSoC5/ADC_SAR_1.c **** 
ARM GAS  C:\Users\Luggi\AppData\Local\Temp\cccwB3aA.s 			page 14


 450:Generated_Source\PSoC5/ADC_SAR_1.c **** /*******************************************************************************
 451:Generated_Source\PSoC5/ADC_SAR_1.c **** * Function Name: ADC_SAR_1_IsEndConversion
 452:Generated_Source\PSoC5/ADC_SAR_1.c **** ********************************************************************************
 453:Generated_Source\PSoC5/ADC_SAR_1.c **** *
 454:Generated_Source\PSoC5/ADC_SAR_1.c **** * Summary:
 455:Generated_Source\PSoC5/ADC_SAR_1.c **** *  Immediately returns the status of the conversion or does not return
 456:Generated_Source\PSoC5/ADC_SAR_1.c **** *  (blocking) until the conversion completes, depending on the retMode
 457:Generated_Source\PSoC5/ADC_SAR_1.c **** *  parameter.
 458:Generated_Source\PSoC5/ADC_SAR_1.c **** *
 459:Generated_Source\PSoC5/ADC_SAR_1.c **** * Parameters:
 460:Generated_Source\PSoC5/ADC_SAR_1.c **** *  retMode:  Check conversion return mode.
 461:Generated_Source\PSoC5/ADC_SAR_1.c **** *   ADC_SAR_1_RETURN_STATUS: Immediately returns the status. If the
 462:Generated_Source\PSoC5/ADC_SAR_1.c **** *     value returned is zero, the conversion is not complete, and this function
 463:Generated_Source\PSoC5/ADC_SAR_1.c **** *     should be retried until a nonzero result is returned.
 464:Generated_Source\PSoC5/ADC_SAR_1.c **** *   ADC_SAR_1_WAIT_FOR_RESULT: Does not return a result until the ADC
 465:Generated_Source\PSoC5/ADC_SAR_1.c **** *     conversion is complete.
 466:Generated_Source\PSoC5/ADC_SAR_1.c **** *
 467:Generated_Source\PSoC5/ADC_SAR_1.c **** * Return:
 468:Generated_Source\PSoC5/ADC_SAR_1.c **** *  (uint8)  0 =>  The ADC is still calculating the last result.
 469:Generated_Source\PSoC5/ADC_SAR_1.c **** *           1 =>  The last conversion is complete.
 470:Generated_Source\PSoC5/ADC_SAR_1.c **** *
 471:Generated_Source\PSoC5/ADC_SAR_1.c **** * Side Effects:
 472:Generated_Source\PSoC5/ADC_SAR_1.c **** *  This function reads the end of conversion status, which is cleared on read.
 473:Generated_Source\PSoC5/ADC_SAR_1.c **** *
 474:Generated_Source\PSoC5/ADC_SAR_1.c **** *******************************************************************************/
 475:Generated_Source\PSoC5/ADC_SAR_1.c **** uint8 ADC_SAR_1_IsEndConversion(uint8 retMode)
 476:Generated_Source\PSoC5/ADC_SAR_1.c **** {
 477:Generated_Source\PSoC5/ADC_SAR_1.c ****     uint8 status;
 478:Generated_Source\PSoC5/ADC_SAR_1.c **** 
 479:Generated_Source\PSoC5/ADC_SAR_1.c ****     do
 480:Generated_Source\PSoC5/ADC_SAR_1.c ****     {
 481:Generated_Source\PSoC5/ADC_SAR_1.c ****         status = ADC_SAR_1_SAR_CSR1_REG & ADC_SAR_1_SAR_EOF_1;
 482:Generated_Source\PSoC5/ADC_SAR_1.c ****     } while ((status != ADC_SAR_1_SAR_EOF_1) && (retMode == ADC_SAR_1_WAIT_FOR_RESULT));
 483:Generated_Source\PSoC5/ADC_SAR_1.c ****     /* If convertion complete, wait until EOF bit released */
 484:Generated_Source\PSoC5/ADC_SAR_1.c ****     if(status == ADC_SAR_1_SAR_EOF_1)
 485:Generated_Source\PSoC5/ADC_SAR_1.c ****     {
 486:Generated_Source\PSoC5/ADC_SAR_1.c ****         /* wait one ADC clock to let the EOC status bit release */
 487:Generated_Source\PSoC5/ADC_SAR_1.c ****         CyDelayUs(1u);
 488:Generated_Source\PSoC5/ADC_SAR_1.c ****         /* Do the unconditional read operation of the CSR1 register to make sure the EOC bit has be
 489:Generated_Source\PSoC5/ADC_SAR_1.c ****         CY_GET_REG8(ADC_SAR_1_SAR_CSR1_PTR);
 490:Generated_Source\PSoC5/ADC_SAR_1.c ****     }
 491:Generated_Source\PSoC5/ADC_SAR_1.c **** 
 492:Generated_Source\PSoC5/ADC_SAR_1.c ****     return(status);
 493:Generated_Source\PSoC5/ADC_SAR_1.c **** }
 494:Generated_Source\PSoC5/ADC_SAR_1.c **** 
 495:Generated_Source\PSoC5/ADC_SAR_1.c **** 
 496:Generated_Source\PSoC5/ADC_SAR_1.c **** /*******************************************************************************
 497:Generated_Source\PSoC5/ADC_SAR_1.c **** * Function Name: ADC_SAR_1_GetResult8
 498:Generated_Source\PSoC5/ADC_SAR_1.c **** ********************************************************************************
 499:Generated_Source\PSoC5/ADC_SAR_1.c **** *
 500:Generated_Source\PSoC5/ADC_SAR_1.c **** * Summary:
 501:Generated_Source\PSoC5/ADC_SAR_1.c **** *  Returns the result of an 8-bit conversion. If the resolution is set greater
 502:Generated_Source\PSoC5/ADC_SAR_1.c **** *  than 8 bits, the function returns the LSB of the result.
 503:Generated_Source\PSoC5/ADC_SAR_1.c **** *  ADC_SAR_1_IsEndConversion() should be called to verify that the data
 504:Generated_Source\PSoC5/ADC_SAR_1.c **** *   sample is ready.
 505:Generated_Source\PSoC5/ADC_SAR_1.c **** *
 506:Generated_Source\PSoC5/ADC_SAR_1.c **** * Parameters:
ARM GAS  C:\Users\Luggi\AppData\Local\Temp\cccwB3aA.s 			page 15


 507:Generated_Source\PSoC5/ADC_SAR_1.c **** *  None.
 508:Generated_Source\PSoC5/ADC_SAR_1.c **** *
 509:Generated_Source\PSoC5/ADC_SAR_1.c **** * Return:
 510:Generated_Source\PSoC5/ADC_SAR_1.c **** *  The LSB of the last ADC conversion.
 511:Generated_Source\PSoC5/ADC_SAR_1.c **** *
 512:Generated_Source\PSoC5/ADC_SAR_1.c **** * Global Variables:
 513:Generated_Source\PSoC5/ADC_SAR_1.c **** *  ADC_SAR_1_shift - used to convert the ADC counts to the 2s
 514:Generated_Source\PSoC5/ADC_SAR_1.c **** *  compliment form.
 515:Generated_Source\PSoC5/ADC_SAR_1.c **** *
 516:Generated_Source\PSoC5/ADC_SAR_1.c **** * Side Effects:
 517:Generated_Source\PSoC5/ADC_SAR_1.c **** *  Converts the ADC counts to the 2s complement form.
 518:Generated_Source\PSoC5/ADC_SAR_1.c **** *
 519:Generated_Source\PSoC5/ADC_SAR_1.c **** *******************************************************************************/
 520:Generated_Source\PSoC5/ADC_SAR_1.c **** int8 ADC_SAR_1_GetResult8( void )
 521:Generated_Source\PSoC5/ADC_SAR_1.c **** {
 522:Generated_Source\PSoC5/ADC_SAR_1.c ****     return( (int8)ADC_SAR_1_SAR_WRK0_REG - (int8)ADC_SAR_1_shift);
 523:Generated_Source\PSoC5/ADC_SAR_1.c **** }
 524:Generated_Source\PSoC5/ADC_SAR_1.c **** 
 525:Generated_Source\PSoC5/ADC_SAR_1.c **** 
 526:Generated_Source\PSoC5/ADC_SAR_1.c **** /*******************************************************************************
 527:Generated_Source\PSoC5/ADC_SAR_1.c **** * Function Name: ADC_SAR_1_GetResult16
 528:Generated_Source\PSoC5/ADC_SAR_1.c **** ********************************************************************************
 529:Generated_Source\PSoC5/ADC_SAR_1.c **** *
 530:Generated_Source\PSoC5/ADC_SAR_1.c **** * Summary:
 531:Generated_Source\PSoC5/ADC_SAR_1.c **** *  Returns a 16-bit result for a conversion with a result that has a resolution
 532:Generated_Source\PSoC5/ADC_SAR_1.c **** *  of 8 to 12 bits.
 533:Generated_Source\PSoC5/ADC_SAR_1.c **** *  ADC_SAR_1_IsEndConversion() should be called to verify that the data
 534:Generated_Source\PSoC5/ADC_SAR_1.c **** *   sample is ready
 535:Generated_Source\PSoC5/ADC_SAR_1.c **** *
 536:Generated_Source\PSoC5/ADC_SAR_1.c **** * Parameters:
 537:Generated_Source\PSoC5/ADC_SAR_1.c **** *  None.
 538:Generated_Source\PSoC5/ADC_SAR_1.c **** *
 539:Generated_Source\PSoC5/ADC_SAR_1.c **** * Return:
 540:Generated_Source\PSoC5/ADC_SAR_1.c **** *  The 16-bit result of the last ADC conversion
 541:Generated_Source\PSoC5/ADC_SAR_1.c **** *
 542:Generated_Source\PSoC5/ADC_SAR_1.c **** * Global Variables:
 543:Generated_Source\PSoC5/ADC_SAR_1.c **** *  ADC_SAR_1_shift - used to convert the ADC counts to the 2s
 544:Generated_Source\PSoC5/ADC_SAR_1.c **** *  compliment form.
 545:Generated_Source\PSoC5/ADC_SAR_1.c **** *
 546:Generated_Source\PSoC5/ADC_SAR_1.c **** * Side Effects:
 547:Generated_Source\PSoC5/ADC_SAR_1.c **** *  Converts the ADC counts to the 2s complement form.
 548:Generated_Source\PSoC5/ADC_SAR_1.c **** *
 549:Generated_Source\PSoC5/ADC_SAR_1.c **** *******************************************************************************/
 550:Generated_Source\PSoC5/ADC_SAR_1.c **** int16 ADC_SAR_1_GetResult16( void )
 551:Generated_Source\PSoC5/ADC_SAR_1.c **** {
 552:Generated_Source\PSoC5/ADC_SAR_1.c ****     uint16 res;
 553:Generated_Source\PSoC5/ADC_SAR_1.c **** 
 554:Generated_Source\PSoC5/ADC_SAR_1.c ****     res = CY_GET_REG16(ADC_SAR_1_SAR_WRK_PTR);
 555:Generated_Source\PSoC5/ADC_SAR_1.c **** 
 556:Generated_Source\PSoC5/ADC_SAR_1.c ****     return( (int16)res - ADC_SAR_1_shift );
 557:Generated_Source\PSoC5/ADC_SAR_1.c **** }
 558:Generated_Source\PSoC5/ADC_SAR_1.c **** 
 559:Generated_Source\PSoC5/ADC_SAR_1.c **** 
 560:Generated_Source\PSoC5/ADC_SAR_1.c **** /*******************************************************************************
 561:Generated_Source\PSoC5/ADC_SAR_1.c **** * Function Name: ADC_SAR_1_SetOffset
 562:Generated_Source\PSoC5/ADC_SAR_1.c **** ********************************************************************************
 563:Generated_Source\PSoC5/ADC_SAR_1.c **** *
ARM GAS  C:\Users\Luggi\AppData\Local\Temp\cccwB3aA.s 			page 16


 564:Generated_Source\PSoC5/ADC_SAR_1.c **** * Summary:
 565:Generated_Source\PSoC5/ADC_SAR_1.c **** *  Sets the ADC offset, which is used by ADC_SAR_1_CountsTo_Volts(),
 566:Generated_Source\PSoC5/ADC_SAR_1.c **** *  ADC_SAR_1_CountsTo_mVolts(), and ADC_SAR_1_CountsTo_uVolts()
 567:Generated_Source\PSoC5/ADC_SAR_1.c **** *  to subtract the offset from the given reading before calculating the voltage
 568:Generated_Source\PSoC5/ADC_SAR_1.c **** *  conversion.
 569:Generated_Source\PSoC5/ADC_SAR_1.c **** *
 570:Generated_Source\PSoC5/ADC_SAR_1.c **** * Parameters:
 571:Generated_Source\PSoC5/ADC_SAR_1.c **** *  int16: This value is measured when the inputs are shorted or connected to
 572:Generated_Source\PSoC5/ADC_SAR_1.c ****    the same input voltage.
 573:Generated_Source\PSoC5/ADC_SAR_1.c **** *
 574:Generated_Source\PSoC5/ADC_SAR_1.c **** * Return:
 575:Generated_Source\PSoC5/ADC_SAR_1.c **** *  None.
 576:Generated_Source\PSoC5/ADC_SAR_1.c **** *
 577:Generated_Source\PSoC5/ADC_SAR_1.c **** * Global Variables:
 578:Generated_Source\PSoC5/ADC_SAR_1.c **** *  The ADC_SAR_1_offset variable modified. This variable is used for
 579:Generated_Source\PSoC5/ADC_SAR_1.c **** *  offset calibration purpose.
 580:Generated_Source\PSoC5/ADC_SAR_1.c **** *  Affects the ADC_SAR_1_CountsTo_Volts,
 581:Generated_Source\PSoC5/ADC_SAR_1.c **** *  ADC_SAR_1_CountsTo_mVolts, ADC_SAR_1_CountsTo_uVolts functions
 582:Generated_Source\PSoC5/ADC_SAR_1.c **** *  by subtracting the given offset.
 583:Generated_Source\PSoC5/ADC_SAR_1.c **** *
 584:Generated_Source\PSoC5/ADC_SAR_1.c **** *******************************************************************************/
 585:Generated_Source\PSoC5/ADC_SAR_1.c **** void ADC_SAR_1_SetOffset(int16 offset)
 586:Generated_Source\PSoC5/ADC_SAR_1.c **** {
 587:Generated_Source\PSoC5/ADC_SAR_1.c ****     ADC_SAR_1_offset = offset;
 588:Generated_Source\PSoC5/ADC_SAR_1.c **** }
 589:Generated_Source\PSoC5/ADC_SAR_1.c **** 
 590:Generated_Source\PSoC5/ADC_SAR_1.c **** 
 591:Generated_Source\PSoC5/ADC_SAR_1.c **** /*******************************************************************************
 592:Generated_Source\PSoC5/ADC_SAR_1.c **** * Function Name: ADC_SAR_1_CalcGain
 593:Generated_Source\PSoC5/ADC_SAR_1.c **** ********************************************************************************
 594:Generated_Source\PSoC5/ADC_SAR_1.c **** *
 595:Generated_Source\PSoC5/ADC_SAR_1.c **** * Summary:
 596:Generated_Source\PSoC5/ADC_SAR_1.c **** *  This function calculates the ADC gain in counts per 10 volt.
 597:Generated_Source\PSoC5/ADC_SAR_1.c **** *
 598:Generated_Source\PSoC5/ADC_SAR_1.c **** * Parameters:
 599:Generated_Source\PSoC5/ADC_SAR_1.c **** *  uint8: resolution
 600:Generated_Source\PSoC5/ADC_SAR_1.c **** *
 601:Generated_Source\PSoC5/ADC_SAR_1.c **** * Return:
 602:Generated_Source\PSoC5/ADC_SAR_1.c **** *  None.
 603:Generated_Source\PSoC5/ADC_SAR_1.c **** *
 604:Generated_Source\PSoC5/ADC_SAR_1.c **** * Global Variables:
 605:Generated_Source\PSoC5/ADC_SAR_1.c **** *  ADC_SAR_1_shift variable initialized. This variable is used to
 606:Generated_Source\PSoC5/ADC_SAR_1.c **** *  convert the ADC counts to the 2s compliment form.
 607:Generated_Source\PSoC5/ADC_SAR_1.c **** *  ADC_SAR_1_countsPer10Volt variable initialized. This variable is used
 608:Generated_Source\PSoC5/ADC_SAR_1.c **** *  for gain calibration purpose.
 609:Generated_Source\PSoC5/ADC_SAR_1.c **** *
 610:Generated_Source\PSoC5/ADC_SAR_1.c **** *******************************************************************************/
 611:Generated_Source\PSoC5/ADC_SAR_1.c **** static void ADC_SAR_1_CalcGain( uint8 resolution )
 612:Generated_Source\PSoC5/ADC_SAR_1.c **** {
 613:Generated_Source\PSoC5/ADC_SAR_1.c ****     int32 counts;
 614:Generated_Source\PSoC5/ADC_SAR_1.c ****     #if(!((ADC_SAR_1_DEFAULT_RANGE == ADC_SAR_1__VSS_TO_VREF) || \
 615:Generated_Source\PSoC5/ADC_SAR_1.c ****          (ADC_SAR_1_DEFAULT_RANGE == ADC_SAR_1__VSSA_TO_VDDA) || \
 616:Generated_Source\PSoC5/ADC_SAR_1.c ****          (ADC_SAR_1_DEFAULT_RANGE == ADC_SAR_1__VSSA_TO_VDAC)) )
 617:Generated_Source\PSoC5/ADC_SAR_1.c ****         uint16 diff_zero;
 618:Generated_Source\PSoC5/ADC_SAR_1.c ****     #endif /* End ADC_SAR_1_DEFAULT_RANGE */
 619:Generated_Source\PSoC5/ADC_SAR_1.c **** 
 620:Generated_Source\PSoC5/ADC_SAR_1.c ****     switch (resolution)
ARM GAS  C:\Users\Luggi\AppData\Local\Temp\cccwB3aA.s 			page 17


 621:Generated_Source\PSoC5/ADC_SAR_1.c ****     {
 622:Generated_Source\PSoC5/ADC_SAR_1.c ****         case (uint8)ADC_SAR_1__BITS_12:
 623:Generated_Source\PSoC5/ADC_SAR_1.c ****             counts = (int32)ADC_SAR_1_SAR_WRK_MAX_12BIT;
 624:Generated_Source\PSoC5/ADC_SAR_1.c ****             #if(!((ADC_SAR_1_DEFAULT_RANGE == ADC_SAR_1__VSS_TO_VREF) || \
 625:Generated_Source\PSoC5/ADC_SAR_1.c ****                  (ADC_SAR_1_DEFAULT_RANGE == ADC_SAR_1__VSSA_TO_VDDA) || \
 626:Generated_Source\PSoC5/ADC_SAR_1.c ****                  (ADC_SAR_1_DEFAULT_RANGE == ADC_SAR_1__VSSA_TO_VDAC)) )
 627:Generated_Source\PSoC5/ADC_SAR_1.c ****                 diff_zero = ADC_SAR_1_SAR_DIFF_SHIFT;
 628:Generated_Source\PSoC5/ADC_SAR_1.c ****             #endif /* End ADC_SAR_1_DEFAULT_RANGE */
 629:Generated_Source\PSoC5/ADC_SAR_1.c ****             break;
 630:Generated_Source\PSoC5/ADC_SAR_1.c ****         case (uint8)ADC_SAR_1__BITS_10:
 631:Generated_Source\PSoC5/ADC_SAR_1.c ****             counts = (int32)ADC_SAR_1_SAR_WRK_MAX_10BIT;
 632:Generated_Source\PSoC5/ADC_SAR_1.c ****             #if(!((ADC_SAR_1_DEFAULT_RANGE == ADC_SAR_1__VSS_TO_VREF) || \
 633:Generated_Source\PSoC5/ADC_SAR_1.c ****                  (ADC_SAR_1_DEFAULT_RANGE == ADC_SAR_1__VSSA_TO_VDDA) || \
 634:Generated_Source\PSoC5/ADC_SAR_1.c ****                  (ADC_SAR_1_DEFAULT_RANGE == ADC_SAR_1__VSSA_TO_VDAC)) )
 635:Generated_Source\PSoC5/ADC_SAR_1.c ****                 diff_zero = ADC_SAR_1_SAR_DIFF_SHIFT >> 2u;
 636:Generated_Source\PSoC5/ADC_SAR_1.c ****             #endif /* End ADC_SAR_1_DEFAULT_RANGE */
 637:Generated_Source\PSoC5/ADC_SAR_1.c ****             break;
 638:Generated_Source\PSoC5/ADC_SAR_1.c ****         case (uint8)ADC_SAR_1__BITS_8:
 639:Generated_Source\PSoC5/ADC_SAR_1.c ****             counts = (int32)ADC_SAR_1_SAR_WRK_MAX_8BIT;
 640:Generated_Source\PSoC5/ADC_SAR_1.c ****             #if(!((ADC_SAR_1_DEFAULT_RANGE == ADC_SAR_1__VSS_TO_VREF) || \
 641:Generated_Source\PSoC5/ADC_SAR_1.c ****                  (ADC_SAR_1_DEFAULT_RANGE == ADC_SAR_1__VSSA_TO_VDDA) || \
 642:Generated_Source\PSoC5/ADC_SAR_1.c ****                  (ADC_SAR_1_DEFAULT_RANGE == ADC_SAR_1__VSSA_TO_VDAC)) )
 643:Generated_Source\PSoC5/ADC_SAR_1.c ****                 diff_zero = ADC_SAR_1_SAR_DIFF_SHIFT >> 4u;
 644:Generated_Source\PSoC5/ADC_SAR_1.c ****             #endif /* End ADC_SAR_1_DEFAULT_RANGE */
 645:Generated_Source\PSoC5/ADC_SAR_1.c ****             break;
 646:Generated_Source\PSoC5/ADC_SAR_1.c ****         default: /* Halt CPU in debug mode if resolution is out of valid range */
 647:Generated_Source\PSoC5/ADC_SAR_1.c ****             counts = 0;
 648:Generated_Source\PSoC5/ADC_SAR_1.c ****             #if(!((ADC_SAR_1_DEFAULT_RANGE == ADC_SAR_1__VSS_TO_VREF) || \
 649:Generated_Source\PSoC5/ADC_SAR_1.c ****                  (ADC_SAR_1_DEFAULT_RANGE == ADC_SAR_1__VSSA_TO_VDDA) || \
 650:Generated_Source\PSoC5/ADC_SAR_1.c ****                  (ADC_SAR_1_DEFAULT_RANGE == ADC_SAR_1__VSSA_TO_VDAC)) )
 651:Generated_Source\PSoC5/ADC_SAR_1.c ****                 diff_zero = 0u;
 652:Generated_Source\PSoC5/ADC_SAR_1.c ****             #endif /* End ADC_SAR_1_DEFAULT_RANGE */
 653:Generated_Source\PSoC5/ADC_SAR_1.c ****             CYASSERT(0u != 0u);
 654:Generated_Source\PSoC5/ADC_SAR_1.c ****             break;
 655:Generated_Source\PSoC5/ADC_SAR_1.c ****     }
 656:Generated_Source\PSoC5/ADC_SAR_1.c ****     ADC_SAR_1_countsPerVolt = 0; /* Clear obsolete variable */
 272              		.loc 1 656 0
 273 0028 0A4B     		ldr	r3, .L18+8
 274              	.LBE5:
 275              	.LBE4:
 362:Generated_Source\PSoC5/ADC_SAR_1.c **** 
 276              		.loc 1 362 0
 277 002a 88BF     		it	hi
 278 002c 1146     		movhi	r1, r2
 279              	.LVL21:
 280              	.LBB7:
 281              	.LBB6:
 282              		.loc 1 656 0
 283 002e 1A80     		strh	r2, [r3]	@ movhi
 657:Generated_Source\PSoC5/ADC_SAR_1.c ****     /* Calculate gain in counts per 10 volts with rounding */
 658:Generated_Source\PSoC5/ADC_SAR_1.c ****     ADC_SAR_1_countsPer10Volt = (((counts * ADC_SAR_1_10MV_COUNTS) +
 284              		.loc 1 658 0
 285 0030 42F21073 		movw	r3, #10000
 286 0034 4B43     		muls	r3, r1, r3
 659:Generated_Source\PSoC5/ADC_SAR_1.c ****                         ADC_SAR_1_DEFAULT_REF_VOLTAGE_MV) / (ADC_SAR_1_DEFAULT_REF_VOLTAGE_MV * 2))
 287              		.loc 1 659 0
 288 0036 41F28831 		movw	r1, #5000
ARM GAS  C:\Users\Luggi\AppData\Local\Temp\cccwB3aA.s 			page 18


 289              	.LVL22:
 658:Generated_Source\PSoC5/ADC_SAR_1.c ****                         ADC_SAR_1_DEFAULT_REF_VOLTAGE_MV) / (ADC_SAR_1_DEFAULT_REF_VOLTAGE_MV * 2))
 290              		.loc 1 658 0
 291 003a 03F6C413 		addw	r3, r3, #2500
 292              		.loc 1 659 0
 293 003e 93FBF1F3 		sdiv	r3, r3, r1
 658:Generated_Source\PSoC5/ADC_SAR_1.c ****                         ADC_SAR_1_DEFAULT_REF_VOLTAGE_MV) / (ADC_SAR_1_DEFAULT_REF_VOLTAGE_MV * 2))
 294              		.loc 1 658 0
 295 0042 0549     		ldr	r1, .L18+12
 296 0044 0B60     		str	r3, [r1]
 660:Generated_Source\PSoC5/ADC_SAR_1.c **** 
 661:Generated_Source\PSoC5/ADC_SAR_1.c ****     #if( (ADC_SAR_1_DEFAULT_RANGE == ADC_SAR_1__VSS_TO_VREF) || \
 662:Generated_Source\PSoC5/ADC_SAR_1.c ****          (ADC_SAR_1_DEFAULT_RANGE == ADC_SAR_1__VSSA_TO_VDDA) || \
 663:Generated_Source\PSoC5/ADC_SAR_1.c ****          (ADC_SAR_1_DEFAULT_RANGE == ADC_SAR_1__VSSA_TO_VDAC) )
 664:Generated_Source\PSoC5/ADC_SAR_1.c ****         ADC_SAR_1_shift = 0;
 297              		.loc 1 664 0
 298 0046 054B     		ldr	r3, .L18+16
 299 0048 1A80     		strh	r2, [r3]	@ movhi
 300 004a 7047     		bx	lr
 301              	.L19:
 302              		.align	2
 303              	.L18:
 304 004c 0A590040 		.word	1073764618
 305 0050 00000000 		.word	.LANCHOR0
 306 0054 00000000 		.word	ADC_SAR_1_countsPerVolt
 307 0058 00000000 		.word	ADC_SAR_1_countsPer10Volt
 308 005c 00000000 		.word	ADC_SAR_1_shift
 309              	.LBE6:
 310              	.LBE7:
 311              		.cfi_endproc
 312              	.LFE5:
 313              		.size	ADC_SAR_1_SetResolution, .-ADC_SAR_1_SetResolution
 314              		.section	.text.ADC_SAR_1_Init,"ax",%progbits
 315              		.align	1
 316              		.global	ADC_SAR_1_Init
 317              		.thumb
 318              		.thumb_func
 319              		.type	ADC_SAR_1_Init, %function
 320              	ADC_SAR_1_Init:
 321              	.LFB1:
 107:Generated_Source\PSoC5/ADC_SAR_1.c **** 
 322              		.loc 1 107 0
 323              		.cfi_startproc
 324              		@ args = 0, pretend = 0, frame = 0
 325              		@ frame_needed = 0, uses_anonymous_args = 0
 326 0000 08B5     		push	{r3, lr}
 327              		.cfi_def_cfa_offset 8
 328              		.cfi_offset 3, -8
 329              		.cfi_offset 14, -4
 111:Generated_Source\PSoC5/ADC_SAR_1.c ****     #endif /* End ADC_SAR_1_DEFAULT_INTERNAL_CLK */
 330              		.loc 1 111 0
 331 0002 1020     		movs	r0, #16
 332 0004 FFF7FEFF 		bl	ADC_SAR_1_theACLK_SetModeRegister
 333              	.LVL23:
 116:Generated_Source\PSoC5/ADC_SAR_1.c ****         (void)CyIntSetVector(ADC_SAR_1_INTC_NUMBER, &ADC_SAR_1_ISR);
 334              		.loc 1 116 0
 335 0008 0120     		movs	r0, #1
ARM GAS  C:\Users\Luggi\AppData\Local\Temp\cccwB3aA.s 			page 19


 336 000a 0721     		movs	r1, #7
 337 000c FFF7FEFF 		bl	CyIntSetPriority
 338              	.LVL24:
 117:Generated_Source\PSoC5/ADC_SAR_1.c ****     #endif   /* End ADC_SAR_1_IRQ_REMOVE */
 339              		.loc 1 117 0
 340 0010 0749     		ldr	r1, .L21
 341 0012 0120     		movs	r0, #1
 342 0014 FFF7FEFF 		bl	CyIntSetVector
 343              	.LVL25:
 121:Generated_Source\PSoC5/ADC_SAR_1.c **** 
 344              		.loc 1 121 0
 345 0018 064A     		ldr	r2, .L21+4
 124:Generated_Source\PSoC5/ADC_SAR_1.c ****     ADC_SAR_1_offset = 0;
 346              		.loc 1 124 0
 347 001a 0820     		movs	r0, #8
 121:Generated_Source\PSoC5/ADC_SAR_1.c **** 
 348              		.loc 1 121 0
 349 001c 1378     		ldrb	r3, [r2]	@ zero_extendqisi2
 350 001e 43F00603 		orr	r3, r3, #6
 351 0022 1370     		strb	r3, [r2]
 124:Generated_Source\PSoC5/ADC_SAR_1.c ****     ADC_SAR_1_offset = 0;
 352              		.loc 1 124 0
 353 0024 FFF7FEFF 		bl	ADC_SAR_1_SetResolution
 354              	.LVL26:
 125:Generated_Source\PSoC5/ADC_SAR_1.c **** }
 355              		.loc 1 125 0
 356 0028 034B     		ldr	r3, .L21+8
 357 002a 0022     		movs	r2, #0
 358 002c 1A80     		strh	r2, [r3]	@ movhi
 359 002e 08BD     		pop	{r3, pc}
 360              	.L22:
 361              		.align	2
 362              	.L21:
 363 0030 00000000 		.word	ADC_SAR_1_ISR
 364 0034 09590040 		.word	1073764617
 365 0038 00000000 		.word	ADC_SAR_1_offset
 366              		.cfi_endproc
 367              	.LFE1:
 368              		.size	ADC_SAR_1_Init, .-ADC_SAR_1_Init
 369              		.section	.text.ADC_SAR_1_Start,"ax",%progbits
 370              		.align	1
 371              		.global	ADC_SAR_1_Start
 372              		.thumb
 373              		.thumb_func
 374              		.type	ADC_SAR_1_Start, %function
 375              	ADC_SAR_1_Start:
 376              	.LFB0:
  75:Generated_Source\PSoC5/ADC_SAR_1.c **** 
 377              		.loc 1 75 0
 378              		.cfi_startproc
 379              		@ args = 0, pretend = 0, frame = 0
 380              		@ frame_needed = 0, uses_anonymous_args = 0
 381 0000 10B5     		push	{r4, lr}
 382              		.cfi_def_cfa_offset 8
 383              		.cfi_offset 4, -8
 384              		.cfi_offset 14, -4
  78:Generated_Source\PSoC5/ADC_SAR_1.c ****     {
ARM GAS  C:\Users\Luggi\AppData\Local\Temp\cccwB3aA.s 			page 20


 385              		.loc 1 78 0
 386 0002 054C     		ldr	r4, .L25
 387 0004 2378     		ldrb	r3, [r4]	@ zero_extendqisi2
 388 0006 1BB9     		cbnz	r3, .L24
  80:Generated_Source\PSoC5/ADC_SAR_1.c ****         ADC_SAR_1_initVar = 1u;
 389              		.loc 1 80 0
 390 0008 FFF7FEFF 		bl	ADC_SAR_1_Init
 391              	.LVL27:
  81:Generated_Source\PSoC5/ADC_SAR_1.c ****     }
 392              		.loc 1 81 0
 393 000c 0123     		movs	r3, #1
 394 000e 2370     		strb	r3, [r4]
 395              	.L24:
  84:Generated_Source\PSoC5/ADC_SAR_1.c **** 
 396              		.loc 1 84 0
 397 0010 BDE81040 		pop	{r4, lr}
 398              		.cfi_restore 14
 399              		.cfi_restore 4
 400              		.cfi_def_cfa_offset 0
  83:Generated_Source\PSoC5/ADC_SAR_1.c **** }
 401              		.loc 1 83 0
 402 0014 FFF7FEBF 		b	ADC_SAR_1_Enable
 403              	.LVL28:
 404              	.L26:
 405              		.align	2
 406              	.L25:
 407 0018 00000000 		.word	.LANCHOR1
 408              		.cfi_endproc
 409              	.LFE0:
 410              		.size	ADC_SAR_1_Start, .-ADC_SAR_1_Start
 411              		.section	.text.ADC_SAR_1_StartConvert,"ax",%progbits
 412              		.align	1
 413              		.global	ADC_SAR_1_StartConvert
 414              		.thumb
 415              		.thumb_func
 416              		.type	ADC_SAR_1_StartConvert, %function
 417              	ADC_SAR_1_StartConvert:
 418              	.LFB6:
 402:Generated_Source\PSoC5/ADC_SAR_1.c ****         #if(ADC_SAR_1_DEFAULT_CONV_MODE != ADC_SAR_1__FREE_RUNNING)  /* If software triggered mode 
 419              		.loc 1 402 0
 420              		.cfi_startproc
 421              		@ args = 0, pretend = 0, frame = 0
 422              		@ frame_needed = 0, uses_anonymous_args = 0
 423              		@ link register save eliminated.
 408:Generated_Source\PSoC5/ADC_SAR_1.c ****     }
 424              		.loc 1 408 0
 425 0000 024A     		ldr	r2, .L28
 426 0002 1378     		ldrb	r3, [r2]	@ zero_extendqisi2
 427 0004 43F00103 		orr	r3, r3, #1
 428 0008 1370     		strb	r3, [r2]
 429 000a 7047     		bx	lr
 430              	.L29:
 431              		.align	2
 432              	.L28:
 433 000c 08590040 		.word	1073764616
 434              		.cfi_endproc
 435              	.LFE6:
ARM GAS  C:\Users\Luggi\AppData\Local\Temp\cccwB3aA.s 			page 21


 436              		.size	ADC_SAR_1_StartConvert, .-ADC_SAR_1_StartConvert
 437              		.section	.text.ADC_SAR_1_StopConvert,"ax",%progbits
 438              		.align	1
 439              		.global	ADC_SAR_1_StopConvert
 440              		.thumb
 441              		.thumb_func
 442              		.type	ADC_SAR_1_StopConvert, %function
 443              	ADC_SAR_1_StopConvert:
 444              	.LFB7:
 436:Generated_Source\PSoC5/ADC_SAR_1.c ****         /* Stop all conversions */
 445              		.loc 1 436 0
 446              		.cfi_startproc
 447              		@ args = 0, pretend = 0, frame = 0
 448              		@ frame_needed = 0, uses_anonymous_args = 0
 449              		@ link register save eliminated.
 438:Generated_Source\PSoC5/ADC_SAR_1.c **** 
 450              		.loc 1 438 0
 451 0000 024A     		ldr	r2, .L31
 452 0002 1378     		ldrb	r3, [r2]	@ zero_extendqisi2
 453 0004 03F0FE03 		and	r3, r3, #254
 454 0008 1370     		strb	r3, [r2]
 455 000a 7047     		bx	lr
 456              	.L32:
 457              		.align	2
 458              	.L31:
 459 000c 08590040 		.word	1073764616
 460              		.cfi_endproc
 461              	.LFE7:
 462              		.size	ADC_SAR_1_StopConvert, .-ADC_SAR_1_StopConvert
 463              		.section	.text.ADC_SAR_1_IsEndConversion,"ax",%progbits
 464              		.align	1
 465              		.global	ADC_SAR_1_IsEndConversion
 466              		.thumb
 467              		.thumb_func
 468              		.type	ADC_SAR_1_IsEndConversion, %function
 469              	ADC_SAR_1_IsEndConversion:
 470              	.LFB8:
 476:Generated_Source\PSoC5/ADC_SAR_1.c ****     uint8 status;
 471              		.loc 1 476 0
 472              		.cfi_startproc
 473              		@ args = 0, pretend = 0, frame = 0
 474              		@ frame_needed = 0, uses_anonymous_args = 0
 475              	.LVL29:
 476 0000 38B5     		push	{r3, r4, r5, lr}
 477              		.cfi_def_cfa_offset 16
 478              		.cfi_offset 3, -16
 479              		.cfi_offset 4, -12
 480              		.cfi_offset 5, -8
 481              		.cfi_offset 14, -4
 482              	.L35:
 481:Generated_Source\PSoC5/ADC_SAR_1.c ****     } while ((status != ADC_SAR_1_SAR_EOF_1) && (retMode == ADC_SAR_1_WAIT_FOR_RESULT));
 483              		.loc 1 481 0 discriminator 2
 484 0002 074D     		ldr	r5, .L40
 485 0004 2C78     		ldrb	r4, [r5]	@ zero_extendqisi2
 486              	.LVL30:
 482:Generated_Source\PSoC5/ADC_SAR_1.c ****     /* If convertion complete, wait until EOF bit released */
 487              		.loc 1 482 0 discriminator 2
ARM GAS  C:\Users\Luggi\AppData\Local\Temp\cccwB3aA.s 			page 22


 488 0006 14F00104 		ands	r4, r4, #1
 489              	.LVL31:
 490 000a 03D1     		bne	.L34
 482:Generated_Source\PSoC5/ADC_SAR_1.c ****     /* If convertion complete, wait until EOF bit released */
 491              		.loc 1 482 0 is_stmt 0 discriminator 1
 492 000c 0028     		cmp	r0, #0
 493 000e F8D0     		beq	.L35
 494 0010 0024     		movs	r4, #0
 495 0012 03E0     		b	.L39
 496              	.L34:
 487:Generated_Source\PSoC5/ADC_SAR_1.c ****         /* Do the unconditional read operation of the CSR1 register to make sure the EOC bit has be
 497              		.loc 1 487 0 is_stmt 1
 498 0014 2046     		mov	r0, r4
 499              	.LVL32:
 500 0016 FFF7FEFF 		bl	CyDelayUs
 501              	.LVL33:
 489:Generated_Source\PSoC5/ADC_SAR_1.c ****     }
 502              		.loc 1 489 0
 503 001a 2B78     		ldrb	r3, [r5]	@ zero_extendqisi2
 504              	.L39:
 493:Generated_Source\PSoC5/ADC_SAR_1.c **** 
 505              		.loc 1 493 0
 506 001c 2046     		mov	r0, r4
 507 001e 38BD     		pop	{r3, r4, r5, pc}
 508              	.L41:
 509              		.align	2
 510              	.L40:
 511 0020 09590040 		.word	1073764617
 512              		.cfi_endproc
 513              	.LFE8:
 514              		.size	ADC_SAR_1_IsEndConversion, .-ADC_SAR_1_IsEndConversion
 515              		.section	.text.ADC_SAR_1_GetResult8,"ax",%progbits
 516              		.align	1
 517              		.global	ADC_SAR_1_GetResult8
 518              		.thumb
 519              		.thumb_func
 520              		.type	ADC_SAR_1_GetResult8, %function
 521              	ADC_SAR_1_GetResult8:
 522              	.LFB9:
 521:Generated_Source\PSoC5/ADC_SAR_1.c ****     return( (int8)ADC_SAR_1_SAR_WRK0_REG - (int8)ADC_SAR_1_shift);
 523              		.loc 1 521 0
 524              		.cfi_startproc
 525              		@ args = 0, pretend = 0, frame = 0
 526              		@ frame_needed = 0, uses_anonymous_args = 0
 527              		@ link register save eliminated.
 522:Generated_Source\PSoC5/ADC_SAR_1.c **** }
 528              		.loc 1 522 0
 529 0000 034A     		ldr	r2, .L43
 530 0002 044B     		ldr	r3, .L43+4
 531 0004 1B78     		ldrb	r3, [r3]	@ zero_extendqisi2
 532 0006 1088     		ldrh	r0, [r2]
 533 0008 181A     		subs	r0, r3, r0
 523:Generated_Source\PSoC5/ADC_SAR_1.c **** 
 534              		.loc 1 523 0
 535 000a 40B2     		sxtb	r0, r0
 536 000c 7047     		bx	lr
 537              	.L44:
ARM GAS  C:\Users\Luggi\AppData\Local\Temp\cccwB3aA.s 			page 23


 538 000e 00BF     		.align	2
 539              	.L43:
 540 0010 00000000 		.word	ADC_SAR_1_shift
 541 0014 A25B0040 		.word	1073765282
 542              		.cfi_endproc
 543              	.LFE9:
 544              		.size	ADC_SAR_1_GetResult8, .-ADC_SAR_1_GetResult8
 545              		.section	.text.ADC_SAR_1_GetResult16,"ax",%progbits
 546              		.align	1
 547              		.global	ADC_SAR_1_GetResult16
 548              		.thumb
 549              		.thumb_func
 550              		.type	ADC_SAR_1_GetResult16, %function
 551              	ADC_SAR_1_GetResult16:
 552              	.LFB10:
 551:Generated_Source\PSoC5/ADC_SAR_1.c ****     uint16 res;
 553              		.loc 1 551 0
 554              		.cfi_startproc
 555              		@ args = 0, pretend = 0, frame = 0
 556              		@ frame_needed = 0, uses_anonymous_args = 0
 557              		@ link register save eliminated.
 556:Generated_Source\PSoC5/ADC_SAR_1.c **** }
 558              		.loc 1 556 0
 559 0000 034A     		ldr	r2, .L46
 554:Generated_Source\PSoC5/ADC_SAR_1.c **** 
 560              		.loc 1 554 0
 561 0002 044B     		ldr	r3, .L46+4
 562 0004 1B88     		ldrh	r3, [r3]
 563              	.LVL34:
 556:Generated_Source\PSoC5/ADC_SAR_1.c **** }
 564              		.loc 1 556 0
 565 0006 1088     		ldrh	r0, [r2]
 566 0008 181A     		subs	r0, r3, r0
 557:Generated_Source\PSoC5/ADC_SAR_1.c **** 
 567              		.loc 1 557 0
 568 000a 00B2     		sxth	r0, r0
 569 000c 7047     		bx	lr
 570              	.L47:
 571 000e 00BF     		.align	2
 572              	.L46:
 573 0010 00000000 		.word	ADC_SAR_1_shift
 574 0014 A25B0040 		.word	1073765282
 575              		.cfi_endproc
 576              	.LFE10:
 577              		.size	ADC_SAR_1_GetResult16, .-ADC_SAR_1_GetResult16
 578              		.section	.text.ADC_SAR_1_SetOffset,"ax",%progbits
 579              		.align	1
 580              		.global	ADC_SAR_1_SetOffset
 581              		.thumb
 582              		.thumb_func
 583              		.type	ADC_SAR_1_SetOffset, %function
 584              	ADC_SAR_1_SetOffset:
 585              	.LFB11:
 586:Generated_Source\PSoC5/ADC_SAR_1.c ****     ADC_SAR_1_offset = offset;
 586              		.loc 1 586 0
 587              		.cfi_startproc
 588              		@ args = 0, pretend = 0, frame = 0
ARM GAS  C:\Users\Luggi\AppData\Local\Temp\cccwB3aA.s 			page 24


 589              		@ frame_needed = 0, uses_anonymous_args = 0
 590              		@ link register save eliminated.
 591              	.LVL35:
 587:Generated_Source\PSoC5/ADC_SAR_1.c **** }
 592              		.loc 1 587 0
 593 0000 014B     		ldr	r3, .L49
 594 0002 1880     		strh	r0, [r3]	@ movhi
 595 0004 7047     		bx	lr
 596              	.L50:
 597 0006 00BF     		.align	2
 598              	.L49:
 599 0008 00000000 		.word	ADC_SAR_1_offset
 600              		.cfi_endproc
 601              	.LFE11:
 602              		.size	ADC_SAR_1_SetOffset, .-ADC_SAR_1_SetOffset
 603              		.section	.text.ADC_SAR_1_SetGain,"ax",%progbits
 604              		.align	1
 605              		.global	ADC_SAR_1_SetGain
 606              		.thumb
 607              		.thumb_func
 608              		.type	ADC_SAR_1_SetGain, %function
 609              	ADC_SAR_1_SetGain:
 610              	.LFB13:
 665:Generated_Source\PSoC5/ADC_SAR_1.c ****     #else
 666:Generated_Source\PSoC5/ADC_SAR_1.c ****         ADC_SAR_1_shift = diff_zero;
 667:Generated_Source\PSoC5/ADC_SAR_1.c ****     #endif /* End ADC_SAR_1_DEFAULT_RANGE */
 668:Generated_Source\PSoC5/ADC_SAR_1.c **** }
 669:Generated_Source\PSoC5/ADC_SAR_1.c **** 
 670:Generated_Source\PSoC5/ADC_SAR_1.c **** 
 671:Generated_Source\PSoC5/ADC_SAR_1.c **** /*******************************************************************************
 672:Generated_Source\PSoC5/ADC_SAR_1.c **** * Function Name: ADC_SAR_1_SetGain
 673:Generated_Source\PSoC5/ADC_SAR_1.c **** ********************************************************************************
 674:Generated_Source\PSoC5/ADC_SAR_1.c **** *
 675:Generated_Source\PSoC5/ADC_SAR_1.c **** * Summary:
 676:Generated_Source\PSoC5/ADC_SAR_1.c **** *  Sets the ADC gain in counts per volt for the voltage conversion functions
 677:Generated_Source\PSoC5/ADC_SAR_1.c **** *  that follow. This value is set by default by the reference and input range
 678:Generated_Source\PSoC5/ADC_SAR_1.c **** *  settings. It should only be used to further calibrate the ADC with a known
 679:Generated_Source\PSoC5/ADC_SAR_1.c **** *  input or if the ADC is using an external reference.
 680:Generated_Source\PSoC5/ADC_SAR_1.c **** *
 681:Generated_Source\PSoC5/ADC_SAR_1.c **** * Parameters:
 682:Generated_Source\PSoC5/ADC_SAR_1.c **** *  int16 adcGain counts per volt
 683:Generated_Source\PSoC5/ADC_SAR_1.c **** *
 684:Generated_Source\PSoC5/ADC_SAR_1.c **** * Return:
 685:Generated_Source\PSoC5/ADC_SAR_1.c **** *  None.
 686:Generated_Source\PSoC5/ADC_SAR_1.c **** *
 687:Generated_Source\PSoC5/ADC_SAR_1.c **** * Global Variables:
 688:Generated_Source\PSoC5/ADC_SAR_1.c **** *  ADC_SAR_1_countsPer10Volt variable modified. This variable is used
 689:Generated_Source\PSoC5/ADC_SAR_1.c **** *  for gain calibration purpose.
 690:Generated_Source\PSoC5/ADC_SAR_1.c **** *
 691:Generated_Source\PSoC5/ADC_SAR_1.c **** *******************************************************************************/
 692:Generated_Source\PSoC5/ADC_SAR_1.c **** void ADC_SAR_1_SetGain(int16 adcGain)
 693:Generated_Source\PSoC5/ADC_SAR_1.c **** {
 611              		.loc 1 693 0
 612              		.cfi_startproc
 613              		@ args = 0, pretend = 0, frame = 0
 614              		@ frame_needed = 0, uses_anonymous_args = 0
 615              		@ link register save eliminated.
ARM GAS  C:\Users\Luggi\AppData\Local\Temp\cccwB3aA.s 			page 25


 616              	.LVL36:
 694:Generated_Source\PSoC5/ADC_SAR_1.c ****     ADC_SAR_1_countsPer10Volt = (int32)adcGain * 10;
 617              		.loc 1 694 0
 618 0000 0A23     		movs	r3, #10
 619 0002 5843     		muls	r0, r3, r0
 620              	.LVL37:
 621 0004 014B     		ldr	r3, .L52
 622 0006 1860     		str	r0, [r3]
 623 0008 7047     		bx	lr
 624              	.L53:
 625 000a 00BF     		.align	2
 626              	.L52:
 627 000c 00000000 		.word	ADC_SAR_1_countsPer10Volt
 628              		.cfi_endproc
 629              	.LFE13:
 630              		.size	ADC_SAR_1_SetGain, .-ADC_SAR_1_SetGain
 631              		.section	.text.ADC_SAR_1_SetScaledGain,"ax",%progbits
 632              		.align	1
 633              		.global	ADC_SAR_1_SetScaledGain
 634              		.thumb
 635              		.thumb_func
 636              		.type	ADC_SAR_1_SetScaledGain, %function
 637              	ADC_SAR_1_SetScaledGain:
 638              	.LFB14:
 695:Generated_Source\PSoC5/ADC_SAR_1.c **** }
 696:Generated_Source\PSoC5/ADC_SAR_1.c **** 
 697:Generated_Source\PSoC5/ADC_SAR_1.c **** 
 698:Generated_Source\PSoC5/ADC_SAR_1.c **** /*******************************************************************************
 699:Generated_Source\PSoC5/ADC_SAR_1.c **** * Function Name: ADC_SAR_1_SetScaledGain
 700:Generated_Source\PSoC5/ADC_SAR_1.c **** ********************************************************************************
 701:Generated_Source\PSoC5/ADC_SAR_1.c **** *
 702:Generated_Source\PSoC5/ADC_SAR_1.c **** * Summary:
 703:Generated_Source\PSoC5/ADC_SAR_1.c **** *  Sets the ADC gain in counts per 10 volt for the voltage conversion functions
 704:Generated_Source\PSoC5/ADC_SAR_1.c **** *  that follow. This value is set by default by the reference and input range
 705:Generated_Source\PSoC5/ADC_SAR_1.c **** *  settings. It should only be used to further calibrate the ADC with a known
 706:Generated_Source\PSoC5/ADC_SAR_1.c **** *  input or if the ADC is using an external reference.
 707:Generated_Source\PSoC5/ADC_SAR_1.c **** *
 708:Generated_Source\PSoC5/ADC_SAR_1.c **** * Parameters:
 709:Generated_Source\PSoC5/ADC_SAR_1.c **** *  int32 adcGain  counts per 10 volt
 710:Generated_Source\PSoC5/ADC_SAR_1.c **** *
 711:Generated_Source\PSoC5/ADC_SAR_1.c **** * Return:
 712:Generated_Source\PSoC5/ADC_SAR_1.c **** *  None.
 713:Generated_Source\PSoC5/ADC_SAR_1.c **** *
 714:Generated_Source\PSoC5/ADC_SAR_1.c **** * Global Variables:
 715:Generated_Source\PSoC5/ADC_SAR_1.c **** *  ADC_SAR_1_countsPer10Volt variable modified. This variable is used
 716:Generated_Source\PSoC5/ADC_SAR_1.c **** *  for gain calibration purpose.
 717:Generated_Source\PSoC5/ADC_SAR_1.c **** *
 718:Generated_Source\PSoC5/ADC_SAR_1.c **** *******************************************************************************/
 719:Generated_Source\PSoC5/ADC_SAR_1.c **** void ADC_SAR_1_SetScaledGain(int32 adcGain)
 720:Generated_Source\PSoC5/ADC_SAR_1.c **** {
 639              		.loc 1 720 0
 640              		.cfi_startproc
 641              		@ args = 0, pretend = 0, frame = 0
 642              		@ frame_needed = 0, uses_anonymous_args = 0
 643              		@ link register save eliminated.
 644              	.LVL38:
 721:Generated_Source\PSoC5/ADC_SAR_1.c ****     ADC_SAR_1_countsPer10Volt = adcGain;
ARM GAS  C:\Users\Luggi\AppData\Local\Temp\cccwB3aA.s 			page 26


 645              		.loc 1 721 0
 646 0000 014B     		ldr	r3, .L55
 647 0002 1860     		str	r0, [r3]
 648 0004 7047     		bx	lr
 649              	.L56:
 650 0006 00BF     		.align	2
 651              	.L55:
 652 0008 00000000 		.word	ADC_SAR_1_countsPer10Volt
 653              		.cfi_endproc
 654              	.LFE14:
 655              		.size	ADC_SAR_1_SetScaledGain, .-ADC_SAR_1_SetScaledGain
 656              		.section	.text.ADC_SAR_1_CountsTo_mVolts,"ax",%progbits
 657              		.align	1
 658              		.global	ADC_SAR_1_CountsTo_mVolts
 659              		.thumb
 660              		.thumb_func
 661              		.type	ADC_SAR_1_CountsTo_mVolts, %function
 662              	ADC_SAR_1_CountsTo_mVolts:
 663              	.LFB15:
 722:Generated_Source\PSoC5/ADC_SAR_1.c **** }
 723:Generated_Source\PSoC5/ADC_SAR_1.c **** 
 724:Generated_Source\PSoC5/ADC_SAR_1.c **** 
 725:Generated_Source\PSoC5/ADC_SAR_1.c **** /*******************************************************************************
 726:Generated_Source\PSoC5/ADC_SAR_1.c **** * Function Name: ADC_SAR_1_CountsTo_mVolts
 727:Generated_Source\PSoC5/ADC_SAR_1.c **** ********************************************************************************
 728:Generated_Source\PSoC5/ADC_SAR_1.c **** *
 729:Generated_Source\PSoC5/ADC_SAR_1.c **** * Summary:
 730:Generated_Source\PSoC5/ADC_SAR_1.c **** *  Converts the ADC output to millivolts as a 16-bit integer.
 731:Generated_Source\PSoC5/ADC_SAR_1.c **** *
 732:Generated_Source\PSoC5/ADC_SAR_1.c **** * Parameters:
 733:Generated_Source\PSoC5/ADC_SAR_1.c **** *  int16 adcCounts:  Result from the ADC conversion
 734:Generated_Source\PSoC5/ADC_SAR_1.c **** *
 735:Generated_Source\PSoC5/ADC_SAR_1.c **** * Return:
 736:Generated_Source\PSoC5/ADC_SAR_1.c **** *  int16 Result in mVolts
 737:Generated_Source\PSoC5/ADC_SAR_1.c **** *
 738:Generated_Source\PSoC5/ADC_SAR_1.c **** * Global Variables:
 739:Generated_Source\PSoC5/ADC_SAR_1.c **** *  ADC_SAR_1_offset variable used.
 740:Generated_Source\PSoC5/ADC_SAR_1.c **** *  ADC_SAR_1_countsPer10Volt variable used.
 741:Generated_Source\PSoC5/ADC_SAR_1.c **** *
 742:Generated_Source\PSoC5/ADC_SAR_1.c **** *******************************************************************************/
 743:Generated_Source\PSoC5/ADC_SAR_1.c **** int16 ADC_SAR_1_CountsTo_mVolts(int16 adcCounts)
 744:Generated_Source\PSoC5/ADC_SAR_1.c **** {
 664              		.loc 1 744 0
 665              		.cfi_startproc
 666              		@ args = 0, pretend = 0, frame = 0
 667              		@ frame_needed = 0, uses_anonymous_args = 0
 668              		@ link register save eliminated.
 669              	.LVL39:
 745:Generated_Source\PSoC5/ADC_SAR_1.c ****     int16 mVolts;
 746:Generated_Source\PSoC5/ADC_SAR_1.c ****     int32 countsPer10Volt;
 747:Generated_Source\PSoC5/ADC_SAR_1.c **** 
 748:Generated_Source\PSoC5/ADC_SAR_1.c ****     if(ADC_SAR_1_countsPerVolt != 0)
 670              		.loc 1 748 0
 671 0000 0E4A     		ldr	r2, .L62
 672 0002 1388     		ldrh	r3, [r2]
 673 0004 9BB2     		uxth	r3, r3
 674 0006 23B1     		cbz	r3, .L58
ARM GAS  C:\Users\Luggi\AppData\Local\Temp\cccwB3aA.s 			page 27


 749:Generated_Source\PSoC5/ADC_SAR_1.c ****     {   /* Support obsolete method */
 750:Generated_Source\PSoC5/ADC_SAR_1.c ****         countsPer10Volt = (int32)ADC_SAR_1_countsPerVolt * 10;
 675              		.loc 1 750 0
 676 0008 1288     		ldrh	r2, [r2]
 677 000a 0A23     		movs	r3, #10
 678 000c 12B2     		sxth	r2, r2
 679 000e 5A43     		muls	r2, r3, r2
 680              	.LVL40:
 681 0010 01E0     		b	.L59
 682              	.LVL41:
 683              	.L58:
 751:Generated_Source\PSoC5/ADC_SAR_1.c ****     }
 752:Generated_Source\PSoC5/ADC_SAR_1.c ****     else
 753:Generated_Source\PSoC5/ADC_SAR_1.c ****     {
 754:Generated_Source\PSoC5/ADC_SAR_1.c ****         countsPer10Volt = ADC_SAR_1_countsPer10Volt;
 684              		.loc 1 754 0
 685 0012 0B4B     		ldr	r3, .L62+4
 686 0014 1A68     		ldr	r2, [r3]
 687              	.LVL42:
 688              	.L59:
 755:Generated_Source\PSoC5/ADC_SAR_1.c ****     }
 756:Generated_Source\PSoC5/ADC_SAR_1.c **** 
 757:Generated_Source\PSoC5/ADC_SAR_1.c ****     /* Subtract ADC offset */
 758:Generated_Source\PSoC5/ADC_SAR_1.c ****     adcCounts -= ADC_SAR_1_offset;
 689              		.loc 1 758 0
 690 0016 0B4B     		ldr	r3, .L62+8
 691 0018 1988     		ldrh	r1, [r3]
 692 001a 0223     		movs	r3, #2
 693 001c 411A     		subs	r1, r0, r1
 759:Generated_Source\PSoC5/ADC_SAR_1.c ****     /* Convert to millivolts with rounding */
 760:Generated_Source\PSoC5/ADC_SAR_1.c ****     mVolts = (int16)( (( (int32)adcCounts * ADC_SAR_1_10MV_COUNTS ) + ( (adcCounts > 0) ?
 694              		.loc 1 760 0
 695 001e 42F21070 		movw	r0, #10000
 696              	.LVL43:
 761:Generated_Source\PSoC5/ADC_SAR_1.c ****                        (countsPer10Volt / 2) : (-(countsPer10Volt / 2)) )) / countsPer10Volt);
 697              		.loc 1 761 0
 698 0022 92FBF3F3 		sdiv	r3, r2, r3
 758:Generated_Source\PSoC5/ADC_SAR_1.c ****     /* Convert to millivolts with rounding */
 699              		.loc 1 758 0
 700 0026 09B2     		sxth	r1, r1
 701              	.LVL44:
 760:Generated_Source\PSoC5/ADC_SAR_1.c ****                        (countsPer10Volt / 2) : (-(countsPer10Volt / 2)) )) / countsPer10Volt);
 702              		.loc 1 760 0
 703 0028 4843     		muls	r0, r1, r0
 704              		.loc 1 761 0
 705 002a 0029     		cmp	r1, #0
 706 002c D8BF     		it	le
 707 002e 5B42     		rsble	r3, r3, #0
 708              	.LVL45:
 760:Generated_Source\PSoC5/ADC_SAR_1.c ****                        (countsPer10Volt / 2) : (-(countsPer10Volt / 2)) )) / countsPer10Volt);
 709              		.loc 1 760 0
 710 0030 0344     		add	r3, r3, r0
 711              	.LVL46:
 712              		.loc 1 761 0
 713 0032 93FBF2F0 		sdiv	r0, r3, r2
 714              	.LVL47:
 762:Generated_Source\PSoC5/ADC_SAR_1.c **** 
ARM GAS  C:\Users\Luggi\AppData\Local\Temp\cccwB3aA.s 			page 28


 763:Generated_Source\PSoC5/ADC_SAR_1.c ****     return( mVolts );
 764:Generated_Source\PSoC5/ADC_SAR_1.c **** }
 715              		.loc 1 764 0
 716 0036 00B2     		sxth	r0, r0
 717 0038 7047     		bx	lr
 718              	.L63:
 719 003a 00BF     		.align	2
 720              	.L62:
 721 003c 00000000 		.word	ADC_SAR_1_countsPerVolt
 722 0040 00000000 		.word	ADC_SAR_1_countsPer10Volt
 723 0044 00000000 		.word	ADC_SAR_1_offset
 724              		.cfi_endproc
 725              	.LFE15:
 726              		.size	ADC_SAR_1_CountsTo_mVolts, .-ADC_SAR_1_CountsTo_mVolts
 727              		.global	__aeabi_ldivmod
 728              		.section	.text.ADC_SAR_1_CountsTo_uVolts,"ax",%progbits
 729              		.align	1
 730              		.global	ADC_SAR_1_CountsTo_uVolts
 731              		.thumb
 732              		.thumb_func
 733              		.type	ADC_SAR_1_CountsTo_uVolts, %function
 734              	ADC_SAR_1_CountsTo_uVolts:
 735              	.LFB16:
 765:Generated_Source\PSoC5/ADC_SAR_1.c **** 
 766:Generated_Source\PSoC5/ADC_SAR_1.c **** 
 767:Generated_Source\PSoC5/ADC_SAR_1.c **** /*******************************************************************************
 768:Generated_Source\PSoC5/ADC_SAR_1.c **** * Function Name: ADC_SAR_1_CountsTo_uVolts
 769:Generated_Source\PSoC5/ADC_SAR_1.c **** ********************************************************************************
 770:Generated_Source\PSoC5/ADC_SAR_1.c **** *
 771:Generated_Source\PSoC5/ADC_SAR_1.c **** * Summary:
 772:Generated_Source\PSoC5/ADC_SAR_1.c **** *  Converts the ADC output to microvolts as a 32-bit integer.
 773:Generated_Source\PSoC5/ADC_SAR_1.c **** *
 774:Generated_Source\PSoC5/ADC_SAR_1.c **** * Parameters:
 775:Generated_Source\PSoC5/ADC_SAR_1.c **** *  int16 adcCounts: Result from the ADC conversion
 776:Generated_Source\PSoC5/ADC_SAR_1.c **** *
 777:Generated_Source\PSoC5/ADC_SAR_1.c **** * Return:
 778:Generated_Source\PSoC5/ADC_SAR_1.c **** *  int32 Result in micro Volts
 779:Generated_Source\PSoC5/ADC_SAR_1.c **** *
 780:Generated_Source\PSoC5/ADC_SAR_1.c **** * Global Variables:
 781:Generated_Source\PSoC5/ADC_SAR_1.c **** *  ADC_SAR_1_offset variable used.
 782:Generated_Source\PSoC5/ADC_SAR_1.c **** *  ADC_SAR_1_countsPer10Volt used to convert ADC counts to uVolts.
 783:Generated_Source\PSoC5/ADC_SAR_1.c **** *
 784:Generated_Source\PSoC5/ADC_SAR_1.c **** *******************************************************************************/
 785:Generated_Source\PSoC5/ADC_SAR_1.c **** int32 ADC_SAR_1_CountsTo_uVolts(int16 adcCounts)
 786:Generated_Source\PSoC5/ADC_SAR_1.c **** {
 736              		.loc 1 786 0
 737              		.cfi_startproc
 738              		@ args = 0, pretend = 0, frame = 0
 739              		@ frame_needed = 0, uses_anonymous_args = 0
 740              	.LVL48:
 787:Generated_Source\PSoC5/ADC_SAR_1.c **** 
 788:Generated_Source\PSoC5/ADC_SAR_1.c ****     int64 uVolts;
 789:Generated_Source\PSoC5/ADC_SAR_1.c ****     int32 countsPer10Volt;
 790:Generated_Source\PSoC5/ADC_SAR_1.c **** 
 791:Generated_Source\PSoC5/ADC_SAR_1.c ****     if(ADC_SAR_1_countsPerVolt != 0)
 741              		.loc 1 791 0
 742 0000 0C4A     		ldr	r2, .L67
ARM GAS  C:\Users\Luggi\AppData\Local\Temp\cccwB3aA.s 			page 29


 786:Generated_Source\PSoC5/ADC_SAR_1.c **** 
 743              		.loc 1 786 0
 744 0002 38B5     		push	{r3, r4, r5, lr}
 745              		.cfi_def_cfa_offset 16
 746              		.cfi_offset 3, -16
 747              		.cfi_offset 4, -12
 748              		.cfi_offset 5, -8
 749              		.cfi_offset 14, -4
 750              		.loc 1 791 0
 751 0004 1388     		ldrh	r3, [r2]
 752 0006 9BB2     		uxth	r3, r3
 753 0008 23B1     		cbz	r3, .L65
 792:Generated_Source\PSoC5/ADC_SAR_1.c ****     {   /* Support obsolete method */
 793:Generated_Source\PSoC5/ADC_SAR_1.c ****         countsPer10Volt = (int32)ADC_SAR_1_countsPerVolt * 10;
 754              		.loc 1 793 0
 755 000a 1288     		ldrh	r2, [r2]
 756 000c 0A23     		movs	r3, #10
 757 000e 12B2     		sxth	r2, r2
 758 0010 5A43     		muls	r2, r3, r2
 759              	.LVL49:
 760 0012 01E0     		b	.L66
 761              	.LVL50:
 762              	.L65:
 794:Generated_Source\PSoC5/ADC_SAR_1.c ****     }
 795:Generated_Source\PSoC5/ADC_SAR_1.c ****     else
 796:Generated_Source\PSoC5/ADC_SAR_1.c ****     {
 797:Generated_Source\PSoC5/ADC_SAR_1.c ****         countsPer10Volt = ADC_SAR_1_countsPer10Volt;
 763              		.loc 1 797 0
 764 0014 084B     		ldr	r3, .L67+4
 765 0016 1A68     		ldr	r2, [r3]
 766              	.LVL51:
 767              	.L66:
 798:Generated_Source\PSoC5/ADC_SAR_1.c ****     }
 799:Generated_Source\PSoC5/ADC_SAR_1.c **** 
 800:Generated_Source\PSoC5/ADC_SAR_1.c ****     /* Subtract ADC offset */
 801:Generated_Source\PSoC5/ADC_SAR_1.c ****     adcCounts -= ADC_SAR_1_offset;
 768              		.loc 1 801 0
 769 0018 084B     		ldr	r3, .L67+8
 770 001a 1C88     		ldrh	r4, [r3]
 771              	.LVL52:
 802:Generated_Source\PSoC5/ADC_SAR_1.c ****     /* To convert adcCounts to microVolts it is required to be multiplied
 803:Generated_Source\PSoC5/ADC_SAR_1.c ****     *  on 10 million and later divide on gain in counts per 10V.
 804:Generated_Source\PSoC5/ADC_SAR_1.c ****     */
 805:Generated_Source\PSoC5/ADC_SAR_1.c ****     uVolts = (( (int64)adcCounts * ADC_SAR_1_10UV_COUNTS ) / countsPer10Volt);
 772              		.loc 1 805 0
 773 001c 084B     		ldr	r3, .L67+12
 774 001e 041B     		subs	r4, r0, r4
 775              	.LVL53:
 776 0020 24B2     		sxth	r4, r4
 777 0022 A4FB0301 		umull	r0, r1, r4, r3
 778 0026 E517     		asrs	r5, r4, #31
 779 0028 03FB0511 		mla	r1, r3, r5, r1
 780 002c D317     		asrs	r3, r2, #31
 781 002e FFF7FEFF 		bl	__aeabi_ldivmod
 782              	.LVL54:
 806:Generated_Source\PSoC5/ADC_SAR_1.c **** 
 807:Generated_Source\PSoC5/ADC_SAR_1.c ****     return( uVolts );
ARM GAS  C:\Users\Luggi\AppData\Local\Temp\cccwB3aA.s 			page 30


 808:Generated_Source\PSoC5/ADC_SAR_1.c **** }
 783              		.loc 1 808 0
 784 0032 38BD     		pop	{r3, r4, r5, pc}
 785              	.L68:
 786              		.align	2
 787              	.L67:
 788 0034 00000000 		.word	ADC_SAR_1_countsPerVolt
 789 0038 00000000 		.word	ADC_SAR_1_countsPer10Volt
 790 003c 00000000 		.word	ADC_SAR_1_offset
 791 0040 80969800 		.word	10000000
 792              		.cfi_endproc
 793              	.LFE16:
 794              		.size	ADC_SAR_1_CountsTo_uVolts, .-ADC_SAR_1_CountsTo_uVolts
 795              		.global	__aeabi_i2f
 796              		.global	__aeabi_fmul
 797              		.global	__aeabi_fdiv
 798              		.section	.text.ADC_SAR_1_CountsTo_Volts,"ax",%progbits
 799              		.align	1
 800              		.global	ADC_SAR_1_CountsTo_Volts
 801              		.thumb
 802              		.thumb_func
 803              		.type	ADC_SAR_1_CountsTo_Volts, %function
 804              	ADC_SAR_1_CountsTo_Volts:
 805              	.LFB17:
 809:Generated_Source\PSoC5/ADC_SAR_1.c **** 
 810:Generated_Source\PSoC5/ADC_SAR_1.c **** 
 811:Generated_Source\PSoC5/ADC_SAR_1.c **** /*******************************************************************************
 812:Generated_Source\PSoC5/ADC_SAR_1.c **** * Function Name: ADC_SAR_1_CountsTo_Volts
 813:Generated_Source\PSoC5/ADC_SAR_1.c **** ********************************************************************************
 814:Generated_Source\PSoC5/ADC_SAR_1.c **** *
 815:Generated_Source\PSoC5/ADC_SAR_1.c **** * Summary:
 816:Generated_Source\PSoC5/ADC_SAR_1.c **** *  Converts the ADC output to volts as a floating-point number.
 817:Generated_Source\PSoC5/ADC_SAR_1.c **** *
 818:Generated_Source\PSoC5/ADC_SAR_1.c **** * Parameters:
 819:Generated_Source\PSoC5/ADC_SAR_1.c **** *  int16 adcCounts: Result from the ADC conversion
 820:Generated_Source\PSoC5/ADC_SAR_1.c **** *
 821:Generated_Source\PSoC5/ADC_SAR_1.c **** * Return:
 822:Generated_Source\PSoC5/ADC_SAR_1.c **** *  float Result in Volts
 823:Generated_Source\PSoC5/ADC_SAR_1.c **** *
 824:Generated_Source\PSoC5/ADC_SAR_1.c **** * Global Variables:
 825:Generated_Source\PSoC5/ADC_SAR_1.c **** *  ADC_SAR_1_offset variable used.
 826:Generated_Source\PSoC5/ADC_SAR_1.c **** *  ADC_SAR_1_countsPer10Volt used to convert ADC counts to Volts.
 827:Generated_Source\PSoC5/ADC_SAR_1.c **** *
 828:Generated_Source\PSoC5/ADC_SAR_1.c **** *******************************************************************************/
 829:Generated_Source\PSoC5/ADC_SAR_1.c **** float32 ADC_SAR_1_CountsTo_Volts(int16 adcCounts)
 830:Generated_Source\PSoC5/ADC_SAR_1.c **** {
 806              		.loc 1 830 0
 807              		.cfi_startproc
 808              		@ args = 0, pretend = 0, frame = 0
 809              		@ frame_needed = 0, uses_anonymous_args = 0
 810              	.LVL55:
 831:Generated_Source\PSoC5/ADC_SAR_1.c ****     float32 volts;
 832:Generated_Source\PSoC5/ADC_SAR_1.c ****     int32 countsPer10Volt;
 833:Generated_Source\PSoC5/ADC_SAR_1.c **** 
 834:Generated_Source\PSoC5/ADC_SAR_1.c ****     if(ADC_SAR_1_countsPerVolt != 0)
 811              		.loc 1 834 0
 812 0000 0E4A     		ldr	r2, .L72
ARM GAS  C:\Users\Luggi\AppData\Local\Temp\cccwB3aA.s 			page 31


 830:Generated_Source\PSoC5/ADC_SAR_1.c ****     float32 volts;
 813              		.loc 1 830 0
 814 0002 38B5     		push	{r3, r4, r5, lr}
 815              		.cfi_def_cfa_offset 16
 816              		.cfi_offset 3, -16
 817              		.cfi_offset 4, -12
 818              		.cfi_offset 5, -8
 819              		.cfi_offset 14, -4
 820              		.loc 1 834 0
 821 0004 1388     		ldrh	r3, [r2]
 822 0006 9BB2     		uxth	r3, r3
 823 0008 23B1     		cbz	r3, .L70
 835:Generated_Source\PSoC5/ADC_SAR_1.c ****     {   /* Support obsolete method */
 836:Generated_Source\PSoC5/ADC_SAR_1.c ****         countsPer10Volt = (int32)ADC_SAR_1_countsPerVolt * 10;
 824              		.loc 1 836 0
 825 000a 1488     		ldrh	r4, [r2]
 826 000c 0A23     		movs	r3, #10
 827 000e 24B2     		sxth	r4, r4
 828 0010 5C43     		muls	r4, r3, r4
 829              	.LVL56:
 830 0012 01E0     		b	.L71
 831              	.LVL57:
 832              	.L70:
 837:Generated_Source\PSoC5/ADC_SAR_1.c ****     }
 838:Generated_Source\PSoC5/ADC_SAR_1.c ****     else
 839:Generated_Source\PSoC5/ADC_SAR_1.c ****     {
 840:Generated_Source\PSoC5/ADC_SAR_1.c ****         countsPer10Volt = ADC_SAR_1_countsPer10Volt;
 833              		.loc 1 840 0
 834 0014 0A4B     		ldr	r3, .L72+4
 835 0016 1C68     		ldr	r4, [r3]
 836              	.LVL58:
 837              	.L71:
 841:Generated_Source\PSoC5/ADC_SAR_1.c ****     }
 842:Generated_Source\PSoC5/ADC_SAR_1.c **** 
 843:Generated_Source\PSoC5/ADC_SAR_1.c ****     /* Subtract ADC offset */
 844:Generated_Source\PSoC5/ADC_SAR_1.c ****     adcCounts -= ADC_SAR_1_offset;
 838              		.loc 1 844 0
 839 0018 0A4B     		ldr	r3, .L72+8
 840 001a 1B88     		ldrh	r3, [r3]
 841 001c C01A     		subs	r0, r0, r3
 842              	.LVL59:
 845:Generated_Source\PSoC5/ADC_SAR_1.c **** 
 846:Generated_Source\PSoC5/ADC_SAR_1.c ****     volts = ((float32)adcCounts * ADC_SAR_1_10V_COUNTS) / (float32)countsPer10Volt;
 843              		.loc 1 846 0
 844 001e 00B2     		sxth	r0, r0
 845 0020 FFF7FEFF 		bl	__aeabi_i2f
 846              	.LVL60:
 847 0024 0849     		ldr	r1, .L72+12
 848 0026 FFF7FEFF 		bl	__aeabi_fmul
 849              	.LVL61:
 850 002a 0546     		mov	r5, r0
 851 002c 2046     		mov	r0, r4
 852 002e FFF7FEFF 		bl	__aeabi_i2f
 853              	.LVL62:
 854 0032 0146     		mov	r1, r0
 855 0034 2846     		mov	r0, r5
 856 0036 FFF7FEFF 		bl	__aeabi_fdiv
ARM GAS  C:\Users\Luggi\AppData\Local\Temp\cccwB3aA.s 			page 32


 857              	.LVL63:
 847:Generated_Source\PSoC5/ADC_SAR_1.c **** 
 848:Generated_Source\PSoC5/ADC_SAR_1.c ****     return( volts );
 849:Generated_Source\PSoC5/ADC_SAR_1.c **** }
 858              		.loc 1 849 0
 859 003a 38BD     		pop	{r3, r4, r5, pc}
 860              	.LVL64:
 861              	.L73:
 862              		.align	2
 863              	.L72:
 864 003c 00000000 		.word	ADC_SAR_1_countsPerVolt
 865 0040 00000000 		.word	ADC_SAR_1_countsPer10Volt
 866 0044 00000000 		.word	ADC_SAR_1_offset
 867 0048 00002041 		.word	1092616192
 868              		.cfi_endproc
 869              	.LFE17:
 870              		.size	ADC_SAR_1_CountsTo_Volts, .-ADC_SAR_1_CountsTo_Volts
 871              		.comm	ADC_SAR_1_shift,2,2
 872              		.comm	ADC_SAR_1_countsPer10Volt,4,4
 873              		.comm	ADC_SAR_1_countsPerVolt,2,2
 874              		.comm	ADC_SAR_1_offset,2,2
 875              		.global	ADC_SAR_1_initVar
 876              		.section	.rodata
 877              		.align	1
 878              		.set	.LANCHOR0,. + 0
 879              		.type	CSWTCH.24, %object
 880              		.size	CSWTCH.24, 10
 881              	CSWTCH.24:
 882 0000 0001     		.short	256
 883 0002 0000     		.short	0
 884 0004 0004     		.short	1024
 885 0006 0000     		.short	0
 886 0008 0010     		.short	4096
 887              		.bss
 888              		.set	.LANCHOR1,. + 0
 889              		.type	ADC_SAR_1_initVar, %object
 890              		.size	ADC_SAR_1_initVar, 1
 891              	ADC_SAR_1_initVar:
 892 0000 00       		.space	1
 893              		.text
 894              	.Letext0:
 895              		.file 2 "Generated_Source\\PSoC5\\cytypes.h"
 896              		.file 3 "Generated_Source\\PSoC5\\CyLib.h"
 897              		.file 4 "Generated_Source\\PSoC5\\ADC_SAR_1_theACLK.h"