ARM GAS  C:\Users\Luggi\AppData\Local\Temp\ccuZ9D6R.s 			page 1


   1              		.syntax unified
   2              		.cpu cortex-m3
   3              		.fpu softvfp
   4              		.eabi_attribute 20, 1
   5              		.eabi_attribute 21, 1
   6              		.eabi_attribute 23, 3
   7              		.eabi_attribute 24, 1
   8              		.eabi_attribute 25, 1
   9              		.eabi_attribute 26, 1
  10              		.eabi_attribute 30, 4
  11              		.eabi_attribute 34, 1
  12              		.eabi_attribute 18, 4
  13              		.thumb
  14              		.file	"Comp_1.c"
  15              		.text
  16              	.Ltext0:
  17              		.cfi_sections	.debug_frame
  18              		.section	.text.Comp_1_trimAdjust,"ax",%progbits
  19              		.align	1
  20              		.thumb
  21              		.thumb_func
  22              		.type	Comp_1_trimAdjust, %function
  23              	Comp_1_trimAdjust:
  24              	.LFB6:
  25              		.file 1 "Generated_Source\\PSoC5\\Comp_1.c"
   1:Generated_Source\PSoC5/Comp_1.c **** /*******************************************************************************
   2:Generated_Source\PSoC5/Comp_1.c **** * File Name: Comp_1.c
   3:Generated_Source\PSoC5/Comp_1.c **** * Version 2.0
   4:Generated_Source\PSoC5/Comp_1.c **** *
   5:Generated_Source\PSoC5/Comp_1.c **** * Description:
   6:Generated_Source\PSoC5/Comp_1.c **** *  This file provides the source code to the API for the Comparator component
   7:Generated_Source\PSoC5/Comp_1.c **** *
   8:Generated_Source\PSoC5/Comp_1.c **** * Note:
   9:Generated_Source\PSoC5/Comp_1.c **** *  None
  10:Generated_Source\PSoC5/Comp_1.c **** *
  11:Generated_Source\PSoC5/Comp_1.c **** ********************************************************************************
  12:Generated_Source\PSoC5/Comp_1.c **** * Copyright 2008-2012, Cypress Semiconductor Corporation.  All rights reserved.
  13:Generated_Source\PSoC5/Comp_1.c **** * You may use this file only in accordance with the license, terms, conditions, 
  14:Generated_Source\PSoC5/Comp_1.c **** * disclaimers, and limitations in the end user license agreement accompanying 
  15:Generated_Source\PSoC5/Comp_1.c **** * the software package with which this file was provided.
  16:Generated_Source\PSoC5/Comp_1.c **** *******************************************************************************/
  17:Generated_Source\PSoC5/Comp_1.c **** 
  18:Generated_Source\PSoC5/Comp_1.c **** #include "Comp_1.h"
  19:Generated_Source\PSoC5/Comp_1.c **** 
  20:Generated_Source\PSoC5/Comp_1.c **** uint8 Comp_1_initVar = 0u;
  21:Generated_Source\PSoC5/Comp_1.c **** 
  22:Generated_Source\PSoC5/Comp_1.c **** /* Internal functions definitoin */
  23:Generated_Source\PSoC5/Comp_1.c **** static void Comp_1_trimAdjust(uint8 nibble) ;
  24:Generated_Source\PSoC5/Comp_1.c **** 
  25:Generated_Source\PSoC5/Comp_1.c **** /* static Comp_1_backupStruct  Comp_1_backup; */
  26:Generated_Source\PSoC5/Comp_1.c **** #if (CY_PSOC5A)
  27:Generated_Source\PSoC5/Comp_1.c ****     static Comp_1_LOWPOWER_BACKUP_STRUCT  Comp_1_lowPowerBackup;
  28:Generated_Source\PSoC5/Comp_1.c **** #endif /* CY_PSOC5A */
  29:Generated_Source\PSoC5/Comp_1.c **** 
  30:Generated_Source\PSoC5/Comp_1.c **** /* variable to decide whether or not to restore the control register in 
  31:Generated_Source\PSoC5/Comp_1.c ****    Enable() API for PSoC5A only */
  32:Generated_Source\PSoC5/Comp_1.c **** #if (CY_PSOC5A)
ARM GAS  C:\Users\Luggi\AppData\Local\Temp\ccuZ9D6R.s 			page 2


  33:Generated_Source\PSoC5/Comp_1.c ****     static uint8 Comp_1_restoreReg = 0u;
  34:Generated_Source\PSoC5/Comp_1.c **** #endif /* CY_PSOC5A */
  35:Generated_Source\PSoC5/Comp_1.c **** 
  36:Generated_Source\PSoC5/Comp_1.c **** 
  37:Generated_Source\PSoC5/Comp_1.c **** /*******************************************************************************
  38:Generated_Source\PSoC5/Comp_1.c **** * Function Name: Comp_1_Init
  39:Generated_Source\PSoC5/Comp_1.c **** ********************************************************************************
  40:Generated_Source\PSoC5/Comp_1.c **** *
  41:Generated_Source\PSoC5/Comp_1.c **** * Summary:
  42:Generated_Source\PSoC5/Comp_1.c **** *  Initialize to the schematic state
  43:Generated_Source\PSoC5/Comp_1.c **** * 
  44:Generated_Source\PSoC5/Comp_1.c **** * Parameters:
  45:Generated_Source\PSoC5/Comp_1.c **** *  void
  46:Generated_Source\PSoC5/Comp_1.c **** *
  47:Generated_Source\PSoC5/Comp_1.c **** * Return:
  48:Generated_Source\PSoC5/Comp_1.c **** *  void
  49:Generated_Source\PSoC5/Comp_1.c **** *
  50:Generated_Source\PSoC5/Comp_1.c **** *******************************************************************************/
  51:Generated_Source\PSoC5/Comp_1.c **** void Comp_1_Init(void) 
  52:Generated_Source\PSoC5/Comp_1.c **** {
  53:Generated_Source\PSoC5/Comp_1.c ****     /* Set default speed/power */
  54:Generated_Source\PSoC5/Comp_1.c ****     Comp_1_SetSpeed(Comp_1_DEFAULT_SPEED);
  55:Generated_Source\PSoC5/Comp_1.c **** 
  56:Generated_Source\PSoC5/Comp_1.c ****     /* Set default Hysteresis */
  57:Generated_Source\PSoC5/Comp_1.c ****     #if ( Comp_1_DEFAULT_HYSTERESIS == 0u )
  58:Generated_Source\PSoC5/Comp_1.c ****         Comp_1_CR |= Comp_1_HYST_OFF;
  59:Generated_Source\PSoC5/Comp_1.c ****     #else
  60:Generated_Source\PSoC5/Comp_1.c ****         Comp_1_CR &= (uint8)(~Comp_1_HYST_OFF);
  61:Generated_Source\PSoC5/Comp_1.c ****     #endif /* Comp_1_DEFAULT_HYSTERESIS == 0u */
  62:Generated_Source\PSoC5/Comp_1.c ****     /* Power down override feature is not supported for PSoC5A. */
  63:Generated_Source\PSoC5/Comp_1.c ****     #if (CY_PSOC3 || CY_PSOC5LP)
  64:Generated_Source\PSoC5/Comp_1.c ****         /* Set default Power Down Override */
  65:Generated_Source\PSoC5/Comp_1.c ****         #if ( Comp_1_DEFAULT_PWRDWN_OVRD == 0u )
  66:Generated_Source\PSoC5/Comp_1.c ****             Comp_1_CR &= (uint8)(~Comp_1_PWRDWN_OVRD);
  67:Generated_Source\PSoC5/Comp_1.c ****         #else 
  68:Generated_Source\PSoC5/Comp_1.c ****             Comp_1_CR |= Comp_1_PWRDWN_OVRD;
  69:Generated_Source\PSoC5/Comp_1.c ****         #endif /* Comp_1_DEFAULT_PWRDWN_OVRD == 0u */
  70:Generated_Source\PSoC5/Comp_1.c ****     #endif /* CY_PSOC3 || CY_PSOC5LP */
  71:Generated_Source\PSoC5/Comp_1.c ****     
  72:Generated_Source\PSoC5/Comp_1.c ****     /* Set mux always on logic */
  73:Generated_Source\PSoC5/Comp_1.c ****     Comp_1_CR |= Comp_1_MX_AO;
  74:Generated_Source\PSoC5/Comp_1.c **** 
  75:Generated_Source\PSoC5/Comp_1.c ****     /* Set default sync */
  76:Generated_Source\PSoC5/Comp_1.c ****     Comp_1_CLK &= (uint8)(~Comp_1_SYNCCLK_MASK);
  77:Generated_Source\PSoC5/Comp_1.c ****     #if ( Comp_1_DEFAULT_BYPASS_SYNC == 0u )
  78:Generated_Source\PSoC5/Comp_1.c ****         Comp_1_CLK |= Comp_1_SYNC_CLK_EN;
  79:Generated_Source\PSoC5/Comp_1.c ****     #else
  80:Generated_Source\PSoC5/Comp_1.c ****         Comp_1_CLK |= Comp_1_BYPASS_SYNC;
  81:Generated_Source\PSoC5/Comp_1.c ****     #endif /* Comp_1_DEFAULT_BYPASS_SYNC == 0u */
  82:Generated_Source\PSoC5/Comp_1.c **** }
  83:Generated_Source\PSoC5/Comp_1.c **** 
  84:Generated_Source\PSoC5/Comp_1.c **** 
  85:Generated_Source\PSoC5/Comp_1.c **** /*******************************************************************************
  86:Generated_Source\PSoC5/Comp_1.c **** * Function Name: Comp_1_Enable
  87:Generated_Source\PSoC5/Comp_1.c **** ********************************************************************************
  88:Generated_Source\PSoC5/Comp_1.c **** *
  89:Generated_Source\PSoC5/Comp_1.c **** * Summary:
ARM GAS  C:\Users\Luggi\AppData\Local\Temp\ccuZ9D6R.s 			page 3


  90:Generated_Source\PSoC5/Comp_1.c **** *  Enable the Comparator
  91:Generated_Source\PSoC5/Comp_1.c **** * 
  92:Generated_Source\PSoC5/Comp_1.c **** * Parameters:
  93:Generated_Source\PSoC5/Comp_1.c **** *  void
  94:Generated_Source\PSoC5/Comp_1.c **** *
  95:Generated_Source\PSoC5/Comp_1.c **** * Return:
  96:Generated_Source\PSoC5/Comp_1.c **** *  void
  97:Generated_Source\PSoC5/Comp_1.c **** *
  98:Generated_Source\PSoC5/Comp_1.c **** *******************************************************************************/
  99:Generated_Source\PSoC5/Comp_1.c **** void Comp_1_Enable(void) 
 100:Generated_Source\PSoC5/Comp_1.c **** {
 101:Generated_Source\PSoC5/Comp_1.c ****     Comp_1_PWRMGR |= Comp_1_ACT_PWR_EN;
 102:Generated_Source\PSoC5/Comp_1.c ****     Comp_1_STBY_PWRMGR |= Comp_1_STBY_PWR_EN;
 103:Generated_Source\PSoC5/Comp_1.c ****      
 104:Generated_Source\PSoC5/Comp_1.c ****      /* This is to restore the value of register CR which is saved 
 105:Generated_Source\PSoC5/Comp_1.c ****     in prior to the modification in stop() API */
 106:Generated_Source\PSoC5/Comp_1.c ****     #if (CY_PSOC5A)
 107:Generated_Source\PSoC5/Comp_1.c ****         if(Comp_1_restoreReg == 1u)
 108:Generated_Source\PSoC5/Comp_1.c ****         {
 109:Generated_Source\PSoC5/Comp_1.c ****             Comp_1_CR = Comp_1_lowPowerBackup.compCRReg;
 110:Generated_Source\PSoC5/Comp_1.c **** 
 111:Generated_Source\PSoC5/Comp_1.c ****             /* Clear the flag */
 112:Generated_Source\PSoC5/Comp_1.c ****             Comp_1_restoreReg = 0u;
 113:Generated_Source\PSoC5/Comp_1.c ****         }
 114:Generated_Source\PSoC5/Comp_1.c ****     #endif /* CY_PSOC5A */
 115:Generated_Source\PSoC5/Comp_1.c **** }
 116:Generated_Source\PSoC5/Comp_1.c **** 
 117:Generated_Source\PSoC5/Comp_1.c **** 
 118:Generated_Source\PSoC5/Comp_1.c **** /*******************************************************************************
 119:Generated_Source\PSoC5/Comp_1.c **** * Function Name: Comp_1_Start
 120:Generated_Source\PSoC5/Comp_1.c **** ********************************************************************************
 121:Generated_Source\PSoC5/Comp_1.c **** *
 122:Generated_Source\PSoC5/Comp_1.c **** * Summary:
 123:Generated_Source\PSoC5/Comp_1.c **** *  The start function initializes the Analog Comparator with the default values.
 124:Generated_Source\PSoC5/Comp_1.c **** *
 125:Generated_Source\PSoC5/Comp_1.c **** * Parameters:
 126:Generated_Source\PSoC5/Comp_1.c **** *  void
 127:Generated_Source\PSoC5/Comp_1.c **** *
 128:Generated_Source\PSoC5/Comp_1.c **** * Return:
 129:Generated_Source\PSoC5/Comp_1.c **** *  void 
 130:Generated_Source\PSoC5/Comp_1.c **** *
 131:Generated_Source\PSoC5/Comp_1.c **** * Global variables:
 132:Generated_Source\PSoC5/Comp_1.c **** *  Comp_1_initVar: Is modified when this function is called for the 
 133:Generated_Source\PSoC5/Comp_1.c **** *   first time. Is used to ensure that initialization happens only once.
 134:Generated_Source\PSoC5/Comp_1.c **** *  
 135:Generated_Source\PSoC5/Comp_1.c **** *******************************************************************************/
 136:Generated_Source\PSoC5/Comp_1.c **** void Comp_1_Start(void) 
 137:Generated_Source\PSoC5/Comp_1.c **** {
 138:Generated_Source\PSoC5/Comp_1.c **** 
 139:Generated_Source\PSoC5/Comp_1.c ****     if ( Comp_1_initVar == 0u )
 140:Generated_Source\PSoC5/Comp_1.c ****     {
 141:Generated_Source\PSoC5/Comp_1.c ****         Comp_1_Init();
 142:Generated_Source\PSoC5/Comp_1.c ****         
 143:Generated_Source\PSoC5/Comp_1.c ****         Comp_1_initVar = 1u;
 144:Generated_Source\PSoC5/Comp_1.c ****     }   
 145:Generated_Source\PSoC5/Comp_1.c **** 
 146:Generated_Source\PSoC5/Comp_1.c ****     /* Enable power to comparator */
ARM GAS  C:\Users\Luggi\AppData\Local\Temp\ccuZ9D6R.s 			page 4


 147:Generated_Source\PSoC5/Comp_1.c ****     Comp_1_Enable();    
 148:Generated_Source\PSoC5/Comp_1.c **** }
 149:Generated_Source\PSoC5/Comp_1.c **** 
 150:Generated_Source\PSoC5/Comp_1.c **** 
 151:Generated_Source\PSoC5/Comp_1.c **** /*******************************************************************************
 152:Generated_Source\PSoC5/Comp_1.c **** * Function Name: Comp_1_Stop
 153:Generated_Source\PSoC5/Comp_1.c **** ********************************************************************************
 154:Generated_Source\PSoC5/Comp_1.c **** *
 155:Generated_Source\PSoC5/Comp_1.c **** * Summary:
 156:Generated_Source\PSoC5/Comp_1.c **** *  Powers down amplifier to lowest power state.
 157:Generated_Source\PSoC5/Comp_1.c **** *
 158:Generated_Source\PSoC5/Comp_1.c **** * Parameters:
 159:Generated_Source\PSoC5/Comp_1.c **** *  void
 160:Generated_Source\PSoC5/Comp_1.c **** *
 161:Generated_Source\PSoC5/Comp_1.c **** * Return:
 162:Generated_Source\PSoC5/Comp_1.c **** *  void
 163:Generated_Source\PSoC5/Comp_1.c **** *
 164:Generated_Source\PSoC5/Comp_1.c **** *******************************************************************************/
 165:Generated_Source\PSoC5/Comp_1.c **** void Comp_1_Stop(void) 
 166:Generated_Source\PSoC5/Comp_1.c **** {
 167:Generated_Source\PSoC5/Comp_1.c ****     /* Disable power to comparator */
 168:Generated_Source\PSoC5/Comp_1.c ****     Comp_1_PWRMGR &= (uint8)(~Comp_1_ACT_PWR_EN);
 169:Generated_Source\PSoC5/Comp_1.c ****     Comp_1_STBY_PWRMGR &= (uint8)(~Comp_1_STBY_PWR_EN);
 170:Generated_Source\PSoC5/Comp_1.c ****     
 171:Generated_Source\PSoC5/Comp_1.c ****     #if (CY_PSOC5A)
 172:Generated_Source\PSoC5/Comp_1.c ****         /* Enable the variable */
 173:Generated_Source\PSoC5/Comp_1.c ****         Comp_1_restoreReg = 1u;
 174:Generated_Source\PSoC5/Comp_1.c **** 
 175:Generated_Source\PSoC5/Comp_1.c ****         /* Save the control register before clearing it */
 176:Generated_Source\PSoC5/Comp_1.c ****         Comp_1_lowPowerBackup.compCRReg = Comp_1_CR;
 177:Generated_Source\PSoC5/Comp_1.c ****         Comp_1_CR = Comp_1_COMP_REG_CLR;
 178:Generated_Source\PSoC5/Comp_1.c ****     #endif /* CY_PSOC5A */
 179:Generated_Source\PSoC5/Comp_1.c **** }
 180:Generated_Source\PSoC5/Comp_1.c **** 
 181:Generated_Source\PSoC5/Comp_1.c **** 
 182:Generated_Source\PSoC5/Comp_1.c **** /*******************************************************************************
 183:Generated_Source\PSoC5/Comp_1.c **** * Function Name: Comp_1_SetSpeed
 184:Generated_Source\PSoC5/Comp_1.c **** ********************************************************************************
 185:Generated_Source\PSoC5/Comp_1.c **** *
 186:Generated_Source\PSoC5/Comp_1.c **** * Summary:
 187:Generated_Source\PSoC5/Comp_1.c **** *  This function sets the speed of the Analog Comparator. The faster the speed
 188:Generated_Source\PSoC5/Comp_1.c **** *  the more power that is used.
 189:Generated_Source\PSoC5/Comp_1.c **** *
 190:Generated_Source\PSoC5/Comp_1.c **** * Parameters:
 191:Generated_Source\PSoC5/Comp_1.c **** *  speed: (uint8) Sets operation mode of Comparator
 192:Generated_Source\PSoC5/Comp_1.c **** *
 193:Generated_Source\PSoC5/Comp_1.c **** * Return:
 194:Generated_Source\PSoC5/Comp_1.c **** *  void
 195:Generated_Source\PSoC5/Comp_1.c **** *
 196:Generated_Source\PSoC5/Comp_1.c **** *******************************************************************************/
 197:Generated_Source\PSoC5/Comp_1.c **** void Comp_1_SetSpeed(uint8 speed) 
 198:Generated_Source\PSoC5/Comp_1.c **** {
 199:Generated_Source\PSoC5/Comp_1.c ****     /* Clear and Set power level */    
 200:Generated_Source\PSoC5/Comp_1.c ****     Comp_1_CR = (Comp_1_CR & (uint8)(~Comp_1_PWR_MODE_MASK)) |
 201:Generated_Source\PSoC5/Comp_1.c ****                            (speed & Comp_1_PWR_MODE_MASK);
 202:Generated_Source\PSoC5/Comp_1.c **** 
 203:Generated_Source\PSoC5/Comp_1.c ****     /* Set trim value for high speed comparator */
ARM GAS  C:\Users\Luggi\AppData\Local\Temp\ccuZ9D6R.s 			page 5


 204:Generated_Source\PSoC5/Comp_1.c ****     if(speed == Comp_1_HIGHSPEED)
 205:Generated_Source\PSoC5/Comp_1.c ****     {
 206:Generated_Source\PSoC5/Comp_1.c ****         /* PSoC5A */
 207:Generated_Source\PSoC5/Comp_1.c ****         #if (CY_PSOC5A)
 208:Generated_Source\PSoC5/Comp_1.c ****             Comp_1_TR = Comp_1_HS_TRIM_TR0;
 209:Generated_Source\PSoC5/Comp_1.c ****         #endif /* CY_PSOC5A */
 210:Generated_Source\PSoC5/Comp_1.c ****         
 211:Generated_Source\PSoC5/Comp_1.c ****         /* PSoC3, PSoC5LP or later */
 212:Generated_Source\PSoC5/Comp_1.c ****         #if (CY_PSOC3 || CY_PSOC5LP) 
 213:Generated_Source\PSoC5/Comp_1.c ****             Comp_1_TR0 = Comp_1_HS_TRIM_TR0;
 214:Generated_Source\PSoC5/Comp_1.c ****             Comp_1_TR1 = Comp_1_HS_TRIM_TR1;
 215:Generated_Source\PSoC5/Comp_1.c ****         #endif /* CY_PSOC3 || CY_PSOC5LP */
 216:Generated_Source\PSoC5/Comp_1.c ****     }
 217:Generated_Source\PSoC5/Comp_1.c ****     else
 218:Generated_Source\PSoC5/Comp_1.c ****     {
 219:Generated_Source\PSoC5/Comp_1.c ****     /* PSoC5A */
 220:Generated_Source\PSoC5/Comp_1.c ****         #if (CY_PSOC5A)
 221:Generated_Source\PSoC5/Comp_1.c ****             Comp_1_TR = Comp_1_LS_TRIM_TR0;
 222:Generated_Source\PSoC5/Comp_1.c ****         #endif /* CY_PSOC5A */
 223:Generated_Source\PSoC5/Comp_1.c ****         
 224:Generated_Source\PSoC5/Comp_1.c ****         /* PSoC3, PSoC5LP or later */
 225:Generated_Source\PSoC5/Comp_1.c ****         #if (CY_PSOC3 || CY_PSOC5LP) 
 226:Generated_Source\PSoC5/Comp_1.c ****             Comp_1_TR0 = Comp_1_LS_TRIM_TR0;
 227:Generated_Source\PSoC5/Comp_1.c ****             Comp_1_TR1 = Comp_1_LS_TRIM_TR1;
 228:Generated_Source\PSoC5/Comp_1.c ****         #endif /* CY_PSOC3 || CY_PSOC5LP */
 229:Generated_Source\PSoC5/Comp_1.c ****     }
 230:Generated_Source\PSoC5/Comp_1.c **** 
 231:Generated_Source\PSoC5/Comp_1.c **** }
 232:Generated_Source\PSoC5/Comp_1.c **** 
 233:Generated_Source\PSoC5/Comp_1.c **** 
 234:Generated_Source\PSoC5/Comp_1.c **** /*******************************************************************************
 235:Generated_Source\PSoC5/Comp_1.c **** * Function Name: Comp_1_GetCompare
 236:Generated_Source\PSoC5/Comp_1.c **** ********************************************************************************
 237:Generated_Source\PSoC5/Comp_1.c **** *
 238:Generated_Source\PSoC5/Comp_1.c **** * Summary:
 239:Generated_Source\PSoC5/Comp_1.c **** *  This function returns the comparator output value.
 240:Generated_Source\PSoC5/Comp_1.c **** *  This value is not affected by the Polarity parameter.
 241:Generated_Source\PSoC5/Comp_1.c **** *  This valuea lways reflects a noninverted state.
 242:Generated_Source\PSoC5/Comp_1.c **** *
 243:Generated_Source\PSoC5/Comp_1.c **** * Parameters:
 244:Generated_Source\PSoC5/Comp_1.c **** *   None
 245:Generated_Source\PSoC5/Comp_1.c **** *
 246:Generated_Source\PSoC5/Comp_1.c **** * Return:
 247:Generated_Source\PSoC5/Comp_1.c **** *  (uint8)  0     - if Pos_Input less than Neg_input
 248:Generated_Source\PSoC5/Comp_1.c **** *           non 0 - if Pos_Input greater than Neg_input.
 249:Generated_Source\PSoC5/Comp_1.c **** *
 250:Generated_Source\PSoC5/Comp_1.c **** *******************************************************************************/
 251:Generated_Source\PSoC5/Comp_1.c **** uint8 Comp_1_GetCompare(void) 
 252:Generated_Source\PSoC5/Comp_1.c **** {
 253:Generated_Source\PSoC5/Comp_1.c ****     return( Comp_1_WRK & Comp_1_CMP_OUT_MASK);
 254:Generated_Source\PSoC5/Comp_1.c **** }
 255:Generated_Source\PSoC5/Comp_1.c **** 
 256:Generated_Source\PSoC5/Comp_1.c **** 
 257:Generated_Source\PSoC5/Comp_1.c **** /*******************************************************************************
 258:Generated_Source\PSoC5/Comp_1.c **** * Function Name: Comp_1_trimAdjust
 259:Generated_Source\PSoC5/Comp_1.c **** ********************************************************************************
 260:Generated_Source\PSoC5/Comp_1.c **** *
ARM GAS  C:\Users\Luggi\AppData\Local\Temp\ccuZ9D6R.s 			page 6


 261:Generated_Source\PSoC5/Comp_1.c **** * Summary:
 262:Generated_Source\PSoC5/Comp_1.c **** *  This function adjusts the value in the low nibble/high nibble of the Analog 
 263:Generated_Source\PSoC5/Comp_1.c **** *  Comparator trim register
 264:Generated_Source\PSoC5/Comp_1.c **** *
 265:Generated_Source\PSoC5/Comp_1.c **** * Parameters:  
 266:Generated_Source\PSoC5/Comp_1.c **** *  nibble:
 267:Generated_Source\PSoC5/Comp_1.c **** *      0 -- adjusts the value in the low nibble
 268:Generated_Source\PSoC5/Comp_1.c **** *      1 -- adjusts the value in the high nibble
 269:Generated_Source\PSoC5/Comp_1.c **** *
 270:Generated_Source\PSoC5/Comp_1.c **** * Return:
 271:Generated_Source\PSoC5/Comp_1.c **** *  None
 272:Generated_Source\PSoC5/Comp_1.c **** *
 273:Generated_Source\PSoC5/Comp_1.c **** * Theory: 
 274:Generated_Source\PSoC5/Comp_1.c **** *  Function assumes comparator block is setup for trim adjust.
 275:Generated_Source\PSoC5/Comp_1.c **** *  Intended to be called from Comp_ZeroCal()
 276:Generated_Source\PSoC5/Comp_1.c **** * 
 277:Generated_Source\PSoC5/Comp_1.c **** * Side Effects:
 278:Generated_Source\PSoC5/Comp_1.c **** *  Routine uses a course 1ms delay following each trim adjustment to allow 
 279:Generated_Source\PSoC5/Comp_1.c **** *  the comparator output to respond.
 280:Generated_Source\PSoC5/Comp_1.c **** *
 281:Generated_Source\PSoC5/Comp_1.c **** *******************************************************************************/
 282:Generated_Source\PSoC5/Comp_1.c **** static void Comp_1_trimAdjust(uint8 nibble) 
 283:Generated_Source\PSoC5/Comp_1.c **** {
  26              		.loc 1 283 0
  27              		.cfi_startproc
  28              		@ args = 0, pretend = 0, frame = 0
  29              		@ frame_needed = 0, uses_anonymous_args = 0
  30              	.LVL0:
  31 0000 2DE9F041 		push	{r4, r5, r6, r7, r8, lr}
  32              		.cfi_def_cfa_offset 24
  33              		.cfi_offset 4, -24
  34              		.cfi_offset 5, -20
  35              		.cfi_offset 6, -16
  36              		.cfi_offset 7, -12
  37              		.cfi_offset 8, -8
  38              		.cfi_offset 14, -4
 284:Generated_Source\PSoC5/Comp_1.c ****     uint8 trimCnt, trimCntMax;
 285:Generated_Source\PSoC5/Comp_1.c ****     uint8 cmpState;   
 286:Generated_Source\PSoC5/Comp_1.c **** 
 287:Generated_Source\PSoC5/Comp_1.c ****     /* get current state of comparator output */
 288:Generated_Source\PSoC5/Comp_1.c ****     cmpState = Comp_1_WRK & Comp_1_CMP_OUT_MASK;
  39              		.loc 1 288 0
  40 0004 184D     		ldr	r5, .L16
 289:Generated_Source\PSoC5/Comp_1.c ****     
 290:Generated_Source\PSoC5/Comp_1.c ****     if (nibble == 0u)
  41              		.loc 1 290 0
  42 0006 8046     		mov	r8, r0
 288:Generated_Source\PSoC5/Comp_1.c ****     
  43              		.loc 1 288 0
  44 0008 2C78     		ldrb	r4, [r5]	@ zero_extendqisi2
  45 000a 04F00404 		and	r4, r4, #4
  46 000e E4B2     		uxtb	r4, r4
  47              	.LVL1:
  48              		.loc 1 290 0
  49 0010 30B9     		cbnz	r0, .L2
 291:Generated_Source\PSoC5/Comp_1.c ****     {    
 292:Generated_Source\PSoC5/Comp_1.c ****         /* if comparator output is high, negative offset adjust is required */
ARM GAS  C:\Users\Luggi\AppData\Local\Temp\ccuZ9D6R.s 			page 7


 293:Generated_Source\PSoC5/Comp_1.c ****         if ( cmpState != 0u )
  50              		.loc 1 293 0
  51 0012 2CB3     		cbz	r4, .L3
 294:Generated_Source\PSoC5/Comp_1.c ****         {
 295:Generated_Source\PSoC5/Comp_1.c ****             /* PSoC5A */
 296:Generated_Source\PSoC5/Comp_1.c ****             #if (CY_PSOC5A)
 297:Generated_Source\PSoC5/Comp_1.c ****                 Comp_1_TR |= Comp_1_CMP_TRIM1_DIR;
 298:Generated_Source\PSoC5/Comp_1.c ****             #endif /* CY_PSOC5A */
 299:Generated_Source\PSoC5/Comp_1.c ****             
 300:Generated_Source\PSoC5/Comp_1.c ****             /* PSoC3, PSoC5LP or later */
 301:Generated_Source\PSoC5/Comp_1.c ****             #if (CY_PSOC3 || CY_PSOC5LP)
 302:Generated_Source\PSoC5/Comp_1.c ****                 Comp_1_TR0 |= Comp_1_CMP_TR0_DIR;
  52              		.loc 1 302 0
  53 0014 154A     		ldr	r2, .L16+4
  54 0016 1378     		ldrb	r3, [r2]	@ zero_extendqisi2
  55 0018 43F01003 		orr	r3, r3, #16
  56 001c 1370     		strb	r3, [r2]
  57 001e 1FE0     		b	.L3
  58              	.L2:
 303:Generated_Source\PSoC5/Comp_1.c ****             #endif /* CY_PSOC3 || CY_PSOC5LP */
 304:Generated_Source\PSoC5/Comp_1.c ****         }
 305:Generated_Source\PSoC5/Comp_1.c ****     }
 306:Generated_Source\PSoC5/Comp_1.c ****     else
 307:Generated_Source\PSoC5/Comp_1.c ****     {
 308:Generated_Source\PSoC5/Comp_1.c ****         /* if comparator output is low, positive offset adjust is required */
 309:Generated_Source\PSoC5/Comp_1.c ****         if ( cmpState == 0u )
  59              		.loc 1 309 0
  60 0020 24B9     		cbnz	r4, .L4
 310:Generated_Source\PSoC5/Comp_1.c ****         {
 311:Generated_Source\PSoC5/Comp_1.c ****             /* PSoC5A */
 312:Generated_Source\PSoC5/Comp_1.c ****             #if (CY_PSOC5A)
 313:Generated_Source\PSoC5/Comp_1.c ****                 Comp_1_TR |= Comp_1_CMP_TRIM2_DIR; 
 314:Generated_Source\PSoC5/Comp_1.c ****             #endif /* CY_PSOC5A */
 315:Generated_Source\PSoC5/Comp_1.c ****             
 316:Generated_Source\PSoC5/Comp_1.c ****             /* PSoC3, PSoC5LP or later */
 317:Generated_Source\PSoC5/Comp_1.c ****             #if (CY_PSOC3 || CY_PSOC5LP)
 318:Generated_Source\PSoC5/Comp_1.c ****                 Comp_1_TR1 |= Comp_1_CMP_TR1_DIR;
  61              		.loc 1 318 0
  62 0022 134A     		ldr	r2, .L16+8
  63 0024 1378     		ldrb	r3, [r2]	@ zero_extendqisi2
  64 0026 43F01003 		orr	r3, r3, #16
  65 002a 1370     		strb	r3, [r2]
  66              	.L4:
 319:Generated_Source\PSoC5/Comp_1.c ****             #endif /* CY_PSOC3 || CY_PSOC5LP */
 320:Generated_Source\PSoC5/Comp_1.c ****         }
 321:Generated_Source\PSoC5/Comp_1.c ****     }
 322:Generated_Source\PSoC5/Comp_1.c **** 
 323:Generated_Source\PSoC5/Comp_1.c ****     /* Increment trim value until compare output changes state */
 324:Generated_Source\PSoC5/Comp_1.c **** 	
 325:Generated_Source\PSoC5/Comp_1.c ****     /* PSoC5A */
 326:Generated_Source\PSoC5/Comp_1.c **** 	#if (CY_PSOC5A)
 327:Generated_Source\PSoC5/Comp_1.c **** 	    trimCntMax = 7u;
 328:Generated_Source\PSoC5/Comp_1.c ****     #endif
 329:Generated_Source\PSoC5/Comp_1.c **** 	
 330:Generated_Source\PSoC5/Comp_1.c **** 	/* PSoC3, PSoC5LP or later */
 331:Generated_Source\PSoC5/Comp_1.c **** 	#if (CY_PSOC3 || CY_PSOC5LP)
 332:Generated_Source\PSoC5/Comp_1.c ****     	if(nibble == 0u)
ARM GAS  C:\Users\Luggi\AppData\Local\Temp\ccuZ9D6R.s 			page 8


 333:Generated_Source\PSoC5/Comp_1.c ****     	{
 334:Generated_Source\PSoC5/Comp_1.c ****     		trimCntMax = 15u;
 335:Generated_Source\PSoC5/Comp_1.c ****     	}
 336:Generated_Source\PSoC5/Comp_1.c ****     	else
 337:Generated_Source\PSoC5/Comp_1.c ****     	{
 338:Generated_Source\PSoC5/Comp_1.c ****     		trimCntMax = 7u;
  67              		.loc 1 338 0
  68 002c 0727     		movs	r7, #7
  69              	.L9:
  70              	.LVL2:
  71 002e 0026     		movs	r6, #0
  72              	.LVL3:
  73              	.L8:
 339:Generated_Source\PSoC5/Comp_1.c ****     	}
 340:Generated_Source\PSoC5/Comp_1.c **** 	#endif
 341:Generated_Source\PSoC5/Comp_1.c **** 	
 342:Generated_Source\PSoC5/Comp_1.c ****     for ( trimCnt = 0u; trimCnt < trimCntMax; trimCnt++ )
 343:Generated_Source\PSoC5/Comp_1.c **** 	{
 344:Generated_Source\PSoC5/Comp_1.c ****         if (nibble == 0u)
  74              		.loc 1 344 0
  75 0030 B8F1000F 		cmp	r8, #0
  76 0034 01D1     		bne	.L5
 345:Generated_Source\PSoC5/Comp_1.c ****         {
 346:Generated_Source\PSoC5/Comp_1.c ****             /* PSoC5A */
 347:Generated_Source\PSoC5/Comp_1.c ****             #if (CY_PSOC5A)
 348:Generated_Source\PSoC5/Comp_1.c ****                 Comp_1_TR += 1u;
 349:Generated_Source\PSoC5/Comp_1.c ****             #endif /* CY_PSOC5A */
 350:Generated_Source\PSoC5/Comp_1.c ****             
 351:Generated_Source\PSoC5/Comp_1.c ****             /* PSoC3, PSoC5LP or later */
 352:Generated_Source\PSoC5/Comp_1.c ****             #if (CY_PSOC3 || CY_PSOC5LP)
 353:Generated_Source\PSoC5/Comp_1.c ****                 Comp_1_TR0 += 1u;
  77              		.loc 1 353 0
  78 0036 0D4A     		ldr	r2, .L16+4
  79 0038 00E0     		b	.L14
  80              	.L5:
 354:Generated_Source\PSoC5/Comp_1.c ****             #endif /* CY_PSOC3 || CY_PSOC5LP */
 355:Generated_Source\PSoC5/Comp_1.c ****         }
 356:Generated_Source\PSoC5/Comp_1.c ****         else
 357:Generated_Source\PSoC5/Comp_1.c ****         {
 358:Generated_Source\PSoC5/Comp_1.c ****             /* PSoC5A */
 359:Generated_Source\PSoC5/Comp_1.c ****             #if (CY_PSOC5A)
 360:Generated_Source\PSoC5/Comp_1.c ****                 Comp_1_TR += 0x10u;
 361:Generated_Source\PSoC5/Comp_1.c ****             #endif /* CY_PSOC5A */
 362:Generated_Source\PSoC5/Comp_1.c ****             
 363:Generated_Source\PSoC5/Comp_1.c ****             /* PSoC3, PSoC5LP or later */
 364:Generated_Source\PSoC5/Comp_1.c ****             #if (CY_PSOC3 || CY_PSOC5LP)
 365:Generated_Source\PSoC5/Comp_1.c ****                 Comp_1_TR1 += 1u;
  81              		.loc 1 365 0
  82 003a 0D4A     		ldr	r2, .L16+8
  83              	.L14:
  84 003c 1378     		ldrb	r3, [r2]	@ zero_extendqisi2
 366:Generated_Source\PSoC5/Comp_1.c ****             #endif /* CY_PSOC3 || CY_PSOC5LP */
 367:Generated_Source\PSoC5/Comp_1.c ****         }
 368:Generated_Source\PSoC5/Comp_1.c ****         
 369:Generated_Source\PSoC5/Comp_1.c ****         CyDelayUs(10u);
  85              		.loc 1 369 0
  86 003e 0A20     		movs	r0, #10
ARM GAS  C:\Users\Luggi\AppData\Local\Temp\ccuZ9D6R.s 			page 9


 365:Generated_Source\PSoC5/Comp_1.c ****             #endif /* CY_PSOC3 || CY_PSOC5LP */
  87              		.loc 1 365 0
  88 0040 0133     		adds	r3, r3, #1
  89 0042 DBB2     		uxtb	r3, r3
  90 0044 1370     		strb	r3, [r2]
  91              		.loc 1 369 0
  92 0046 FFF7FEFF 		bl	CyDelayUs
  93              	.LVL4:
 370:Generated_Source\PSoC5/Comp_1.c ****         
 371:Generated_Source\PSoC5/Comp_1.c ****         /* Check for change in comparator output */
 372:Generated_Source\PSoC5/Comp_1.c ****         if ((Comp_1_WRK & Comp_1_CMP_OUT_MASK) != cmpState)
  94              		.loc 1 372 0
  95 004a 2B78     		ldrb	r3, [r5]	@ zero_extendqisi2
  96 004c 03F00403 		and	r3, r3, #4
  97 0050 A342     		cmp	r3, r4
  98 0052 07D1     		bne	.L1
  99              	.LVL5:
 100 0054 0136     		adds	r6, r6, #1
 101              	.LVL6:
 342:Generated_Source\PSoC5/Comp_1.c **** 	{
 102              		.loc 1 342 0 discriminator 2
 103 0056 F3B2     		uxtb	r3, r6
 104 0058 BB42     		cmp	r3, r7
 105 005a E9D3     		bcc	.L8
 106 005c BDE8F081 		pop	{r4, r5, r6, r7, r8, pc}
 107              	.LVL7:
 108              	.L3:
 334:Generated_Source\PSoC5/Comp_1.c ****     	}
 109              		.loc 1 334 0
 110 0060 0F27     		movs	r7, #15
 111 0062 E4E7     		b	.L9
 112              	.LVL8:
 113              	.L1:
 114 0064 BDE8F081 		pop	{r4, r5, r6, r7, r8, pc}
 115              	.LVL9:
 116              	.L17:
 117              		.align	2
 118              	.L16:
 119 0068 965B0040 		.word	1073765270
 120 006c 34460040 		.word	1073759796
 121 0070 35460040 		.word	1073759797
 122              		.cfi_endproc
 123              	.LFE6:
 124              		.size	Comp_1_trimAdjust, .-Comp_1_trimAdjust
 125              		.section	.text.Comp_1_Enable,"ax",%progbits
 126              		.align	1
 127              		.global	Comp_1_Enable
 128              		.thumb
 129              		.thumb_func
 130              		.type	Comp_1_Enable, %function
 131              	Comp_1_Enable:
 132              	.LFB1:
 100:Generated_Source\PSoC5/Comp_1.c ****     Comp_1_PWRMGR |= Comp_1_ACT_PWR_EN;
 133              		.loc 1 100 0
 134              		.cfi_startproc
 135              		@ args = 0, pretend = 0, frame = 0
 136              		@ frame_needed = 0, uses_anonymous_args = 0
ARM GAS  C:\Users\Luggi\AppData\Local\Temp\ccuZ9D6R.s 			page 10


 137              		@ link register save eliminated.
 101:Generated_Source\PSoC5/Comp_1.c ****     Comp_1_STBY_PWRMGR |= Comp_1_STBY_PWR_EN;
 138              		.loc 1 101 0
 139 0000 044A     		ldr	r2, .L19
 140 0002 1378     		ldrb	r3, [r2]	@ zero_extendqisi2
 141 0004 43F00403 		orr	r3, r3, #4
 142 0008 1370     		strb	r3, [r2]
 102:Generated_Source\PSoC5/Comp_1.c ****      
 143              		.loc 1 102 0
 144 000a 137C     		ldrb	r3, [r2, #16]	@ zero_extendqisi2
 145 000c 43F00403 		orr	r3, r3, #4
 146 0010 1374     		strb	r3, [r2, #16]
 147 0012 7047     		bx	lr
 148              	.L20:
 149              		.align	2
 150              	.L19:
 151 0014 A7430040 		.word	1073759143
 152              		.cfi_endproc
 153              	.LFE1:
 154              		.size	Comp_1_Enable, .-Comp_1_Enable
 155              		.section	.text.Comp_1_Stop,"ax",%progbits
 156              		.align	1
 157              		.global	Comp_1_Stop
 158              		.thumb
 159              		.thumb_func
 160              		.type	Comp_1_Stop, %function
 161              	Comp_1_Stop:
 162              	.LFB3:
 166:Generated_Source\PSoC5/Comp_1.c ****     /* Disable power to comparator */
 163              		.loc 1 166 0
 164              		.cfi_startproc
 165              		@ args = 0, pretend = 0, frame = 0
 166              		@ frame_needed = 0, uses_anonymous_args = 0
 167              		@ link register save eliminated.
 168:Generated_Source\PSoC5/Comp_1.c ****     Comp_1_STBY_PWRMGR &= (uint8)(~Comp_1_STBY_PWR_EN);
 168              		.loc 1 168 0
 169 0000 044A     		ldr	r2, .L22
 170 0002 1378     		ldrb	r3, [r2]	@ zero_extendqisi2
 171 0004 03F0FB03 		and	r3, r3, #251
 172 0008 1370     		strb	r3, [r2]
 169:Generated_Source\PSoC5/Comp_1.c ****     
 173              		.loc 1 169 0
 174 000a 137C     		ldrb	r3, [r2, #16]	@ zero_extendqisi2
 175 000c 03F0FB03 		and	r3, r3, #251
 176 0010 1374     		strb	r3, [r2, #16]
 177 0012 7047     		bx	lr
 178              	.L23:
 179              		.align	2
 180              	.L22:
 181 0014 A7430040 		.word	1073759143
 182              		.cfi_endproc
 183              	.LFE3:
 184              		.size	Comp_1_Stop, .-Comp_1_Stop
 185              		.section	.text.Comp_1_SetSpeed,"ax",%progbits
 186              		.align	1
 187              		.global	Comp_1_SetSpeed
 188              		.thumb
ARM GAS  C:\Users\Luggi\AppData\Local\Temp\ccuZ9D6R.s 			page 11


 189              		.thumb_func
 190              		.type	Comp_1_SetSpeed, %function
 191              	Comp_1_SetSpeed:
 192              	.LFB4:
 198:Generated_Source\PSoC5/Comp_1.c ****     /* Clear and Set power level */    
 193              		.loc 1 198 0
 194              		.cfi_startproc
 195              		@ args = 0, pretend = 0, frame = 0
 196              		@ frame_needed = 0, uses_anonymous_args = 0
 197              		@ link register save eliminated.
 198              	.LVL10:
 200:Generated_Source\PSoC5/Comp_1.c ****                            (speed & Comp_1_PWR_MODE_MASK);
 199              		.loc 1 200 0
 200 0000 0F4A     		ldr	r2, .L28
 201 0002 00F00301 		and	r1, r0, #3
 202 0006 1378     		ldrb	r3, [r2]	@ zero_extendqisi2
 204:Generated_Source\PSoC5/Comp_1.c ****     {
 203              		.loc 1 204 0
 204 0008 0128     		cmp	r0, #1
 200:Generated_Source\PSoC5/Comp_1.c ****                            (speed & Comp_1_PWR_MODE_MASK);
 205              		.loc 1 200 0
 206 000a 03F0FC03 		and	r3, r3, #252
 207 000e 43EA0103 		orr	r3, r3, r1
 208 0012 1370     		strb	r3, [r2]
 209              	.LBB4:
 210              	.LBB5:
 213:Generated_Source\PSoC5/Comp_1.c ****             Comp_1_TR1 = Comp_1_HS_TRIM_TR1;
 211              		.loc 1 213 0
 212 0014 0BBF     		itete	eq
 213 0016 0B4B     		ldreq	r3, .L28+4
 214              	.LBE5:
 215              	.LBE4:
 226:Generated_Source\PSoC5/Comp_1.c ****             Comp_1_TR1 = Comp_1_LS_TRIM_TR1;
 216              		.loc 1 226 0
 217 0018 0B4B     		ldrne	r3, .L28+8
 218              	.LBB10:
 219              	.LBB6:
 213:Generated_Source\PSoC5/Comp_1.c ****             Comp_1_TR1 = Comp_1_HS_TRIM_TR1;
 220              		.loc 1 213 0
 221 001a 1B78     		ldrbeq	r3, [r3]	@ zero_extendqisi2
 222              	.LBE6:
 223              	.LBE10:
 226:Generated_Source\PSoC5/Comp_1.c ****             Comp_1_TR1 = Comp_1_LS_TRIM_TR1;
 224              		.loc 1 226 0
 225 001c 1B78     		ldrbne	r3, [r3]	@ zero_extendqisi2
 226 001e 0B49     		ldr	r1, .L28+12
 227              	.LBB11:
 228              	.LBB7:
 213:Generated_Source\PSoC5/Comp_1.c ****             Comp_1_TR1 = Comp_1_HS_TRIM_TR1;
 229              		.loc 1 213 0
 230 0020 0BBF     		itete	eq
 231 0022 DBB2     		uxtbeq	r3, r3
 232              	.LBE7:
 233              	.LBE11:
 226:Generated_Source\PSoC5/Comp_1.c ****             Comp_1_TR1 = Comp_1_LS_TRIM_TR1;
 234              		.loc 1 226 0
 235 0024 DBB2     		uxtbne	r3, r3
ARM GAS  C:\Users\Luggi\AppData\Local\Temp\ccuZ9D6R.s 			page 12


 236              	.LBB12:
 237              	.LBB8:
 213:Generated_Source\PSoC5/Comp_1.c ****             Comp_1_TR1 = Comp_1_HS_TRIM_TR1;
 238              		.loc 1 213 0
 239 0026 0B70     		strbeq	r3, [r1]
 240              	.LBE8:
 241              	.LBE12:
 226:Generated_Source\PSoC5/Comp_1.c ****             Comp_1_TR1 = Comp_1_LS_TRIM_TR1;
 242              		.loc 1 226 0
 243 0028 0B70     		strbne	r3, [r1]
 244              	.LBB13:
 245              	.LBB9:
 214:Generated_Source\PSoC5/Comp_1.c ****         #endif /* CY_PSOC3 || CY_PSOC5LP */
 246              		.loc 1 214 0
 247 002a 0CBF     		ite	eq
 248 002c 084B     		ldreq	r3, .L28+16
 249              	.LBE9:
 250              	.LBE13:
 227:Generated_Source\PSoC5/Comp_1.c ****         #endif /* CY_PSOC3 || CY_PSOC5LP */
 251              		.loc 1 227 0
 252 002e 094B     		ldrne	r3, .L28+20
 253 0030 A2F59052 		sub	r2, r2, #4608
 254 0034 1B78     		ldrb	r3, [r3]	@ zero_extendqisi2
 255 0036 0D3A     		subs	r2, r2, #13
 256              	.LVL11:
 257 0038 DBB2     		uxtb	r3, r3
 258 003a 1370     		strb	r3, [r2]
 259 003c 7047     		bx	lr
 260              	.L29:
 261 003e 00BF     		.align	2
 262              	.L28:
 263 0040 42580040 		.word	1073764418
 264 0044 12010049 		.word	1224737042
 265 0048 B1010049 		.word	1224737201
 266 004c 34460040 		.word	1073759796
 267 0050 16010049 		.word	1224737046
 268 0054 B9010049 		.word	1224737209
 269              		.cfi_endproc
 270              	.LFE4:
 271              		.size	Comp_1_SetSpeed, .-Comp_1_SetSpeed
 272              		.section	.text.Comp_1_Init,"ax",%progbits
 273              		.align	1
 274              		.global	Comp_1_Init
 275              		.thumb
 276              		.thumb_func
 277              		.type	Comp_1_Init, %function
 278              	Comp_1_Init:
 279              	.LFB0:
  52:Generated_Source\PSoC5/Comp_1.c ****     /* Set default speed/power */
 280              		.loc 1 52 0
 281              		.cfi_startproc
 282              		@ args = 0, pretend = 0, frame = 0
 283              		@ frame_needed = 0, uses_anonymous_args = 0
 284 0000 08B5     		push	{r3, lr}
 285              		.cfi_def_cfa_offset 8
 286              		.cfi_offset 3, -8
 287              		.cfi_offset 14, -4
ARM GAS  C:\Users\Luggi\AppData\Local\Temp\ccuZ9D6R.s 			page 13


  54:Generated_Source\PSoC5/Comp_1.c **** 
 288              		.loc 1 54 0
 289 0002 0120     		movs	r0, #1
 290 0004 FFF7FEFF 		bl	Comp_1_SetSpeed
 291              	.LVL12:
  60:Generated_Source\PSoC5/Comp_1.c ****     #endif /* Comp_1_DEFAULT_HYSTERESIS == 0u */
 292              		.loc 1 60 0
 293 0008 0C4B     		ldr	r3, .L31
 294 000a 1A78     		ldrb	r2, [r3]	@ zero_extendqisi2
 295 000c 02F0DF02 		and	r2, r2, #223
 296 0010 1A70     		strb	r2, [r3]
  66:Generated_Source\PSoC5/Comp_1.c ****         #else 
 297              		.loc 1 66 0
 298 0012 1A78     		ldrb	r2, [r3]	@ zero_extendqisi2
 299 0014 02F0FB02 		and	r2, r2, #251
 300 0018 1A70     		strb	r2, [r3]
  73:Generated_Source\PSoC5/Comp_1.c **** 
 301              		.loc 1 73 0
 302 001a 1A78     		ldrb	r2, [r3]	@ zero_extendqisi2
 303 001c 42F00802 		orr	r2, r2, #8
 304 0020 1A70     		strb	r2, [r3]
  76:Generated_Source\PSoC5/Comp_1.c ****     #if ( Comp_1_DEFAULT_BYPASS_SYNC == 0u )
 305              		.loc 1 76 0
 306 0022 93F89522 		ldrb	r2, [r3, #661]	@ zero_extendqisi2
 307 0026 02F0E702 		and	r2, r2, #231
 308 002a 83F89522 		strb	r2, [r3, #661]
  78:Generated_Source\PSoC5/Comp_1.c ****     #else
 309              		.loc 1 78 0
 310 002e 93F89522 		ldrb	r2, [r3, #661]	@ zero_extendqisi2
 311 0032 42F00802 		orr	r2, r2, #8
 312 0036 83F89522 		strb	r2, [r3, #661]
  76:Generated_Source\PSoC5/Comp_1.c ****     #if ( Comp_1_DEFAULT_BYPASS_SYNC == 0u )
 313              		.loc 1 76 0
 314 003a 08BD     		pop	{r3, pc}
 315              	.L32:
 316              		.align	2
 317              	.L31:
 318 003c 42580040 		.word	1073764418
 319              		.cfi_endproc
 320              	.LFE0:
 321              		.size	Comp_1_Init, .-Comp_1_Init
 322              		.section	.text.Comp_1_Start,"ax",%progbits
 323              		.align	1
 324              		.global	Comp_1_Start
 325              		.thumb
 326              		.thumb_func
 327              		.type	Comp_1_Start, %function
 328              	Comp_1_Start:
 329              	.LFB2:
 137:Generated_Source\PSoC5/Comp_1.c **** 
 330              		.loc 1 137 0
 331              		.cfi_startproc
 332              		@ args = 0, pretend = 0, frame = 0
 333              		@ frame_needed = 0, uses_anonymous_args = 0
 334 0000 10B5     		push	{r4, lr}
 335              		.cfi_def_cfa_offset 8
 336              		.cfi_offset 4, -8
ARM GAS  C:\Users\Luggi\AppData\Local\Temp\ccuZ9D6R.s 			page 14


 337              		.cfi_offset 14, -4
 139:Generated_Source\PSoC5/Comp_1.c ****     {
 338              		.loc 1 139 0
 339 0002 054C     		ldr	r4, .L35
 340 0004 2378     		ldrb	r3, [r4]	@ zero_extendqisi2
 341 0006 1BB9     		cbnz	r3, .L34
 141:Generated_Source\PSoC5/Comp_1.c ****         
 342              		.loc 1 141 0
 343 0008 FFF7FEFF 		bl	Comp_1_Init
 344              	.LVL13:
 143:Generated_Source\PSoC5/Comp_1.c ****     }   
 345              		.loc 1 143 0
 346 000c 0123     		movs	r3, #1
 347 000e 2370     		strb	r3, [r4]
 348              	.L34:
 148:Generated_Source\PSoC5/Comp_1.c **** 
 349              		.loc 1 148 0
 350 0010 BDE81040 		pop	{r4, lr}
 351              		.cfi_restore 14
 352              		.cfi_restore 4
 353              		.cfi_def_cfa_offset 0
 147:Generated_Source\PSoC5/Comp_1.c **** }
 354              		.loc 1 147 0
 355 0014 FFF7FEBF 		b	Comp_1_Enable
 356              	.LVL14:
 357              	.L36:
 358              		.align	2
 359              	.L35:
 360 0018 00000000 		.word	.LANCHOR0
 361              		.cfi_endproc
 362              	.LFE2:
 363              		.size	Comp_1_Start, .-Comp_1_Start
 364              		.section	.text.Comp_1_GetCompare,"ax",%progbits
 365              		.align	1
 366              		.global	Comp_1_GetCompare
 367              		.thumb
 368              		.thumb_func
 369              		.type	Comp_1_GetCompare, %function
 370              	Comp_1_GetCompare:
 371              	.LFB5:
 252:Generated_Source\PSoC5/Comp_1.c ****     return( Comp_1_WRK & Comp_1_CMP_OUT_MASK);
 372              		.loc 1 252 0
 373              		.cfi_startproc
 374              		@ args = 0, pretend = 0, frame = 0
 375              		@ frame_needed = 0, uses_anonymous_args = 0
 376              		@ link register save eliminated.
 253:Generated_Source\PSoC5/Comp_1.c **** }
 377              		.loc 1 253 0
 378 0000 024B     		ldr	r3, .L38
 379 0002 1878     		ldrb	r0, [r3]	@ zero_extendqisi2
 254:Generated_Source\PSoC5/Comp_1.c **** 
 380              		.loc 1 254 0
 381 0004 00F00400 		and	r0, r0, #4
 382 0008 7047     		bx	lr
 383              	.L39:
 384 000a 00BF     		.align	2
 385              	.L38:
ARM GAS  C:\Users\Luggi\AppData\Local\Temp\ccuZ9D6R.s 			page 15


 386 000c 965B0040 		.word	1073765270
 387              		.cfi_endproc
 388              	.LFE5:
 389              		.size	Comp_1_GetCompare, .-Comp_1_GetCompare
 390              		.section	.text.Comp_1_ZeroCal,"ax",%progbits
 391              		.align	1
 392              		.global	Comp_1_ZeroCal
 393              		.thumb
 394              		.thumb_func
 395              		.type	Comp_1_ZeroCal, %function
 396              	Comp_1_ZeroCal:
 397              	.LFB7:
 373:Generated_Source\PSoC5/Comp_1.c ****         {
 374:Generated_Source\PSoC5/Comp_1.c ****             break;      /* output changed state, trim phase is complete */
 375:Generated_Source\PSoC5/Comp_1.c ****         }        
 376:Generated_Source\PSoC5/Comp_1.c ****     }    
 377:Generated_Source\PSoC5/Comp_1.c **** }
 378:Generated_Source\PSoC5/Comp_1.c **** 
 379:Generated_Source\PSoC5/Comp_1.c **** 
 380:Generated_Source\PSoC5/Comp_1.c **** /*******************************************************************************
 381:Generated_Source\PSoC5/Comp_1.c **** * Function Name: Comp_1_ZeroCal
 382:Generated_Source\PSoC5/Comp_1.c **** ********************************************************************************
 383:Generated_Source\PSoC5/Comp_1.c **** *
 384:Generated_Source\PSoC5/Comp_1.c **** * Summary:
 385:Generated_Source\PSoC5/Comp_1.c **** *  This function calibrates the offset of the Analog Comparator.
 386:Generated_Source\PSoC5/Comp_1.c **** *
 387:Generated_Source\PSoC5/Comp_1.c **** * Parameters:
 388:Generated_Source\PSoC5/Comp_1.c **** *  None
 389:Generated_Source\PSoC5/Comp_1.c **** *
 390:Generated_Source\PSoC5/Comp_1.c **** * Return:
 391:Generated_Source\PSoC5/Comp_1.c **** *  (uint16)  value written in trim register when calibration complete.
 392:Generated_Source\PSoC5/Comp_1.c **** *
 393:Generated_Source\PSoC5/Comp_1.c **** * Theory: 
 394:Generated_Source\PSoC5/Comp_1.c **** *  This function is used to optimize the calibration for user specific voltage
 395:Generated_Source\PSoC5/Comp_1.c **** *  range.  The comparator trim is adjusted to counter transistor offsets
 396:Generated_Source\PSoC5/Comp_1.c **** *   - offset is defined as positive if the output transitions to high before inP
 397:Generated_Source\PSoC5/Comp_1.c **** *     is greater than inN
 398:Generated_Source\PSoC5/Comp_1.c **** *   - offset is defined as negative if the output transitions to high after inP
 399:Generated_Source\PSoC5/Comp_1.c **** *     is greater than inP
 400:Generated_Source\PSoC5/Comp_1.c **** *
 401:Generated_Source\PSoC5/Comp_1.c **** *  PSoC5A
 402:Generated_Source\PSoC5/Comp_1.c **** *  The Analog Comparator provides 1 byte for offset trim.  The byte contains two
 403:Generated_Source\PSoC5/Comp_1.c **** *  4 bit trim fields - one is a course trim and the other allows smaller
 404:Generated_Source\PSoC5/Comp_1.c **** *  offset adjustments only for slow modes.
 405:Generated_Source\PSoC5/Comp_1.c **** *  - low nibble - fine trim
 406:Generated_Source\PSoC5/Comp_1.c **** *  - high nibble - course trim
 407:Generated_Source\PSoC5/Comp_1.c **** *  PSoC3, PSoC5LP or later
 408:Generated_Source\PSoC5/Comp_1.c **** *  The Analog Comparator provides 2 bytes for offset trim.  The bytes contain two
 409:Generated_Source\PSoC5/Comp_1.c **** *  5 bit trim fields - one is a course trim and the other allows smaller
 410:Generated_Source\PSoC5/Comp_1.c **** *  offset adjustments only for slow modes.
 411:Generated_Source\PSoC5/Comp_1.c **** *  - TR0 - fine trim
 412:Generated_Source\PSoC5/Comp_1.c **** *  - TR1 - course trim
 413:Generated_Source\PSoC5/Comp_1.c **** *
 414:Generated_Source\PSoC5/Comp_1.c **** *  Trim algorithm is a two phase process
 415:Generated_Source\PSoC5/Comp_1.c **** *  The first phase performs course offset adjustment
 416:Generated_Source\PSoC5/Comp_1.c **** *  The second phase serves one of two purposes depending on the outcome of the
 417:Generated_Source\PSoC5/Comp_1.c **** *  first phase
ARM GAS  C:\Users\Luggi\AppData\Local\Temp\ccuZ9D6R.s 			page 16


 418:Generated_Source\PSoC5/Comp_1.c **** *  - if the first trim value was maxed out without a comparator output 
 419:Generated_Source\PSoC5/Comp_1.c **** *    transition, more offset will be added by adjusting the second trim value.
 420:Generated_Source\PSoC5/Comp_1.c **** *  - if the first trim phase resulted in a comparator output transition, the
 421:Generated_Source\PSoC5/Comp_1.c **** *    second trim value will serve as fine trim (in the opposite direction)to
 422:Generated_Source\PSoC5/Comp_1.c **** *    ensure the offset is < 1 mV.
 423:Generated_Source\PSoC5/Comp_1.c **** *
 424:Generated_Source\PSoC5/Comp_1.c **** * Trim Process:   
 425:Generated_Source\PSoC5/Comp_1.c **** *  1) User applies a voltage to the negative input.  Voltage should be in the
 426:Generated_Source\PSoC5/Comp_1.c **** *     comparator operating range or an average of the operating voltage range.
 427:Generated_Source\PSoC5/Comp_1.c **** *  2) Clear registers associated with analog routing to the positive input.
 428:Generated_Source\PSoC5/Comp_1.c **** *  3) Disable Hysteresis
 429:Generated_Source\PSoC5/Comp_1.c **** *  4) Set the calibration bit to short the negative and positive inputs to
 430:Generated_Source\PSoC5/Comp_1.c **** *     the users calibration voltage.
 431:Generated_Source\PSoC5/Comp_1.c **** *  5) Clear the TR register  ( TR = 0x00 )
 432:Generated_Source\PSoC5/Comp_1.c **** *  ** LOW MODES
 433:Generated_Source\PSoC5/Comp_1.c **** *  6) Check if compare output is high, if so, set the MSb of course trim field 
 434:Generated_Source\PSoC5/Comp_1.c **** *     to a 1.
 435:Generated_Source\PSoC5/Comp_1.c **** *  7) Increment the course trim field until the compare output changes
 436:Generated_Source\PSoC5/Comp_1.c **** *  8) Check if compare output is low, if so, set the MSb of fine trim field
 437:Generated_Source\PSoC5/Comp_1.c **** *     to a 1.
 438:Generated_Source\PSoC5/Comp_1.c **** *  9) Increment the fine trim field until the compare output changes
 439:Generated_Source\PSoC5/Comp_1.c **** *  ** FAST MODE - skip the steps 8,9
 440:Generated_Source\PSoC5/Comp_1.c **** *
 441:Generated_Source\PSoC5/Comp_1.c **** * Side Effects:
 442:Generated_Source\PSoC5/Comp_1.c **** *  Routine clears analog routing associated with the comparator positive input.  
 443:Generated_Source\PSoC5/Comp_1.c **** *  This may affect routing of signals from other components that are connected
 444:Generated_Source\PSoC5/Comp_1.c **** *  to the positive input of the comparator.
 445:Generated_Source\PSoC5/Comp_1.c **** *
 446:Generated_Source\PSoC5/Comp_1.c **** *******************************************************************************/
 447:Generated_Source\PSoC5/Comp_1.c **** uint16 Comp_1_ZeroCal(void) 
 448:Generated_Source\PSoC5/Comp_1.c **** {
 398              		.loc 1 448 0
 399              		.cfi_startproc
 400              		@ args = 0, pretend = 0, frame = 16
 401              		@ frame_needed = 0, uses_anonymous_args = 0
 402 0000 2DE9F04F 		push	{r4, r5, r6, r7, r8, r9, r10, fp, lr}
 403              		.cfi_def_cfa_offset 36
 404              		.cfi_offset 4, -36
 405              		.cfi_offset 5, -32
 406              		.cfi_offset 6, -28
 407              		.cfi_offset 7, -24
 408              		.cfi_offset 8, -20
 409              		.cfi_offset 9, -16
 410              		.cfi_offset 10, -12
 411              		.cfi_offset 11, -8
 412              		.cfi_offset 14, -4
 449:Generated_Source\PSoC5/Comp_1.c ****     uint8 tmpSW0;
 450:Generated_Source\PSoC5/Comp_1.c ****     uint8 tmpSW2;
 451:Generated_Source\PSoC5/Comp_1.c ****     uint8 tmpSW3;
 452:Generated_Source\PSoC5/Comp_1.c ****     uint8 tmpCR;
 453:Generated_Source\PSoC5/Comp_1.c **** 
 454:Generated_Source\PSoC5/Comp_1.c ****     /* Save a copy of routing registers associated with inP */
 455:Generated_Source\PSoC5/Comp_1.c ****     tmpSW0 = Comp_1_SW0;
 456:Generated_Source\PSoC5/Comp_1.c ****     tmpSW2 = Comp_1_SW2;
 457:Generated_Source\PSoC5/Comp_1.c ****     tmpSW3 = Comp_1_SW3;
 413              		.loc 1 457 0
 414 0004 214A     		ldr	r2, .L44
ARM GAS  C:\Users\Luggi\AppData\Local\Temp\ccuZ9D6R.s 			page 17


 455:Generated_Source\PSoC5/Comp_1.c ****     tmpSW2 = Comp_1_SW2;
 415              		.loc 1 455 0
 416 0006 224E     		ldr	r6, .L44+4
 456:Generated_Source\PSoC5/Comp_1.c ****     tmpSW3 = Comp_1_SW3;
 417              		.loc 1 456 0
 418 0008 224D     		ldr	r5, .L44+8
 455:Generated_Source\PSoC5/Comp_1.c ****     tmpSW2 = Comp_1_SW2;
 419              		.loc 1 455 0
 420 000a 96F800A0 		ldrb	r10, [r6]	@ zero_extendqisi2
 456:Generated_Source\PSoC5/Comp_1.c ****     tmpSW3 = Comp_1_SW3;
 421              		.loc 1 456 0
 422 000e 95F80090 		ldrb	r9, [r5]	@ zero_extendqisi2
 423              		.loc 1 457 0
 424 0012 92F80080 		ldrb	r8, [r2]	@ zero_extendqisi2
 458:Generated_Source\PSoC5/Comp_1.c **** 
 459:Generated_Source\PSoC5/Comp_1.c ****      /* Clear routing for inP, retain routing for inN */
 460:Generated_Source\PSoC5/Comp_1.c ****     Comp_1_SW0 = 0x00u;
 425              		.loc 1 460 0
 426 0016 0023     		movs	r3, #0
 457:Generated_Source\PSoC5/Comp_1.c **** 
 427              		.loc 1 457 0
 428 0018 5FFA88F8 		uxtb	r8, r8
 461:Generated_Source\PSoC5/Comp_1.c ****     Comp_1_SW2 = 0x00u;
 462:Generated_Source\PSoC5/Comp_1.c ****     Comp_1_SW3 = tmpSW3 & (uint8)(~Comp_1_CMP_SW3_INPCTL_MASK);
 463:Generated_Source\PSoC5/Comp_1.c **** 
 464:Generated_Source\PSoC5/Comp_1.c ****     /* Preserve original configuration
 465:Generated_Source\PSoC5/Comp_1.c ****      * - turn off Hysteresis
 466:Generated_Source\PSoC5/Comp_1.c ****      * - set calibration bit - shorts inN to inP
 467:Generated_Source\PSoC5/Comp_1.c ****     */
 468:Generated_Source\PSoC5/Comp_1.c ****     tmpCR = Comp_1_CR;
 429              		.loc 1 468 0
 430 001c 1E4C     		ldr	r4, .L44+12
 462:Generated_Source\PSoC5/Comp_1.c **** 
 431              		.loc 1 462 0
 432 001e 08F0F601 		and	r1, r8, #246
 460:Generated_Source\PSoC5/Comp_1.c ****     Comp_1_SW2 = 0x00u;
 433              		.loc 1 460 0
 434 0022 3370     		strb	r3, [r6]
 461:Generated_Source\PSoC5/Comp_1.c ****     Comp_1_SW2 = 0x00u;
 435              		.loc 1 461 0
 436 0024 2B70     		strb	r3, [r5]
 462:Generated_Source\PSoC5/Comp_1.c **** 
 437              		.loc 1 462 0
 438 0026 1170     		strb	r1, [r2]
 439              		.loc 1 468 0
 440 0028 94F800B0 		ldrb	fp, [r4]	@ zero_extendqisi2
 469:Generated_Source\PSoC5/Comp_1.c ****     Comp_1_CR |= (Comp_1_CAL_ON | Comp_1_HYST_OFF);
 441              		.loc 1 469 0
 442 002c 2178     		ldrb	r1, [r4]	@ zero_extendqisi2
 470:Generated_Source\PSoC5/Comp_1.c ****     
 471:Generated_Source\PSoC5/Comp_1.c ****     /* Write default low values to trim register - no offset adjust */
 472:Generated_Source\PSoC5/Comp_1.c ****     /* PSoC5A */
 473:Generated_Source\PSoC5/Comp_1.c ****     #if (CY_PSOC5A)
 474:Generated_Source\PSoC5/Comp_1.c ****         Comp_1_TR = Comp_1_DEFAULT_CMP_TRIM;
 475:Generated_Source\PSoC5/Comp_1.c ****     #endif /* CY_PSOC5A */
 476:Generated_Source\PSoC5/Comp_1.c ****     
 477:Generated_Source\PSoC5/Comp_1.c ****     /* PSoC3, PSoC5LP or later */
ARM GAS  C:\Users\Luggi\AppData\Local\Temp\ccuZ9D6R.s 			page 18


 478:Generated_Source\PSoC5/Comp_1.c ****     #if (CY_PSOC3 || CY_PSOC5LP)
 479:Generated_Source\PSoC5/Comp_1.c ****         Comp_1_TR0 = Comp_1_DEFAULT_CMP_TRIM;
 480:Generated_Source\PSoC5/Comp_1.c ****         Comp_1_TR1 = Comp_1_DEFAULT_CMP_TRIM;
 443              		.loc 1 480 0
 444 002e 1B4F     		ldr	r7, .L44+16
 469:Generated_Source\PSoC5/Comp_1.c ****     Comp_1_CR |= (Comp_1_CAL_ON | Comp_1_HYST_OFF);
 445              		.loc 1 469 0
 446 0030 41F03001 		orr	r1, r1, #48
 447 0034 2170     		strb	r1, [r4]
 479:Generated_Source\PSoC5/Comp_1.c ****         Comp_1_TR1 = Comp_1_DEFAULT_CMP_TRIM;
 448              		.loc 1 479 0
 449 0036 1A49     		ldr	r1, .L44+20
 448:Generated_Source\PSoC5/Comp_1.c ****     uint8 tmpSW0;
 450              		.loc 1 448 0
 451 0038 85B0     		sub	sp, sp, #20
 452              		.cfi_def_cfa_offset 56
 479:Generated_Source\PSoC5/Comp_1.c ****         Comp_1_TR1 = Comp_1_DEFAULT_CMP_TRIM;
 453              		.loc 1 479 0
 454 003a 0B70     		strb	r3, [r1]
 455              		.loc 1 480 0
 456 003c 3B70     		strb	r3, [r7]
 481:Generated_Source\PSoC5/Comp_1.c ****     #endif /* CY_PSOC3 || CY_PSOC5LP */
 482:Generated_Source\PSoC5/Comp_1.c **** 	
 483:Generated_Source\PSoC5/Comp_1.c **** 	/* Two phase trim - slow modes, one phase trim - for fast */ 
 484:Generated_Source\PSoC5/Comp_1.c ****     if ( (Comp_1_CR & Comp_1_PWR_MODE_MASK) == Comp_1_PWR_MODE_FAST)
 457              		.loc 1 484 0
 458 003e 2078     		ldrb	r0, [r4]	@ zero_extendqisi2
 455:Generated_Source\PSoC5/Comp_1.c ****     tmpSW2 = Comp_1_SW2;
 459              		.loc 1 455 0
 460 0040 5FFA8AFA 		uxtb	r10, r10
 461              	.LVL15:
 462              		.loc 1 484 0
 463 0044 00F00300 		and	r0, r0, #3
 464 0048 0128     		cmp	r0, #1
 456:Generated_Source\PSoC5/Comp_1.c ****     tmpSW3 = Comp_1_SW3;
 465              		.loc 1 456 0
 466 004a 5FFA89F9 		uxtb	r9, r9
 467              	.LVL16:
 468:Generated_Source\PSoC5/Comp_1.c ****     Comp_1_CR |= (Comp_1_CAL_ON | Comp_1_HYST_OFF);
 468              		.loc 1 468 0
 469 004e 5FFA8BFB 		uxtb	fp, fp
 470              	.LVL17:
 471 0052 0192     		str	r2, [sp, #4]
 472 0054 0291     		str	r1, [sp, #8]
 473              		.loc 1 484 0
 474 0056 04D0     		beq	.L43
 485:Generated_Source\PSoC5/Comp_1.c ****     {
 486:Generated_Source\PSoC5/Comp_1.c ****         Comp_1_trimAdjust(0u);
 487:Generated_Source\PSoC5/Comp_1.c ****     }
 488:Generated_Source\PSoC5/Comp_1.c ****     else /* default to trim for fast modes */
 489:Generated_Source\PSoC5/Comp_1.c ****     {
 490:Generated_Source\PSoC5/Comp_1.c ****         Comp_1_trimAdjust(1u);
 475              		.loc 1 490 0
 476 0058 0120     		movs	r0, #1
 477 005a 0393     		str	r3, [sp, #12]
 478 005c FFF7FEFF 		bl	Comp_1_trimAdjust
 479              	.LVL18:
ARM GAS  C:\Users\Luggi\AppData\Local\Temp\ccuZ9D6R.s 			page 19


 491:Generated_Source\PSoC5/Comp_1.c **** 		Comp_1_trimAdjust(0u);
 480              		.loc 1 491 0
 481 0060 039B     		ldr	r3, [sp, #12]
 482              	.L43:
 483 0062 1846     		mov	r0, r3
 484 0064 FFF7FEFF 		bl	Comp_1_trimAdjust
 485              	.LVL19:
 492:Generated_Source\PSoC5/Comp_1.c ****     }
 493:Generated_Source\PSoC5/Comp_1.c ****    
 494:Generated_Source\PSoC5/Comp_1.c ****     /* Restore Config Register */
 495:Generated_Source\PSoC5/Comp_1.c ****     Comp_1_CR = tmpCR;
 486              		.loc 1 495 0
 487 0068 84F800B0 		strb	fp, [r4]
 496:Generated_Source\PSoC5/Comp_1.c ****     
 497:Generated_Source\PSoC5/Comp_1.c ****     /* Restore routing registers for inP */
 498:Generated_Source\PSoC5/Comp_1.c ****     Comp_1_SW0 = tmpSW0;
 488              		.loc 1 498 0
 489 006c 86F800A0 		strb	r10, [r6]
 499:Generated_Source\PSoC5/Comp_1.c ****     Comp_1_SW2 = tmpSW2;
 490              		.loc 1 499 0
 491 0070 85F80090 		strb	r9, [r5]
 500:Generated_Source\PSoC5/Comp_1.c ****     Comp_1_SW3 = tmpSW3;
 492              		.loc 1 500 0
 493 0074 019B     		ldr	r3, [sp, #4]
 494 0076 83F80080 		strb	r8, [r3]
 501:Generated_Source\PSoC5/Comp_1.c ****     
 502:Generated_Source\PSoC5/Comp_1.c ****     /* PSoC5A */
 503:Generated_Source\PSoC5/Comp_1.c ****     #if (CY_PSOC5A)
 504:Generated_Source\PSoC5/Comp_1.c ****         return (uint16) Comp_1_TR;
 505:Generated_Source\PSoC5/Comp_1.c ****     #endif /* CY_PSOC5A */
 506:Generated_Source\PSoC5/Comp_1.c ****     
 507:Generated_Source\PSoC5/Comp_1.c ****     /* PSoC3, PSoC5LP or later */
 508:Generated_Source\PSoC5/Comp_1.c ****     #if (CY_PSOC3 || CY_PSOC5LP)
 509:Generated_Source\PSoC5/Comp_1.c ****         return ((uint16)((uint16)Comp_1_TR1 << 8u) | (Comp_1_TR0));        
 495              		.loc 1 509 0
 496 007a 029B     		ldr	r3, [sp, #8]
 497 007c 3878     		ldrb	r0, [r7]	@ zero_extendqisi2
 498 007e 1B78     		ldrb	r3, [r3]	@ zero_extendqisi2
 510:Generated_Source\PSoC5/Comp_1.c ****     #endif /* CY_PSOC3 || CY_PSOC5LP */
 511:Generated_Source\PSoC5/Comp_1.c **** }
 499              		.loc 1 511 0
 500 0080 43EA0020 		orr	r0, r3, r0, lsl #8
 501 0084 05B0     		add	sp, sp, #20
 502              		.cfi_def_cfa_offset 36
 503              		@ sp needed
 504 0086 BDE8F08F 		pop	{r4, r5, r6, r7, r8, r9, r10, fp, pc}
 505              	.LVL20:
 506              	.L45:
 507 008a 00BF     		.align	2
 508              	.L44:
 509 008c D35A0040 		.word	1073765075
 510 0090 D05A0040 		.word	1073765072
 511 0094 D25A0040 		.word	1073765074
 512 0098 42580040 		.word	1073764418
 513 009c 35460040 		.word	1073759797
 514 00a0 34460040 		.word	1073759796
 515              		.cfi_endproc
ARM GAS  C:\Users\Luggi\AppData\Local\Temp\ccuZ9D6R.s 			page 20


 516              	.LFE7:
 517              		.size	Comp_1_ZeroCal, .-Comp_1_ZeroCal
 518              		.section	.text.Comp_1_LoadTrim,"ax",%progbits
 519              		.align	1
 520              		.global	Comp_1_LoadTrim
 521              		.thumb
 522              		.thumb_func
 523              		.type	Comp_1_LoadTrim, %function
 524              	Comp_1_LoadTrim:
 525              	.LFB8:
 512:Generated_Source\PSoC5/Comp_1.c **** 
 513:Generated_Source\PSoC5/Comp_1.c **** 
 514:Generated_Source\PSoC5/Comp_1.c **** /*******************************************************************************
 515:Generated_Source\PSoC5/Comp_1.c **** * Function Name: Comp_1_LoadTrim
 516:Generated_Source\PSoC5/Comp_1.c **** ********************************************************************************
 517:Generated_Source\PSoC5/Comp_1.c **** *
 518:Generated_Source\PSoC5/Comp_1.c **** * Summary:
 519:Generated_Source\PSoC5/Comp_1.c **** *  This function stores a value in the Analog Comparator trim register.
 520:Generated_Source\PSoC5/Comp_1.c **** *
 521:Generated_Source\PSoC5/Comp_1.c **** * Parameters:  
 522:Generated_Source\PSoC5/Comp_1.c **** *  uint8 trimVal - trim value.  This value is the same format as the value 
 523:Generated_Source\PSoC5/Comp_1.c **** *  returned by the _ZeroCal routine.
 524:Generated_Source\PSoC5/Comp_1.c **** *
 525:Generated_Source\PSoC5/Comp_1.c **** * Return:
 526:Generated_Source\PSoC5/Comp_1.c **** *  None
 527:Generated_Source\PSoC5/Comp_1.c **** *
 528:Generated_Source\PSoC5/Comp_1.c **** *******************************************************************************/
 529:Generated_Source\PSoC5/Comp_1.c **** void Comp_1_LoadTrim(uint16 trimVal) 
 530:Generated_Source\PSoC5/Comp_1.c **** {
 526              		.loc 1 530 0
 527              		.cfi_startproc
 528              		@ args = 0, pretend = 0, frame = 0
 529              		@ frame_needed = 0, uses_anonymous_args = 0
 530              		@ link register save eliminated.
 531              	.LVL21:
 531:Generated_Source\PSoC5/Comp_1.c ****     /* Stores value in the Analog Comparator trim register */
 532:Generated_Source\PSoC5/Comp_1.c ****     /* PSoC5A */
 533:Generated_Source\PSoC5/Comp_1.c ****     #if (CY_PSOC5A)
 534:Generated_Source\PSoC5/Comp_1.c ****         Comp_1_TR = (uint8) trimVal;
 535:Generated_Source\PSoC5/Comp_1.c ****     #endif /* CY_PSOC5A */
 536:Generated_Source\PSoC5/Comp_1.c ****     
 537:Generated_Source\PSoC5/Comp_1.c ****     /* PSoC3, PSoC5LP or later */
 538:Generated_Source\PSoC5/Comp_1.c ****     #if (CY_PSOC3 || CY_PSOC5LP)
 539:Generated_Source\PSoC5/Comp_1.c ****         /* Stores value in the Analog Comparator trim register for P-type load */
 540:Generated_Source\PSoC5/Comp_1.c ****         Comp_1_TR0 = (uint8) trimVal;
 532              		.loc 1 540 0
 533 0000 024B     		ldr	r3, .L47
 534 0002 C2B2     		uxtb	r2, r0
 541:Generated_Source\PSoC5/Comp_1.c ****         
 542:Generated_Source\PSoC5/Comp_1.c ****         /* Stores value in the Analog Comparator trim register for N-type load */
 543:Generated_Source\PSoC5/Comp_1.c ****         Comp_1_TR1 = (uint8) (trimVal >> 8); 
 535              		.loc 1 543 0
 536 0004 000A     		lsrs	r0, r0, #8
 537              	.LVL22:
 540:Generated_Source\PSoC5/Comp_1.c ****         
 538              		.loc 1 540 0
 539 0006 1A70     		strb	r2, [r3]
ARM GAS  C:\Users\Luggi\AppData\Local\Temp\ccuZ9D6R.s 			page 21


 540              		.loc 1 543 0
 541 0008 5870     		strb	r0, [r3, #1]
 542 000a 7047     		bx	lr
 543              	.L48:
 544              		.align	2
 545              	.L47:
 546 000c 34460040 		.word	1073759796
 547              		.cfi_endproc
 548              	.LFE8:
 549              		.size	Comp_1_LoadTrim, .-Comp_1_LoadTrim
 550              		.section	.text.Comp_1_PwrDwnOverrideEnable,"ax",%progbits
 551              		.align	1
 552              		.global	Comp_1_PwrDwnOverrideEnable
 553              		.thumb
 554              		.thumb_func
 555              		.type	Comp_1_PwrDwnOverrideEnable, %function
 556              	Comp_1_PwrDwnOverrideEnable:
 557              	.LFB9:
 544:Generated_Source\PSoC5/Comp_1.c ****     #endif /* CY_PSOC3 || CY_PSOC5LP */
 545:Generated_Source\PSoC5/Comp_1.c **** }
 546:Generated_Source\PSoC5/Comp_1.c **** 
 547:Generated_Source\PSoC5/Comp_1.c **** 
 548:Generated_Source\PSoC5/Comp_1.c **** #if (CY_PSOC3 || CY_PSOC5LP)
 549:Generated_Source\PSoC5/Comp_1.c **** 
 550:Generated_Source\PSoC5/Comp_1.c ****     /*******************************************************************************
 551:Generated_Source\PSoC5/Comp_1.c ****     * Function Name: Comp_1_PwrDwnOverrideEnable
 552:Generated_Source\PSoC5/Comp_1.c ****     ********************************************************************************
 553:Generated_Source\PSoC5/Comp_1.c ****     *
 554:Generated_Source\PSoC5/Comp_1.c ****     * Summary:
 555:Generated_Source\PSoC5/Comp_1.c ****     *  This is the power down over-ride feature. This function ignores sleep 
 556:Generated_Source\PSoC5/Comp_1.c ****     *  parameter and allows the component to stay active during sleep mode.
 557:Generated_Source\PSoC5/Comp_1.c ****     *
 558:Generated_Source\PSoC5/Comp_1.c ****     * Parameters:
 559:Generated_Source\PSoC5/Comp_1.c ****     *  None
 560:Generated_Source\PSoC5/Comp_1.c ****     *
 561:Generated_Source\PSoC5/Comp_1.c ****     * Return:
 562:Generated_Source\PSoC5/Comp_1.c ****     *  None
 563:Generated_Source\PSoC5/Comp_1.c ****     *
 564:Generated_Source\PSoC5/Comp_1.c ****     *******************************************************************************/
 565:Generated_Source\PSoC5/Comp_1.c ****     void Comp_1_PwrDwnOverrideEnable(void) 
 566:Generated_Source\PSoC5/Comp_1.c ****     {
 558              		.loc 1 566 0
 559              		.cfi_startproc
 560              		@ args = 0, pretend = 0, frame = 0
 561              		@ frame_needed = 0, uses_anonymous_args = 0
 562              		@ link register save eliminated.
 567:Generated_Source\PSoC5/Comp_1.c ****         /* Set the pd_override bit in CMP_CR register */
 568:Generated_Source\PSoC5/Comp_1.c ****         Comp_1_CR |= Comp_1_PWRDWN_OVRD;
 563              		.loc 1 568 0
 564 0000 024A     		ldr	r2, .L50
 565 0002 1378     		ldrb	r3, [r2]	@ zero_extendqisi2
 566 0004 43F00403 		orr	r3, r3, #4
 567 0008 1370     		strb	r3, [r2]
 568 000a 7047     		bx	lr
 569              	.L51:
 570              		.align	2
 571              	.L50:
ARM GAS  C:\Users\Luggi\AppData\Local\Temp\ccuZ9D6R.s 			page 22


 572 000c 42580040 		.word	1073764418
 573              		.cfi_endproc
 574              	.LFE9:
 575              		.size	Comp_1_PwrDwnOverrideEnable, .-Comp_1_PwrDwnOverrideEnable
 576              		.section	.text.Comp_1_PwrDwnOverrideDisable,"ax",%progbits
 577              		.align	1
 578              		.global	Comp_1_PwrDwnOverrideDisable
 579              		.thumb
 580              		.thumb_func
 581              		.type	Comp_1_PwrDwnOverrideDisable, %function
 582              	Comp_1_PwrDwnOverrideDisable:
 583              	.LFB10:
 569:Generated_Source\PSoC5/Comp_1.c ****     }
 570:Generated_Source\PSoC5/Comp_1.c **** 
 571:Generated_Source\PSoC5/Comp_1.c **** 
 572:Generated_Source\PSoC5/Comp_1.c ****     /*******************************************************************************
 573:Generated_Source\PSoC5/Comp_1.c ****     * Function Name: Comp_1_PwrDwnOverrideDisable
 574:Generated_Source\PSoC5/Comp_1.c ****     ********************************************************************************
 575:Generated_Source\PSoC5/Comp_1.c ****     *
 576:Generated_Source\PSoC5/Comp_1.c ****     * Summary:
 577:Generated_Source\PSoC5/Comp_1.c ****     *  This is the power down over-ride feature. This allows the component to stay
 578:Generated_Source\PSoC5/Comp_1.c ****     *  inactive during sleep.
 579:Generated_Source\PSoC5/Comp_1.c ****     *
 580:Generated_Source\PSoC5/Comp_1.c ****     * Parameters:
 581:Generated_Source\PSoC5/Comp_1.c ****     *  None
 582:Generated_Source\PSoC5/Comp_1.c ****     *
 583:Generated_Source\PSoC5/Comp_1.c ****     * Return:
 584:Generated_Source\PSoC5/Comp_1.c ****     *  None
 585:Generated_Source\PSoC5/Comp_1.c ****     *
 586:Generated_Source\PSoC5/Comp_1.c ****     *******************************************************************************/
 587:Generated_Source\PSoC5/Comp_1.c ****     void Comp_1_PwrDwnOverrideDisable(void) 
 588:Generated_Source\PSoC5/Comp_1.c ****     {
 584              		.loc 1 588 0
 585              		.cfi_startproc
 586              		@ args = 0, pretend = 0, frame = 0
 587              		@ frame_needed = 0, uses_anonymous_args = 0
 588              		@ link register save eliminated.
 589:Generated_Source\PSoC5/Comp_1.c ****         /* Reset the pd_override bit in CMP_CR register */
 590:Generated_Source\PSoC5/Comp_1.c ****         Comp_1_CR &= (uint8)(~Comp_1_PWRDWN_OVRD);
 589              		.loc 1 590 0
 590 0000 024A     		ldr	r2, .L53
 591 0002 1378     		ldrb	r3, [r2]	@ zero_extendqisi2
 592 0004 03F0FB03 		and	r3, r3, #251
 593 0008 1370     		strb	r3, [r2]
 594 000a 7047     		bx	lr
 595              	.L54:
 596              		.align	2
 597              	.L53:
 598 000c 42580040 		.word	1073764418
 599              		.cfi_endproc
 600              	.LFE10:
 601              		.size	Comp_1_PwrDwnOverrideDisable, .-Comp_1_PwrDwnOverrideDisable
 602              		.global	Comp_1_initVar
 603              		.bss
 604              		.set	.LANCHOR0,. + 0
 605              		.type	Comp_1_initVar, %object
 606              		.size	Comp_1_initVar, 1
ARM GAS  C:\Users\Luggi\AppData\Local\Temp\ccuZ9D6R.s 			page 23


 607              	Comp_1_initVar:
 608 0000 00       		.space	1
 609              		.text
 610              	.Letext0:
 611              		.file 2 "Generated_Source\\PSoC5\\cytypes.h"
 612              		.file 3 "Generated_Source\\PSoC5\\CyLib.h"