ARM GAS  C:\Users\Luggi\AppData\Local\Temp\ccBZUEmf.s 			page 1


   1              		.syntax unified
   2              		.cpu cortex-m3
   3              		.fpu softvfp
   4              		.eabi_attribute 20, 1
   5              		.eabi_attribute 21, 1
   6              		.eabi_attribute 23, 3
   7              		.eabi_attribute 24, 1
   8              		.eabi_attribute 25, 1
   9              		.eabi_attribute 26, 1
  10              		.eabi_attribute 30, 4
  11              		.eabi_attribute 34, 1
  12              		.eabi_attribute 18, 4
  13              		.thumb
  14              		.file	"cyfitter_cfg.c"
  15              		.text
  16              	.Ltext0:
  17              		.cfi_sections	.debug_frame
  18              		.section	.text.SetAnalogRoutingPumps,"ax",%progbits
  19              		.align	1
  20              		.global	SetAnalogRoutingPumps
  21              		.thumb
  22              		.thumb_func
  23              		.type	SetAnalogRoutingPumps, %function
  24              	SetAnalogRoutingPumps:
  25              	.LFB7:
  26              		.file 1 "Generated_Source\\PSoC5\\cyfitter_cfg.c"
   1:Generated_Source\PSoC5/cyfitter_cfg.c **** /*******************************************************************************
   2:Generated_Source\PSoC5/cyfitter_cfg.c **** * File Name: cyfitter_cfg.c
   3:Generated_Source\PSoC5/cyfitter_cfg.c **** * 
   4:Generated_Source\PSoC5/cyfitter_cfg.c **** * PSoC Creator  4.0 Update 1
   5:Generated_Source\PSoC5/cyfitter_cfg.c **** *
   6:Generated_Source\PSoC5/cyfitter_cfg.c **** * Description:
   7:Generated_Source\PSoC5/cyfitter_cfg.c **** * This file contains device initialization code.
   8:Generated_Source\PSoC5/cyfitter_cfg.c **** * Except for the user defined sections in CyClockStartupError(), this file should not be modified.
   9:Generated_Source\PSoC5/cyfitter_cfg.c **** * This file is automatically generated by PSoC Creator.
  10:Generated_Source\PSoC5/cyfitter_cfg.c **** *
  11:Generated_Source\PSoC5/cyfitter_cfg.c **** ********************************************************************************
  12:Generated_Source\PSoC5/cyfitter_cfg.c **** * Copyright (c) 2007-2016 Cypress Semiconductor.  All rights reserved.
  13:Generated_Source\PSoC5/cyfitter_cfg.c **** * You may use this file only in accordance with the license, terms, conditions, 
  14:Generated_Source\PSoC5/cyfitter_cfg.c **** * disclaimers, and limitations in the end user license agreement accompanying 
  15:Generated_Source\PSoC5/cyfitter_cfg.c **** * the software package with which this file was provided.
  16:Generated_Source\PSoC5/cyfitter_cfg.c **** ********************************************************************************/
  17:Generated_Source\PSoC5/cyfitter_cfg.c **** 
  18:Generated_Source\PSoC5/cyfitter_cfg.c **** #include <string.h>
  19:Generated_Source\PSoC5/cyfitter_cfg.c **** #include "cytypes.h"
  20:Generated_Source\PSoC5/cyfitter_cfg.c **** #include "cydevice_trm.h"
  21:Generated_Source\PSoC5/cyfitter_cfg.c **** #include "cyfitter.h"
  22:Generated_Source\PSoC5/cyfitter_cfg.c **** #include "CyLib.h"
  23:Generated_Source\PSoC5/cyfitter_cfg.c **** #include "cyfitter_cfg.h"
  24:Generated_Source\PSoC5/cyfitter_cfg.c **** 
  25:Generated_Source\PSoC5/cyfitter_cfg.c **** #define CY_NEED_CYCLOCKSTARTUPERROR 1
  26:Generated_Source\PSoC5/cyfitter_cfg.c **** 
  27:Generated_Source\PSoC5/cyfitter_cfg.c **** 
  28:Generated_Source\PSoC5/cyfitter_cfg.c **** #if defined(__GNUC__) || defined(__ARMCC_VERSION)
  29:Generated_Source\PSoC5/cyfitter_cfg.c ****     #define CYPACKED 
  30:Generated_Source\PSoC5/cyfitter_cfg.c ****     #define CYPACKED_ATTR __attribute__ ((packed))
  31:Generated_Source\PSoC5/cyfitter_cfg.c ****     #define CYALIGNED __attribute__ ((aligned))
ARM GAS  C:\Users\Luggi\AppData\Local\Temp\ccBZUEmf.s 			page 2


  32:Generated_Source\PSoC5/cyfitter_cfg.c ****     #define CY_CFG_UNUSED __attribute__ ((unused))
  33:Generated_Source\PSoC5/cyfitter_cfg.c ****     #ifndef CY_CFG_SECTION
  34:Generated_Source\PSoC5/cyfitter_cfg.c ****         #define CY_CFG_SECTION __attribute__ ((section(".psocinit")))
  35:Generated_Source\PSoC5/cyfitter_cfg.c ****     #endif
  36:Generated_Source\PSoC5/cyfitter_cfg.c ****     
  37:Generated_Source\PSoC5/cyfitter_cfg.c ****     #if CYDEV_CONFIGURATION_DMA
  38:Generated_Source\PSoC5/cyfitter_cfg.c ****         #if (defined(__ARMCC_VERSION) || defined(__GNUC__))
  39:Generated_Source\PSoC5/cyfitter_cfg.c ****             #ifndef DMAINITSEC
  40:Generated_Source\PSoC5/cyfitter_cfg.c ****                 #define DMAINITSEC __attribute__ ((section(".dma_init")))
  41:Generated_Source\PSoC5/cyfitter_cfg.c ****             #endif
  42:Generated_Source\PSoC5/cyfitter_cfg.c ****         #elif defined(__ICCARM__)
  43:Generated_Source\PSoC5/cyfitter_cfg.c ****             #define DMAINITSEC _Pragma("location=\".dma_init\"")
  44:Generated_Source\PSoC5/cyfitter_cfg.c ****         #endif
  45:Generated_Source\PSoC5/cyfitter_cfg.c ****     #else
  46:Generated_Source\PSoC5/cyfitter_cfg.c ****         #define DMAINITSEC
  47:Generated_Source\PSoC5/cyfitter_cfg.c ****     #endif
  48:Generated_Source\PSoC5/cyfitter_cfg.c **** 
  49:Generated_Source\PSoC5/cyfitter_cfg.c ****     #if defined(__ARMCC_VERSION)
  50:Generated_Source\PSoC5/cyfitter_cfg.c ****         #define CY_CFG_MEMORY_BARRIER() __memory_changed()
  51:Generated_Source\PSoC5/cyfitter_cfg.c ****     #else
  52:Generated_Source\PSoC5/cyfitter_cfg.c ****         #define CY_CFG_MEMORY_BARRIER() __sync_synchronize()
  53:Generated_Source\PSoC5/cyfitter_cfg.c ****     #endif
  54:Generated_Source\PSoC5/cyfitter_cfg.c ****     
  55:Generated_Source\PSoC5/cyfitter_cfg.c **** #elif defined(__ICCARM__)
  56:Generated_Source\PSoC5/cyfitter_cfg.c ****     #include <intrinsics.h>
  57:Generated_Source\PSoC5/cyfitter_cfg.c **** 
  58:Generated_Source\PSoC5/cyfitter_cfg.c ****     #define CYPACKED __packed
  59:Generated_Source\PSoC5/cyfitter_cfg.c ****     #define CYPACKED_ATTR 
  60:Generated_Source\PSoC5/cyfitter_cfg.c ****     #define CYALIGNED _Pragma("data_alignment=4")
  61:Generated_Source\PSoC5/cyfitter_cfg.c ****     #define CY_CFG_UNUSED _Pragma("diag_suppress=Pe177")
  62:Generated_Source\PSoC5/cyfitter_cfg.c ****     #define CY_CFG_SECTION _Pragma("location=\".psocinit\"")
  63:Generated_Source\PSoC5/cyfitter_cfg.c ****     
  64:Generated_Source\PSoC5/cyfitter_cfg.c ****     #if CYDEV_CONFIGURATION_DMA
  65:Generated_Source\PSoC5/cyfitter_cfg.c ****         #if (defined(__ARMCC_VERSION) || defined(__GNUC__))
  66:Generated_Source\PSoC5/cyfitter_cfg.c ****             #ifndef DMAINITSEC
  67:Generated_Source\PSoC5/cyfitter_cfg.c ****                 #define DMAINITSEC __attribute__ ((section(".dma_init")))
  68:Generated_Source\PSoC5/cyfitter_cfg.c ****             #endif
  69:Generated_Source\PSoC5/cyfitter_cfg.c ****         #elif defined(__ICCARM__)
  70:Generated_Source\PSoC5/cyfitter_cfg.c ****             #define DMAINITSEC _Pragma("location=\".dma_init\"")
  71:Generated_Source\PSoC5/cyfitter_cfg.c ****         #endif
  72:Generated_Source\PSoC5/cyfitter_cfg.c ****     #else
  73:Generated_Source\PSoC5/cyfitter_cfg.c ****         #define DMAINITSEC
  74:Generated_Source\PSoC5/cyfitter_cfg.c ****     #endif
  75:Generated_Source\PSoC5/cyfitter_cfg.c **** 
  76:Generated_Source\PSoC5/cyfitter_cfg.c ****     #define CY_CFG_MEMORY_BARRIER() __DMB()
  77:Generated_Source\PSoC5/cyfitter_cfg.c ****     
  78:Generated_Source\PSoC5/cyfitter_cfg.c **** #else
  79:Generated_Source\PSoC5/cyfitter_cfg.c ****     #error Unsupported toolchain
  80:Generated_Source\PSoC5/cyfitter_cfg.c **** #endif
  81:Generated_Source\PSoC5/cyfitter_cfg.c **** 
  82:Generated_Source\PSoC5/cyfitter_cfg.c **** 
  83:Generated_Source\PSoC5/cyfitter_cfg.c **** CY_CFG_UNUSED
  84:Generated_Source\PSoC5/cyfitter_cfg.c **** static void CYMEMZERO(void *s, size_t n);
  85:Generated_Source\PSoC5/cyfitter_cfg.c **** CY_CFG_UNUSED
  86:Generated_Source\PSoC5/cyfitter_cfg.c **** static void CYMEMZERO(void *s, size_t n)
  87:Generated_Source\PSoC5/cyfitter_cfg.c **** {
  88:Generated_Source\PSoC5/cyfitter_cfg.c **** 	(void)memset(s, 0, n);
ARM GAS  C:\Users\Luggi\AppData\Local\Temp\ccBZUEmf.s 			page 3


  89:Generated_Source\PSoC5/cyfitter_cfg.c **** }
  90:Generated_Source\PSoC5/cyfitter_cfg.c **** CY_CFG_UNUSED
  91:Generated_Source\PSoC5/cyfitter_cfg.c **** static void CYCONFIGCPY(void *dest, const void *src, size_t n);
  92:Generated_Source\PSoC5/cyfitter_cfg.c **** CY_CFG_UNUSED
  93:Generated_Source\PSoC5/cyfitter_cfg.c **** static void CYCONFIGCPY(void *dest, const void *src, size_t n)
  94:Generated_Source\PSoC5/cyfitter_cfg.c **** {
  95:Generated_Source\PSoC5/cyfitter_cfg.c **** 	(void)memcpy(dest, src, n);
  96:Generated_Source\PSoC5/cyfitter_cfg.c **** }
  97:Generated_Source\PSoC5/cyfitter_cfg.c **** CY_CFG_UNUSED
  98:Generated_Source\PSoC5/cyfitter_cfg.c **** static void CYCONFIGCPYCODE(void *dest, const void *src, size_t n);
  99:Generated_Source\PSoC5/cyfitter_cfg.c **** CY_CFG_UNUSED
 100:Generated_Source\PSoC5/cyfitter_cfg.c **** static void CYCONFIGCPYCODE(void *dest, const void *src, size_t n)
 101:Generated_Source\PSoC5/cyfitter_cfg.c **** {
 102:Generated_Source\PSoC5/cyfitter_cfg.c **** 	(void)memcpy(dest, src, n);
 103:Generated_Source\PSoC5/cyfitter_cfg.c **** }
 104:Generated_Source\PSoC5/cyfitter_cfg.c **** 
 105:Generated_Source\PSoC5/cyfitter_cfg.c **** 
 106:Generated_Source\PSoC5/cyfitter_cfg.c **** 
 107:Generated_Source\PSoC5/cyfitter_cfg.c **** 
 108:Generated_Source\PSoC5/cyfitter_cfg.c **** /* Clock startup error codes                                                   */
 109:Generated_Source\PSoC5/cyfitter_cfg.c **** #define CYCLOCKSTART_NO_ERROR    0u
 110:Generated_Source\PSoC5/cyfitter_cfg.c **** #define CYCLOCKSTART_XTAL_ERROR  1u
 111:Generated_Source\PSoC5/cyfitter_cfg.c **** #define CYCLOCKSTART_32KHZ_ERROR 2u
 112:Generated_Source\PSoC5/cyfitter_cfg.c **** #define CYCLOCKSTART_PLL_ERROR   3u
 113:Generated_Source\PSoC5/cyfitter_cfg.c **** 
 114:Generated_Source\PSoC5/cyfitter_cfg.c **** 
 115:Generated_Source\PSoC5/cyfitter_cfg.c **** #ifdef CY_NEED_CYCLOCKSTARTUPERROR
 116:Generated_Source\PSoC5/cyfitter_cfg.c **** /*******************************************************************************
 117:Generated_Source\PSoC5/cyfitter_cfg.c **** * Function Name: CyClockStartupError
 118:Generated_Source\PSoC5/cyfitter_cfg.c **** ********************************************************************************
 119:Generated_Source\PSoC5/cyfitter_cfg.c **** * Summary:
 120:Generated_Source\PSoC5/cyfitter_cfg.c **** *  If an error is encountered during clock configuration (crystal startup error,
 121:Generated_Source\PSoC5/cyfitter_cfg.c **** *  PLL lock error, etc.), the system will end up here.  Unless reimplemented by
 122:Generated_Source\PSoC5/cyfitter_cfg.c **** *  the customer, this function will stop in an infinite loop.
 123:Generated_Source\PSoC5/cyfitter_cfg.c **** *
 124:Generated_Source\PSoC5/cyfitter_cfg.c **** * Parameters:
 125:Generated_Source\PSoC5/cyfitter_cfg.c **** *   void
 126:Generated_Source\PSoC5/cyfitter_cfg.c **** *
 127:Generated_Source\PSoC5/cyfitter_cfg.c **** * Return:
 128:Generated_Source\PSoC5/cyfitter_cfg.c **** *   void
 129:Generated_Source\PSoC5/cyfitter_cfg.c **** *
 130:Generated_Source\PSoC5/cyfitter_cfg.c **** *******************************************************************************/
 131:Generated_Source\PSoC5/cyfitter_cfg.c **** CY_CFG_UNUSED
 132:Generated_Source\PSoC5/cyfitter_cfg.c **** static void CyClockStartupError(uint8 errorCode);
 133:Generated_Source\PSoC5/cyfitter_cfg.c **** CY_CFG_UNUSED
 134:Generated_Source\PSoC5/cyfitter_cfg.c **** static void CyClockStartupError(uint8 errorCode)
 135:Generated_Source\PSoC5/cyfitter_cfg.c **** {
 136:Generated_Source\PSoC5/cyfitter_cfg.c ****     /* To remove the compiler warning if errorCode not used.                */
 137:Generated_Source\PSoC5/cyfitter_cfg.c ****     errorCode = errorCode;
 138:Generated_Source\PSoC5/cyfitter_cfg.c **** 
 139:Generated_Source\PSoC5/cyfitter_cfg.c ****     /* If we have a clock startup error (bad MHz crystal, PLL lock, etc.),  */
 140:Generated_Source\PSoC5/cyfitter_cfg.c ****     /* we will end up here to allow the customer to implement something to  */
 141:Generated_Source\PSoC5/cyfitter_cfg.c ****     /* deal with the clock condition.                                       */
 142:Generated_Source\PSoC5/cyfitter_cfg.c **** 
 143:Generated_Source\PSoC5/cyfitter_cfg.c **** #ifdef CY_CFG_CLOCK_STARTUP_ERROR_CALLBACK
 144:Generated_Source\PSoC5/cyfitter_cfg.c **** 	CY_CFG_Clock_Startup_ErrorCallback();
 145:Generated_Source\PSoC5/cyfitter_cfg.c **** #else
ARM GAS  C:\Users\Luggi\AppData\Local\Temp\ccBZUEmf.s 			page 4


 146:Generated_Source\PSoC5/cyfitter_cfg.c **** 	/*  If not using CY_CFG_CLOCK_STARTUP_ERROR_CALLBACK, place your clock startup code here. */
 147:Generated_Source\PSoC5/cyfitter_cfg.c ****     /* `#START CyClockStartupError` */
 148:Generated_Source\PSoC5/cyfitter_cfg.c **** 
 149:Generated_Source\PSoC5/cyfitter_cfg.c ****     /* If we have a clock startup error (bad MHz crystal, PLL lock, etc)    */
 150:Generated_Source\PSoC5/cyfitter_cfg.c ****     /* we will end up here to allow the customer to implement something to  */
 151:Generated_Source\PSoC5/cyfitter_cfg.c ****     /* deal with the clock condition.                                       */
 152:Generated_Source\PSoC5/cyfitter_cfg.c **** 
 153:Generated_Source\PSoC5/cyfitter_cfg.c ****     /* `#END` */
 154:Generated_Source\PSoC5/cyfitter_cfg.c **** 
 155:Generated_Source\PSoC5/cyfitter_cfg.c ****     /* If nothing else, stop here since the clocks have not started         */
 156:Generated_Source\PSoC5/cyfitter_cfg.c ****     /* correctly.                                                           */
 157:Generated_Source\PSoC5/cyfitter_cfg.c ****     while(1) {}
 158:Generated_Source\PSoC5/cyfitter_cfg.c **** #endif /* CY_CFG_CLOCK_STARTUP_ERROR_CALLBACK */ 
 159:Generated_Source\PSoC5/cyfitter_cfg.c **** }
 160:Generated_Source\PSoC5/cyfitter_cfg.c **** #endif
 161:Generated_Source\PSoC5/cyfitter_cfg.c **** 
 162:Generated_Source\PSoC5/cyfitter_cfg.c **** /* IDMUX Address: CYREG_IDMUX_DRQ_CTL0 Size (bytes): 6 */
 163:Generated_Source\PSoC5/cyfitter_cfg.c **** #define BS_IDMUX_VAL ((const uint8 CYFAR *)0x48000000u)
 164:Generated_Source\PSoC5/cyfitter_cfg.c **** 
 165:Generated_Source\PSoC5/cyfitter_cfg.c **** /* IOPORT_3 Address: CYDEV_PRTDSI_PRT3_BASE Size (bytes): 7 */
 166:Generated_Source\PSoC5/cyfitter_cfg.c **** #define BS_IOPORT_3_VAL ((const uint8 CYFAR *)0x48000008u)
 167:Generated_Source\PSoC5/cyfitter_cfg.c **** 
 168:Generated_Source\PSoC5/cyfitter_cfg.c **** /* IOPORT_7 Address: CYDEV_PRTDSI_PRT12_BASE Size (bytes): 6 */
 169:Generated_Source\PSoC5/cyfitter_cfg.c **** #define BS_IOPORT_7_VAL ((const uint8 CYFAR *)0x48000010u)
 170:Generated_Source\PSoC5/cyfitter_cfg.c **** 
 171:Generated_Source\PSoC5/cyfitter_cfg.c **** /* IOPORT_8 Address: CYDEV_PRTDSI_PRT15_BASE Size (bytes): 7 */
 172:Generated_Source\PSoC5/cyfitter_cfg.c **** #define BS_IOPORT_8_VAL ((const uint8 CYFAR *)0x48000018u)
 173:Generated_Source\PSoC5/cyfitter_cfg.c **** 
 174:Generated_Source\PSoC5/cyfitter_cfg.c **** /* PICU_8 Address: CYDEV_PICU_INTTYPE_PICU15_BASE Size (bytes): 8 */
 175:Generated_Source\PSoC5/cyfitter_cfg.c **** #define BS_PICU_8_VAL ((const uint8 CYFAR *)0x48000020u)
 176:Generated_Source\PSoC5/cyfitter_cfg.c **** 
 177:Generated_Source\PSoC5/cyfitter_cfg.c **** /* IDMUX_IRQ Address: CYREG_IDMUX_IRQ_CTL0 Size (bytes): 8 */
 178:Generated_Source\PSoC5/cyfitter_cfg.c **** #define BS_IDMUX_IRQ_VAL ((const uint8 CYFAR *)0x48000028u)
 179:Generated_Source\PSoC5/cyfitter_cfg.c **** 
 180:Generated_Source\PSoC5/cyfitter_cfg.c **** /* CMP0 Address: CYREG_CMP0_SW0 Size (bytes): 8 */
 181:Generated_Source\PSoC5/cyfitter_cfg.c **** #define BS_CMP0_VAL ((const uint8 CYFAR *)0x48000030u)
 182:Generated_Source\PSoC5/cyfitter_cfg.c **** 
 183:Generated_Source\PSoC5/cyfitter_cfg.c **** /* CMP2 Address: CYREG_CMP2_SW0 Size (bytes): 8 */
 184:Generated_Source\PSoC5/cyfitter_cfg.c **** #define BS_CMP2_VAL ((const uint8 CYFAR *)0x48000038u)
 185:Generated_Source\PSoC5/cyfitter_cfg.c **** 
 186:Generated_Source\PSoC5/cyfitter_cfg.c **** /* CMP3 Address: CYREG_CMP3_SW0 Size (bytes): 8 */
 187:Generated_Source\PSoC5/cyfitter_cfg.c **** #define BS_CMP3_VAL ((const uint8 CYFAR *)0x48000040u)
 188:Generated_Source\PSoC5/cyfitter_cfg.c **** 
 189:Generated_Source\PSoC5/cyfitter_cfg.c **** /* TMR0 Address: CYREG_TMR0_CFG0 Size (bytes): 12 */
 190:Generated_Source\PSoC5/cyfitter_cfg.c **** #define BS_TMR0_VAL ((const uint8 CYFAR *)0x48000048u)
 191:Generated_Source\PSoC5/cyfitter_cfg.c **** 
 192:Generated_Source\PSoC5/cyfitter_cfg.c **** /* TMR1 Address: CYREG_TMR1_CFG0 Size (bytes): 12 */
 193:Generated_Source\PSoC5/cyfitter_cfg.c **** #define BS_TMR1_VAL ((const uint8 CYFAR *)0x48000054u)
 194:Generated_Source\PSoC5/cyfitter_cfg.c **** 
 195:Generated_Source\PSoC5/cyfitter_cfg.c **** /* SAR0 Address: CYREG_SAR0_SW0 Size (bytes): 8 */
 196:Generated_Source\PSoC5/cyfitter_cfg.c **** #define BS_SAR0_VAL ((const uint8 CYFAR *)0x48000060u)
 197:Generated_Source\PSoC5/cyfitter_cfg.c **** 
 198:Generated_Source\PSoC5/cyfitter_cfg.c **** /* SAR1 Address: CYREG_SAR1_SW0 Size (bytes): 8 */
 199:Generated_Source\PSoC5/cyfitter_cfg.c **** #define BS_SAR1_VAL ((const uint8 CYFAR *)0x48000068u)
 200:Generated_Source\PSoC5/cyfitter_cfg.c **** 
 201:Generated_Source\PSoC5/cyfitter_cfg.c **** /* UDB_1_3_0_CONFIG Address: CYDEV_UCFG_B0_P2_U0_BASE Size (bytes): 128 */
 202:Generated_Source\PSoC5/cyfitter_cfg.c **** #define BS_UDB_1_3_0_CONFIG_VAL ((const uint8 CYFAR *)0x48000070u)
ARM GAS  C:\Users\Luggi\AppData\Local\Temp\ccBZUEmf.s 			page 5


 203:Generated_Source\PSoC5/cyfitter_cfg.c **** 
 204:Generated_Source\PSoC5/cyfitter_cfg.c **** /* UDB_0_3_0_CONFIG Address: CYDEV_UCFG_B0_P5_U0_BASE Size (bytes): 128 */
 205:Generated_Source\PSoC5/cyfitter_cfg.c **** #define BS_UDB_0_3_0_CONFIG_VAL ((const uint8 CYFAR *)0x480000F0u)
 206:Generated_Source\PSoC5/cyfitter_cfg.c **** 
 207:Generated_Source\PSoC5/cyfitter_cfg.c **** /* UDB_0_3_1_CONFIG Address: CYDEV_UCFG_B0_P5_U1_BASE Size (bytes): 128 */
 208:Generated_Source\PSoC5/cyfitter_cfg.c **** #define BS_UDB_0_3_1_CONFIG_VAL ((const uint8 CYFAR *)0x48000170u)
 209:Generated_Source\PSoC5/cyfitter_cfg.c **** 
 210:Generated_Source\PSoC5/cyfitter_cfg.c **** /* UCFG_BCTL0 Address: CYREG_BCTL0_MDCLK_EN Size (bytes): 16 */
 211:Generated_Source\PSoC5/cyfitter_cfg.c **** #define BS_UCFG_BCTL0_VAL ((const uint8 CYFAR *)0x480001F0u)
 212:Generated_Source\PSoC5/cyfitter_cfg.c **** 
 213:Generated_Source\PSoC5/cyfitter_cfg.c **** /* DSI0_0_HV_ROUTING Address: CYDEV_UCFG_DSI13_BASE + 0x00000080u Size (bytes): 128 */
 214:Generated_Source\PSoC5/cyfitter_cfg.c **** #define BS_DSI0_0_HV_ROUTING_VAL ((const uint8 CYFAR *)0x48000200u)
 215:Generated_Source\PSoC5/cyfitter_cfg.c **** 
 216:Generated_Source\PSoC5/cyfitter_cfg.c **** /* DSISWITCH_0_1 Address: CYDEV_UCFG_DSI12_BASE Size (bytes): 128 */
 217:Generated_Source\PSoC5/cyfitter_cfg.c **** #define BS_DSISWITCH_0_1_VAL ((const uint8 CYFAR *)0x48000280u)
 218:Generated_Source\PSoC5/cyfitter_cfg.c **** 
 219:Generated_Source\PSoC5/cyfitter_cfg.c **** /* DSI0_1_HV_ROUTING Address: CYDEV_UCFG_DSI12_BASE + 0x00000080u Size (bytes): 128 */
 220:Generated_Source\PSoC5/cyfitter_cfg.c **** #define BS_DSI0_1_HV_ROUTING_VAL ((const uint8 CYFAR *)0x48000300u)
 221:Generated_Source\PSoC5/cyfitter_cfg.c **** 
 222:Generated_Source\PSoC5/cyfitter_cfg.c **** /* DSISWITCH_0_2 Address: CYDEV_UCFG_DSI7_BASE Size (bytes): 128 */
 223:Generated_Source\PSoC5/cyfitter_cfg.c **** #define BS_DSISWITCH_0_2_VAL ((const uint8 CYFAR *)0x48000380u)
 224:Generated_Source\PSoC5/cyfitter_cfg.c **** 
 225:Generated_Source\PSoC5/cyfitter_cfg.c **** /* DSI0_2_HV_ROUTING Address: CYDEV_UCFG_DSI7_BASE + 0x00000080u Size (bytes): 128 */
 226:Generated_Source\PSoC5/cyfitter_cfg.c **** #define BS_DSI0_2_HV_ROUTING_VAL ((const uint8 CYFAR *)0x48000400u)
 227:Generated_Source\PSoC5/cyfitter_cfg.c **** 
 228:Generated_Source\PSoC5/cyfitter_cfg.c **** /* DSISWITCH_0_3 Address: CYDEV_UCFG_DSI6_BASE Size (bytes): 128 */
 229:Generated_Source\PSoC5/cyfitter_cfg.c **** #define BS_DSISWITCH_0_3_VAL ((const uint8 CYFAR *)0x48000480u)
 230:Generated_Source\PSoC5/cyfitter_cfg.c **** 
 231:Generated_Source\PSoC5/cyfitter_cfg.c **** /* DSI0_3_HV_ROUTING Address: CYDEV_UCFG_DSI6_BASE + 0x00000080u Size (bytes): 128 */
 232:Generated_Source\PSoC5/cyfitter_cfg.c **** #define BS_DSI0_3_HV_ROUTING_VAL ((const uint8 CYFAR *)0x48000500u)
 233:Generated_Source\PSoC5/cyfitter_cfg.c **** 
 234:Generated_Source\PSoC5/cyfitter_cfg.c **** /* DSI0_4_HV_ROUTING Address: CYDEV_UCFG_DSI5_BASE + 0x00000080u Size (bytes): 128 */
 235:Generated_Source\PSoC5/cyfitter_cfg.c **** #define BS_DSI0_4_HV_ROUTING_VAL ((const uint8 CYFAR *)0x48000580u)
 236:Generated_Source\PSoC5/cyfitter_cfg.c **** 
 237:Generated_Source\PSoC5/cyfitter_cfg.c **** /* DSISWITCH_0_5 Address: CYDEV_UCFG_DSI4_BASE Size (bytes): 128 */
 238:Generated_Source\PSoC5/cyfitter_cfg.c **** #define BS_DSISWITCH_0_5_VAL ((const uint8 CYFAR *)0x48000600u)
 239:Generated_Source\PSoC5/cyfitter_cfg.c **** 
 240:Generated_Source\PSoC5/cyfitter_cfg.c **** /* DSI0_5_HV_ROUTING Address: CYDEV_UCFG_DSI4_BASE + 0x00000080u Size (bytes): 128 */
 241:Generated_Source\PSoC5/cyfitter_cfg.c **** #define BS_DSI0_5_HV_ROUTING_VAL ((const uint8 CYFAR *)0x48000680u)
 242:Generated_Source\PSoC5/cyfitter_cfg.c **** 
 243:Generated_Source\PSoC5/cyfitter_cfg.c **** /* UDB_1_0_HV_ROUTING Address: CYDEV_UCFG_B1_P5_ROUTE_BASE + 0x00000080u Size (bytes): 128 */
 244:Generated_Source\PSoC5/cyfitter_cfg.c **** #define BS_UDB_1_0_HV_ROUTING_VAL ((const uint8 CYFAR *)0x48000700u)
 245:Generated_Source\PSoC5/cyfitter_cfg.c **** 
 246:Generated_Source\PSoC5/cyfitter_cfg.c **** /* UDB_2_0_HV_ROUTING Address: CYDEV_UCFG_B1_P2_ROUTE_BASE + 0x00000080u Size (bytes): 128 */
 247:Generated_Source\PSoC5/cyfitter_cfg.c **** #define BS_UDB_2_0_HV_ROUTING_VAL ((const uint8 CYFAR *)0x48000780u)
 248:Generated_Source\PSoC5/cyfitter_cfg.c **** 
 249:Generated_Source\PSoC5/cyfitter_cfg.c **** /* UDB_1_1_HV_ROUTING Address: CYDEV_UCFG_B1_P4_ROUTE_BASE + 0x00000080u Size (bytes): 128 */
 250:Generated_Source\PSoC5/cyfitter_cfg.c **** #define BS_UDB_1_1_HV_ROUTING_VAL ((const uint8 CYFAR *)0x48000800u)
 251:Generated_Source\PSoC5/cyfitter_cfg.c **** 
 252:Generated_Source\PSoC5/cyfitter_cfg.c **** /* UDB_2_1_HV_ROUTING Address: CYDEV_UCFG_B1_P3_ROUTE_BASE + 0x00000080u Size (bytes): 128 */
 253:Generated_Source\PSoC5/cyfitter_cfg.c **** #define BS_UDB_2_1_HV_ROUTING_VAL ((const uint8 CYFAR *)0x48000880u)
 254:Generated_Source\PSoC5/cyfitter_cfg.c **** 
 255:Generated_Source\PSoC5/cyfitter_cfg.c **** /* UDB_1_2_HV_ROUTING Address: CYDEV_UCFG_B0_P4_ROUTE_BASE + 0x00000080u Size (bytes): 128 */
 256:Generated_Source\PSoC5/cyfitter_cfg.c **** #define BS_UDB_1_2_HV_ROUTING_VAL ((const uint8 CYFAR *)0x48000900u)
 257:Generated_Source\PSoC5/cyfitter_cfg.c **** 
 258:Generated_Source\PSoC5/cyfitter_cfg.c **** /* UDB_2_2_HV_ROUTING Address: CYDEV_UCFG_B0_P3_ROUTE_BASE + 0x00000080u Size (bytes): 128 */
 259:Generated_Source\PSoC5/cyfitter_cfg.c **** #define BS_UDB_2_2_HV_ROUTING_VAL ((const uint8 CYFAR *)0x48000980u)
ARM GAS  C:\Users\Luggi\AppData\Local\Temp\ccBZUEmf.s 			page 6


 260:Generated_Source\PSoC5/cyfitter_cfg.c **** 
 261:Generated_Source\PSoC5/cyfitter_cfg.c **** /* UDBSWITCH_0_3 Address: CYDEV_UCFG_B0_P5_ROUTE_BASE Size (bytes): 128 */
 262:Generated_Source\PSoC5/cyfitter_cfg.c **** #define BS_UDBSWITCH_0_3_VAL ((const uint8 CYFAR *)0x48000A00u)
 263:Generated_Source\PSoC5/cyfitter_cfg.c **** 
 264:Generated_Source\PSoC5/cyfitter_cfg.c **** /* UDB_1_3_HV_ROUTING Address: CYDEV_UCFG_B0_P5_ROUTE_BASE + 0x00000080u Size (bytes): 128 */
 265:Generated_Source\PSoC5/cyfitter_cfg.c **** #define BS_UDB_1_3_HV_ROUTING_VAL ((const uint8 CYFAR *)0x48000A80u)
 266:Generated_Source\PSoC5/cyfitter_cfg.c **** 
 267:Generated_Source\PSoC5/cyfitter_cfg.c **** /* UDBSWITCH_1_3 Address: CYDEV_UCFG_B0_P2_ROUTE_BASE Size (bytes): 128 */
 268:Generated_Source\PSoC5/cyfitter_cfg.c **** #define BS_UDBSWITCH_1_3_VAL ((const uint8 CYFAR *)0x48000B00u)
 269:Generated_Source\PSoC5/cyfitter_cfg.c **** 
 270:Generated_Source\PSoC5/cyfitter_cfg.c **** /* UDB_2_3_HV_ROUTING Address: CYDEV_UCFG_B0_P2_ROUTE_BASE + 0x00000080u Size (bytes): 128 */
 271:Generated_Source\PSoC5/cyfitter_cfg.c **** #define BS_UDB_2_3_HV_ROUTING_VAL ((const uint8 CYFAR *)0x48000B80u)
 272:Generated_Source\PSoC5/cyfitter_cfg.c **** 
 273:Generated_Source\PSoC5/cyfitter_cfg.c **** /* UDB_1_4_HV_ROUTING Address: CYDEV_UCFG_B0_P6_ROUTE_BASE + 0x00000080u Size (bytes): 128 */
 274:Generated_Source\PSoC5/cyfitter_cfg.c **** #define BS_UDB_1_4_HV_ROUTING_VAL ((const uint8 CYFAR *)0x48000C00u)
 275:Generated_Source\PSoC5/cyfitter_cfg.c **** 
 276:Generated_Source\PSoC5/cyfitter_cfg.c **** /* UDB_2_4_HV_ROUTING Address: CYDEV_UCFG_B0_P1_ROUTE_BASE + 0x00000080u Size (bytes): 128 */
 277:Generated_Source\PSoC5/cyfitter_cfg.c **** #define BS_UDB_2_4_HV_ROUTING_VAL ((const uint8 CYFAR *)0x48000C80u)
 278:Generated_Source\PSoC5/cyfitter_cfg.c **** 
 279:Generated_Source\PSoC5/cyfitter_cfg.c **** /* UDB_1_5_HV_ROUTING Address: CYDEV_UCFG_B0_P7_ROUTE_BASE + 0x00000080u Size (bytes): 128 */
 280:Generated_Source\PSoC5/cyfitter_cfg.c **** #define BS_UDB_1_5_HV_ROUTING_VAL ((const uint8 CYFAR *)0x48000D00u)
 281:Generated_Source\PSoC5/cyfitter_cfg.c **** 
 282:Generated_Source\PSoC5/cyfitter_cfg.c **** /* UDB_2_5_HV_ROUTING Address: CYDEV_UCFG_B0_P0_ROUTE_BASE + 0x00000080u Size (bytes): 128 */
 283:Generated_Source\PSoC5/cyfitter_cfg.c **** #define BS_UDB_2_5_HV_ROUTING_VAL ((const uint8 CYFAR *)0x48000D80u)
 284:Generated_Source\PSoC5/cyfitter_cfg.c **** 
 285:Generated_Source\PSoC5/cyfitter_cfg.c **** /* DSISWITCH_1_0 Address: CYDEV_UCFG_DSI9_BASE Size (bytes): 128 */
 286:Generated_Source\PSoC5/cyfitter_cfg.c **** #define BS_DSISWITCH_1_0_VAL ((const uint8 CYFAR *)0x48000E00u)
 287:Generated_Source\PSoC5/cyfitter_cfg.c **** 
 288:Generated_Source\PSoC5/cyfitter_cfg.c **** /* DSI3_0_HV_ROUTING Address: CYDEV_UCFG_DSI9_BASE + 0x00000080u Size (bytes): 128 */
 289:Generated_Source\PSoC5/cyfitter_cfg.c **** #define BS_DSI3_0_HV_ROUTING_VAL ((const uint8 CYFAR *)0x48000E80u)
 290:Generated_Source\PSoC5/cyfitter_cfg.c **** 
 291:Generated_Source\PSoC5/cyfitter_cfg.c **** /* DSISWITCH_1_1 Address: CYDEV_UCFG_DSI8_BASE Size (bytes): 128 */
 292:Generated_Source\PSoC5/cyfitter_cfg.c **** #define BS_DSISWITCH_1_1_VAL ((const uint8 CYFAR *)0x48000F00u)
 293:Generated_Source\PSoC5/cyfitter_cfg.c **** 
 294:Generated_Source\PSoC5/cyfitter_cfg.c **** /* DSI3_1_HV_ROUTING Address: CYDEV_UCFG_DSI8_BASE + 0x00000080u Size (bytes): 128 */
 295:Generated_Source\PSoC5/cyfitter_cfg.c **** #define BS_DSI3_1_HV_ROUTING_VAL ((const uint8 CYFAR *)0x48000F80u)
 296:Generated_Source\PSoC5/cyfitter_cfg.c **** 
 297:Generated_Source\PSoC5/cyfitter_cfg.c **** /* DSISWITCH_1_2 Address: CYDEV_UCFG_DSI3_BASE Size (bytes): 128 */
 298:Generated_Source\PSoC5/cyfitter_cfg.c **** #define BS_DSISWITCH_1_2_VAL ((const uint8 CYFAR *)0x48001000u)
 299:Generated_Source\PSoC5/cyfitter_cfg.c **** 
 300:Generated_Source\PSoC5/cyfitter_cfg.c **** /* DSI3_2_HV_ROUTING Address: CYDEV_UCFG_DSI3_BASE + 0x00000080u Size (bytes): 128 */
 301:Generated_Source\PSoC5/cyfitter_cfg.c **** #define BS_DSI3_2_HV_ROUTING_VAL ((const uint8 CYFAR *)0x48001080u)
 302:Generated_Source\PSoC5/cyfitter_cfg.c **** 
 303:Generated_Source\PSoC5/cyfitter_cfg.c **** /* DSISWITCH_1_3 Address: CYDEV_UCFG_DSI2_BASE Size (bytes): 128 */
 304:Generated_Source\PSoC5/cyfitter_cfg.c **** #define BS_DSISWITCH_1_3_VAL ((const uint8 CYFAR *)0x48001100u)
 305:Generated_Source\PSoC5/cyfitter_cfg.c **** 
 306:Generated_Source\PSoC5/cyfitter_cfg.c **** /* DSI3_3_HV_ROUTING Address: CYDEV_UCFG_DSI2_BASE + 0x00000080u Size (bytes): 128 */
 307:Generated_Source\PSoC5/cyfitter_cfg.c **** #define BS_DSI3_3_HV_ROUTING_VAL ((const uint8 CYFAR *)0x48001180u)
 308:Generated_Source\PSoC5/cyfitter_cfg.c **** 
 309:Generated_Source\PSoC5/cyfitter_cfg.c **** /* DSISWITCH_1_4 Address: CYDEV_UCFG_DSI1_BASE Size (bytes): 128 */
 310:Generated_Source\PSoC5/cyfitter_cfg.c **** #define BS_DSISWITCH_1_4_VAL ((const uint8 CYFAR *)0x48001200u)
 311:Generated_Source\PSoC5/cyfitter_cfg.c **** 
 312:Generated_Source\PSoC5/cyfitter_cfg.c **** /* DSI3_4_HV_ROUTING Address: CYDEV_UCFG_DSI1_BASE + 0x00000080u Size (bytes): 128 */
 313:Generated_Source\PSoC5/cyfitter_cfg.c **** #define BS_DSI3_4_HV_ROUTING_VAL ((const uint8 CYFAR *)0x48001280u)
 314:Generated_Source\PSoC5/cyfitter_cfg.c **** 
 315:Generated_Source\PSoC5/cyfitter_cfg.c **** /* DSISWITCH_1_5 Address: CYDEV_UCFG_DSI0_BASE Size (bytes): 128 */
 316:Generated_Source\PSoC5/cyfitter_cfg.c **** #define BS_DSISWITCH_1_5_VAL ((const uint8 CYFAR *)0x48001300u)
ARM GAS  C:\Users\Luggi\AppData\Local\Temp\ccBZUEmf.s 			page 7


 317:Generated_Source\PSoC5/cyfitter_cfg.c **** 
 318:Generated_Source\PSoC5/cyfitter_cfg.c **** /* DSI3_5_HV_ROUTING Address: CYDEV_UCFG_DSI0_BASE + 0x00000080u Size (bytes): 128 */
 319:Generated_Source\PSoC5/cyfitter_cfg.c **** #define BS_DSI3_5_HV_ROUTING_VAL ((const uint8 CYFAR *)0x48001380u)
 320:Generated_Source\PSoC5/cyfitter_cfg.c **** 
 321:Generated_Source\PSoC5/cyfitter_cfg.c **** /* IOPINS0_0 Address: CYREG_PRT0_DM0 Size (bytes): 8 */
 322:Generated_Source\PSoC5/cyfitter_cfg.c **** #define BS_IOPINS0_0_VAL ((const uint8 CYFAR *)0x48001400u)
 323:Generated_Source\PSoC5/cyfitter_cfg.c **** 
 324:Generated_Source\PSoC5/cyfitter_cfg.c **** /* IOPINS0_7 Address: CYREG_PRT12_DM0 Size (bytes): 8 */
 325:Generated_Source\PSoC5/cyfitter_cfg.c **** #define BS_IOPINS0_7_VAL ((const uint8 CYFAR *)0x48001408u)
 326:Generated_Source\PSoC5/cyfitter_cfg.c **** 
 327:Generated_Source\PSoC5/cyfitter_cfg.c **** /* IOPINS1_7 Address: CYREG_PRT12_DM0 + 0x00000009u Size (bytes): 5 */
 328:Generated_Source\PSoC5/cyfitter_cfg.c **** #define BS_IOPINS1_7_VAL ((const uint8 CYFAR *)0x48001410u)
 329:Generated_Source\PSoC5/cyfitter_cfg.c **** 
 330:Generated_Source\PSoC5/cyfitter_cfg.c **** /* IOPINS0_8 Address: CYREG_PRT15_DR Size (bytes): 10 */
 331:Generated_Source\PSoC5/cyfitter_cfg.c **** #define BS_IOPINS0_8_VAL ((const uint8 CYFAR *)0x48001418u)
 332:Generated_Source\PSoC5/cyfitter_cfg.c **** 
 333:Generated_Source\PSoC5/cyfitter_cfg.c **** /* IOPINS0_1 Address: CYREG_PRT1_DM0 Size (bytes): 8 */
 334:Generated_Source\PSoC5/cyfitter_cfg.c **** #define BS_IOPINS0_1_VAL ((const uint8 CYFAR *)0x48001424u)
 335:Generated_Source\PSoC5/cyfitter_cfg.c **** 
 336:Generated_Source\PSoC5/cyfitter_cfg.c **** /* IOPINS0_2 Address: CYREG_PRT2_DM0 Size (bytes): 8 */
 337:Generated_Source\PSoC5/cyfitter_cfg.c **** #define BS_IOPINS0_2_VAL ((const uint8 CYFAR *)0x4800142Cu)
 338:Generated_Source\PSoC5/cyfitter_cfg.c **** 
 339:Generated_Source\PSoC5/cyfitter_cfg.c **** /* IOPINS0_3 Address: CYREG_PRT3_DM0 Size (bytes): 8 */
 340:Generated_Source\PSoC5/cyfitter_cfg.c **** #define BS_IOPINS0_3_VAL ((const uint8 CYFAR *)0x48001434u)
 341:Generated_Source\PSoC5/cyfitter_cfg.c **** 
 342:Generated_Source\PSoC5/cyfitter_cfg.c **** /* IOPINS0_4 Address: CYREG_PRT4_DM0 Size (bytes): 8 */
 343:Generated_Source\PSoC5/cyfitter_cfg.c **** #define BS_IOPINS0_4_VAL ((const uint8 CYFAR *)0x4800143Cu)
 344:Generated_Source\PSoC5/cyfitter_cfg.c **** 
 345:Generated_Source\PSoC5/cyfitter_cfg.c **** /* IOPINS0_6 Address: CYREG_PRT6_DR Size (bytes): 10 */
 346:Generated_Source\PSoC5/cyfitter_cfg.c **** #define BS_IOPINS0_6_VAL ((const uint8 CYFAR *)0x48001444u)
 347:Generated_Source\PSoC5/cyfitter_cfg.c **** 
 348:Generated_Source\PSoC5/cyfitter_cfg.c **** /* CYDEV_CLKDIST_ACFG0_CFG0 Address: CYREG_CLKDIST_ACFG0_CFG0 Size (bytes): 4 */
 349:Generated_Source\PSoC5/cyfitter_cfg.c **** #define BS_CYDEV_CLKDIST_ACFG0_CFG0_VAL ((const uint8 CYFAR *)0x48001450u)
 350:Generated_Source\PSoC5/cyfitter_cfg.c **** 
 351:Generated_Source\PSoC5/cyfitter_cfg.c **** 
 352:Generated_Source\PSoC5/cyfitter_cfg.c **** /*******************************************************************************
 353:Generated_Source\PSoC5/cyfitter_cfg.c **** * Function Name: cfg_dma_init
 354:Generated_Source\PSoC5/cyfitter_cfg.c **** ********************************************************************************
 355:Generated_Source\PSoC5/cyfitter_cfg.c **** * Summary:
 356:Generated_Source\PSoC5/cyfitter_cfg.c **** *  This function is used to copy device configuration data from constant values
 357:Generated_Source\PSoC5/cyfitter_cfg.c **** *  stored in memory into the proper chip configuration registers using DMA.  It
 358:Generated_Source\PSoC5/cyfitter_cfg.c **** *  pulls data out of the CFG_TD_LISTs to know exactly how/what to configure.
 359:Generated_Source\PSoC5/cyfitter_cfg.c **** *
 360:Generated_Source\PSoC5/cyfitter_cfg.c **** * Parameters:  
 361:Generated_Source\PSoC5/cyfitter_cfg.c **** *   void
 362:Generated_Source\PSoC5/cyfitter_cfg.c **** *
 363:Generated_Source\PSoC5/cyfitter_cfg.c **** * Return:
 364:Generated_Source\PSoC5/cyfitter_cfg.c **** *   void
 365:Generated_Source\PSoC5/cyfitter_cfg.c **** *
 366:Generated_Source\PSoC5/cyfitter_cfg.c **** *******************************************************************************/
 367:Generated_Source\PSoC5/cyfitter_cfg.c **** static void cfg_dma_init(void);
 368:Generated_Source\PSoC5/cyfitter_cfg.c **** static void cfg_dma_init(void)
 369:Generated_Source\PSoC5/cyfitter_cfg.c **** {
 370:Generated_Source\PSoC5/cyfitter_cfg.c **** 	/* TD structure for little-endian systems. Does not require endian swap */
 371:Generated_Source\PSoC5/cyfitter_cfg.c **** 	CYPACKED struct td_t {
 372:Generated_Source\PSoC5/cyfitter_cfg.c **** 		uint16 size;
 373:Generated_Source\PSoC5/cyfitter_cfg.c **** 		uint8 next_td_ptr;
ARM GAS  C:\Users\Luggi\AppData\Local\Temp\ccBZUEmf.s 			page 8


 374:Generated_Source\PSoC5/cyfitter_cfg.c **** 		uint8 flags;
 375:Generated_Source\PSoC5/cyfitter_cfg.c **** 		uint16 src;
 376:Generated_Source\PSoC5/cyfitter_cfg.c **** 		uint16 dest;
 377:Generated_Source\PSoC5/cyfitter_cfg.c **** 	} CYPACKED_ATTR;
 378:Generated_Source\PSoC5/cyfitter_cfg.c **** 
 379:Generated_Source\PSoC5/cyfitter_cfg.c **** 	/* PHUB_CH1_CFGMEM_CFG0/1 initialization data */
 380:Generated_Source\PSoC5/cyfitter_cfg.c **** 	DMAINITSEC static const uint8 CYCODE CH1_ADDR_DATA0[] = { 0x01u, 0x00u, 0x00u, 0x00u, 0x00u, 0x20u
 381:Generated_Source\PSoC5/cyfitter_cfg.c **** 
 382:Generated_Source\PSoC5/cyfitter_cfg.c **** 	/* PHUB_CH2_CFGMEM_CFG0/1 initialization data */
 383:Generated_Source\PSoC5/cyfitter_cfg.c **** 	DMAINITSEC static const uint8 CYCODE CH2_ADDR_DATA0[] = { 0x01u, 0x00u, 0x00u, 0x00u, 0x00u, 0x20u
 384:Generated_Source\PSoC5/cyfitter_cfg.c **** 
 385:Generated_Source\PSoC5/cyfitter_cfg.c **** 	/* PHUB_CH5_CFGMEM_CFG0/1 initialization data */
 386:Generated_Source\PSoC5/cyfitter_cfg.c **** 	DMAINITSEC static const uint8 CYCODE CH5_ADDR_DATA0[] = { 0x01u, 0x00u, 0x00u, 0x00u, 0x00u, 0x48u
 387:Generated_Source\PSoC5/cyfitter_cfg.c **** 
 388:Generated_Source\PSoC5/cyfitter_cfg.c **** 	/* PHUB_CH6_CFGMEM_CFG0/1 initialization data */
 389:Generated_Source\PSoC5/cyfitter_cfg.c **** 	DMAINITSEC static const uint8 CYCODE CH6_ADDR_DATA0[] = { 0x01u, 0x00u, 0x00u, 0x00u, 0x00u, 0x48u
 390:Generated_Source\PSoC5/cyfitter_cfg.c **** 
 391:Generated_Source\PSoC5/cyfitter_cfg.c **** 	/* Initialization data for each DMA channel's TD registers */
 392:Generated_Source\PSoC5/cyfitter_cfg.c **** 	DMAINITSEC static const uint8 CYCODE DMA_TD_START_CMD[] = { 0x01u, 0x00u, 0x00u, 0x00u, 0x01u };
 393:Generated_Source\PSoC5/cyfitter_cfg.c **** 
 394:Generated_Source\PSoC5/cyfitter_cfg.c **** 	CYALIGNED static uint32 CYXDATA DMA_ZERO_VAL;
 395:Generated_Source\PSoC5/cyfitter_cfg.c **** 
 396:Generated_Source\PSoC5/cyfitter_cfg.c **** 	/* This table holds all of the initialization data necessary for the DMA
 397:Generated_Source\PSoC5/cyfitter_cfg.c **** 	   process to transfer data from the source location to the destination. */
 398:Generated_Source\PSoC5/cyfitter_cfg.c **** 	/* Source addresses can be relocated, but only when in 32bit addresses.
 399:Generated_Source\PSoC5/cyfitter_cfg.c **** 	   Because the standard TD table only has 16bit addresses, we generate a
 400:Generated_Source\PSoC5/cyfitter_cfg.c **** 	   separate CFG_TD_ADDR table for the source addresses that supports 32bit
 401:Generated_Source\PSoC5/cyfitter_cfg.c **** 	   addresses. */
 402:Generated_Source\PSoC5/cyfitter_cfg.c **** 	DMAINITSEC static const struct td_t CYCODE CFG_TD_LIST0[] = {
 403:Generated_Source\PSoC5/cyfitter_cfg.c **** 		/* Size, Next, Flags, Source, Destination */
 404:Generated_Source\PSoC5/cyfitter_cfg.c **** 		{ 8u, 0x02u, 0x23u, (uint16)(uint32)(0u), (uint16)(CYREG_PHUB_CFGMEM1_CFG0) },	/* TD 1 */
 405:Generated_Source\PSoC5/cyfitter_cfg.c **** 		{ 8u, 0x03u, 0x23u, (uint16)(uint32)(0u), (uint16)(CYREG_PHUB_CFGMEM2_CFG0) },	/* TD 2 */
 406:Generated_Source\PSoC5/cyfitter_cfg.c **** 		{ 8u, 0x04u, 0x23u, (uint16)(uint32)(0u), (uint16)(CYREG_PHUB_CFGMEM5_CFG0) },	/* TD 3 */
 407:Generated_Source\PSoC5/cyfitter_cfg.c **** 		{ 8u, 0x05u, 0x23u, (uint16)(uint32)(0u), (uint16)(CYREG_PHUB_CFGMEM6_CFG0) },	/* TD 4 */
 408:Generated_Source\PSoC5/cyfitter_cfg.c **** 		{ 5u, 0x06u, 0x23u, (uint16)(uint32)(0u), (uint16)(CYREG_PHUB_CH1_BASIC_CFG) },	/* TD 5 */
 409:Generated_Source\PSoC5/cyfitter_cfg.c **** 		{ 5u, 0x07u, 0x23u, (uint16)(uint32)(0u), (uint16)(CYREG_PHUB_CH2_BASIC_CFG) },	/* TD 6 */
 410:Generated_Source\PSoC5/cyfitter_cfg.c **** 		{ 5u, 0x08u, 0x23u, (uint16)(uint32)(0u), (uint16)(CYREG_PHUB_CH5_BASIC_CFG) },	/* TD 7 */
 411:Generated_Source\PSoC5/cyfitter_cfg.c **** 		{ 5u, 0xFEu, 0x23u, (uint16)(uint32)(0u), (uint16)(CYREG_PHUB_CH6_BASIC_CFG) },	/* TD 8 */
 412:Generated_Source\PSoC5/cyfitter_cfg.c **** 		{ 16u, 0xFEu, 0x22u, (uint16)(uint32)(0u), (uint16)(CYREG_PRT5_DR) },	/* TD 9 */
 413:Generated_Source\PSoC5/cyfitter_cfg.c **** 		{ 384u, 0x0Bu, 0x22u, (uint16)(uint32)(0u), (uint16)(CYDEV_UCFG_B0_P0_U0_BASE) },	/* TD 10 */
 414:Generated_Source\PSoC5/cyfitter_cfg.c **** 		{ 384u, 0x0Cu, 0x22u, (uint16)(uint32)(0u), (uint16)(CYDEV_UCFG_B0_P1_U0_BASE) },	/* TD 11 */
 415:Generated_Source\PSoC5/cyfitter_cfg.c **** 		{ 128u, 0x0Du, 0x22u, (uint16)(uint32)(0u), (uint16)(CYDEV_UCFG_B0_P2_U1_BASE) },	/* TD 12 */
 416:Generated_Source\PSoC5/cyfitter_cfg.c **** 		{ 384u, 0x0Eu, 0x22u, (uint16)(uint32)(0u), (uint16)(CYDEV_UCFG_B0_P3_U0_BASE) },	/* TD 13 */
 417:Generated_Source\PSoC5/cyfitter_cfg.c **** 		{ 384u, 0x0Fu, 0x22u, (uint16)(uint32)(0u), (uint16)(CYDEV_UCFG_B0_P4_U0_BASE) },	/* TD 14 */
 418:Generated_Source\PSoC5/cyfitter_cfg.c **** 		{ 384u, 0x10u, 0x22u, (uint16)(uint32)(0u), (uint16)(CYDEV_UCFG_B0_P6_U0_BASE) },	/* TD 15 */
 419:Generated_Source\PSoC5/cyfitter_cfg.c **** 		{ 384u, 0x11u, 0x22u, (uint16)(uint32)(0u), (uint16)(CYDEV_UCFG_B0_P7_U0_BASE) },	/* TD 16 */
 420:Generated_Source\PSoC5/cyfitter_cfg.c **** 		{ 384u, 0x12u, 0x22u, (uint16)(uint32)(0u), (uint16)(CYDEV_UCFG_B1_P2_U0_BASE) },	/* TD 17 */
 421:Generated_Source\PSoC5/cyfitter_cfg.c **** 		{ 384u, 0x13u, 0x22u, (uint16)(uint32)(0u), (uint16)(CYDEV_UCFG_B1_P3_U0_BASE) },	/* TD 18 */
 422:Generated_Source\PSoC5/cyfitter_cfg.c **** 		{ 384u, 0x14u, 0x22u, (uint16)(uint32)(0u), (uint16)(CYDEV_UCFG_B1_P4_U0_BASE) },	/* TD 19 */
 423:Generated_Source\PSoC5/cyfitter_cfg.c **** 		{ 384u, 0x15u, 0x22u, (uint16)(uint32)(0u), (uint16)(CYDEV_UCFG_B1_P5_U0_BASE) },	/* TD 20 */
 424:Generated_Source\PSoC5/cyfitter_cfg.c **** 		{ 128u, 0x16u, 0x22u, (uint16)(uint32)(0u), (uint16)(CYDEV_UCFG_DSI5_BASE) },	/* TD 21 */
 425:Generated_Source\PSoC5/cyfitter_cfg.c **** 		{ 128u, 0x17u, 0x22u, (uint16)(uint32)(0u), (uint16)(CYDEV_UCFG_DSI13_BASE) },	/* TD 22 */
 426:Generated_Source\PSoC5/cyfitter_cfg.c **** 		{ 16u, 0xFEu, 0x22u, (uint16)(uint32)(0u), (uint16)(CYREG_BCTL1_MDCLK_EN) },	/* TD 23 */
 427:Generated_Source\PSoC5/cyfitter_cfg.c **** 		{ 7u, 0x19u, 0x23u, (uint16)(uint32)(0u), (uint16)(CYDEV_PRTDSI_PRT3_BASE) },	/* TD 24 */
 428:Generated_Source\PSoC5/cyfitter_cfg.c **** 		{ 6u, 0x1Au, 0x23u, (uint16)(uint32)(0u), (uint16)(CYDEV_PRTDSI_PRT12_BASE) },	/* TD 25 */
 429:Generated_Source\PSoC5/cyfitter_cfg.c **** 		{ 7u, 0x1Bu, 0x23u, (uint16)(uint32)(0u), (uint16)(CYDEV_PRTDSI_PRT15_BASE) },	/* TD 26 */
 430:Generated_Source\PSoC5/cyfitter_cfg.c **** 		{ 8u, 0x1Cu, 0x23u, (uint16)(uint32)(0u), (uint16)(CYDEV_PICU_INTTYPE_PICU15_BASE) },	/* TD 27 */
ARM GAS  C:\Users\Luggi\AppData\Local\Temp\ccBZUEmf.s 			page 9


 431:Generated_Source\PSoC5/cyfitter_cfg.c **** 		{ 8u, 0x1Du, 0x23u, (uint16)(uint32)(0u), (uint16)(CYREG_CMP0_SW0) },	/* TD 28 */
 432:Generated_Source\PSoC5/cyfitter_cfg.c **** 		{ 8u, 0x1Eu, 0x23u, (uint16)(uint32)(0u), (uint16)(CYREG_CMP2_SW0) },	/* TD 29 */
 433:Generated_Source\PSoC5/cyfitter_cfg.c **** 		{ 8u, 0x1Fu, 0x23u, (uint16)(uint32)(0u), (uint16)(CYREG_CMP3_SW0) },	/* TD 30 */
 434:Generated_Source\PSoC5/cyfitter_cfg.c **** 		{ 12u, 0x20u, 0x23u, (uint16)(uint32)(0u), (uint16)(CYREG_TMR0_CFG0) },	/* TD 31 */
 435:Generated_Source\PSoC5/cyfitter_cfg.c **** 		{ 12u, 0x21u, 0x23u, (uint16)(uint32)(0u), (uint16)(CYREG_TMR1_CFG0) },	/* TD 32 */
 436:Generated_Source\PSoC5/cyfitter_cfg.c **** 		{ 8u, 0x22u, 0x23u, (uint16)(uint32)(0u), (uint16)(CYREG_SAR0_SW0) },	/* TD 33 */
 437:Generated_Source\PSoC5/cyfitter_cfg.c **** 		{ 8u, 0xFEu, 0x23u, (uint16)(uint32)(0u), (uint16)(CYREG_SAR1_SW0) },	/* TD 34 */
 438:Generated_Source\PSoC5/cyfitter_cfg.c **** 		{ 8u, 0x24u, 0x23u, (uint16)(uint32)(0u), (uint16)(CYREG_IDMUX_IRQ_CTL0) },	/* TD 35 */
 439:Generated_Source\PSoC5/cyfitter_cfg.c **** 		{ 128u, 0x25u, 0x23u, (uint16)(uint32)(0u), (uint16)(CYDEV_UCFG_B0_P2_U0_BASE) },	/* TD 36 */
 440:Generated_Source\PSoC5/cyfitter_cfg.c **** 		{ 128u, 0x26u, 0x23u, (uint16)(uint32)(0u), (uint16)(CYDEV_UCFG_B0_P5_U0_BASE) },	/* TD 37 */
 441:Generated_Source\PSoC5/cyfitter_cfg.c **** 		{ 128u, 0x27u, 0x23u, (uint16)(uint32)(0u), (uint16)(CYDEV_UCFG_B0_P5_U1_BASE) },	/* TD 38 */
 442:Generated_Source\PSoC5/cyfitter_cfg.c **** 		{ 16u, 0x28u, 0x23u, (uint16)(uint32)(0u), (uint16)(CYREG_BCTL0_MDCLK_EN) },	/* TD 39 */
 443:Generated_Source\PSoC5/cyfitter_cfg.c **** 		{ 128u, 0x29u, 0x23u, (uint16)(uint32)(0u), (uint16)(CYDEV_UCFG_DSI13_BASE + 0x00000080u) },	/* T
 444:Generated_Source\PSoC5/cyfitter_cfg.c **** 		{ 128u, 0x2Au, 0x23u, (uint16)(uint32)(0u), (uint16)(CYDEV_UCFG_DSI12_BASE) },	/* TD 41 */
 445:Generated_Source\PSoC5/cyfitter_cfg.c **** 		{ 128u, 0x2Bu, 0x23u, (uint16)(uint32)(0u), (uint16)(CYDEV_UCFG_DSI12_BASE + 0x00000080u) },	/* T
 446:Generated_Source\PSoC5/cyfitter_cfg.c **** 		{ 128u, 0x2Cu, 0x23u, (uint16)(uint32)(0u), (uint16)(CYDEV_UCFG_DSI7_BASE) },	/* TD 43 */
 447:Generated_Source\PSoC5/cyfitter_cfg.c **** 		{ 128u, 0x2Du, 0x23u, (uint16)(uint32)(0u), (uint16)(CYDEV_UCFG_DSI7_BASE + 0x00000080u) },	/* TD
 448:Generated_Source\PSoC5/cyfitter_cfg.c **** 		{ 128u, 0x2Eu, 0x23u, (uint16)(uint32)(0u), (uint16)(CYDEV_UCFG_DSI6_BASE) },	/* TD 45 */
 449:Generated_Source\PSoC5/cyfitter_cfg.c **** 		{ 128u, 0x2Fu, 0x23u, (uint16)(uint32)(0u), (uint16)(CYDEV_UCFG_DSI6_BASE + 0x00000080u) },	/* TD
 450:Generated_Source\PSoC5/cyfitter_cfg.c **** 		{ 128u, 0x30u, 0x23u, (uint16)(uint32)(0u), (uint16)(CYDEV_UCFG_DSI5_BASE + 0x00000080u) },	/* TD
 451:Generated_Source\PSoC5/cyfitter_cfg.c **** 		{ 128u, 0x31u, 0x23u, (uint16)(uint32)(0u), (uint16)(CYDEV_UCFG_DSI4_BASE) },	/* TD 48 */
 452:Generated_Source\PSoC5/cyfitter_cfg.c **** 		{ 128u, 0x32u, 0x23u, (uint16)(uint32)(0u), (uint16)(CYDEV_UCFG_DSI4_BASE + 0x00000080u) },	/* TD
 453:Generated_Source\PSoC5/cyfitter_cfg.c **** 		{ 128u, 0x33u, 0x23u, (uint16)(uint32)(0u), (uint16)(CYDEV_UCFG_B1_P5_ROUTE_BASE + 0x00000080u) }
 454:Generated_Source\PSoC5/cyfitter_cfg.c **** 		{ 128u, 0x34u, 0x23u, (uint16)(uint32)(0u), (uint16)(CYDEV_UCFG_B1_P2_ROUTE_BASE + 0x00000080u) }
 455:Generated_Source\PSoC5/cyfitter_cfg.c **** 		{ 128u, 0x35u, 0x23u, (uint16)(uint32)(0u), (uint16)(CYDEV_UCFG_B1_P4_ROUTE_BASE + 0x00000080u) }
 456:Generated_Source\PSoC5/cyfitter_cfg.c **** 		{ 128u, 0x36u, 0x23u, (uint16)(uint32)(0u), (uint16)(CYDEV_UCFG_B1_P3_ROUTE_BASE + 0x00000080u) }
 457:Generated_Source\PSoC5/cyfitter_cfg.c **** 		{ 128u, 0x37u, 0x23u, (uint16)(uint32)(0u), (uint16)(CYDEV_UCFG_B0_P4_ROUTE_BASE + 0x00000080u) }
 458:Generated_Source\PSoC5/cyfitter_cfg.c **** 		{ 128u, 0x38u, 0x23u, (uint16)(uint32)(0u), (uint16)(CYDEV_UCFG_B0_P3_ROUTE_BASE + 0x00000080u) }
 459:Generated_Source\PSoC5/cyfitter_cfg.c **** 		{ 128u, 0x39u, 0x23u, (uint16)(uint32)(0u), (uint16)(CYDEV_UCFG_B0_P5_ROUTE_BASE) },	/* TD 56 */
 460:Generated_Source\PSoC5/cyfitter_cfg.c **** 		{ 128u, 0x3Au, 0x23u, (uint16)(uint32)(0u), (uint16)(CYDEV_UCFG_B0_P5_ROUTE_BASE + 0x00000080u) }
 461:Generated_Source\PSoC5/cyfitter_cfg.c **** 		{ 128u, 0x3Bu, 0x23u, (uint16)(uint32)(0u), (uint16)(CYDEV_UCFG_B0_P2_ROUTE_BASE) },	/* TD 58 */
 462:Generated_Source\PSoC5/cyfitter_cfg.c **** 		{ 128u, 0x3Cu, 0x23u, (uint16)(uint32)(0u), (uint16)(CYDEV_UCFG_B0_P2_ROUTE_BASE + 0x00000080u) }
 463:Generated_Source\PSoC5/cyfitter_cfg.c **** 		{ 128u, 0x3Du, 0x23u, (uint16)(uint32)(0u), (uint16)(CYDEV_UCFG_B0_P6_ROUTE_BASE + 0x00000080u) }
 464:Generated_Source\PSoC5/cyfitter_cfg.c **** 		{ 128u, 0x3Eu, 0x23u, (uint16)(uint32)(0u), (uint16)(CYDEV_UCFG_B0_P1_ROUTE_BASE + 0x00000080u) }
 465:Generated_Source\PSoC5/cyfitter_cfg.c **** 		{ 128u, 0x3Fu, 0x23u, (uint16)(uint32)(0u), (uint16)(CYDEV_UCFG_B0_P7_ROUTE_BASE + 0x00000080u) }
 466:Generated_Source\PSoC5/cyfitter_cfg.c **** 		{ 128u, 0x40u, 0x23u, (uint16)(uint32)(0u), (uint16)(CYDEV_UCFG_B0_P0_ROUTE_BASE + 0x00000080u) }
 467:Generated_Source\PSoC5/cyfitter_cfg.c **** 		{ 128u, 0x41u, 0x23u, (uint16)(uint32)(0u), (uint16)(CYDEV_UCFG_DSI9_BASE) },	/* TD 64 */
 468:Generated_Source\PSoC5/cyfitter_cfg.c **** 		{ 128u, 0x42u, 0x23u, (uint16)(uint32)(0u), (uint16)(CYDEV_UCFG_DSI9_BASE + 0x00000080u) },	/* TD
 469:Generated_Source\PSoC5/cyfitter_cfg.c **** 		{ 128u, 0x43u, 0x23u, (uint16)(uint32)(0u), (uint16)(CYDEV_UCFG_DSI8_BASE) },	/* TD 66 */
 470:Generated_Source\PSoC5/cyfitter_cfg.c **** 		{ 128u, 0x44u, 0x23u, (uint16)(uint32)(0u), (uint16)(CYDEV_UCFG_DSI8_BASE + 0x00000080u) },	/* TD
 471:Generated_Source\PSoC5/cyfitter_cfg.c **** 		{ 128u, 0x45u, 0x23u, (uint16)(uint32)(0u), (uint16)(CYDEV_UCFG_DSI3_BASE) },	/* TD 68 */
 472:Generated_Source\PSoC5/cyfitter_cfg.c **** 		{ 128u, 0x46u, 0x23u, (uint16)(uint32)(0u), (uint16)(CYDEV_UCFG_DSI3_BASE + 0x00000080u) },	/* TD
 473:Generated_Source\PSoC5/cyfitter_cfg.c **** 		{ 128u, 0x47u, 0x23u, (uint16)(uint32)(0u), (uint16)(CYDEV_UCFG_DSI2_BASE) },	/* TD 70 */
 474:Generated_Source\PSoC5/cyfitter_cfg.c **** 		{ 128u, 0x48u, 0x23u, (uint16)(uint32)(0u), (uint16)(CYDEV_UCFG_DSI2_BASE + 0x00000080u) },	/* TD
 475:Generated_Source\PSoC5/cyfitter_cfg.c **** 		{ 128u, 0x49u, 0x23u, (uint16)(uint32)(0u), (uint16)(CYDEV_UCFG_DSI1_BASE) },	/* TD 72 */
 476:Generated_Source\PSoC5/cyfitter_cfg.c **** 		{ 128u, 0x4Au, 0x23u, (uint16)(uint32)(0u), (uint16)(CYDEV_UCFG_DSI1_BASE + 0x00000080u) },	/* TD
 477:Generated_Source\PSoC5/cyfitter_cfg.c **** 		{ 128u, 0x4Bu, 0x23u, (uint16)(uint32)(0u), (uint16)(CYDEV_UCFG_DSI0_BASE) },	/* TD 74 */
 478:Generated_Source\PSoC5/cyfitter_cfg.c **** 		{ 128u, 0xFEu, 0x23u, (uint16)(uint32)(0u), (uint16)(CYDEV_UCFG_DSI0_BASE + 0x00000080u) },	/* TD
 479:Generated_Source\PSoC5/cyfitter_cfg.c **** 	};
 480:Generated_Source\PSoC5/cyfitter_cfg.c **** 
 481:Generated_Source\PSoC5/cyfitter_cfg.c **** 	/* Source addresses can be relocated, but only when in 32bit addresses.
 482:Generated_Source\PSoC5/cyfitter_cfg.c **** 	   Because the standard TD table only has 16bit addresses, we generate a
 483:Generated_Source\PSoC5/cyfitter_cfg.c **** 	   separate table for the source addresses that does use 32bit addresses. This
 484:Generated_Source\PSoC5/cyfitter_cfg.c **** 	   table will be re-merged with the corresponding CFG_TD_LIST table during
 485:Generated_Source\PSoC5/cyfitter_cfg.c **** 	   initialization. */
 486:Generated_Source\PSoC5/cyfitter_cfg.c **** 	static const void * const CFG_TD_ADDR0[] = {
 487:Generated_Source\PSoC5/cyfitter_cfg.c **** 		(const void *)(CH1_ADDR_DATA0),	/* TD 1 */
ARM GAS  C:\Users\Luggi\AppData\Local\Temp\ccBZUEmf.s 			page 10


 488:Generated_Source\PSoC5/cyfitter_cfg.c **** 		(const void *)(CH2_ADDR_DATA0),	/* TD 2 */
 489:Generated_Source\PSoC5/cyfitter_cfg.c **** 		(const void *)(CH5_ADDR_DATA0),	/* TD 3 */
 490:Generated_Source\PSoC5/cyfitter_cfg.c **** 		(const void *)(CH6_ADDR_DATA0),	/* TD 4 */
 491:Generated_Source\PSoC5/cyfitter_cfg.c **** 		(const void *)(DMA_TD_START_CMD),	/* TD 5 */
 492:Generated_Source\PSoC5/cyfitter_cfg.c **** 		(const void *)(DMA_TD_START_CMD),	/* TD 6 */
 493:Generated_Source\PSoC5/cyfitter_cfg.c **** 		(const void *)(DMA_TD_START_CMD),	/* TD 7 */
 494:Generated_Source\PSoC5/cyfitter_cfg.c **** 		(const void *)(DMA_TD_START_CMD),	/* TD 8 */
 495:Generated_Source\PSoC5/cyfitter_cfg.c **** 		(const void *)(&DMA_ZERO_VAL),	/* TD 9 */
 496:Generated_Source\PSoC5/cyfitter_cfg.c **** 		(const void *)(&DMA_ZERO_VAL),	/* TD 10 */
 497:Generated_Source\PSoC5/cyfitter_cfg.c **** 		(const void *)(&DMA_ZERO_VAL),	/* TD 11 */
 498:Generated_Source\PSoC5/cyfitter_cfg.c **** 		(const void *)(&DMA_ZERO_VAL),	/* TD 12 */
 499:Generated_Source\PSoC5/cyfitter_cfg.c **** 		(const void *)(&DMA_ZERO_VAL),	/* TD 13 */
 500:Generated_Source\PSoC5/cyfitter_cfg.c **** 		(const void *)(&DMA_ZERO_VAL),	/* TD 14 */
 501:Generated_Source\PSoC5/cyfitter_cfg.c **** 		(const void *)(&DMA_ZERO_VAL),	/* TD 15 */
 502:Generated_Source\PSoC5/cyfitter_cfg.c **** 		(const void *)(&DMA_ZERO_VAL),	/* TD 16 */
 503:Generated_Source\PSoC5/cyfitter_cfg.c **** 		(const void *)(&DMA_ZERO_VAL),	/* TD 17 */
 504:Generated_Source\PSoC5/cyfitter_cfg.c **** 		(const void *)(&DMA_ZERO_VAL),	/* TD 18 */
 505:Generated_Source\PSoC5/cyfitter_cfg.c **** 		(const void *)(&DMA_ZERO_VAL),	/* TD 19 */
 506:Generated_Source\PSoC5/cyfitter_cfg.c **** 		(const void *)(&DMA_ZERO_VAL),	/* TD 20 */
 507:Generated_Source\PSoC5/cyfitter_cfg.c **** 		(const void *)(&DMA_ZERO_VAL),	/* TD 21 */
 508:Generated_Source\PSoC5/cyfitter_cfg.c **** 		(const void *)(&DMA_ZERO_VAL),	/* TD 22 */
 509:Generated_Source\PSoC5/cyfitter_cfg.c **** 		(const void *)(&DMA_ZERO_VAL),	/* TD 23 */
 510:Generated_Source\PSoC5/cyfitter_cfg.c **** 		(const void *)(BS_IOPORT_3_VAL),	/* TD 24 */
 511:Generated_Source\PSoC5/cyfitter_cfg.c **** 		(const void *)(BS_IOPORT_7_VAL),	/* TD 25 */
 512:Generated_Source\PSoC5/cyfitter_cfg.c **** 		(const void *)(BS_IOPORT_8_VAL),	/* TD 26 */
 513:Generated_Source\PSoC5/cyfitter_cfg.c **** 		(const void *)(BS_PICU_8_VAL),	/* TD 27 */
 514:Generated_Source\PSoC5/cyfitter_cfg.c **** 		(const void *)(BS_CMP0_VAL),	/* TD 28 */
 515:Generated_Source\PSoC5/cyfitter_cfg.c **** 		(const void *)(BS_CMP2_VAL),	/* TD 29 */
 516:Generated_Source\PSoC5/cyfitter_cfg.c **** 		(const void *)(BS_CMP3_VAL),	/* TD 30 */
 517:Generated_Source\PSoC5/cyfitter_cfg.c **** 		(const void *)(BS_TMR0_VAL),	/* TD 31 */
 518:Generated_Source\PSoC5/cyfitter_cfg.c **** 		(const void *)(BS_TMR1_VAL),	/* TD 32 */
 519:Generated_Source\PSoC5/cyfitter_cfg.c **** 		(const void *)(BS_SAR0_VAL),	/* TD 33 */
 520:Generated_Source\PSoC5/cyfitter_cfg.c **** 		(const void *)(BS_SAR1_VAL),	/* TD 34 */
 521:Generated_Source\PSoC5/cyfitter_cfg.c **** 		(const void *)(BS_IDMUX_IRQ_VAL),	/* TD 35 */
 522:Generated_Source\PSoC5/cyfitter_cfg.c **** 		(const void *)(BS_UDB_1_3_0_CONFIG_VAL),	/* TD 36 */
 523:Generated_Source\PSoC5/cyfitter_cfg.c **** 		(const void *)(BS_UDB_0_3_0_CONFIG_VAL),	/* TD 37 */
 524:Generated_Source\PSoC5/cyfitter_cfg.c **** 		(const void *)(BS_UDB_0_3_1_CONFIG_VAL),	/* TD 38 */
 525:Generated_Source\PSoC5/cyfitter_cfg.c **** 		(const void *)(BS_UCFG_BCTL0_VAL),	/* TD 39 */
 526:Generated_Source\PSoC5/cyfitter_cfg.c **** 		(const void *)(BS_DSI0_0_HV_ROUTING_VAL),	/* TD 40 */
 527:Generated_Source\PSoC5/cyfitter_cfg.c **** 		(const void *)(BS_DSISWITCH_0_1_VAL),	/* TD 41 */
 528:Generated_Source\PSoC5/cyfitter_cfg.c **** 		(const void *)(BS_DSI0_1_HV_ROUTING_VAL),	/* TD 42 */
 529:Generated_Source\PSoC5/cyfitter_cfg.c **** 		(const void *)(BS_DSISWITCH_0_2_VAL),	/* TD 43 */
 530:Generated_Source\PSoC5/cyfitter_cfg.c **** 		(const void *)(BS_DSI0_2_HV_ROUTING_VAL),	/* TD 44 */
 531:Generated_Source\PSoC5/cyfitter_cfg.c **** 		(const void *)(BS_DSISWITCH_0_3_VAL),	/* TD 45 */
 532:Generated_Source\PSoC5/cyfitter_cfg.c **** 		(const void *)(BS_DSI0_3_HV_ROUTING_VAL),	/* TD 46 */
 533:Generated_Source\PSoC5/cyfitter_cfg.c **** 		(const void *)(BS_DSI0_4_HV_ROUTING_VAL),	/* TD 47 */
 534:Generated_Source\PSoC5/cyfitter_cfg.c **** 		(const void *)(BS_DSISWITCH_0_5_VAL),	/* TD 48 */
 535:Generated_Source\PSoC5/cyfitter_cfg.c **** 		(const void *)(BS_DSI0_5_HV_ROUTING_VAL),	/* TD 49 */
 536:Generated_Source\PSoC5/cyfitter_cfg.c **** 		(const void *)(BS_UDB_1_0_HV_ROUTING_VAL),	/* TD 50 */
 537:Generated_Source\PSoC5/cyfitter_cfg.c **** 		(const void *)(BS_UDB_2_0_HV_ROUTING_VAL),	/* TD 51 */
 538:Generated_Source\PSoC5/cyfitter_cfg.c **** 		(const void *)(BS_UDB_1_1_HV_ROUTING_VAL),	/* TD 52 */
 539:Generated_Source\PSoC5/cyfitter_cfg.c **** 		(const void *)(BS_UDB_2_1_HV_ROUTING_VAL),	/* TD 53 */
 540:Generated_Source\PSoC5/cyfitter_cfg.c **** 		(const void *)(BS_UDB_1_2_HV_ROUTING_VAL),	/* TD 54 */
 541:Generated_Source\PSoC5/cyfitter_cfg.c **** 		(const void *)(BS_UDB_2_2_HV_ROUTING_VAL),	/* TD 55 */
 542:Generated_Source\PSoC5/cyfitter_cfg.c **** 		(const void *)(BS_UDBSWITCH_0_3_VAL),	/* TD 56 */
 543:Generated_Source\PSoC5/cyfitter_cfg.c **** 		(const void *)(BS_UDB_1_3_HV_ROUTING_VAL),	/* TD 57 */
 544:Generated_Source\PSoC5/cyfitter_cfg.c **** 		(const void *)(BS_UDBSWITCH_1_3_VAL),	/* TD 58 */
ARM GAS  C:\Users\Luggi\AppData\Local\Temp\ccBZUEmf.s 			page 11


 545:Generated_Source\PSoC5/cyfitter_cfg.c **** 		(const void *)(BS_UDB_2_3_HV_ROUTING_VAL),	/* TD 59 */
 546:Generated_Source\PSoC5/cyfitter_cfg.c **** 		(const void *)(BS_UDB_1_4_HV_ROUTING_VAL),	/* TD 60 */
 547:Generated_Source\PSoC5/cyfitter_cfg.c **** 		(const void *)(BS_UDB_2_4_HV_ROUTING_VAL),	/* TD 61 */
 548:Generated_Source\PSoC5/cyfitter_cfg.c **** 		(const void *)(BS_UDB_1_5_HV_ROUTING_VAL),	/* TD 62 */
 549:Generated_Source\PSoC5/cyfitter_cfg.c **** 		(const void *)(BS_UDB_2_5_HV_ROUTING_VAL),	/* TD 63 */
 550:Generated_Source\PSoC5/cyfitter_cfg.c **** 		(const void *)(BS_DSISWITCH_1_0_VAL),	/* TD 64 */
 551:Generated_Source\PSoC5/cyfitter_cfg.c **** 		(const void *)(BS_DSI3_0_HV_ROUTING_VAL),	/* TD 65 */
 552:Generated_Source\PSoC5/cyfitter_cfg.c **** 		(const void *)(BS_DSISWITCH_1_1_VAL),	/* TD 66 */
 553:Generated_Source\PSoC5/cyfitter_cfg.c **** 		(const void *)(BS_DSI3_1_HV_ROUTING_VAL),	/* TD 67 */
 554:Generated_Source\PSoC5/cyfitter_cfg.c **** 		(const void *)(BS_DSISWITCH_1_2_VAL),	/* TD 68 */
 555:Generated_Source\PSoC5/cyfitter_cfg.c **** 		(const void *)(BS_DSI3_2_HV_ROUTING_VAL),	/* TD 69 */
 556:Generated_Source\PSoC5/cyfitter_cfg.c **** 		(const void *)(BS_DSISWITCH_1_3_VAL),	/* TD 70 */
 557:Generated_Source\PSoC5/cyfitter_cfg.c **** 		(const void *)(BS_DSI3_3_HV_ROUTING_VAL),	/* TD 71 */
 558:Generated_Source\PSoC5/cyfitter_cfg.c **** 		(const void *)(BS_DSISWITCH_1_4_VAL),	/* TD 72 */
 559:Generated_Source\PSoC5/cyfitter_cfg.c **** 		(const void *)(BS_DSI3_4_HV_ROUTING_VAL),	/* TD 73 */
 560:Generated_Source\PSoC5/cyfitter_cfg.c **** 		(const void *)(BS_DSISWITCH_1_5_VAL),	/* TD 74 */
 561:Generated_Source\PSoC5/cyfitter_cfg.c **** 		(const void *)(BS_DSI3_5_HV_ROUTING_VAL),	/* TD 75 */
 562:Generated_Source\PSoC5/cyfitter_cfg.c **** 	};
 563:Generated_Source\PSoC5/cyfitter_cfg.c **** 
 564:Generated_Source\PSoC5/cyfitter_cfg.c **** 
 565:Generated_Source\PSoC5/cyfitter_cfg.c **** 	uint32 i;
 566:Generated_Source\PSoC5/cyfitter_cfg.c **** 
 567:Generated_Source\PSoC5/cyfitter_cfg.c **** 	DMA_ZERO_VAL = 0u;
 568:Generated_Source\PSoC5/cyfitter_cfg.c **** 	CY_SET_REG8((void CYXDATA *)CYREG_PHUB_CFGMEM0_CFG0, 0x10u);	/* set burstcnt */
 569:Generated_Source\PSoC5/cyfitter_cfg.c **** 	CY_SET_REG8((void CYXDATA *)CYREG_PHUB_CH0_BASIC_CFG, 0x01u);	/* enable ch0 */
 570:Generated_Source\PSoC5/cyfitter_cfg.c **** 	CY_SET_REG8((void CYXDATA *)(CYREG_PHUB_CH0_BASIC_STATUS+1u), 0x00u);	/* set first TD to 0 */
 571:Generated_Source\PSoC5/cyfitter_cfg.c **** 	CY_SET_REG16((void CYXDATA *)CYREG_PHUB_TDMEM0_ORIG_TD0, 75u*8u);	/* transfer size */
 572:Generated_Source\PSoC5/cyfitter_cfg.c **** 	CY_SET_REG8((void CYXDATA *)(CYREG_PHUB_TDMEM0_ORIG_TD0+2u), 0x01u);	/* set next TD to 1 */
 573:Generated_Source\PSoC5/cyfitter_cfg.c **** 	CY_SET_REG8((void CYXDATA *)(CYREG_PHUB_TDMEM0_ORIG_TD0+3u), 0x03u);	/* set TD flags */
 574:Generated_Source\PSoC5/cyfitter_cfg.c **** 	CY_SET_REG16((void CYXDATA *)CYREG_PHUB_TDMEM0_ORIG_TD1, (uint16)((uint32)CFG_TD_LIST0 & 0x0000FFF
 575:Generated_Source\PSoC5/cyfitter_cfg.c **** 	CY_SET_REG16((void CYXDATA *)(CYREG_PHUB_TDMEM0_ORIG_TD1+2u), CYDEV_PHUB_TDMEM1_BASE);	/* set td0'
 576:Generated_Source\PSoC5/cyfitter_cfg.c **** 	CY_SET_REG16((void CYXDATA *)CYREG_PHUB_CFGMEM0_CFG1, (uint16)(CYDEV_FLASH_BASE >> 16));	/* set ch
 577:Generated_Source\PSoC5/cyfitter_cfg.c **** 	CY_SET_REG16((void CYXDATA *)(CYREG_PHUB_CFGMEM0_CFG1+2u), (uint16)(CYDEV_PHUB_TDMEM1_BASE >> 16))
 578:Generated_Source\PSoC5/cyfitter_cfg.c **** 	CY_SET_REG8((void CYXDATA *)(CYREG_PHUB_CH1_BASIC_STATUS+1u), 0x09u);	/* ch1 first TD: 9 */
 579:Generated_Source\PSoC5/cyfitter_cfg.c **** 	CY_SET_REG8((void CYXDATA *)(CYREG_PHUB_CH2_BASIC_STATUS+1u), 0x0Au);	/* ch2 first TD: 10 */
 580:Generated_Source\PSoC5/cyfitter_cfg.c **** 	CY_SET_REG8((void CYXDATA *)(CYREG_PHUB_CH5_BASIC_STATUS+1u), 0x18u);	/* ch5 first TD: 24 */
 581:Generated_Source\PSoC5/cyfitter_cfg.c **** 	CY_SET_REG8((void CYXDATA *)(CYREG_PHUB_CH6_BASIC_STATUS+1u), 0x23u);	/* ch6 first TD: 35 */
 582:Generated_Source\PSoC5/cyfitter_cfg.c **** 
 583:Generated_Source\PSoC5/cyfitter_cfg.c **** 	CY_CFG_MEMORY_BARRIER();
 584:Generated_Source\PSoC5/cyfitter_cfg.c **** 	CY_SET_REG8((void CYXDATA *)CYREG_PHUB_CH0_ACTION, 0x01u); /* cpu_req */
 585:Generated_Source\PSoC5/cyfitter_cfg.c **** 	CY_CFG_MEMORY_BARRIER();
 586:Generated_Source\PSoC5/cyfitter_cfg.c **** 
 587:Generated_Source\PSoC5/cyfitter_cfg.c **** 	/* Wait for TDs to be copied into TDMEM */
 588:Generated_Source\PSoC5/cyfitter_cfg.c **** 	while (CY_GET_REG16((void CYXDATA *)CYREG_PHUB_TDMEM0_ORIG_TD0) != 0u) { }
 589:Generated_Source\PSoC5/cyfitter_cfg.c **** 
 590:Generated_Source\PSoC5/cyfitter_cfg.c **** 	/* Recombine TD source table (CFG_TD_ADDR0) with full TD table (CFG_TD_LIST0) */
 591:Generated_Source\PSoC5/cyfitter_cfg.c **** 	for (i = 0u; i < 75u; i++)
 592:Generated_Source\PSoC5/cyfitter_cfg.c **** 	{
 593:Generated_Source\PSoC5/cyfitter_cfg.c **** 		CY_SET_REG16((void CYXDATA *)(CYREG_PHUB_TDMEM1_ORIG_TD1 + (sizeof(struct td_t)*i)), (uint16)(uin
 594:Generated_Source\PSoC5/cyfitter_cfg.c **** 	}
 595:Generated_Source\PSoC5/cyfitter_cfg.c **** 
 596:Generated_Source\PSoC5/cyfitter_cfg.c **** 	CY_CFG_MEMORY_BARRIER();
 597:Generated_Source\PSoC5/cyfitter_cfg.c **** 	CY_SET_REG8((void CYXDATA *)CYREG_PHUB_CH0_ACTION, 0x01u); /* cpu_req */
 598:Generated_Source\PSoC5/cyfitter_cfg.c **** 	CY_CFG_MEMORY_BARRIER();
 599:Generated_Source\PSoC5/cyfitter_cfg.c **** 
 600:Generated_Source\PSoC5/cyfitter_cfg.c **** 	/* Wait for all DMA transfers to complete */
 601:Generated_Source\PSoC5/cyfitter_cfg.c **** 	while(0u != (CY_GET_REG8((void CYXDATA *)CYREG_PHUB_CH0_BASIC_STATUS) & 0x01u)){}
ARM GAS  C:\Users\Luggi\AppData\Local\Temp\ccBZUEmf.s 			page 12


 602:Generated_Source\PSoC5/cyfitter_cfg.c **** 	while(0u != (CY_GET_REG8((void CYXDATA *)CYREG_PHUB_CH1_BASIC_STATUS) & 0x01u)){}
 603:Generated_Source\PSoC5/cyfitter_cfg.c **** 	while(0u != (CY_GET_REG8((void CYXDATA *)CYREG_PHUB_CH2_BASIC_STATUS) & 0x01u)){}
 604:Generated_Source\PSoC5/cyfitter_cfg.c **** 	while(0u != (CY_GET_REG8((void CYXDATA *)CYREG_PHUB_CH5_BASIC_STATUS) & 0x01u)){}
 605:Generated_Source\PSoC5/cyfitter_cfg.c **** 	while(0u != (CY_GET_REG8((void CYXDATA *)CYREG_PHUB_CH6_BASIC_STATUS) & 0x01u)){}
 606:Generated_Source\PSoC5/cyfitter_cfg.c **** 
 607:Generated_Source\PSoC5/cyfitter_cfg.c **** 
 608:Generated_Source\PSoC5/cyfitter_cfg.c **** 	CYCONFIGCPY((void CYFAR *)(CYREG_IDMUX_DRQ_CTL0), (const void CYFAR *)(BS_IDMUX_VAL), 6u);
 609:Generated_Source\PSoC5/cyfitter_cfg.c **** 
 610:Generated_Source\PSoC5/cyfitter_cfg.c **** }
 611:Generated_Source\PSoC5/cyfitter_cfg.c **** /*******************************************************************************
 612:Generated_Source\PSoC5/cyfitter_cfg.c **** * Function Name: ClockSetup
 613:Generated_Source\PSoC5/cyfitter_cfg.c **** ********************************************************************************
 614:Generated_Source\PSoC5/cyfitter_cfg.c **** *
 615:Generated_Source\PSoC5/cyfitter_cfg.c **** * Summary:
 616:Generated_Source\PSoC5/cyfitter_cfg.c **** *  Performs the initialization of all of the clocks in the device based on the
 617:Generated_Source\PSoC5/cyfitter_cfg.c **** *  settings in the Clock tab of the DWR.  This includes enabling the requested
 618:Generated_Source\PSoC5/cyfitter_cfg.c **** *  clocks and setting the necessary dividers to produce the desired frequency. 
 619:Generated_Source\PSoC5/cyfitter_cfg.c **** *
 620:Generated_Source\PSoC5/cyfitter_cfg.c **** * Parameters:
 621:Generated_Source\PSoC5/cyfitter_cfg.c **** *  void
 622:Generated_Source\PSoC5/cyfitter_cfg.c **** *
 623:Generated_Source\PSoC5/cyfitter_cfg.c **** * Return:
 624:Generated_Source\PSoC5/cyfitter_cfg.c **** *  void
 625:Generated_Source\PSoC5/cyfitter_cfg.c **** *
 626:Generated_Source\PSoC5/cyfitter_cfg.c **** *******************************************************************************/
 627:Generated_Source\PSoC5/cyfitter_cfg.c **** static void ClockSetup(void);
 628:Generated_Source\PSoC5/cyfitter_cfg.c **** static void ClockSetup(void)
 629:Generated_Source\PSoC5/cyfitter_cfg.c **** {
 630:Generated_Source\PSoC5/cyfitter_cfg.c **** 	uint8 x32TrHold;
 631:Generated_Source\PSoC5/cyfitter_cfg.c **** 	uint32 timeout;
 632:Generated_Source\PSoC5/cyfitter_cfg.c **** 	uint8 pllLock;
 633:Generated_Source\PSoC5/cyfitter_cfg.c **** 
 634:Generated_Source\PSoC5/cyfitter_cfg.c **** 	x32TrHold = CY_GET_XTND_REG8((void CYFAR *)CYREG_X32_TR);
 635:Generated_Source\PSoC5/cyfitter_cfg.c **** 
 636:Generated_Source\PSoC5/cyfitter_cfg.c **** 	/* Configure Digital Clocks based on settings from Clock DWR */
 637:Generated_Source\PSoC5/cyfitter_cfg.c **** 	CY_SET_XTND_REG16((void CYFAR *)(CYREG_CLKDIST_DCFG0_CFG0), 0x01F3u);
 638:Generated_Source\PSoC5/cyfitter_cfg.c **** 	CY_SET_XTND_REG8((void CYFAR *)(CYREG_CLKDIST_DCFG0_CFG0 + 0x2u), 0x19u);
 639:Generated_Source\PSoC5/cyfitter_cfg.c **** 	CY_SET_XTND_REG16((void CYFAR *)(CYREG_CLKDIST_DCFG1_CFG0), 0x0000u);
 640:Generated_Source\PSoC5/cyfitter_cfg.c **** 	CY_SET_XTND_REG8((void CYFAR *)(CYREG_CLKDIST_DCFG1_CFG0 + 0x2u), 0x50u);
 641:Generated_Source\PSoC5/cyfitter_cfg.c **** 	CY_SET_XTND_REG16((void CYFAR *)(CYREG_CLKDIST_DCFG2_CFG0), 0x0027u);
 642:Generated_Source\PSoC5/cyfitter_cfg.c **** 	CY_SET_XTND_REG8((void CYFAR *)(CYREG_CLKDIST_DCFG2_CFG0 + 0x2u), 0x18u);
 643:Generated_Source\PSoC5/cyfitter_cfg.c **** 	CY_SET_XTND_REG16((void CYFAR *)(CYREG_CLKDIST_DCFG3_CFG0), 0x0013u);
 644:Generated_Source\PSoC5/cyfitter_cfg.c **** 	CY_SET_XTND_REG8((void CYFAR *)(CYREG_CLKDIST_DCFG3_CFG0 + 0x2u), 0x19u);
 645:Generated_Source\PSoC5/cyfitter_cfg.c **** 	CY_SET_XTND_REG16((void CYFAR *)(CYREG_CLKDIST_DCFG4_CFG0), 0x0CCCu);
 646:Generated_Source\PSoC5/cyfitter_cfg.c **** 	CY_SET_XTND_REG8((void CYFAR *)(CYREG_CLKDIST_DCFG4_CFG0 + 0x2u), 0x1Du);
 647:Generated_Source\PSoC5/cyfitter_cfg.c **** 
 648:Generated_Source\PSoC5/cyfitter_cfg.c **** 	/* Configure Analog Clocks based on settings from Clock DWR */
 649:Generated_Source\PSoC5/cyfitter_cfg.c **** 	CYCONFIGCPY((void CYFAR *)(CYREG_CLKDIST_ACFG0_CFG0), (const void CYFAR *)(BS_CYDEV_CLKDIST_ACFG0_
 650:Generated_Source\PSoC5/cyfitter_cfg.c **** 
 651:Generated_Source\PSoC5/cyfitter_cfg.c **** 	/* Configure ILO based on settings from Clock DWR */
 652:Generated_Source\PSoC5/cyfitter_cfg.c **** 	CY_SET_XTND_REG8((void CYFAR *)(CYREG_SLOWCLK_ILO_CR0), 0x06u);
 653:Generated_Source\PSoC5/cyfitter_cfg.c **** 
 654:Generated_Source\PSoC5/cyfitter_cfg.c **** 	/* Configure XTAL 32kHz based on settings from Clock DWR */
 655:Generated_Source\PSoC5/cyfitter_cfg.c **** 	CY_SET_XTND_REG8((void CYFAR *)(CYREG_SLOWCLK_X32_TST), 0xF3u);
 656:Generated_Source\PSoC5/cyfitter_cfg.c **** 	CY_SET_XTND_REG8((void CYFAR *)(CYREG_X32_TR), 0x03u);
 657:Generated_Source\PSoC5/cyfitter_cfg.c **** 	CY_SET_XTND_REG8((void CYFAR *)(CYREG_SLOWCLK_X32_CFG), 0x84u);
 658:Generated_Source\PSoC5/cyfitter_cfg.c **** 	CY_SET_XTND_REG8((void CYFAR *)(CYREG_SLOWCLK_X32_CR), 0x05u);
ARM GAS  C:\Users\Luggi\AppData\Local\Temp\ccBZUEmf.s 			page 13


 659:Generated_Source\PSoC5/cyfitter_cfg.c **** 	/* Wait up to 1000000us for the XTAL 32kHz to lock */
 660:Generated_Source\PSoC5/cyfitter_cfg.c **** 	for (timeout = 1000000u / 10u; (timeout > 0u) && ((CY_GET_XTND_REG8((void CYFAR *)CYREG_SLOWCLK_X3
 661:Generated_Source\PSoC5/cyfitter_cfg.c **** 	{ 
 662:Generated_Source\PSoC5/cyfitter_cfg.c **** 		
 663:Generated_Source\PSoC5/cyfitter_cfg.c **** 		CyDelayCycles(10u * 12u); /* Delay 10us based on 12MHz clock */
 664:Generated_Source\PSoC5/cyfitter_cfg.c **** 	}
 665:Generated_Source\PSoC5/cyfitter_cfg.c **** 	CY_SET_XTND_REG8((void CYFAR *)(CYREG_X32_TR), (x32TrHold));
 666:Generated_Source\PSoC5/cyfitter_cfg.c **** 
 667:Generated_Source\PSoC5/cyfitter_cfg.c **** 	/* Configure XTAL based on settings from Clock DWR */
 668:Generated_Source\PSoC5/cyfitter_cfg.c **** 	CY_SET_XTND_REG16((void CYFAR *)(CYREG_FASTCLK_XMHZ_CFG0), 0x3313u);
 669:Generated_Source\PSoC5/cyfitter_cfg.c **** 	CY_SET_XTND_REG8((void CYFAR *)(CYREG_FASTCLK_XMHZ_CSR), 0x05u);
 670:Generated_Source\PSoC5/cyfitter_cfg.c **** 	/* Wait up to 130000us for the XTAL to lock */
 671:Generated_Source\PSoC5/cyfitter_cfg.c **** 	CY_GET_XTND_REG8((void CYFAR *)CYREG_FASTCLK_XMHZ_CSR);
 672:Generated_Source\PSoC5/cyfitter_cfg.c **** 	for (timeout = 130000u / 10u; (timeout > 0u) && ((CY_GET_XTND_REG8((void CYFAR *)CYREG_FASTCLK_XMH
 673:Generated_Source\PSoC5/cyfitter_cfg.c **** 	{ 
 674:Generated_Source\PSoC5/cyfitter_cfg.c **** 		
 675:Generated_Source\PSoC5/cyfitter_cfg.c **** 		CyDelayCycles(10u * 12u); /* Delay 10us based on 12MHz clock */
 676:Generated_Source\PSoC5/cyfitter_cfg.c **** 	}
 677:Generated_Source\PSoC5/cyfitter_cfg.c **** 	if (timeout == 0u)
 678:Generated_Source\PSoC5/cyfitter_cfg.c **** 	{
 679:Generated_Source\PSoC5/cyfitter_cfg.c **** 		CyClockStartupError(CYCLOCKSTART_XTAL_ERROR);
 680:Generated_Source\PSoC5/cyfitter_cfg.c **** 	}
 681:Generated_Source\PSoC5/cyfitter_cfg.c **** 	CY_SET_XTND_REG8((void CYFAR *)(CYREG_CLKDIST_CR), 0x40u);
 682:Generated_Source\PSoC5/cyfitter_cfg.c **** 
 683:Generated_Source\PSoC5/cyfitter_cfg.c **** 	/* Configure IMO based on settings from Clock DWR */
 684:Generated_Source\PSoC5/cyfitter_cfg.c **** 	CY_SET_XTND_REG8((void CYFAR *)(CYREG_FASTCLK_IMO_CR), 0x70u);
 685:Generated_Source\PSoC5/cyfitter_cfg.c **** 
 686:Generated_Source\PSoC5/cyfitter_cfg.c **** 	/* Configure PLL based on settings from Clock DWR */
 687:Generated_Source\PSoC5/cyfitter_cfg.c **** 	CY_SET_XTND_REG16((void CYFAR *)(CYREG_FASTCLK_PLL_P), 0x0818u);
 688:Generated_Source\PSoC5/cyfitter_cfg.c **** 	CY_SET_XTND_REG16((void CYFAR *)(CYREG_FASTCLK_PLL_CFG0), 0x1251u);
 689:Generated_Source\PSoC5/cyfitter_cfg.c **** 	/* Wait up to 250us for the PLL to lock */
 690:Generated_Source\PSoC5/cyfitter_cfg.c **** 	pllLock = 0u;
 691:Generated_Source\PSoC5/cyfitter_cfg.c **** 	for (timeout = 250u / 10u; (timeout > 0u) && (pllLock != 0x03u); timeout--)
 692:Generated_Source\PSoC5/cyfitter_cfg.c **** 	{ 
 693:Generated_Source\PSoC5/cyfitter_cfg.c **** 		pllLock = 0x03u & ((uint8)((uint8)pllLock << 1) | ((CY_GET_XTND_REG8((void CYFAR *)CYREG_FASTCLK_
 694:Generated_Source\PSoC5/cyfitter_cfg.c **** 		CyDelayCycles(10u * 12u); /* Delay 10us based on 12MHz clock */
 695:Generated_Source\PSoC5/cyfitter_cfg.c **** 	}
 696:Generated_Source\PSoC5/cyfitter_cfg.c **** 	/* If we ran out of time the PLL didn't lock so go to the error function */
 697:Generated_Source\PSoC5/cyfitter_cfg.c **** 	if (timeout == 0u)
 698:Generated_Source\PSoC5/cyfitter_cfg.c **** 	{
 699:Generated_Source\PSoC5/cyfitter_cfg.c **** 		CyClockStartupError(CYCLOCKSTART_PLL_ERROR);
 700:Generated_Source\PSoC5/cyfitter_cfg.c **** 	}
 701:Generated_Source\PSoC5/cyfitter_cfg.c **** 
 702:Generated_Source\PSoC5/cyfitter_cfg.c **** 	/* Configure Bus/Master Clock based on settings from Clock DWR */
 703:Generated_Source\PSoC5/cyfitter_cfg.c **** 	CY_SET_XTND_REG16((void CYFAR *)(CYREG_CLKDIST_MSTR0), 0x0100u);
 704:Generated_Source\PSoC5/cyfitter_cfg.c **** 	CY_SET_XTND_REG8((void CYFAR *)(CYREG_CLKDIST_MSTR0), 0x07u);
 705:Generated_Source\PSoC5/cyfitter_cfg.c **** 	CY_SET_XTND_REG8((void CYFAR *)(CYREG_CLKDIST_BCFG0), 0x00u);
 706:Generated_Source\PSoC5/cyfitter_cfg.c **** 	CY_SET_XTND_REG8((void CYFAR *)(CYREG_CLKDIST_BCFG2), 0x48u);
 707:Generated_Source\PSoC5/cyfitter_cfg.c **** 	CY_SET_XTND_REG8((void CYFAR *)(CYREG_CLKDIST_MSTR0), 0x00u);
 708:Generated_Source\PSoC5/cyfitter_cfg.c **** 
 709:Generated_Source\PSoC5/cyfitter_cfg.c **** 	/* Configure USB Clock based on settings from Clock DWR */
 710:Generated_Source\PSoC5/cyfitter_cfg.c **** 	CY_SET_XTND_REG8((void CYFAR *)(CYREG_CLKDIST_UCFG), 0x00u);
 711:Generated_Source\PSoC5/cyfitter_cfg.c **** 	CY_SET_XTND_REG8((void CYFAR *)(CYREG_CLKDIST_LD), 0x02u);
 712:Generated_Source\PSoC5/cyfitter_cfg.c **** 	CY_SET_XTND_REG8((void CYFAR *)(CYREG_CLKDIST_DLY1), 0x04u);
 713:Generated_Source\PSoC5/cyfitter_cfg.c **** 
 714:Generated_Source\PSoC5/cyfitter_cfg.c **** 	CY_SET_XTND_REG8((void CYFAR *)(CYREG_PM_ACT_CFG2), ((CY_GET_XTND_REG8((void CYFAR *)CYREG_PM_ACT_
 715:Generated_Source\PSoC5/cyfitter_cfg.c **** 	CY_SET_XTND_REG8((void CYFAR *)(CYREG_PM_ACT_CFG1), ((CY_GET_XTND_REG8((void CYFAR *)CYREG_PM_ACT_
ARM GAS  C:\Users\Luggi\AppData\Local\Temp\ccBZUEmf.s 			page 14


 716:Generated_Source\PSoC5/cyfitter_cfg.c **** 	CY_SET_XTND_REG8((void CYFAR *)(CYREG_PM_ACT_CFG0), ((CY_GET_XTND_REG8((void CYFAR *)CYREG_PM_ACT_
 717:Generated_Source\PSoC5/cyfitter_cfg.c **** }
 718:Generated_Source\PSoC5/cyfitter_cfg.c **** 
 719:Generated_Source\PSoC5/cyfitter_cfg.c **** 
 720:Generated_Source\PSoC5/cyfitter_cfg.c **** /* Analog API Functions */
 721:Generated_Source\PSoC5/cyfitter_cfg.c **** 
 722:Generated_Source\PSoC5/cyfitter_cfg.c **** 
 723:Generated_Source\PSoC5/cyfitter_cfg.c **** /*******************************************************************************
 724:Generated_Source\PSoC5/cyfitter_cfg.c **** * Function Name: AnalogSetDefault
 725:Generated_Source\PSoC5/cyfitter_cfg.c **** ********************************************************************************
 726:Generated_Source\PSoC5/cyfitter_cfg.c **** *
 727:Generated_Source\PSoC5/cyfitter_cfg.c **** * Summary:
 728:Generated_Source\PSoC5/cyfitter_cfg.c **** *  Sets up the analog portions of the chip to default values based on chip
 729:Generated_Source\PSoC5/cyfitter_cfg.c **** *  configuration options from the project.
 730:Generated_Source\PSoC5/cyfitter_cfg.c **** *
 731:Generated_Source\PSoC5/cyfitter_cfg.c **** * Parameters:
 732:Generated_Source\PSoC5/cyfitter_cfg.c **** *  void
 733:Generated_Source\PSoC5/cyfitter_cfg.c **** *
 734:Generated_Source\PSoC5/cyfitter_cfg.c **** * Return:
 735:Generated_Source\PSoC5/cyfitter_cfg.c **** *  void
 736:Generated_Source\PSoC5/cyfitter_cfg.c **** *
 737:Generated_Source\PSoC5/cyfitter_cfg.c **** *******************************************************************************/
 738:Generated_Source\PSoC5/cyfitter_cfg.c **** static void AnalogSetDefault(void);
 739:Generated_Source\PSoC5/cyfitter_cfg.c **** static void AnalogSetDefault(void)
 740:Generated_Source\PSoC5/cyfitter_cfg.c **** {
 741:Generated_Source\PSoC5/cyfitter_cfg.c **** 	uint8 bg_xover_inl_trim = CY_GET_XTND_REG8((void CYFAR *)(CYREG_FLSHID_MFG_CFG_BG_XOVER_INL_TRIM +
 742:Generated_Source\PSoC5/cyfitter_cfg.c **** 	uint8 cr4 = CY_GET_XTND_REG8((void CYFAR *)(CYREG_RESET_CR4));
 743:Generated_Source\PSoC5/cyfitter_cfg.c **** 	uint8 cr5 = CY_GET_XTND_REG8((void CYFAR *)(CYREG_RESET_CR5));
 744:Generated_Source\PSoC5/cyfitter_cfg.c **** 	CY_SET_XTND_REG8((void CYFAR *)(CYREG_BG_DFT0), (bg_xover_inl_trim & 0x07u));
 745:Generated_Source\PSoC5/cyfitter_cfg.c **** 	CY_SET_XTND_REG8((void CYFAR *)(CYREG_BG_DFT1), ((bg_xover_inl_trim >> 4) & 0x0Fu));
 746:Generated_Source\PSoC5/cyfitter_cfg.c **** 	/* Disable PRES while setting up SAR voltage reference */
 747:Generated_Source\PSoC5/cyfitter_cfg.c **** 	CY_SET_XTND_REG8((void CYFAR *)(CYREG_RESET_CR4), (cr4 | 0x03u));
 748:Generated_Source\PSoC5/cyfitter_cfg.c **** 	CY_SET_XTND_REG8((void CYFAR *)(CYREG_RESET_CR5), (cr5 | 0x03u));
 749:Generated_Source\PSoC5/cyfitter_cfg.c **** 	CY_SET_XTND_REG16((void CYFAR *)CYREG_PRT1_AMUX, 0x4040u);
 750:Generated_Source\PSoC5/cyfitter_cfg.c **** 	CY_SET_XTND_REG16((void CYFAR *)CYREG_PRT3_AMUX, 0x0510u);
 751:Generated_Source\PSoC5/cyfitter_cfg.c **** 	CY_SET_XTND_REG16((void CYFAR *)CYREG_PRT4_AMUX, 0x0F20u);
 752:Generated_Source\PSoC5/cyfitter_cfg.c **** 	CY_SET_XTND_REG8((void CYFAR *)CYREG_PRT6_AG, 0x01u);
 753:Generated_Source\PSoC5/cyfitter_cfg.c **** 	CY_SET_XTND_REG8((void CYFAR *)CYREG_SAR0_CSR1, 0x40u);
 754:Generated_Source\PSoC5/cyfitter_cfg.c **** 	CY_SET_XTND_REG8((void CYFAR *)CYREG_SAR0_CSR3, 0x40u);
 755:Generated_Source\PSoC5/cyfitter_cfg.c **** 	CY_SET_XTND_REG8((void CYFAR *)CYREG_SAR1_CSR1, 0x40u);
 756:Generated_Source\PSoC5/cyfitter_cfg.c **** 	CY_SET_XTND_REG8((void CYFAR *)CYREG_SAR1_CSR3, 0x40u);
 757:Generated_Source\PSoC5/cyfitter_cfg.c **** 	CY_SET_XTND_REG8((void CYFAR *)CYREG_SC0_SW2, 0x08u);
 758:Generated_Source\PSoC5/cyfitter_cfg.c **** 	CY_SET_XTND_REG8((void CYFAR *)CYREG_SC0_SW8, 0x08u);
 759:Generated_Source\PSoC5/cyfitter_cfg.c **** 	CY_SET_XTND_REG8((void CYFAR *)CYREG_SC3_SW0, 0x12u);
 760:Generated_Source\PSoC5/cyfitter_cfg.c **** 	CY_SET_XTND_REG8((void CYFAR *)CYREG_SC3_SW8, 0x40u);
 761:Generated_Source\PSoC5/cyfitter_cfg.c **** 	CY_SET_XTND_REG8((void CYFAR *)CYREG_DAC0_SW4, 0x02u);
 762:Generated_Source\PSoC5/cyfitter_cfg.c **** 	CY_SET_XTND_REG8((void CYFAR *)CYREG_DAC1_SW0, 0x01u);
 763:Generated_Source\PSoC5/cyfitter_cfg.c **** 	CY_SET_XTND_REG16((void CYFAR *)CYREG_DAC2_SW2, 0x0104u);
 764:Generated_Source\PSoC5/cyfitter_cfg.c **** 	CY_SET_XTND_REG8((void CYFAR *)CYREG_DAC3_SW4, 0x10u);
 765:Generated_Source\PSoC5/cyfitter_cfg.c **** 	CY_SET_XTND_REG8((void CYFAR *)CYREG_CMP0_SW0, 0x10u);
 766:Generated_Source\PSoC5/cyfitter_cfg.c **** 	CY_SET_XTND_REG8((void CYFAR *)CYREG_CMP0_SW2, 0x01u);
 767:Generated_Source\PSoC5/cyfitter_cfg.c **** 	CY_SET_XTND_REG8((void CYFAR *)CYREG_CMP0_SW4, 0x40u);
 768:Generated_Source\PSoC5/cyfitter_cfg.c **** 	CY_SET_XTND_REG8((void CYFAR *)CYREG_CMP2_SW0, 0x20u);
 769:Generated_Source\PSoC5/cyfitter_cfg.c **** 	CY_SET_XTND_REG8((void CYFAR *)CYREG_CMP2_SW6, 0x04u);
 770:Generated_Source\PSoC5/cyfitter_cfg.c **** 	CY_SET_XTND_REG8((void CYFAR *)CYREG_CMP3_SW0, 0x20u);
 771:Generated_Source\PSoC5/cyfitter_cfg.c **** 	CY_SET_XTND_REG8((void CYFAR *)CYREG_CMP3_SW4, 0x80u);
 772:Generated_Source\PSoC5/cyfitter_cfg.c **** 	CY_SET_XTND_REG8((void CYFAR *)CYREG_DSM0_SW0, 0x04u);
ARM GAS  C:\Users\Luggi\AppData\Local\Temp\ccBZUEmf.s 			page 15


 773:Generated_Source\PSoC5/cyfitter_cfg.c **** 	CY_SET_XTND_REG16((void CYFAR *)CYREG_SAR0_SW2, 0x2001u);
 774:Generated_Source\PSoC5/cyfitter_cfg.c **** 	CY_SET_XTND_REG8((void CYFAR *)CYREG_SAR1_SW0, 0x08u);
 775:Generated_Source\PSoC5/cyfitter_cfg.c **** 	CY_SET_XTND_REG8((void CYFAR *)CYREG_SAR1_SW3, 0x20u);
 776:Generated_Source\PSoC5/cyfitter_cfg.c **** 	CY_SET_XTND_REG16((void CYFAR *)CYREG_OPAMP2_MX, 0x0408u);
 777:Generated_Source\PSoC5/cyfitter_cfg.c **** 	CY_SET_XTND_REG8((void CYFAR *)CYREG_BUS_SW0, 0xAFu);
 778:Generated_Source\PSoC5/cyfitter_cfg.c **** 	CyDelayUs(10u); /* Allow vref to settle before re-enabling PRES */
 779:Generated_Source\PSoC5/cyfitter_cfg.c **** 	CY_SET_XTND_REG8((void CYFAR *)(CYREG_RESET_CR5), (cr5));
 780:Generated_Source\PSoC5/cyfitter_cfg.c **** 	CY_SET_XTND_REG8((void CYFAR *)(CYREG_RESET_CR4), (cr4));
 781:Generated_Source\PSoC5/cyfitter_cfg.c **** 	CY_SET_XTND_REG8((void CYFAR *)CYREG_PUMP_CR0, 0x44u);
 782:Generated_Source\PSoC5/cyfitter_cfg.c **** }
 783:Generated_Source\PSoC5/cyfitter_cfg.c **** 
 784:Generated_Source\PSoC5/cyfitter_cfg.c **** 
 785:Generated_Source\PSoC5/cyfitter_cfg.c **** /*******************************************************************************
 786:Generated_Source\PSoC5/cyfitter_cfg.c **** * Function Name: SetAnalogRoutingPumps
 787:Generated_Source\PSoC5/cyfitter_cfg.c **** ********************************************************************************
 788:Generated_Source\PSoC5/cyfitter_cfg.c **** *
 789:Generated_Source\PSoC5/cyfitter_cfg.c **** * Summary:
 790:Generated_Source\PSoC5/cyfitter_cfg.c **** * Enables or disables the analog pumps feeding analog routing switches.
 791:Generated_Source\PSoC5/cyfitter_cfg.c **** * Intended to be called at startup, based on the Vdda system configuration;
 792:Generated_Source\PSoC5/cyfitter_cfg.c **** * may be called during operation when the user informs us that the Vdda voltage
 793:Generated_Source\PSoC5/cyfitter_cfg.c **** * crossed the pump threshold.
 794:Generated_Source\PSoC5/cyfitter_cfg.c **** *
 795:Generated_Source\PSoC5/cyfitter_cfg.c **** * Parameters:
 796:Generated_Source\PSoC5/cyfitter_cfg.c **** *  enabled - 1 to enable the pumps, 0 to disable the pumps
 797:Generated_Source\PSoC5/cyfitter_cfg.c **** *
 798:Generated_Source\PSoC5/cyfitter_cfg.c **** * Return:
 799:Generated_Source\PSoC5/cyfitter_cfg.c **** *  void
 800:Generated_Source\PSoC5/cyfitter_cfg.c **** *
 801:Generated_Source\PSoC5/cyfitter_cfg.c **** *******************************************************************************/
 802:Generated_Source\PSoC5/cyfitter_cfg.c **** void SetAnalogRoutingPumps(uint8 enabled)
 803:Generated_Source\PSoC5/cyfitter_cfg.c **** {
  27              		.loc 1 803 0
  28              		.cfi_startproc
  29              		@ args = 0, pretend = 0, frame = 0
  30              		@ frame_needed = 0, uses_anonymous_args = 0
  31              		@ link register save eliminated.
  32              	.LVL0:
 804:Generated_Source\PSoC5/cyfitter_cfg.c **** 	uint8 regValue = CY_GET_XTND_REG8((void CYFAR *)CYREG_PUMP_CR0);
  33              		.loc 1 804 0
  34 0000 054A     		ldr	r2, .L5
  35 0002 1378     		ldrb	r3, [r2]	@ zero_extendqisi2
  36 0004 DBB2     		uxtb	r3, r3
  37              	.LVL1:
 805:Generated_Source\PSoC5/cyfitter_cfg.c **** 	if (enabled != 0u)
  38              		.loc 1 805 0
  39 0006 10B1     		cbz	r0, .L2
 806:Generated_Source\PSoC5/cyfitter_cfg.c **** 	{
 807:Generated_Source\PSoC5/cyfitter_cfg.c **** 		regValue |= 0x22u;
  40              		.loc 1 807 0
  41 0008 43F02203 		orr	r3, r3, #34
  42              	.LVL2:
  43 000c 01E0     		b	.L3
  44              	.L2:
 808:Generated_Source\PSoC5/cyfitter_cfg.c **** 	}
 809:Generated_Source\PSoC5/cyfitter_cfg.c **** 	else
 810:Generated_Source\PSoC5/cyfitter_cfg.c **** 	{
 811:Generated_Source\PSoC5/cyfitter_cfg.c **** 		regValue &= (uint8)~0x22u;
ARM GAS  C:\Users\Luggi\AppData\Local\Temp\ccBZUEmf.s 			page 16


  45              		.loc 1 811 0
  46 000e 03F0DD03 		and	r3, r3, #221
  47              	.LVL3:
  48              	.L3:
 812:Generated_Source\PSoC5/cyfitter_cfg.c **** 	}
 813:Generated_Source\PSoC5/cyfitter_cfg.c **** 	CY_SET_XTND_REG8((void CYFAR *)CYREG_PUMP_CR0, regValue);
  49              		.loc 1 813 0
  50 0012 1370     		strb	r3, [r2]
  51 0014 7047     		bx	lr
  52              	.L6:
  53 0016 00BF     		.align	2
  54              	.L5:
  55 0018 76580040 		.word	1073764470
  56              		.cfi_endproc
  57              	.LFE7:
  58              		.size	SetAnalogRoutingPumps, .-SetAnalogRoutingPumps
  59              		.section	.text.ADC_DelSig_1_AMux_Set,"ax",%progbits
  60              		.align	1
  61              		.global	ADC_DelSig_1_AMux_Set
  62              		.thumb
  63              		.thumb_func
  64              		.type	ADC_DelSig_1_AMux_Set, %function
  65              	ADC_DelSig_1_AMux_Set:
  66              	.LFB8:
 814:Generated_Source\PSoC5/cyfitter_cfg.c **** }
 815:Generated_Source\PSoC5/cyfitter_cfg.c **** 
 816:Generated_Source\PSoC5/cyfitter_cfg.c **** #define CY_AMUX_UNUSED CYREG_BOOST_SR
 817:Generated_Source\PSoC5/cyfitter_cfg.c **** /* This is an implementation detail of the AMux. Code that depends on it may be
 818:Generated_Source\PSoC5/cyfitter_cfg.c ****    incompatible with other versions of PSoC Creator. */
 819:Generated_Source\PSoC5/cyfitter_cfg.c **** uint8 CYXDATA * const CYCODE ADC_DelSig_1_AMux__addrTable[2] = {
 820:Generated_Source\PSoC5/cyfitter_cfg.c **** 	(uint8 CYXDATA *)CYREG_DSM0_SW3, 
 821:Generated_Source\PSoC5/cyfitter_cfg.c **** 	(uint8 CYXDATA *)CY_AMUX_UNUSED, 
 822:Generated_Source\PSoC5/cyfitter_cfg.c **** };
 823:Generated_Source\PSoC5/cyfitter_cfg.c **** 
 824:Generated_Source\PSoC5/cyfitter_cfg.c **** /* This is an implementation detail of the AMux. Code that depends on it may be
 825:Generated_Source\PSoC5/cyfitter_cfg.c ****    incompatible with other versions of PSoC Creator. */
 826:Generated_Source\PSoC5/cyfitter_cfg.c **** const uint8 CYCODE ADC_DelSig_1_AMux__maskTable[2] = {
 827:Generated_Source\PSoC5/cyfitter_cfg.c **** 	0x40u, 
 828:Generated_Source\PSoC5/cyfitter_cfg.c **** 	0x00u, 
 829:Generated_Source\PSoC5/cyfitter_cfg.c **** };
 830:Generated_Source\PSoC5/cyfitter_cfg.c **** 
 831:Generated_Source\PSoC5/cyfitter_cfg.c **** /*******************************************************************************
 832:Generated_Source\PSoC5/cyfitter_cfg.c **** * Function Name: ADC_DelSig_1_AMux_Set
 833:Generated_Source\PSoC5/cyfitter_cfg.c **** ********************************************************************************
 834:Generated_Source\PSoC5/cyfitter_cfg.c **** * Summary:
 835:Generated_Source\PSoC5/cyfitter_cfg.c **** *  This function is used to set a particular channel as active on the AMux.
 836:Generated_Source\PSoC5/cyfitter_cfg.c **** *
 837:Generated_Source\PSoC5/cyfitter_cfg.c **** * Parameters:  
 838:Generated_Source\PSoC5/cyfitter_cfg.c **** *   channel - The mux channel input to set as active
 839:Generated_Source\PSoC5/cyfitter_cfg.c **** *
 840:Generated_Source\PSoC5/cyfitter_cfg.c **** * Return:
 841:Generated_Source\PSoC5/cyfitter_cfg.c **** *   void
 842:Generated_Source\PSoC5/cyfitter_cfg.c **** *
 843:Generated_Source\PSoC5/cyfitter_cfg.c **** *******************************************************************************/
 844:Generated_Source\PSoC5/cyfitter_cfg.c **** void ADC_DelSig_1_AMux_Set(uint8 channel)
 845:Generated_Source\PSoC5/cyfitter_cfg.c **** {
  67              		.loc 1 845 0
ARM GAS  C:\Users\Luggi\AppData\Local\Temp\ccBZUEmf.s 			page 17


  68              		.cfi_startproc
  69              		@ args = 0, pretend = 0, frame = 0
  70              		@ frame_needed = 0, uses_anonymous_args = 0
  71              		@ link register save eliminated.
  72              	.LVL4:
 846:Generated_Source\PSoC5/cyfitter_cfg.c **** 	if (channel < 2)
  73              		.loc 1 846 0
  74 0000 0128     		cmp	r0, #1
  75 0002 07D8     		bhi	.L7
 847:Generated_Source\PSoC5/cyfitter_cfg.c **** 	{
 848:Generated_Source\PSoC5/cyfitter_cfg.c **** 		*ADC_DelSig_1_AMux__addrTable[channel] |= ADC_DelSig_1_AMux__maskTable[channel];
  76              		.loc 1 848 0
  77 0004 044B     		ldr	r3, .L9
  78 0006 53F82020 		ldr	r2, [r3, r0, lsl #2]
  79 000a 1844     		add	r0, r0, r3
  80              	.LVL5:
  81 000c 1178     		ldrb	r1, [r2]	@ zero_extendqisi2
  82 000e 037A     		ldrb	r3, [r0, #8]	@ zero_extendqisi2
  83 0010 0B43     		orrs	r3, r3, r1
  84 0012 1370     		strb	r3, [r2]
  85              	.L7:
  86 0014 7047     		bx	lr
  87              	.L10:
  88 0016 00BF     		.align	2
  89              	.L9:
  90 0018 00000000 		.word	.LANCHOR0
  91              		.cfi_endproc
  92              	.LFE8:
  93              		.size	ADC_DelSig_1_AMux_Set, .-ADC_DelSig_1_AMux_Set
  94              		.section	.text.ADC_DelSig_1_AMux_Unset,"ax",%progbits
  95              		.align	1
  96              		.global	ADC_DelSig_1_AMux_Unset
  97              		.thumb
  98              		.thumb_func
  99              		.type	ADC_DelSig_1_AMux_Unset, %function
 100              	ADC_DelSig_1_AMux_Unset:
 101              	.LFB9:
 849:Generated_Source\PSoC5/cyfitter_cfg.c **** 	}
 850:Generated_Source\PSoC5/cyfitter_cfg.c **** }
 851:Generated_Source\PSoC5/cyfitter_cfg.c **** 
 852:Generated_Source\PSoC5/cyfitter_cfg.c **** /*******************************************************************************
 853:Generated_Source\PSoC5/cyfitter_cfg.c **** * Function Name: ADC_DelSig_1_AMux_Unset
 854:Generated_Source\PSoC5/cyfitter_cfg.c **** ********************************************************************************
 855:Generated_Source\PSoC5/cyfitter_cfg.c **** * Summary:
 856:Generated_Source\PSoC5/cyfitter_cfg.c **** *  This function is used to clear a particular channel from being active on the
 857:Generated_Source\PSoC5/cyfitter_cfg.c **** *  AMux.
 858:Generated_Source\PSoC5/cyfitter_cfg.c **** *
 859:Generated_Source\PSoC5/cyfitter_cfg.c **** * Parameters:  
 860:Generated_Source\PSoC5/cyfitter_cfg.c **** *   channel - The mux channel input to mark inactive
 861:Generated_Source\PSoC5/cyfitter_cfg.c **** *
 862:Generated_Source\PSoC5/cyfitter_cfg.c **** * Return:
 863:Generated_Source\PSoC5/cyfitter_cfg.c **** *   void
 864:Generated_Source\PSoC5/cyfitter_cfg.c **** *
 865:Generated_Source\PSoC5/cyfitter_cfg.c **** *******************************************************************************/
 866:Generated_Source\PSoC5/cyfitter_cfg.c **** void ADC_DelSig_1_AMux_Unset(uint8 channel)
 867:Generated_Source\PSoC5/cyfitter_cfg.c **** {
 102              		.loc 1 867 0
ARM GAS  C:\Users\Luggi\AppData\Local\Temp\ccBZUEmf.s 			page 18


 103              		.cfi_startproc
 104              		@ args = 0, pretend = 0, frame = 0
 105              		@ frame_needed = 0, uses_anonymous_args = 0
 106              		@ link register save eliminated.
 107              	.LVL6:
 868:Generated_Source\PSoC5/cyfitter_cfg.c **** 	if (channel < 2)
 108              		.loc 1 868 0
 109 0000 0128     		cmp	r0, #1
 110 0002 08D8     		bhi	.L11
 869:Generated_Source\PSoC5/cyfitter_cfg.c **** 	{
 870:Generated_Source\PSoC5/cyfitter_cfg.c **** 		*ADC_DelSig_1_AMux__addrTable[channel] &= (uint8)~ADC_DelSig_1_AMux__maskTable[channel];
 111              		.loc 1 870 0
 112 0004 044B     		ldr	r3, .L13
 113 0006 53F82020 		ldr	r2, [r3, r0, lsl #2]
 114 000a 1844     		add	r0, r0, r3
 115              	.LVL7:
 116 000c 017A     		ldrb	r1, [r0, #8]	@ zero_extendqisi2
 117 000e 1378     		ldrb	r3, [r2]	@ zero_extendqisi2
 118 0010 23EA0103 		bic	r3, r3, r1
 119 0014 1370     		strb	r3, [r2]
 120              	.L11:
 121 0016 7047     		bx	lr
 122              	.L14:
 123              		.align	2
 124              	.L13:
 125 0018 00000000 		.word	.LANCHOR0
 126              		.cfi_endproc
 127              	.LFE9:
 128              		.size	ADC_DelSig_1_AMux_Unset, .-ADC_DelSig_1_AMux_Unset
 129              		.section	.text.cyfitter_cfg,"ax",%progbits
 130              		.align	1
 131              		.global	cyfitter_cfg
 132              		.thumb
 133              		.thumb_func
 134              		.type	cyfitter_cfg, %function
 135              	cyfitter_cfg:
 136              	.LFB10:
 871:Generated_Source\PSoC5/cyfitter_cfg.c **** 	}
 872:Generated_Source\PSoC5/cyfitter_cfg.c **** }
 873:Generated_Source\PSoC5/cyfitter_cfg.c **** 
 874:Generated_Source\PSoC5/cyfitter_cfg.c **** 
 875:Generated_Source\PSoC5/cyfitter_cfg.c **** 
 876:Generated_Source\PSoC5/cyfitter_cfg.c **** /*******************************************************************************
 877:Generated_Source\PSoC5/cyfitter_cfg.c **** * Function Name: cyfitter_cfg
 878:Generated_Source\PSoC5/cyfitter_cfg.c **** ********************************************************************************
 879:Generated_Source\PSoC5/cyfitter_cfg.c **** * Summary:
 880:Generated_Source\PSoC5/cyfitter_cfg.c **** *  This function is called by the start-up code for the selected device. It
 881:Generated_Source\PSoC5/cyfitter_cfg.c **** *  performs all of the necessary device configuration based on the design
 882:Generated_Source\PSoC5/cyfitter_cfg.c **** *  settings.  This includes settings from the Design Wide Resources (DWR) such
 883:Generated_Source\PSoC5/cyfitter_cfg.c **** *  as Clocks and Pins as well as any component configuration that is necessary.
 884:Generated_Source\PSoC5/cyfitter_cfg.c **** *
 885:Generated_Source\PSoC5/cyfitter_cfg.c **** * Parameters:  
 886:Generated_Source\PSoC5/cyfitter_cfg.c **** *   void
 887:Generated_Source\PSoC5/cyfitter_cfg.c **** *
 888:Generated_Source\PSoC5/cyfitter_cfg.c **** * Return:
 889:Generated_Source\PSoC5/cyfitter_cfg.c **** *   void
 890:Generated_Source\PSoC5/cyfitter_cfg.c **** *
ARM GAS  C:\Users\Luggi\AppData\Local\Temp\ccBZUEmf.s 			page 19


 891:Generated_Source\PSoC5/cyfitter_cfg.c **** *******************************************************************************/
 892:Generated_Source\PSoC5/cyfitter_cfg.c **** 
 893:Generated_Source\PSoC5/cyfitter_cfg.c **** void cyfitter_cfg(void)
 894:Generated_Source\PSoC5/cyfitter_cfg.c **** {
 137              		.loc 1 894 0
 138              		.cfi_startproc
 139              		@ args = 0, pretend = 0, frame = 0
 140              		@ frame_needed = 0, uses_anonymous_args = 0
 141 0000 2DE9F843 		push	{r3, r4, r5, r6, r7, r8, r9, lr}
 142              		.cfi_def_cfa_offset 32
 143              		.cfi_offset 3, -32
 144              		.cfi_offset 4, -28
 145              		.cfi_offset 5, -24
 146              		.cfi_offset 6, -20
 147              		.cfi_offset 7, -16
 148              		.cfi_offset 8, -12
 149              		.cfi_offset 9, -8
 150              		.cfi_offset 14, -4
 895:Generated_Source\PSoC5/cyfitter_cfg.c **** #ifdef CYGlobalIntDisable
 896:Generated_Source\PSoC5/cyfitter_cfg.c **** 	/* Disable interrupts by default. Let user enable if/when they want. */
 897:Generated_Source\PSoC5/cyfitter_cfg.c **** 	CYGlobalIntDisable
 151              		.loc 1 897 0
 152              	@ 897 "Generated_Source\PSoC5\cyfitter_cfg.c" 1
 153 0004 72B6     		CPSID   i
 154              	@ 0 "" 2
 898:Generated_Source\PSoC5/cyfitter_cfg.c **** #endif
 899:Generated_Source\PSoC5/cyfitter_cfg.c **** 
 900:Generated_Source\PSoC5/cyfitter_cfg.c **** 	/* Enable/Disable Debug functionality based on settings from System DWR */
 901:Generated_Source\PSoC5/cyfitter_cfg.c **** 	CY_SET_XTND_REG8((void CYFAR *)CYREG_MLOGIC_DEBUG, (CY_GET_XTND_REG8((void CYFAR *)CYREG_MLOGIC_DE
 155              		.loc 1 901 0
 156              		.thumb
 157 0006 8C4A     		ldr	r2, .L48
 158              	.LBB62:
 159              	.LBB63:
 568:Generated_Source\PSoC5/cyfitter_cfg.c **** 	CY_SET_REG8((void CYXDATA *)CYREG_PHUB_CH0_BASIC_CFG, 0x01u);	/* enable ch0 */
 160              		.loc 1 568 0
 161 0008 1021     		movs	r1, #16
 162              	.LBE63:
 163              	.LBE62:
 164              		.loc 1 901 0
 165 000a 1378     		ldrb	r3, [r2]	@ zero_extendqisi2
 166              	.LBB68:
 167              	.LBB66:
 571:Generated_Source\PSoC5/cyfitter_cfg.c **** 	CY_SET_REG8((void CYXDATA *)(CYREG_PHUB_TDMEM0_ORIG_TD0+2u), 0x01u);	/* set next TD to 1 */
 168              		.loc 1 571 0
 169 000c 4FF41670 		mov	r0, #600
 170              	.LBE66:
 171              	.LBE68:
 172              		.loc 1 901 0
 173 0010 43F00403 		orr	r3, r3, #4
 174 0014 1370     		strb	r3, [r2]
 175              	.LBB69:
 176              	.LBB67:
 567:Generated_Source\PSoC5/cyfitter_cfg.c **** 	CY_SET_REG8((void CYXDATA *)CYREG_PHUB_CFGMEM0_CFG0, 0x10u);	/* set burstcnt */
 177              		.loc 1 567 0
 178 0016 894A     		ldr	r2, .L48+4
 179 0018 0023     		movs	r3, #0
ARM GAS  C:\Users\Luggi\AppData\Local\Temp\ccBZUEmf.s 			page 20


 180 001a 1360     		str	r3, [r2]
 568:Generated_Source\PSoC5/cyfitter_cfg.c **** 	CY_SET_REG8((void CYXDATA *)CYREG_PHUB_CH0_BASIC_CFG, 0x01u);	/* enable ch0 */
 181              		.loc 1 568 0
 182 001c 884A     		ldr	r2, .L48+8
 573:Generated_Source\PSoC5/cyfitter_cfg.c **** 	CY_SET_REG16((void CYXDATA *)CYREG_PHUB_TDMEM0_ORIG_TD1, (uint16)((uint32)CFG_TD_LIST0 & 0x0000FFF
 183              		.loc 1 573 0
 184 001e 0324     		movs	r4, #3
 568:Generated_Source\PSoC5/cyfitter_cfg.c **** 	CY_SET_REG8((void CYXDATA *)CYREG_PHUB_CH0_BASIC_CFG, 0x01u);	/* enable ch0 */
 185              		.loc 1 568 0
 186 0020 1170     		strb	r1, [r2]
 569:Generated_Source\PSoC5/cyfitter_cfg.c **** 	CY_SET_REG8((void CYXDATA *)(CYREG_PHUB_CH0_BASIC_STATUS+1u), 0x00u);	/* set first TD to 0 */
 187              		.loc 1 569 0
 188 0022 0121     		movs	r1, #1
 189 0024 A2F5BE62 		sub	r2, r2, #1520
 190 0028 1170     		strb	r1, [r2]
 570:Generated_Source\PSoC5/cyfitter_cfg.c **** 	CY_SET_REG16((void CYXDATA *)CYREG_PHUB_TDMEM0_ORIG_TD0, 75u*8u);	/* transfer size */
 191              		.loc 1 570 0
 192 002a 5372     		strb	r3, [r2, #9]
 571:Generated_Source\PSoC5/cyfitter_cfg.c **** 	CY_SET_REG8((void CYXDATA *)(CYREG_PHUB_TDMEM0_ORIG_TD0+2u), 0x01u);	/* set next TD to 1 */
 193              		.loc 1 571 0
 194 002c A2F8F007 		strh	r0, [r2, #2032]	@ movhi
 572:Generated_Source\PSoC5/cyfitter_cfg.c **** 	CY_SET_REG8((void CYXDATA *)(CYREG_PHUB_TDMEM0_ORIG_TD0+3u), 0x03u);	/* set TD flags */
 195              		.loc 1 572 0
 196 0030 8448     		ldr	r0, .L48+12
 571:Generated_Source\PSoC5/cyfitter_cfg.c **** 	CY_SET_REG8((void CYXDATA *)(CYREG_PHUB_TDMEM0_ORIG_TD0+2u), 0x01u);	/* set next TD to 1 */
 197              		.loc 1 571 0
 198 0032 02F5FE62 		add	r2, r2, #2032
 572:Generated_Source\PSoC5/cyfitter_cfg.c **** 	CY_SET_REG8((void CYXDATA *)(CYREG_PHUB_TDMEM0_ORIG_TD0+3u), 0x03u);	/* set TD flags */
 199              		.loc 1 572 0
 200 0036 0170     		strb	r1, [r0]
 573:Generated_Source\PSoC5/cyfitter_cfg.c **** 	CY_SET_REG16((void CYXDATA *)CYREG_PHUB_TDMEM0_ORIG_TD1, (uint16)((uint32)CFG_TD_LIST0 & 0x0000FFF
 201              		.loc 1 573 0
 202 0038 4470     		strb	r4, [r0, #1]
 574:Generated_Source\PSoC5/cyfitter_cfg.c **** 	CY_SET_REG16((void CYXDATA *)(CYREG_PHUB_TDMEM0_ORIG_TD1+2u), CYDEV_PHUB_TDMEM1_BASE);	/* set td0'
 203              		.loc 1 574 0
 204 003a 834C     		ldr	r4, .L48+16
 576:Generated_Source\PSoC5/cyfitter_cfg.c **** 	CY_SET_REG16((void CYXDATA *)(CYREG_PHUB_CFGMEM0_CFG1+2u), (uint16)(CYDEV_PHUB_TDMEM1_BASE >> 16))
 205              		.loc 1 576 0
 206 003c A0F5FF70 		sub	r0, r0, #510
 574:Generated_Source\PSoC5/cyfitter_cfg.c **** 	CY_SET_REG16((void CYXDATA *)(CYREG_PHUB_TDMEM0_ORIG_TD1+2u), CYDEV_PHUB_TDMEM1_BASE);	/* set td0'
 207              		.loc 1 574 0
 208 0040 A0F80042 		strh	r4, [r0, #512]	@ movhi
 575:Generated_Source\PSoC5/cyfitter_cfg.c **** 	CY_SET_REG16((void CYXDATA *)CYREG_PHUB_CFGMEM0_CFG1, (uint16)(CYDEV_FLASH_BASE >> 16));	/* set ch
 209              		.loc 1 575 0
 210 0044 47F60804 		movw	r4, #30728
 211 0048 A0F80242 		strh	r4, [r0, #514]	@ movhi
 576:Generated_Source\PSoC5/cyfitter_cfg.c **** 	CY_SET_REG16((void CYXDATA *)(CYREG_PHUB_CFGMEM0_CFG1+2u), (uint16)(CYDEV_PHUB_TDMEM1_BASE >> 16))
 212              		.loc 1 576 0
 213 004c 0380     		strh	r3, [r0]	@ movhi
 577:Generated_Source\PSoC5/cyfitter_cfg.c **** 	CY_SET_REG8((void CYXDATA *)(CYREG_PHUB_CH1_BASIC_STATUS+1u), 0x09u);	/* ch1 first TD: 9 */
 214              		.loc 1 577 0
 215 004e 7F4B     		ldr	r3, .L48+20
 216 0050 4FF48040 		mov	r0, #16384
 217 0054 1880     		strh	r0, [r3]	@ movhi
 578:Generated_Source\PSoC5/cyfitter_cfg.c **** 	CY_SET_REG8((void CYXDATA *)(CYREG_PHUB_CH2_BASIC_STATUS+1u), 0x0Au);	/* ch2 first TD: 10 */
 218              		.loc 1 578 0
 219 0056 A3F2DD53 		subw	r3, r3, #1501
ARM GAS  C:\Users\Luggi\AppData\Local\Temp\ccBZUEmf.s 			page 21


 220 005a 0920     		movs	r0, #9
 221 005c 1870     		strb	r0, [r3]
 579:Generated_Source\PSoC5/cyfitter_cfg.c **** 	CY_SET_REG8((void CYXDATA *)(CYREG_PHUB_CH5_BASIC_STATUS+1u), 0x18u);	/* ch5 first TD: 24 */
 222              		.loc 1 579 0
 223 005e 0A20     		movs	r0, #10
 224 0060 1874     		strb	r0, [r3, #16]
 580:Generated_Source\PSoC5/cyfitter_cfg.c **** 	CY_SET_REG8((void CYXDATA *)(CYREG_PHUB_CH6_BASIC_STATUS+1u), 0x23u);	/* ch6 first TD: 35 */
 225              		.loc 1 580 0
 226 0062 1820     		movs	r0, #24
 227 0064 83F84000 		strb	r0, [r3, #64]
 581:Generated_Source\PSoC5/cyfitter_cfg.c **** 
 228              		.loc 1 581 0
 229 0068 2320     		movs	r0, #35
 230 006a 83F85000 		strb	r0, [r3, #80]
 583:Generated_Source\PSoC5/cyfitter_cfg.c **** 	CY_SET_REG8((void CYXDATA *)CYREG_PHUB_CH0_ACTION, 0x01u); /* cpu_req */
 231              		.loc 1 583 0
 232 006e BFF35F8F 		dmb	sy
 584:Generated_Source\PSoC5/cyfitter_cfg.c **** 	CY_CFG_MEMORY_BARRIER();
 233              		.loc 1 584 0
 234 0072 153B     		subs	r3, r3, #21
 235 0074 1970     		strb	r1, [r3]
 585:Generated_Source\PSoC5/cyfitter_cfg.c **** 
 236              		.loc 1 585 0
 237 0076 BFF35F8F 		dmb	sy
 238 007a 1146     		mov	r1, r2
 239 007c 1A46     		mov	r2, r3
 240              	.L16:
 588:Generated_Source\PSoC5/cyfitter_cfg.c **** 
 241              		.loc 1 588 0
 242 007e 0B88     		ldrh	r3, [r1]
 243 0080 9BB2     		uxth	r3, r3
 244 0082 002B     		cmp	r3, #0
 245 0084 FBD1     		bne	.L16
 246              	.L17:
 247              	.LVL8:
 248 0086 7249     		ldr	r1, .L48+24
 249 0088 D800     		lsls	r0, r3, #3
 250 008a 0144     		add	r1, r1, r0
 593:Generated_Source\PSoC5/cyfitter_cfg.c **** 	}
 251              		.loc 1 593 0
 252 008c 7148     		ldr	r0, .L48+28
 253 008e 30F82300 		ldrh	r0, [r0, r3, lsl #2]
 591:Generated_Source\PSoC5/cyfitter_cfg.c **** 	{
 254              		.loc 1 591 0
 255 0092 0133     		adds	r3, r3, #1
 256              	.LVL9:
 257 0094 4B2B     		cmp	r3, #75
 593:Generated_Source\PSoC5/cyfitter_cfg.c **** 	}
 258              		.loc 1 593 0
 259 0096 0880     		strh	r0, [r1]	@ movhi
 591:Generated_Source\PSoC5/cyfitter_cfg.c **** 	{
 260              		.loc 1 591 0
 261 0098 F5D1     		bne	.L17
 596:Generated_Source\PSoC5/cyfitter_cfg.c **** 	CY_SET_REG8((void CYXDATA *)CYREG_PHUB_CH0_ACTION, 0x01u); /* cpu_req */
 262              		.loc 1 596 0
 263 009a BFF35F8F 		dmb	sy
 597:Generated_Source\PSoC5/cyfitter_cfg.c **** 	CY_CFG_MEMORY_BARRIER();
ARM GAS  C:\Users\Luggi\AppData\Local\Temp\ccBZUEmf.s 			page 22


 264              		.loc 1 597 0
 265 009e 0123     		movs	r3, #1
 266              	.LVL10:
 267 00a0 1370     		strb	r3, [r2]
 598:Generated_Source\PSoC5/cyfitter_cfg.c **** 
 268              		.loc 1 598 0
 269 00a2 BFF35F8F 		dmb	sy
 270              	.L18:
 601:Generated_Source\PSoC5/cyfitter_cfg.c **** 	while(0u != (CY_GET_REG8((void CYXDATA *)CYREG_PHUB_CH1_BASIC_STATUS) & 0x01u)){}
 271              		.loc 1 601 0
 272 00a6 6C4B     		ldr	r3, .L48+32
 273 00a8 1B78     		ldrb	r3, [r3]	@ zero_extendqisi2
 274 00aa DD07     		lsls	r5, r3, #31
 275 00ac FBD4     		bmi	.L18
 276              	.L19:
 602:Generated_Source\PSoC5/cyfitter_cfg.c **** 	while(0u != (CY_GET_REG8((void CYXDATA *)CYREG_PHUB_CH2_BASIC_STATUS) & 0x01u)){}
 277              		.loc 1 602 0
 278 00ae 6B4B     		ldr	r3, .L48+36
 279 00b0 1B78     		ldrb	r3, [r3]	@ zero_extendqisi2
 280 00b2 DC07     		lsls	r4, r3, #31
 281 00b4 FBD4     		bmi	.L19
 282              	.L20:
 603:Generated_Source\PSoC5/cyfitter_cfg.c **** 	while(0u != (CY_GET_REG8((void CYXDATA *)CYREG_PHUB_CH5_BASIC_STATUS) & 0x01u)){}
 283              		.loc 1 603 0
 284 00b6 6A4B     		ldr	r3, .L48+40
 285 00b8 1B78     		ldrb	r3, [r3]	@ zero_extendqisi2
 286 00ba D807     		lsls	r0, r3, #31
 287 00bc FBD4     		bmi	.L20
 288              	.L21:
 604:Generated_Source\PSoC5/cyfitter_cfg.c **** 	while(0u != (CY_GET_REG8((void CYXDATA *)CYREG_PHUB_CH6_BASIC_STATUS) & 0x01u)){}
 289              		.loc 1 604 0
 290 00be 694B     		ldr	r3, .L48+44
 291 00c0 1B78     		ldrb	r3, [r3]	@ zero_extendqisi2
 292 00c2 D907     		lsls	r1, r3, #31
 293 00c4 FBD4     		bmi	.L21
 294              	.L22:
 605:Generated_Source\PSoC5/cyfitter_cfg.c **** 
 295              		.loc 1 605 0
 296 00c6 684B     		ldr	r3, .L48+48
 297 00c8 1D78     		ldrb	r5, [r3]	@ zero_extendqisi2
 298 00ca 15F00105 		ands	r5, r5, #1
 299 00ce FAD1     		bne	.L22
 300              	.LVL11:
 301              	.LBB64:
 302              	.LBB65:
  95:Generated_Source\PSoC5/cyfitter_cfg.c **** }
 303              		.loc 1 95 0
 304 00d0 03F56043 		add	r3, r3, #57344
 305 00d4 9833     		adds	r3, r3, #152
 306 00d6 4FF09042 		mov	r2, #1207959552
 307 00da 92E80300 		ldmia	r2, {r0, r1}
 308 00de 1860     		str	r0, [r3]
 309 00e0 9980     		strh	r1, [r3, #4]	@ movhi
 310              	.LBE65:
 311              	.LBE64:
 312              	.LBE67:
 313              	.LBE69:
ARM GAS  C:\Users\Luggi\AppData\Local\Temp\ccBZUEmf.s 			page 23


 902:Generated_Source\PSoC5/cyfitter_cfg.c **** 
 903:Generated_Source\PSoC5/cyfitter_cfg.c **** 	{
 904:Generated_Source\PSoC5/cyfitter_cfg.c **** 		cfg_dma_init();
 905:Generated_Source\PSoC5/cyfitter_cfg.c **** 
 906:Generated_Source\PSoC5/cyfitter_cfg.c **** 		/* Perform normal device configuration. Order is not critical for these items. */
 907:Generated_Source\PSoC5/cyfitter_cfg.c **** 		CY_SET_XTND_REG8((void CYFAR *)(CYREG_DSM0_CR3), 0x0Au);
 314              		.loc 1 907 0
 315 00e2 A3F57843 		sub	r3, r3, #63488
 316 00e6 8D3B     		subs	r3, r3, #141
 317 00e8 0A22     		movs	r2, #10
 318 00ea 1A70     		strb	r2, [r3]
 908:Generated_Source\PSoC5/cyfitter_cfg.c **** 		CY_SET_XTND_REG16((void CYFAR *)(CYREG_LUT0_CR), 0x0003u);
 909:Generated_Source\PSoC5/cyfitter_cfg.c **** 		CY_SET_XTND_REG16((void CYFAR *)(CYREG_LUT2_CR), 0x0203u);
 319              		.loc 1 909 0
 320 00ec 40F20322 		movw	r2, #515
 908:Generated_Source\PSoC5/cyfitter_cfg.c **** 		CY_SET_XTND_REG16((void CYFAR *)(CYREG_LUT0_CR), 0x0003u);
 321              		.loc 1 908 0
 322 00f0 0327     		movs	r7, #3
 323 00f2 23F83B7C 		strh	r7, [r3, #-59]	@ movhi
 324              		.loc 1 909 0
 325 00f6 23F8372C 		strh	r2, [r3, #-55]	@ movhi
 910:Generated_Source\PSoC5/cyfitter_cfg.c **** 		CY_SET_XTND_REG16((void CYFAR *)(CYREG_LUT3_CR), 0x0303u);
 326              		.loc 1 910 0
 327 00fa 40F20332 		movw	r2, #771
 328 00fe 23F8352C 		strh	r2, [r3, #-53]	@ movhi
 329              	.LVL12:
 330              	.LBB70:
 331              	.LBB71:
  88:Generated_Source\PSoC5/cyfitter_cfg.c **** }
 332              		.loc 1 88 0
 333 0102 4F4B     		ldr	r3, .L48+8
 334              	.LBE71:
 335              	.LBE70:
 911:Generated_Source\PSoC5/cyfitter_cfg.c **** 		CYMEMZERO((void CYFAR *)(CYREG_PHUB_CFGMEM0_CFG0), 4u);
 912:Generated_Source\PSoC5/cyfitter_cfg.c **** 
 913:Generated_Source\PSoC5/cyfitter_cfg.c **** 		/* Enable digital routing */
 914:Generated_Source\PSoC5/cyfitter_cfg.c **** 		CY_SET_XTND_REG8((void CYFAR *)CYREG_BCTL0_BANK_CTL, CY_GET_XTND_REG8((void CYFAR *)CYREG_BCTL0_B
 336              		.loc 1 914 0
 337 0104 594A     		ldr	r2, .L48+52
 338              	.LBB73:
 339              	.LBB72:
  88:Generated_Source\PSoC5/cyfitter_cfg.c **** }
 340              		.loc 1 88 0
 341 0106 1D60     		str	r5, [r3]
 342              	.LBE72:
 343              	.LBE73:
 344              		.loc 1 914 0
 345 0108 1378     		ldrb	r3, [r2]	@ zero_extendqisi2
 915:Generated_Source\PSoC5/cyfitter_cfg.c **** 		CY_SET_XTND_REG8((void CYFAR *)CYREG_BCTL1_BANK_CTL, CY_GET_XTND_REG8((void CYFAR *)CYREG_BCTL1_B
 916:Generated_Source\PSoC5/cyfitter_cfg.c **** 
 917:Generated_Source\PSoC5/cyfitter_cfg.c **** 		/* Enable UDB array */
 918:Generated_Source\PSoC5/cyfitter_cfg.c **** 		CY_SET_XTND_REG8((void CYFAR *)CYREG_PM_ACT_CFG0, CY_GET_XTND_REG8((void CYFAR *)CYREG_PM_ACT_CFG
 346              		.loc 1 918 0
 347 010a 594C     		ldr	r4, .L48+56
 914:Generated_Source\PSoC5/cyfitter_cfg.c **** 		CY_SET_XTND_REG8((void CYFAR *)CYREG_BCTL1_BANK_CTL, CY_GET_XTND_REG8((void CYFAR *)CYREG_BCTL1_B
 348              		.loc 1 914 0
 349 010c 43F00203 		orr	r3, r3, #2
ARM GAS  C:\Users\Luggi\AppData\Local\Temp\ccBZUEmf.s 			page 24


 350 0110 1370     		strb	r3, [r2]
 915:Generated_Source\PSoC5/cyfitter_cfg.c **** 		CY_SET_XTND_REG8((void CYFAR *)CYREG_BCTL1_BANK_CTL, CY_GET_XTND_REG8((void CYFAR *)CYREG_BCTL1_B
 351              		.loc 1 915 0
 352 0112 137C     		ldrb	r3, [r2, #16]	@ zero_extendqisi2
 353              	.LBB74:
 354              	.LBB75:
  95:Generated_Source\PSoC5/cyfitter_cfg.c **** }
 355              		.loc 1 95 0
 356 0114 574E     		ldr	r6, .L48+60
 357              	.LBE75:
 358              	.LBE74:
 915:Generated_Source\PSoC5/cyfitter_cfg.c **** 		CY_SET_XTND_REG8((void CYFAR *)CYREG_BCTL1_BANK_CTL, CY_GET_XTND_REG8((void CYFAR *)CYREG_BCTL1_B
 359              		.loc 1 915 0
 360 0116 43F00203 		orr	r3, r3, #2
 361 011a 1374     		strb	r3, [r2, #16]
 362              		.loc 1 918 0
 363 011c 2378     		ldrb	r3, [r4]	@ zero_extendqisi2
 919:Generated_Source\PSoC5/cyfitter_cfg.c **** 		CY_SET_XTND_REG8((void CYFAR *)CYREG_PM_AVAIL_CR2, CY_GET_XTND_REG8((void CYFAR *)CYREG_PM_AVAIL_
 364              		.loc 1 919 0
 365 011e A2F58632 		sub	r2, r2, #68608
 918:Generated_Source\PSoC5/cyfitter_cfg.c **** 		CY_SET_XTND_REG8((void CYFAR *)CYREG_PM_AVAIL_CR2, CY_GET_XTND_REG8((void CYFAR *)CYREG_PM_AVAIL_
 366              		.loc 1 918 0
 367 0122 43F04003 		orr	r3, r3, #64
 368 0126 2370     		strb	r3, [r4]
 369              		.loc 1 919 0
 370 0128 413A     		subs	r2, r2, #65
 371 012a 1378     		ldrb	r3, [r2]	@ zero_extendqisi2
 372 012c 43F01003 		orr	r3, r3, #16
 373 0130 1370     		strb	r3, [r2]
 374              	.LVL13:
 375              	.LBB78:
 376              	.LBB79:
  95:Generated_Source\PSoC5/cyfitter_cfg.c **** }
 377              		.loc 1 95 0
 378 0132 514B     		ldr	r3, .L48+64
 379 0134 03CB     		ldmia	r3!, {r0, r1}
 380 0136 C2F8400D 		str	r0, [r2, #3392]	@ unaligned
 381 013a C2F8441D 		str	r1, [r2, #3396]	@ unaligned
 382              	.LVL14:
 383              	.LBE79:
 384              	.LBE78:
 385              	.LBB80:
 386              	.LBB81:
 387 013e 03CB     		ldmia	r3!, {r0, r1}
 388 0140 C2F8041E 		str	r1, [r2, #3588]	@ unaligned
 389              	.LVL15:
 390 0144 C2F8000E 		str	r0, [r2, #3584]	@ unaligned
 391              	.LBE81:
 392              	.LBE80:
 393              	.LBB82:
 394              	.LBB83:
 395 0148 1868     		ldr	r0, [r3]	@ unaligned
 396 014a C2F8090E 		str	r0, [r2, #3593]	@ unaligned
 397 014e 1B79     		ldrb	r3, [r3, #4]	@ zero_extendqisi2
 398 0150 82F80D3E 		strb	r3, [r2, #3597]
 399              	.LVL16:
 400              	.LBE83:
ARM GAS  C:\Users\Luggi\AppData\Local\Temp\ccBZUEmf.s 			page 25


 401              	.LBE82:
 402              	.LBB84:
 403              	.LBB85:
 404 0154 494A     		ldr	r2, .L48+68
 405 0156 4A4B     		ldr	r3, .L48+72
 406 0158 07CA     		ldmia	r2, {r0, r1, r2}
 407 015a 03C3     		stmia	r3!, {r0, r1}
 408 015c 1A80     		strh	r2, [r3]	@ movhi
 409              	.LVL17:
 410              	.LBE85:
 411              	.LBE84:
 412              	.LBB86:
 413              	.LBB87:
 414 015e 494A     		ldr	r2, .L48+76
 415 0160 494B     		ldr	r3, .L48+80
 416 0162 03CB     		ldmia	r3!, {r0, r1}
 417 0164 1060     		str	r0, [r2]	@ unaligned
 418 0166 5160     		str	r1, [r2, #4]	@ unaligned
 419              	.LVL18:
 420              	.LBE87:
 421              	.LBE86:
 422              	.LBB88:
 423              	.LBB89:
 424 0168 03CB     		ldmia	r3!, {r0, r1}
 425 016a 1061     		str	r0, [r2, #16]	@ unaligned
 426 016c 5161     		str	r1, [r2, #20]	@ unaligned
 427              	.LVL19:
 428              	.LBE89:
 429              	.LBE88:
 430              	.LBB90:
 431              	.LBB91:
 432 016e 03CB     		ldmia	r3!, {r0, r1}
 433 0170 1062     		str	r0, [r2, #32]	@ unaligned
 434 0172 5162     		str	r1, [r2, #36]	@ unaligned
 435              	.LVL20:
 436              	.LBE91:
 437              	.LBE90:
 438              	.LBB92:
 439              	.LBB93:
 440 0174 03CB     		ldmia	r3!, {r0, r1}
 441 0176 1063     		str	r0, [r2, #48]	@ unaligned
 442 0178 5163     		str	r1, [r2, #52]	@ unaligned
 443              	.LVL21:
 444              	.LBE93:
 445              	.LBE92:
 446              	.LBB94:
 447              	.LBB76:
 448 017a 93E80700 		ldmia	r3, {r0, r1, r2}
 449 017e 03C6     		stmia	r6!, {r0, r1}
 450              	.LBE76:
 451              	.LBE94:
 452              	.LBB95:
 453              	.LBB96:
 637:Generated_Source\PSoC5/cyfitter_cfg.c **** 	CY_SET_XTND_REG8((void CYFAR *)(CYREG_CLKDIST_DCFG0_CFG0 + 0x2u), 0x19u);
 454              		.loc 1 637 0
 455 0180 40F2F311 		movw	r1, #499
 456              	.LBE96:
ARM GAS  C:\Users\Luggi\AppData\Local\Temp\ccBZUEmf.s 			page 26


 457              	.LBE95:
 458              	.LBB106:
 459              	.LBB77:
  95:Generated_Source\PSoC5/cyfitter_cfg.c **** }
 460              		.loc 1 95 0
 461 0184 3280     		strh	r2, [r6]	@ movhi
 462              	.LBE77:
 463              	.LBE106:
 920:Generated_Source\PSoC5/cyfitter_cfg.c **** 	}
 921:Generated_Source\PSoC5/cyfitter_cfg.c **** 
 922:Generated_Source\PSoC5/cyfitter_cfg.c **** 
 923:Generated_Source\PSoC5/cyfitter_cfg.c **** 	/* Perform second pass device configuration. These items must be configured in specific order afte
 924:Generated_Source\PSoC5/cyfitter_cfg.c **** 	CYCONFIGCPY((void CYFAR *)(CYREG_PRT0_DM0), (const void CYFAR *)(BS_IOPINS0_0_VAL), 8u);
 925:Generated_Source\PSoC5/cyfitter_cfg.c **** 	CYCONFIGCPY((void CYFAR *)(CYREG_PRT12_DM0), (const void CYFAR *)(BS_IOPINS0_7_VAL), 8u);
 926:Generated_Source\PSoC5/cyfitter_cfg.c **** 	CYCONFIGCPY((void CYFAR *)(CYREG_PRT12_DM0 + 0x00000009u), (const void CYFAR *)(BS_IOPINS1_7_VAL),
 927:Generated_Source\PSoC5/cyfitter_cfg.c **** 	CYCONFIGCPY((void CYFAR *)(CYREG_PRT15_DR), (const void CYFAR *)(BS_IOPINS0_8_VAL), 10u);
 928:Generated_Source\PSoC5/cyfitter_cfg.c **** 	CYCONFIGCPY((void CYFAR *)(CYREG_PRT1_DM0), (const void CYFAR *)(BS_IOPINS0_1_VAL), 8u);
 929:Generated_Source\PSoC5/cyfitter_cfg.c **** 	CYCONFIGCPY((void CYFAR *)(CYREG_PRT2_DM0), (const void CYFAR *)(BS_IOPINS0_2_VAL), 8u);
 930:Generated_Source\PSoC5/cyfitter_cfg.c **** 	CYCONFIGCPY((void CYFAR *)(CYREG_PRT3_DM0), (const void CYFAR *)(BS_IOPINS0_3_VAL), 8u);
 931:Generated_Source\PSoC5/cyfitter_cfg.c **** 	CYCONFIGCPY((void CYFAR *)(CYREG_PRT4_DM0), (const void CYFAR *)(BS_IOPINS0_4_VAL), 8u);
 932:Generated_Source\PSoC5/cyfitter_cfg.c **** 	CYCONFIGCPY((void CYFAR *)(CYREG_PRT6_DR), (const void CYFAR *)(BS_IOPINS0_6_VAL), 10u);
 933:Generated_Source\PSoC5/cyfitter_cfg.c **** 	/* Switch Boost to the precision bandgap reference from its internal reference */
 934:Generated_Source\PSoC5/cyfitter_cfg.c **** 	CY_SET_REG8((void CYXDATA *)CYREG_BOOST_CR2, (CY_GET_REG8((void CYXDATA *)CYREG_BOOST_CR2) | 0x08u
 464              		.loc 1 934 0
 465 0186 414A     		ldr	r2, .L48+84
 466              	.LBB107:
 467              	.LBB101:
 640:Generated_Source\PSoC5/cyfitter_cfg.c **** 	CY_SET_XTND_REG16((void CYFAR *)(CYREG_CLKDIST_DCFG2_CFG0), 0x0027u);
 468              		.loc 1 640 0
 469 0188 5020     		movs	r0, #80
 470              	.LBE101:
 471              	.LBE107:
 472              		.loc 1 934 0
 473 018a 1378     		ldrb	r3, [r2]	@ zero_extendqisi2
 474 018c 43F00803 		orr	r3, r3, #8
 475 0190 1370     		strb	r3, [r2]
 935:Generated_Source\PSoC5/cyfitter_cfg.c **** 
 936:Generated_Source\PSoC5/cyfitter_cfg.c **** 	/* Set Flash Cycles based on max possible frequency in case a glitch occurs during ClockSetup(). *
 937:Generated_Source\PSoC5/cyfitter_cfg.c **** 	CY_SET_XTND_REG8((void CYFAR *)(CYREG_CACHE_CC_CTL), (((CYDEV_INSTRUCT_CACHE_ENABLED) != 0) ? 0x01
 476              		.loc 1 937 0
 477 0192 3F4B     		ldr	r3, .L48+88
 478 0194 0122     		movs	r2, #1
 479 0196 1A70     		strb	r2, [r3]
 480              	.LBB108:
 481              	.LBB102:
 637:Generated_Source\PSoC5/cyfitter_cfg.c **** 	CY_SET_XTND_REG8((void CYFAR *)(CYREG_CLKDIST_DCFG0_CFG0 + 0x2u), 0x19u);
 482              		.loc 1 637 0
 483 0198 3E4A     		ldr	r2, .L48+92
 634:Generated_Source\PSoC5/cyfitter_cfg.c **** 
 484              		.loc 1 634 0
 485 019a A3F5B473 		sub	r3, r3, #360
 486 019e 93F80080 		ldrb	r8, [r3]	@ zero_extendqisi2
 637:Generated_Source\PSoC5/cyfitter_cfg.c **** 	CY_SET_XTND_REG8((void CYFAR *)(CYREG_CLKDIST_DCFG0_CFG0 + 0x2u), 0x19u);
 487              		.loc 1 637 0
 488 01a2 1180     		strh	r1, [r2]	@ movhi
 638:Generated_Source\PSoC5/cyfitter_cfg.c **** 	CY_SET_XTND_REG16((void CYFAR *)(CYREG_CLKDIST_DCFG1_CFG0), 0x0000u);
 489              		.loc 1 638 0
ARM GAS  C:\Users\Luggi\AppData\Local\Temp\ccBZUEmf.s 			page 27


 490 01a4 3C49     		ldr	r1, .L48+96
 491 01a6 1922     		movs	r2, #25
 492 01a8 0A70     		strb	r2, [r1]
 639:Generated_Source\PSoC5/cyfitter_cfg.c **** 	CY_SET_XTND_REG8((void CYFAR *)(CYREG_CLKDIST_DCFG1_CFG0 + 0x2u), 0x50u);
 493              		.loc 1 639 0
 494 01aa 4D80     		strh	r5, [r1, #2]	@ movhi
 640:Generated_Source\PSoC5/cyfitter_cfg.c **** 	CY_SET_XTND_REG16((void CYFAR *)(CYREG_CLKDIST_DCFG2_CFG0), 0x0027u);
 495              		.loc 1 640 0
 496 01ac 0871     		strb	r0, [r1, #4]
 641:Generated_Source\PSoC5/cyfitter_cfg.c **** 	CY_SET_XTND_REG8((void CYFAR *)(CYREG_CLKDIST_DCFG2_CFG0 + 0x2u), 0x18u);
 497              		.loc 1 641 0
 498 01ae 2720     		movs	r0, #39
 499 01b0 C880     		strh	r0, [r1, #6]	@ movhi
 642:Generated_Source\PSoC5/cyfitter_cfg.c **** 	CY_SET_XTND_REG16((void CYFAR *)(CYREG_CLKDIST_DCFG3_CFG0), 0x0013u);
 500              		.loc 1 642 0
 501 01b2 1820     		movs	r0, #24
 502 01b4 0872     		strb	r0, [r1, #8]
 643:Generated_Source\PSoC5/cyfitter_cfg.c **** 	CY_SET_XTND_REG8((void CYFAR *)(CYREG_CLKDIST_DCFG3_CFG0 + 0x2u), 0x19u);
 503              		.loc 1 643 0
 504 01b6 1320     		movs	r0, #19
 505 01b8 4881     		strh	r0, [r1, #10]	@ movhi
 644:Generated_Source\PSoC5/cyfitter_cfg.c **** 	CY_SET_XTND_REG16((void CYFAR *)(CYREG_CLKDIST_DCFG4_CFG0), 0x0CCCu);
 506              		.loc 1 644 0
 507 01ba 0A73     		strb	r2, [r1, #12]
 645:Generated_Source\PSoC5/cyfitter_cfg.c **** 	CY_SET_XTND_REG8((void CYFAR *)(CYREG_CLKDIST_DCFG4_CFG0 + 0x2u), 0x1Du);
 508              		.loc 1 645 0
 509 01bc 40F6CC41 		movw	r1, #3276
 510 01c0 364A     		ldr	r2, .L48+100
 511 01c2 1D46     		mov	r5, r3
 512 01c4 1180     		strh	r1, [r2]	@ movhi
 646:Generated_Source\PSoC5/cyfitter_cfg.c **** 
 513              		.loc 1 646 0
 514 01c6 1D21     		movs	r1, #29
 515 01c8 9170     		strb	r1, [r2, #2]
 516              	.LBB97:
 517              	.LBB98:
  95:Generated_Source\PSoC5/cyfitter_cfg.c **** }
 518              		.loc 1 95 0
 519 01ca 354A     		ldr	r2, .L48+104
 520              	.LBE98:
 521              	.LBE97:
 634:Generated_Source\PSoC5/cyfitter_cfg.c **** 
 522              		.loc 1 634 0
 523 01cc 5FFA88F8 		uxtb	r8, r8
 524              	.LVL22:
 525              	.LBB100:
 526              	.LBB99:
  95:Generated_Source\PSoC5/cyfitter_cfg.c **** }
 527              		.loc 1 95 0
 528 01d0 1168     		ldr	r1, [r2]
 529 01d2 344A     		ldr	r2, .L48+108
 530 01d4 1160     		str	r1, [r2]
 531              	.LBE99:
 532              	.LBE100:
 652:Generated_Source\PSoC5/cyfitter_cfg.c **** 
 533              		.loc 1 652 0
 534 01d6 0621     		movs	r1, #6
ARM GAS  C:\Users\Luggi\AppData\Local\Temp\ccBZUEmf.s 			page 28


 535 01d8 82F80012 		strb	r1, [r2, #512]
 655:Generated_Source\PSoC5/cyfitter_cfg.c **** 	CY_SET_XTND_REG8((void CYFAR *)(CYREG_X32_TR), 0x03u);
 536              		.loc 1 655 0
 537 01dc F321     		movs	r1, #243
 538 01de 82F80A12 		strb	r1, [r2, #522]
 657:Generated_Source\PSoC5/cyfitter_cfg.c **** 	CY_SET_XTND_REG8((void CYFAR *)(CYREG_SLOWCLK_X32_CR), 0x05u);
 539              		.loc 1 657 0
 540 01e2 8421     		movs	r1, #132
 656:Generated_Source\PSoC5/cyfitter_cfg.c **** 	CY_SET_XTND_REG8((void CYFAR *)(CYREG_SLOWCLK_X32_CFG), 0x84u);
 541              		.loc 1 656 0
 542 01e4 1F70     		strb	r7, [r3]
 657:Generated_Source\PSoC5/cyfitter_cfg.c **** 	CY_SET_XTND_REG8((void CYFAR *)(CYREG_SLOWCLK_X32_CR), 0x05u);
 543              		.loc 1 657 0
 544 01e6 82F80912 		strb	r1, [r2, #521]
 658:Generated_Source\PSoC5/cyfitter_cfg.c **** 	/* Wait up to 1000000us for the XTAL 32kHz to lock */
 545              		.loc 1 658 0
 546 01ea 0521     		movs	r1, #5
 547 01ec 82F80812 		strb	r1, [r2, #520]
 548 01f0 02F50272 		add	r2, r2, #520
 549              	.LVL23:
 550 01f4 1646     		mov	r6, r2
 551 01f6 2C4F     		ldr	r7, .L48+112
 552              	.LVL24:
 553              	.L23:
 660:Generated_Source\PSoC5/cyfitter_cfg.c **** 	{ 
 554              		.loc 1 660 0
 555 01f8 3378     		ldrb	r3, [r6]	@ zero_extendqisi2
 556 01fa 9A06     		lsls	r2, r3, #26
 557 01fc 04D4     		bmi	.L26
 663:Generated_Source\PSoC5/cyfitter_cfg.c **** 	}
 558              		.loc 1 663 0
 559 01fe 7820     		movs	r0, #120
 560 0200 FFF7FEFF 		bl	CyDelayCycles
 561              	.LVL25:
 660:Generated_Source\PSoC5/cyfitter_cfg.c **** 	{ 
 562              		.loc 1 660 0
 563 0204 013F     		subs	r7, r7, #1
 564              	.LVL26:
 565 0206 F7D1     		bne	.L23
 566              	.LVL27:
 567              	.L26:
 668:Generated_Source\PSoC5/cyfitter_cfg.c **** 	CY_SET_XTND_REG8((void CYFAR *)(CYREG_FASTCLK_XMHZ_CSR), 0x05u);
 568              		.loc 1 668 0
 569 0208 43F21332 		movw	r2, #13075
 570 020c 274B     		ldr	r3, .L48+116
 665:Generated_Source\PSoC5/cyfitter_cfg.c **** 
 571              		.loc 1 665 0
 572 020e 85F80080 		strb	r8, [r5]
 668:Generated_Source\PSoC5/cyfitter_cfg.c **** 	CY_SET_XTND_REG8((void CYFAR *)(CYREG_FASTCLK_XMHZ_CSR), 0x05u);
 573              		.loc 1 668 0
 574 0212 1A80     		strh	r2, [r3]	@ movhi
 669:Generated_Source\PSoC5/cyfitter_cfg.c **** 	/* Wait up to 130000us for the XTAL to lock */
 575              		.loc 1 669 0
 576 0214 0522     		movs	r2, #5
 577 0216 03F8022C 		strb	r2, [r3, #-2]
 671:Generated_Source\PSoC5/cyfitter_cfg.c **** 	for (timeout = 130000u / 10u; (timeout > 0u) && ((CY_GET_XTND_REG8((void CYFAR *)CYREG_FASTCLK_XMH
 578              		.loc 1 671 0
ARM GAS  C:\Users\Luggi\AppData\Local\Temp\ccBZUEmf.s 			page 29


 579 021a 13F8022C 		ldrb	r2, [r3, #-2]	@ zero_extendqisi2
 669:Generated_Source\PSoC5/cyfitter_cfg.c **** 	/* Wait up to 130000us for the XTAL to lock */
 580              		.loc 1 669 0
 581 021e 023B     		subs	r3, r3, #2
 582              	.LVL28:
 671:Generated_Source\PSoC5/cyfitter_cfg.c **** 	for (timeout = 130000u / 10u; (timeout > 0u) && ((CY_GET_XTND_REG8((void CYFAR *)CYREG_FASTCLK_XMH
 583              		.loc 1 671 0
 584 0220 43F2C826 		movw	r6, #13000
 585 0224 1D46     		mov	r5, r3
 586              	.LVL29:
 587              	.L24:
 672:Generated_Source\PSoC5/cyfitter_cfg.c **** 	{ 
 588              		.loc 1 672 0
 589 0226 2B78     		ldrb	r3, [r5]	@ zero_extendqisi2
 590 0228 1B06     		lsls	r3, r3, #24
 591 022a 41D5     		bpl	.L47
 675:Generated_Source\PSoC5/cyfitter_cfg.c **** 	}
 592              		.loc 1 675 0
 593 022c 7820     		movs	r0, #120
 594 022e FFF7FEFF 		bl	CyDelayCycles
 595              	.LVL30:
 672:Generated_Source\PSoC5/cyfitter_cfg.c **** 	{ 
 596              		.loc 1 672 0
 597 0232 013E     		subs	r6, r6, #1
 598              	.LVL31:
 599 0234 F7D1     		bne	.L24
 600              	.L27:
 601 0236 FEE7     		b	.L27
 602              	.L49:
 603              		.align	2
 604              	.L48:
 605 0238 E8460040 		.word	1073759976
 606 023c 00000000 		.word	.LANCHOR1
 607 0240 00760040 		.word	1073772032
 608 0244 02780040 		.word	1073772546
 609 0248 00000000 		.word	.LANCHOR2
 610 024c 06760040 		.word	1073772038
 611 0250 0C780040 		.word	1073772556
 612 0254 0C000000 		.word	.LANCHOR0+12
 613 0258 18700040 		.word	1073770520
 614 025c 28700040 		.word	1073770536
 615 0260 38700040 		.word	1073770552
 616 0264 68700040 		.word	1073770600
 617 0268 78700040 		.word	1073770616
 618 026c 03500140 		.word	1073827843
 619 0270 A0430040 		.word	1073759136
 620 0274 60510040 		.word	1073762656
 621 0278 00140048 		.word	1207964672
 622 027c 18140048 		.word	1207964696
 623 0280 F0510040 		.word	1073762800
 624 0284 12510040 		.word	1073762578
 625 0288 24140048 		.word	1207964708
 626 028c 22430040 		.word	1073759010
 627 0290 00480040 		.word	1073760256
 628 0294 80400040 		.word	1073758336
 629 0298 82400040 		.word	1073758338
 630 029c 90400040 		.word	1073758352
ARM GAS  C:\Users\Luggi\AppData\Local\Temp\ccBZUEmf.s 			page 30


 631 02a0 50140048 		.word	1207964752
 632 02a4 00410040 		.word	1073758464
 633 02a8 A0860100 		.word	100000
 634 02ac 12420040 		.word	1073758738
 635              	.L47:
 681:Generated_Source\PSoC5/cyfitter_cfg.c **** 
 636              		.loc 1 681 0
 637 02b0 4FF04023 		mov	r3, #1073758208
 638 02b4 4022     		movs	r2, #64
 639 02b6 1A70     		strb	r2, [r3]
 684:Generated_Source\PSoC5/cyfitter_cfg.c **** 
 640              		.loc 1 684 0
 641 02b8 7022     		movs	r2, #112
 642 02ba 83F80022 		strb	r2, [r3, #512]
 687:Generated_Source\PSoC5/cyfitter_cfg.c **** 	CY_SET_XTND_REG16((void CYFAR *)(CYREG_FASTCLK_PLL_CFG0), 0x1251u);
 643              		.loc 1 687 0
 644 02be 40F61802 		movw	r2, #2072
 645 02c2 A3F82222 		strh	r2, [r3, #546]	@ movhi
 688:Generated_Source\PSoC5/cyfitter_cfg.c **** 	/* Wait up to 250us for the PLL to lock */
 646              		.loc 1 688 0
 647 02c6 41F25122 		movw	r2, #4689
 648 02ca 1926     		movs	r6, #25
 649              	.LVL32:
 650 02cc A3F82022 		strh	r2, [r3, #544]	@ movhi
 651              	.LVL33:
 690:Generated_Source\PSoC5/cyfitter_cfg.c **** 	for (timeout = 250u / 10u; (timeout > 0u) && (pllLock != 0x03u); timeout--)
 652              		.loc 1 690 0
 653 02d0 0025     		movs	r5, #0
 654              	.LVL34:
 655              	.L31:
 693:Generated_Source\PSoC5/cyfitter_cfg.c **** 		CyDelayCycles(10u * 12u); /* Delay 10us based on 12MHz clock */
 656              		.loc 1 693 0
 657 02d2 574B     		ldr	r3, .L50
 694:Generated_Source\PSoC5/cyfitter_cfg.c **** 	}
 658              		.loc 1 694 0
 659 02d4 7820     		movs	r0, #120
 693:Generated_Source\PSoC5/cyfitter_cfg.c **** 		CyDelayCycles(10u * 12u); /* Delay 10us based on 12MHz clock */
 660              		.loc 1 693 0
 661 02d6 1B78     		ldrb	r3, [r3]	@ zero_extendqisi2
 662 02d8 03F00103 		and	r3, r3, #1
 663 02dc 43EA4505 		orr	r5, r3, r5, lsl #1
 664              	.LVL35:
 694:Generated_Source\PSoC5/cyfitter_cfg.c **** 	}
 665              		.loc 1 694 0
 666 02e0 FFF7FEFF 		bl	CyDelayCycles
 667              	.LVL36:
 691:Generated_Source\PSoC5/cyfitter_cfg.c **** 	{ 
 668              		.loc 1 691 0
 669 02e4 013E     		subs	r6, r6, #1
 670              	.LVL37:
 693:Generated_Source\PSoC5/cyfitter_cfg.c **** 		CyDelayCycles(10u * 12u); /* Delay 10us based on 12MHz clock */
 671              		.loc 1 693 0
 672 02e6 05F00305 		and	r5, r5, #3
 673              	.LVL38:
 691:Generated_Source\PSoC5/cyfitter_cfg.c **** 	{ 
 674              		.loc 1 691 0
 675 02ea 00F09F80 		beq	.L30
ARM GAS  C:\Users\Luggi\AppData\Local\Temp\ccBZUEmf.s 			page 31


 676              	.LVL39:
 677 02ee 032D     		cmp	r5, #3
 678 02f0 EFD1     		bne	.L31
 703:Generated_Source\PSoC5/cyfitter_cfg.c **** 	CY_SET_XTND_REG8((void CYFAR *)(CYREG_CLKDIST_MSTR0), 0x07u);
 679              		.loc 1 703 0
 680 02f2 504A     		ldr	r2, .L50+4
 681 02f4 4FF48073 		mov	r3, #256
 682 02f8 1380     		strh	r3, [r2]	@ movhi
 705:Generated_Source\PSoC5/cyfitter_cfg.c **** 	CY_SET_XTND_REG8((void CYFAR *)(CYREG_CLKDIST_BCFG2), 0x48u);
 683              		.loc 1 705 0
 684 02fa 4F49     		ldr	r1, .L50+8
 704:Generated_Source\PSoC5/cyfitter_cfg.c **** 	CY_SET_XTND_REG8((void CYFAR *)(CYREG_CLKDIST_BCFG0), 0x00u);
 685              		.loc 1 704 0
 686 02fc 0723     		movs	r3, #7
 687 02fe 1370     		strb	r3, [r2]
 706:Generated_Source\PSoC5/cyfitter_cfg.c **** 	CY_SET_XTND_REG8((void CYFAR *)(CYREG_CLKDIST_MSTR0), 0x00u);
 688              		.loc 1 706 0
 689 0300 4820     		movs	r0, #72
 705:Generated_Source\PSoC5/cyfitter_cfg.c **** 	CY_SET_XTND_REG8((void CYFAR *)(CYREG_CLKDIST_BCFG2), 0x48u);
 690              		.loc 1 705 0
 691 0302 0023     		movs	r3, #0
 692 0304 0B70     		strb	r3, [r1]
 706:Generated_Source\PSoC5/cyfitter_cfg.c **** 	CY_SET_XTND_REG8((void CYFAR *)(CYREG_CLKDIST_MSTR0), 0x00u);
 693              		.loc 1 706 0
 694 0306 8870     		strb	r0, [r1, #2]
 707:Generated_Source\PSoC5/cyfitter_cfg.c **** 
 695              		.loc 1 707 0
 696 0308 1370     		strb	r3, [r2]
 710:Generated_Source\PSoC5/cyfitter_cfg.c **** 	CY_SET_XTND_REG8((void CYFAR *)(CYREG_CLKDIST_LD), 0x02u);
 697              		.loc 1 710 0
 698 030a 5371     		strb	r3, [r2, #5]
 711:Generated_Source\PSoC5/cyfitter_cfg.c **** 	CY_SET_XTND_REG8((void CYFAR *)(CYREG_CLKDIST_DLY1), 0x04u);
 699              		.loc 1 711 0
 700 030c 4B4B     		ldr	r3, .L50+12
 712:Generated_Source\PSoC5/cyfitter_cfg.c **** 
 701              		.loc 1 712 0
 702 030e 0421     		movs	r1, #4
 711:Generated_Source\PSoC5/cyfitter_cfg.c **** 	CY_SET_XTND_REG8((void CYFAR *)(CYREG_CLKDIST_DLY1), 0x04u);
 703              		.loc 1 711 0
 704 0310 4FF0020E 		mov	lr, #2
 705 0314 83F800E0 		strb	lr, [r3]
 712:Generated_Source\PSoC5/cyfitter_cfg.c **** 
 706              		.loc 1 712 0
 707 0318 9972     		strb	r1, [r3, #10]
 714:Generated_Source\PSoC5/cyfitter_cfg.c **** 	CY_SET_XTND_REG8((void CYFAR *)(CYREG_PM_ACT_CFG1), ((CY_GET_XTND_REG8((void CYFAR *)CYREG_PM_ACT_
 708              		.loc 1 714 0
 709 031a 92F89E33 		ldrb	r3, [r2, #926]	@ zero_extendqisi2
 710              	.LBE102:
 711              	.LBE108:
 712              	.LBB109:
 713              	.LBB110:
 742:Generated_Source\PSoC5/cyfitter_cfg.c **** 	uint8 cr5 = CY_GET_XTND_REG8((void CYFAR *)(CYREG_RESET_CR5));
 714              		.loc 1 742 0
 715 031e 484F     		ldr	r7, .L50+16
 716              	.LBE110:
 717              	.LBE109:
 718              	.LBB115:
ARM GAS  C:\Users\Luggi\AppData\Local\Temp\ccBZUEmf.s 			page 32


 719              	.LBB103:
 714:Generated_Source\PSoC5/cyfitter_cfg.c **** 	CY_SET_XTND_REG8((void CYFAR *)(CYREG_PM_ACT_CFG1), ((CY_GET_XTND_REG8((void CYFAR *)CYREG_PM_ACT_
 720              		.loc 1 714 0
 721 0320 43F01F03 		orr	r3, r3, #31
 722 0324 82F89E33 		strb	r3, [r2, #926]
 715:Generated_Source\PSoC5/cyfitter_cfg.c **** 	CY_SET_XTND_REG8((void CYFAR *)(CYREG_PM_ACT_CFG0), ((CY_GET_XTND_REG8((void CYFAR *)CYREG_PM_ACT_
 723              		.loc 1 715 0
 724 0328 92F89D33 		ldrb	r3, [r2, #925]	@ zero_extendqisi2
 725              	.LBE103:
 726              	.LBE115:
 727              	.LBB116:
 728              	.LBB111:
 743:Generated_Source\PSoC5/cyfitter_cfg.c **** 	CY_SET_XTND_REG8((void CYFAR *)(CYREG_BG_DFT0), (bg_xover_inl_trim & 0x07u));
 729              		.loc 1 743 0
 730 032c DFF83881 		ldr	r8, .L50+56
 731              	.LVL40:
 732              	.LBE111:
 733              	.LBE116:
 734              	.LBB117:
 735              	.LBB104:
 715:Generated_Source\PSoC5/cyfitter_cfg.c **** 	CY_SET_XTND_REG8((void CYFAR *)(CYREG_PM_ACT_CFG0), ((CY_GET_XTND_REG8((void CYFAR *)CYREG_PM_ACT_
 736              		.loc 1 715 0
 737 0330 43F00103 		orr	r3, r3, #1
 738 0334 82F89D33 		strb	r3, [r2, #925]
 716:Generated_Source\PSoC5/cyfitter_cfg.c **** }
 739              		.loc 1 716 0
 740 0338 2378     		ldrb	r3, [r4]	@ zero_extendqisi2
 741              	.LBE104:
 742              	.LBE117:
 743              	.LBB118:
 744              	.LBB112:
 744:Generated_Source\PSoC5/cyfitter_cfg.c **** 	CY_SET_XTND_REG8((void CYFAR *)(CYREG_BG_DFT1), ((bg_xover_inl_trim >> 4) & 0x0Fu));
 745              		.loc 1 744 0
 746 033a 02F5C352 		add	r2, r2, #6240
 747              	.LBE112:
 748              	.LBE118:
 749              	.LBB119:
 750              	.LBB105:
 716:Generated_Source\PSoC5/cyfitter_cfg.c **** }
 751              		.loc 1 716 0
 752 033e 43F08003 		orr	r3, r3, #128
 753 0342 2370     		strb	r3, [r4]
 754              	.LBE105:
 755              	.LBE119:
 756              	.LBB120:
 757              	.LBB113:
 741:Generated_Source\PSoC5/cyfitter_cfg.c **** 	uint8 cr4 = CY_GET_XTND_REG8((void CYFAR *)(CYREG_RESET_CR4));
 758              		.loc 1 741 0
 759 0344 3F4B     		ldr	r3, .L50+20
 744:Generated_Source\PSoC5/cyfitter_cfg.c **** 	CY_SET_XTND_REG8((void CYFAR *)(CYREG_BG_DFT1), ((bg_xover_inl_trim >> 4) & 0x0Fu));
 760              		.loc 1 744 0
 761 0346 0A32     		adds	r2, r2, #10
 741:Generated_Source\PSoC5/cyfitter_cfg.c **** 	uint8 cr4 = CY_GET_XTND_REG8((void CYFAR *)(CYREG_RESET_CR4));
 762              		.loc 1 741 0
 763 0348 1B78     		ldrb	r3, [r3]	@ zero_extendqisi2
 742:Generated_Source\PSoC5/cyfitter_cfg.c **** 	uint8 cr5 = CY_GET_XTND_REG8((void CYFAR *)(CYREG_RESET_CR5));
 764              		.loc 1 742 0
ARM GAS  C:\Users\Luggi\AppData\Local\Temp\ccBZUEmf.s 			page 33


 765 034a 3D78     		ldrb	r5, [r7]	@ zero_extendqisi2
 766              	.LVL41:
 741:Generated_Source\PSoC5/cyfitter_cfg.c **** 	uint8 cr4 = CY_GET_XTND_REG8((void CYFAR *)(CYREG_RESET_CR4));
 767              		.loc 1 741 0
 768 034c DBB2     		uxtb	r3, r3
 769              	.LVL42:
 744:Generated_Source\PSoC5/cyfitter_cfg.c **** 	CY_SET_XTND_REG8((void CYFAR *)(CYREG_BG_DFT1), ((bg_xover_inl_trim >> 4) & 0x0Fu));
 770              		.loc 1 744 0
 771 034e 03F00700 		and	r0, r3, #7
 745:Generated_Source\PSoC5/cyfitter_cfg.c **** 	/* Disable PRES while setting up SAR voltage reference */
 772              		.loc 1 745 0
 773 0352 CB40     		lsrs	r3, r3, r1
 774              	.LVL43:
 743:Generated_Source\PSoC5/cyfitter_cfg.c **** 	CY_SET_XTND_REG8((void CYFAR *)(CYREG_BG_DFT0), (bg_xover_inl_trim & 0x07u));
 775              		.loc 1 743 0
 776 0354 98F80060 		ldrb	r6, [r8]	@ zero_extendqisi2
 777              	.LVL44:
 744:Generated_Source\PSoC5/cyfitter_cfg.c **** 	CY_SET_XTND_REG8((void CYFAR *)(CYREG_BG_DFT1), ((bg_xover_inl_trim >> 4) & 0x0Fu));
 778              		.loc 1 744 0
 779 0358 1070     		strb	r0, [r2]
 745:Generated_Source\PSoC5/cyfitter_cfg.c **** 	/* Disable PRES while setting up SAR voltage reference */
 780              		.loc 1 745 0
 781 035a 5370     		strb	r3, [r2, #1]
 749:Generated_Source\PSoC5/cyfitter_cfg.c **** 	CY_SET_XTND_REG16((void CYFAR *)CYREG_PRT3_AMUX, 0x0510u);
 782              		.loc 1 749 0
 783 035c 44F24002 		movw	r2, #16448
 742:Generated_Source\PSoC5/cyfitter_cfg.c **** 	uint8 cr5 = CY_GET_XTND_REG8((void CYFAR *)(CYREG_RESET_CR5));
 784              		.loc 1 742 0
 785 0360 EDB2     		uxtb	r5, r5
 786              	.LVL45:
 747:Generated_Source\PSoC5/cyfitter_cfg.c **** 	CY_SET_XTND_REG8((void CYFAR *)(CYREG_RESET_CR5), (cr5 | 0x03u));
 787              		.loc 1 747 0
 788 0362 45F00303 		orr	r3, r5, #3
 743:Generated_Source\PSoC5/cyfitter_cfg.c **** 	CY_SET_XTND_REG8((void CYFAR *)(CYREG_BG_DFT0), (bg_xover_inl_trim & 0x07u));
 789              		.loc 1 743 0
 790 0366 F6B2     		uxtb	r6, r6
 791              	.LVL46:
 747:Generated_Source\PSoC5/cyfitter_cfg.c **** 	CY_SET_XTND_REG8((void CYFAR *)(CYREG_RESET_CR5), (cr5 | 0x03u));
 792              		.loc 1 747 0
 793 0368 3B70     		strb	r3, [r7]
 748:Generated_Source\PSoC5/cyfitter_cfg.c **** 	CY_SET_XTND_REG16((void CYFAR *)CYREG_PRT1_AMUX, 0x4040u);
 794              		.loc 1 748 0
 795 036a 46F00303 		orr	r3, r6, #3
 796 036e 88F80030 		strb	r3, [r8]
 749:Generated_Source\PSoC5/cyfitter_cfg.c **** 	CY_SET_XTND_REG16((void CYFAR *)CYREG_PRT3_AMUX, 0x0510u);
 797              		.loc 1 749 0
 798 0372 354B     		ldr	r3, .L50+24
 752:Generated_Source\PSoC5/cyfitter_cfg.c **** 	CY_SET_XTND_REG8((void CYFAR *)CYREG_SAR0_CSR1, 0x40u);
 799              		.loc 1 752 0
 800 0374 0120     		movs	r0, #1
 749:Generated_Source\PSoC5/cyfitter_cfg.c **** 	CY_SET_XTND_REG16((void CYFAR *)CYREG_PRT3_AMUX, 0x0510u);
 801              		.loc 1 749 0
 802 0376 1A80     		strh	r2, [r3]	@ movhi
 750:Generated_Source\PSoC5/cyfitter_cfg.c **** 	CY_SET_XTND_REG16((void CYFAR *)CYREG_PRT4_AMUX, 0x0F20u);
 803              		.loc 1 750 0
 804 0378 4FF4A262 		mov	r2, #1296
 805 037c 1A84     		strh	r2, [r3, #32]	@ movhi
ARM GAS  C:\Users\Luggi\AppData\Local\Temp\ccBZUEmf.s 			page 34


 751:Generated_Source\PSoC5/cyfitter_cfg.c **** 	CY_SET_XTND_REG8((void CYFAR *)CYREG_PRT6_AG, 0x01u);
 806              		.loc 1 751 0
 807 037e 4FF47262 		mov	r2, #3872
 808 0382 1A86     		strh	r2, [r3, #48]	@ movhi
 753:Generated_Source\PSoC5/cyfitter_cfg.c **** 	CY_SET_XTND_REG8((void CYFAR *)CYREG_SAR0_CSR3, 0x40u);
 809              		.loc 1 753 0
 810 0384 314A     		ldr	r2, .L50+28
 752:Generated_Source\PSoC5/cyfitter_cfg.c **** 	CY_SET_XTND_REG8((void CYFAR *)CYREG_SAR0_CSR1, 0x40u);
 811              		.loc 1 752 0
 812 0386 83F85100 		strb	r0, [r3, #81]
 757:Generated_Source\PSoC5/cyfitter_cfg.c **** 	CY_SET_XTND_REG8((void CYFAR *)CYREG_SC0_SW8, 0x08u);
 813              		.loc 1 757 0
 814 038a DFF8E0C0 		ldr	ip, .L50+60
 753:Generated_Source\PSoC5/cyfitter_cfg.c **** 	CY_SET_XTND_REG8((void CYFAR *)CYREG_SAR0_CSR3, 0x40u);
 815              		.loc 1 753 0
 816 038e 4023     		movs	r3, #64
 817 0390 1370     		strb	r3, [r2]
 759:Generated_Source\PSoC5/cyfitter_cfg.c **** 	CY_SET_XTND_REG8((void CYFAR *)CYREG_SC3_SW8, 0x40u);
 818              		.loc 1 759 0
 819 0392 4FF01209 		mov	r9, #18
 754:Generated_Source\PSoC5/cyfitter_cfg.c **** 	CY_SET_XTND_REG8((void CYFAR *)CYREG_SAR1_CSR1, 0x40u);
 820              		.loc 1 754 0
 821 0396 9370     		strb	r3, [r2, #2]
 755:Generated_Source\PSoC5/cyfitter_cfg.c **** 	CY_SET_XTND_REG8((void CYFAR *)CYREG_SAR1_CSR3, 0x40u);
 822              		.loc 1 755 0
 823 0398 1372     		strb	r3, [r2, #8]
 756:Generated_Source\PSoC5/cyfitter_cfg.c **** 	CY_SET_XTND_REG8((void CYFAR *)CYREG_SC0_SW2, 0x08u);
 824              		.loc 1 756 0
 825 039a 9372     		strb	r3, [r2, #10]
 757:Generated_Source\PSoC5/cyfitter_cfg.c **** 	CY_SET_XTND_REG8((void CYFAR *)CYREG_SC0_SW8, 0x08u);
 826              		.loc 1 757 0
 827 039c 0822     		movs	r2, #8
 828 039e 8CF80020 		strb	r2, [ip]
 758:Generated_Source\PSoC5/cyfitter_cfg.c **** 	CY_SET_XTND_REG8((void CYFAR *)CYREG_SC3_SW0, 0x12u);
 829              		.loc 1 758 0
 830 03a2 8CF80620 		strb	r2, [ip, #6]
 759:Generated_Source\PSoC5/cyfitter_cfg.c **** 	CY_SET_XTND_REG8((void CYFAR *)CYREG_SC3_SW8, 0x40u);
 831              		.loc 1 759 0
 832 03a6 8CF82E90 		strb	r9, [ip, #46]
 760:Generated_Source\PSoC5/cyfitter_cfg.c **** 	CY_SET_XTND_REG8((void CYFAR *)CYREG_DAC0_SW4, 0x02u);
 833              		.loc 1 760 0
 834 03aa 8CF83630 		strb	r3, [ip, #54]
 761:Generated_Source\PSoC5/cyfitter_cfg.c **** 	CY_SET_XTND_REG8((void CYFAR *)CYREG_DAC1_SW0, 0x01u);
 835              		.loc 1 761 0
 836 03ae 8CF882E0 		strb	lr, [ip, #130]
 762:Generated_Source\PSoC5/cyfitter_cfg.c **** 	CY_SET_XTND_REG16((void CYFAR *)CYREG_DAC2_SW2, 0x0104u);
 837              		.loc 1 762 0
 838 03b2 DFF8BCE0 		ldr	lr, .L50+64
 763:Generated_Source\PSoC5/cyfitter_cfg.c **** 	CY_SET_XTND_REG8((void CYFAR *)CYREG_DAC3_SW4, 0x10u);
 839              		.loc 1 763 0
 840 03b6 4FF4827C 		mov	ip, #260
 762:Generated_Source\PSoC5/cyfitter_cfg.c **** 	CY_SET_XTND_REG16((void CYFAR *)CYREG_DAC2_SW2, 0x0104u);
 841              		.loc 1 762 0
 842 03ba 8EF80000 		strb	r0, [lr]
 763:Generated_Source\PSoC5/cyfitter_cfg.c **** 	CY_SET_XTND_REG8((void CYFAR *)CYREG_DAC3_SW4, 0x10u);
 843              		.loc 1 763 0
 844 03be AEF80AC0 		strh	ip, [lr, #10]	@ movhi
ARM GAS  C:\Users\Luggi\AppData\Local\Temp\ccBZUEmf.s 			page 35


 764:Generated_Source\PSoC5/cyfitter_cfg.c **** 	CY_SET_XTND_REG8((void CYFAR *)CYREG_CMP0_SW0, 0x10u);
 845              		.loc 1 764 0
 846 03c2 DFF8B0C0 		ldr	ip, .L50+68
 847 03c6 4FF0100E 		mov	lr, #16
 848 03ca 8CF800E0 		strb	lr, [ip]
 765:Generated_Source\PSoC5/cyfitter_cfg.c **** 	CY_SET_XTND_REG8((void CYFAR *)CYREG_CMP0_SW2, 0x01u);
 849              		.loc 1 765 0
 850 03ce 8CF824E0 		strb	lr, [ip, #36]
 766:Generated_Source\PSoC5/cyfitter_cfg.c **** 	CY_SET_XTND_REG8((void CYFAR *)CYREG_CMP0_SW4, 0x40u);
 851              		.loc 1 766 0
 852 03d2 DFF8A4E0 		ldr	lr, .L50+72
 853 03d6 8EF80000 		strb	r0, [lr]
 767:Generated_Source\PSoC5/cyfitter_cfg.c **** 	CY_SET_XTND_REG8((void CYFAR *)CYREG_CMP2_SW0, 0x20u);
 854              		.loc 1 767 0
 855 03da 1D48     		ldr	r0, .L50+32
 771:Generated_Source\PSoC5/cyfitter_cfg.c **** 	CY_SET_XTND_REG8((void CYFAR *)CYREG_DSM0_SW0, 0x04u);
 856              		.loc 1 771 0
 857 03dc 4FF0800E 		mov	lr, #128
 767:Generated_Source\PSoC5/cyfitter_cfg.c **** 	CY_SET_XTND_REG8((void CYFAR *)CYREG_CMP2_SW0, 0x20u);
 858              		.loc 1 767 0
 859 03e0 0370     		strb	r3, [r0]
 768:Generated_Source\PSoC5/cyfitter_cfg.c **** 	CY_SET_XTND_REG8((void CYFAR *)CYREG_CMP2_SW6, 0x04u);
 860              		.loc 1 768 0
 861 03e2 2023     		movs	r3, #32
 862 03e4 0373     		strb	r3, [r0, #12]
 769:Generated_Source\PSoC5/cyfitter_cfg.c **** 	CY_SET_XTND_REG8((void CYFAR *)CYREG_CMP3_SW0, 0x20u);
 863              		.loc 1 769 0
 864 03e6 8174     		strb	r1, [r0, #18]
 770:Generated_Source\PSoC5/cyfitter_cfg.c **** 	CY_SET_XTND_REG8((void CYFAR *)CYREG_CMP3_SW4, 0x80u);
 865              		.loc 1 770 0
 866 03e8 0375     		strb	r3, [r0, #20]
 771:Generated_Source\PSoC5/cyfitter_cfg.c **** 	CY_SET_XTND_REG8((void CYFAR *)CYREG_DSM0_SW0, 0x04u);
 867              		.loc 1 771 0
 868 03ea 80F818E0 		strb	lr, [r0, #24]
 772:Generated_Source\PSoC5/cyfitter_cfg.c **** 	CY_SET_XTND_REG16((void CYFAR *)CYREG_SAR0_SW2, 0x2001u);
 869              		.loc 1 772 0
 870 03ee 80F83C10 		strb	r1, [r0, #60]
 773:Generated_Source\PSoC5/cyfitter_cfg.c **** 	CY_SET_XTND_REG8((void CYFAR *)CYREG_SAR1_SW0, 0x08u);
 871              		.loc 1 773 0
 872 03f2 42F20100 		movw	r0, #8193
 873 03f6 1749     		ldr	r1, .L50+36
 874 03f8 0880     		strh	r0, [r1]	@ movhi
 774:Generated_Source\PSoC5/cyfitter_cfg.c **** 	CY_SET_XTND_REG8((void CYFAR *)CYREG_SAR1_SW3, 0x20u);
 875              		.loc 1 774 0
 876 03fa 8A71     		strb	r2, [r1, #6]
 775:Generated_Source\PSoC5/cyfitter_cfg.c **** 	CY_SET_XTND_REG16((void CYFAR *)CYREG_OPAMP2_MX, 0x0408u);
 877              		.loc 1 775 0
 878 03fc 164A     		ldr	r2, .L50+40
 778:Generated_Source\PSoC5/cyfitter_cfg.c **** 	CY_SET_XTND_REG8((void CYFAR *)(CYREG_RESET_CR5), (cr5));
 879              		.loc 1 778 0
 880 03fe 0A20     		movs	r0, #10
 775:Generated_Source\PSoC5/cyfitter_cfg.c **** 	CY_SET_XTND_REG16((void CYFAR *)CYREG_OPAMP2_MX, 0x0408u);
 881              		.loc 1 775 0
 882 0400 1370     		strb	r3, [r2]
 776:Generated_Source\PSoC5/cyfitter_cfg.c **** 	CY_SET_XTND_REG8((void CYFAR *)CYREG_BUS_SW0, 0xAFu);
 883              		.loc 1 776 0
 884 0402 164B     		ldr	r3, .L50+44
ARM GAS  C:\Users\Luggi\AppData\Local\Temp\ccBZUEmf.s 			page 36


 885 0404 4FF48162 		mov	r2, #1032
 886 0408 1A80     		strh	r2, [r3]	@ movhi
 777:Generated_Source\PSoC5/cyfitter_cfg.c **** 	CyDelayUs(10u); /* Allow vref to settle before re-enabling PRES */
 887              		.loc 1 777 0
 888 040a AF22     		movs	r2, #175
 889 040c 1A75     		strb	r2, [r3, #20]
 778:Generated_Source\PSoC5/cyfitter_cfg.c **** 	CY_SET_XTND_REG8((void CYFAR *)(CYREG_RESET_CR5), (cr5));
 890              		.loc 1 778 0
 891 040e FFF7FEFF 		bl	CyDelayUs
 892              	.LVL47:
 781:Generated_Source\PSoC5/cyfitter_cfg.c **** }
 893              		.loc 1 781 0
 894 0412 134B     		ldr	r3, .L50+48
 779:Generated_Source\PSoC5/cyfitter_cfg.c **** 	CY_SET_XTND_REG8((void CYFAR *)(CYREG_RESET_CR4), (cr4));
 895              		.loc 1 779 0
 896 0414 88F80060 		strb	r6, [r8]
 781:Generated_Source\PSoC5/cyfitter_cfg.c **** }
 897              		.loc 1 781 0
 898 0418 4422     		movs	r2, #68
 780:Generated_Source\PSoC5/cyfitter_cfg.c **** 	CY_SET_XTND_REG8((void CYFAR *)CYREG_PUMP_CR0, 0x44u);
 899              		.loc 1 780 0
 900 041a 3D70     		strb	r5, [r7]
 901              	.LBE113:
 902              	.LBE120:
 903              	.LBB121:
 904              	.LBB122:
  95:Generated_Source\PSoC5/cyfitter_cfg.c **** }
 905              		.loc 1 95 0
 906 041c 114D     		ldr	r5, .L50+52
 907              	.LVL48:
 908              	.LBE122:
 909              	.LBE121:
 910              	.LBB124:
 911              	.LBB114:
 781:Generated_Source\PSoC5/cyfitter_cfg.c **** }
 912              		.loc 1 781 0
 913 041e 1A70     		strb	r2, [r3]
 914              	.LVL49:
 915              	.LBE114:
 916              	.LBE124:
 917              	.LBB125:
 918              	.LBB123:
  95:Generated_Source\PSoC5/cyfitter_cfg.c **** }
 919              		.loc 1 95 0
 920 0420 94E80F00 		ldmia	r4, {r0, r1, r2, r3}
 921 0424 07C5     		stmia	r5!, {r0, r1, r2}
 922 0426 2B80     		strh	r3, [r5]	@ movhi
 923 0428 BDE8F883 		pop	{r3, r4, r5, r6, r7, r8, r9, pc}
 924              	.LVL50:
 925              	.L30:
 926 042c FEE7     		b	.L30
 927              	.L51:
 928 042e 00BF     		.align	2
 929              	.L50:
 930 0430 25420040 		.word	1073758757
 931 0434 04400040 		.word	1073758212
 932 0438 06400040 		.word	1073758214
ARM GAS  C:\Users\Luggi\AppData\Local\Temp\ccBZUEmf.s 			page 37


 933 043c 01400040 		.word	1073758209
 934 0440 F8460040 		.word	1073759992
 935 0444 CF010049 		.word	1224737231
 936 0448 1C510040 		.word	1073762588
 937 044c 01590040 		.word	1073764609
 938 0450 C45A0040 		.word	1073765060
 939 0454 225B0040 		.word	1073765154
 940 0458 2B5B0040 		.word	1073765163
 941 045c 445B0040 		.word	1073765188
 942 0460 76580040 		.word	1073764470
 943 0464 B0430040 		.word	1073759152
 944 0468 F9460040 		.word	1073759993
 945 046c 025A0040 		.word	1073764866
 946 0470 885A0040 		.word	1073765000
 947 0474 9C5A0040 		.word	1073765020
 948 0478 C25A0040 		.word	1073765058
 949              	.LBE123:
 950              	.LBE125:
 951              		.cfi_endproc
 952              	.LFE10:
 953              		.size	cyfitter_cfg, .-cyfitter_cfg
 954              		.global	ADC_DelSig_1_AMux__maskTable
 955              		.global	ADC_DelSig_1_AMux__addrTable
 956              		.section	.rodata
 957              		.align	2
 958              		.set	.LANCHOR0,. + 0
 959              		.type	ADC_DelSig_1_AMux__addrTable, %object
 960              		.size	ADC_DelSig_1_AMux__addrTable, 8
 961              	ADC_DelSig_1_AMux__addrTable:
 962 0000 035B0040 		.word	1073765123
 963 0004 24430040 		.word	1073759012
 964              		.type	ADC_DelSig_1_AMux__maskTable, %object
 965              		.size	ADC_DelSig_1_AMux__maskTable, 2
 966              	ADC_DelSig_1_AMux__maskTable:
 967 0008 40       		.byte	64
 968 0009 00       		.byte	0
 969 000a 0000     		.space	2
 970              		.type	CFG_TD_ADDR0.4856, %object
 971              		.size	CFG_TD_ADDR0.4856, 300
 972              	CFG_TD_ADDR0.4856:
 973 000c 58020000 		.word	CH1_ADDR_DATA0.4849
 974 0010 60020000 		.word	CH2_ADDR_DATA0.4850
 975 0014 68020000 		.word	CH5_ADDR_DATA0.4851
 976 0018 70020000 		.word	CH6_ADDR_DATA0.4852
 977 001c 78020000 		.word	DMA_TD_START_CMD.4853
 978 0020 78020000 		.word	DMA_TD_START_CMD.4853
 979 0024 78020000 		.word	DMA_TD_START_CMD.4853
 980 0028 78020000 		.word	DMA_TD_START_CMD.4853
 981 002c 00000000 		.word	DMA_ZERO_VAL.4854
 982 0030 00000000 		.word	DMA_ZERO_VAL.4854
 983 0034 00000000 		.word	DMA_ZERO_VAL.4854
 984 0038 00000000 		.word	DMA_ZERO_VAL.4854
 985 003c 00000000 		.word	DMA_ZERO_VAL.4854
 986 0040 00000000 		.word	DMA_ZERO_VAL.4854
 987 0044 00000000 		.word	DMA_ZERO_VAL.4854
 988 0048 00000000 		.word	DMA_ZERO_VAL.4854
 989 004c 00000000 		.word	DMA_ZERO_VAL.4854
ARM GAS  C:\Users\Luggi\AppData\Local\Temp\ccBZUEmf.s 			page 38


 990 0050 00000000 		.word	DMA_ZERO_VAL.4854
 991 0054 00000000 		.word	DMA_ZERO_VAL.4854
 992 0058 00000000 		.word	DMA_ZERO_VAL.4854
 993 005c 00000000 		.word	DMA_ZERO_VAL.4854
 994 0060 00000000 		.word	DMA_ZERO_VAL.4854
 995 0064 00000000 		.word	DMA_ZERO_VAL.4854
 996 0068 08000048 		.word	1207959560
 997 006c 10000048 		.word	1207959568
 998 0070 18000048 		.word	1207959576
 999 0074 20000048 		.word	1207959584
 1000 0078 30000048 		.word	1207959600
 1001 007c 38000048 		.word	1207959608
 1002 0080 40000048 		.word	1207959616
 1003 0084 48000048 		.word	1207959624
 1004 0088 54000048 		.word	1207959636
 1005 008c 60000048 		.word	1207959648
 1006 0090 68000048 		.word	1207959656
 1007 0094 28000048 		.word	1207959592
 1008 0098 70000048 		.word	1207959664
 1009 009c F0000048 		.word	1207959792
 1010 00a0 70010048 		.word	1207959920
 1011 00a4 F0010048 		.word	1207960048
 1012 00a8 00020048 		.word	1207960064
 1013 00ac 80020048 		.word	1207960192
 1014 00b0 00030048 		.word	1207960320
 1015 00b4 80030048 		.word	1207960448
 1016 00b8 00040048 		.word	1207960576
 1017 00bc 80040048 		.word	1207960704
 1018 00c0 00050048 		.word	1207960832
 1019 00c4 80050048 		.word	1207960960
 1020 00c8 00060048 		.word	1207961088
 1021 00cc 80060048 		.word	1207961216
 1022 00d0 00070048 		.word	1207961344
 1023 00d4 80070048 		.word	1207961472
 1024 00d8 00080048 		.word	1207961600
 1025 00dc 80080048 		.word	1207961728
 1026 00e0 00090048 		.word	1207961856
 1027 00e4 80090048 		.word	1207961984
 1028 00e8 000A0048 		.word	1207962112
 1029 00ec 800A0048 		.word	1207962240
 1030 00f0 000B0048 		.word	1207962368
 1031 00f4 800B0048 		.word	1207962496
 1032 00f8 000C0048 		.word	1207962624
 1033 00fc 800C0048 		.word	1207962752
 1034 0100 000D0048 		.word	1207962880
 1035 0104 800D0048 		.word	1207963008
 1036 0108 000E0048 		.word	1207963136
 1037 010c 800E0048 		.word	1207963264
 1038 0110 000F0048 		.word	1207963392
 1039 0114 800F0048 		.word	1207963520
 1040 0118 00100048 		.word	1207963648
 1041 011c 80100048 		.word	1207963776
 1042 0120 00110048 		.word	1207963904
 1043 0124 80110048 		.word	1207964032
 1044 0128 00120048 		.word	1207964160
 1045 012c 80120048 		.word	1207964288
 1046 0130 00130048 		.word	1207964416
ARM GAS  C:\Users\Luggi\AppData\Local\Temp\ccBZUEmf.s 			page 39


 1047 0134 80130048 		.word	1207964544
 1048              		.section	.dma_init,"a",%progbits
 1049              		.set	.LANCHOR2,. + 0
 1050              		.type	CFG_TD_LIST0.4855, %object
 1051              		.size	CFG_TD_LIST0.4855, 600
 1052              	CFG_TD_LIST0.4855:
 1053 0000 0800     		.2byte	8
 1054 0002 02       		.byte	2
 1055 0003 23       		.byte	35
 1056 0004 0000     		.2byte	0
 1057 0006 0876     		.2byte	30216
 1058 0008 0800     		.2byte	8
 1059 000a 03       		.byte	3
 1060 000b 23       		.byte	35
 1061 000c 0000     		.2byte	0
 1062 000e 1076     		.2byte	30224
 1063 0010 0800     		.2byte	8
 1064 0012 04       		.byte	4
 1065 0013 23       		.byte	35
 1066 0014 0000     		.2byte	0
 1067 0016 2876     		.2byte	30248
 1068 0018 0800     		.2byte	8
 1069 001a 05       		.byte	5
 1070 001b 23       		.byte	35
 1071 001c 0000     		.2byte	0
 1072 001e 3076     		.2byte	30256
 1073 0020 0500     		.2byte	5
 1074 0022 06       		.byte	6
 1075 0023 23       		.byte	35
 1076 0024 0000     		.2byte	0
 1077 0026 2070     		.2byte	28704
 1078 0028 0500     		.2byte	5
 1079 002a 07       		.byte	7
 1080 002b 23       		.byte	35
 1081 002c 0000     		.2byte	0
 1082 002e 3070     		.2byte	28720
 1083 0030 0500     		.2byte	5
 1084 0032 08       		.byte	8
 1085 0033 23       		.byte	35
 1086 0034 0000     		.2byte	0
 1087 0036 6070     		.2byte	28768
 1088 0038 0500     		.2byte	5
 1089 003a FE       		.byte	-2
 1090 003b 23       		.byte	35
 1091 003c 0000     		.2byte	0
 1092 003e 7070     		.2byte	28784
 1093 0040 1000     		.2byte	16
 1094 0042 FE       		.byte	-2
 1095 0043 22       		.byte	34
 1096 0044 0000     		.2byte	0
 1097 0046 5051     		.2byte	20816
 1098 0048 8001     		.2byte	384
 1099 004a 0B       		.byte	11
 1100 004b 22       		.byte	34
 1101 004c 0000     		.2byte	0
 1102 004e 0000     		.2byte	0
 1103 0050 8001     		.2byte	384
ARM GAS  C:\Users\Luggi\AppData\Local\Temp\ccBZUEmf.s 			page 40


 1104 0052 0C       		.byte	12
 1105 0053 22       		.byte	34
 1106 0054 0000     		.2byte	0
 1107 0056 0002     		.2byte	512
 1108 0058 8000     		.2byte	128
 1109 005a 0D       		.byte	13
 1110 005b 22       		.byte	34
 1111 005c 0000     		.2byte	0
 1112 005e 8004     		.2byte	1152
 1113 0060 8001     		.2byte	384
 1114 0062 0E       		.byte	14
 1115 0063 22       		.byte	34
 1116 0064 0000     		.2byte	0
 1117 0066 0006     		.2byte	1536
 1118 0068 8001     		.2byte	384
 1119 006a 0F       		.byte	15
 1120 006b 22       		.byte	34
 1121 006c 0000     		.2byte	0
 1122 006e 0008     		.2byte	2048
 1123 0070 8001     		.2byte	384
 1124 0072 10       		.byte	16
 1125 0073 22       		.byte	34
 1126 0074 0000     		.2byte	0
 1127 0076 000C     		.2byte	3072
 1128 0078 8001     		.2byte	384
 1129 007a 11       		.byte	17
 1130 007b 22       		.byte	34
 1131 007c 0000     		.2byte	0
 1132 007e 000E     		.2byte	3584
 1133 0080 8001     		.2byte	384
 1134 0082 12       		.byte	18
 1135 0083 22       		.byte	34
 1136 0084 0000     		.2byte	0
 1137 0086 0014     		.2byte	5120
 1138 0088 8001     		.2byte	384
 1139 008a 13       		.byte	19
 1140 008b 22       		.byte	34
 1141 008c 0000     		.2byte	0
 1142 008e 0016     		.2byte	5632
 1143 0090 8001     		.2byte	384
 1144 0092 14       		.byte	20
 1145 0093 22       		.byte	34
 1146 0094 0000     		.2byte	0
 1147 0096 0018     		.2byte	6144
 1148 0098 8001     		.2byte	384
 1149 009a 15       		.byte	21
 1150 009b 22       		.byte	34
 1151 009c 0000     		.2byte	0
 1152 009e 001A     		.2byte	6656
 1153 00a0 8000     		.2byte	128
 1154 00a2 16       		.byte	22
 1155 00a3 22       		.byte	34
 1156 00a4 0000     		.2byte	0
 1157 00a6 0045     		.2byte	17664
 1158 00a8 8000     		.2byte	128
 1159 00aa 17       		.byte	23
 1160 00ab 22       		.byte	34
ARM GAS  C:\Users\Luggi\AppData\Local\Temp\ccBZUEmf.s 			page 41


 1161 00ac 0000     		.2byte	0
 1162 00ae 004D     		.2byte	19712
 1163 00b0 1000     		.2byte	16
 1164 00b2 FE       		.byte	-2
 1165 00b3 22       		.byte	34
 1166 00b4 0000     		.2byte	0
 1167 00b6 1050     		.2byte	20496
 1168 00b8 0700     		.2byte	7
 1169 00ba 19       		.byte	25
 1170 00bb 23       		.byte	35
 1171 00bc 0000     		.2byte	0
 1172 00be 1852     		.2byte	21016
 1173 00c0 0600     		.2byte	6
 1174 00c2 1A       		.byte	26
 1175 00c3 23       		.byte	35
 1176 00c4 0000     		.2byte	0
 1177 00c6 6052     		.2byte	21088
 1178 00c8 0700     		.2byte	7
 1179 00ca 1B       		.byte	27
 1180 00cb 23       		.byte	35
 1181 00cc 0000     		.2byte	0
 1182 00ce 7852     		.2byte	21112
 1183 00d0 0800     		.2byte	8
 1184 00d2 1C       		.byte	28
 1185 00d3 23       		.byte	35
 1186 00d4 0000     		.2byte	0
 1187 00d6 7845     		.2byte	17784
 1188 00d8 0800     		.2byte	8
 1189 00da 1D       		.byte	29
 1190 00db 23       		.byte	35
 1191 00dc 0000     		.2byte	0
 1192 00de C05A     		.2byte	23232
 1193 00e0 0800     		.2byte	8
 1194 00e2 1E       		.byte	30
 1195 00e3 23       		.byte	35
 1196 00e4 0000     		.2byte	0
 1197 00e6 D05A     		.2byte	23248
 1198 00e8 0800     		.2byte	8
 1199 00ea 1F       		.byte	31
 1200 00eb 23       		.byte	35
 1201 00ec 0000     		.2byte	0
 1202 00ee D85A     		.2byte	23256
 1203 00f0 0C00     		.2byte	12
 1204 00f2 20       		.byte	32
 1205 00f3 23       		.byte	35
 1206 00f4 0000     		.2byte	0
 1207 00f6 004F     		.2byte	20224
 1208 00f8 0C00     		.2byte	12
 1209 00fa 21       		.byte	33
 1210 00fb 23       		.byte	35
 1211 00fc 0000     		.2byte	0
 1212 00fe 0C4F     		.2byte	20236
 1213 0100 0800     		.2byte	8
 1214 0102 22       		.byte	34
 1215 0103 23       		.byte	35
 1216 0104 0000     		.2byte	0
 1217 0106 205B     		.2byte	23328
ARM GAS  C:\Users\Luggi\AppData\Local\Temp\ccBZUEmf.s 			page 42


 1218 0108 0800     		.2byte	8
 1219 010a FE       		.byte	-2
 1220 010b 23       		.byte	35
 1221 010c 0000     		.2byte	0
 1222 010e 285B     		.2byte	23336
 1223 0110 0800     		.2byte	8
 1224 0112 24       		.byte	36
 1225 0113 23       		.byte	35
 1226 0114 0000     		.2byte	0
 1227 0116 0051     		.2byte	20736
 1228 0118 8000     		.2byte	128
 1229 011a 25       		.byte	37
 1230 011b 23       		.byte	35
 1231 011c 0000     		.2byte	0
 1232 011e 0004     		.2byte	1024
 1233 0120 8000     		.2byte	128
 1234 0122 26       		.byte	38
 1235 0123 23       		.byte	35
 1236 0124 0000     		.2byte	0
 1237 0126 000A     		.2byte	2560
 1238 0128 8000     		.2byte	128
 1239 012a 27       		.byte	39
 1240 012b 23       		.byte	35
 1241 012c 0000     		.2byte	0
 1242 012e 800A     		.2byte	2688
 1243 0130 1000     		.2byte	16
 1244 0132 28       		.byte	40
 1245 0133 23       		.byte	35
 1246 0134 0000     		.2byte	0
 1247 0136 0050     		.2byte	20480
 1248 0138 8000     		.2byte	128
 1249 013a 29       		.byte	41
 1250 013b 23       		.byte	35
 1251 013c 0000     		.2byte	0
 1252 013e 804D     		.2byte	19840
 1253 0140 8000     		.2byte	128
 1254 0142 2A       		.byte	42
 1255 0143 23       		.byte	35
 1256 0144 0000     		.2byte	0
 1257 0146 004C     		.2byte	19456
 1258 0148 8000     		.2byte	128
 1259 014a 2B       		.byte	43
 1260 014b 23       		.byte	35
 1261 014c 0000     		.2byte	0
 1262 014e 804C     		.2byte	19584
 1263 0150 8000     		.2byte	128
 1264 0152 2C       		.byte	44
 1265 0153 23       		.byte	35
 1266 0154 0000     		.2byte	0
 1267 0156 0047     		.2byte	18176
 1268 0158 8000     		.2byte	128
 1269 015a 2D       		.byte	45
 1270 015b 23       		.byte	35
 1271 015c 0000     		.2byte	0
 1272 015e 8047     		.2byte	18304
 1273 0160 8000     		.2byte	128
 1274 0162 2E       		.byte	46
ARM GAS  C:\Users\Luggi\AppData\Local\Temp\ccBZUEmf.s 			page 43


 1275 0163 23       		.byte	35
 1276 0164 0000     		.2byte	0
 1277 0166 0046     		.2byte	17920
 1278 0168 8000     		.2byte	128
 1279 016a 2F       		.byte	47
 1280 016b 23       		.byte	35
 1281 016c 0000     		.2byte	0
 1282 016e 8046     		.2byte	18048
 1283 0170 8000     		.2byte	128
 1284 0172 30       		.byte	48
 1285 0173 23       		.byte	35
 1286 0174 0000     		.2byte	0
 1287 0176 8045     		.2byte	17792
 1288 0178 8000     		.2byte	128
 1289 017a 31       		.byte	49
 1290 017b 23       		.byte	35
 1291 017c 0000     		.2byte	0
 1292 017e 0044     		.2byte	17408
 1293 0180 8000     		.2byte	128
 1294 0182 32       		.byte	50
 1295 0183 23       		.byte	35
 1296 0184 0000     		.2byte	0
 1297 0186 8044     		.2byte	17536
 1298 0188 8000     		.2byte	128
 1299 018a 33       		.byte	51
 1300 018b 23       		.byte	35
 1301 018c 0000     		.2byte	0
 1302 018e 801B     		.2byte	7040
 1303 0190 8000     		.2byte	128
 1304 0192 34       		.byte	52
 1305 0193 23       		.byte	35
 1306 0194 0000     		.2byte	0
 1307 0196 8015     		.2byte	5504
 1308 0198 8000     		.2byte	128
 1309 019a 35       		.byte	53
 1310 019b 23       		.byte	35
 1311 019c 0000     		.2byte	0
 1312 019e 8019     		.2byte	6528
 1313 01a0 8000     		.2byte	128
 1314 01a2 36       		.byte	54
 1315 01a3 23       		.byte	35
 1316 01a4 0000     		.2byte	0
 1317 01a6 8017     		.2byte	6016
 1318 01a8 8000     		.2byte	128
 1319 01aa 37       		.byte	55
 1320 01ab 23       		.byte	35
 1321 01ac 0000     		.2byte	0
 1322 01ae 8009     		.2byte	2432
 1323 01b0 8000     		.2byte	128
 1324 01b2 38       		.byte	56
 1325 01b3 23       		.byte	35
 1326 01b4 0000     		.2byte	0
 1327 01b6 8007     		.2byte	1920
 1328 01b8 8000     		.2byte	128
 1329 01ba 39       		.byte	57
 1330 01bb 23       		.byte	35
 1331 01bc 0000     		.2byte	0
ARM GAS  C:\Users\Luggi\AppData\Local\Temp\ccBZUEmf.s 			page 44


 1332 01be 000B     		.2byte	2816
 1333 01c0 8000     		.2byte	128
 1334 01c2 3A       		.byte	58
 1335 01c3 23       		.byte	35
 1336 01c4 0000     		.2byte	0
 1337 01c6 800B     		.2byte	2944
 1338 01c8 8000     		.2byte	128
 1339 01ca 3B       		.byte	59
 1340 01cb 23       		.byte	35
 1341 01cc 0000     		.2byte	0
 1342 01ce 0005     		.2byte	1280
 1343 01d0 8000     		.2byte	128
 1344 01d2 3C       		.byte	60
 1345 01d3 23       		.byte	35
 1346 01d4 0000     		.2byte	0
 1347 01d6 8005     		.2byte	1408
 1348 01d8 8000     		.2byte	128
 1349 01da 3D       		.byte	61
 1350 01db 23       		.byte	35
 1351 01dc 0000     		.2byte	0
 1352 01de 800D     		.2byte	3456
 1353 01e0 8000     		.2byte	128
 1354 01e2 3E       		.byte	62
 1355 01e3 23       		.byte	35
 1356 01e4 0000     		.2byte	0
 1357 01e6 8003     		.2byte	896
 1358 01e8 8000     		.2byte	128
 1359 01ea 3F       		.byte	63
 1360 01eb 23       		.byte	35
 1361 01ec 0000     		.2byte	0
 1362 01ee 800F     		.2byte	3968
 1363 01f0 8000     		.2byte	128
 1364 01f2 40       		.byte	64
 1365 01f3 23       		.byte	35
 1366 01f4 0000     		.2byte	0
 1367 01f6 8001     		.2byte	384
 1368 01f8 8000     		.2byte	128
 1369 01fa 41       		.byte	65
 1370 01fb 23       		.byte	35
 1371 01fc 0000     		.2byte	0
 1372 01fe 0049     		.2byte	18688
 1373 0200 8000     		.2byte	128
 1374 0202 42       		.byte	66
 1375 0203 23       		.byte	35
 1376 0204 0000     		.2byte	0
 1377 0206 8049     		.2byte	18816
 1378 0208 8000     		.2byte	128
 1379 020a 43       		.byte	67
 1380 020b 23       		.byte	35
 1381 020c 0000     		.2byte	0
 1382 020e 0048     		.2byte	18432
 1383 0210 8000     		.2byte	128
 1384 0212 44       		.byte	68
 1385 0213 23       		.byte	35
 1386 0214 0000     		.2byte	0
 1387 0216 8048     		.2byte	18560
 1388 0218 8000     		.2byte	128
ARM GAS  C:\Users\Luggi\AppData\Local\Temp\ccBZUEmf.s 			page 45


 1389 021a 45       		.byte	69
 1390 021b 23       		.byte	35
 1391 021c 0000     		.2byte	0
 1392 021e 0043     		.2byte	17152
 1393 0220 8000     		.2byte	128
 1394 0222 46       		.byte	70
 1395 0223 23       		.byte	35
 1396 0224 0000     		.2byte	0
 1397 0226 8043     		.2byte	17280
 1398 0228 8000     		.2byte	128
 1399 022a 47       		.byte	71
 1400 022b 23       		.byte	35
 1401 022c 0000     		.2byte	0
 1402 022e 0042     		.2byte	16896
 1403 0230 8000     		.2byte	128
 1404 0232 48       		.byte	72
 1405 0233 23       		.byte	35
 1406 0234 0000     		.2byte	0
 1407 0236 8042     		.2byte	17024
 1408 0238 8000     		.2byte	128
 1409 023a 49       		.byte	73
 1410 023b 23       		.byte	35
 1411 023c 0000     		.2byte	0
 1412 023e 0041     		.2byte	16640
 1413 0240 8000     		.2byte	128
 1414 0242 4A       		.byte	74
 1415 0243 23       		.byte	35
 1416 0244 0000     		.2byte	0
 1417 0246 8041     		.2byte	16768
 1418 0248 8000     		.2byte	128
 1419 024a 4B       		.byte	75
 1420 024b 23       		.byte	35
 1421 024c 0000     		.2byte	0
 1422 024e 0040     		.2byte	16384
 1423 0250 8000     		.2byte	128
 1424 0252 FE       		.byte	-2
 1425 0253 23       		.byte	35
 1426 0254 0000     		.2byte	0
 1427 0256 8040     		.2byte	16512
 1428              		.type	CH1_ADDR_DATA0.4849, %object
 1429              		.size	CH1_ADDR_DATA0.4849, 8
 1430              	CH1_ADDR_DATA0.4849:
 1431 0258 01       		.byte	1
 1432 0259 00       		.byte	0
 1433 025a 00       		.byte	0
 1434 025b 00       		.byte	0
 1435 025c 00       		.byte	0
 1436 025d 20       		.byte	32
 1437 025e 00       		.byte	0
 1438 025f 40       		.byte	64
 1439              		.type	CH2_ADDR_DATA0.4850, %object
 1440              		.size	CH2_ADDR_DATA0.4850, 8
 1441              	CH2_ADDR_DATA0.4850:
 1442 0260 01       		.byte	1
 1443 0261 00       		.byte	0
 1444 0262 00       		.byte	0
 1445 0263 00       		.byte	0
ARM GAS  C:\Users\Luggi\AppData\Local\Temp\ccBZUEmf.s 			page 46


 1446 0264 00       		.byte	0
 1447 0265 20       		.byte	32
 1448 0266 01       		.byte	1
 1449 0267 40       		.byte	64
 1450              		.type	CH5_ADDR_DATA0.4851, %object
 1451              		.size	CH5_ADDR_DATA0.4851, 8
 1452              	CH5_ADDR_DATA0.4851:
 1453 0268 01       		.byte	1
 1454 0269 00       		.byte	0
 1455 026a 00       		.byte	0
 1456 026b 00       		.byte	0
 1457 026c 00       		.byte	0
 1458 026d 48       		.byte	72
 1459 026e 00       		.byte	0
 1460 026f 40       		.byte	64
 1461              		.type	CH6_ADDR_DATA0.4852, %object
 1462              		.size	CH6_ADDR_DATA0.4852, 8
 1463              	CH6_ADDR_DATA0.4852:
 1464 0270 01       		.byte	1
 1465 0271 00       		.byte	0
 1466 0272 00       		.byte	0
 1467 0273 00       		.byte	0
 1468 0274 00       		.byte	0
 1469 0275 48       		.byte	72
 1470 0276 01       		.byte	1
 1471 0277 40       		.byte	64
 1472              		.type	DMA_TD_START_CMD.4853, %object
 1473              		.size	DMA_TD_START_CMD.4853, 5
 1474              	DMA_TD_START_CMD.4853:
 1475 0278 01       		.byte	1
 1476 0279 00       		.byte	0
 1477 027a 00       		.byte	0
 1478 027b 00       		.byte	0
 1479 027c 01       		.byte	1
 1480              		.bss
 1481              		.align	3
 1482              		.set	.LANCHOR1,. + 0
 1483              		.type	DMA_ZERO_VAL.4854, %object
 1484              		.size	DMA_ZERO_VAL.4854, 4
 1485              	DMA_ZERO_VAL.4854:
 1486 0000 00000000 		.space	4
 1487 0004 00000000 		.text
 1488              	.Letext0:
 1489              		.file 2 "c:\\program files\\cypress\\psoc creator\\4.0\\psoc creator\\import\\gnu\\arm\\4.9.3\\lib
 1490              		.file 3 "Generated_Source\\PSoC5\\cytypes.h"
 1491              		.file 4 "Generated_Source\\PSoC5\\CyLib.h"