ARM GAS  C:\Users\Luggi\AppData\Local\Temp\ccahf4jt.s 			page 1


   1              		.syntax unified
   2              		.cpu cortex-m3
   3              		.fpu softvfp
   4              		.eabi_attribute 20, 1
   5              		.eabi_attribute 21, 1
   6              		.eabi_attribute 23, 3
   7              		.eabi_attribute 24, 1
   8              		.eabi_attribute 25, 1
   9              		.eabi_attribute 26, 1
  10              		.eabi_attribute 30, 4
  11              		.eabi_attribute 34, 1
  12              		.eabi_attribute 18, 4
  13              		.thumb
  14              		.file	"EEPROM_1.c"
  15              		.text
  16              	.Ltext0:
  17              		.cfi_sections	.debug_frame
  18              		.section	.text.EEPROM_1_Enable,"ax",%progbits
  19              		.align	1
  20              		.global	EEPROM_1_Enable
  21              		.thumb
  22              		.thumb_func
  23              		.type	EEPROM_1_Enable, %function
  24              	EEPROM_1_Enable:
  25              	.LFB0:
  26              		.file 1 "Generated_Source\\PSoC5\\EEPROM_1.c"
   1:Generated_Source\PSoC5/EEPROM_1.c **** /*******************************************************************************
   2:Generated_Source\PSoC5/EEPROM_1.c **** * File Name: EEPROM_1.c
   3:Generated_Source\PSoC5/EEPROM_1.c **** * Version 3.0
   4:Generated_Source\PSoC5/EEPROM_1.c **** *
   5:Generated_Source\PSoC5/EEPROM_1.c **** *  Description:
   6:Generated_Source\PSoC5/EEPROM_1.c **** *   Provides the source code to the API for the EEPROM component.
   7:Generated_Source\PSoC5/EEPROM_1.c **** *
   8:Generated_Source\PSoC5/EEPROM_1.c **** ********************************************************************************
   9:Generated_Source\PSoC5/EEPROM_1.c **** * Copyright 2008-2015, Cypress Semiconductor Corporation.  All rights reserved.
  10:Generated_Source\PSoC5/EEPROM_1.c **** * You may use this file only in accordance with the license, terms, conditions,
  11:Generated_Source\PSoC5/EEPROM_1.c **** * disclaimers, and limitations in the end user license agreement accompanying
  12:Generated_Source\PSoC5/EEPROM_1.c **** * the software package with which this file was provided.
  13:Generated_Source\PSoC5/EEPROM_1.c **** *******************************************************************************/
  14:Generated_Source\PSoC5/EEPROM_1.c **** 
  15:Generated_Source\PSoC5/EEPROM_1.c **** #include "EEPROM_1.h"
  16:Generated_Source\PSoC5/EEPROM_1.c **** 
  17:Generated_Source\PSoC5/EEPROM_1.c **** 
  18:Generated_Source\PSoC5/EEPROM_1.c **** /*******************************************************************************
  19:Generated_Source\PSoC5/EEPROM_1.c **** * Function Name: EEPROM_1_Enable
  20:Generated_Source\PSoC5/EEPROM_1.c **** ********************************************************************************
  21:Generated_Source\PSoC5/EEPROM_1.c **** *
  22:Generated_Source\PSoC5/EEPROM_1.c **** * Summary:
  23:Generated_Source\PSoC5/EEPROM_1.c **** *  Enable the EEPROM block. Also reads the temperature and stores it for
  24:Generated_Source\PSoC5/EEPROM_1.c **** *  future writes.
  25:Generated_Source\PSoC5/EEPROM_1.c **** *
  26:Generated_Source\PSoC5/EEPROM_1.c **** * Parameters:
  27:Generated_Source\PSoC5/EEPROM_1.c **** *  None
  28:Generated_Source\PSoC5/EEPROM_1.c **** *
  29:Generated_Source\PSoC5/EEPROM_1.c **** * Return:
  30:Generated_Source\PSoC5/EEPROM_1.c **** *  None
  31:Generated_Source\PSoC5/EEPROM_1.c **** *
ARM GAS  C:\Users\Luggi\AppData\Local\Temp\ccahf4jt.s 			page 2


  32:Generated_Source\PSoC5/EEPROM_1.c **** *******************************************************************************/
  33:Generated_Source\PSoC5/EEPROM_1.c **** void EEPROM_1_Enable(void) 
  34:Generated_Source\PSoC5/EEPROM_1.c **** {
  27              		.loc 1 34 0
  28              		.cfi_startproc
  29              		@ args = 0, pretend = 0, frame = 0
  30              		@ frame_needed = 0, uses_anonymous_args = 0
  31 0000 08B5     		push	{r3, lr}
  32              		.cfi_def_cfa_offset 8
  33              		.cfi_offset 3, -8
  34              		.cfi_offset 14, -4
  35:Generated_Source\PSoC5/EEPROM_1.c ****     /* Read temperature value */
  36:Generated_Source\PSoC5/EEPROM_1.c ****     (void)CySetTemp();
  35              		.loc 1 36 0
  36 0002 FFF7FEFF 		bl	CySetTemp
  37              	.LVL0:
  37:Generated_Source\PSoC5/EEPROM_1.c **** 
  38:Generated_Source\PSoC5/EEPROM_1.c ****     /* Start EEPROM block */
  39:Generated_Source\PSoC5/EEPROM_1.c ****     CyEEPROM_Start();
  40:Generated_Source\PSoC5/EEPROM_1.c **** }
  38              		.loc 1 40 0
  39 0006 BDE80840 		pop	{r3, lr}
  40              		.cfi_restore 14
  41              		.cfi_restore 3
  42              		.cfi_def_cfa_offset 0
  39:Generated_Source\PSoC5/EEPROM_1.c **** }
  43              		.loc 1 39 0
  44 000a FFF7FEBF 		b	CyEEPROM_Start
  45              	.LVL1:
  46              		.cfi_endproc
  47              	.LFE0:
  48              		.size	EEPROM_1_Enable, .-EEPROM_1_Enable
  49              		.section	.text.EEPROM_1_Start,"ax",%progbits
  50              		.align	1
  51              		.global	EEPROM_1_Start
  52              		.thumb
  53              		.thumb_func
  54              		.type	EEPROM_1_Start, %function
  55              	EEPROM_1_Start:
  56              	.LFB1:
  41:Generated_Source\PSoC5/EEPROM_1.c **** 
  42:Generated_Source\PSoC5/EEPROM_1.c **** 
  43:Generated_Source\PSoC5/EEPROM_1.c **** /*******************************************************************************
  44:Generated_Source\PSoC5/EEPROM_1.c **** * Function Name: EEPROM_1_Start
  45:Generated_Source\PSoC5/EEPROM_1.c **** ********************************************************************************
  46:Generated_Source\PSoC5/EEPROM_1.c **** *
  47:Generated_Source\PSoC5/EEPROM_1.c **** * Summary:
  48:Generated_Source\PSoC5/EEPROM_1.c **** *  Starts EEPROM.
  49:Generated_Source\PSoC5/EEPROM_1.c **** *
  50:Generated_Source\PSoC5/EEPROM_1.c **** * Parameters:
  51:Generated_Source\PSoC5/EEPROM_1.c **** *  None
  52:Generated_Source\PSoC5/EEPROM_1.c **** *
  53:Generated_Source\PSoC5/EEPROM_1.c **** * Return:
  54:Generated_Source\PSoC5/EEPROM_1.c **** *  None
  55:Generated_Source\PSoC5/EEPROM_1.c **** *
  56:Generated_Source\PSoC5/EEPROM_1.c **** *******************************************************************************/
  57:Generated_Source\PSoC5/EEPROM_1.c **** void EEPROM_1_Start(void) 
ARM GAS  C:\Users\Luggi\AppData\Local\Temp\ccahf4jt.s 			page 3


  58:Generated_Source\PSoC5/EEPROM_1.c **** {
  57              		.loc 1 58 0
  58              		.cfi_startproc
  59              		@ args = 0, pretend = 0, frame = 0
  60              		@ frame_needed = 0, uses_anonymous_args = 0
  61              		@ link register save eliminated.
  59:Generated_Source\PSoC5/EEPROM_1.c ****     EEPROM_1_Enable();
  62              		.loc 1 59 0
  63 0000 FFF7FEBF 		b	EEPROM_1_Enable
  64              	.LVL2:
  65              		.cfi_endproc
  66              	.LFE1:
  67              		.size	EEPROM_1_Start, .-EEPROM_1_Start
  68              		.section	.text.EEPROM_1_Stop,"ax",%progbits
  69              		.align	1
  70              		.global	EEPROM_1_Stop
  71              		.thumb
  72              		.thumb_func
  73              		.type	EEPROM_1_Stop, %function
  74              	EEPROM_1_Stop:
  75              	.LFB2:
  60:Generated_Source\PSoC5/EEPROM_1.c **** }
  61:Generated_Source\PSoC5/EEPROM_1.c **** 
  62:Generated_Source\PSoC5/EEPROM_1.c **** 
  63:Generated_Source\PSoC5/EEPROM_1.c **** /*******************************************************************************
  64:Generated_Source\PSoC5/EEPROM_1.c **** * Function Name: EEPROM_1_Stop
  65:Generated_Source\PSoC5/EEPROM_1.c **** ********************************************************************************
  66:Generated_Source\PSoC5/EEPROM_1.c **** *
  67:Generated_Source\PSoC5/EEPROM_1.c **** * Summary:
  68:Generated_Source\PSoC5/EEPROM_1.c **** *  Stops and powers down EEPROM.
  69:Generated_Source\PSoC5/EEPROM_1.c **** *
  70:Generated_Source\PSoC5/EEPROM_1.c **** * Parameters:
  71:Generated_Source\PSoC5/EEPROM_1.c **** *  None
  72:Generated_Source\PSoC5/EEPROM_1.c **** *
  73:Generated_Source\PSoC5/EEPROM_1.c **** * Return:
  74:Generated_Source\PSoC5/EEPROM_1.c **** *  None
  75:Generated_Source\PSoC5/EEPROM_1.c **** *
  76:Generated_Source\PSoC5/EEPROM_1.c **** *******************************************************************************/
  77:Generated_Source\PSoC5/EEPROM_1.c **** void EEPROM_1_Stop (void) 
  78:Generated_Source\PSoC5/EEPROM_1.c **** {
  76              		.loc 1 78 0
  77              		.cfi_startproc
  78              		@ args = 0, pretend = 0, frame = 0
  79              		@ frame_needed = 0, uses_anonymous_args = 0
  80              		@ link register save eliminated.
  79:Generated_Source\PSoC5/EEPROM_1.c ****     /* Stop and power down EEPROM block */
  80:Generated_Source\PSoC5/EEPROM_1.c ****     CyEEPROM_Stop();
  81              		.loc 1 80 0
  82 0000 FFF7FEBF 		b	CyEEPROM_Stop
  83              	.LVL3:
  84              		.cfi_endproc
  85              	.LFE2:
  86              		.size	EEPROM_1_Stop, .-EEPROM_1_Stop
  87              		.section	.text.EEPROM_1_WriteByte,"ax",%progbits
  88              		.align	1
  89              		.global	EEPROM_1_WriteByte
  90              		.thumb
ARM GAS  C:\Users\Luggi\AppData\Local\Temp\ccahf4jt.s 			page 4


  91              		.thumb_func
  92              		.type	EEPROM_1_WriteByte, %function
  93              	EEPROM_1_WriteByte:
  94              	.LFB3:
  81:Generated_Source\PSoC5/EEPROM_1.c **** }
  82:Generated_Source\PSoC5/EEPROM_1.c **** 
  83:Generated_Source\PSoC5/EEPROM_1.c **** 
  84:Generated_Source\PSoC5/EEPROM_1.c **** /*******************************************************************************
  85:Generated_Source\PSoC5/EEPROM_1.c **** * Function Name: EEPROM_1_WriteByte
  86:Generated_Source\PSoC5/EEPROM_1.c **** ********************************************************************************
  87:Generated_Source\PSoC5/EEPROM_1.c **** *
  88:Generated_Source\PSoC5/EEPROM_1.c **** * Summary:
  89:Generated_Source\PSoC5/EEPROM_1.c **** *  Writes a byte of data to the EEPROM. This function blocks until
  90:Generated_Source\PSoC5/EEPROM_1.c **** *  the function is complete. For a reliable write procedure to occur you should
  91:Generated_Source\PSoC5/EEPROM_1.c **** *  call EEPROM_1_UpdateTemperature() function if the temperature of the
  92:Generated_Source\PSoC5/EEPROM_1.c **** *  silicon has been changed for more than 10C since the component was started.
  93:Generated_Source\PSoC5/EEPROM_1.c **** *
  94:Generated_Source\PSoC5/EEPROM_1.c **** * Parameters:
  95:Generated_Source\PSoC5/EEPROM_1.c **** *  dataByte:  The byte of data to write to the EEPROM
  96:Generated_Source\PSoC5/EEPROM_1.c **** *  address:   The address of data to be written. The maximum address is dependent
  97:Generated_Source\PSoC5/EEPROM_1.c **** *             on the EEPROM size.
  98:Generated_Source\PSoC5/EEPROM_1.c **** *
  99:Generated_Source\PSoC5/EEPROM_1.c **** * Return:
 100:Generated_Source\PSoC5/EEPROM_1.c **** *  CYRET_SUCCESS, if the operation was successful.
 101:Generated_Source\PSoC5/EEPROM_1.c **** *  CYRET_BAD_PARAM, if the parameter sectorNumber is out of range.
 102:Generated_Source\PSoC5/EEPROM_1.c **** *  CYRET_LOCKED, if the SPC is being used.
 103:Generated_Source\PSoC5/EEPROM_1.c **** *  CYRET_UNKNOWN, if there was an SPC error.
 104:Generated_Source\PSoC5/EEPROM_1.c **** *
 105:Generated_Source\PSoC5/EEPROM_1.c **** *******************************************************************************/
 106:Generated_Source\PSoC5/EEPROM_1.c **** cystatus EEPROM_1_WriteByte(uint8 dataByte, uint16 address) 
 107:Generated_Source\PSoC5/EEPROM_1.c **** {
  95              		.loc 1 107 0
  96              		.cfi_startproc
  97              		@ args = 0, pretend = 0, frame = 8
  98              		@ frame_needed = 0, uses_anonymous_args = 0
  99              	.LVL4:
 100 0000 37B5     		push	{r0, r1, r2, r4, r5, lr}
 101              		.cfi_def_cfa_offset 24
 102              		.cfi_offset 4, -12
 103              		.cfi_offset 5, -8
 104              		.cfi_offset 14, -4
 105              		.loc 1 107 0
 106 0002 0C46     		mov	r4, r1
 107 0004 8DF80700 		strb	r0, [sp, #7]
 108:Generated_Source\PSoC5/EEPROM_1.c ****     cystatus status;
 109:Generated_Source\PSoC5/EEPROM_1.c ****     uint16 rowNumber;
 110:Generated_Source\PSoC5/EEPROM_1.c ****     uint16 byteNumber;
 111:Generated_Source\PSoC5/EEPROM_1.c ****     
 112:Generated_Source\PSoC5/EEPROM_1.c ****     CySpcStart();
 108              		.loc 1 112 0
 109 0008 FFF7FEFF 		bl	CySpcStart
 110              	.LVL5:
 113:Generated_Source\PSoC5/EEPROM_1.c **** 
 114:Generated_Source\PSoC5/EEPROM_1.c ****     if (address < CY_EEPROM_SIZE)
 111              		.loc 1 114 0
 112 000c B4F5006F 		cmp	r4, #2048
 113 0010 24D2     		bcs	.L13
ARM GAS  C:\Users\Luggi\AppData\Local\Temp\ccahf4jt.s 			page 5


 114              	.LVL6:
 115:Generated_Source\PSoC5/EEPROM_1.c ****     {
 116:Generated_Source\PSoC5/EEPROM_1.c ****         rowNumber = address/(uint16)CY_EEPROM_SIZEOF_ROW;
 117:Generated_Source\PSoC5/EEPROM_1.c ****         byteNumber = address - (rowNumber * ((uint16)CY_EEPROM_SIZEOF_ROW));
 118:Generated_Source\PSoC5/EEPROM_1.c ****         if(CYRET_SUCCESS == CySpcLock())
 115              		.loc 1 118 0
 116 0012 FFF7FEFF 		bl	CySpcLock
 117              	.LVL7:
 118 0016 18BB     		cbnz	r0, .L14
 116:Generated_Source\PSoC5/EEPROM_1.c ****         byteNumber = address - (rowNumber * ((uint16)CY_EEPROM_SIZEOF_ROW));
 119              		.loc 1 116 0
 120 0018 2509     		lsrs	r5, r4, #4
 117:Generated_Source\PSoC5/EEPROM_1.c ****         if(CYRET_SUCCESS == CySpcLock())
 121              		.loc 1 117 0
 122 001a C5EB0531 		rsb	r1, r5, r5, lsl #12
 123 001e 04EB0111 		add	r1, r4, r1, lsl #4
 119:Generated_Source\PSoC5/EEPROM_1.c ****         {
 120:Generated_Source\PSoC5/EEPROM_1.c ****             status = CySpcLoadMultiByte(CY_SPC_FIRST_EE_ARRAYID, byteNumber, &dataByte, \
 124              		.loc 1 120 0
 125 0022 4020     		movs	r0, #64
 126 0024 89B2     		uxth	r1, r1
 127 0026 0DF10702 		add	r2, sp, #7
 128              	.LVL8:
 129 002a 0123     		movs	r3, #1
 130 002c FFF7FEFF 		bl	CySpcLoadMultiByte
 131              	.LVL9:
 121:Generated_Source\PSoC5/EEPROM_1.c ****                                                                     EEPROM_1_SPC_BYTE_WRITE_SIZE);
 122:Generated_Source\PSoC5/EEPROM_1.c ****             if (CYRET_STARTED == status)
 132              		.loc 1 122 0
 133 0030 0728     		cmp	r0, #7
 120:Generated_Source\PSoC5/EEPROM_1.c ****                                                                     EEPROM_1_SPC_BYTE_WRITE_SIZE);
 134              		.loc 1 120 0
 135 0032 0446     		mov	r4, r0
 136              	.LVL10:
 137              		.loc 1 122 0
 138 0034 0DD1     		bne	.L6
 139              	.L7:
 123:Generated_Source\PSoC5/EEPROM_1.c ****             {
 124:Generated_Source\PSoC5/EEPROM_1.c ****                 /* Plan for failure */
 125:Generated_Source\PSoC5/EEPROM_1.c ****                 status = CYRET_UNKNOWN;
 126:Generated_Source\PSoC5/EEPROM_1.c **** 
 127:Generated_Source\PSoC5/EEPROM_1.c ****                 while(CY_SPC_BUSY)
 140              		.loc 1 127 0 discriminator 1
 141 0036 184C     		ldr	r4, .L26
 142 0038 2378     		ldrb	r3, [r4]	@ zero_extendqisi2
 143 003a 9B07     		lsls	r3, r3, #30
 144 003c FBD5     		bpl	.L7
 128:Generated_Source\PSoC5/EEPROM_1.c ****                 {
 129:Generated_Source\PSoC5/EEPROM_1.c ****                     /* Wait until SPC becomes idle */
 130:Generated_Source\PSoC5/EEPROM_1.c ****                 }
 131:Generated_Source\PSoC5/EEPROM_1.c **** 
 132:Generated_Source\PSoC5/EEPROM_1.c ****                 if(CY_SPC_STATUS_SUCCESS == CY_SPC_READ_STATUS)
 145              		.loc 1 132 0
 146 003e 2378     		ldrb	r3, [r4]	@ zero_extendqisi2
 147 0040 9807     		lsls	r0, r3, #30
 148              	.LVL11:
 149 0042 02D4     		bmi	.L8
ARM GAS  C:\Users\Luggi\AppData\Local\Temp\ccahf4jt.s 			page 6


 150              	.L11:
 133:Generated_Source\PSoC5/EEPROM_1.c ****                 {
 134:Generated_Source\PSoC5/EEPROM_1.c ****                     status = CYRET_SUCCESS;
 135:Generated_Source\PSoC5/EEPROM_1.c ****                 }
 136:Generated_Source\PSoC5/EEPROM_1.c ****                 /* Command to erase and program the row. */
 137:Generated_Source\PSoC5/EEPROM_1.c ****                 if(CYRET_SUCCESS == status)
 138:Generated_Source\PSoC5/EEPROM_1.c ****                 {
 139:Generated_Source\PSoC5/EEPROM_1.c ****                     if(CySpcWriteRow(CY_SPC_FIRST_EE_ARRAYID, (uint16)rowNumber, dieTemperature[0u]
 140:Generated_Source\PSoC5/EEPROM_1.c ****                     dieTemperature[1u]) == CYRET_STARTED)
 141:Generated_Source\PSoC5/EEPROM_1.c ****                     {
 142:Generated_Source\PSoC5/EEPROM_1.c ****                         /* Plan for failure */
 143:Generated_Source\PSoC5/EEPROM_1.c ****                         status = CYRET_UNKNOWN;
 144:Generated_Source\PSoC5/EEPROM_1.c **** 
 145:Generated_Source\PSoC5/EEPROM_1.c ****                         while(CY_SPC_BUSY)
 146:Generated_Source\PSoC5/EEPROM_1.c ****                         {
 147:Generated_Source\PSoC5/EEPROM_1.c ****                             /* Wait until SPC becomes idle */
 148:Generated_Source\PSoC5/EEPROM_1.c ****                         }
 149:Generated_Source\PSoC5/EEPROM_1.c **** 
 150:Generated_Source\PSoC5/EEPROM_1.c ****                         /* SPC is idle now */
 151:Generated_Source\PSoC5/EEPROM_1.c ****                         if(CY_SPC_STATUS_SUCCESS == CY_SPC_READ_STATUS)
 152:Generated_Source\PSoC5/EEPROM_1.c ****                         {
 153:Generated_Source\PSoC5/EEPROM_1.c ****                             status = CYRET_SUCCESS;
 154:Generated_Source\PSoC5/EEPROM_1.c ****                         }
 155:Generated_Source\PSoC5/EEPROM_1.c ****                     }
 156:Generated_Source\PSoC5/EEPROM_1.c ****                     else
 157:Generated_Source\PSoC5/EEPROM_1.c ****                     {
 158:Generated_Source\PSoC5/EEPROM_1.c ****                         status = CYRET_UNKNOWN;
 159:Generated_Source\PSoC5/EEPROM_1.c ****                     }
 160:Generated_Source\PSoC5/EEPROM_1.c ****                 }
 161:Generated_Source\PSoC5/EEPROM_1.c ****                 else
 162:Generated_Source\PSoC5/EEPROM_1.c ****                 {
 163:Generated_Source\PSoC5/EEPROM_1.c ****                     status = CYRET_UNKNOWN;
 151              		.loc 1 163 0
 152 0044 4FF0FF34 		mov	r4, #-1
 153 0048 05E0     		b	.L9
 154              	.L8:
 132:Generated_Source\PSoC5/EEPROM_1.c ****                 {
 155              		.loc 1 132 0 discriminator 1
 156 004a 2378     		ldrb	r3, [r4]	@ zero_extendqisi2
 157 004c 9B08     		lsrs	r3, r3, #2
 158 004e 09D0     		beq	.L10
 159 0050 F8E7     		b	.L11
 160              	.LVL12:
 161              	.L6:
 164:Generated_Source\PSoC5/EEPROM_1.c ****                 }
 165:Generated_Source\PSoC5/EEPROM_1.c ****             }
 166:Generated_Source\PSoC5/EEPROM_1.c ****             else
 167:Generated_Source\PSoC5/EEPROM_1.c ****             {
 168:Generated_Source\PSoC5/EEPROM_1.c ****                 if (CYRET_BAD_PARAM != status)
 162              		.loc 1 168 0
 163 0052 0128     		cmp	r0, #1
 164 0054 F6D1     		bne	.L11
 165              	.LVL13:
 166              	.L9:
 169:Generated_Source\PSoC5/EEPROM_1.c ****                 {
 170:Generated_Source\PSoC5/EEPROM_1.c ****                     status = CYRET_UNKNOWN;
 171:Generated_Source\PSoC5/EEPROM_1.c ****                 }
ARM GAS  C:\Users\Luggi\AppData\Local\Temp\ccahf4jt.s 			page 7


 172:Generated_Source\PSoC5/EEPROM_1.c ****             }
 173:Generated_Source\PSoC5/EEPROM_1.c ****             CySpcUnlock();
 167              		.loc 1 173 0
 168 0056 FFF7FEFF 		bl	CySpcUnlock
 169              	.LVL14:
 170 005a 1AE0     		b	.L24
 171              	.LVL15:
 172              	.L13:
 174:Generated_Source\PSoC5/EEPROM_1.c ****         }
 175:Generated_Source\PSoC5/EEPROM_1.c ****         else
 176:Generated_Source\PSoC5/EEPROM_1.c ****         {
 177:Generated_Source\PSoC5/EEPROM_1.c ****             status = CYRET_LOCKED;
 178:Generated_Source\PSoC5/EEPROM_1.c ****         }
 179:Generated_Source\PSoC5/EEPROM_1.c ****     }
 180:Generated_Source\PSoC5/EEPROM_1.c ****     else
 181:Generated_Source\PSoC5/EEPROM_1.c ****     {
 182:Generated_Source\PSoC5/EEPROM_1.c ****         status = CYRET_BAD_PARAM;
 173              		.loc 1 182 0
 174 005c 0124     		movs	r4, #1
 175 005e 18E0     		b	.L24
 176              	.LVL16:
 177              	.L14:
 177:Generated_Source\PSoC5/EEPROM_1.c ****         }
 178              		.loc 1 177 0
 179 0060 0424     		movs	r4, #4
 180              	.LVL17:
 181 0062 16E0     		b	.L24
 182              	.LVL18:
 183              	.L10:
 139:Generated_Source\PSoC5/EEPROM_1.c ****                     dieTemperature[1u]) == CYRET_STARTED)
 184              		.loc 1 139 0
 185 0064 0D4B     		ldr	r3, .L26+4
 186 0066 4020     		movs	r0, #64
 187 0068 1A78     		ldrb	r2, [r3]	@ zero_extendqisi2
 188 006a 2946     		mov	r1, r5
 189 006c 5B78     		ldrb	r3, [r3, #1]	@ zero_extendqisi2
 190 006e FFF7FEFF 		bl	CySpcWriteRow
 191              	.LVL19:
 192 0072 0728     		cmp	r0, #7
 193 0074 E6D1     		bne	.L11
 194              	.L12:
 145:Generated_Source\PSoC5/EEPROM_1.c ****                         {
 195              		.loc 1 145 0 discriminator 1
 196 0076 2278     		ldrb	r2, [r4]	@ zero_extendqisi2
 197 0078 074B     		ldr	r3, .L26
 198 007a 9107     		lsls	r1, r2, #30
 199 007c FBD5     		bpl	.L12
 151:Generated_Source\PSoC5/EEPROM_1.c ****                         {
 200              		.loc 1 151 0
 201 007e 1A78     		ldrb	r2, [r3]	@ zero_extendqisi2
 202 0080 9207     		lsls	r2, r2, #30
 203 0082 DFD5     		bpl	.L11
 151:Generated_Source\PSoC5/EEPROM_1.c ****                         {
 204              		.loc 1 151 0 is_stmt 0 discriminator 1
 205 0084 1B78     		ldrb	r3, [r3]	@ zero_extendqisi2
 206 0086 9B08     		lsrs	r3, r3, #2
 207 0088 14BF     		ite	ne
ARM GAS  C:\Users\Luggi\AppData\Local\Temp\ccahf4jt.s 			page 8


 208 008a 4FF0FF34 		movne	r4, #-1
 209 008e 0024     		moveq	r4, #0
 210 0090 E1E7     		b	.L9
 211              	.LVL20:
 212              	.L24:
 183:Generated_Source\PSoC5/EEPROM_1.c ****     }
 184:Generated_Source\PSoC5/EEPROM_1.c **** 
 185:Generated_Source\PSoC5/EEPROM_1.c **** 
 186:Generated_Source\PSoC5/EEPROM_1.c ****     return (status);
 187:Generated_Source\PSoC5/EEPROM_1.c **** }
 213              		.loc 1 187 0 is_stmt 1
 214 0092 2046     		mov	r0, r4
 215 0094 03B0     		add	sp, sp, #12
 216              		.cfi_def_cfa_offset 12
 217              		@ sp needed
 218 0096 30BD     		pop	{r4, r5, pc}
 219              	.LVL21:
 220              	.L27:
 221              		.align	2
 222              	.L26:
 223 0098 22470040 		.word	1073760034
 224 009c 00000000 		.word	dieTemperature
 225              		.cfi_endproc
 226              	.LFE3:
 227              		.size	EEPROM_1_WriteByte, .-EEPROM_1_WriteByte
 228              		.section	.text.EEPROM_1_ReadByte,"ax",%progbits
 229              		.align	1
 230              		.global	EEPROM_1_ReadByte
 231              		.thumb
 232              		.thumb_func
 233              		.type	EEPROM_1_ReadByte, %function
 234              	EEPROM_1_ReadByte:
 235              	.LFB4:
 188:Generated_Source\PSoC5/EEPROM_1.c **** 
 189:Generated_Source\PSoC5/EEPROM_1.c **** 
 190:Generated_Source\PSoC5/EEPROM_1.c **** /*******************************************************************************
 191:Generated_Source\PSoC5/EEPROM_1.c **** * Function Name: EEPROM_1_ReadByte
 192:Generated_Source\PSoC5/EEPROM_1.c **** ********************************************************************************
 193:Generated_Source\PSoC5/EEPROM_1.c **** *
 194:Generated_Source\PSoC5/EEPROM_1.c **** * Summary:
 195:Generated_Source\PSoC5/EEPROM_1.c **** *  Reads and returns a byte of data from the on-chip EEPROM memory. Although
 196:Generated_Source\PSoC5/EEPROM_1.c **** *  the data is present in the CPU memory space, this function provides an
 197:Generated_Source\PSoC5/EEPROM_1.c **** *  intuitive user interface, addressing the EEPROM memory as a separate block with
 198:Generated_Source\PSoC5/EEPROM_1.c **** *  the first EERPOM byte address equal to 0x0000.
 199:Generated_Source\PSoC5/EEPROM_1.c **** *
 200:Generated_Source\PSoC5/EEPROM_1.c **** * Parameters:
 201:Generated_Source\PSoC5/EEPROM_1.c **** *  address:   The address of data to be read. The maximum address is limited by the
 202:Generated_Source\PSoC5/EEPROM_1.c **** *             size of the EEPROM array on a specific device.
 203:Generated_Source\PSoC5/EEPROM_1.c **** *
 204:Generated_Source\PSoC5/EEPROM_1.c **** * Return:
 205:Generated_Source\PSoC5/EEPROM_1.c **** *  Data located at an address.
 206:Generated_Source\PSoC5/EEPROM_1.c **** *
 207:Generated_Source\PSoC5/EEPROM_1.c **** *******************************************************************************/
 208:Generated_Source\PSoC5/EEPROM_1.c **** uint8 EEPROM_1_ReadByte(uint16 address) 
 209:Generated_Source\PSoC5/EEPROM_1.c **** {
 236              		.loc 1 209 0
 237              		.cfi_startproc
ARM GAS  C:\Users\Luggi\AppData\Local\Temp\ccahf4jt.s 			page 9


 238              		@ args = 0, pretend = 0, frame = 0
 239              		@ frame_needed = 0, uses_anonymous_args = 0
 240              	.LVL22:
 241 0000 38B5     		push	{r3, r4, r5, lr}
 242              		.cfi_def_cfa_offset 16
 243              		.cfi_offset 3, -16
 244              		.cfi_offset 4, -12
 245              		.cfi_offset 5, -8
 246              		.cfi_offset 14, -4
 247              		.loc 1 209 0
 248 0002 0446     		mov	r4, r0
 210:Generated_Source\PSoC5/EEPROM_1.c ****     uint8 retByte;
 211:Generated_Source\PSoC5/EEPROM_1.c ****     uint8 interruptState;
 212:Generated_Source\PSoC5/EEPROM_1.c **** 
 213:Generated_Source\PSoC5/EEPROM_1.c ****     interruptState = CyEnterCriticalSection();
 249              		.loc 1 213 0
 250 0004 FFF7FEFF 		bl	CyEnterCriticalSection
 251              	.LVL23:
 252 0008 0546     		mov	r5, r0
 253              	.LVL24:
 214:Generated_Source\PSoC5/EEPROM_1.c **** 
 215:Generated_Source\PSoC5/EEPROM_1.c ****     /* Request access to EEPROM for reading.
 216:Generated_Source\PSoC5/EEPROM_1.c ****     This is needed to reserve PHUB for read operation from EEPROM */
 217:Generated_Source\PSoC5/EEPROM_1.c ****     CyEEPROM_ReadReserve();
 254              		.loc 1 217 0
 255 000a FFF7FEFF 		bl	CyEEPROM_ReadReserve
 256              	.LVL25:
 218:Generated_Source\PSoC5/EEPROM_1.c ****     
 219:Generated_Source\PSoC5/EEPROM_1.c ****     retByte = *((reg8 *) (CYDEV_EE_BASE + address));
 257              		.loc 1 219 0
 258 000e 04F18043 		add	r3, r4, #1073741824
 259 0012 03F50043 		add	r3, r3, #32768
 260 0016 1C78     		ldrb	r4, [r3]	@ zero_extendqisi2
 220:Generated_Source\PSoC5/EEPROM_1.c **** 
 221:Generated_Source\PSoC5/EEPROM_1.c ****     /* Release EEPROM array */
 222:Generated_Source\PSoC5/EEPROM_1.c ****     CyEEPROM_ReadRelease();
 261              		.loc 1 222 0
 262 0018 FFF7FEFF 		bl	CyEEPROM_ReadRelease
 263              	.LVL26:
 219:Generated_Source\PSoC5/EEPROM_1.c **** 
 264              		.loc 1 219 0
 265 001c E4B2     		uxtb	r4, r4
 266              	.LVL27:
 223:Generated_Source\PSoC5/EEPROM_1.c ****     
 224:Generated_Source\PSoC5/EEPROM_1.c ****     CyExitCriticalSection(interruptState);
 267              		.loc 1 224 0
 268 001e 2846     		mov	r0, r5
 269 0020 FFF7FEFF 		bl	CyExitCriticalSection
 270              	.LVL28:
 225:Generated_Source\PSoC5/EEPROM_1.c **** 
 226:Generated_Source\PSoC5/EEPROM_1.c ****     return (retByte);
 227:Generated_Source\PSoC5/EEPROM_1.c **** }
 271              		.loc 1 227 0
 272 0024 2046     		mov	r0, r4
 273 0026 38BD     		pop	{r3, r4, r5, pc}
 274              		.cfi_endproc
 275              	.LFE4:
ARM GAS  C:\Users\Luggi\AppData\Local\Temp\ccahf4jt.s 			page 10


 276              		.size	EEPROM_1_ReadByte, .-EEPROM_1_ReadByte
 277              		.section	.text.EEPROM_1_UpdateTemperature,"ax",%progbits
 278              		.align	1
 279              		.global	EEPROM_1_UpdateTemperature
 280              		.thumb
 281              		.thumb_func
 282              		.type	EEPROM_1_UpdateTemperature, %function
 283              	EEPROM_1_UpdateTemperature:
 284              	.LFB5:
 228:Generated_Source\PSoC5/EEPROM_1.c **** 
 229:Generated_Source\PSoC5/EEPROM_1.c **** 
 230:Generated_Source\PSoC5/EEPROM_1.c **** /*******************************************************************************
 231:Generated_Source\PSoC5/EEPROM_1.c **** * Function Name: EEPROM_1_UpdateTemperature
 232:Generated_Source\PSoC5/EEPROM_1.c **** ********************************************************************************
 233:Generated_Source\PSoC5/EEPROM_1.c **** *
 234:Generated_Source\PSoC5/EEPROM_1.c **** * Summary:
 235:Generated_Source\PSoC5/EEPROM_1.c **** *  Updates and stores the temperature value. This function should be called
 236:Generated_Source\PSoC5/EEPROM_1.c **** *  before EEPROM writes if the temperature may have been changed by more than
 237:Generated_Source\PSoC5/EEPROM_1.c **** *  10 degrees Celsius.
 238:Generated_Source\PSoC5/EEPROM_1.c **** *
 239:Generated_Source\PSoC5/EEPROM_1.c **** * Parameters:
 240:Generated_Source\PSoC5/EEPROM_1.c **** *  None
 241:Generated_Source\PSoC5/EEPROM_1.c **** *
 242:Generated_Source\PSoC5/EEPROM_1.c **** * Return:
 243:Generated_Source\PSoC5/EEPROM_1.c **** *  Status of operation, 0 if operation complete, non-zero value if error
 244:Generated_Source\PSoC5/EEPROM_1.c **** *  was detected.
 245:Generated_Source\PSoC5/EEPROM_1.c **** *
 246:Generated_Source\PSoC5/EEPROM_1.c **** *******************************************************************************/
 247:Generated_Source\PSoC5/EEPROM_1.c **** uint8 EEPROM_1_UpdateTemperature(void) 
 248:Generated_Source\PSoC5/EEPROM_1.c **** {
 285              		.loc 1 248 0
 286              		.cfi_startproc
 287              		@ args = 0, pretend = 0, frame = 0
 288              		@ frame_needed = 0, uses_anonymous_args = 0
 289 0000 08B5     		push	{r3, lr}
 290              		.cfi_def_cfa_offset 8
 291              		.cfi_offset 3, -8
 292              		.cfi_offset 14, -4
 249:Generated_Source\PSoC5/EEPROM_1.c ****     return ((uint8)CySetTemp());
 293              		.loc 1 249 0
 294 0002 FFF7FEFF 		bl	CySetTemp
 295              	.LVL29:
 250:Generated_Source\PSoC5/EEPROM_1.c **** }
 296              		.loc 1 250 0
 297 0006 C0B2     		uxtb	r0, r0
 298 0008 08BD     		pop	{r3, pc}
 299              		.cfi_endproc
 300              	.LFE5:
 301              		.size	EEPROM_1_UpdateTemperature, .-EEPROM_1_UpdateTemperature
 302              		.section	.text.EEPROM_1_EraseSector,"ax",%progbits
 303              		.align	1
 304              		.global	EEPROM_1_EraseSector
 305              		.thumb
 306              		.thumb_func
 307              		.type	EEPROM_1_EraseSector, %function
 308              	EEPROM_1_EraseSector:
 309              	.LFB6:
ARM GAS  C:\Users\Luggi\AppData\Local\Temp\ccahf4jt.s 			page 11


 251:Generated_Source\PSoC5/EEPROM_1.c **** 
 252:Generated_Source\PSoC5/EEPROM_1.c **** 
 253:Generated_Source\PSoC5/EEPROM_1.c **** /*******************************************************************************
 254:Generated_Source\PSoC5/EEPROM_1.c **** * Function Name: EEPROM_1_EraseSector
 255:Generated_Source\PSoC5/EEPROM_1.c **** ********************************************************************************
 256:Generated_Source\PSoC5/EEPROM_1.c **** *
 257:Generated_Source\PSoC5/EEPROM_1.c **** * Summary:
 258:Generated_Source\PSoC5/EEPROM_1.c **** *  Erase an EEPROM sector (64 rows). This function blocks until the erase
 259:Generated_Source\PSoC5/EEPROM_1.c **** *  operation is complete. Using this API helps to erase the EEPROM sector at
 260:Generated_Source\PSoC5/EEPROM_1.c **** *  a time. This is faster than using individual writes but affects a cycle
 261:Generated_Source\PSoC5/EEPROM_1.c **** *  recourse of the whole EEPROM row.
 262:Generated_Source\PSoC5/EEPROM_1.c **** *
 263:Generated_Source\PSoC5/EEPROM_1.c **** * Parameters:
 264:Generated_Source\PSoC5/EEPROM_1.c **** *  sectorNumber:  The sector number to erase.
 265:Generated_Source\PSoC5/EEPROM_1.c **** *
 266:Generated_Source\PSoC5/EEPROM_1.c **** * Return:
 267:Generated_Source\PSoC5/EEPROM_1.c **** *  CYRET_SUCCESS, if the operation was successful.
 268:Generated_Source\PSoC5/EEPROM_1.c **** *  CYRET_BAD_PARAM, if the parameter sectorNumber is out of range.
 269:Generated_Source\PSoC5/EEPROM_1.c **** *  CYRET_LOCKED, if the SPC is being used.
 270:Generated_Source\PSoC5/EEPROM_1.c **** *  CYRET_UNKNOWN, if there was an SPC error.
 271:Generated_Source\PSoC5/EEPROM_1.c **** *
 272:Generated_Source\PSoC5/EEPROM_1.c **** *******************************************************************************/
 273:Generated_Source\PSoC5/EEPROM_1.c **** cystatus EEPROM_1_EraseSector(uint8 sectorNumber) 
 274:Generated_Source\PSoC5/EEPROM_1.c **** {
 310              		.loc 1 274 0
 311              		.cfi_startproc
 312              		@ args = 0, pretend = 0, frame = 0
 313              		@ frame_needed = 0, uses_anonymous_args = 0
 314              	.LVL30:
 315 0000 10B5     		push	{r4, lr}
 316              		.cfi_def_cfa_offset 8
 317              		.cfi_offset 4, -8
 318              		.cfi_offset 14, -4
 319              		.loc 1 274 0
 320 0002 0446     		mov	r4, r0
 275:Generated_Source\PSoC5/EEPROM_1.c ****     cystatus status;
 276:Generated_Source\PSoC5/EEPROM_1.c ****     
 277:Generated_Source\PSoC5/EEPROM_1.c ****     CySpcStart();
 321              		.loc 1 277 0
 322 0004 FFF7FEFF 		bl	CySpcStart
 323              	.LVL31:
 278:Generated_Source\PSoC5/EEPROM_1.c **** 
 279:Generated_Source\PSoC5/EEPROM_1.c ****     if(sectorNumber < (uint8) EEPROM_1_SECTORS_NUMBER)
 324              		.loc 1 279 0
 325 0008 012C     		cmp	r4, #1
 326 000a 1BD8     		bhi	.L34
 280:Generated_Source\PSoC5/EEPROM_1.c ****     {
 281:Generated_Source\PSoC5/EEPROM_1.c ****         /* See if we can get SPC. */
 282:Generated_Source\PSoC5/EEPROM_1.c ****         if(CySpcLock() == CYRET_SUCCESS)
 327              		.loc 1 282 0
 328 000c FFF7FEFF 		bl	CySpcLock
 329              	.LVL32:
 330 0010 D0B9     		cbnz	r0, .L35
 283:Generated_Source\PSoC5/EEPROM_1.c ****         {
 284:Generated_Source\PSoC5/EEPROM_1.c ****             if(CySpcEraseSector(CY_SPC_FIRST_EE_ARRAYID, sectorNumber) == CYRET_STARTED)
 331              		.loc 1 284 0
 332 0012 4020     		movs	r0, #64
ARM GAS  C:\Users\Luggi\AppData\Local\Temp\ccahf4jt.s 			page 12


 333 0014 2146     		mov	r1, r4
 334 0016 FFF7FEFF 		bl	CySpcEraseSector
 335              	.LVL33:
 336 001a 0728     		cmp	r0, #7
 337 001c 0DD1     		bne	.L37
 338              	.L33:
 285:Generated_Source\PSoC5/EEPROM_1.c ****             {
 286:Generated_Source\PSoC5/EEPROM_1.c ****                 /* Plan for failure */
 287:Generated_Source\PSoC5/EEPROM_1.c ****                 status = CYRET_UNKNOWN;
 288:Generated_Source\PSoC5/EEPROM_1.c **** 
 289:Generated_Source\PSoC5/EEPROM_1.c ****                 while(CY_SPC_BUSY)
 339              		.loc 1 289 0 discriminator 1
 340 001e 0C4B     		ldr	r3, .L40
 341 0020 1A78     		ldrb	r2, [r3]	@ zero_extendqisi2
 342 0022 9107     		lsls	r1, r2, #30
 343 0024 FBD5     		bpl	.L33
 290:Generated_Source\PSoC5/EEPROM_1.c ****                 {
 291:Generated_Source\PSoC5/EEPROM_1.c ****                     /* Wait until SPC becomes idle */
 292:Generated_Source\PSoC5/EEPROM_1.c ****                 }
 293:Generated_Source\PSoC5/EEPROM_1.c **** 
 294:Generated_Source\PSoC5/EEPROM_1.c ****                 /* SPC is idle now */
 295:Generated_Source\PSoC5/EEPROM_1.c ****                 if(CY_SPC_STATUS_SUCCESS == CY_SPC_READ_STATUS)
 344              		.loc 1 295 0
 345 0026 1A78     		ldrb	r2, [r3]	@ zero_extendqisi2
 346 0028 9207     		lsls	r2, r2, #30
 347 002a 06D5     		bpl	.L37
 348              		.loc 1 295 0 is_stmt 0 discriminator 1
 349 002c 1B78     		ldrb	r3, [r3]	@ zero_extendqisi2
 350 002e 9B08     		lsrs	r3, r3, #2
 351 0030 14BF     		ite	ne
 352 0032 4FF0FF34 		movne	r4, #-1
 353 0036 0024     		moveq	r4, #0
 354 0038 01E0     		b	.L32
 355              	.L37:
 296:Generated_Source\PSoC5/EEPROM_1.c ****                 {
 297:Generated_Source\PSoC5/EEPROM_1.c ****                     status = CYRET_SUCCESS;
 298:Generated_Source\PSoC5/EEPROM_1.c ****                 }
 299:Generated_Source\PSoC5/EEPROM_1.c ****             }
 300:Generated_Source\PSoC5/EEPROM_1.c ****             else
 301:Generated_Source\PSoC5/EEPROM_1.c ****             {
 302:Generated_Source\PSoC5/EEPROM_1.c ****                 status = CYRET_UNKNOWN;
 356              		.loc 1 302 0 is_stmt 1
 357 003a 4FF0FF34 		mov	r4, #-1
 358              	.L32:
 359              	.LVL34:
 303:Generated_Source\PSoC5/EEPROM_1.c ****             }
 304:Generated_Source\PSoC5/EEPROM_1.c **** 
 305:Generated_Source\PSoC5/EEPROM_1.c ****             /* Unlock SPC so that someone else can use it. */
 306:Generated_Source\PSoC5/EEPROM_1.c ****             CySpcUnlock();
 360              		.loc 1 306 0
 361 003e FFF7FEFF 		bl	CySpcUnlock
 362              	.LVL35:
 363 0042 02E0     		b	.L31
 364              	.LVL36:
 365              	.L34:
 307:Generated_Source\PSoC5/EEPROM_1.c ****         }
 308:Generated_Source\PSoC5/EEPROM_1.c ****         else
ARM GAS  C:\Users\Luggi\AppData\Local\Temp\ccahf4jt.s 			page 13


 309:Generated_Source\PSoC5/EEPROM_1.c ****         {
 310:Generated_Source\PSoC5/EEPROM_1.c ****             status = CYRET_LOCKED;
 311:Generated_Source\PSoC5/EEPROM_1.c ****         }
 312:Generated_Source\PSoC5/EEPROM_1.c ****     }
 313:Generated_Source\PSoC5/EEPROM_1.c ****     else
 314:Generated_Source\PSoC5/EEPROM_1.c ****     {
 315:Generated_Source\PSoC5/EEPROM_1.c ****         status = CYRET_BAD_PARAM;
 366              		.loc 1 315 0
 367 0044 0124     		movs	r4, #1
 368 0046 00E0     		b	.L31
 369              	.L35:
 310:Generated_Source\PSoC5/EEPROM_1.c ****         }
 370              		.loc 1 310 0
 371 0048 0424     		movs	r4, #4
 372              	.L31:
 373              	.LVL37:
 316:Generated_Source\PSoC5/EEPROM_1.c ****     }
 317:Generated_Source\PSoC5/EEPROM_1.c **** 
 318:Generated_Source\PSoC5/EEPROM_1.c ****     return(status);
 319:Generated_Source\PSoC5/EEPROM_1.c **** }
 374              		.loc 1 319 0
 375 004a 2046     		mov	r0, r4
 376 004c 10BD     		pop	{r4, pc}
 377              	.LVL38:
 378              	.L41:
 379 004e 00BF     		.align	2
 380              	.L40:
 381 0050 22470040 		.word	1073760034
 382              		.cfi_endproc
 383              	.LFE6:
 384              		.size	EEPROM_1_EraseSector, .-EEPROM_1_EraseSector
 385              		.section	.text.EEPROM_1_Write,"ax",%progbits
 386              		.align	1
 387              		.global	EEPROM_1_Write
 388              		.thumb
 389              		.thumb_func
 390              		.type	EEPROM_1_Write, %function
 391              	EEPROM_1_Write:
 392              	.LFB7:
 320:Generated_Source\PSoC5/EEPROM_1.c **** 
 321:Generated_Source\PSoC5/EEPROM_1.c **** 
 322:Generated_Source\PSoC5/EEPROM_1.c **** /*******************************************************************************
 323:Generated_Source\PSoC5/EEPROM_1.c **** * Function Name: EEPROM_1_Write
 324:Generated_Source\PSoC5/EEPROM_1.c **** ********************************************************************************
 325:Generated_Source\PSoC5/EEPROM_1.c **** *
 326:Generated_Source\PSoC5/EEPROM_1.c **** * Summary:
 327:Generated_Source\PSoC5/EEPROM_1.c **** *  Writes a row (16 bytes) of data to the EEPROM. This function blocks until
 328:Generated_Source\PSoC5/EEPROM_1.c **** *  the write operation is complete. Compared to functions that write one byte,
 329:Generated_Source\PSoC5/EEPROM_1.c **** *  this function allows writing a whole row (16 bytes) at a time. For
 330:Generated_Source\PSoC5/EEPROM_1.c **** *  a reliable write procedure to occur you should call the
 331:Generated_Source\PSoC5/EEPROM_1.c **** *  EEPROM_1_UpdateTemperature() function if the temperature of the
 332:Generated_Source\PSoC5/EEPROM_1.c **** *  silicon has changed for more than 10C since component was started.
 333:Generated_Source\PSoC5/EEPROM_1.c **** *
 334:Generated_Source\PSoC5/EEPROM_1.c **** * Parameters:
 335:Generated_Source\PSoC5/EEPROM_1.c **** *  rowData:    The address of the data to write to the EEPROM.
 336:Generated_Source\PSoC5/EEPROM_1.c **** *  rowNumber:  The row number to write.
 337:Generated_Source\PSoC5/EEPROM_1.c **** *
ARM GAS  C:\Users\Luggi\AppData\Local\Temp\ccahf4jt.s 			page 14


 338:Generated_Source\PSoC5/EEPROM_1.c **** * Return:
 339:Generated_Source\PSoC5/EEPROM_1.c **** *  CYRET_SUCCESS, if the operation was successful.
 340:Generated_Source\PSoC5/EEPROM_1.c **** *  CYRET_BAD_PARAM, if the parameter rowNumber is out of range.
 341:Generated_Source\PSoC5/EEPROM_1.c **** *  CYRET_LOCKED, if the SPC is being used.
 342:Generated_Source\PSoC5/EEPROM_1.c **** *  CYRET_UNKNOWN, if there was an SPC error.
 343:Generated_Source\PSoC5/EEPROM_1.c **** *
 344:Generated_Source\PSoC5/EEPROM_1.c **** *******************************************************************************/
 345:Generated_Source\PSoC5/EEPROM_1.c **** cystatus EEPROM_1_Write(const uint8 * rowData, uint8 rowNumber) 
 346:Generated_Source\PSoC5/EEPROM_1.c **** {
 393              		.loc 1 346 0
 394              		.cfi_startproc
 395              		@ args = 0, pretend = 0, frame = 0
 396              		@ frame_needed = 0, uses_anonymous_args = 0
 397              	.LVL39:
 398 0000 38B5     		push	{r3, r4, r5, lr}
 399              		.cfi_def_cfa_offset 16
 400              		.cfi_offset 3, -16
 401              		.cfi_offset 4, -12
 402              		.cfi_offset 5, -8
 403              		.cfi_offset 14, -4
 404              		.loc 1 346 0
 405 0002 0D46     		mov	r5, r1
 406 0004 0446     		mov	r4, r0
 347:Generated_Source\PSoC5/EEPROM_1.c ****     cystatus status;
 348:Generated_Source\PSoC5/EEPROM_1.c ****     
 349:Generated_Source\PSoC5/EEPROM_1.c ****     CySpcStart();
 407              		.loc 1 349 0
 408 0006 FFF7FEFF 		bl	CySpcStart
 409              	.LVL40:
 350:Generated_Source\PSoC5/EEPROM_1.c **** 
 351:Generated_Source\PSoC5/EEPROM_1.c ****     if(rowNumber < (uint8) CY_EEPROM_NUMBER_ROWS)
 410              		.loc 1 351 0
 411 000a 2A06     		lsls	r2, r5, #24
 412 000c 30D4     		bmi	.L49
 352:Generated_Source\PSoC5/EEPROM_1.c ****     {
 353:Generated_Source\PSoC5/EEPROM_1.c ****         /* See if we can get SPC. */
 354:Generated_Source\PSoC5/EEPROM_1.c ****         if(CySpcLock() == CYRET_SUCCESS)
 413              		.loc 1 354 0
 414 000e FFF7FEFF 		bl	CySpcLock
 415              	.LVL41:
 416 0012 0028     		cmp	r0, #0
 417 0014 2ED1     		bne	.L50
 418              	.LVL42:
 355:Generated_Source\PSoC5/EEPROM_1.c ****         {
 356:Generated_Source\PSoC5/EEPROM_1.c ****             /* Plan for failure */
 357:Generated_Source\PSoC5/EEPROM_1.c ****             status = CYRET_UNKNOWN;
 358:Generated_Source\PSoC5/EEPROM_1.c **** 
 359:Generated_Source\PSoC5/EEPROM_1.c ****             /* Command to load a row of data */
 360:Generated_Source\PSoC5/EEPROM_1.c ****             if(CySpcLoadRow(CY_SPC_FIRST_EE_ARRAYID, rowData, CYDEV_EEPROM_ROW_SIZE) == CYRET_START
 419              		.loc 1 360 0
 420 0016 4020     		movs	r0, #64
 421 0018 2146     		mov	r1, r4
 422 001a 1022     		movs	r2, #16
 423 001c FFF7FEFF 		bl	CySpcLoadRow
 424              	.LVL43:
 425 0020 0728     		cmp	r0, #7
 426 0022 02D0     		beq	.L44
ARM GAS  C:\Users\Luggi\AppData\Local\Temp\ccahf4jt.s 			page 15


 427              	.LVL44:
 428              	.L46:
 357:Generated_Source\PSoC5/EEPROM_1.c **** 
 429              		.loc 1 357 0
 430 0024 4FF0FF34 		mov	r4, #-1
 431 0028 1FE0     		b	.L45
 432              	.LVL45:
 433              	.L44:
 361:Generated_Source\PSoC5/EEPROM_1.c ****             {
 362:Generated_Source\PSoC5/EEPROM_1.c ****                 while(CY_SPC_BUSY)
 434              		.loc 1 362 0 discriminator 1
 435 002a 144C     		ldr	r4, .L66
 436 002c 2378     		ldrb	r3, [r4]	@ zero_extendqisi2
 437 002e 9B07     		lsls	r3, r3, #30
 438 0030 FBD5     		bpl	.L44
 363:Generated_Source\PSoC5/EEPROM_1.c ****                 {
 364:Generated_Source\PSoC5/EEPROM_1.c ****                     /* Wait until SPC becomes idle */
 365:Generated_Source\PSoC5/EEPROM_1.c ****                 }
 366:Generated_Source\PSoC5/EEPROM_1.c **** 
 367:Generated_Source\PSoC5/EEPROM_1.c ****                 /* SPC is idle now */
 368:Generated_Source\PSoC5/EEPROM_1.c ****                 if(CY_SPC_STATUS_SUCCESS == CY_SPC_READ_STATUS)
 439              		.loc 1 368 0
 440 0032 2378     		ldrb	r3, [r4]	@ zero_extendqisi2
 441 0034 9807     		lsls	r0, r3, #30
 442 0036 F5D5     		bpl	.L46
 443              		.loc 1 368 0 is_stmt 0 discriminator 1
 444 0038 2378     		ldrb	r3, [r4]	@ zero_extendqisi2
 445 003a 9B08     		lsrs	r3, r3, #2
 446 003c F2D1     		bne	.L46
 447              	.LVL46:
 369:Generated_Source\PSoC5/EEPROM_1.c ****                 {
 370:Generated_Source\PSoC5/EEPROM_1.c ****                     status = CYRET_SUCCESS;
 371:Generated_Source\PSoC5/EEPROM_1.c ****                 }
 372:Generated_Source\PSoC5/EEPROM_1.c **** 
 373:Generated_Source\PSoC5/EEPROM_1.c ****                 /* Command to erase and program the row. */
 374:Generated_Source\PSoC5/EEPROM_1.c ****                 if(status == CYRET_SUCCESS)
 375:Generated_Source\PSoC5/EEPROM_1.c ****                 {
 376:Generated_Source\PSoC5/EEPROM_1.c ****                     if(CySpcWriteRow(CY_SPC_FIRST_EE_ARRAYID, (uint16)rowNumber, dieTemperature[0u]
 448              		.loc 1 376 0 is_stmt 1
 449 003e 104B     		ldr	r3, .L66+4
 450 0040 4020     		movs	r0, #64
 451 0042 1A78     		ldrb	r2, [r3]	@ zero_extendqisi2
 452 0044 2946     		mov	r1, r5
 453 0046 5B78     		ldrb	r3, [r3, #1]	@ zero_extendqisi2
 454 0048 FFF7FEFF 		bl	CySpcWriteRow
 455              	.LVL47:
 456 004c 0728     		cmp	r0, #7
 457 004e E9D1     		bne	.L46
 458              	.L48:
 377:Generated_Source\PSoC5/EEPROM_1.c ****                     dieTemperature[1u]) == CYRET_STARTED)
 378:Generated_Source\PSoC5/EEPROM_1.c ****                     {
 379:Generated_Source\PSoC5/EEPROM_1.c ****                         /* Plan for failure */
 380:Generated_Source\PSoC5/EEPROM_1.c ****                         status = CYRET_UNKNOWN;
 381:Generated_Source\PSoC5/EEPROM_1.c **** 
 382:Generated_Source\PSoC5/EEPROM_1.c ****                         while(CY_SPC_BUSY)
 459              		.loc 1 382 0 discriminator 1
 460 0050 2278     		ldrb	r2, [r4]	@ zero_extendqisi2
ARM GAS  C:\Users\Luggi\AppData\Local\Temp\ccahf4jt.s 			page 16


 461 0052 0A4B     		ldr	r3, .L66
 462 0054 9107     		lsls	r1, r2, #30
 463 0056 FBD5     		bpl	.L48
 383:Generated_Source\PSoC5/EEPROM_1.c ****                         {
 384:Generated_Source\PSoC5/EEPROM_1.c ****                             /* Wait until SPC becomes idle */
 385:Generated_Source\PSoC5/EEPROM_1.c ****                         }
 386:Generated_Source\PSoC5/EEPROM_1.c **** 
 387:Generated_Source\PSoC5/EEPROM_1.c ****                         /* SPC is idle now */
 388:Generated_Source\PSoC5/EEPROM_1.c ****                         if(CY_SPC_STATUS_SUCCESS == CY_SPC_READ_STATUS)
 464              		.loc 1 388 0
 465 0058 1A78     		ldrb	r2, [r3]	@ zero_extendqisi2
 466 005a 9207     		lsls	r2, r2, #30
 467 005c E2D5     		bpl	.L46
 468              		.loc 1 388 0 is_stmt 0 discriminator 1
 469 005e 1B78     		ldrb	r3, [r3]	@ zero_extendqisi2
 470 0060 9B08     		lsrs	r3, r3, #2
 471 0062 14BF     		ite	ne
 472 0064 4FF0FF34 		movne	r4, #-1
 473 0068 0024     		moveq	r4, #0
 474              	.LVL48:
 475              	.L45:
 389:Generated_Source\PSoC5/EEPROM_1.c ****                         {
 390:Generated_Source\PSoC5/EEPROM_1.c ****                             status = CYRET_SUCCESS;
 391:Generated_Source\PSoC5/EEPROM_1.c ****                         }
 392:Generated_Source\PSoC5/EEPROM_1.c ****                     }
 393:Generated_Source\PSoC5/EEPROM_1.c ****                     else
 394:Generated_Source\PSoC5/EEPROM_1.c ****                     {
 395:Generated_Source\PSoC5/EEPROM_1.c ****                         status = CYRET_UNKNOWN;
 396:Generated_Source\PSoC5/EEPROM_1.c ****                     }
 397:Generated_Source\PSoC5/EEPROM_1.c ****                 }
 398:Generated_Source\PSoC5/EEPROM_1.c ****                 else
 399:Generated_Source\PSoC5/EEPROM_1.c ****                 {
 400:Generated_Source\PSoC5/EEPROM_1.c ****                     status = CYRET_UNKNOWN;
 401:Generated_Source\PSoC5/EEPROM_1.c ****                 }
 402:Generated_Source\PSoC5/EEPROM_1.c ****             }
 403:Generated_Source\PSoC5/EEPROM_1.c **** 
 404:Generated_Source\PSoC5/EEPROM_1.c ****             /* Unlock SPC so that someone else can use it. */
 405:Generated_Source\PSoC5/EEPROM_1.c ****             CySpcUnlock();
 476              		.loc 1 405 0 is_stmt 1
 477 006a FFF7FEFF 		bl	CySpcUnlock
 478              	.LVL49:
 479 006e 02E0     		b	.L65
 480              	.LVL50:
 481              	.L49:
 406:Generated_Source\PSoC5/EEPROM_1.c ****         }
 407:Generated_Source\PSoC5/EEPROM_1.c ****         else
 408:Generated_Source\PSoC5/EEPROM_1.c ****         {
 409:Generated_Source\PSoC5/EEPROM_1.c ****             status = CYRET_LOCKED;
 410:Generated_Source\PSoC5/EEPROM_1.c ****         }
 411:Generated_Source\PSoC5/EEPROM_1.c ****     }
 412:Generated_Source\PSoC5/EEPROM_1.c ****     else
 413:Generated_Source\PSoC5/EEPROM_1.c ****     {
 414:Generated_Source\PSoC5/EEPROM_1.c ****         status = CYRET_BAD_PARAM;
 482              		.loc 1 414 0
 483 0070 0124     		movs	r4, #1
 484              	.LVL51:
 485 0072 00E0     		b	.L65
ARM GAS  C:\Users\Luggi\AppData\Local\Temp\ccahf4jt.s 			page 17


 486              	.LVL52:
 487              	.L50:
 409:Generated_Source\PSoC5/EEPROM_1.c ****         }
 488              		.loc 1 409 0
 489 0074 0424     		movs	r4, #4
 490              	.LVL53:
 491              	.L65:
 415:Generated_Source\PSoC5/EEPROM_1.c ****     }
 416:Generated_Source\PSoC5/EEPROM_1.c **** 
 417:Generated_Source\PSoC5/EEPROM_1.c ****     return(status);
 418:Generated_Source\PSoC5/EEPROM_1.c **** }
 492              		.loc 1 418 0
 493 0076 2046     		mov	r0, r4
 494 0078 38BD     		pop	{r3, r4, r5, pc}
 495              	.L67:
 496 007a 00BF     		.align	2
 497              	.L66:
 498 007c 22470040 		.word	1073760034
 499 0080 00000000 		.word	dieTemperature
 500              		.cfi_endproc
 501              	.LFE7:
 502              		.size	EEPROM_1_Write, .-EEPROM_1_Write
 503              		.section	.text.EEPROM_1_StartWrite,"ax",%progbits
 504              		.align	1
 505              		.global	EEPROM_1_StartWrite
 506              		.thumb
 507              		.thumb_func
 508              		.type	EEPROM_1_StartWrite, %function
 509              	EEPROM_1_StartWrite:
 510              	.LFB8:
 419:Generated_Source\PSoC5/EEPROM_1.c **** 
 420:Generated_Source\PSoC5/EEPROM_1.c **** 
 421:Generated_Source\PSoC5/EEPROM_1.c **** /*******************************************************************************
 422:Generated_Source\PSoC5/EEPROM_1.c **** * Function Name: EEPROM_1_StartWrite
 423:Generated_Source\PSoC5/EEPROM_1.c **** ********************************************************************************
 424:Generated_Source\PSoC5/EEPROM_1.c **** *
 425:Generated_Source\PSoC5/EEPROM_1.c **** * Summary:
 426:Generated_Source\PSoC5/EEPROM_1.c **** *  Starts a write of a row (16 bytes) of data to the EEPROM.
 427:Generated_Source\PSoC5/EEPROM_1.c **** *  This function does not block. The function returns once the SPC has begun
 428:Generated_Source\PSoC5/EEPROM_1.c **** *  writing the data. This function must be used in combination with
 429:Generated_Source\PSoC5/EEPROM_1.c **** *  EEPROM_1_Query(). EEPROM_1_Query() must be called
 430:Generated_Source\PSoC5/EEPROM_1.c **** *  until it returns a status other than CYRET_STARTED. That indicates that the
 431:Generated_Source\PSoC5/EEPROM_1.c **** *  write has completed. Until EEPROM_1_Query() detects that
 432:Generated_Source\PSoC5/EEPROM_1.c **** *  the write is complete, the SPC is marked as locked to prevent another
 433:Generated_Source\PSoC5/EEPROM_1.c **** *  SPC operation from being performed. For a reliable write procedure to occur
 434:Generated_Source\PSoC5/EEPROM_1.c **** *  you should call EEPROM_1_UpdateTemperature() API if the temperature
 435:Generated_Source\PSoC5/EEPROM_1.c **** *  of the silicon has changed for more than 10C since component was started.
 436:Generated_Source\PSoC5/EEPROM_1.c **** *
 437:Generated_Source\PSoC5/EEPROM_1.c **** * Parameters:
 438:Generated_Source\PSoC5/EEPROM_1.c **** *  rowData:    The address of the data to write to the EEPROM.
 439:Generated_Source\PSoC5/EEPROM_1.c **** *  rowNumber:  The row number to write.
 440:Generated_Source\PSoC5/EEPROM_1.c **** *
 441:Generated_Source\PSoC5/EEPROM_1.c **** * Return:
 442:Generated_Source\PSoC5/EEPROM_1.c **** *  CYRET_STARTED, if the SPC command to write was successfully started.
 443:Generated_Source\PSoC5/EEPROM_1.c **** *  CYRET_BAD_PARAM, if the parameter rowNumber is out of range.
 444:Generated_Source\PSoC5/EEPROM_1.c **** *  CYRET_LOCKED, if the SPC is being used.
 445:Generated_Source\PSoC5/EEPROM_1.c **** *  CYRET_UNKNOWN, if there was an SPC error.
ARM GAS  C:\Users\Luggi\AppData\Local\Temp\ccahf4jt.s 			page 18


 446:Generated_Source\PSoC5/EEPROM_1.c **** *
 447:Generated_Source\PSoC5/EEPROM_1.c **** * Side effects:
 448:Generated_Source\PSoC5/EEPROM_1.c **** *  After calling this API, the device should not be powered down, reset or switched
 449:Generated_Source\PSoC5/EEPROM_1.c **** *  to low power modes until EEPROM operation is complete. 
 450:Generated_Source\PSoC5/EEPROM_1.c **** *  Ignoring this recommendation may lead to data corruption or silicon
 451:Generated_Source\PSoC5/EEPROM_1.c **** *  unexpected behavior.
 452:Generated_Source\PSoC5/EEPROM_1.c **** *
 453:Generated_Source\PSoC5/EEPROM_1.c **** *******************************************************************************/
 454:Generated_Source\PSoC5/EEPROM_1.c **** cystatus EEPROM_1_StartWrite(const uint8 * rowData, uint8 rowNumber) \
 455:Generated_Source\PSoC5/EEPROM_1.c **** 
 456:Generated_Source\PSoC5/EEPROM_1.c **** {
 511              		.loc 1 456 0
 512              		.cfi_startproc
 513              		@ args = 0, pretend = 0, frame = 0
 514              		@ frame_needed = 0, uses_anonymous_args = 0
 515              	.LVL54:
 516 0000 38B5     		push	{r3, r4, r5, lr}
 517              		.cfi_def_cfa_offset 16
 518              		.cfi_offset 3, -16
 519              		.cfi_offset 4, -12
 520              		.cfi_offset 5, -8
 521              		.cfi_offset 14, -4
 522              		.loc 1 456 0
 523 0002 0C46     		mov	r4, r1
 524 0004 0546     		mov	r5, r0
 457:Generated_Source\PSoC5/EEPROM_1.c ****     cystatus status;
 458:Generated_Source\PSoC5/EEPROM_1.c ****     
 459:Generated_Source\PSoC5/EEPROM_1.c ****     CySpcStart();
 525              		.loc 1 459 0
 526 0006 FFF7FEFF 		bl	CySpcStart
 527              	.LVL55:
 460:Generated_Source\PSoC5/EEPROM_1.c **** 
 461:Generated_Source\PSoC5/EEPROM_1.c ****     if(rowNumber < (uint8) CY_EEPROM_NUMBER_ROWS)
 528              		.loc 1 461 0
 529 000a 2006     		lsls	r0, r4, #24
 530 000c 14D4     		bmi	.L72
 462:Generated_Source\PSoC5/EEPROM_1.c ****     {
 463:Generated_Source\PSoC5/EEPROM_1.c ****         /* See if we can get SPC. */
 464:Generated_Source\PSoC5/EEPROM_1.c ****         if(CySpcLock() == CYRET_SUCCESS)
 531              		.loc 1 464 0
 532 000e FFF7FEFF 		bl	CySpcLock
 533              	.LVL56:
 534 0012 98B9     		cbnz	r0, .L73
 535              	.LVL57:
 465:Generated_Source\PSoC5/EEPROM_1.c ****         {
 466:Generated_Source\PSoC5/EEPROM_1.c ****             /* Plan for failure */
 467:Generated_Source\PSoC5/EEPROM_1.c ****             status = CYRET_UNKNOWN;
 468:Generated_Source\PSoC5/EEPROM_1.c **** 
 469:Generated_Source\PSoC5/EEPROM_1.c ****             /* Command to load a row of data */
 470:Generated_Source\PSoC5/EEPROM_1.c ****             if(CySpcLoadRow(CY_SPC_FIRST_EE_ARRAYID, rowData, CYDEV_EEPROM_ROW_SIZE) == CYRET_START
 536              		.loc 1 470 0
 537 0014 4020     		movs	r0, #64
 538 0016 2946     		mov	r1, r5
 539 0018 1022     		movs	r2, #16
 540 001a FFF7FEFF 		bl	CySpcLoadRow
 541              	.LVL58:
 542 001e 0728     		cmp	r0, #7
ARM GAS  C:\Users\Luggi\AppData\Local\Temp\ccahf4jt.s 			page 19


 543 0020 0ED1     		bne	.L75
 544              	.L70:
 471:Generated_Source\PSoC5/EEPROM_1.c ****             {
 472:Generated_Source\PSoC5/EEPROM_1.c ****                 while(CY_SPC_BUSY)
 545              		.loc 1 472 0 discriminator 1
 546 0022 0F4B     		ldr	r3, .L80
 547 0024 1A78     		ldrb	r2, [r3]	@ zero_extendqisi2
 548 0026 9107     		lsls	r1, r2, #30
 549 0028 FBD5     		bpl	.L70
 473:Generated_Source\PSoC5/EEPROM_1.c ****                 {
 474:Generated_Source\PSoC5/EEPROM_1.c ****                     /* Wait until SPC becomes idle */
 475:Generated_Source\PSoC5/EEPROM_1.c ****                 }
 476:Generated_Source\PSoC5/EEPROM_1.c **** 
 477:Generated_Source\PSoC5/EEPROM_1.c ****                 /* SPC is idle now */
 478:Generated_Source\PSoC5/EEPROM_1.c ****                 if(CY_SPC_STATUS_SUCCESS == CY_SPC_READ_STATUS)
 550              		.loc 1 478 0
 551 002a 1A78     		ldrb	r2, [r3]	@ zero_extendqisi2
 552 002c 9207     		lsls	r2, r2, #30
 553 002e 07D5     		bpl	.L75
 554              		.loc 1 478 0 is_stmt 0 discriminator 1
 555 0030 1B78     		ldrb	r3, [r3]	@ zero_extendqisi2
 556 0032 9B08     		lsrs	r3, r3, #2
 557 0034 07D0     		beq	.L71
 558 0036 03E0     		b	.L75
 559              	.LVL59:
 560              	.L72:
 479:Generated_Source\PSoC5/EEPROM_1.c ****                 {
 480:Generated_Source\PSoC5/EEPROM_1.c ****                     status = CYRET_SUCCESS;
 481:Generated_Source\PSoC5/EEPROM_1.c ****                 }
 482:Generated_Source\PSoC5/EEPROM_1.c **** 
 483:Generated_Source\PSoC5/EEPROM_1.c ****                 /* Command to erase and program the row. */
 484:Generated_Source\PSoC5/EEPROM_1.c ****                 if(status == CYRET_SUCCESS)
 485:Generated_Source\PSoC5/EEPROM_1.c ****                 {
 486:Generated_Source\PSoC5/EEPROM_1.c ****                     if(CySpcWriteRow(CY_SPC_FIRST_EE_ARRAYID, (uint16)rowNumber, dieTemperature[0u]
 487:Generated_Source\PSoC5/EEPROM_1.c ****                     dieTemperature[1u]) == CYRET_STARTED)
 488:Generated_Source\PSoC5/EEPROM_1.c ****                     {
 489:Generated_Source\PSoC5/EEPROM_1.c ****                         status = CYRET_STARTED;
 490:Generated_Source\PSoC5/EEPROM_1.c ****                     }
 491:Generated_Source\PSoC5/EEPROM_1.c ****                     else
 492:Generated_Source\PSoC5/EEPROM_1.c ****                     {
 493:Generated_Source\PSoC5/EEPROM_1.c ****                         status = CYRET_UNKNOWN;
 494:Generated_Source\PSoC5/EEPROM_1.c ****                     }
 495:Generated_Source\PSoC5/EEPROM_1.c ****                 }
 496:Generated_Source\PSoC5/EEPROM_1.c ****                 else
 497:Generated_Source\PSoC5/EEPROM_1.c ****                 {
 498:Generated_Source\PSoC5/EEPROM_1.c ****                     status = CYRET_UNKNOWN;
 499:Generated_Source\PSoC5/EEPROM_1.c ****                 }
 500:Generated_Source\PSoC5/EEPROM_1.c ****             }
 501:Generated_Source\PSoC5/EEPROM_1.c ****         }
 502:Generated_Source\PSoC5/EEPROM_1.c ****         else
 503:Generated_Source\PSoC5/EEPROM_1.c ****         {
 504:Generated_Source\PSoC5/EEPROM_1.c ****             status = CYRET_LOCKED;
 505:Generated_Source\PSoC5/EEPROM_1.c ****         }
 506:Generated_Source\PSoC5/EEPROM_1.c ****     }
 507:Generated_Source\PSoC5/EEPROM_1.c ****     else
 508:Generated_Source\PSoC5/EEPROM_1.c ****     {
 509:Generated_Source\PSoC5/EEPROM_1.c ****         status = CYRET_BAD_PARAM;
ARM GAS  C:\Users\Luggi\AppData\Local\Temp\ccahf4jt.s 			page 20


 561              		.loc 1 509 0 is_stmt 1
 562 0038 0120     		movs	r0, #1
 563 003a 38BD     		pop	{r3, r4, r5, pc}
 564              	.LVL60:
 565              	.L73:
 504:Generated_Source\PSoC5/EEPROM_1.c ****         }
 566              		.loc 1 504 0
 567 003c 0420     		movs	r0, #4
 568 003e 38BD     		pop	{r3, r4, r5, pc}
 569              	.LVL61:
 570              	.L75:
 467:Generated_Source\PSoC5/EEPROM_1.c **** 
 571              		.loc 1 467 0
 572 0040 4FF0FF30 		mov	r0, #-1
 573 0044 38BD     		pop	{r3, r4, r5, pc}
 574              	.LVL62:
 575              	.L71:
 486:Generated_Source\PSoC5/EEPROM_1.c ****                     dieTemperature[1u]) == CYRET_STARTED)
 576              		.loc 1 486 0
 577 0046 074B     		ldr	r3, .L80+4
 578 0048 2146     		mov	r1, r4
 579 004a 1A78     		ldrb	r2, [r3]	@ zero_extendqisi2
 580 004c 4020     		movs	r0, #64
 581 004e 5B78     		ldrb	r3, [r3, #1]	@ zero_extendqisi2
 582 0050 FFF7FEFF 		bl	CySpcWriteRow
 583              	.LVL63:
 493:Generated_Source\PSoC5/EEPROM_1.c ****                     }
 584              		.loc 1 493 0
 585 0054 0728     		cmp	r0, #7
 586 0056 0CBF     		ite	eq
 587 0058 0720     		moveq	r0, #7
 588 005a 4FF0FF30 		movne	r0, #-1
 510:Generated_Source\PSoC5/EEPROM_1.c ****     }
 511:Generated_Source\PSoC5/EEPROM_1.c **** 
 512:Generated_Source\PSoC5/EEPROM_1.c ****     return(status);
 513:Generated_Source\PSoC5/EEPROM_1.c **** }
 589              		.loc 1 513 0
 590 005e 38BD     		pop	{r3, r4, r5, pc}
 591              	.LVL64:
 592              	.L81:
 593              		.align	2
 594              	.L80:
 595 0060 22470040 		.word	1073760034
 596 0064 00000000 		.word	dieTemperature
 597              		.cfi_endproc
 598              	.LFE8:
 599              		.size	EEPROM_1_StartWrite, .-EEPROM_1_StartWrite
 600              		.section	.text.EEPROM_1_StartErase,"ax",%progbits
 601              		.align	1
 602              		.global	EEPROM_1_StartErase
 603              		.thumb
 604              		.thumb_func
 605              		.type	EEPROM_1_StartErase, %function
 606              	EEPROM_1_StartErase:
 607              	.LFB9:
 514:Generated_Source\PSoC5/EEPROM_1.c **** 
 515:Generated_Source\PSoC5/EEPROM_1.c **** 
ARM GAS  C:\Users\Luggi\AppData\Local\Temp\ccahf4jt.s 			page 21


 516:Generated_Source\PSoC5/EEPROM_1.c **** /*******************************************************************************
 517:Generated_Source\PSoC5/EEPROM_1.c **** * Function Name: EEPROM_1_StartErase
 518:Generated_Source\PSoC5/EEPROM_1.c **** ********************************************************************************
 519:Generated_Source\PSoC5/EEPROM_1.c **** *
 520:Generated_Source\PSoC5/EEPROM_1.c **** * Summary:
 521:Generated_Source\PSoC5/EEPROM_1.c **** *  Starts the EEPROM sector erase. This function does not block.
 522:Generated_Source\PSoC5/EEPROM_1.c **** *  The function returns once the SPC has begun writing the data. This function
 523:Generated_Source\PSoC5/EEPROM_1.c **** *  must be used in combination with EEPROM_1_Query().
 524:Generated_Source\PSoC5/EEPROM_1.c **** *  EEPROM_1_Query() must be called until it returns a status
 525:Generated_Source\PSoC5/EEPROM_1.c **** *  other than CYRET_STARTED. That indicates the erase has been completed.
 526:Generated_Source\PSoC5/EEPROM_1.c **** *  Until EEPROM_1_Query() detects that the erase is
 527:Generated_Source\PSoC5/EEPROM_1.c **** *  complete, the SPC is marked as locked to prevent another SPC operation
 528:Generated_Source\PSoC5/EEPROM_1.c **** *  from being performed.
 529:Generated_Source\PSoC5/EEPROM_1.c **** *
 530:Generated_Source\PSoC5/EEPROM_1.c **** * Parameters:
 531:Generated_Source\PSoC5/EEPROM_1.c **** *  sectorNumber:  The sector number to erase.
 532:Generated_Source\PSoC5/EEPROM_1.c **** *
 533:Generated_Source\PSoC5/EEPROM_1.c **** * Return:
 534:Generated_Source\PSoC5/EEPROM_1.c **** *  CYRET_STARTED, if the SPC command to erase was successfully started.
 535:Generated_Source\PSoC5/EEPROM_1.c **** *  CYRET_BAD_PARAM, if the parameter sectorNumber is out of range.
 536:Generated_Source\PSoC5/EEPROM_1.c **** *  CYRET_LOCKED, if the SPC is being used.
 537:Generated_Source\PSoC5/EEPROM_1.c **** *  CYRET_UNKNOWN, if there was an SPC error.
 538:Generated_Source\PSoC5/EEPROM_1.c **** *
 539:Generated_Source\PSoC5/EEPROM_1.c **** * Side effects:
 540:Generated_Source\PSoC5/EEPROM_1.c **** *  After calling this API, the device should not be powered down, reset or switched
 541:Generated_Source\PSoC5/EEPROM_1.c **** *  to low power modes until EEPROM operation is complete.
 542:Generated_Source\PSoC5/EEPROM_1.c **** *  Ignoring this recommendation may lead to data corruption or silicon
 543:Generated_Source\PSoC5/EEPROM_1.c **** *  unexpected behavior.
 544:Generated_Source\PSoC5/EEPROM_1.c **** *
 545:Generated_Source\PSoC5/EEPROM_1.c **** *******************************************************************************/
 546:Generated_Source\PSoC5/EEPROM_1.c **** cystatus EEPROM_1_StartErase(uint8 sectorNumber) 
 547:Generated_Source\PSoC5/EEPROM_1.c **** {
 608              		.loc 1 547 0
 609              		.cfi_startproc
 610              		@ args = 0, pretend = 0, frame = 0
 611              		@ frame_needed = 0, uses_anonymous_args = 0
 612              	.LVL65:
 613 0000 10B5     		push	{r4, lr}
 614              		.cfi_def_cfa_offset 8
 615              		.cfi_offset 4, -8
 616              		.cfi_offset 14, -4
 617              		.loc 1 547 0
 618 0002 0446     		mov	r4, r0
 548:Generated_Source\PSoC5/EEPROM_1.c ****     cystatus status;
 549:Generated_Source\PSoC5/EEPROM_1.c ****     
 550:Generated_Source\PSoC5/EEPROM_1.c ****     CySpcStart();
 619              		.loc 1 550 0
 620 0004 FFF7FEFF 		bl	CySpcStart
 621              	.LVL66:
 551:Generated_Source\PSoC5/EEPROM_1.c **** 
 552:Generated_Source\PSoC5/EEPROM_1.c ****     if(sectorNumber < (uint8) CY_EEPROM_NUMBER_ARRAYS)
 622              		.loc 1 552 0
 623 0008 5CB9     		cbnz	r4, .L84
 553:Generated_Source\PSoC5/EEPROM_1.c ****     {
 554:Generated_Source\PSoC5/EEPROM_1.c ****         /* See if we can get SPC. */
 555:Generated_Source\PSoC5/EEPROM_1.c ****         if(CySpcLock() == CYRET_SUCCESS)
 624              		.loc 1 555 0
ARM GAS  C:\Users\Luggi\AppData\Local\Temp\ccahf4jt.s 			page 22


 625 000a FFF7FEFF 		bl	CySpcLock
 626              	.LVL67:
 627 000e 0146     		mov	r1, r0
 628 0010 48B9     		cbnz	r0, .L85
 629              	.LVL68:
 556:Generated_Source\PSoC5/EEPROM_1.c ****         {
 557:Generated_Source\PSoC5/EEPROM_1.c ****             /* Plan for failure */
 558:Generated_Source\PSoC5/EEPROM_1.c ****             status = CYRET_UNKNOWN;
 559:Generated_Source\PSoC5/EEPROM_1.c **** 
 560:Generated_Source\PSoC5/EEPROM_1.c ****             /* Command to load a row of data */
 561:Generated_Source\PSoC5/EEPROM_1.c ****             if(CySpcEraseSector(CY_SPC_FIRST_EE_ARRAYID, sectorNumber) == CYRET_STARTED)
 630              		.loc 1 561 0
 631 0012 4020     		movs	r0, #64
 632 0014 FFF7FEFF 		bl	CySpcEraseSector
 633              	.LVL69:
 634 0018 0738     		subs	r0, r0, #7
 635 001a 18BF     		it	ne
 636 001c 4FF0FF30 		movne	r0, #-1
 637 0020 10BD     		pop	{r4, pc}
 638              	.LVL70:
 639              	.L84:
 562:Generated_Source\PSoC5/EEPROM_1.c ****             {
 563:Generated_Source\PSoC5/EEPROM_1.c ****                 status = CYRET_SUCCESS;
 564:Generated_Source\PSoC5/EEPROM_1.c ****             }
 565:Generated_Source\PSoC5/EEPROM_1.c ****         }
 566:Generated_Source\PSoC5/EEPROM_1.c ****         else
 567:Generated_Source\PSoC5/EEPROM_1.c ****         {
 568:Generated_Source\PSoC5/EEPROM_1.c ****             status = CYRET_LOCKED;
 569:Generated_Source\PSoC5/EEPROM_1.c ****         }
 570:Generated_Source\PSoC5/EEPROM_1.c ****     }
 571:Generated_Source\PSoC5/EEPROM_1.c ****     else
 572:Generated_Source\PSoC5/EEPROM_1.c ****     {
 573:Generated_Source\PSoC5/EEPROM_1.c ****         status = CYRET_BAD_PARAM;
 640              		.loc 1 573 0
 641 0022 0120     		movs	r0, #1
 642 0024 10BD     		pop	{r4, pc}
 643              	.L85:
 568:Generated_Source\PSoC5/EEPROM_1.c ****         }
 644              		.loc 1 568 0
 645 0026 0420     		movs	r0, #4
 646              	.LVL71:
 574:Generated_Source\PSoC5/EEPROM_1.c ****     }
 575:Generated_Source\PSoC5/EEPROM_1.c **** 
 576:Generated_Source\PSoC5/EEPROM_1.c ****     return(status);
 577:Generated_Source\PSoC5/EEPROM_1.c **** }
 647              		.loc 1 577 0
 648 0028 10BD     		pop	{r4, pc}
 649              		.cfi_endproc
 650              	.LFE9:
 651              		.size	EEPROM_1_StartErase, .-EEPROM_1_StartErase
 652              		.section	.text.EEPROM_1_Query,"ax",%progbits
 653              		.align	1
 654              		.global	EEPROM_1_Query
 655              		.thumb
 656              		.thumb_func
 657              		.type	EEPROM_1_Query, %function
 658              	EEPROM_1_Query:
ARM GAS  C:\Users\Luggi\AppData\Local\Temp\ccahf4jt.s 			page 23


 659              	.LFB10:
 578:Generated_Source\PSoC5/EEPROM_1.c **** 
 579:Generated_Source\PSoC5/EEPROM_1.c **** 
 580:Generated_Source\PSoC5/EEPROM_1.c **** /*******************************************************************************
 581:Generated_Source\PSoC5/EEPROM_1.c **** * Function Name: EEPROM_1_Query
 582:Generated_Source\PSoC5/EEPROM_1.c **** ********************************************************************************
 583:Generated_Source\PSoC5/EEPROM_1.c **** *
 584:Generated_Source\PSoC5/EEPROM_1.c **** * Summary:
 585:Generated_Source\PSoC5/EEPROM_1.c **** *  Checks the status of an earlier call to EEPROM_1_StartWrite() or
 586:Generated_Source\PSoC5/EEPROM_1.c **** *  EEPROM_1_StartErase().
 587:Generated_Source\PSoC5/EEPROM_1.c **** *  This function must be called until it returns a value other than
 588:Generated_Source\PSoC5/EEPROM_1.c **** *  CYRET_STARTED. Once that occurs, the write or erase has been completed and
 589:Generated_Source\PSoC5/EEPROM_1.c **** *  the SPC is unlocked.
 590:Generated_Source\PSoC5/EEPROM_1.c **** *
 591:Generated_Source\PSoC5/EEPROM_1.c **** * Parameters:
 592:Generated_Source\PSoC5/EEPROM_1.c **** *  None
 593:Generated_Source\PSoC5/EEPROM_1.c **** *
 594:Generated_Source\PSoC5/EEPROM_1.c **** * Return:
 595:Generated_Source\PSoC5/EEPROM_1.c **** *  CYRET_STARTED, if the SPC command is still processing.
 596:Generated_Source\PSoC5/EEPROM_1.c **** *  CYRET_SUCCESS, if the operation was completed successfully.
 597:Generated_Source\PSoC5/EEPROM_1.c **** *  CYRET_UNKNOWN, if there was an SPC error.
 598:Generated_Source\PSoC5/EEPROM_1.c **** *
 599:Generated_Source\PSoC5/EEPROM_1.c **** *******************************************************************************/
 600:Generated_Source\PSoC5/EEPROM_1.c **** cystatus EEPROM_1_Query(void) 
 601:Generated_Source\PSoC5/EEPROM_1.c **** {
 660              		.loc 1 601 0
 661              		.cfi_startproc
 662              		@ args = 0, pretend = 0, frame = 0
 663              		@ frame_needed = 0, uses_anonymous_args = 0
 664 0000 10B5     		push	{r4, lr}
 665              		.cfi_def_cfa_offset 8
 666              		.cfi_offset 4, -8
 667              		.cfi_offset 14, -4
 602:Generated_Source\PSoC5/EEPROM_1.c ****     cystatus status;
 603:Generated_Source\PSoC5/EEPROM_1.c ****     
 604:Generated_Source\PSoC5/EEPROM_1.c ****     CySpcStart();
 668              		.loc 1 604 0
 669 0002 FFF7FEFF 		bl	CySpcStart
 670              	.LVL72:
 605:Generated_Source\PSoC5/EEPROM_1.c **** 
 606:Generated_Source\PSoC5/EEPROM_1.c ****     /* Check if SPC is idle */
 607:Generated_Source\PSoC5/EEPROM_1.c ****     if(CY_SPC_IDLE)
 671              		.loc 1 607 0
 672 0006 0B4B     		ldr	r3, .L91
 673 0008 1A78     		ldrb	r2, [r3]	@ zero_extendqisi2
 674 000a 9107     		lsls	r1, r2, #30
 675 000c 0ED5     		bpl	.L89
 608:Generated_Source\PSoC5/EEPROM_1.c ****     {
 609:Generated_Source\PSoC5/EEPROM_1.c ****         /* SPC is idle now */
 610:Generated_Source\PSoC5/EEPROM_1.c ****         if(CY_SPC_STATUS_SUCCESS == CY_SPC_READ_STATUS)
 676              		.loc 1 610 0
 677 000e 1A78     		ldrb	r2, [r3]	@ zero_extendqisi2
 678 0010 9207     		lsls	r2, r2, #30
 679 0012 06D5     		bpl	.L90
 680              		.loc 1 610 0 is_stmt 0 discriminator 1
 681 0014 1B78     		ldrb	r3, [r3]	@ zero_extendqisi2
 682 0016 9B08     		lsrs	r3, r3, #2
ARM GAS  C:\Users\Luggi\AppData\Local\Temp\ccahf4jt.s 			page 24


 683 0018 14BF     		ite	ne
 684 001a 4FF0FF34 		movne	r4, #-1
 685 001e 0024     		moveq	r4, #0
 686 0020 01E0     		b	.L88
 687              	.L90:
 611:Generated_Source\PSoC5/EEPROM_1.c ****         {
 612:Generated_Source\PSoC5/EEPROM_1.c ****             status = CYRET_SUCCESS;
 613:Generated_Source\PSoC5/EEPROM_1.c ****         }
 614:Generated_Source\PSoC5/EEPROM_1.c ****         else
 615:Generated_Source\PSoC5/EEPROM_1.c ****         {
 616:Generated_Source\PSoC5/EEPROM_1.c ****             status = CYRET_UNKNOWN;
 688              		.loc 1 616 0 is_stmt 1
 689 0022 4FF0FF34 		mov	r4, #-1
 690              	.L88:
 691              	.LVL73:
 617:Generated_Source\PSoC5/EEPROM_1.c ****         }
 618:Generated_Source\PSoC5/EEPROM_1.c **** 
 619:Generated_Source\PSoC5/EEPROM_1.c ****         /* Unlock SPC so that someone else can use it. */
 620:Generated_Source\PSoC5/EEPROM_1.c ****         CySpcUnlock();
 692              		.loc 1 620 0
 693 0026 FFF7FEFF 		bl	CySpcUnlock
 694              	.LVL74:
 695 002a 00E0     		b	.L87
 696              	.LVL75:
 697              	.L89:
 621:Generated_Source\PSoC5/EEPROM_1.c ****     }
 622:Generated_Source\PSoC5/EEPROM_1.c ****     else
 623:Generated_Source\PSoC5/EEPROM_1.c ****     {
 624:Generated_Source\PSoC5/EEPROM_1.c ****         status = CYRET_STARTED;
 698              		.loc 1 624 0
 699 002c 0724     		movs	r4, #7
 700              	.L87:
 701              	.LVL76:
 625:Generated_Source\PSoC5/EEPROM_1.c ****     }
 626:Generated_Source\PSoC5/EEPROM_1.c **** 
 627:Generated_Source\PSoC5/EEPROM_1.c ****     return(status);
 628:Generated_Source\PSoC5/EEPROM_1.c **** }
 702              		.loc 1 628 0
 703 002e 2046     		mov	r0, r4
 704 0030 10BD     		pop	{r4, pc}
 705              	.LVL77:
 706              	.L92:
 707 0032 00BF     		.align	2
 708              	.L91:
 709 0034 22470040 		.word	1073760034
 710              		.cfi_endproc
 711              	.LFE10:
 712              		.size	EEPROM_1_Query, .-EEPROM_1_Query
 713              		.section	.text.EEPROM_1_ByteWritePos,"ax",%progbits
 714              		.align	1
 715              		.global	EEPROM_1_ByteWritePos
 716              		.thumb
 717              		.thumb_func
 718              		.type	EEPROM_1_ByteWritePos, %function
 719              	EEPROM_1_ByteWritePos:
 720              	.LFB11:
 629:Generated_Source\PSoC5/EEPROM_1.c **** 
ARM GAS  C:\Users\Luggi\AppData\Local\Temp\ccahf4jt.s 			page 25


 630:Generated_Source\PSoC5/EEPROM_1.c **** 
 631:Generated_Source\PSoC5/EEPROM_1.c **** /*******************************************************************************
 632:Generated_Source\PSoC5/EEPROM_1.c **** * Function Name: EEPROM_1_ByteWritePos
 633:Generated_Source\PSoC5/EEPROM_1.c **** ********************************************************************************
 634:Generated_Source\PSoC5/EEPROM_1.c **** *
 635:Generated_Source\PSoC5/EEPROM_1.c **** * Summary:
 636:Generated_Source\PSoC5/EEPROM_1.c **** *  Writes a byte of data to the EEPROM. This is a blocking call. It will not
 637:Generated_Source\PSoC5/EEPROM_1.c **** *  return until the write operation succeeds or fails.
 638:Generated_Source\PSoC5/EEPROM_1.c **** *
 639:Generated_Source\PSoC5/EEPROM_1.c **** * Parameters:
 640:Generated_Source\PSoC5/EEPROM_1.c **** *  dataByte:   The byte of data to write to the EEPROM.
 641:Generated_Source\PSoC5/EEPROM_1.c **** *  rowNumber:  The EEPROM row number to program.
 642:Generated_Source\PSoC5/EEPROM_1.c **** *  byteNumber: The byte number within the row to program.
 643:Generated_Source\PSoC5/EEPROM_1.c **** *
 644:Generated_Source\PSoC5/EEPROM_1.c **** * Return:
 645:Generated_Source\PSoC5/EEPROM_1.c **** *  CYRET_SUCCESS, if the operation was successful.
 646:Generated_Source\PSoC5/EEPROM_1.c **** *  CYRET_BAD_PARAM, if the parameter rowNumber or byteNumber is out of range.
 647:Generated_Source\PSoC5/EEPROM_1.c **** *  CYRET_LOCKED, if the SPC is being used.
 648:Generated_Source\PSoC5/EEPROM_1.c **** *  CYRET_UNKNOWN, if there was an SPC error.
 649:Generated_Source\PSoC5/EEPROM_1.c **** *
 650:Generated_Source\PSoC5/EEPROM_1.c **** *******************************************************************************/
 651:Generated_Source\PSoC5/EEPROM_1.c **** cystatus EEPROM_1_ByteWritePos(uint8 dataByte, uint8 rowNumber, uint8 byteNumber) \
 652:Generated_Source\PSoC5/EEPROM_1.c **** 
 653:Generated_Source\PSoC5/EEPROM_1.c **** {
 721              		.loc 1 653 0
 722              		.cfi_startproc
 723              		@ args = 0, pretend = 0, frame = 8
 724              		@ frame_needed = 0, uses_anonymous_args = 0
 725              	.LVL78:
 726 0000 37B5     		push	{r0, r1, r2, r4, r5, lr}
 727              		.cfi_def_cfa_offset 24
 728              		.cfi_offset 4, -12
 729              		.cfi_offset 5, -8
 730              		.cfi_offset 14, -4
 731              		.loc 1 653 0
 732 0002 0D46     		mov	r5, r1
 733 0004 1446     		mov	r4, r2
 734 0006 8DF80700 		strb	r0, [sp, #7]
 654:Generated_Source\PSoC5/EEPROM_1.c ****     cystatus status;
 655:Generated_Source\PSoC5/EEPROM_1.c **** 
 656:Generated_Source\PSoC5/EEPROM_1.c ****     /* Start SPC */
 657:Generated_Source\PSoC5/EEPROM_1.c ****     CySpcStart();
 735              		.loc 1 657 0
 736 000a FFF7FEFF 		bl	CySpcStart
 737              	.LVL79:
 658:Generated_Source\PSoC5/EEPROM_1.c **** 
 659:Generated_Source\PSoC5/EEPROM_1.c ****     if((rowNumber < (uint8) CY_EEPROM_NUMBER_ROWS) && (byteNumber < (uint8) SIZEOF_EEPROM_ROW))
 738              		.loc 1 659 0
 739 000e 2A06     		lsls	r2, r5, #24
 740 0010 34D4     		bmi	.L101
 741              		.loc 1 659 0 is_stmt 0 discriminator 1
 742 0012 0F2C     		cmp	r4, #15
 743 0014 32D8     		bhi	.L101
 660:Generated_Source\PSoC5/EEPROM_1.c ****     {
 661:Generated_Source\PSoC5/EEPROM_1.c ****         /* See if we can get SPC. */
 662:Generated_Source\PSoC5/EEPROM_1.c ****         if(CySpcLock() == CYRET_SUCCESS)
 744              		.loc 1 662 0 is_stmt 1
ARM GAS  C:\Users\Luggi\AppData\Local\Temp\ccahf4jt.s 			page 26


 745 0016 FFF7FEFF 		bl	CySpcLock
 746              	.LVL80:
 747 001a 0028     		cmp	r0, #0
 748 001c 30D1     		bne	.L102
 749              	.LVL81:
 663:Generated_Source\PSoC5/EEPROM_1.c ****         {
 664:Generated_Source\PSoC5/EEPROM_1.c ****             /* Plan for failure */
 665:Generated_Source\PSoC5/EEPROM_1.c ****             status = CYRET_UNKNOWN;
 666:Generated_Source\PSoC5/EEPROM_1.c **** 
 667:Generated_Source\PSoC5/EEPROM_1.c ****             /* Command to load byte of data */
 668:Generated_Source\PSoC5/EEPROM_1.c ****             if(CySpcLoadMultiByte(CY_SPC_FIRST_EE_ARRAYID, (uint16)byteNumber, &dataByte,\
 750              		.loc 1 668 0
 751 001e 4020     		movs	r0, #64
 752 0020 2146     		mov	r1, r4
 753 0022 0DF10702 		add	r2, sp, #7
 754              	.LVL82:
 755 0026 0123     		movs	r3, #1
 756 0028 FFF7FEFF 		bl	CySpcLoadMultiByte
 757              	.LVL83:
 758 002c 0728     		cmp	r0, #7
 759 002e 02D0     		beq	.L95
 760              	.LVL84:
 761              	.L97:
 665:Generated_Source\PSoC5/EEPROM_1.c **** 
 762              		.loc 1 665 0
 763 0030 4FF0FF34 		mov	r4, #-1
 764 0034 1FE0     		b	.L96
 765              	.LVL85:
 766              	.L95:
 669:Generated_Source\PSoC5/EEPROM_1.c ****                                                                 EEPROM_1_SPC_BYTE_WRITE_SIZE) == CY
 670:Generated_Source\PSoC5/EEPROM_1.c ****             {
 671:Generated_Source\PSoC5/EEPROM_1.c ****                 while(CY_SPC_BUSY)
 767              		.loc 1 671 0 discriminator 1
 768 0036 144C     		ldr	r4, .L118
 769 0038 2378     		ldrb	r3, [r4]	@ zero_extendqisi2
 770 003a 9B07     		lsls	r3, r3, #30
 771 003c FBD5     		bpl	.L95
 672:Generated_Source\PSoC5/EEPROM_1.c ****                 {
 673:Generated_Source\PSoC5/EEPROM_1.c ****                     /* Wait until SPC becomes idle */
 674:Generated_Source\PSoC5/EEPROM_1.c ****                 }
 675:Generated_Source\PSoC5/EEPROM_1.c **** 
 676:Generated_Source\PSoC5/EEPROM_1.c ****                 /* SPC is idle now */
 677:Generated_Source\PSoC5/EEPROM_1.c ****                 if(CY_SPC_STATUS_SUCCESS == CY_SPC_READ_STATUS)
 772              		.loc 1 677 0
 773 003e 2378     		ldrb	r3, [r4]	@ zero_extendqisi2
 774 0040 9807     		lsls	r0, r3, #30
 775 0042 F5D5     		bpl	.L97
 776              		.loc 1 677 0 is_stmt 0 discriminator 1
 777 0044 2378     		ldrb	r3, [r4]	@ zero_extendqisi2
 778 0046 9B08     		lsrs	r3, r3, #2
 779 0048 F2D1     		bne	.L97
 780              	.LVL86:
 678:Generated_Source\PSoC5/EEPROM_1.c ****                 {
 679:Generated_Source\PSoC5/EEPROM_1.c ****                     status = CYRET_SUCCESS;
 680:Generated_Source\PSoC5/EEPROM_1.c ****                 }
 681:Generated_Source\PSoC5/EEPROM_1.c **** 
 682:Generated_Source\PSoC5/EEPROM_1.c ****                 /* Command to erase and program the row. */
ARM GAS  C:\Users\Luggi\AppData\Local\Temp\ccahf4jt.s 			page 27


 683:Generated_Source\PSoC5/EEPROM_1.c ****                 if(status == CYRET_SUCCESS)
 684:Generated_Source\PSoC5/EEPROM_1.c ****                 {
 685:Generated_Source\PSoC5/EEPROM_1.c ****                     if(CySpcWriteRow(CY_SPC_FIRST_EE_ARRAYID, (uint16)rowNumber, dieTemperature[0u]
 781              		.loc 1 685 0 is_stmt 1
 782 004a 104B     		ldr	r3, .L118+4
 783 004c 4020     		movs	r0, #64
 784 004e 1A78     		ldrb	r2, [r3]	@ zero_extendqisi2
 785 0050 2946     		mov	r1, r5
 786 0052 5B78     		ldrb	r3, [r3, #1]	@ zero_extendqisi2
 787 0054 FFF7FEFF 		bl	CySpcWriteRow
 788              	.LVL87:
 789 0058 0728     		cmp	r0, #7
 790 005a E9D1     		bne	.L97
 791              	.L99:
 686:Generated_Source\PSoC5/EEPROM_1.c ****                     dieTemperature[1u]) == CYRET_STARTED)
 687:Generated_Source\PSoC5/EEPROM_1.c ****                     {
 688:Generated_Source\PSoC5/EEPROM_1.c ****                         /* Plan for failure */
 689:Generated_Source\PSoC5/EEPROM_1.c ****                         status = CYRET_UNKNOWN;
 690:Generated_Source\PSoC5/EEPROM_1.c **** 
 691:Generated_Source\PSoC5/EEPROM_1.c ****                         while(CY_SPC_BUSY)
 792              		.loc 1 691 0 discriminator 1
 793 005c 2278     		ldrb	r2, [r4]	@ zero_extendqisi2
 794 005e 0A4B     		ldr	r3, .L118
 795 0060 9107     		lsls	r1, r2, #30
 796 0062 FBD5     		bpl	.L99
 692:Generated_Source\PSoC5/EEPROM_1.c ****                         {
 693:Generated_Source\PSoC5/EEPROM_1.c ****                             /* Wait until SPC becomes idle */
 694:Generated_Source\PSoC5/EEPROM_1.c ****                         }
 695:Generated_Source\PSoC5/EEPROM_1.c **** 
 696:Generated_Source\PSoC5/EEPROM_1.c ****                         /* SPC is idle now */
 697:Generated_Source\PSoC5/EEPROM_1.c ****                         if(CY_SPC_STATUS_SUCCESS == CY_SPC_READ_STATUS)
 797              		.loc 1 697 0
 798 0064 1A78     		ldrb	r2, [r3]	@ zero_extendqisi2
 799 0066 9207     		lsls	r2, r2, #30
 800 0068 E2D5     		bpl	.L97
 801              		.loc 1 697 0 is_stmt 0 discriminator 1
 802 006a 1B78     		ldrb	r3, [r3]	@ zero_extendqisi2
 803 006c 9B08     		lsrs	r3, r3, #2
 804 006e 14BF     		ite	ne
 805 0070 4FF0FF34 		movne	r4, #-1
 806 0074 0024     		moveq	r4, #0
 807              	.LVL88:
 808              	.L96:
 698:Generated_Source\PSoC5/EEPROM_1.c ****                         {
 699:Generated_Source\PSoC5/EEPROM_1.c ****                             status = CYRET_SUCCESS;
 700:Generated_Source\PSoC5/EEPROM_1.c ****                         }
 701:Generated_Source\PSoC5/EEPROM_1.c ****                     }
 702:Generated_Source\PSoC5/EEPROM_1.c ****                     else
 703:Generated_Source\PSoC5/EEPROM_1.c ****                     {
 704:Generated_Source\PSoC5/EEPROM_1.c ****                         status = CYRET_UNKNOWN;
 705:Generated_Source\PSoC5/EEPROM_1.c ****                     }
 706:Generated_Source\PSoC5/EEPROM_1.c ****                 }
 707:Generated_Source\PSoC5/EEPROM_1.c ****                 else
 708:Generated_Source\PSoC5/EEPROM_1.c ****                 {
 709:Generated_Source\PSoC5/EEPROM_1.c ****                     status = CYRET_UNKNOWN;
 710:Generated_Source\PSoC5/EEPROM_1.c ****                 }
 711:Generated_Source\PSoC5/EEPROM_1.c ****             }
ARM GAS  C:\Users\Luggi\AppData\Local\Temp\ccahf4jt.s 			page 28


 712:Generated_Source\PSoC5/EEPROM_1.c **** 
 713:Generated_Source\PSoC5/EEPROM_1.c ****             /* Unlock SPC so that someone else can use it. */
 714:Generated_Source\PSoC5/EEPROM_1.c ****             CySpcUnlock();
 809              		.loc 1 714 0 is_stmt 1
 810 0076 FFF7FEFF 		bl	CySpcUnlock
 811              	.LVL89:
 812 007a 02E0     		b	.L117
 813              	.LVL90:
 814              	.L101:
 715:Generated_Source\PSoC5/EEPROM_1.c ****         }
 716:Generated_Source\PSoC5/EEPROM_1.c ****         else
 717:Generated_Source\PSoC5/EEPROM_1.c ****         {
 718:Generated_Source\PSoC5/EEPROM_1.c ****             status = CYRET_LOCKED;
 719:Generated_Source\PSoC5/EEPROM_1.c ****         }
 720:Generated_Source\PSoC5/EEPROM_1.c ****     }
 721:Generated_Source\PSoC5/EEPROM_1.c ****     else
 722:Generated_Source\PSoC5/EEPROM_1.c ****     {
 723:Generated_Source\PSoC5/EEPROM_1.c ****         status = CYRET_BAD_PARAM;
 815              		.loc 1 723 0
 816 007c 0124     		movs	r4, #1
 817 007e 00E0     		b	.L117
 818              	.L102:
 718:Generated_Source\PSoC5/EEPROM_1.c ****         }
 819              		.loc 1 718 0
 820 0080 0424     		movs	r4, #4
 821              	.LVL91:
 822              	.L117:
 724:Generated_Source\PSoC5/EEPROM_1.c ****     }
 725:Generated_Source\PSoC5/EEPROM_1.c **** 
 726:Generated_Source\PSoC5/EEPROM_1.c ****     return(status);
 727:Generated_Source\PSoC5/EEPROM_1.c **** }
 823              		.loc 1 727 0
 824 0082 2046     		mov	r0, r4
 825 0084 03B0     		add	sp, sp, #12
 826              		.cfi_def_cfa_offset 12
 827              		@ sp needed
 828 0086 30BD     		pop	{r4, r5, pc}
 829              	.LVL92:
 830              	.L119:
 831              		.align	2
 832              	.L118:
 833 0088 22470040 		.word	1073760034
 834 008c 00000000 		.word	dieTemperature
 835              		.cfi_endproc
 836              	.LFE11:
 837              		.size	EEPROM_1_ByteWritePos, .-EEPROM_1_ByteWritePos
 838              		.text
 839              	.Letext0:
 840              		.file 2 "Generated_Source\\PSoC5\\cytypes.h"
 841              		.file 3 "Generated_Source\\PSoC5\\CyFlash.h"
 842              		.file 4 "Generated_Source\\PSoC5\\CySpc.h"
 843              		.file 5 "Generated_Source\\PSoC5\\CyLib.h"