ARM GAS  C:\Users\Luggi\AppData\Local\Temp\ccmRzJJ5.s 			page 1


   1              		.syntax unified
   2              		.cpu cortex-m3
   3              		.fpu softvfp
   4              		.eabi_attribute 20, 1
   5              		.eabi_attribute 21, 1
   6              		.eabi_attribute 23, 3
   7              		.eabi_attribute 24, 1
   8              		.eabi_attribute 25, 1
   9              		.eabi_attribute 26, 1
  10              		.eabi_attribute 30, 4
  11              		.eabi_attribute 34, 1
  12              		.eabi_attribute 18, 4
  13              		.thumb
  14              		.file	"Filter.c"
  15              		.text
  16              	.Ltext0:
  17              		.cfi_sections	.debug_frame
  18              		.section	.text.Filter_Init,"ax",%progbits
  19              		.align	1
  20              		.global	Filter_Init
  21              		.thumb
  22              		.thumb_func
  23              		.type	Filter_Init, %function
  24              	Filter_Init:
  25              	.LFB0:
  26              		.file 1 "Generated_Source\\PSoC5\\Filter.c"
   1:Generated_Source\PSoC5/Filter.c **** /*******************************************************************************
   2:Generated_Source\PSoC5/Filter.c **** * File Name: Filter.c
   3:Generated_Source\PSoC5/Filter.c **** * Version 2.30
   4:Generated_Source\PSoC5/Filter.c **** *
   5:Generated_Source\PSoC5/Filter.c **** * Description:
   6:Generated_Source\PSoC5/Filter.c **** *  This file provides the API source code for the FILT component.
   7:Generated_Source\PSoC5/Filter.c **** *
   8:Generated_Source\PSoC5/Filter.c **** * Note:
   9:Generated_Source\PSoC5/Filter.c **** *  
  10:Generated_Source\PSoC5/Filter.c **** *******************************************************************************
  11:Generated_Source\PSoC5/Filter.c **** * Copyright 2008-2013, Cypress Semiconductor Corporation.  All rights reserved.
  12:Generated_Source\PSoC5/Filter.c **** * You may use this file only in accordance with the license, terms, conditions, 
  13:Generated_Source\PSoC5/Filter.c **** * disclaimers, and limitations in the end user license agreement accompanying 
  14:Generated_Source\PSoC5/Filter.c **** * the software package with which this file was provided.
  15:Generated_Source\PSoC5/Filter.c **** ********************************************************************************/
  16:Generated_Source\PSoC5/Filter.c **** 
  17:Generated_Source\PSoC5/Filter.c **** #include "Filter_PVT.h"
  18:Generated_Source\PSoC5/Filter.c **** 
  19:Generated_Source\PSoC5/Filter.c **** 
  20:Generated_Source\PSoC5/Filter.c **** /*******************************************************************************
  21:Generated_Source\PSoC5/Filter.c **** * FILT component internal variables.
  22:Generated_Source\PSoC5/Filter.c **** *******************************************************************************/
  23:Generated_Source\PSoC5/Filter.c **** 
  24:Generated_Source\PSoC5/Filter.c **** uint8 Filter_initVar = 0x0u;
  25:Generated_Source\PSoC5/Filter.c **** 
  26:Generated_Source\PSoC5/Filter.c **** 
  27:Generated_Source\PSoC5/Filter.c **** /*******************************************************************************
  28:Generated_Source\PSoC5/Filter.c **** * Function Name: Filter_Init
  29:Generated_Source\PSoC5/Filter.c **** ********************************************************************************
  30:Generated_Source\PSoC5/Filter.c **** *
  31:Generated_Source\PSoC5/Filter.c **** * Summary:
ARM GAS  C:\Users\Luggi\AppData\Local\Temp\ccmRzJJ5.s 			page 2


  32:Generated_Source\PSoC5/Filter.c **** *  Initialize component's parameters to the parameters set by user in the 
  33:Generated_Source\PSoC5/Filter.c **** *  customizer of the component placed onto schematic. Usually called in 
  34:Generated_Source\PSoC5/Filter.c **** *  Filter_Start().
  35:Generated_Source\PSoC5/Filter.c **** *
  36:Generated_Source\PSoC5/Filter.c **** * Parameters:  
  37:Generated_Source\PSoC5/Filter.c **** *  void
  38:Generated_Source\PSoC5/Filter.c **** *
  39:Generated_Source\PSoC5/Filter.c **** * Return: 
  40:Generated_Source\PSoC5/Filter.c **** *  void
  41:Generated_Source\PSoC5/Filter.c **** *
  42:Generated_Source\PSoC5/Filter.c **** *******************************************************************************/
  43:Generated_Source\PSoC5/Filter.c **** void Filter_Init(void) 
  44:Generated_Source\PSoC5/Filter.c **** {
  27              		.loc 1 44 0
  28              		.cfi_startproc
  29              		@ args = 0, pretend = 0, frame = 0
  30              		@ frame_needed = 0, uses_anonymous_args = 0
  31 0000 70B5     		push	{r4, r5, r6, lr}
  32              		.cfi_def_cfa_offset 16
  33              		.cfi_offset 4, -16
  34              		.cfi_offset 5, -12
  35              		.cfi_offset 6, -8
  36              		.cfi_offset 14, -4
  45:Generated_Source\PSoC5/Filter.c ****         /* Power on DFB before initializing the RAMs */
  46:Generated_Source\PSoC5/Filter.c ****     Filter_PM_ACT_CFG_REG |= Filter_PM_ACT_MSK;
  37              		.loc 1 46 0
  38 0002 234A     		ldr	r2, .L5
  47:Generated_Source\PSoC5/Filter.c **** 
  48:Generated_Source\PSoC5/Filter.c ****     /* Turn off Run Bit */
  49:Generated_Source\PSoC5/Filter.c ****     Filter_CR_REG &= (uint8)~Filter_RUN_MASK;
  50:Generated_Source\PSoC5/Filter.c ****                 
  51:Generated_Source\PSoC5/Filter.c ****     /* Enable the DFB RAMS */
  52:Generated_Source\PSoC5/Filter.c ****     Filter_RAM_EN_REG = Filter_RAM_DIR_BUS;
  53:Generated_Source\PSoC5/Filter.c ****         
  54:Generated_Source\PSoC5/Filter.c ****     /* Put DFB RAM on the bus */
  55:Generated_Source\PSoC5/Filter.c ****     Filter_RAM_DIR_REG = Filter_RAM_DIR_BUS;
  39              		.loc 1 55 0
  40 0004 234C     		ldr	r4, .L5+4
  46:Generated_Source\PSoC5/Filter.c **** 
  41              		.loc 1 46 0
  42 0006 1378     		ldrb	r3, [r2]	@ zero_extendqisi2
  56:Generated_Source\PSoC5/Filter.c ****         
  57:Generated_Source\PSoC5/Filter.c ****     /* Write DFB RAMs */
  58:Generated_Source\PSoC5/Filter.c ****     /* Control Store RAMs */
  59:Generated_Source\PSoC5/Filter.c ****     (void)memcpy( Filter_CSA_RAM,
  43              		.loc 1 59 0
  44 0008 2349     		ldr	r1, .L5+8
  46:Generated_Source\PSoC5/Filter.c **** 
  45              		.loc 1 46 0
  46 000a 43F01003 		orr	r3, r3, #16
  47 000e 1370     		strb	r3, [r2]
  49:Generated_Source\PSoC5/Filter.c ****                 
  48              		.loc 1 49 0
  49 0010 02F50342 		add	r2, r2, #33536
  50 0014 DA32     		adds	r2, r2, #218
  51 0016 1378     		ldrb	r3, [r2]	@ zero_extendqisi2
  52              		.loc 1 59 0
ARM GAS  C:\Users\Luggi\AppData\Local\Temp\ccmRzJJ5.s 			page 3


  53 0018 2048     		ldr	r0, .L5+12
  49:Generated_Source\PSoC5/Filter.c ****                 
  54              		.loc 1 49 0
  55 001a 03F0FE03 		and	r3, r3, #254
  56 001e 1370     		strb	r3, [r2]
  52:Generated_Source\PSoC5/Filter.c ****         
  57              		.loc 1 52 0
  58 0020 3F23     		movs	r3, #63
  59 0022 1372     		strb	r3, [r2, #8]
  55:Generated_Source\PSoC5/Filter.c ****         
  60              		.loc 1 55 0
  61 0024 2370     		strb	r3, [r4]
  62              		.loc 1 59 0
  63 0026 4FF48072 		mov	r2, #256
  64 002a FFF7FEFF 		bl	memcpy
  65              	.LVL0:
  60:Generated_Source\PSoC5/Filter.c ****         Filter_control, Filter_CSA_RAM_SIZE); 
  61:Generated_Source\PSoC5/Filter.c ****     (void)memcpy(Filter_CSB_RAM,
  66              		.loc 1 61 0
  67 002e 1A49     		ldr	r1, .L5+8
  68 0030 4FF48072 		mov	r2, #256
  69 0034 1A48     		ldr	r0, .L5+16
  70 0036 FFF7FEFF 		bl	memcpy
  71              	.LVL1:
  62:Generated_Source\PSoC5/Filter.c ****         Filter_control, Filter_CSB_RAM_SIZE); 
  63:Generated_Source\PSoC5/Filter.c ****     /* CFSM RAM */
  64:Generated_Source\PSoC5/Filter.c ****     (void)memcpy(Filter_CFSM_RAM,
  72              		.loc 1 64 0
  73 003a 1A49     		ldr	r1, .L5+20
  74 003c 4FF48072 		mov	r2, #256
  75 0040 1948     		ldr	r0, .L5+24
  76 0042 FFF7FEFF 		bl	memcpy
  77              	.LVL2:
  65:Generated_Source\PSoC5/Filter.c ****         Filter_cfsm, Filter_CFSM_RAM_SIZE); 
  66:Generated_Source\PSoC5/Filter.c ****     /* Data RAMs */
  67:Generated_Source\PSoC5/Filter.c ****     (void)memcpy(Filter_DA_RAM,
  78              		.loc 1 67 0
  79 0046 1949     		ldr	r1, .L5+28
  80 0048 4FF40072 		mov	r2, #512
  81 004c 1848     		ldr	r0, .L5+32
  82 004e FFF7FEFF 		bl	memcpy
  83              	.LVL3:
  68:Generated_Source\PSoC5/Filter.c ****         Filter_data_a, Filter_DA_RAM_SIZE); 
  69:Generated_Source\PSoC5/Filter.c ****     (void)memcpy(Filter_DB_RAM,
  84              		.loc 1 69 0
  85 0052 1848     		ldr	r0, .L5+36
  86 0054 1849     		ldr	r1, .L5+40
  87 0056 4FF40072 		mov	r2, #512
  88 005a FFF7FEFF 		bl	memcpy
  89              	.LVL4:
  70:Generated_Source\PSoC5/Filter.c ****         Filter_data_b, Filter_DB_RAM_SIZE); 
  71:Generated_Source\PSoC5/Filter.c ****     /* ACU RAM */
  72:Generated_Source\PSoC5/Filter.c ****     (void)memcpy(Filter_ACU_RAM,
  90              		.loc 1 72 0
  91 005e 174B     		ldr	r3, .L5+44
  92 0060 174D     		ldr	r5, .L5+48
  93 0062 03F14006 		add	r6, r3, #64
ARM GAS  C:\Users\Luggi\AppData\Local\Temp\ccmRzJJ5.s 			page 4


  94              	.L2:
  95 0066 2A46     		mov	r2, r5
  96 0068 1868     		ldr	r0, [r3]	@ unaligned
  97 006a 5968     		ldr	r1, [r3, #4]	@ unaligned
  98 006c 0833     		adds	r3, r3, #8
  99 006e 03C2     		stmia	r2!, {r0, r1}
 100 0070 B342     		cmp	r3, r6
 101 0072 1546     		mov	r5, r2
 102 0074 F7D1     		bne	.L2
  73:Generated_Source\PSoC5/Filter.c ****         Filter_acu, Filter_ACU_RAM_SIZE); 
  74:Generated_Source\PSoC5/Filter.c **** 
  75:Generated_Source\PSoC5/Filter.c ****     /* Take DFB RAM off the bus */
  76:Generated_Source\PSoC5/Filter.c ****     Filter_RAM_DIR_REG = Filter_RAM_DIR_DFB;
 103              		.loc 1 76 0
 104 0076 0025     		movs	r5, #0
  77:Generated_Source\PSoC5/Filter.c **** 
  78:Generated_Source\PSoC5/Filter.c ****     /* Set up interrupt and DMA events */
  79:Generated_Source\PSoC5/Filter.c ****     Filter_SetInterruptMode(Filter_INIT_INTERRUPT_MODE);
 105              		.loc 1 79 0
 106 0078 0120     		movs	r0, #1
  76:Generated_Source\PSoC5/Filter.c **** 
 107              		.loc 1 76 0
 108 007a 2570     		strb	r5, [r4]
 109              		.loc 1 79 0
 110 007c FFF7FEFF 		bl	Filter_SetInterruptMode
 111              	.LVL5:
  80:Generated_Source\PSoC5/Filter.c ****     Filter_SetDMAMode(Filter_INIT_DMA_MODE);
 112              		.loc 1 80 0
 113 0080 2846     		mov	r0, r5
 114 0082 FFF7FEFF 		bl	Filter_SetDMAMode
 115              	.LVL6:
  81:Generated_Source\PSoC5/Filter.c ****         
  82:Generated_Source\PSoC5/Filter.c ****     /* Clear any pending interrupts */
  83:Generated_Source\PSoC5/Filter.c ****     /* Bits [2..0] of this register are readonly. */
  84:Generated_Source\PSoC5/Filter.c ****     Filter_SR_REG = 0xf8u;   
 116              		.loc 1 84 0
 117 0086 0F4B     		ldr	r3, .L5+52
 118 0088 F822     		movs	r2, #248
 119 008a 1A70     		strb	r2, [r3]
 120 008c 70BD     		pop	{r4, r5, r6, pc}
 121              	.L6:
 122 008e 00BF     		.align	2
 123              	.L5:
 124 0090 A6430040 		.word	1073759142
 125 0094 8CC70040 		.word	1073792908
 126 0098 00000000 		.word	Filter_control
 127 009c 00C40040 		.word	1073792000
 128 00a0 00C50040 		.word	1073792256
 129 00a4 00000000 		.word	Filter_cfsm
 130 00a8 00C60040 		.word	1073792512
 131 00ac 00000000 		.word	Filter_data_a
 132 00b0 00C00040 		.word	1073790976
 133 00b4 00C20040 		.word	1073791488
 134 00b8 00000000 		.word	Filter_data_b
 135 00bc 00000000 		.word	Filter_acu
 136 00c0 00C70040 		.word	1073792768
 137 00c4 84C70040 		.word	1073792900
ARM GAS  C:\Users\Luggi\AppData\Local\Temp\ccmRzJJ5.s 			page 5


 138              		.cfi_endproc
 139              	.LFE0:
 140              		.size	Filter_Init, .-Filter_Init
 141              		.section	.text.Filter_Enable,"ax",%progbits
 142              		.align	1
 143              		.global	Filter_Enable
 144              		.thumb
 145              		.thumb_func
 146              		.type	Filter_Enable, %function
 147              	Filter_Enable:
 148              	.LFB1:
  85:Generated_Source\PSoC5/Filter.c **** }
  86:Generated_Source\PSoC5/Filter.c **** 
  87:Generated_Source\PSoC5/Filter.c **** 
  88:Generated_Source\PSoC5/Filter.c **** /*******************************************************************************
  89:Generated_Source\PSoC5/Filter.c **** * Function Name: Filter_Enable
  90:Generated_Source\PSoC5/Filter.c **** ********************************************************************************
  91:Generated_Source\PSoC5/Filter.c **** *  
  92:Generated_Source\PSoC5/Filter.c **** * Summary: 
  93:Generated_Source\PSoC5/Filter.c **** *  Enables the DFB run bit.
  94:Generated_Source\PSoC5/Filter.c **** *
  95:Generated_Source\PSoC5/Filter.c **** * Parameters:  
  96:Generated_Source\PSoC5/Filter.c **** *  void
  97:Generated_Source\PSoC5/Filter.c **** *
  98:Generated_Source\PSoC5/Filter.c **** * Return: 
  99:Generated_Source\PSoC5/Filter.c **** *  void
 100:Generated_Source\PSoC5/Filter.c **** *
 101:Generated_Source\PSoC5/Filter.c **** *******************************************************************************/
 102:Generated_Source\PSoC5/Filter.c **** void Filter_Enable(void) 
 103:Generated_Source\PSoC5/Filter.c **** {
 149              		.loc 1 103 0
 150              		.cfi_startproc
 151              		@ args = 0, pretend = 0, frame = 0
 152              		@ frame_needed = 0, uses_anonymous_args = 0
 153              		@ link register save eliminated.
 104:Generated_Source\PSoC5/Filter.c ****     /* Power on DFB in Active mode */
 105:Generated_Source\PSoC5/Filter.c ****     Filter_PM_ACT_CFG_REG |= Filter_PM_ACT_MSK;
 154              		.loc 1 105 0
 155 0000 084A     		ldr	r2, .L8
 156 0002 1378     		ldrb	r3, [r2]	@ zero_extendqisi2
 157 0004 43F01003 		orr	r3, r3, #16
 158 0008 1370     		strb	r3, [r2]
 106:Generated_Source\PSoC5/Filter.c ****         
 107:Generated_Source\PSoC5/Filter.c ****     /* Power on DFB in Alternative Active mode */
 108:Generated_Source\PSoC5/Filter.c ****     Filter_PM_STBY_CFG_REG |= Filter_PM_STBY_MSK;
 159              		.loc 1 108 0
 160 000a 137C     		ldrb	r3, [r2, #16]	@ zero_extendqisi2
 161 000c 43F01003 		orr	r3, r3, #16
 162 0010 1374     		strb	r3, [r2, #16]
 109:Generated_Source\PSoC5/Filter.c **** 
 110:Generated_Source\PSoC5/Filter.c ****     /* Turn on Run Bit */
 111:Generated_Source\PSoC5/Filter.c ****     Filter_CR_REG |= Filter_RUN_MASK;
 163              		.loc 1 111 0
 164 0012 02F50342 		add	r2, r2, #33536
 165 0016 DA32     		adds	r2, r2, #218
 166 0018 1378     		ldrb	r3, [r2]	@ zero_extendqisi2
 167 001a 43F00103 		orr	r3, r3, #1
ARM GAS  C:\Users\Luggi\AppData\Local\Temp\ccmRzJJ5.s 			page 6


 168 001e 1370     		strb	r3, [r2]
 169 0020 7047     		bx	lr
 170              	.L9:
 171 0022 00BF     		.align	2
 172              	.L8:
 173 0024 A6430040 		.word	1073759142
 174              		.cfi_endproc
 175              	.LFE1:
 176              		.size	Filter_Enable, .-Filter_Enable
 177              		.section	.text.Filter_Start,"ax",%progbits
 178              		.align	1
 179              		.global	Filter_Start
 180              		.thumb
 181              		.thumb_func
 182              		.type	Filter_Start, %function
 183              	Filter_Start:
 184              	.LFB2:
 112:Generated_Source\PSoC5/Filter.c **** }
 113:Generated_Source\PSoC5/Filter.c **** 
 114:Generated_Source\PSoC5/Filter.c **** 
 115:Generated_Source\PSoC5/Filter.c **** /*******************************************************************************
 116:Generated_Source\PSoC5/Filter.c **** * Function Name: Filter_Start
 117:Generated_Source\PSoC5/Filter.c **** ********************************************************************************
 118:Generated_Source\PSoC5/Filter.c **** *
 119:Generated_Source\PSoC5/Filter.c **** * Summary:
 120:Generated_Source\PSoC5/Filter.c **** *  This method does the prep work necessary to setup DFB.  This includes loading 
 121:Generated_Source\PSoC5/Filter.c **** *
 122:Generated_Source\PSoC5/Filter.c **** * Parameters:  
 123:Generated_Source\PSoC5/Filter.c **** *  void
 124:Generated_Source\PSoC5/Filter.c **** * 
 125:Generated_Source\PSoC5/Filter.c **** * Return: 
 126:Generated_Source\PSoC5/Filter.c **** *  void
 127:Generated_Source\PSoC5/Filter.c **** *
 128:Generated_Source\PSoC5/Filter.c **** * Global variables:
 129:Generated_Source\PSoC5/Filter.c **** *  Filter_initVar:  Used to check the initial configuration,
 130:Generated_Source\PSoC5/Filter.c **** *  modified when this function is called for the first time.
 131:Generated_Source\PSoC5/Filter.c **** *
 132:Generated_Source\PSoC5/Filter.c **** * Note: 
 133:Generated_Source\PSoC5/Filter.c **** *  Use Filter_InterruptConfig to control which events trigger 
 134:Generated_Source\PSoC5/Filter.c **** *  interrupts in the DFB. 
 135:Generated_Source\PSoC5/Filter.c **** *
 136:Generated_Source\PSoC5/Filter.c **** *******************************************************************************/
 137:Generated_Source\PSoC5/Filter.c **** void Filter_Start(void) 
 138:Generated_Source\PSoC5/Filter.c **** {
 185              		.loc 1 138 0
 186              		.cfi_startproc
 187              		@ args = 0, pretend = 0, frame = 0
 188              		@ frame_needed = 0, uses_anonymous_args = 0
 189 0000 10B5     		push	{r4, lr}
 190              		.cfi_def_cfa_offset 8
 191              		.cfi_offset 4, -8
 192              		.cfi_offset 14, -4
 139:Generated_Source\PSoC5/Filter.c ****      /* If not Initialized then initialize all required hardware and software */
 140:Generated_Source\PSoC5/Filter.c ****     if(Filter_initVar == 0u)
 193              		.loc 1 140 0
 194 0002 054C     		ldr	r4, .L12
 195 0004 2378     		ldrb	r3, [r4]	@ zero_extendqisi2
ARM GAS  C:\Users\Luggi\AppData\Local\Temp\ccmRzJJ5.s 			page 7


 196 0006 1BB9     		cbnz	r3, .L11
 141:Generated_Source\PSoC5/Filter.c ****     {
 142:Generated_Source\PSoC5/Filter.c ****         Filter_Init();
 197              		.loc 1 142 0
 198 0008 FFF7FEFF 		bl	Filter_Init
 199              	.LVL7:
 143:Generated_Source\PSoC5/Filter.c ****         Filter_initVar = 1u;
 200              		.loc 1 143 0
 201 000c 0123     		movs	r3, #1
 202 000e 2370     		strb	r3, [r4]
 203              	.L11:
 144:Generated_Source\PSoC5/Filter.c ****     }
 145:Generated_Source\PSoC5/Filter.c **** 
 146:Generated_Source\PSoC5/Filter.c ****     /* Enable the DFB block */
 147:Generated_Source\PSoC5/Filter.c ****     Filter_Enable();
 148:Generated_Source\PSoC5/Filter.c **** }
 204              		.loc 1 148 0
 205 0010 BDE81040 		pop	{r4, lr}
 206              		.cfi_restore 14
 207              		.cfi_restore 4
 208              		.cfi_def_cfa_offset 0
 147:Generated_Source\PSoC5/Filter.c **** }
 209              		.loc 1 147 0
 210 0014 FFF7FEBF 		b	Filter_Enable
 211              	.LVL8:
 212              	.L13:
 213              		.align	2
 214              	.L12:
 215 0018 00000000 		.word	.LANCHOR0
 216              		.cfi_endproc
 217              	.LFE2:
 218              		.size	Filter_Start, .-Filter_Start
 219              		.section	.text.Filter_Stop,"ax",%progbits
 220              		.align	1
 221              		.global	Filter_Stop
 222              		.thumb
 223              		.thumb_func
 224              		.type	Filter_Stop, %function
 225              	Filter_Stop:
 226              	.LFB3:
 149:Generated_Source\PSoC5/Filter.c **** 
 150:Generated_Source\PSoC5/Filter.c **** 
 151:Generated_Source\PSoC5/Filter.c **** /*******************************************************************************
 152:Generated_Source\PSoC5/Filter.c **** * Function Name: Filter_Stop
 153:Generated_Source\PSoC5/Filter.c **** ********************************************************************************
 154:Generated_Source\PSoC5/Filter.c **** *
 155:Generated_Source\PSoC5/Filter.c **** * Summary:
 156:Generated_Source\PSoC5/Filter.c **** *  Turn off the run bit.  If DMA control is used to feed the channels, allow 
 157:Generated_Source\PSoC5/Filter.c **** *  arguments to turn one of the TD channels off. 
 158:Generated_Source\PSoC5/Filter.c **** *
 159:Generated_Source\PSoC5/Filter.c **** * Parameters:  
 160:Generated_Source\PSoC5/Filter.c **** *  void
 161:Generated_Source\PSoC5/Filter.c **** *
 162:Generated_Source\PSoC5/Filter.c **** * Return: 
 163:Generated_Source\PSoC5/Filter.c **** *  void
 164:Generated_Source\PSoC5/Filter.c **** *
 165:Generated_Source\PSoC5/Filter.c **** *******************************************************************************/
ARM GAS  C:\Users\Luggi\AppData\Local\Temp\ccmRzJJ5.s 			page 8


 166:Generated_Source\PSoC5/Filter.c **** void Filter_Stop(void) 
 167:Generated_Source\PSoC5/Filter.c **** {
 227              		.loc 1 167 0
 228              		.cfi_startproc
 229              		@ args = 0, pretend = 0, frame = 0
 230              		@ frame_needed = 0, uses_anonymous_args = 0
 231              		@ link register save eliminated.
 168:Generated_Source\PSoC5/Filter.c ****     Filter_CR_REG &= (uint8)~(Filter_RUN_MASK);
 232              		.loc 1 168 0
 233 0000 084A     		ldr	r2, .L15
 234 0002 1378     		ldrb	r3, [r2]	@ zero_extendqisi2
 235 0004 03F0FE03 		and	r3, r3, #254
 236 0008 1370     		strb	r3, [r2]
 169:Generated_Source\PSoC5/Filter.c **** 
 170:Generated_Source\PSoC5/Filter.c ****     /* Power off DFB in Active mode */
 171:Generated_Source\PSoC5/Filter.c ****     Filter_PM_ACT_CFG_REG &= (uint8)~Filter_PM_ACT_MSK;
 237              		.loc 1 171 0
 238 000a A2F50342 		sub	r2, r2, #33536
 239 000e DA3A     		subs	r2, r2, #218
 240 0010 1378     		ldrb	r3, [r2]	@ zero_extendqisi2
 241 0012 03F0EF03 		and	r3, r3, #239
 242 0016 1370     		strb	r3, [r2]
 172:Generated_Source\PSoC5/Filter.c ****     
 173:Generated_Source\PSoC5/Filter.c ****     /* Power off DFB in Alternative Active mode */
 174:Generated_Source\PSoC5/Filter.c ****     Filter_PM_STBY_CFG_REG &= (uint8)~Filter_PM_STBY_MSK;
 243              		.loc 1 174 0
 244 0018 137C     		ldrb	r3, [r2, #16]	@ zero_extendqisi2
 245 001a 03F0EF03 		and	r3, r3, #239
 246 001e 1374     		strb	r3, [r2, #16]
 247 0020 7047     		bx	lr
 248              	.L16:
 249 0022 00BF     		.align	2
 250              	.L15:
 251 0024 80C70040 		.word	1073792896
 252              		.cfi_endproc
 253              	.LFE3:
 254              		.size	Filter_Stop, .-Filter_Stop
 255              		.section	.text.Filter_Read8,"ax",%progbits
 256              		.align	1
 257              		.global	Filter_Read8
 258              		.thumb
 259              		.thumb_func
 260              		.type	Filter_Read8, %function
 261              	Filter_Read8:
 262              	.LFB4:
 175:Generated_Source\PSoC5/Filter.c **** }
 176:Generated_Source\PSoC5/Filter.c **** 
 177:Generated_Source\PSoC5/Filter.c **** 
 178:Generated_Source\PSoC5/Filter.c **** /*******************************************************************************
 179:Generated_Source\PSoC5/Filter.c **** * Function Name: Filter_Read8
 180:Generated_Source\PSoC5/Filter.c **** ********************************************************************************
 181:Generated_Source\PSoC5/Filter.c **** *
 182:Generated_Source\PSoC5/Filter.c **** * Summary:
 183:Generated_Source\PSoC5/Filter.c **** *  Get the value in one of the DFB Output Holding Registers 
 184:Generated_Source\PSoC5/Filter.c **** *
 185:Generated_Source\PSoC5/Filter.c **** * Parameters:  
 186:Generated_Source\PSoC5/Filter.c **** *  channel:  Filter_CHANNEL_A or Filter_CHANNEL_B
ARM GAS  C:\Users\Luggi\AppData\Local\Temp\ccmRzJJ5.s 			page 9


 187:Generated_Source\PSoC5/Filter.c **** *            
 188:Generated_Source\PSoC5/Filter.c **** * Return: 
 189:Generated_Source\PSoC5/Filter.c **** *  The most significant 8 bits of the current output value sitting in the 
 190:Generated_Source\PSoC5/Filter.c **** *  selected channel's holding register or 0x00 for invalid channel numbers.
 191:Generated_Source\PSoC5/Filter.c **** *
 192:Generated_Source\PSoC5/Filter.c **** *******************************************************************************/
 193:Generated_Source\PSoC5/Filter.c **** uint8 Filter_Read8(uint8 channel) 
 194:Generated_Source\PSoC5/Filter.c **** {
 263              		.loc 1 194 0
 264              		.cfi_startproc
 265              		@ args = 0, pretend = 0, frame = 0
 266              		@ frame_needed = 0, uses_anonymous_args = 0
 267              		@ link register save eliminated.
 268              	.LVL9:
 195:Generated_Source\PSoC5/Filter.c ****     uint8 value;
 196:Generated_Source\PSoC5/Filter.c **** 
 197:Generated_Source\PSoC5/Filter.c ****     if (channel == Filter_CHANNEL_A)
 269              		.loc 1 197 0
 270 0000 08B9     		cbnz	r0, .L18
 198:Generated_Source\PSoC5/Filter.c ****     {
 199:Generated_Source\PSoC5/Filter.c ****         value = Filter_HOLDAH_REG;
 271              		.loc 1 199 0
 272 0002 054B     		ldr	r3, .L22
 273 0004 02E0     		b	.L21
 274              	.L18:
 200:Generated_Source\PSoC5/Filter.c ****     }
 201:Generated_Source\PSoC5/Filter.c ****     else if (channel == Filter_CHANNEL_B)
 275              		.loc 1 201 0
 276 0006 0128     		cmp	r0, #1
 277 0008 03D1     		bne	.L20
 202:Generated_Source\PSoC5/Filter.c ****     {
 203:Generated_Source\PSoC5/Filter.c ****         value = Filter_HOLDBH_REG;
 278              		.loc 1 203 0
 279 000a 044B     		ldr	r3, .L22+4
 280              	.L21:
 281 000c 1878     		ldrb	r0, [r3]	@ zero_extendqisi2
 282              	.LVL10:
 283 000e C0B2     		uxtb	r0, r0
 284              	.LVL11:
 285 0010 7047     		bx	lr
 286              	.LVL12:
 287              	.L20:
 204:Generated_Source\PSoC5/Filter.c ****     }
 205:Generated_Source\PSoC5/Filter.c ****     else
 206:Generated_Source\PSoC5/Filter.c ****     {
 207:Generated_Source\PSoC5/Filter.c ****         value = 0x0u;
 288              		.loc 1 207 0
 289 0012 0020     		movs	r0, #0
 290              	.LVL13:
 208:Generated_Source\PSoC5/Filter.c ****     }
 209:Generated_Source\PSoC5/Filter.c ****     return value;
 210:Generated_Source\PSoC5/Filter.c **** }
 291              		.loc 1 210 0
 292 0014 7047     		bx	lr
 293              	.L23:
 294 0016 00BF     		.align	2
 295              	.L22:
ARM GAS  C:\Users\Luggi\AppData\Local\Temp\ccmRzJJ5.s 			page 10


 296 0018 AAC70040 		.word	1073792938
 297 001c AEC70040 		.word	1073792942
 298              		.cfi_endproc
 299              	.LFE4:
 300              		.size	Filter_Read8, .-Filter_Read8
 301              		.section	.text.Filter_Read16,"ax",%progbits
 302              		.align	1
 303              		.global	Filter_Read16
 304              		.thumb
 305              		.thumb_func
 306              		.type	Filter_Read16, %function
 307              	Filter_Read16:
 308              	.LFB5:
 211:Generated_Source\PSoC5/Filter.c **** 
 212:Generated_Source\PSoC5/Filter.c **** 
 213:Generated_Source\PSoC5/Filter.c **** /*******************************************************************************
 214:Generated_Source\PSoC5/Filter.c **** * Function Name: Filter_Read16
 215:Generated_Source\PSoC5/Filter.c **** ********************************************************************************
 216:Generated_Source\PSoC5/Filter.c **** *
 217:Generated_Source\PSoC5/Filter.c **** * Summary:
 218:Generated_Source\PSoC5/Filter.c **** *  Get the value in one of the DFB Output Holding Registers 
 219:Generated_Source\PSoC5/Filter.c **** *
 220:Generated_Source\PSoC5/Filter.c **** * Parameters:  
 221:Generated_Source\PSoC5/Filter.c **** *  channel:  Filter_CHANNEL_A or Filter_CHANNEL_B
 222:Generated_Source\PSoC5/Filter.c **** *            
 223:Generated_Source\PSoC5/Filter.c **** * Return: 
 224:Generated_Source\PSoC5/Filter.c **** *  The most significant 16 bits of the current output value sitting in the 
 225:Generated_Source\PSoC5/Filter.c **** *  selected channel's holding register or 0x0000 for invalid channel numbers
 226:Generated_Source\PSoC5/Filter.c **** *
 227:Generated_Source\PSoC5/Filter.c **** * Note:
 228:Generated_Source\PSoC5/Filter.c **** *  Order of the read is important.  On the read of the high byte, the DFB clears
 229:Generated_Source\PSoC5/Filter.c **** *  the data ready bit.
 230:Generated_Source\PSoC5/Filter.c **** *
 231:Generated_Source\PSoC5/Filter.c **** *******************************************************************************/
 232:Generated_Source\PSoC5/Filter.c **** #if defined(__C51__) || defined(__CX51__) 
 233:Generated_Source\PSoC5/Filter.c **** 
 234:Generated_Source\PSoC5/Filter.c ****     uint16 Filter_Read16(uint8 channel) 
 235:Generated_Source\PSoC5/Filter.c ****     {
 236:Generated_Source\PSoC5/Filter.c ****         uint16 val;
 237:Generated_Source\PSoC5/Filter.c ****     
 238:Generated_Source\PSoC5/Filter.c ****         if (channel == Filter_CHANNEL_A)
 239:Generated_Source\PSoC5/Filter.c ****         {        
 240:Generated_Source\PSoC5/Filter.c ****             val = Filter_HOLDAM_REG;
 241:Generated_Source\PSoC5/Filter.c ****             val |= (uint16)(Filter_HOLDAH_REG) << 8u;
 242:Generated_Source\PSoC5/Filter.c ****         }
 243:Generated_Source\PSoC5/Filter.c ****         else if (channel == Filter_CHANNEL_B)
 244:Generated_Source\PSoC5/Filter.c ****         {      
 245:Generated_Source\PSoC5/Filter.c ****             val = Filter_HOLDBM_REG;
 246:Generated_Source\PSoC5/Filter.c ****             val |= (uint16)Filter_HOLDBH_REG << 8u;
 247:Generated_Source\PSoC5/Filter.c ****         }
 248:Generated_Source\PSoC5/Filter.c ****         else
 249:Generated_Source\PSoC5/Filter.c ****         {
 250:Generated_Source\PSoC5/Filter.c ****             val = 0x0u;
 251:Generated_Source\PSoC5/Filter.c ****         }
 252:Generated_Source\PSoC5/Filter.c ****         return val;
 253:Generated_Source\PSoC5/Filter.c ****     }
 254:Generated_Source\PSoC5/Filter.c **** 
ARM GAS  C:\Users\Luggi\AppData\Local\Temp\ccmRzJJ5.s 			page 11


 255:Generated_Source\PSoC5/Filter.c **** #else
 256:Generated_Source\PSoC5/Filter.c **** 
 257:Generated_Source\PSoC5/Filter.c ****     uint16 Filter_Read16(uint8 channel) 
 258:Generated_Source\PSoC5/Filter.c ****     {
 309              		.loc 1 258 0
 310              		.cfi_startproc
 311              		@ args = 0, pretend = 0, frame = 0
 312              		@ frame_needed = 0, uses_anonymous_args = 0
 313              		@ link register save eliminated.
 314              	.LVL14:
 259:Generated_Source\PSoC5/Filter.c ****         uint16 val;
 260:Generated_Source\PSoC5/Filter.c **** 
 261:Generated_Source\PSoC5/Filter.c ****         if (channel == Filter_CHANNEL_A)
 315              		.loc 1 261 0
 316 0000 08B9     		cbnz	r0, .L25
 262:Generated_Source\PSoC5/Filter.c ****         {        
 263:Generated_Source\PSoC5/Filter.c ****             val = Filter_HOLDA16_REG;
 317              		.loc 1 263 0
 318 0002 054B     		ldr	r3, .L29
 319 0004 02E0     		b	.L28
 320              	.L25:
 264:Generated_Source\PSoC5/Filter.c ****         }
 265:Generated_Source\PSoC5/Filter.c ****         else if (channel == Filter_CHANNEL_B)
 321              		.loc 1 265 0
 322 0006 0128     		cmp	r0, #1
 323 0008 03D1     		bne	.L27
 266:Generated_Source\PSoC5/Filter.c ****         {      
 267:Generated_Source\PSoC5/Filter.c ****             val = Filter_HOLDB16_REG;
 324              		.loc 1 267 0
 325 000a 044B     		ldr	r3, .L29+4
 326              	.L28:
 327 000c 1888     		ldrh	r0, [r3]
 328              	.LVL15:
 329 000e 80B2     		uxth	r0, r0
 330              	.LVL16:
 331 0010 7047     		bx	lr
 332              	.LVL17:
 333              	.L27:
 268:Generated_Source\PSoC5/Filter.c ****         }
 269:Generated_Source\PSoC5/Filter.c ****         else
 270:Generated_Source\PSoC5/Filter.c ****         {
 271:Generated_Source\PSoC5/Filter.c ****             val = 0x0u;
 334              		.loc 1 271 0
 335 0012 0020     		movs	r0, #0
 336              	.LVL18:
 272:Generated_Source\PSoC5/Filter.c ****         }
 273:Generated_Source\PSoC5/Filter.c ****         return val;
 274:Generated_Source\PSoC5/Filter.c ****     }
 337              		.loc 1 274 0
 338 0014 7047     		bx	lr
 339              	.L30:
 340 0016 00BF     		.align	2
 341              	.L29:
 342 0018 A9C70040 		.word	1073792937
 343 001c ADC70040 		.word	1073792941
 344              		.cfi_endproc
 345              	.LFE5:
ARM GAS  C:\Users\Luggi\AppData\Local\Temp\ccmRzJJ5.s 			page 12


 346              		.size	Filter_Read16, .-Filter_Read16
 347              		.section	.text.Filter_Read24,"ax",%progbits
 348              		.align	1
 349              		.global	Filter_Read24
 350              		.thumb
 351              		.thumb_func
 352              		.type	Filter_Read24, %function
 353              	Filter_Read24:
 354              	.LFB6:
 275:Generated_Source\PSoC5/Filter.c **** 
 276:Generated_Source\PSoC5/Filter.c **** #endif /* defined(__C51__) || defined(__CX51__) */
 277:Generated_Source\PSoC5/Filter.c **** 
 278:Generated_Source\PSoC5/Filter.c **** 
 279:Generated_Source\PSoC5/Filter.c **** /*******************************************************************************
 280:Generated_Source\PSoC5/Filter.c **** * Function Name: Filter_Read24
 281:Generated_Source\PSoC5/Filter.c **** ********************************************************************************
 282:Generated_Source\PSoC5/Filter.c **** *
 283:Generated_Source\PSoC5/Filter.c **** * Summary:
 284:Generated_Source\PSoC5/Filter.c **** *  Get the value in one of the DFB Output Holding Registers 
 285:Generated_Source\PSoC5/Filter.c **** *
 286:Generated_Source\PSoC5/Filter.c **** * Parameters:  
 287:Generated_Source\PSoC5/Filter.c **** *  channel:  Filter_CHANNEL_A or Filter_CHANNEL_B
 288:Generated_Source\PSoC5/Filter.c **** *            
 289:Generated_Source\PSoC5/Filter.c **** * Return: 
 290:Generated_Source\PSoC5/Filter.c **** *  The current 24-bit output value sitting in the selected channel's
 291:Generated_Source\PSoC5/Filter.c **** *  holding register or 0x00000000 for invalid channel numbers
 292:Generated_Source\PSoC5/Filter.c **** *
 293:Generated_Source\PSoC5/Filter.c **** * Note:
 294:Generated_Source\PSoC5/Filter.c **** *  Order of the read is important.  On the read of the high byte, the DFB clears
 295:Generated_Source\PSoC5/Filter.c **** *  the data ready bit.
 296:Generated_Source\PSoC5/Filter.c **** *
 297:Generated_Source\PSoC5/Filter.c **** *******************************************************************************/
 298:Generated_Source\PSoC5/Filter.c **** #if defined(__C51__) || defined(__CX51__)
 299:Generated_Source\PSoC5/Filter.c **** 
 300:Generated_Source\PSoC5/Filter.c ****     uint32 Filter_Read24(uint8 channel) 
 301:Generated_Source\PSoC5/Filter.c ****     {
 302:Generated_Source\PSoC5/Filter.c ****         uint32 val;
 303:Generated_Source\PSoC5/Filter.c ****     
 304:Generated_Source\PSoC5/Filter.c ****         if (channel == Filter_CHANNEL_A)
 305:Generated_Source\PSoC5/Filter.c ****         {        
 306:Generated_Source\PSoC5/Filter.c ****             val = Filter_HOLDA_REG;
 307:Generated_Source\PSoC5/Filter.c ****             val |= (uint32)(Filter_HOLDAM_REG) << 8u;
 308:Generated_Source\PSoC5/Filter.c ****             val |= (uint32)(Filter_HOLDAH_REG) << 16u;
 309:Generated_Source\PSoC5/Filter.c ****             
 310:Generated_Source\PSoC5/Filter.c ****             /* SignExtend */
 311:Generated_Source\PSoC5/Filter.c ****             if((val & Filter_SIGN_BIT) == Filter_SIGN_BIT)
 312:Generated_Source\PSoC5/Filter.c ****             {    
 313:Generated_Source\PSoC5/Filter.c **** 				val |= Filter_SIGN_BYTE;
 314:Generated_Source\PSoC5/Filter.c **** 			}
 315:Generated_Source\PSoC5/Filter.c ****         }
 316:Generated_Source\PSoC5/Filter.c ****         else if (channel == Filter_CHANNEL_B)
 317:Generated_Source\PSoC5/Filter.c ****         {      
 318:Generated_Source\PSoC5/Filter.c ****             val = Filter_HOLDB_REG;
 319:Generated_Source\PSoC5/Filter.c ****             val |= (uint32)Filter_HOLDBM_REG << 8u;
 320:Generated_Source\PSoC5/Filter.c ****             val |= (uint32)Filter_HOLDBH_REG << 16u;
 321:Generated_Source\PSoC5/Filter.c ****             
 322:Generated_Source\PSoC5/Filter.c ****             /* SignExtend */
ARM GAS  C:\Users\Luggi\AppData\Local\Temp\ccmRzJJ5.s 			page 13


 323:Generated_Source\PSoC5/Filter.c ****             if((val & Filter_SIGN_BIT) == Filter_SIGN_BIT)
 324:Generated_Source\PSoC5/Filter.c ****             {
 325:Generated_Source\PSoC5/Filter.c **** 				val |= Filter_SIGN_BYTE;
 326:Generated_Source\PSoC5/Filter.c **** 			}
 327:Generated_Source\PSoC5/Filter.c ****         }
 328:Generated_Source\PSoC5/Filter.c ****         else
 329:Generated_Source\PSoC5/Filter.c ****         {
 330:Generated_Source\PSoC5/Filter.c ****             val = 0x0u;
 331:Generated_Source\PSoC5/Filter.c ****         }
 332:Generated_Source\PSoC5/Filter.c ****         return val;
 333:Generated_Source\PSoC5/Filter.c ****     }
 334:Generated_Source\PSoC5/Filter.c **** 
 335:Generated_Source\PSoC5/Filter.c **** #else
 336:Generated_Source\PSoC5/Filter.c **** 
 337:Generated_Source\PSoC5/Filter.c ****     uint32 Filter_Read24(uint8 channel) 
 338:Generated_Source\PSoC5/Filter.c ****     {
 355              		.loc 1 338 0
 356              		.cfi_startproc
 357              		@ args = 0, pretend = 0, frame = 0
 358              		@ frame_needed = 0, uses_anonymous_args = 0
 359              		@ link register save eliminated.
 360              	.LVL19:
 339:Generated_Source\PSoC5/Filter.c ****         uint32 val;
 340:Generated_Source\PSoC5/Filter.c ****          
 341:Generated_Source\PSoC5/Filter.c ****         if (channel == Filter_CHANNEL_A)
 361              		.loc 1 341 0
 362 0000 08B9     		cbnz	r0, .L32
 342:Generated_Source\PSoC5/Filter.c ****         {        
 343:Generated_Source\PSoC5/Filter.c ****             val = Filter_HOLDA24_REG;
 363              		.loc 1 343 0
 364 0002 044B     		ldr	r3, .L36
 365 0004 02E0     		b	.L35
 366              	.L32:
 344:Generated_Source\PSoC5/Filter.c ****         }
 345:Generated_Source\PSoC5/Filter.c ****         else if (channel == Filter_CHANNEL_B)
 367              		.loc 1 345 0
 368 0006 0128     		cmp	r0, #1
 369 0008 02D1     		bne	.L34
 346:Generated_Source\PSoC5/Filter.c ****         {      
 347:Generated_Source\PSoC5/Filter.c ****             val = Filter_HOLDB24_REG;
 370              		.loc 1 347 0
 371 000a 034B     		ldr	r3, .L36+4
 372              	.L35:
 373 000c 1868     		ldr	r0, [r3]
 374              	.LVL20:
 375 000e 7047     		bx	lr
 376              	.LVL21:
 377              	.L34:
 348:Generated_Source\PSoC5/Filter.c ****         }
 349:Generated_Source\PSoC5/Filter.c ****         else
 350:Generated_Source\PSoC5/Filter.c ****         {
 351:Generated_Source\PSoC5/Filter.c ****             val = 0x0u;
 378              		.loc 1 351 0
 379 0010 0020     		movs	r0, #0
 380              	.LVL22:
 352:Generated_Source\PSoC5/Filter.c ****         }
 353:Generated_Source\PSoC5/Filter.c ****         return val;
ARM GAS  C:\Users\Luggi\AppData\Local\Temp\ccmRzJJ5.s 			page 14


 354:Generated_Source\PSoC5/Filter.c ****     }
 381              		.loc 1 354 0
 382 0012 7047     		bx	lr
 383              	.L37:
 384              		.align	2
 385              	.L36:
 386 0014 A8C70040 		.word	1073792936
 387 0018 ACC70040 		.word	1073792940
 388              		.cfi_endproc
 389              	.LFE6:
 390              		.size	Filter_Read24, .-Filter_Read24
 391              		.section	.text.Filter_Write8,"ax",%progbits
 392              		.align	1
 393              		.global	Filter_Write8
 394              		.thumb
 395              		.thumb_func
 396              		.type	Filter_Write8, %function
 397              	Filter_Write8:
 398              	.LFB7:
 355:Generated_Source\PSoC5/Filter.c **** 
 356:Generated_Source\PSoC5/Filter.c **** #endif /* defined(__C51__) || defined(__CX51__) */
 357:Generated_Source\PSoC5/Filter.c **** 
 358:Generated_Source\PSoC5/Filter.c **** 
 359:Generated_Source\PSoC5/Filter.c **** /*******************************************************************************
 360:Generated_Source\PSoC5/Filter.c **** * Function Name: Filter_Write8
 361:Generated_Source\PSoC5/Filter.c **** ********************************************************************************
 362:Generated_Source\PSoC5/Filter.c **** *
 363:Generated_Source\PSoC5/Filter.c **** * Summary:
 364:Generated_Source\PSoC5/Filter.c **** *  Set the value in one of the DFB Input Staging Registers 
 365:Generated_Source\PSoC5/Filter.c **** *
 366:Generated_Source\PSoC5/Filter.c **** * Parameters:  
 367:Generated_Source\PSoC5/Filter.c **** *  channel:  Use either Filter_CHANNEL_A or 
 368:Generated_Source\PSoC5/Filter.c **** *            Filter_CHANNEL_B as arguments to the function.  
 369:Generated_Source\PSoC5/Filter.c **** *  sample:   The 8-bit, right justified input sample. 
 370:Generated_Source\PSoC5/Filter.c **** *
 371:Generated_Source\PSoC5/Filter.c **** * Return: 
 372:Generated_Source\PSoC5/Filter.c **** *  void
 373:Generated_Source\PSoC5/Filter.c **** *
 374:Generated_Source\PSoC5/Filter.c **** * Note:
 375:Generated_Source\PSoC5/Filter.c **** *  Order of the write is important.  On the load of the high byte, the DFB sets
 376:Generated_Source\PSoC5/Filter.c **** *  the input ready bit.
 377:Generated_Source\PSoC5/Filter.c **** *
 378:Generated_Source\PSoC5/Filter.c **** *******************************************************************************/
 379:Generated_Source\PSoC5/Filter.c **** void Filter_Write8(uint8 channel, uint8 sample) 
 380:Generated_Source\PSoC5/Filter.c **** {
 399              		.loc 1 380 0
 400              		.cfi_startproc
 401              		@ args = 0, pretend = 0, frame = 0
 402              		@ frame_needed = 0, uses_anonymous_args = 0
 403              		@ link register save eliminated.
 404              	.LVL23:
 381:Generated_Source\PSoC5/Filter.c ****     if (channel == Filter_CHANNEL_A)
 405              		.loc 1 381 0
 406 0000 08B9     		cbnz	r0, .L39
 382:Generated_Source\PSoC5/Filter.c ****     {
 383:Generated_Source\PSoC5/Filter.c ****         Filter_STAGEAH_REG = sample;
 407              		.loc 1 383 0
ARM GAS  C:\Users\Luggi\AppData\Local\Temp\ccmRzJJ5.s 			page 15


 408 0002 034B     		ldr	r3, .L42
 409 0004 02E0     		b	.L41
 410              	.L39:
 384:Generated_Source\PSoC5/Filter.c ****     }
 385:Generated_Source\PSoC5/Filter.c ****     else if (channel == Filter_CHANNEL_B)
 411              		.loc 1 385 0
 412 0006 0128     		cmp	r0, #1
 413 0008 01D1     		bne	.L38
 386:Generated_Source\PSoC5/Filter.c ****     {
 387:Generated_Source\PSoC5/Filter.c ****         Filter_STAGEBH_REG = sample;
 414              		.loc 1 387 0
 415 000a 024B     		ldr	r3, .L42+4
 416              	.L41:
 417 000c 1970     		strb	r1, [r3]
 418              	.L38:
 419 000e 7047     		bx	lr
 420              	.L43:
 421              		.align	2
 422              	.L42:
 423 0010 A2C70040 		.word	1073792930
 424 0014 A6C70040 		.word	1073792934
 425              		.cfi_endproc
 426              	.LFE7:
 427              		.size	Filter_Write8, .-Filter_Write8
 428              		.section	.text.Filter_Write16,"ax",%progbits
 429              		.align	1
 430              		.global	Filter_Write16
 431              		.thumb
 432              		.thumb_func
 433              		.type	Filter_Write16, %function
 434              	Filter_Write16:
 435              	.LFB8:
 388:Generated_Source\PSoC5/Filter.c ****     }
 389:Generated_Source\PSoC5/Filter.c **** 	else
 390:Generated_Source\PSoC5/Filter.c **** 	{
 391:Generated_Source\PSoC5/Filter.c **** 		/* No value is loaded on bad channel input */
 392:Generated_Source\PSoC5/Filter.c **** 	}
 393:Generated_Source\PSoC5/Filter.c **** }
 394:Generated_Source\PSoC5/Filter.c **** 
 395:Generated_Source\PSoC5/Filter.c **** 
 396:Generated_Source\PSoC5/Filter.c **** /*******************************************************************************
 397:Generated_Source\PSoC5/Filter.c **** * Function Name: Filter_Write16
 398:Generated_Source\PSoC5/Filter.c **** ********************************************************************************
 399:Generated_Source\PSoC5/Filter.c **** *
 400:Generated_Source\PSoC5/Filter.c **** * Summary:
 401:Generated_Source\PSoC5/Filter.c **** *  Set the value in one of the DFB Input Staging Registers 
 402:Generated_Source\PSoC5/Filter.c **** *
 403:Generated_Source\PSoC5/Filter.c **** * Parameters:  
 404:Generated_Source\PSoC5/Filter.c **** *  channel:  Use either Filter_CHANNEL_A or 
 405:Generated_Source\PSoC5/Filter.c **** *            Filter_CHANNEL_B as arguments to the function.  
 406:Generated_Source\PSoC5/Filter.c **** *  sample:   The 16-bit, right justified input sample. 
 407:Generated_Source\PSoC5/Filter.c **** *
 408:Generated_Source\PSoC5/Filter.c **** * Return: 
 409:Generated_Source\PSoC5/Filter.c **** *  void
 410:Generated_Source\PSoC5/Filter.c **** *
 411:Generated_Source\PSoC5/Filter.c **** * Note:
 412:Generated_Source\PSoC5/Filter.c **** *  Order of the write is important.  On the load of the high byte, the DFB sets
ARM GAS  C:\Users\Luggi\AppData\Local\Temp\ccmRzJJ5.s 			page 16


 413:Generated_Source\PSoC5/Filter.c **** *  the input ready bit.
 414:Generated_Source\PSoC5/Filter.c **** *
 415:Generated_Source\PSoC5/Filter.c **** *******************************************************************************/
 416:Generated_Source\PSoC5/Filter.c **** #if defined(__C51__) || defined(__CX51__)
 417:Generated_Source\PSoC5/Filter.c **** 
 418:Generated_Source\PSoC5/Filter.c ****     void Filter_Write16(uint8 channel, uint16 sample) 
 419:Generated_Source\PSoC5/Filter.c ****     {
 420:Generated_Source\PSoC5/Filter.c ****         /* Write the STAGE MSB reg last as it signals a complete wrote to the 
 421:Generated_Source\PSoC5/Filter.c ****            DFB.*/
 422:Generated_Source\PSoC5/Filter.c ****         if (channel == Filter_CHANNEL_A)
 423:Generated_Source\PSoC5/Filter.c ****         {
 424:Generated_Source\PSoC5/Filter.c ****             Filter_STAGEAM_REG = (uint8)(sample);
 425:Generated_Source\PSoC5/Filter.c ****             Filter_STAGEAH_REG = (uint8)(sample >> 8u);
 426:Generated_Source\PSoC5/Filter.c ****         }
 427:Generated_Source\PSoC5/Filter.c ****         else if (channel == Filter_CHANNEL_B)
 428:Generated_Source\PSoC5/Filter.c ****         {
 429:Generated_Source\PSoC5/Filter.c ****             Filter_STAGEBM_REG = (uint8)(sample);
 430:Generated_Source\PSoC5/Filter.c ****             Filter_STAGEBH_REG = (uint8)(sample >> 8u);
 431:Generated_Source\PSoC5/Filter.c ****         }
 432:Generated_Source\PSoC5/Filter.c ****         else
 433:Generated_Source\PSoC5/Filter.c **** 		{
 434:Generated_Source\PSoC5/Filter.c **** 			/* No value is loaded on bad channel input */
 435:Generated_Source\PSoC5/Filter.c **** 		}
 436:Generated_Source\PSoC5/Filter.c ****     }
 437:Generated_Source\PSoC5/Filter.c **** 
 438:Generated_Source\PSoC5/Filter.c **** #else
 439:Generated_Source\PSoC5/Filter.c **** 
 440:Generated_Source\PSoC5/Filter.c ****     void Filter_Write16(uint8 channel, uint16 sample) 
 441:Generated_Source\PSoC5/Filter.c ****     {
 436              		.loc 1 441 0
 437              		.cfi_startproc
 438              		@ args = 0, pretend = 0, frame = 0
 439              		@ frame_needed = 0, uses_anonymous_args = 0
 440              		@ link register save eliminated.
 441              	.LVL24:
 442:Generated_Source\PSoC5/Filter.c ****         if (channel == Filter_CHANNEL_A)
 442              		.loc 1 442 0
 443 0000 08B9     		cbnz	r0, .L45
 443:Generated_Source\PSoC5/Filter.c ****         {
 444:Generated_Source\PSoC5/Filter.c ****             Filter_STAGEA16_REG = sample;
 444              		.loc 1 444 0
 445 0002 044B     		ldr	r3, .L48
 446 0004 02E0     		b	.L47
 447              	.L45:
 445:Generated_Source\PSoC5/Filter.c ****         }
 446:Generated_Source\PSoC5/Filter.c ****         else if (channel == Filter_CHANNEL_B)
 448              		.loc 1 446 0
 449 0006 0128     		cmp	r0, #1
 450 0008 02D1     		bne	.L44
 447:Generated_Source\PSoC5/Filter.c ****         {
 448:Generated_Source\PSoC5/Filter.c ****             Filter_STAGEB16_REG = sample;
 451              		.loc 1 448 0
 452 000a 034B     		ldr	r3, .L48+4
 453              	.L47:
 454 000c 1A88     		ldrh	r2, [r3]
 455 000e 1980     		strh	r1, [r3]	@ movhi
 456              	.L44:
ARM GAS  C:\Users\Luggi\AppData\Local\Temp\ccmRzJJ5.s 			page 17


 457 0010 7047     		bx	lr
 458              	.L49:
 459 0012 00BF     		.align	2
 460              	.L48:
 461 0014 A1C70040 		.word	1073792929
 462 0018 A5C70040 		.word	1073792933
 463              		.cfi_endproc
 464              	.LFE8:
 465              		.size	Filter_Write16, .-Filter_Write16
 466              		.section	.text.Filter_Write24,"ax",%progbits
 467              		.align	1
 468              		.global	Filter_Write24
 469              		.thumb
 470              		.thumb_func
 471              		.type	Filter_Write24, %function
 472              	Filter_Write24:
 473              	.LFB9:
 449:Generated_Source\PSoC5/Filter.c ****         }
 450:Generated_Source\PSoC5/Filter.c ****         else
 451:Generated_Source\PSoC5/Filter.c **** 		{
 452:Generated_Source\PSoC5/Filter.c **** 			/* No value is loaded on bad channel input */
 453:Generated_Source\PSoC5/Filter.c **** 		}
 454:Generated_Source\PSoC5/Filter.c ****     }
 455:Generated_Source\PSoC5/Filter.c **** 
 456:Generated_Source\PSoC5/Filter.c **** #endif /* defined(__C51__) || defined(__CX51__) */
 457:Generated_Source\PSoC5/Filter.c **** 
 458:Generated_Source\PSoC5/Filter.c **** 
 459:Generated_Source\PSoC5/Filter.c **** /*******************************************************************************
 460:Generated_Source\PSoC5/Filter.c **** * Function Name: Filter_Write24
 461:Generated_Source\PSoC5/Filter.c **** ********************************************************************************
 462:Generated_Source\PSoC5/Filter.c **** *
 463:Generated_Source\PSoC5/Filter.c **** * Summary:
 464:Generated_Source\PSoC5/Filter.c **** *  Set the value in one of the DFB Input Staging Registers 
 465:Generated_Source\PSoC5/Filter.c **** *
 466:Generated_Source\PSoC5/Filter.c **** * Parameters:  
 467:Generated_Source\PSoC5/Filter.c **** *  channel:  Use either Filter_CHANNEL_A or 
 468:Generated_Source\PSoC5/Filter.c **** *            Filter_CHANNEL_B as arguments to the function.  
 469:Generated_Source\PSoC5/Filter.c **** *  sample:   The 24-bit, right justified input sample inside of a uint32. 
 470:Generated_Source\PSoC5/Filter.c **** *
 471:Generated_Source\PSoC5/Filter.c **** * Return: 
 472:Generated_Source\PSoC5/Filter.c **** *  void
 473:Generated_Source\PSoC5/Filter.c **** *
 474:Generated_Source\PSoC5/Filter.c **** * Note:
 475:Generated_Source\PSoC5/Filter.c **** *  Order of the write is important.  On the load of the high byte, the DFB sets
 476:Generated_Source\PSoC5/Filter.c **** *  the input ready bit.
 477:Generated_Source\PSoC5/Filter.c **** *
 478:Generated_Source\PSoC5/Filter.c **** *******************************************************************************/
 479:Generated_Source\PSoC5/Filter.c **** #if defined(__C51__) || defined(__CX51__)
 480:Generated_Source\PSoC5/Filter.c **** 
 481:Generated_Source\PSoC5/Filter.c ****     void Filter_Write24(uint8 channel, uint32 sample) 
 482:Generated_Source\PSoC5/Filter.c ****     {
 483:Generated_Source\PSoC5/Filter.c ****         /* Write the STAGE LSB reg last as it signals a complete wrote to 
 484:Generated_Source\PSoC5/Filter.c ****            the DFB.*/
 485:Generated_Source\PSoC5/Filter.c ****         if (channel == Filter_CHANNEL_A)
 486:Generated_Source\PSoC5/Filter.c ****         {
 487:Generated_Source\PSoC5/Filter.c ****             Filter_STAGEA_REG  = (uint8)(sample);
 488:Generated_Source\PSoC5/Filter.c ****             Filter_STAGEAM_REG = (uint8)(sample >> 8u);
ARM GAS  C:\Users\Luggi\AppData\Local\Temp\ccmRzJJ5.s 			page 18


 489:Generated_Source\PSoC5/Filter.c ****             Filter_STAGEAH_REG = (uint8)(sample >> 16u);
 490:Generated_Source\PSoC5/Filter.c ****         }
 491:Generated_Source\PSoC5/Filter.c ****         else if (channel == Filter_CHANNEL_B)
 492:Generated_Source\PSoC5/Filter.c ****         {
 493:Generated_Source\PSoC5/Filter.c ****             Filter_STAGEB_REG = (uint8)(sample);
 494:Generated_Source\PSoC5/Filter.c ****             Filter_STAGEBM_REG = (uint8)(sample >> 8u);
 495:Generated_Source\PSoC5/Filter.c ****             Filter_STAGEBH_REG = (uint8)(sample >> 16u);
 496:Generated_Source\PSoC5/Filter.c ****         }
 497:Generated_Source\PSoC5/Filter.c ****         else
 498:Generated_Source\PSoC5/Filter.c **** 		{
 499:Generated_Source\PSoC5/Filter.c **** 			/* No value is loaded on bad channel input */
 500:Generated_Source\PSoC5/Filter.c **** 		}
 501:Generated_Source\PSoC5/Filter.c ****     }
 502:Generated_Source\PSoC5/Filter.c **** 
 503:Generated_Source\PSoC5/Filter.c **** #else
 504:Generated_Source\PSoC5/Filter.c **** 
 505:Generated_Source\PSoC5/Filter.c ****     void Filter_Write24(uint8 channel, uint32 sample) 
 506:Generated_Source\PSoC5/Filter.c ****     {
 474              		.loc 1 506 0
 475              		.cfi_startproc
 476              		@ args = 0, pretend = 0, frame = 0
 477              		@ frame_needed = 0, uses_anonymous_args = 0
 478              		@ link register save eliminated.
 479              	.LVL25:
 507:Generated_Source\PSoC5/Filter.c ****         if (channel == Filter_CHANNEL_A)
 480              		.loc 1 507 0
 481 0000 08B9     		cbnz	r0, .L51
 508:Generated_Source\PSoC5/Filter.c ****         {
 509:Generated_Source\PSoC5/Filter.c ****             Filter_STAGEA24_REG = sample;
 482              		.loc 1 509 0
 483 0002 034B     		ldr	r3, .L54
 484 0004 02E0     		b	.L53
 485              	.L51:
 510:Generated_Source\PSoC5/Filter.c ****         }
 511:Generated_Source\PSoC5/Filter.c ****         else if (channel == Filter_CHANNEL_B)
 486              		.loc 1 511 0
 487 0006 0128     		cmp	r0, #1
 488 0008 01D1     		bne	.L50
 512:Generated_Source\PSoC5/Filter.c ****         {
 513:Generated_Source\PSoC5/Filter.c ****             Filter_STAGEB24_REG = sample;
 489              		.loc 1 513 0
 490 000a 024B     		ldr	r3, .L54+4
 491              	.L53:
 492 000c 1960     		str	r1, [r3]
 493              	.L50:
 494 000e 7047     		bx	lr
 495              	.L55:
 496              		.align	2
 497              	.L54:
 498 0010 A0C70040 		.word	1073792928
 499 0014 A4C70040 		.word	1073792932
 500              		.cfi_endproc
 501              	.LFE9:
 502              		.size	Filter_Write24, .-Filter_Write24
 503              		.section	.text.Filter_SetCoherency,"ax",%progbits
 504              		.align	1
 505              		.global	Filter_SetCoherency
ARM GAS  C:\Users\Luggi\AppData\Local\Temp\ccmRzJJ5.s 			page 19


 506              		.thumb
 507              		.thumb_func
 508              		.type	Filter_SetCoherency, %function
 509              	Filter_SetCoherency:
 510              	.LFB10:
 514:Generated_Source\PSoC5/Filter.c ****         }
 515:Generated_Source\PSoC5/Filter.c ****         else
 516:Generated_Source\PSoC5/Filter.c **** 		{
 517:Generated_Source\PSoC5/Filter.c **** 			/* No value is loaded on bad channel input */
 518:Generated_Source\PSoC5/Filter.c **** 		}
 519:Generated_Source\PSoC5/Filter.c ****     }
 520:Generated_Source\PSoC5/Filter.c **** 
 521:Generated_Source\PSoC5/Filter.c **** #endif /* defined(__C51__) || defined(__CX51__) */
 522:Generated_Source\PSoC5/Filter.c **** 
 523:Generated_Source\PSoC5/Filter.c **** 
 524:Generated_Source\PSoC5/Filter.c **** /*******************************************************************************
 525:Generated_Source\PSoC5/Filter.c **** * Function Name: Filter_SetCoherency
 526:Generated_Source\PSoC5/Filter.c **** ********************************************************************************
 527:Generated_Source\PSoC5/Filter.c **** *
 528:Generated_Source\PSoC5/Filter.c **** * Summary:
 529:Generated_Source\PSoC5/Filter.c **** *  Sets the DFB coherency register with the user provided input 
 530:Generated_Source\PSoC5/Filter.c **** *
 531:Generated_Source\PSoC5/Filter.c **** * Parameters:  
 532:Generated_Source\PSoC5/Filter.c **** *  channel:  Filter_CHANNEL_A or Filter_CHANNEL_B
 533:Generated_Source\PSoC5/Filter.c **** *  byteSelect:  High byte, Middle byte or Low byte as the key coherency byte.
 534:Generated_Source\PSoC5/Filter.c **** *            
 535:Generated_Source\PSoC5/Filter.c **** * Return: 
 536:Generated_Source\PSoC5/Filter.c **** *  None.
 537:Generated_Source\PSoC5/Filter.c **** *
 538:Generated_Source\PSoC5/Filter.c **** *******************************************************************************/
 539:Generated_Source\PSoC5/Filter.c **** void Filter_SetCoherency(uint8 channel, uint8 byteSelect) 
 540:Generated_Source\PSoC5/Filter.c **** {
 511              		.loc 1 540 0
 512              		.cfi_startproc
 513              		@ args = 0, pretend = 0, frame = 0
 514              		@ frame_needed = 0, uses_anonymous_args = 0
 515              		@ link register save eliminated.
 516              	.LVL26:
 541:Generated_Source\PSoC5/Filter.c ****     if (channel == Filter_CHANNEL_A)
 517              		.loc 1 541 0
 518 0000 58B9     		cbnz	r0, .L57
 542:Generated_Source\PSoC5/Filter.c ****     {
 543:Generated_Source\PSoC5/Filter.c ****         Filter_COHER_REG &= 
 519              		.loc 1 543 0
 520 0002 0F4B     		ldr	r3, .L60
 521 0004 1A78     		ldrb	r2, [r3]	@ zero_extendqisi2
 522 0006 02F0CC02 		and	r2, r2, #204
 523 000a 1A70     		strb	r2, [r3]
 544:Generated_Source\PSoC5/Filter.c ****                 (uint8)(~(uint8)(Filter_STAGEA_COHER_MASK | Filter_HOLDA_COHER_MASK));
 545:Generated_Source\PSoC5/Filter.c ****         Filter_COHER_REG |= byteSelect;
 524              		.loc 1 545 0
 525 000c 1A78     		ldrb	r2, [r3]	@ zero_extendqisi2
 526 000e 0A43     		orrs	r2, r2, r1
 527 0010 1A70     		strb	r2, [r3]
 546:Generated_Source\PSoC5/Filter.c ****         Filter_COHER_REG |= (uint8)((uint8)byteSelect << 4u);
 528              		.loc 1 546 0
 529 0012 1A78     		ldrb	r2, [r3]	@ zero_extendqisi2
ARM GAS  C:\Users\Luggi\AppData\Local\Temp\ccmRzJJ5.s 			page 20


 530 0014 42EA0111 		orr	r1, r2, r1, lsl #4
 531              	.LVL27:
 532 0018 0EE0     		b	.L59
 533              	.LVL28:
 534              	.L57:
 547:Generated_Source\PSoC5/Filter.c ****     }
 548:Generated_Source\PSoC5/Filter.c ****     else if (channel == Filter_CHANNEL_B)
 535              		.loc 1 548 0
 536 001a 0128     		cmp	r0, #1
 537 001c 0ED1     		bne	.L56
 549:Generated_Source\PSoC5/Filter.c ****     {
 550:Generated_Source\PSoC5/Filter.c ****         Filter_COHER_REG &= 
 538              		.loc 1 550 0
 539 001e 084B     		ldr	r3, .L60
 540 0020 1A78     		ldrb	r2, [r3]	@ zero_extendqisi2
 541 0022 02F03302 		and	r2, r2, #51
 542 0026 1A70     		strb	r2, [r3]
 551:Generated_Source\PSoC5/Filter.c ****                 (uint8)(~(uint8)(Filter_STAGEB_COHER_MASK | Filter_HOLDB_COHER_MASK));
 552:Generated_Source\PSoC5/Filter.c ****         Filter_COHER_REG |= (uint8)((uint8)byteSelect << 2u);
 543              		.loc 1 552 0
 544 0028 1A78     		ldrb	r2, [r3]	@ zero_extendqisi2
 545 002a 42EA8102 		orr	r2, r2, r1, lsl #2
 546 002e D2B2     		uxtb	r2, r2
 547 0030 1A70     		strb	r2, [r3]
 553:Generated_Source\PSoC5/Filter.c ****         Filter_COHER_REG |= (uint8)((uint8)byteSelect << 6u);
 548              		.loc 1 553 0
 549 0032 1A78     		ldrb	r2, [r3]	@ zero_extendqisi2
 550 0034 42EA8111 		orr	r1, r2, r1, lsl #6
 551              	.LVL29:
 552              	.L59:
 553 0038 C9B2     		uxtb	r1, r1
 554 003a 1970     		strb	r1, [r3]
 555              	.L56:
 556 003c 7047     		bx	lr
 557              	.L61:
 558 003e 00BF     		.align	2
 559              	.L60:
 560 0040 B0C70040 		.word	1073792944
 561              		.cfi_endproc
 562              	.LFE10:
 563              		.size	Filter_SetCoherency, .-Filter_SetCoherency
 564              		.section	.text.Filter_SetCoherencyEx,"ax",%progbits
 565              		.align	1
 566              		.global	Filter_SetCoherencyEx
 567              		.thumb
 568              		.thumb_func
 569              		.type	Filter_SetCoherencyEx, %function
 570              	Filter_SetCoherencyEx:
 571              	.LFB11:
 554:Generated_Source\PSoC5/Filter.c ****     }
 555:Generated_Source\PSoC5/Filter.c ****     else
 556:Generated_Source\PSoC5/Filter.c ****     {
 557:Generated_Source\PSoC5/Filter.c ****         /* Invalid channel value */
 558:Generated_Source\PSoC5/Filter.c ****     }
 559:Generated_Source\PSoC5/Filter.c **** }
 560:Generated_Source\PSoC5/Filter.c **** 
 561:Generated_Source\PSoC5/Filter.c **** 
ARM GAS  C:\Users\Luggi\AppData\Local\Temp\ccmRzJJ5.s 			page 21


 562:Generated_Source\PSoC5/Filter.c **** /*******************************************************************************
 563:Generated_Source\PSoC5/Filter.c **** * Function Name: Filter_SetCoherencyEx
 564:Generated_Source\PSoC5/Filter.c **** ********************************************************************************
 565:Generated_Source\PSoC5/Filter.c **** * 
 566:Generated_Source\PSoC5/Filter.c **** * Summary:
 567:Generated_Source\PSoC5/Filter.c **** *  Configures the DFB coherency register for each of the staging and holding 
 568:Generated_Source\PSoC5/Filter.c **** *  registers. Allows multiple registers with the same configuration to be set 
 569:Generated_Source\PSoC5/Filter.c **** *  at the same time. This API should be used when the coherency of the staging 
 570:Generated_Source\PSoC5/Filter.c **** *  and holding register of a channel is different. 
 571:Generated_Source\PSoC5/Filter.c **** *
 572:Generated_Source\PSoC5/Filter.c **** * Parameters:  
 573:Generated_Source\PSoC5/Filter.c **** *  regSelect: This parameter is used to specify the registers that will undergo
 574:Generated_Source\PSoC5/Filter.c **** *             the change in coherency. These are maskable and multiple registers
 575:Generated_Source\PSoC5/Filter.c **** *             with the same configuration can passed by performing an OR 
 576:Generated_Source\PSoC5/Filter.c **** *             operation on the following definitions. 
 577:Generated_Source\PSoC5/Filter.c **** *            Filter_STAGEA_COHER, 
 578:Generated_Source\PSoC5/Filter.c **** *            Filter_STAGEB_COHER,
 579:Generated_Source\PSoC5/Filter.c **** *            Filter_HOLDA_COHER,
 580:Generated_Source\PSoC5/Filter.c **** *            Filter_HOLDB_COHER.
 581:Generated_Source\PSoC5/Filter.c **** *  key: The key coherency byte that will be chosen for the register(s).
 582:Generated_Source\PSoC5/Filter.c **** *       Filter_KEY_LOW, 
 583:Generated_Source\PSoC5/Filter.c **** *       Filter_KEY_MID,
 584:Generated_Source\PSoC5/Filter.c **** *       Filter_KEY_HIGH.
 585:Generated_Source\PSoC5/Filter.c **** *            
 586:Generated_Source\PSoC5/Filter.c **** * Return: 
 587:Generated_Source\PSoC5/Filter.c **** *  None.
 588:Generated_Source\PSoC5/Filter.c **** *
 589:Generated_Source\PSoC5/Filter.c **** *******************************************************************************/
 590:Generated_Source\PSoC5/Filter.c **** void Filter_SetCoherencyEx(uint8 regSelect, uint8 key) 
 591:Generated_Source\PSoC5/Filter.c **** {
 572              		.loc 1 591 0
 573              		.cfi_startproc
 574              		@ args = 0, pretend = 0, frame = 0
 575              		@ frame_needed = 0, uses_anonymous_args = 0
 576              	.LVL30:
 577 0000 10B5     		push	{r4, lr}
 578              		.cfi_def_cfa_offset 8
 579              		.cfi_offset 4, -8
 580              		.cfi_offset 14, -4
 592:Generated_Source\PSoC5/Filter.c ****     uint8 keyReg;
 593:Generated_Source\PSoC5/Filter.c ****     
 594:Generated_Source\PSoC5/Filter.c ****     keyReg = (uint8)(key << 2u) | key;
 595:Generated_Source\PSoC5/Filter.c ****     keyReg |= (uint8)(keyReg << 4u);
 596:Generated_Source\PSoC5/Filter.c ****     
 597:Generated_Source\PSoC5/Filter.c ****     Filter_COHER_REG &= (uint8)~regSelect;
 581              		.loc 1 597 0
 582 0002 084B     		ldr	r3, .L63
 594:Generated_Source\PSoC5/Filter.c ****     keyReg |= (uint8)(keyReg << 4u);
 583              		.loc 1 594 0
 584 0004 41EA8101 		orr	r1, r1, r1, lsl #2
 585              	.LVL31:
 586              		.loc 1 597 0
 587 0008 1C78     		ldrb	r4, [r3]	@ zero_extendqisi2
 594:Generated_Source\PSoC5/Filter.c ****     keyReg |= (uint8)(keyReg << 4u);
 588              		.loc 1 594 0
 589 000a C9B2     		uxtb	r1, r1
 590              	.LVL32:
ARM GAS  C:\Users\Luggi\AppData\Local\Temp\ccmRzJJ5.s 			page 22


 591              		.loc 1 597 0
 592 000c 24EA0004 		bic	r4, r4, r0
 595:Generated_Source\PSoC5/Filter.c ****     
 593              		.loc 1 595 0
 594 0010 0A01     		lsls	r2, r1, #4
 595              		.loc 1 597 0
 596 0012 1C70     		strb	r4, [r3]
 595:Generated_Source\PSoC5/Filter.c ****     
 597              		.loc 1 595 0
 598 0014 D2B2     		uxtb	r2, r2
 599              	.LVL33:
 598:Generated_Source\PSoC5/Filter.c ****     Filter_COHER_REG |= keyReg & regSelect;
 600              		.loc 1 598 0
 601 0016 1C78     		ldrb	r4, [r3]	@ zero_extendqisi2
 595:Generated_Source\PSoC5/Filter.c ****     
 602              		.loc 1 595 0
 603 0018 1143     		orrs	r1, r1, r2
 604              	.LVL34:
 605              		.loc 1 598 0
 606 001a 0840     		ands	r0, r0, r1
 607              	.LVL35:
 608 001c 2043     		orrs	r0, r0, r4
 609 001e 1870     		strb	r0, [r3]
 610 0020 10BD     		pop	{r4, pc}
 611              	.L64:
 612 0022 00BF     		.align	2
 613              	.L63:
 614 0024 B0C70040 		.word	1073792944
 615              		.cfi_endproc
 616              	.LFE11:
 617              		.size	Filter_SetCoherencyEx, .-Filter_SetCoherencyEx
 618              		.section	.text.Filter_SetDalign,"ax",%progbits
 619              		.align	1
 620              		.global	Filter_SetDalign
 621              		.thumb
 622              		.thumb_func
 623              		.type	Filter_SetDalign, %function
 624              	Filter_SetDalign:
 625              	.LFB12:
 599:Generated_Source\PSoC5/Filter.c **** }
 600:Generated_Source\PSoC5/Filter.c **** 
 601:Generated_Source\PSoC5/Filter.c **** 
 602:Generated_Source\PSoC5/Filter.c **** /*******************************************************************************
 603:Generated_Source\PSoC5/Filter.c **** * Function Name: Filter_SetDalign
 604:Generated_Source\PSoC5/Filter.c **** ********************************************************************************
 605:Generated_Source\PSoC5/Filter.c **** * 
 606:Generated_Source\PSoC5/Filter.c **** * Summary:
 607:Generated_Source\PSoC5/Filter.c **** *  Configures the DFB dalign register for each of the staging and holding 
 608:Generated_Source\PSoC5/Filter.c **** *  registers. Allows multiple registers with the same configuration to be set
 609:Generated_Source\PSoC5/Filter.c **** *  at the same time. 
 610:Generated_Source\PSoC5/Filter.c **** *
 611:Generated_Source\PSoC5/Filter.c **** * Parameters:  
 612:Generated_Source\PSoC5/Filter.c **** *  regSelect: This parameter is used to specify the registers that will undergo
 613:Generated_Source\PSoC5/Filter.c **** *             the change in data alignment. These are maskable and multiple 
 614:Generated_Source\PSoC5/Filter.c **** *             registers with the same configuration can passed by performing 
 615:Generated_Source\PSoC5/Filter.c **** *             an OR operation on the following definitions.
 616:Generated_Source\PSoC5/Filter.c **** *             Filter_STAGEA_DALIGN, 
ARM GAS  C:\Users\Luggi\AppData\Local\Temp\ccmRzJJ5.s 			page 23


 617:Generated_Source\PSoC5/Filter.c **** *             Filter_STAGEB_DALIGN,
 618:Generated_Source\PSoC5/Filter.c **** *             Filter_HOLDA_DALIGN,
 619:Generated_Source\PSoC5/Filter.c **** *             Filter_HOLDB_DALIGN.
 620:Generated_Source\PSoC5/Filter.c **** *  state: The state is use to either enable the data alignment bits for the 
 621:Generated_Source\PSoC5/Filter.c **** *         corresponding registers or to disable them.
 622:Generated_Source\PSoC5/Filter.c **** *         Filter_ENABLED,
 623:Generated_Source\PSoC5/Filter.c **** *         Filter_DISABLED
 624:Generated_Source\PSoC5/Filter.c **** *            
 625:Generated_Source\PSoC5/Filter.c **** * Return: 
 626:Generated_Source\PSoC5/Filter.c **** *  None.
 627:Generated_Source\PSoC5/Filter.c **** *
 628:Generated_Source\PSoC5/Filter.c **** *******************************************************************************/
 629:Generated_Source\PSoC5/Filter.c **** void Filter_SetDalign(uint8 regSelect, uint8 state) 
 630:Generated_Source\PSoC5/Filter.c **** {    
 626              		.loc 1 630 0
 627              		.cfi_startproc
 628              		@ args = 0, pretend = 0, frame = 0
 629              		@ frame_needed = 0, uses_anonymous_args = 0
 630              		@ link register save eliminated.
 631              	.LVL36:
 631:Generated_Source\PSoC5/Filter.c ****     if (state == Filter_ENABLED)
 632              		.loc 1 631 0
 633 0000 0129     		cmp	r1, #1
 634 0002 03D1     		bne	.L66
 632:Generated_Source\PSoC5/Filter.c ****     {
 633:Generated_Source\PSoC5/Filter.c ****         Filter_DALIGN_REG |= regSelect;
 635              		.loc 1 633 0
 636 0004 054A     		ldr	r2, .L69
 637 0006 1378     		ldrb	r3, [r2]	@ zero_extendqisi2
 638 0008 1843     		orrs	r0, r0, r3
 639              	.LVL37:
 640 000a 04E0     		b	.L68
 641              	.LVL38:
 642              	.L66:
 634:Generated_Source\PSoC5/Filter.c ****     }
 635:Generated_Source\PSoC5/Filter.c ****     else if (state == Filter_DISABLED)
 643              		.loc 1 635 0
 644 000c 21B9     		cbnz	r1, .L65
 636:Generated_Source\PSoC5/Filter.c ****     {
 637:Generated_Source\PSoC5/Filter.c ****         Filter_DALIGN_REG &= (uint8)(~regSelect);
 645              		.loc 1 637 0
 646 000e 034A     		ldr	r2, .L69
 647 0010 1378     		ldrb	r3, [r2]	@ zero_extendqisi2
 648 0012 23EA0000 		bic	r0, r3, r0
 649              	.LVL39:
 650              	.L68:
 651 0016 1070     		strb	r0, [r2]
 652              	.L65:
 653 0018 7047     		bx	lr
 654              	.L70:
 655 001a 00BF     		.align	2
 656              	.L69:
 657 001c B4C70040 		.word	1073792948
 658              		.cfi_endproc
 659              	.LFE12:
 660              		.size	Filter_SetDalign, .-Filter_SetDalign
 661              		.global	Filter_initVar
ARM GAS  C:\Users\Luggi\AppData\Local\Temp\ccmRzJJ5.s 			page 24


 662              		.bss
 663              		.set	.LANCHOR0,. + 0
 664              		.type	Filter_initVar, %object
 665              		.size	Filter_initVar, 1
 666              	Filter_initVar:
 667 0000 00       		.space	1
 668              		.text
 669              	.Letext0:
 670              		.file 2 "Generated_Source\\PSoC5\\cytypes.h"
 671              		.file 3 "Generated_Source\\PSoC5\\Filter_PVT.h"