ARM GAS  C:\Users\Luggi\AppData\Local\Temp\ccenBbhe.s 			page 1


   1              		.syntax unified
   2              		.cpu cortex-m3
   3              		.fpu softvfp
   4              		.eabi_attribute 20, 1
   5              		.eabi_attribute 21, 1
   6              		.eabi_attribute 23, 3
   7              		.eabi_attribute 24, 1
   8              		.eabi_attribute 25, 1
   9              		.eabi_attribute 26, 1
  10              		.eabi_attribute 30, 4
  11              		.eabi_attribute 34, 1
  12              		.eabi_attribute 18, 4
  13              		.thumb
  14              		.file	"Filter_PM.c"
  15              		.text
  16              	.Ltext0:
  17              		.cfi_sections	.debug_frame
  18              		.section	.text.Filter_SaveConfig,"ax",%progbits
  19              		.align	1
  20              		.global	Filter_SaveConfig
  21              		.thumb
  22              		.thumb_func
  23              		.type	Filter_SaveConfig, %function
  24              	Filter_SaveConfig:
  25              	.LFB0:
  26              		.file 1 "Generated_Source\\PSoC5\\Filter_PM.c"
   1:Generated_Source\PSoC5/Filter_PM.c **** /*******************************************************************************
   2:Generated_Source\PSoC5/Filter_PM.c **** * File Name: Filter_PM.c
   3:Generated_Source\PSoC5/Filter_PM.c **** * Version 2.30
   4:Generated_Source\PSoC5/Filter_PM.c **** *
   5:Generated_Source\PSoC5/Filter_PM.c **** * Description:
   6:Generated_Source\PSoC5/Filter_PM.c **** *  This file provides the power managaer API source code for the FILT component.
   7:Generated_Source\PSoC5/Filter_PM.c **** *
   8:Generated_Source\PSoC5/Filter_PM.c **** * Note:
   9:Generated_Source\PSoC5/Filter_PM.c **** *  
  10:Generated_Source\PSoC5/Filter_PM.c **** *******************************************************************************
  11:Generated_Source\PSoC5/Filter_PM.c **** * Copyright 2008-2013, Cypress Semiconductor Corporation.  All rights reserved.
  12:Generated_Source\PSoC5/Filter_PM.c **** * You may use this file only in accordance with the license, terms, conditions, 
  13:Generated_Source\PSoC5/Filter_PM.c **** * disclaimers, and limitations in the end user license agreement accompanying 
  14:Generated_Source\PSoC5/Filter_PM.c **** * the software package with which this file was provided.
  15:Generated_Source\PSoC5/Filter_PM.c **** ********************************************************************************/
  16:Generated_Source\PSoC5/Filter_PM.c **** 
  17:Generated_Source\PSoC5/Filter_PM.c **** #include "Filter_PVT.h"
  18:Generated_Source\PSoC5/Filter_PM.c **** 
  19:Generated_Source\PSoC5/Filter_PM.c **** static Filter_backupStruct  Filter_backup = 
  20:Generated_Source\PSoC5/Filter_PM.c **** {
  21:Generated_Source\PSoC5/Filter_PM.c ****     Filter_DISABLED,
  22:Generated_Source\PSoC5/Filter_PM.c ****     Filter_RUN_MASK,
  23:Generated_Source\PSoC5/Filter_PM.c ****     
  24:Generated_Source\PSoC5/Filter_PM.c **** };
  25:Generated_Source\PSoC5/Filter_PM.c **** 
  26:Generated_Source\PSoC5/Filter_PM.c **** 
  27:Generated_Source\PSoC5/Filter_PM.c **** /*******************************************************************************
  28:Generated_Source\PSoC5/Filter_PM.c **** * Function Name: Filter_SaveConfig
  29:Generated_Source\PSoC5/Filter_PM.c **** ********************************************************************************
  30:Generated_Source\PSoC5/Filter_PM.c **** *
  31:Generated_Source\PSoC5/Filter_PM.c **** * Summary:
ARM GAS  C:\Users\Luggi\AppData\Local\Temp\ccenBbhe.s 			page 2


  32:Generated_Source\PSoC5/Filter_PM.c **** *  Saves the current user configuration.
  33:Generated_Source\PSoC5/Filter_PM.c **** *  
  34:Generated_Source\PSoC5/Filter_PM.c **** * Parameters:  
  35:Generated_Source\PSoC5/Filter_PM.c **** *  void
  36:Generated_Source\PSoC5/Filter_PM.c **** *
  37:Generated_Source\PSoC5/Filter_PM.c **** * Return: 
  38:Generated_Source\PSoC5/Filter_PM.c **** *  void
  39:Generated_Source\PSoC5/Filter_PM.c **** *
  40:Generated_Source\PSoC5/Filter_PM.c **** * Global variables:
  41:Generated_Source\PSoC5/Filter_PM.c **** *  Filter_backup:  This global structure variable is used to store 
  42:Generated_Source\PSoC5/Filter_PM.c **** *  configuration registers which are non retention whenever user wants to go 
  43:Generated_Source\PSoC5/Filter_PM.c **** *  sleep mode by calling Sleep() API.
  44:Generated_Source\PSoC5/Filter_PM.c **** *
  45:Generated_Source\PSoC5/Filter_PM.c **** *******************************************************************************/
  46:Generated_Source\PSoC5/Filter_PM.c **** void Filter_SaveConfig(void) 
  47:Generated_Source\PSoC5/Filter_PM.c **** {
  27              		.loc 1 47 0
  28              		.cfi_startproc
  29              		@ args = 0, pretend = 0, frame = 0
  30              		@ frame_needed = 0, uses_anonymous_args = 0
  31 0000 70B5     		push	{r4, r5, r6, lr}
  32              		.cfi_def_cfa_offset 16
  33              		.cfi_offset 4, -16
  34              		.cfi_offset 5, -12
  35              		.cfi_offset 6, -8
  36              		.cfi_offset 14, -4
  48:Generated_Source\PSoC5/Filter_PM.c ****     Filter_backup.sr = Filter_SR_REG;
  37              		.loc 1 48 0
  38 0002 0D4B     		ldr	r3, .L5
  49:Generated_Source\PSoC5/Filter_PM.c ****     Filter_backup.sema = Filter_SEMA_REG;
  50:Generated_Source\PSoC5/Filter_PM.c **** 
  51:Generated_Source\PSoC5/Filter_PM.c ****     /* Put DFB RAM on the bus */
  52:Generated_Source\PSoC5/Filter_PM.c ****     Filter_RAM_DIR_REG = Filter_RAM_DIR_BUS;
  39              		.loc 1 52 0
  40 0004 3F21     		movs	r1, #63
  48:Generated_Source\PSoC5/Filter_PM.c ****     Filter_backup.sr = Filter_SR_REG;
  41              		.loc 1 48 0
  42 0006 1A78     		ldrb	r2, [r3]	@ zero_extendqisi2
  43 0008 0C4B     		ldr	r3, .L5+4
  53:Generated_Source\PSoC5/Filter_PM.c **** 
  54:Generated_Source\PSoC5/Filter_PM.c ****     /* Save the ACU RAM as this is not retension */
  55:Generated_Source\PSoC5/Filter_PM.c ****     (void)memcpy(Filter_backup.saveAcu,
  44              		.loc 1 55 0
  45 000a 0D4D     		ldr	r5, .L5+8
  48:Generated_Source\PSoC5/Filter_PM.c ****     Filter_backup.sema = Filter_SEMA_REG;
  46              		.loc 1 48 0
  47 000c 9A70     		strb	r2, [r3, #2]
  49:Generated_Source\PSoC5/Filter_PM.c ****     Filter_backup.sema = Filter_SEMA_REG;
  48              		.loc 1 49 0
  49 000e 0D4A     		ldr	r2, .L5+12
  50              		.loc 1 55 0
  51 0010 0D4E     		ldr	r6, .L5+16
  49:Generated_Source\PSoC5/Filter_PM.c ****     Filter_backup.sema = Filter_SEMA_REG;
  52              		.loc 1 49 0
  53 0012 1278     		ldrb	r2, [r2]	@ zero_extendqisi2
  54              		.loc 1 55 0
  55 0014 0433     		adds	r3, r3, #4
ARM GAS  C:\Users\Luggi\AppData\Local\Temp\ccenBbhe.s 			page 3


  49:Generated_Source\PSoC5/Filter_PM.c ****     Filter_backup.sema = Filter_SEMA_REG;
  56              		.loc 1 49 0
  57 0016 03F8012C 		strb	r2, [r3, #-1]
  52:Generated_Source\PSoC5/Filter_PM.c **** 
  58              		.loc 1 52 0
  59 001a 0C4A     		ldr	r2, .L5+20
  60 001c 1446     		mov	r4, r2
  61 001e 1170     		strb	r1, [r2]
  62              	.L2:
  63              		.loc 1 55 0
  64 0020 2A46     		mov	r2, r5
  65 0022 03CA     		ldmia	r2!, {r0, r1}
  66 0024 B242     		cmp	r2, r6
  67 0026 1860     		str	r0, [r3]	@ unaligned
  68 0028 5960     		str	r1, [r3, #4]	@ unaligned
  69 002a 1546     		mov	r5, r2
  70 002c 03F10803 		add	r3, r3, #8
  71 0030 F6D1     		bne	.L2
  56:Generated_Source\PSoC5/Filter_PM.c ****         Filter_ACU_RAM, Filter_ACU_RAM_SIZE); 
  57:Generated_Source\PSoC5/Filter_PM.c **** 
  58:Generated_Source\PSoC5/Filter_PM.c ****     /* Take DFB RAM off the bus */
  59:Generated_Source\PSoC5/Filter_PM.c ****     Filter_RAM_DIR_REG = Filter_RAM_DIR_DFB;
  72              		.loc 1 59 0
  73 0032 0023     		movs	r3, #0
  74 0034 2370     		strb	r3, [r4]
  75 0036 70BD     		pop	{r4, r5, r6, pc}
  76              	.L6:
  77              		.align	2
  78              	.L5:
  79 0038 84C70040 		.word	1073792900
  80 003c 00000000 		.word	.LANCHOR0
  81 0040 00C70040 		.word	1073792768
  82 0044 90C70040 		.word	1073792912
  83 0048 40C70040 		.word	1073792832
  84 004c 8CC70040 		.word	1073792908
  85              		.cfi_endproc
  86              	.LFE0:
  87              		.size	Filter_SaveConfig, .-Filter_SaveConfig
  88              		.section	.text.Filter_RestoreConfig,"ax",%progbits
  89              		.align	1
  90              		.global	Filter_RestoreConfig
  91              		.thumb
  92              		.thumb_func
  93              		.type	Filter_RestoreConfig, %function
  94              	Filter_RestoreConfig:
  95              	.LFB1:
  60:Generated_Source\PSoC5/Filter_PM.c **** }
  61:Generated_Source\PSoC5/Filter_PM.c **** 
  62:Generated_Source\PSoC5/Filter_PM.c **** 
  63:Generated_Source\PSoC5/Filter_PM.c **** /*******************************************************************************
  64:Generated_Source\PSoC5/Filter_PM.c **** * Function Name: Filter_RestoreConfig
  65:Generated_Source\PSoC5/Filter_PM.c **** ********************************************************************************
  66:Generated_Source\PSoC5/Filter_PM.c **** *
  67:Generated_Source\PSoC5/Filter_PM.c **** * Summary:
  68:Generated_Source\PSoC5/Filter_PM.c **** *  Restores the current user configuration.
  69:Generated_Source\PSoC5/Filter_PM.c **** *
  70:Generated_Source\PSoC5/Filter_PM.c **** * Parameters:  
ARM GAS  C:\Users\Luggi\AppData\Local\Temp\ccenBbhe.s 			page 4


  71:Generated_Source\PSoC5/Filter_PM.c **** *  void
  72:Generated_Source\PSoC5/Filter_PM.c **** *
  73:Generated_Source\PSoC5/Filter_PM.c **** * Return: 
  74:Generated_Source\PSoC5/Filter_PM.c **** *  void
  75:Generated_Source\PSoC5/Filter_PM.c **** *
  76:Generated_Source\PSoC5/Filter_PM.c **** * Global variables:
  77:Generated_Source\PSoC5/Filter_PM.c **** *  Filter_backup:  This global structure variable is used to restore 
  78:Generated_Source\PSoC5/Filter_PM.c **** *  configuration registers which are non retention whenever user wants to switch 
  79:Generated_Source\PSoC5/Filter_PM.c **** *  to active power mode by calling Wakeup() API.
  80:Generated_Source\PSoC5/Filter_PM.c **** *
  81:Generated_Source\PSoC5/Filter_PM.c **** *******************************************************************************/
  82:Generated_Source\PSoC5/Filter_PM.c **** void Filter_RestoreConfig(void) 
  83:Generated_Source\PSoC5/Filter_PM.c **** {
  96              		.loc 1 83 0
  97              		.cfi_startproc
  98              		@ args = 0, pretend = 0, frame = 0
  99              		@ frame_needed = 0, uses_anonymous_args = 0
 100 0000 70B5     		push	{r4, r5, r6, lr}
 101              		.cfi_def_cfa_offset 16
 102              		.cfi_offset 4, -16
 103              		.cfi_offset 5, -12
 104              		.cfi_offset 6, -8
 105              		.cfi_offset 14, -4
  84:Generated_Source\PSoC5/Filter_PM.c ****     Filter_SR_REG = Filter_backup.sr;
 106              		.loc 1 84 0
 107 0002 0F4B     		ldr	r3, .L10
 108 0004 0F4A     		ldr	r2, .L10+4
 109 0006 9978     		ldrb	r1, [r3, #2]	@ zero_extendqisi2
  85:Generated_Source\PSoC5/Filter_PM.c ****     Filter_SEMA_REG = Filter_backup.sema;
  86:Generated_Source\PSoC5/Filter_PM.c ****     
  87:Generated_Source\PSoC5/Filter_PM.c ****     /* Power on DFB before initializing the RAMs */
  88:Generated_Source\PSoC5/Filter_PM.c ****     Filter_PM_ACT_CFG_REG |= Filter_PM_ACT_MSK;
  89:Generated_Source\PSoC5/Filter_PM.c **** 
  90:Generated_Source\PSoC5/Filter_PM.c ****     /* Put DFB RAM on the bus */
  91:Generated_Source\PSoC5/Filter_PM.c ****     Filter_RAM_DIR_REG = Filter_RAM_DIR_BUS;
  92:Generated_Source\PSoC5/Filter_PM.c **** 
  93:Generated_Source\PSoC5/Filter_PM.c ****     /* Restore ACU RAM as this is not retension */
  94:Generated_Source\PSoC5/Filter_PM.c ****     (void)memcpy(Filter_ACU_RAM,
 110              		.loc 1 94 0
 111 0008 0F4E     		ldr	r6, .L10+8
  84:Generated_Source\PSoC5/Filter_PM.c ****     Filter_SR_REG = Filter_backup.sr;
 112              		.loc 1 84 0
 113 000a 1170     		strb	r1, [r2]
  85:Generated_Source\PSoC5/Filter_PM.c ****     Filter_SEMA_REG = Filter_backup.sema;
 114              		.loc 1 85 0
 115 000c D978     		ldrb	r1, [r3, #3]	@ zero_extendqisi2
 116 000e 1173     		strb	r1, [r2, #12]
  88:Generated_Source\PSoC5/Filter_PM.c **** 
 117              		.loc 1 88 0
 118 0010 0E49     		ldr	r1, .L10+12
 119 0012 0A78     		ldrb	r2, [r1]	@ zero_extendqisi2
 120 0014 42F01002 		orr	r2, r2, #16
 121 0018 0A70     		strb	r2, [r1]
  91:Generated_Source\PSoC5/Filter_PM.c **** 
 122              		.loc 1 91 0
 123 001a 01F50341 		add	r1, r1, #33536
 124 001e E631     		adds	r1, r1, #230
ARM GAS  C:\Users\Luggi\AppData\Local\Temp\ccenBbhe.s 			page 5


 125 0020 0C46     		mov	r4, r1
 126 0022 3F22     		movs	r2, #63
 127 0024 0A70     		strb	r2, [r1]
 128              		.loc 1 94 0
 129 0026 1A1D     		adds	r2, r3, #4
 130 0028 4433     		adds	r3, r3, #68
 131              	.L8:
 132 002a 3546     		mov	r5, r6
 133 002c 1068     		ldr	r0, [r2]	@ unaligned
 134 002e 5168     		ldr	r1, [r2, #4]	@ unaligned
 135 0030 0832     		adds	r2, r2, #8
 136 0032 03C5     		stmia	r5!, {r0, r1}
 137 0034 9A42     		cmp	r2, r3
 138 0036 2E46     		mov	r6, r5
 139 0038 F7D1     		bne	.L8
  95:Generated_Source\PSoC5/Filter_PM.c ****         Filter_backup.saveAcu, Filter_ACU_RAM_SIZE); 
  96:Generated_Source\PSoC5/Filter_PM.c **** 
  97:Generated_Source\PSoC5/Filter_PM.c ****     /* Take DFB RAM off the bus */
  98:Generated_Source\PSoC5/Filter_PM.c ****     Filter_RAM_DIR_REG = Filter_RAM_DIR_DFB;
 140              		.loc 1 98 0
 141 003a 0023     		movs	r3, #0
 142 003c 2370     		strb	r3, [r4]
 143 003e 70BD     		pop	{r4, r5, r6, pc}
 144              	.L11:
 145              		.align	2
 146              	.L10:
 147 0040 00000000 		.word	.LANCHOR0
 148 0044 84C70040 		.word	1073792900
 149 0048 00C70040 		.word	1073792768
 150 004c A6430040 		.word	1073759142
 151              		.cfi_endproc
 152              	.LFE1:
 153              		.size	Filter_RestoreConfig, .-Filter_RestoreConfig
 154              		.section	.text.Filter_Sleep,"ax",%progbits
 155              		.align	1
 156              		.global	Filter_Sleep
 157              		.thumb
 158              		.thumb_func
 159              		.type	Filter_Sleep, %function
 160              	Filter_Sleep:
 161              	.LFB2:
  99:Generated_Source\PSoC5/Filter_PM.c **** }
 100:Generated_Source\PSoC5/Filter_PM.c **** 
 101:Generated_Source\PSoC5/Filter_PM.c **** 
 102:Generated_Source\PSoC5/Filter_PM.c **** /*******************************************************************************
 103:Generated_Source\PSoC5/Filter_PM.c **** * Function Name: Filter_Sleep
 104:Generated_Source\PSoC5/Filter_PM.c **** ********************************************************************************
 105:Generated_Source\PSoC5/Filter_PM.c **** *
 106:Generated_Source\PSoC5/Filter_PM.c **** * Summary:
 107:Generated_Source\PSoC5/Filter_PM.c **** *  Disables block's operation and saves its configuration. Should be called 
 108:Generated_Source\PSoC5/Filter_PM.c **** *  just prior to entering sleep.
 109:Generated_Source\PSoC5/Filter_PM.c **** *  
 110:Generated_Source\PSoC5/Filter_PM.c **** * Parameters:  
 111:Generated_Source\PSoC5/Filter_PM.c **** *  void
 112:Generated_Source\PSoC5/Filter_PM.c **** *
 113:Generated_Source\PSoC5/Filter_PM.c **** * Return: 
 114:Generated_Source\PSoC5/Filter_PM.c **** *  void
ARM GAS  C:\Users\Luggi\AppData\Local\Temp\ccenBbhe.s 			page 6


 115:Generated_Source\PSoC5/Filter_PM.c **** *
 116:Generated_Source\PSoC5/Filter_PM.c **** * Global variables:
 117:Generated_Source\PSoC5/Filter_PM.c **** *  Filter_backup:  The structure field 'enableState' is modified 
 118:Generated_Source\PSoC5/Filter_PM.c **** *  depending on the enable state of the block before entering to sleep mode.
 119:Generated_Source\PSoC5/Filter_PM.c **** *
 120:Generated_Source\PSoC5/Filter_PM.c **** *******************************************************************************/
 121:Generated_Source\PSoC5/Filter_PM.c **** void Filter_Sleep(void) 
 122:Generated_Source\PSoC5/Filter_PM.c **** {
 162              		.loc 1 122 0
 163              		.cfi_startproc
 164              		@ args = 0, pretend = 0, frame = 0
 165              		@ frame_needed = 0, uses_anonymous_args = 0
 166 0000 08B5     		push	{r3, lr}
 167              		.cfi_def_cfa_offset 8
 168              		.cfi_offset 3, -8
 169              		.cfi_offset 14, -4
 123:Generated_Source\PSoC5/Filter_PM.c ****     /* Save Filter enable state */
 124:Generated_Source\PSoC5/Filter_PM.c ****     if(Filter_PM_ACT_MSK == (Filter_PM_ACT_CFG_REG & Filter_PM_ACT_MSK))
 170              		.loc 1 124 0
 171 0002 094B     		ldr	r3, .L15
 172 0004 094A     		ldr	r2, .L15+4
 173 0006 1B78     		ldrb	r3, [r3]	@ zero_extendqisi2
 174 0008 03F01003 		and	r3, r3, #16
 175 000c 03F0FF01 		and	r1, r3, #255
 176 0010 13B1     		cbz	r3, .L13
 125:Generated_Source\PSoC5/Filter_PM.c ****     {
 126:Generated_Source\PSoC5/Filter_PM.c ****         /* Component is enabled */
 127:Generated_Source\PSoC5/Filter_PM.c ****         Filter_backup.enableState = Filter_ENABLED;
 177              		.loc 1 127 0
 178 0012 0123     		movs	r3, #1
 179 0014 1370     		strb	r3, [r2]
 180 0016 00E0     		b	.L14
 181              	.L13:
 128:Generated_Source\PSoC5/Filter_PM.c ****     }
 129:Generated_Source\PSoC5/Filter_PM.c ****     else
 130:Generated_Source\PSoC5/Filter_PM.c ****     {
 131:Generated_Source\PSoC5/Filter_PM.c ****         /* Component is disabled */
 132:Generated_Source\PSoC5/Filter_PM.c ****         Filter_backup.enableState = Filter_DISABLED;
 182              		.loc 1 132 0
 183 0018 1170     		strb	r1, [r2]
 184              	.L14:
 133:Generated_Source\PSoC5/Filter_PM.c ****     }
 134:Generated_Source\PSoC5/Filter_PM.c **** 
 135:Generated_Source\PSoC5/Filter_PM.c ****     /* Save the configuration */
 136:Generated_Source\PSoC5/Filter_PM.c ****     Filter_SaveConfig();
 185              		.loc 1 136 0
 186 001a FFF7FEFF 		bl	Filter_SaveConfig
 187              	.LVL0:
 137:Generated_Source\PSoC5/Filter_PM.c ****     
 138:Generated_Source\PSoC5/Filter_PM.c ****     /* Stop the component */
 139:Generated_Source\PSoC5/Filter_PM.c ****     Filter_Stop();
 140:Generated_Source\PSoC5/Filter_PM.c **** }
 188              		.loc 1 140 0
 189 001e BDE80840 		pop	{r3, lr}
 190              		.cfi_restore 14
 191              		.cfi_restore 3
 192              		.cfi_def_cfa_offset 0
ARM GAS  C:\Users\Luggi\AppData\Local\Temp\ccenBbhe.s 			page 7


 139:Generated_Source\PSoC5/Filter_PM.c **** }
 193              		.loc 1 139 0
 194 0022 FFF7FEBF 		b	Filter_Stop
 195              	.LVL1:
 196              	.L16:
 197 0026 00BF     		.align	2
 198              	.L15:
 199 0028 A6430040 		.word	1073759142
 200 002c 00000000 		.word	.LANCHOR0
 201              		.cfi_endproc
 202              	.LFE2:
 203              		.size	Filter_Sleep, .-Filter_Sleep
 204              		.section	.text.Filter_Wakeup,"ax",%progbits
 205              		.align	1
 206              		.global	Filter_Wakeup
 207              		.thumb
 208              		.thumb_func
 209              		.type	Filter_Wakeup, %function
 210              	Filter_Wakeup:
 211              	.LFB3:
 141:Generated_Source\PSoC5/Filter_PM.c **** 
 142:Generated_Source\PSoC5/Filter_PM.c **** 
 143:Generated_Source\PSoC5/Filter_PM.c **** /*******************************************************************************
 144:Generated_Source\PSoC5/Filter_PM.c **** * Function Name: Filter_Wakeup
 145:Generated_Source\PSoC5/Filter_PM.c **** ********************************************************************************
 146:Generated_Source\PSoC5/Filter_PM.c **** *
 147:Generated_Source\PSoC5/Filter_PM.c **** * Summary:
 148:Generated_Source\PSoC5/Filter_PM.c **** *  Enables block's operation and restores its configuration. Should be called
 149:Generated_Source\PSoC5/Filter_PM.c **** *  just after awaking from sleep.
 150:Generated_Source\PSoC5/Filter_PM.c **** *  
 151:Generated_Source\PSoC5/Filter_PM.c **** * Parameters:  
 152:Generated_Source\PSoC5/Filter_PM.c **** *  void
 153:Generated_Source\PSoC5/Filter_PM.c **** *
 154:Generated_Source\PSoC5/Filter_PM.c **** * Return: 
 155:Generated_Source\PSoC5/Filter_PM.c **** *  void
 156:Generated_Source\PSoC5/Filter_PM.c **** *
 157:Generated_Source\PSoC5/Filter_PM.c **** * Global variables:
 158:Generated_Source\PSoC5/Filter_PM.c **** *  Filter_backup:  The structure field 'enableState' is used to 
 159:Generated_Source\PSoC5/Filter_PM.c **** *  restore the enable state of block after wakeup from sleep mode.
 160:Generated_Source\PSoC5/Filter_PM.c **** *
 161:Generated_Source\PSoC5/Filter_PM.c **** *******************************************************************************/
 162:Generated_Source\PSoC5/Filter_PM.c **** void Filter_Wakeup(void) 
 163:Generated_Source\PSoC5/Filter_PM.c **** {
 212              		.loc 1 163 0
 213              		.cfi_startproc
 214              		@ args = 0, pretend = 0, frame = 0
 215              		@ frame_needed = 0, uses_anonymous_args = 0
 216 0000 08B5     		push	{r3, lr}
 217              		.cfi_def_cfa_offset 8
 218              		.cfi_offset 3, -8
 219              		.cfi_offset 14, -4
 164:Generated_Source\PSoC5/Filter_PM.c ****     /* Restore the configuration */
 165:Generated_Source\PSoC5/Filter_PM.c ****     Filter_RestoreConfig();
 220              		.loc 1 165 0
 221 0002 FFF7FEFF 		bl	Filter_RestoreConfig
 222              	.LVL2:
 166:Generated_Source\PSoC5/Filter_PM.c ****     
ARM GAS  C:\Users\Luggi\AppData\Local\Temp\ccenBbhe.s 			page 8


 167:Generated_Source\PSoC5/Filter_PM.c ****     /* Enable's the component operation */
 168:Generated_Source\PSoC5/Filter_PM.c ****     if(Filter_backup.enableState == Filter_ENABLED)
 223              		.loc 1 168 0
 224 0006 044B     		ldr	r3, .L19
 225 0008 1B78     		ldrb	r3, [r3]	@ zero_extendqisi2
 226 000a 012B     		cmp	r3, #1
 227 000c 03D1     		bne	.L17
 169:Generated_Source\PSoC5/Filter_PM.c ****     {
 170:Generated_Source\PSoC5/Filter_PM.c ****         Filter_Enable();
 171:Generated_Source\PSoC5/Filter_PM.c ****     } /* Do nothing if component was disable before */
 172:Generated_Source\PSoC5/Filter_PM.c **** }
 228              		.loc 1 172 0
 229 000e BDE80840 		pop	{r3, lr}
 230              		.cfi_remember_state
 231              		.cfi_restore 14
 232              		.cfi_restore 3
 233              		.cfi_def_cfa_offset 0
 170:Generated_Source\PSoC5/Filter_PM.c ****     } /* Do nothing if component was disable before */
 234              		.loc 1 170 0
 235 0012 FFF7FEBF 		b	Filter_Enable
 236              	.LVL3:
 237              	.L17:
 238              		.cfi_restore_state
 239 0016 08BD     		pop	{r3, pc}
 240              	.L20:
 241              		.align	2
 242              	.L19:
 243 0018 00000000 		.word	.LANCHOR0
 244              		.cfi_endproc
 245              	.LFE3:
 246              		.size	Filter_Wakeup, .-Filter_Wakeup
 247              		.data
 248              		.set	.LANCHOR0,. + 0
 249              		.type	Filter_backup, %object
 250              		.size	Filter_backup, 68
 251              	Filter_backup:
 252 0000 00       		.byte	0
 253 0001 01       		.byte	1
 254 0002 00000000 		.space	66
 254      00000000 
 254      00000000 
 254      00000000 
 254      00000000 
 255              		.text
 256              	.Letext0:
 257              		.file 2 "Generated_Source\\PSoC5\\cytypes.h"
 258              		.file 3 "Generated_Source\\PSoC5\\Filter.H"