ARM GAS  C:\Users\Luggi\AppData\Local\Temp\ccZUR7pg.s 			page 1


   1              		.syntax unified
   2              		.cpu cortex-m3
   3              		.fpu softvfp
   4              		.eabi_attribute 20, 1
   5              		.eabi_attribute 21, 1
   6              		.eabi_attribute 23, 3
   7              		.eabi_attribute 24, 1
   8              		.eabi_attribute 25, 1
   9              		.eabi_attribute 26, 1
  10              		.eabi_attribute 30, 4
  11              		.eabi_attribute 34, 1
  12              		.eabi_attribute 18, 4
  13              		.thumb
  14              		.file	"IDAC8_2.c"
  15              		.text
  16              	.Ltext0:
  17              		.cfi_sections	.debug_frame
  18              		.section	.text.IDAC8_2_Enable,"ax",%progbits
  19              		.align	1
  20              		.global	IDAC8_2_Enable
  21              		.thumb
  22              		.thumb_func
  23              		.type	IDAC8_2_Enable, %function
  24              	IDAC8_2_Enable:
  25              	.LFB1:
  26              		.file 1 "Generated_Source\\PSoC5\\IDAC8_2.c"
   1:Generated_Source\PSoC5/IDAC8_2.c **** /*******************************************************************************
   2:Generated_Source\PSoC5/IDAC8_2.c **** * File Name: IDAC8_2.c
   3:Generated_Source\PSoC5/IDAC8_2.c **** * Version 2.0
   4:Generated_Source\PSoC5/IDAC8_2.c **** *
   5:Generated_Source\PSoC5/IDAC8_2.c **** * Description:
   6:Generated_Source\PSoC5/IDAC8_2.c **** *  This file provides the source code to the API for the 8-bit Current 
   7:Generated_Source\PSoC5/IDAC8_2.c **** *  DAC (IDAC8) User Module.
   8:Generated_Source\PSoC5/IDAC8_2.c **** *
   9:Generated_Source\PSoC5/IDAC8_2.c **** * Note:
  10:Generated_Source\PSoC5/IDAC8_2.c **** *  None
  11:Generated_Source\PSoC5/IDAC8_2.c **** *
  12:Generated_Source\PSoC5/IDAC8_2.c **** ********************************************************************************
  13:Generated_Source\PSoC5/IDAC8_2.c **** * Copyright 2008-2012, Cypress Semiconductor Corporation.  All rights reserved.
  14:Generated_Source\PSoC5/IDAC8_2.c **** * You may use this file only in accordance with the license, terms, conditions, 
  15:Generated_Source\PSoC5/IDAC8_2.c **** * disclaimers, and limitations in the end user license agreement accompanying 
  16:Generated_Source\PSoC5/IDAC8_2.c **** * the software package with which this file was provided.
  17:Generated_Source\PSoC5/IDAC8_2.c **** *******************************************************************************/
  18:Generated_Source\PSoC5/IDAC8_2.c **** 
  19:Generated_Source\PSoC5/IDAC8_2.c **** #include "cytypes.h"
  20:Generated_Source\PSoC5/IDAC8_2.c **** #include "IDAC8_2.h"   
  21:Generated_Source\PSoC5/IDAC8_2.c **** 
  22:Generated_Source\PSoC5/IDAC8_2.c **** #if (CY_PSOC5A)
  23:Generated_Source\PSoC5/IDAC8_2.c ****     #include <CyLib.h>
  24:Generated_Source\PSoC5/IDAC8_2.c **** #endif /* CY_PSOC5A */
  25:Generated_Source\PSoC5/IDAC8_2.c **** 
  26:Generated_Source\PSoC5/IDAC8_2.c **** 
  27:Generated_Source\PSoC5/IDAC8_2.c **** uint8 IDAC8_2_initVar = 0u;
  28:Generated_Source\PSoC5/IDAC8_2.c **** 
  29:Generated_Source\PSoC5/IDAC8_2.c **** 
  30:Generated_Source\PSoC5/IDAC8_2.c **** #if (CY_PSOC5A)
  31:Generated_Source\PSoC5/IDAC8_2.c ****     static IDAC8_2_LOWPOWER_BACKUP_STRUCT  IDAC8_2_lowPowerBackup;
ARM GAS  C:\Users\Luggi\AppData\Local\Temp\ccZUR7pg.s 			page 2


  32:Generated_Source\PSoC5/IDAC8_2.c **** #endif /* CY_PSOC5A */
  33:Generated_Source\PSoC5/IDAC8_2.c **** 
  34:Generated_Source\PSoC5/IDAC8_2.c **** /* Variable to decide whether or not to restore control register in Enable()
  35:Generated_Source\PSoC5/IDAC8_2.c ****    API. This valid only for PSoC5A */
  36:Generated_Source\PSoC5/IDAC8_2.c **** #if (CY_PSOC5A)
  37:Generated_Source\PSoC5/IDAC8_2.c ****     static uint8 IDAC8_2_restoreReg = 0u;
  38:Generated_Source\PSoC5/IDAC8_2.c **** #endif /* CY_PSOC5A */
  39:Generated_Source\PSoC5/IDAC8_2.c **** 
  40:Generated_Source\PSoC5/IDAC8_2.c **** 
  41:Generated_Source\PSoC5/IDAC8_2.c **** /*******************************************************************************
  42:Generated_Source\PSoC5/IDAC8_2.c **** * Function Name: IDAC8_2_Init
  43:Generated_Source\PSoC5/IDAC8_2.c **** ********************************************************************************
  44:Generated_Source\PSoC5/IDAC8_2.c **** * Summary:
  45:Generated_Source\PSoC5/IDAC8_2.c **** *  Initialize to the schematic state.
  46:Generated_Source\PSoC5/IDAC8_2.c **** * 
  47:Generated_Source\PSoC5/IDAC8_2.c **** * Parameters:
  48:Generated_Source\PSoC5/IDAC8_2.c **** *  void:
  49:Generated_Source\PSoC5/IDAC8_2.c **** *
  50:Generated_Source\PSoC5/IDAC8_2.c **** * Return:
  51:Generated_Source\PSoC5/IDAC8_2.c **** *  (void)
  52:Generated_Source\PSoC5/IDAC8_2.c **** *
  53:Generated_Source\PSoC5/IDAC8_2.c **** * Theory:
  54:Generated_Source\PSoC5/IDAC8_2.c **** *
  55:Generated_Source\PSoC5/IDAC8_2.c **** * Side Effects:
  56:Generated_Source\PSoC5/IDAC8_2.c **** *
  57:Generated_Source\PSoC5/IDAC8_2.c **** *******************************************************************************/
  58:Generated_Source\PSoC5/IDAC8_2.c **** void IDAC8_2_Init(void) 
  59:Generated_Source\PSoC5/IDAC8_2.c **** {
  60:Generated_Source\PSoC5/IDAC8_2.c ****     IDAC8_2_CR0 = (IDAC8_2_MODE_I | IDAC8_2_DEFAULT_RANGE );
  61:Generated_Source\PSoC5/IDAC8_2.c **** 
  62:Generated_Source\PSoC5/IDAC8_2.c ****     /* Set default data source */
  63:Generated_Source\PSoC5/IDAC8_2.c ****     #if(IDAC8_2_DEFAULT_DATA_SRC != 0u )    
  64:Generated_Source\PSoC5/IDAC8_2.c ****         IDAC8_2_CR1 = (IDAC8_2_DEFAULT_CNTL | IDAC8_2_DACBUS_ENABLE);
  65:Generated_Source\PSoC5/IDAC8_2.c ****     #else
  66:Generated_Source\PSoC5/IDAC8_2.c ****         IDAC8_2_CR1 = (IDAC8_2_DEFAULT_CNTL | IDAC8_2_DACBUS_DISABLE);
  67:Generated_Source\PSoC5/IDAC8_2.c ****     #endif /* (IDAC8_2_DEFAULT_DATA_SRC != 0u ) */
  68:Generated_Source\PSoC5/IDAC8_2.c ****     
  69:Generated_Source\PSoC5/IDAC8_2.c ****     /*Controls polarity from UDB Control*/
  70:Generated_Source\PSoC5/IDAC8_2.c ****     #if(IDAC8_2_DEFAULT_POLARITY == IDAC8_2_HARDWARE_CONTROLLED)
  71:Generated_Source\PSoC5/IDAC8_2.c ****         IDAC8_2_CR1 |= IDAC8_2_IDIR_SRC_UDB;
  72:Generated_Source\PSoC5/IDAC8_2.c ****     #else
  73:Generated_Source\PSoC5/IDAC8_2.c ****         IDAC8_2_CR1 |= IDAC8_2_DEFAULT_POLARITY;
  74:Generated_Source\PSoC5/IDAC8_2.c ****     #endif/* (IDAC8_2_DEFAULT_POLARITY == IDAC8_2_HARDWARE_CONTROLLED) */
  75:Generated_Source\PSoC5/IDAC8_2.c ****     /*Controls Current Source from UDB Control*/
  76:Generated_Source\PSoC5/IDAC8_2.c ****     #if(IDAC8_2_HARDWARE_ENABLE != 0u ) 
  77:Generated_Source\PSoC5/IDAC8_2.c ****         IDAC8_2_CR1 |= IDAC8_2_IDIR_CTL_UDB;
  78:Generated_Source\PSoC5/IDAC8_2.c ****     #endif /* (IDAC8_2_HARDWARE_ENABLE != 0u ) */ 
  79:Generated_Source\PSoC5/IDAC8_2.c ****     
  80:Generated_Source\PSoC5/IDAC8_2.c ****     /* Set default strobe mode */
  81:Generated_Source\PSoC5/IDAC8_2.c ****     #if(IDAC8_2_DEFAULT_STRB != 0u)
  82:Generated_Source\PSoC5/IDAC8_2.c ****         IDAC8_2_Strobe |= IDAC8_2_STRB_EN;
  83:Generated_Source\PSoC5/IDAC8_2.c ****     #endif /* (IDAC8_2_DEFAULT_STRB != 0u) */
  84:Generated_Source\PSoC5/IDAC8_2.c ****     
  85:Generated_Source\PSoC5/IDAC8_2.c ****     /* Set default speed */
  86:Generated_Source\PSoC5/IDAC8_2.c ****     IDAC8_2_SetSpeed(IDAC8_2_DEFAULT_SPEED);
  87:Generated_Source\PSoC5/IDAC8_2.c ****     
  88:Generated_Source\PSoC5/IDAC8_2.c ****     /* Set proper DAC trim */
ARM GAS  C:\Users\Luggi\AppData\Local\Temp\ccZUR7pg.s 			page 3


  89:Generated_Source\PSoC5/IDAC8_2.c ****     IDAC8_2_DacTrim();
  90:Generated_Source\PSoC5/IDAC8_2.c ****     
  91:Generated_Source\PSoC5/IDAC8_2.c **** }
  92:Generated_Source\PSoC5/IDAC8_2.c **** 
  93:Generated_Source\PSoC5/IDAC8_2.c **** 
  94:Generated_Source\PSoC5/IDAC8_2.c **** /*******************************************************************************
  95:Generated_Source\PSoC5/IDAC8_2.c **** * Function Name: IDAC8_2_Enable
  96:Generated_Source\PSoC5/IDAC8_2.c **** ********************************************************************************
  97:Generated_Source\PSoC5/IDAC8_2.c **** * Summary:
  98:Generated_Source\PSoC5/IDAC8_2.c **** *  Enable the IDAC8
  99:Generated_Source\PSoC5/IDAC8_2.c **** * 
 100:Generated_Source\PSoC5/IDAC8_2.c **** * Parameters:
 101:Generated_Source\PSoC5/IDAC8_2.c **** *  void:
 102:Generated_Source\PSoC5/IDAC8_2.c **** *
 103:Generated_Source\PSoC5/IDAC8_2.c **** * Return:
 104:Generated_Source\PSoC5/IDAC8_2.c **** *  (void)
 105:Generated_Source\PSoC5/IDAC8_2.c **** *
 106:Generated_Source\PSoC5/IDAC8_2.c **** * Theory:
 107:Generated_Source\PSoC5/IDAC8_2.c **** *
 108:Generated_Source\PSoC5/IDAC8_2.c **** * Side Effects:
 109:Generated_Source\PSoC5/IDAC8_2.c **** *
 110:Generated_Source\PSoC5/IDAC8_2.c **** *******************************************************************************/
 111:Generated_Source\PSoC5/IDAC8_2.c **** void IDAC8_2_Enable(void) 
 112:Generated_Source\PSoC5/IDAC8_2.c **** {
  27              		.loc 1 112 0
  28              		.cfi_startproc
  29              		@ args = 0, pretend = 0, frame = 0
  30              		@ frame_needed = 0, uses_anonymous_args = 0
  31              		@ link register save eliminated.
 113:Generated_Source\PSoC5/IDAC8_2.c ****     IDAC8_2_PWRMGR |= IDAC8_2_ACT_PWR_EN;
  32              		.loc 1 113 0
  33 0000 044A     		ldr	r2, .L2
  34 0002 1378     		ldrb	r3, [r2]	@ zero_extendqisi2
  35 0004 43F00103 		orr	r3, r3, #1
  36 0008 1370     		strb	r3, [r2]
 114:Generated_Source\PSoC5/IDAC8_2.c ****     IDAC8_2_STBY_PWRMGR |= IDAC8_2_STBY_PWR_EN;
  37              		.loc 1 114 0
  38 000a 137C     		ldrb	r3, [r2, #16]	@ zero_extendqisi2
  39 000c 43F00103 		orr	r3, r3, #1
  40 0010 1374     		strb	r3, [r2, #16]
  41 0012 7047     		bx	lr
  42              	.L3:
  43              		.align	2
  44              	.L2:
  45 0014 A8430040 		.word	1073759144
  46              		.cfi_endproc
  47              	.LFE1:
  48              		.size	IDAC8_2_Enable, .-IDAC8_2_Enable
  49              		.section	.text.IDAC8_2_Stop,"ax",%progbits
  50              		.align	1
  51              		.global	IDAC8_2_Stop
  52              		.thumb
  53              		.thumb_func
  54              		.type	IDAC8_2_Stop, %function
  55              	IDAC8_2_Stop:
  56              	.LFB3:
 115:Generated_Source\PSoC5/IDAC8_2.c **** 
ARM GAS  C:\Users\Luggi\AppData\Local\Temp\ccZUR7pg.s 			page 4


 116:Generated_Source\PSoC5/IDAC8_2.c ****     /* This is to restore the value of register CR0 which is saved 
 117:Generated_Source\PSoC5/IDAC8_2.c ****       in prior to the modification in stop() API */
 118:Generated_Source\PSoC5/IDAC8_2.c ****     #if (CY_PSOC5A)
 119:Generated_Source\PSoC5/IDAC8_2.c ****         if(IDAC8_2_restoreReg == 1u)
 120:Generated_Source\PSoC5/IDAC8_2.c ****         {
 121:Generated_Source\PSoC5/IDAC8_2.c ****             IDAC8_2_CR0 = IDAC8_2_lowPowerBackup.DACCR0Reg;
 122:Generated_Source\PSoC5/IDAC8_2.c **** 
 123:Generated_Source\PSoC5/IDAC8_2.c ****             /* Clear the flag */
 124:Generated_Source\PSoC5/IDAC8_2.c ****             IDAC8_2_restoreReg = 0u;
 125:Generated_Source\PSoC5/IDAC8_2.c ****         }
 126:Generated_Source\PSoC5/IDAC8_2.c ****     #endif /* CY_PSOC5A */
 127:Generated_Source\PSoC5/IDAC8_2.c **** }
 128:Generated_Source\PSoC5/IDAC8_2.c **** 
 129:Generated_Source\PSoC5/IDAC8_2.c **** 
 130:Generated_Source\PSoC5/IDAC8_2.c **** /*******************************************************************************
 131:Generated_Source\PSoC5/IDAC8_2.c **** * Function Name: IDAC8_2_Start
 132:Generated_Source\PSoC5/IDAC8_2.c **** ********************************************************************************
 133:Generated_Source\PSoC5/IDAC8_2.c **** * Summary:
 134:Generated_Source\PSoC5/IDAC8_2.c **** *  Set power level then turn on IDAC8.
 135:Generated_Source\PSoC5/IDAC8_2.c **** *
 136:Generated_Source\PSoC5/IDAC8_2.c **** * Parameters:  
 137:Generated_Source\PSoC5/IDAC8_2.c **** *  power: Sets power level between off (0) and (3) high power
 138:Generated_Source\PSoC5/IDAC8_2.c **** *
 139:Generated_Source\PSoC5/IDAC8_2.c **** * Return:
 140:Generated_Source\PSoC5/IDAC8_2.c **** *  (void)
 141:Generated_Source\PSoC5/IDAC8_2.c **** *
 142:Generated_Source\PSoC5/IDAC8_2.c **** * Global variables:
 143:Generated_Source\PSoC5/IDAC8_2.c **** *  IDAC8_2_initVar: Is modified when this function is called for 
 144:Generated_Source\PSoC5/IDAC8_2.c **** *   the first time. Is used to ensure that initialization happens only once.
 145:Generated_Source\PSoC5/IDAC8_2.c **** *
 146:Generated_Source\PSoC5/IDAC8_2.c **** *******************************************************************************/
 147:Generated_Source\PSoC5/IDAC8_2.c **** void IDAC8_2_Start(void) 
 148:Generated_Source\PSoC5/IDAC8_2.c **** {
 149:Generated_Source\PSoC5/IDAC8_2.c ****     /* Hardware initiazation only needs to occur the first time */
 150:Generated_Source\PSoC5/IDAC8_2.c ****     if ( IDAC8_2_initVar == 0u)  
 151:Generated_Source\PSoC5/IDAC8_2.c ****     {
 152:Generated_Source\PSoC5/IDAC8_2.c ****         IDAC8_2_Init();
 153:Generated_Source\PSoC5/IDAC8_2.c ****         
 154:Generated_Source\PSoC5/IDAC8_2.c ****         IDAC8_2_initVar = 1u;
 155:Generated_Source\PSoC5/IDAC8_2.c ****     }
 156:Generated_Source\PSoC5/IDAC8_2.c ****    
 157:Generated_Source\PSoC5/IDAC8_2.c ****     /* Enable power to DAC */
 158:Generated_Source\PSoC5/IDAC8_2.c ****     IDAC8_2_Enable();
 159:Generated_Source\PSoC5/IDAC8_2.c **** 
 160:Generated_Source\PSoC5/IDAC8_2.c ****     /* Set default value */
 161:Generated_Source\PSoC5/IDAC8_2.c ****     IDAC8_2_SetValue(IDAC8_2_DEFAULT_DATA);
 162:Generated_Source\PSoC5/IDAC8_2.c **** 
 163:Generated_Source\PSoC5/IDAC8_2.c **** }
 164:Generated_Source\PSoC5/IDAC8_2.c **** 
 165:Generated_Source\PSoC5/IDAC8_2.c **** 
 166:Generated_Source\PSoC5/IDAC8_2.c **** /*******************************************************************************
 167:Generated_Source\PSoC5/IDAC8_2.c **** * Function Name: IDAC8_2_Stop
 168:Generated_Source\PSoC5/IDAC8_2.c **** ********************************************************************************
 169:Generated_Source\PSoC5/IDAC8_2.c **** * Summary:
 170:Generated_Source\PSoC5/IDAC8_2.c **** *  Powers down IDAC8 to lowest power state.
 171:Generated_Source\PSoC5/IDAC8_2.c **** *
 172:Generated_Source\PSoC5/IDAC8_2.c **** * Parameters:
ARM GAS  C:\Users\Luggi\AppData\Local\Temp\ccZUR7pg.s 			page 5


 173:Generated_Source\PSoC5/IDAC8_2.c **** *  (void)
 174:Generated_Source\PSoC5/IDAC8_2.c **** *
 175:Generated_Source\PSoC5/IDAC8_2.c **** * Return:
 176:Generated_Source\PSoC5/IDAC8_2.c **** *  (void)
 177:Generated_Source\PSoC5/IDAC8_2.c **** *
 178:Generated_Source\PSoC5/IDAC8_2.c **** * Theory:
 179:Generated_Source\PSoC5/IDAC8_2.c **** *
 180:Generated_Source\PSoC5/IDAC8_2.c **** * Side Effects:
 181:Generated_Source\PSoC5/IDAC8_2.c **** *
 182:Generated_Source\PSoC5/IDAC8_2.c **** *******************************************************************************/
 183:Generated_Source\PSoC5/IDAC8_2.c **** void IDAC8_2_Stop(void) 
 184:Generated_Source\PSoC5/IDAC8_2.c **** {
  57              		.loc 1 184 0
  58              		.cfi_startproc
  59              		@ args = 0, pretend = 0, frame = 0
  60              		@ frame_needed = 0, uses_anonymous_args = 0
  61              		@ link register save eliminated.
 185:Generated_Source\PSoC5/IDAC8_2.c ****     /* Disble power to DAC */
 186:Generated_Source\PSoC5/IDAC8_2.c ****     IDAC8_2_PWRMGR &= (uint8)(~IDAC8_2_ACT_PWR_EN);
  62              		.loc 1 186 0
  63 0000 044A     		ldr	r2, .L5
  64 0002 1378     		ldrb	r3, [r2]	@ zero_extendqisi2
  65 0004 03F0FE03 		and	r3, r3, #254
  66 0008 1370     		strb	r3, [r2]
 187:Generated_Source\PSoC5/IDAC8_2.c ****     IDAC8_2_STBY_PWRMGR &= (uint8)(~IDAC8_2_STBY_PWR_EN);
  67              		.loc 1 187 0
  68 000a 137C     		ldrb	r3, [r2, #16]	@ zero_extendqisi2
  69 000c 03F0FE03 		and	r3, r3, #254
  70 0010 1374     		strb	r3, [r2, #16]
  71 0012 7047     		bx	lr
  72              	.L6:
  73              		.align	2
  74              	.L5:
  75 0014 A8430040 		.word	1073759144
  76              		.cfi_endproc
  77              	.LFE3:
  78              		.size	IDAC8_2_Stop, .-IDAC8_2_Stop
  79              		.section	.text.IDAC8_2_SetSpeed,"ax",%progbits
  80              		.align	1
  81              		.global	IDAC8_2_SetSpeed
  82              		.thumb
  83              		.thumb_func
  84              		.type	IDAC8_2_SetSpeed, %function
  85              	IDAC8_2_SetSpeed:
  86              	.LFB4:
 188:Generated_Source\PSoC5/IDAC8_2.c ****     
 189:Generated_Source\PSoC5/IDAC8_2.c ****     #if (CY_PSOC5A)
 190:Generated_Source\PSoC5/IDAC8_2.c ****     
 191:Generated_Source\PSoC5/IDAC8_2.c ****         /* Set the global variable  */
 192:Generated_Source\PSoC5/IDAC8_2.c ****         IDAC8_2_restoreReg = 1u;
 193:Generated_Source\PSoC5/IDAC8_2.c **** 
 194:Generated_Source\PSoC5/IDAC8_2.c ****         /* Save the control register and then Clear it. */
 195:Generated_Source\PSoC5/IDAC8_2.c ****         IDAC8_2_lowPowerBackup.DACCR0Reg = IDAC8_2_CR0;
 196:Generated_Source\PSoC5/IDAC8_2.c ****         IDAC8_2_CR0 = (IDAC8_2_MODE_I | IDAC8_2_RANGE_3 | IDAC8_2_HS_HIGHSPEED);
 197:Generated_Source\PSoC5/IDAC8_2.c ****     #endif /* CY_PSOC5A */
 198:Generated_Source\PSoC5/IDAC8_2.c **** }
 199:Generated_Source\PSoC5/IDAC8_2.c **** 
ARM GAS  C:\Users\Luggi\AppData\Local\Temp\ccZUR7pg.s 			page 6


 200:Generated_Source\PSoC5/IDAC8_2.c **** 
 201:Generated_Source\PSoC5/IDAC8_2.c **** /*******************************************************************************
 202:Generated_Source\PSoC5/IDAC8_2.c **** * Function Name: IDAC8_2_SetSpeed
 203:Generated_Source\PSoC5/IDAC8_2.c **** ********************************************************************************
 204:Generated_Source\PSoC5/IDAC8_2.c **** * Summary:
 205:Generated_Source\PSoC5/IDAC8_2.c **** *  Set DAC speed
 206:Generated_Source\PSoC5/IDAC8_2.c **** *
 207:Generated_Source\PSoC5/IDAC8_2.c **** * Parameters:
 208:Generated_Source\PSoC5/IDAC8_2.c **** *  power: Sets speed value
 209:Generated_Source\PSoC5/IDAC8_2.c **** *
 210:Generated_Source\PSoC5/IDAC8_2.c **** * Return:
 211:Generated_Source\PSoC5/IDAC8_2.c **** *  (void)
 212:Generated_Source\PSoC5/IDAC8_2.c **** *
 213:Generated_Source\PSoC5/IDAC8_2.c **** * Theory:
 214:Generated_Source\PSoC5/IDAC8_2.c **** *
 215:Generated_Source\PSoC5/IDAC8_2.c **** * Side Effects:
 216:Generated_Source\PSoC5/IDAC8_2.c **** *
 217:Generated_Source\PSoC5/IDAC8_2.c **** *******************************************************************************/
 218:Generated_Source\PSoC5/IDAC8_2.c **** void IDAC8_2_SetSpeed(uint8 speed) 
 219:Generated_Source\PSoC5/IDAC8_2.c **** {
  87              		.loc 1 219 0
  88              		.cfi_startproc
  89              		@ args = 0, pretend = 0, frame = 0
  90              		@ frame_needed = 0, uses_anonymous_args = 0
  91              		@ link register save eliminated.
  92              	.LVL0:
 220:Generated_Source\PSoC5/IDAC8_2.c ****     /* Clear power mask then write in new value */
 221:Generated_Source\PSoC5/IDAC8_2.c ****     IDAC8_2_CR0 &= (uint8)(~IDAC8_2_HS_MASK);
  93              		.loc 1 221 0
  94 0000 054B     		ldr	r3, .L8
 222:Generated_Source\PSoC5/IDAC8_2.c ****     IDAC8_2_CR0 |=  ( speed & IDAC8_2_HS_MASK);
  95              		.loc 1 222 0
  96 0002 00F00200 		and	r0, r0, #2
  97              	.LVL1:
 221:Generated_Source\PSoC5/IDAC8_2.c ****     IDAC8_2_CR0 |=  ( speed & IDAC8_2_HS_MASK);
  98              		.loc 1 221 0
  99 0006 1A78     		ldrb	r2, [r3]	@ zero_extendqisi2
 100 0008 02F0FD02 		and	r2, r2, #253
 101 000c 1A70     		strb	r2, [r3]
 102              		.loc 1 222 0
 103 000e 1A78     		ldrb	r2, [r3]	@ zero_extendqisi2
 104 0010 1043     		orrs	r0, r0, r2
 105 0012 1870     		strb	r0, [r3]
 106 0014 7047     		bx	lr
 107              	.L9:
 108 0016 00BF     		.align	2
 109              	.L8:
 110 0018 20580040 		.word	1073764384
 111              		.cfi_endproc
 112              	.LFE4:
 113              		.size	IDAC8_2_SetSpeed, .-IDAC8_2_SetSpeed
 114              		.section	.text.IDAC8_2_SetValue,"ax",%progbits
 115              		.align	1
 116              		.global	IDAC8_2_SetValue
 117              		.thumb
 118              		.thumb_func
 119              		.type	IDAC8_2_SetValue, %function
ARM GAS  C:\Users\Luggi\AppData\Local\Temp\ccZUR7pg.s 			page 7


 120              	IDAC8_2_SetValue:
 121              	.LFB7:
 223:Generated_Source\PSoC5/IDAC8_2.c **** }
 224:Generated_Source\PSoC5/IDAC8_2.c **** 
 225:Generated_Source\PSoC5/IDAC8_2.c **** 
 226:Generated_Source\PSoC5/IDAC8_2.c **** /*******************************************************************************
 227:Generated_Source\PSoC5/IDAC8_2.c **** * Function Name: IDAC8_2_SetPolarity
 228:Generated_Source\PSoC5/IDAC8_2.c **** ********************************************************************************
 229:Generated_Source\PSoC5/IDAC8_2.c **** * Summary:
 230:Generated_Source\PSoC5/IDAC8_2.c **** *  Sets IDAC to Sink or Source current.
 231:Generated_Source\PSoC5/IDAC8_2.c **** *  
 232:Generated_Source\PSoC5/IDAC8_2.c **** * Parameters:
 233:Generated_Source\PSoC5/IDAC8_2.c **** *  Polarity: Sets the IDAC to Sink or Source 
 234:Generated_Source\PSoC5/IDAC8_2.c **** *  0x00 - Source
 235:Generated_Source\PSoC5/IDAC8_2.c **** *  0x04 - Sink
 236:Generated_Source\PSoC5/IDAC8_2.c **** *
 237:Generated_Source\PSoC5/IDAC8_2.c **** * Return:
 238:Generated_Source\PSoC5/IDAC8_2.c **** *  (void)
 239:Generated_Source\PSoC5/IDAC8_2.c **** *
 240:Generated_Source\PSoC5/IDAC8_2.c **** * Theory:
 241:Generated_Source\PSoC5/IDAC8_2.c **** *
 242:Generated_Source\PSoC5/IDAC8_2.c **** * Side Effects:
 243:Generated_Source\PSoC5/IDAC8_2.c **** *
 244:Generated_Source\PSoC5/IDAC8_2.c **** *******************************************************************************/
 245:Generated_Source\PSoC5/IDAC8_2.c **** #if(IDAC8_2_DEFAULT_POLARITY != IDAC8_2_HARDWARE_CONTROLLED)
 246:Generated_Source\PSoC5/IDAC8_2.c ****     void IDAC8_2_SetPolarity(uint8 polarity) 
 247:Generated_Source\PSoC5/IDAC8_2.c ****     {
 248:Generated_Source\PSoC5/IDAC8_2.c ****         IDAC8_2_CR1 &= (uint8)(~IDAC8_2_IDIR_MASK);                /* clear polarity bit */
 249:Generated_Source\PSoC5/IDAC8_2.c ****         IDAC8_2_CR1 |= (polarity & IDAC8_2_IDIR_MASK);             /* set new value */
 250:Generated_Source\PSoC5/IDAC8_2.c ****     
 251:Generated_Source\PSoC5/IDAC8_2.c ****         IDAC8_2_DacTrim();
 252:Generated_Source\PSoC5/IDAC8_2.c ****     }
 253:Generated_Source\PSoC5/IDAC8_2.c **** #endif/*(IDAC8_2_DEFAULT_POLARITY != IDAC8_2_HARDWARE_CONTROLLED)*/
 254:Generated_Source\PSoC5/IDAC8_2.c **** 
 255:Generated_Source\PSoC5/IDAC8_2.c **** 
 256:Generated_Source\PSoC5/IDAC8_2.c **** /*******************************************************************************
 257:Generated_Source\PSoC5/IDAC8_2.c **** * Function Name: IDAC8_2_SetRange
 258:Generated_Source\PSoC5/IDAC8_2.c **** ********************************************************************************
 259:Generated_Source\PSoC5/IDAC8_2.c **** * Summary:
 260:Generated_Source\PSoC5/IDAC8_2.c **** *  Set current range
 261:Generated_Source\PSoC5/IDAC8_2.c **** *
 262:Generated_Source\PSoC5/IDAC8_2.c **** * Parameters:
 263:Generated_Source\PSoC5/IDAC8_2.c **** *  Range: Sets on of four valid ranges.
 264:Generated_Source\PSoC5/IDAC8_2.c **** *
 265:Generated_Source\PSoC5/IDAC8_2.c **** * Return:
 266:Generated_Source\PSoC5/IDAC8_2.c **** *  (void)
 267:Generated_Source\PSoC5/IDAC8_2.c **** *
 268:Generated_Source\PSoC5/IDAC8_2.c **** * Theory:
 269:Generated_Source\PSoC5/IDAC8_2.c **** *
 270:Generated_Source\PSoC5/IDAC8_2.c **** * Side Effects:
 271:Generated_Source\PSoC5/IDAC8_2.c **** *
 272:Generated_Source\PSoC5/IDAC8_2.c **** *******************************************************************************/
 273:Generated_Source\PSoC5/IDAC8_2.c **** void IDAC8_2_SetRange(uint8 range) 
 274:Generated_Source\PSoC5/IDAC8_2.c **** {
 275:Generated_Source\PSoC5/IDAC8_2.c ****     IDAC8_2_CR0 &= (uint8)(~IDAC8_2_RANGE_MASK);       /* Clear existing mode */
 276:Generated_Source\PSoC5/IDAC8_2.c ****     IDAC8_2_CR0 |= ( range & IDAC8_2_RANGE_MASK );     /*  Set Range  */
 277:Generated_Source\PSoC5/IDAC8_2.c ****     IDAC8_2_DacTrim();
ARM GAS  C:\Users\Luggi\AppData\Local\Temp\ccZUR7pg.s 			page 8


 278:Generated_Source\PSoC5/IDAC8_2.c **** }
 279:Generated_Source\PSoC5/IDAC8_2.c **** 
 280:Generated_Source\PSoC5/IDAC8_2.c **** 
 281:Generated_Source\PSoC5/IDAC8_2.c **** /*******************************************************************************
 282:Generated_Source\PSoC5/IDAC8_2.c **** * Function Name: IDAC8_2_SetValue
 283:Generated_Source\PSoC5/IDAC8_2.c **** ********************************************************************************
 284:Generated_Source\PSoC5/IDAC8_2.c **** * Summary:
 285:Generated_Source\PSoC5/IDAC8_2.c **** *  Set DAC value
 286:Generated_Source\PSoC5/IDAC8_2.c **** *
 287:Generated_Source\PSoC5/IDAC8_2.c **** * Parameters:
 288:Generated_Source\PSoC5/IDAC8_2.c **** *  value: Sets DAC value between 0 and 255.
 289:Generated_Source\PSoC5/IDAC8_2.c **** *
 290:Generated_Source\PSoC5/IDAC8_2.c **** * Return:
 291:Generated_Source\PSoC5/IDAC8_2.c **** *  (void)
 292:Generated_Source\PSoC5/IDAC8_2.c **** *
 293:Generated_Source\PSoC5/IDAC8_2.c **** * Theory:
 294:Generated_Source\PSoC5/IDAC8_2.c **** *
 295:Generated_Source\PSoC5/IDAC8_2.c **** * Side Effects:
 296:Generated_Source\PSoC5/IDAC8_2.c **** *
 297:Generated_Source\PSoC5/IDAC8_2.c **** *******************************************************************************/
 298:Generated_Source\PSoC5/IDAC8_2.c **** void IDAC8_2_SetValue(uint8 value) 
 299:Generated_Source\PSoC5/IDAC8_2.c **** {
 122              		.loc 1 299 0
 123              		.cfi_startproc
 124              		@ args = 0, pretend = 0, frame = 0
 125              		@ frame_needed = 0, uses_anonymous_args = 0
 126              		@ link register save eliminated.
 127              	.LVL2:
 300:Generated_Source\PSoC5/IDAC8_2.c **** 
 301:Generated_Source\PSoC5/IDAC8_2.c ****     #if (CY_PSOC5A)
 302:Generated_Source\PSoC5/IDAC8_2.c ****         uint8 IDAC8_2_intrStatus = CyEnterCriticalSection();
 303:Generated_Source\PSoC5/IDAC8_2.c ****     #endif /* CY_PSOC5A */
 304:Generated_Source\PSoC5/IDAC8_2.c **** 
 305:Generated_Source\PSoC5/IDAC8_2.c ****     IDAC8_2_Data = value;         /*  Set Value  */
 128              		.loc 1 305 0
 129 0000 014B     		ldr	r3, .L11
 130 0002 1870     		strb	r0, [r3]
 131 0004 7047     		bx	lr
 132              	.L12:
 133 0006 00BF     		.align	2
 134              	.L11:
 135 0008 805B0040 		.word	1073765248
 136              		.cfi_endproc
 137              	.LFE7:
 138              		.size	IDAC8_2_SetValue, .-IDAC8_2_SetValue
 139              		.section	.text.IDAC8_2_DacTrim,"ax",%progbits
 140              		.align	1
 141              		.global	IDAC8_2_DacTrim
 142              		.thumb
 143              		.thumb_func
 144              		.type	IDAC8_2_DacTrim, %function
 145              	IDAC8_2_DacTrim:
 146              	.LFB8:
 306:Generated_Source\PSoC5/IDAC8_2.c ****     
 307:Generated_Source\PSoC5/IDAC8_2.c ****     /* PSOC5A silicons require a double write */
 308:Generated_Source\PSoC5/IDAC8_2.c ****     #if (CY_PSOC5A)
 309:Generated_Source\PSoC5/IDAC8_2.c ****         IDAC8_2_Data = value;
ARM GAS  C:\Users\Luggi\AppData\Local\Temp\ccZUR7pg.s 			page 9


 310:Generated_Source\PSoC5/IDAC8_2.c ****         CyExitCriticalSection(IDAC8_2_intrStatus);
 311:Generated_Source\PSoC5/IDAC8_2.c ****     #endif /* CY_PSOC5A */
 312:Generated_Source\PSoC5/IDAC8_2.c **** }
 313:Generated_Source\PSoC5/IDAC8_2.c **** 
 314:Generated_Source\PSoC5/IDAC8_2.c **** 
 315:Generated_Source\PSoC5/IDAC8_2.c **** /*******************************************************************************
 316:Generated_Source\PSoC5/IDAC8_2.c **** * Function Name: IDAC8_2_DacTrim
 317:Generated_Source\PSoC5/IDAC8_2.c **** ********************************************************************************
 318:Generated_Source\PSoC5/IDAC8_2.c **** * Summary:
 319:Generated_Source\PSoC5/IDAC8_2.c **** *  Set the trim value for the given range.
 320:Generated_Source\PSoC5/IDAC8_2.c **** *
 321:Generated_Source\PSoC5/IDAC8_2.c **** * Parameters:
 322:Generated_Source\PSoC5/IDAC8_2.c **** *  None
 323:Generated_Source\PSoC5/IDAC8_2.c **** *
 324:Generated_Source\PSoC5/IDAC8_2.c **** * Return:
 325:Generated_Source\PSoC5/IDAC8_2.c **** *  (void) 
 326:Generated_Source\PSoC5/IDAC8_2.c **** *
 327:Generated_Source\PSoC5/IDAC8_2.c **** * Theory:
 328:Generated_Source\PSoC5/IDAC8_2.c **** *  Trim values for the IDAC blocks are stored in the "Customer Table" area in 
 329:Generated_Source\PSoC5/IDAC8_2.c **** *  Row 1 of the Hidden Flash.  There are 8 bytes of trim data for each 
 330:Generated_Source\PSoC5/IDAC8_2.c **** *  IDAC block.
 331:Generated_Source\PSoC5/IDAC8_2.c **** *  The values are:
 332:Generated_Source\PSoC5/IDAC8_2.c **** *       I Gain offset, min range, Sourcing
 333:Generated_Source\PSoC5/IDAC8_2.c **** *       I Gain offset, min range, Sinking
 334:Generated_Source\PSoC5/IDAC8_2.c **** *       I Gain offset, med range, Sourcing
 335:Generated_Source\PSoC5/IDAC8_2.c **** *       I Gain offset, med range, Sinking
 336:Generated_Source\PSoC5/IDAC8_2.c **** *       I Gain offset, max range, Sourcing
 337:Generated_Source\PSoC5/IDAC8_2.c **** *       I Gain offset, max range, Sinking
 338:Generated_Source\PSoC5/IDAC8_2.c **** *       V Gain offset, 1V range
 339:Generated_Source\PSoC5/IDAC8_2.c **** *       V Gain offset, 4V range
 340:Generated_Source\PSoC5/IDAC8_2.c **** *
 341:Generated_Source\PSoC5/IDAC8_2.c **** * Side Effects:
 342:Generated_Source\PSoC5/IDAC8_2.c **** *
 343:Generated_Source\PSoC5/IDAC8_2.c **** *******************************************************************************/
 344:Generated_Source\PSoC5/IDAC8_2.c **** void IDAC8_2_DacTrim(void) 
 345:Generated_Source\PSoC5/IDAC8_2.c **** {
 147              		.loc 1 345 0
 148              		.cfi_startproc
 149              		@ args = 0, pretend = 0, frame = 0
 150              		@ frame_needed = 0, uses_anonymous_args = 0
 151              		@ link register save eliminated.
 346:Generated_Source\PSoC5/IDAC8_2.c ****     uint8 mode;
 347:Generated_Source\PSoC5/IDAC8_2.c **** 
 348:Generated_Source\PSoC5/IDAC8_2.c ****     mode = ((IDAC8_2_CR0 & IDAC8_2_RANGE_MASK) >> 1u);
 152              		.loc 1 348 0
 153 0000 084B     		ldr	r3, .L18
 349:Generated_Source\PSoC5/IDAC8_2.c ****     
 350:Generated_Source\PSoC5/IDAC8_2.c ****     if((IDAC8_2_IDIR_MASK & IDAC8_2_CR1) == IDAC8_2_IDIR_SINK)
 154              		.loc 1 350 0
 155 0002 094A     		ldr	r2, .L18+4
 348:Generated_Source\PSoC5/IDAC8_2.c ****     
 156              		.loc 1 348 0
 157 0004 1B78     		ldrb	r3, [r3]	@ zero_extendqisi2
 158              		.loc 1 350 0
 159 0006 1278     		ldrb	r2, [r2]	@ zero_extendqisi2
 348:Generated_Source\PSoC5/IDAC8_2.c ****     
 160              		.loc 1 348 0
ARM GAS  C:\Users\Luggi\AppData\Local\Temp\ccZUR7pg.s 			page 10


 161 0008 03F00C03 		and	r3, r3, #12
 162 000c 5B08     		lsrs	r3, r3, #1
 163              	.LVL3:
 164              		.loc 1 350 0
 165 000e 5207     		lsls	r2, r2, #29
 351:Generated_Source\PSoC5/IDAC8_2.c ****     {
 352:Generated_Source\PSoC5/IDAC8_2.c ****         mode++;
 166              		.loc 1 352 0
 167 0010 48BF     		it	mi
 168 0012 0133     		addmi	r3, r3, #1
 169              	.LVL4:
 353:Generated_Source\PSoC5/IDAC8_2.c ****     }
 354:Generated_Source\PSoC5/IDAC8_2.c **** 
 355:Generated_Source\PSoC5/IDAC8_2.c ****     IDAC8_2_TR = CY_GET_XTND_REG8((uint8 *)(IDAC8_2_DAC_TRIM_BASE + mode));
 170              		.loc 1 355 0
 171 0014 03F19243 		add	r3, r3, #1224736768
 172              	.LVL5:
 173 0018 93F82031 		ldrb	r3, [r3, #288]	@ zero_extendqisi2
 174              	.LVL6:
 175 001c 034A     		ldr	r2, .L18+8
 176 001e DBB2     		uxtb	r3, r3
 177 0020 1370     		strb	r3, [r2]
 178 0022 7047     		bx	lr
 179              	.L19:
 180              		.align	2
 181              	.L18:
 182 0024 20580040 		.word	1073764384
 183 0028 21580040 		.word	1073764385
 184 002c 08460040 		.word	1073759752
 185              		.cfi_endproc
 186              	.LFE8:
 187              		.size	IDAC8_2_DacTrim, .-IDAC8_2_DacTrim
 188              		.section	.text.IDAC8_2_Init,"ax",%progbits
 189              		.align	1
 190              		.global	IDAC8_2_Init
 191              		.thumb
 192              		.thumb_func
 193              		.type	IDAC8_2_Init, %function
 194              	IDAC8_2_Init:
 195              	.LFB0:
  59:Generated_Source\PSoC5/IDAC8_2.c ****     IDAC8_2_CR0 = (IDAC8_2_MODE_I | IDAC8_2_DEFAULT_RANGE );
 196              		.loc 1 59 0
 197              		.cfi_startproc
 198              		@ args = 0, pretend = 0, frame = 0
 199              		@ frame_needed = 0, uses_anonymous_args = 0
 200 0000 08B5     		push	{r3, lr}
 201              		.cfi_def_cfa_offset 8
 202              		.cfi_offset 3, -8
 203              		.cfi_offset 14, -4
  60:Generated_Source\PSoC5/IDAC8_2.c **** 
 204              		.loc 1 60 0
 205 0002 074B     		ldr	r3, .L21
 206 0004 1022     		movs	r2, #16
 207 0006 1A70     		strb	r2, [r3]
  66:Generated_Source\PSoC5/IDAC8_2.c ****     #endif /* (IDAC8_2_DEFAULT_DATA_SRC != 0u ) */
 208              		.loc 1 66 0
 209 0008 0022     		movs	r2, #0
ARM GAS  C:\Users\Luggi\AppData\Local\Temp\ccZUR7pg.s 			page 11


 210 000a 5A70     		strb	r2, [r3, #1]
  73:Generated_Source\PSoC5/IDAC8_2.c ****     #endif/* (IDAC8_2_DEFAULT_POLARITY == IDAC8_2_HARDWARE_CONTROLLED) */
 211              		.loc 1 73 0
 212 000c 5A78     		ldrb	r2, [r3, #1]	@ zero_extendqisi2
  86:Generated_Source\PSoC5/IDAC8_2.c ****     
 213              		.loc 1 86 0
 214 000e 0220     		movs	r0, #2
  73:Generated_Source\PSoC5/IDAC8_2.c ****     #endif/* (IDAC8_2_DEFAULT_POLARITY == IDAC8_2_HARDWARE_CONTROLLED) */
 215              		.loc 1 73 0
 216 0010 D2B2     		uxtb	r2, r2
 217 0012 5A70     		strb	r2, [r3, #1]
  86:Generated_Source\PSoC5/IDAC8_2.c ****     
 218              		.loc 1 86 0
 219 0014 FFF7FEFF 		bl	IDAC8_2_SetSpeed
 220              	.LVL7:
  91:Generated_Source\PSoC5/IDAC8_2.c **** 
 221              		.loc 1 91 0
 222 0018 BDE80840 		pop	{r3, lr}
 223              		.cfi_restore 14
 224              		.cfi_restore 3
 225              		.cfi_def_cfa_offset 0
  89:Generated_Source\PSoC5/IDAC8_2.c ****     
 226              		.loc 1 89 0
 227 001c FFF7FEBF 		b	IDAC8_2_DacTrim
 228              	.LVL8:
 229              	.L22:
 230              		.align	2
 231              	.L21:
 232 0020 20580040 		.word	1073764384
 233              		.cfi_endproc
 234              	.LFE0:
 235              		.size	IDAC8_2_Init, .-IDAC8_2_Init
 236              		.section	.text.IDAC8_2_Start,"ax",%progbits
 237              		.align	1
 238              		.global	IDAC8_2_Start
 239              		.thumb
 240              		.thumb_func
 241              		.type	IDAC8_2_Start, %function
 242              	IDAC8_2_Start:
 243              	.LFB2:
 148:Generated_Source\PSoC5/IDAC8_2.c ****     /* Hardware initiazation only needs to occur the first time */
 244              		.loc 1 148 0
 245              		.cfi_startproc
 246              		@ args = 0, pretend = 0, frame = 0
 247              		@ frame_needed = 0, uses_anonymous_args = 0
 248 0000 10B5     		push	{r4, lr}
 249              		.cfi_def_cfa_offset 8
 250              		.cfi_offset 4, -8
 251              		.cfi_offset 14, -4
 150:Generated_Source\PSoC5/IDAC8_2.c ****     {
 252              		.loc 1 150 0
 253 0002 064C     		ldr	r4, .L26
 254 0004 2378     		ldrb	r3, [r4]	@ zero_extendqisi2
 255 0006 1BB9     		cbnz	r3, .L24
 152:Generated_Source\PSoC5/IDAC8_2.c ****         
 256              		.loc 1 152 0
 257 0008 FFF7FEFF 		bl	IDAC8_2_Init
ARM GAS  C:\Users\Luggi\AppData\Local\Temp\ccZUR7pg.s 			page 12


 258              	.LVL9:
 154:Generated_Source\PSoC5/IDAC8_2.c ****     }
 259              		.loc 1 154 0
 260 000c 0123     		movs	r3, #1
 261 000e 2370     		strb	r3, [r4]
 262              	.L24:
 158:Generated_Source\PSoC5/IDAC8_2.c **** 
 263              		.loc 1 158 0
 264 0010 FFF7FEFF 		bl	IDAC8_2_Enable
 265              	.LVL10:
 266              	.LBB4:
 267              	.LBB5:
 305:Generated_Source\PSoC5/IDAC8_2.c ****     
 268              		.loc 1 305 0
 269 0014 024B     		ldr	r3, .L26+4
 270 0016 5022     		movs	r2, #80
 271 0018 1A70     		strb	r2, [r3]
 272 001a 10BD     		pop	{r4, pc}
 273              	.L27:
 274              		.align	2
 275              	.L26:
 276 001c 00000000 		.word	.LANCHOR0
 277 0020 805B0040 		.word	1073765248
 278              	.LBE5:
 279              	.LBE4:
 280              		.cfi_endproc
 281              	.LFE2:
 282              		.size	IDAC8_2_Start, .-IDAC8_2_Start
 283              		.section	.text.IDAC8_2_SetPolarity,"ax",%progbits
 284              		.align	1
 285              		.global	IDAC8_2_SetPolarity
 286              		.thumb
 287              		.thumb_func
 288              		.type	IDAC8_2_SetPolarity, %function
 289              	IDAC8_2_SetPolarity:
 290              	.LFB5:
 247:Generated_Source\PSoC5/IDAC8_2.c ****         IDAC8_2_CR1 &= (uint8)(~IDAC8_2_IDIR_MASK);                /* clear polarity bit */
 291              		.loc 1 247 0
 292              		.cfi_startproc
 293              		@ args = 0, pretend = 0, frame = 0
 294              		@ frame_needed = 0, uses_anonymous_args = 0
 295              		@ link register save eliminated.
 296              	.LVL11:
 248:Generated_Source\PSoC5/IDAC8_2.c ****         IDAC8_2_CR1 |= (polarity & IDAC8_2_IDIR_MASK);             /* set new value */
 297              		.loc 1 248 0
 298 0000 054B     		ldr	r3, .L29
 249:Generated_Source\PSoC5/IDAC8_2.c ****     
 299              		.loc 1 249 0
 300 0002 00F00400 		and	r0, r0, #4
 301              	.LVL12:
 248:Generated_Source\PSoC5/IDAC8_2.c ****         IDAC8_2_CR1 |= (polarity & IDAC8_2_IDIR_MASK);             /* set new value */
 302              		.loc 1 248 0
 303 0006 1A78     		ldrb	r2, [r3]	@ zero_extendqisi2
 304 0008 02F0FB02 		and	r2, r2, #251
 305 000c 1A70     		strb	r2, [r3]
 249:Generated_Source\PSoC5/IDAC8_2.c ****     
 306              		.loc 1 249 0
ARM GAS  C:\Users\Luggi\AppData\Local\Temp\ccZUR7pg.s 			page 13


 307 000e 1A78     		ldrb	r2, [r3]	@ zero_extendqisi2
 308 0010 1043     		orrs	r0, r0, r2
 309 0012 1870     		strb	r0, [r3]
 251:Generated_Source\PSoC5/IDAC8_2.c ****     }
 310              		.loc 1 251 0
 311 0014 FFF7FEBF 		b	IDAC8_2_DacTrim
 312              	.LVL13:
 313              	.L30:
 314              		.align	2
 315              	.L29:
 316 0018 21580040 		.word	1073764385
 317              		.cfi_endproc
 318              	.LFE5:
 319              		.size	IDAC8_2_SetPolarity, .-IDAC8_2_SetPolarity
 320              		.section	.text.IDAC8_2_SetRange,"ax",%progbits
 321              		.align	1
 322              		.global	IDAC8_2_SetRange
 323              		.thumb
 324              		.thumb_func
 325              		.type	IDAC8_2_SetRange, %function
 326              	IDAC8_2_SetRange:
 327              	.LFB6:
 274:Generated_Source\PSoC5/IDAC8_2.c ****     IDAC8_2_CR0 &= (uint8)(~IDAC8_2_RANGE_MASK);       /* Clear existing mode */
 328              		.loc 1 274 0
 329              		.cfi_startproc
 330              		@ args = 0, pretend = 0, frame = 0
 331              		@ frame_needed = 0, uses_anonymous_args = 0
 332              		@ link register save eliminated.
 333              	.LVL14:
 275:Generated_Source\PSoC5/IDAC8_2.c ****     IDAC8_2_CR0 |= ( range & IDAC8_2_RANGE_MASK );     /*  Set Range  */
 334              		.loc 1 275 0
 335 0000 054B     		ldr	r3, .L32
 276:Generated_Source\PSoC5/IDAC8_2.c ****     IDAC8_2_DacTrim();
 336              		.loc 1 276 0
 337 0002 00F00C00 		and	r0, r0, #12
 338              	.LVL15:
 275:Generated_Source\PSoC5/IDAC8_2.c ****     IDAC8_2_CR0 |= ( range & IDAC8_2_RANGE_MASK );     /*  Set Range  */
 339              		.loc 1 275 0
 340 0006 1A78     		ldrb	r2, [r3]	@ zero_extendqisi2
 341 0008 02F0F302 		and	r2, r2, #243
 342 000c 1A70     		strb	r2, [r3]
 276:Generated_Source\PSoC5/IDAC8_2.c ****     IDAC8_2_DacTrim();
 343              		.loc 1 276 0
 344 000e 1A78     		ldrb	r2, [r3]	@ zero_extendqisi2
 345 0010 1043     		orrs	r0, r0, r2
 346 0012 1870     		strb	r0, [r3]
 277:Generated_Source\PSoC5/IDAC8_2.c **** }
 347              		.loc 1 277 0
 348 0014 FFF7FEBF 		b	IDAC8_2_DacTrim
 349              	.LVL16:
 350              	.L33:
 351              		.align	2
 352              	.L32:
 353 0018 20580040 		.word	1073764384
 354              		.cfi_endproc
 355              	.LFE6:
 356              		.size	IDAC8_2_SetRange, .-IDAC8_2_SetRange
ARM GAS  C:\Users\Luggi\AppData\Local\Temp\ccZUR7pg.s 			page 14


 357              		.global	IDAC8_2_initVar
 358              		.bss
 359              		.set	.LANCHOR0,. + 0
 360              		.type	IDAC8_2_initVar, %object
 361              		.size	IDAC8_2_initVar, 1
 362              	IDAC8_2_initVar:
 363 0000 00       		.space	1
 364              		.text
 365              	.Letext0:
 366              		.file 2 "Generated_Source\\PSoC5\\cytypes.h"