ARM GAS  C:\Users\Luggi\AppData\Local\Temp\ccvcYNY5.s 			page 1


   1              		.syntax unified
   2              		.cpu cortex-m3
   3              		.fpu softvfp
   4              		.eabi_attribute 20, 1
   5              		.eabi_attribute 21, 1
   6              		.eabi_attribute 23, 3
   7              		.eabi_attribute 24, 1
   8              		.eabi_attribute 25, 1
   9              		.eabi_attribute 26, 1
  10              		.eabi_attribute 30, 4
  11              		.eabi_attribute 34, 1
  12              		.eabi_attribute 18, 4
  13              		.thumb
  14              		.file	"LCD.c"
  15              		.text
  16              	.Ltext0:
  17              		.cfi_sections	.debug_frame
  18              		.section	.text.LCD_WrCntrlNib,"ax",%progbits
  19              		.align	1
  20              		.thumb
  21              		.thumb_func
  22              		.type	LCD_WrCntrlNib, %function
  23              	LCD_WrCntrlNib:
  24              	.LFB11:
  25              		.file 1 "Generated_Source\\PSoC5\\LCD.c"
   1:Generated_Source\PSoC5/LCD.c **** /*******************************************************************************
   2:Generated_Source\PSoC5/LCD.c **** * File Name: LCD.c
   3:Generated_Source\PSoC5/LCD.c **** * Version 2.20
   4:Generated_Source\PSoC5/LCD.c **** *
   5:Generated_Source\PSoC5/LCD.c **** * Description:
   6:Generated_Source\PSoC5/LCD.c **** *  This file provides source code for the Character LCD component's API.
   7:Generated_Source\PSoC5/LCD.c **** *
   8:Generated_Source\PSoC5/LCD.c **** * Note:
   9:Generated_Source\PSoC5/LCD.c **** *
  10:Generated_Source\PSoC5/LCD.c **** ********************************************************************************
  11:Generated_Source\PSoC5/LCD.c **** * Copyright 2008-2014, Cypress Semiconductor Corporation.  All rights reserved.
  12:Generated_Source\PSoC5/LCD.c **** * You may use this file only in accordance with the license, terms, conditions,
  13:Generated_Source\PSoC5/LCD.c **** * disclaimers, and limitations in the end user license agreement accompanying
  14:Generated_Source\PSoC5/LCD.c **** * the software package with which this file was provided.
  15:Generated_Source\PSoC5/LCD.c **** *******************************************************************************/
  16:Generated_Source\PSoC5/LCD.c **** 
  17:Generated_Source\PSoC5/LCD.c **** #include "CyLib.h"
  18:Generated_Source\PSoC5/LCD.c **** #include "LCD.h"
  19:Generated_Source\PSoC5/LCD.c **** 
  20:Generated_Source\PSoC5/LCD.c **** 
  21:Generated_Source\PSoC5/LCD.c **** static void LCD_WrDatNib(uint8 nibble) ;
  22:Generated_Source\PSoC5/LCD.c **** static void LCD_WrCntrlNib(uint8 nibble) ;
  23:Generated_Source\PSoC5/LCD.c **** 
  24:Generated_Source\PSoC5/LCD.c **** /* Stores state of component. Indicates whether component is or not
  25:Generated_Source\PSoC5/LCD.c **** * in enable state.
  26:Generated_Source\PSoC5/LCD.c **** */
  27:Generated_Source\PSoC5/LCD.c **** uint8 LCD_enableState = 0u;
  28:Generated_Source\PSoC5/LCD.c **** 
  29:Generated_Source\PSoC5/LCD.c **** uint8 LCD_initVar = 0u;
  30:Generated_Source\PSoC5/LCD.c **** 
  31:Generated_Source\PSoC5/LCD.c **** 
  32:Generated_Source\PSoC5/LCD.c **** /*******************************************************************************
ARM GAS  C:\Users\Luggi\AppData\Local\Temp\ccvcYNY5.s 			page 2


  33:Generated_Source\PSoC5/LCD.c **** * Function Name: LCD_Init
  34:Generated_Source\PSoC5/LCD.c **** ********************************************************************************
  35:Generated_Source\PSoC5/LCD.c **** *
  36:Generated_Source\PSoC5/LCD.c **** * Summary:
  37:Generated_Source\PSoC5/LCD.c **** *  Performs initialization required for the components normal work.
  38:Generated_Source\PSoC5/LCD.c **** *  This function initializes the LCD hardware module as follows:
  39:Generated_Source\PSoC5/LCD.c **** *        Enables a 4-bit interface
  40:Generated_Source\PSoC5/LCD.c **** *        Clears the display
  41:Generated_Source\PSoC5/LCD.c **** *        Enables the auto cursor increment
  42:Generated_Source\PSoC5/LCD.c **** *        Resets the cursor to start position
  43:Generated_Source\PSoC5/LCD.c **** *  Also, it loads a custom character set to the LCD if it was defined in the customizer.
  44:Generated_Source\PSoC5/LCD.c **** *
  45:Generated_Source\PSoC5/LCD.c **** * Parameters:
  46:Generated_Source\PSoC5/LCD.c **** *  None.
  47:Generated_Source\PSoC5/LCD.c **** *
  48:Generated_Source\PSoC5/LCD.c **** * Return:
  49:Generated_Source\PSoC5/LCD.c **** *  None.
  50:Generated_Source\PSoC5/LCD.c **** *
  51:Generated_Source\PSoC5/LCD.c **** * Reentrant:
  52:Generated_Source\PSoC5/LCD.c **** *  No.
  53:Generated_Source\PSoC5/LCD.c **** *
  54:Generated_Source\PSoC5/LCD.c **** *******************************************************************************/
  55:Generated_Source\PSoC5/LCD.c **** void LCD_Init(void) 
  56:Generated_Source\PSoC5/LCD.c **** {
  57:Generated_Source\PSoC5/LCD.c ****     /* INIT CODE */
  58:Generated_Source\PSoC5/LCD.c ****     CyDelay(40u);                                                        /* Delay 40 ms */
  59:Generated_Source\PSoC5/LCD.c ****     LCD_WrCntrlNib(LCD_DISPLAY_8_BIT_INIT);    /* Selects 8-bit mode */
  60:Generated_Source\PSoC5/LCD.c ****     CyDelay(5u);                                                         /* Delay 5 ms */
  61:Generated_Source\PSoC5/LCD.c ****     LCD_WrCntrlNib(LCD_DISPLAY_8_BIT_INIT);    /* Selects 8-bit mode */
  62:Generated_Source\PSoC5/LCD.c ****     CyDelay(15u);                                                        /* Delay 15 ms */
  63:Generated_Source\PSoC5/LCD.c ****     LCD_WrCntrlNib(LCD_DISPLAY_8_BIT_INIT);    /* Selects 8-bit mode */
  64:Generated_Source\PSoC5/LCD.c ****     CyDelay(1u);                                                         /* Delay 1 ms */
  65:Generated_Source\PSoC5/LCD.c ****     LCD_WrCntrlNib(LCD_DISPLAY_4_BIT_INIT);    /* Selects 4-bit mode */
  66:Generated_Source\PSoC5/LCD.c ****     CyDelay(5u);                                                         /* Delay 5 ms */
  67:Generated_Source\PSoC5/LCD.c **** 
  68:Generated_Source\PSoC5/LCD.c ****     LCD_WriteControl(LCD_CURSOR_AUTO_INCR_ON);    /* Incr Cursor After Writes */
  69:Generated_Source\PSoC5/LCD.c ****     LCD_WriteControl(LCD_DISPLAY_CURSOR_ON);      /* Turn Display, Cursor ON */
  70:Generated_Source\PSoC5/LCD.c ****     LCD_WriteControl(LCD_DISPLAY_2_LINES_5x10);   /* 2 Lines by 5x10 Characters */
  71:Generated_Source\PSoC5/LCD.c ****     LCD_WriteControl(LCD_DISPLAY_CURSOR_OFF);     /* Turn Display, Cursor OFF */
  72:Generated_Source\PSoC5/LCD.c ****     LCD_WriteControl(LCD_CLEAR_DISPLAY);          /* Clear LCD Screen */
  73:Generated_Source\PSoC5/LCD.c ****     LCD_WriteControl(LCD_DISPLAY_ON_CURSOR_OFF);  /* Turn Display ON, Cursor OFF */
  74:Generated_Source\PSoC5/LCD.c ****     LCD_WriteControl(LCD_RESET_CURSOR_POSITION);  /* Set Cursor to 0,0 */
  75:Generated_Source\PSoC5/LCD.c ****     CyDelay(5u);
  76:Generated_Source\PSoC5/LCD.c **** 
  77:Generated_Source\PSoC5/LCD.c ****     #if(LCD_CUSTOM_CHAR_SET != LCD_NONE)
  78:Generated_Source\PSoC5/LCD.c ****         LCD_LoadCustomFonts(LCD_customFonts);
  79:Generated_Source\PSoC5/LCD.c ****     #endif /* LCD_CUSTOM_CHAR_SET != LCD_NONE */
  80:Generated_Source\PSoC5/LCD.c **** }
  81:Generated_Source\PSoC5/LCD.c **** 
  82:Generated_Source\PSoC5/LCD.c **** 
  83:Generated_Source\PSoC5/LCD.c **** /*******************************************************************************
  84:Generated_Source\PSoC5/LCD.c **** * Function Name: LCD_Enable
  85:Generated_Source\PSoC5/LCD.c **** ********************************************************************************
  86:Generated_Source\PSoC5/LCD.c **** *
  87:Generated_Source\PSoC5/LCD.c **** * Summary:
  88:Generated_Source\PSoC5/LCD.c **** *  Turns on the display.
  89:Generated_Source\PSoC5/LCD.c **** *
ARM GAS  C:\Users\Luggi\AppData\Local\Temp\ccvcYNY5.s 			page 3


  90:Generated_Source\PSoC5/LCD.c **** * Parameters:
  91:Generated_Source\PSoC5/LCD.c **** *  None.
  92:Generated_Source\PSoC5/LCD.c **** *
  93:Generated_Source\PSoC5/LCD.c **** * Return:
  94:Generated_Source\PSoC5/LCD.c **** *  None.
  95:Generated_Source\PSoC5/LCD.c **** *
  96:Generated_Source\PSoC5/LCD.c **** * Reentrant:
  97:Generated_Source\PSoC5/LCD.c **** *  No.
  98:Generated_Source\PSoC5/LCD.c **** *
  99:Generated_Source\PSoC5/LCD.c **** * Theory:
 100:Generated_Source\PSoC5/LCD.c **** *  This function has no effect when it is called the first time as
 101:Generated_Source\PSoC5/LCD.c **** *  LCD_Init() turns on the LCD.
 102:Generated_Source\PSoC5/LCD.c **** *
 103:Generated_Source\PSoC5/LCD.c **** *******************************************************************************/
 104:Generated_Source\PSoC5/LCD.c **** void LCD_Enable(void) 
 105:Generated_Source\PSoC5/LCD.c **** {
 106:Generated_Source\PSoC5/LCD.c ****     LCD_DisplayOn();
 107:Generated_Source\PSoC5/LCD.c ****     LCD_enableState = 1u;
 108:Generated_Source\PSoC5/LCD.c **** }
 109:Generated_Source\PSoC5/LCD.c **** 
 110:Generated_Source\PSoC5/LCD.c **** 
 111:Generated_Source\PSoC5/LCD.c **** /*******************************************************************************
 112:Generated_Source\PSoC5/LCD.c **** * Function Name: LCD_Start
 113:Generated_Source\PSoC5/LCD.c **** ********************************************************************************
 114:Generated_Source\PSoC5/LCD.c **** *
 115:Generated_Source\PSoC5/LCD.c **** * Summary:
 116:Generated_Source\PSoC5/LCD.c **** *  Performs initialization required for the components normal work.
 117:Generated_Source\PSoC5/LCD.c **** *  This function initializes the LCD hardware module as follows:
 118:Generated_Source\PSoC5/LCD.c **** *        Enables 4-bit interface
 119:Generated_Source\PSoC5/LCD.c **** *        Clears the display
 120:Generated_Source\PSoC5/LCD.c **** *        Enables auto cursor increment
 121:Generated_Source\PSoC5/LCD.c **** *        Resets the cursor to start position
 122:Generated_Source\PSoC5/LCD.c **** *  Also, it loads a custom character set to the LCD if it was defined in the customizer.
 123:Generated_Source\PSoC5/LCD.c **** *  If it was not the first call in this project, then it just turns on the
 124:Generated_Source\PSoC5/LCD.c **** *  display
 125:Generated_Source\PSoC5/LCD.c **** *
 126:Generated_Source\PSoC5/LCD.c **** *
 127:Generated_Source\PSoC5/LCD.c **** * Parameters:
 128:Generated_Source\PSoC5/LCD.c **** *  LCD_initVar - global variable.
 129:Generated_Source\PSoC5/LCD.c **** *
 130:Generated_Source\PSoC5/LCD.c **** * Return:
 131:Generated_Source\PSoC5/LCD.c **** *  LCD_initVar - global variable.
 132:Generated_Source\PSoC5/LCD.c **** *
 133:Generated_Source\PSoC5/LCD.c **** * Reentrant:
 134:Generated_Source\PSoC5/LCD.c **** *  No.
 135:Generated_Source\PSoC5/LCD.c **** *
 136:Generated_Source\PSoC5/LCD.c **** *******************************************************************************/
 137:Generated_Source\PSoC5/LCD.c **** void LCD_Start(void) 
 138:Generated_Source\PSoC5/LCD.c **** {
 139:Generated_Source\PSoC5/LCD.c ****     /* If not initialized, perform initialization */
 140:Generated_Source\PSoC5/LCD.c ****     if(LCD_initVar == 0u)
 141:Generated_Source\PSoC5/LCD.c ****     {
 142:Generated_Source\PSoC5/LCD.c ****         LCD_Init();
 143:Generated_Source\PSoC5/LCD.c ****         LCD_initVar = 1u;
 144:Generated_Source\PSoC5/LCD.c ****     }
 145:Generated_Source\PSoC5/LCD.c **** 
 146:Generated_Source\PSoC5/LCD.c ****     /* Turn on the LCD */
ARM GAS  C:\Users\Luggi\AppData\Local\Temp\ccvcYNY5.s 			page 4


 147:Generated_Source\PSoC5/LCD.c ****     LCD_Enable();
 148:Generated_Source\PSoC5/LCD.c **** }
 149:Generated_Source\PSoC5/LCD.c **** 
 150:Generated_Source\PSoC5/LCD.c **** 
 151:Generated_Source\PSoC5/LCD.c **** /*******************************************************************************
 152:Generated_Source\PSoC5/LCD.c **** * Function Name: LCD_Stop
 153:Generated_Source\PSoC5/LCD.c **** ********************************************************************************
 154:Generated_Source\PSoC5/LCD.c **** *
 155:Generated_Source\PSoC5/LCD.c **** * Summary:
 156:Generated_Source\PSoC5/LCD.c **** *  Turns off the display of the LCD screen.
 157:Generated_Source\PSoC5/LCD.c **** *
 158:Generated_Source\PSoC5/LCD.c **** * Parameters:
 159:Generated_Source\PSoC5/LCD.c **** *  None.
 160:Generated_Source\PSoC5/LCD.c **** *
 161:Generated_Source\PSoC5/LCD.c **** * Return:
 162:Generated_Source\PSoC5/LCD.c **** *  None.
 163:Generated_Source\PSoC5/LCD.c **** *
 164:Generated_Source\PSoC5/LCD.c **** * Reentrant:
 165:Generated_Source\PSoC5/LCD.c **** *  No.
 166:Generated_Source\PSoC5/LCD.c **** *
 167:Generated_Source\PSoC5/LCD.c **** *******************************************************************************/
 168:Generated_Source\PSoC5/LCD.c **** void LCD_Stop(void) 
 169:Generated_Source\PSoC5/LCD.c **** {
 170:Generated_Source\PSoC5/LCD.c ****     /* Calls LCD Off Macro */
 171:Generated_Source\PSoC5/LCD.c ****     LCD_DisplayOff();
 172:Generated_Source\PSoC5/LCD.c ****     LCD_enableState = 0u;
 173:Generated_Source\PSoC5/LCD.c **** }
 174:Generated_Source\PSoC5/LCD.c **** 
 175:Generated_Source\PSoC5/LCD.c **** 
 176:Generated_Source\PSoC5/LCD.c **** /*******************************************************************************
 177:Generated_Source\PSoC5/LCD.c **** *  Function Name: LCD_Position
 178:Generated_Source\PSoC5/LCD.c **** ********************************************************************************
 179:Generated_Source\PSoC5/LCD.c **** *
 180:Generated_Source\PSoC5/LCD.c **** * Summary:
 181:Generated_Source\PSoC5/LCD.c **** *  Moves the active cursor location to a point specified by the input arguments
 182:Generated_Source\PSoC5/LCD.c **** *
 183:Generated_Source\PSoC5/LCD.c **** * Parameters:
 184:Generated_Source\PSoC5/LCD.c **** *  row:    Specific row of LCD module to be written
 185:Generated_Source\PSoC5/LCD.c **** *  column: Column of LCD module to be written
 186:Generated_Source\PSoC5/LCD.c **** *
 187:Generated_Source\PSoC5/LCD.c **** * Return:
 188:Generated_Source\PSoC5/LCD.c **** *  None.
 189:Generated_Source\PSoC5/LCD.c **** *
 190:Generated_Source\PSoC5/LCD.c **** * Note:
 191:Generated_Source\PSoC5/LCD.c **** *  This only applies for LCD displays that use the 2X40 address mode.
 192:Generated_Source\PSoC5/LCD.c **** *  In this case Row 2 starts with a 0x28 offset from Row 1.
 193:Generated_Source\PSoC5/LCD.c **** *  When there are more than 2 rows, each row must be fewer than 20 characters.
 194:Generated_Source\PSoC5/LCD.c **** *
 195:Generated_Source\PSoC5/LCD.c **** *******************************************************************************/
 196:Generated_Source\PSoC5/LCD.c **** void LCD_Position(uint8 row, uint8 column) 
 197:Generated_Source\PSoC5/LCD.c **** {
 198:Generated_Source\PSoC5/LCD.c ****     switch (row)
 199:Generated_Source\PSoC5/LCD.c ****     {
 200:Generated_Source\PSoC5/LCD.c ****         case (uint8)0:
 201:Generated_Source\PSoC5/LCD.c ****             LCD_WriteControl(LCD_ROW_0_START + column);
 202:Generated_Source\PSoC5/LCD.c ****             break;
 203:Generated_Source\PSoC5/LCD.c ****         case (uint8) 1:
ARM GAS  C:\Users\Luggi\AppData\Local\Temp\ccvcYNY5.s 			page 5


 204:Generated_Source\PSoC5/LCD.c ****             LCD_WriteControl(LCD_ROW_1_START + column);
 205:Generated_Source\PSoC5/LCD.c ****             break;
 206:Generated_Source\PSoC5/LCD.c ****         case (uint8) 2:
 207:Generated_Source\PSoC5/LCD.c ****             LCD_WriteControl(LCD_ROW_2_START + column);
 208:Generated_Source\PSoC5/LCD.c ****             break;
 209:Generated_Source\PSoC5/LCD.c ****         case (uint8) 3:
 210:Generated_Source\PSoC5/LCD.c ****             LCD_WriteControl(LCD_ROW_3_START + column);
 211:Generated_Source\PSoC5/LCD.c ****             break;
 212:Generated_Source\PSoC5/LCD.c ****         default:
 213:Generated_Source\PSoC5/LCD.c ****             /* if default case is hit, invalid row argument was passed.*/
 214:Generated_Source\PSoC5/LCD.c ****             break;
 215:Generated_Source\PSoC5/LCD.c ****     }
 216:Generated_Source\PSoC5/LCD.c **** }
 217:Generated_Source\PSoC5/LCD.c **** 
 218:Generated_Source\PSoC5/LCD.c **** 
 219:Generated_Source\PSoC5/LCD.c **** /*******************************************************************************
 220:Generated_Source\PSoC5/LCD.c **** * Function Name: LCD_PrintString
 221:Generated_Source\PSoC5/LCD.c **** ********************************************************************************
 222:Generated_Source\PSoC5/LCD.c **** *
 223:Generated_Source\PSoC5/LCD.c **** * Summary:
 224:Generated_Source\PSoC5/LCD.c **** *  Writes a zero terminated string to the LCD.
 225:Generated_Source\PSoC5/LCD.c **** *
 226:Generated_Source\PSoC5/LCD.c **** * Parameters:
 227:Generated_Source\PSoC5/LCD.c **** *  string: Pointer to head of char8 array to be written to the LCD module
 228:Generated_Source\PSoC5/LCD.c **** *
 229:Generated_Source\PSoC5/LCD.c **** * Return:
 230:Generated_Source\PSoC5/LCD.c **** *  None.
 231:Generated_Source\PSoC5/LCD.c **** *
 232:Generated_Source\PSoC5/LCD.c **** *******************************************************************************/
 233:Generated_Source\PSoC5/LCD.c **** void LCD_PrintString(char8 const string[]) 
 234:Generated_Source\PSoC5/LCD.c **** {
 235:Generated_Source\PSoC5/LCD.c ****     uint8 indexU8 = 1u;
 236:Generated_Source\PSoC5/LCD.c ****     char8 current = *string;
 237:Generated_Source\PSoC5/LCD.c **** 
 238:Generated_Source\PSoC5/LCD.c ****     /* Until null is reached, print next character */
 239:Generated_Source\PSoC5/LCD.c ****     while((char8) '\0' != current)
 240:Generated_Source\PSoC5/LCD.c ****     {
 241:Generated_Source\PSoC5/LCD.c ****         LCD_WriteData((uint8)current);
 242:Generated_Source\PSoC5/LCD.c ****         current = string[indexU8];
 243:Generated_Source\PSoC5/LCD.c ****         indexU8++;
 244:Generated_Source\PSoC5/LCD.c ****     }
 245:Generated_Source\PSoC5/LCD.c **** }
 246:Generated_Source\PSoC5/LCD.c **** 
 247:Generated_Source\PSoC5/LCD.c **** 
 248:Generated_Source\PSoC5/LCD.c **** /*******************************************************************************
 249:Generated_Source\PSoC5/LCD.c **** *  Function Name: LCD_PutChar
 250:Generated_Source\PSoC5/LCD.c **** ********************************************************************************
 251:Generated_Source\PSoC5/LCD.c **** *
 252:Generated_Source\PSoC5/LCD.c **** * Summary:
 253:Generated_Source\PSoC5/LCD.c **** *  Writes a single character to the current cursor position of the LCD module.
 254:Generated_Source\PSoC5/LCD.c **** *  Custom character names (_CUSTOM_0 through
 255:Generated_Source\PSoC5/LCD.c **** *  _CUSTOM_7) are acceptable as inputs.
 256:Generated_Source\PSoC5/LCD.c **** *
 257:Generated_Source\PSoC5/LCD.c **** * Parameters:
 258:Generated_Source\PSoC5/LCD.c **** *  character: Character to be written to LCD
 259:Generated_Source\PSoC5/LCD.c **** *
 260:Generated_Source\PSoC5/LCD.c **** * Return:
ARM GAS  C:\Users\Luggi\AppData\Local\Temp\ccvcYNY5.s 			page 6


 261:Generated_Source\PSoC5/LCD.c **** *  None.
 262:Generated_Source\PSoC5/LCD.c **** *
 263:Generated_Source\PSoC5/LCD.c **** *******************************************************************************/
 264:Generated_Source\PSoC5/LCD.c **** void LCD_PutChar(char8 character) 
 265:Generated_Source\PSoC5/LCD.c **** {
 266:Generated_Source\PSoC5/LCD.c ****     LCD_WriteData((uint8)character);
 267:Generated_Source\PSoC5/LCD.c **** }
 268:Generated_Source\PSoC5/LCD.c **** 
 269:Generated_Source\PSoC5/LCD.c **** 
 270:Generated_Source\PSoC5/LCD.c **** /*******************************************************************************
 271:Generated_Source\PSoC5/LCD.c **** *  Function Name: LCD_WriteData
 272:Generated_Source\PSoC5/LCD.c **** ********************************************************************************
 273:Generated_Source\PSoC5/LCD.c **** *
 274:Generated_Source\PSoC5/LCD.c **** * Summary:
 275:Generated_Source\PSoC5/LCD.c **** *  Writes a data byte to the LCD module's Data Display RAM.
 276:Generated_Source\PSoC5/LCD.c **** *
 277:Generated_Source\PSoC5/LCD.c **** * Parameters:
 278:Generated_Source\PSoC5/LCD.c **** *  dByte: Byte to be written to the LCD module
 279:Generated_Source\PSoC5/LCD.c **** *
 280:Generated_Source\PSoC5/LCD.c **** * Return:
 281:Generated_Source\PSoC5/LCD.c **** *  None.
 282:Generated_Source\PSoC5/LCD.c **** *
 283:Generated_Source\PSoC5/LCD.c **** *******************************************************************************/
 284:Generated_Source\PSoC5/LCD.c **** void LCD_WriteData(uint8 dByte) 
 285:Generated_Source\PSoC5/LCD.c **** {
 286:Generated_Source\PSoC5/LCD.c ****     uint8 nibble;
 287:Generated_Source\PSoC5/LCD.c **** 
 288:Generated_Source\PSoC5/LCD.c ****     LCD_IsReady();
 289:Generated_Source\PSoC5/LCD.c ****     nibble = dByte >> LCD_NIBBLE_SHIFT;
 290:Generated_Source\PSoC5/LCD.c **** 
 291:Generated_Source\PSoC5/LCD.c ****     /* Write high nibble */
 292:Generated_Source\PSoC5/LCD.c ****     LCD_WrDatNib(nibble);
 293:Generated_Source\PSoC5/LCD.c **** 
 294:Generated_Source\PSoC5/LCD.c ****     nibble = dByte & LCD_NIBBLE_MASK;
 295:Generated_Source\PSoC5/LCD.c ****     /* Write low nibble */
 296:Generated_Source\PSoC5/LCD.c ****     LCD_WrDatNib(nibble);
 297:Generated_Source\PSoC5/LCD.c **** }
 298:Generated_Source\PSoC5/LCD.c **** 
 299:Generated_Source\PSoC5/LCD.c **** 
 300:Generated_Source\PSoC5/LCD.c **** /*******************************************************************************
 301:Generated_Source\PSoC5/LCD.c **** *  Function Name: LCD_WriteControl
 302:Generated_Source\PSoC5/LCD.c **** ********************************************************************************
 303:Generated_Source\PSoC5/LCD.c **** *
 304:Generated_Source\PSoC5/LCD.c **** * Summary:
 305:Generated_Source\PSoC5/LCD.c **** *  Writes a command byte to the LCD module.
 306:Generated_Source\PSoC5/LCD.c **** *
 307:Generated_Source\PSoC5/LCD.c **** * Parameters:
 308:Generated_Source\PSoC5/LCD.c **** *  cByte:  The byte to be written to theLCD module
 309:Generated_Source\PSoC5/LCD.c **** * 
 310:Generated_Source\PSoC5/LCD.c **** * Return:
 311:Generated_Source\PSoC5/LCD.c **** *  None.
 312:Generated_Source\PSoC5/LCD.c **** *
 313:Generated_Source\PSoC5/LCD.c **** *******************************************************************************/
 314:Generated_Source\PSoC5/LCD.c **** void LCD_WriteControl(uint8 cByte) 
 315:Generated_Source\PSoC5/LCD.c **** {
 316:Generated_Source\PSoC5/LCD.c ****     uint8 nibble;
 317:Generated_Source\PSoC5/LCD.c **** 
ARM GAS  C:\Users\Luggi\AppData\Local\Temp\ccvcYNY5.s 			page 7


 318:Generated_Source\PSoC5/LCD.c ****     LCD_IsReady();
 319:Generated_Source\PSoC5/LCD.c **** 
 320:Generated_Source\PSoC5/LCD.c ****     nibble = cByte >> LCD_NIBBLE_SHIFT;
 321:Generated_Source\PSoC5/LCD.c ****     
 322:Generated_Source\PSoC5/LCD.c ****     /* WrCntrlNib(High Nibble) */
 323:Generated_Source\PSoC5/LCD.c ****     LCD_WrCntrlNib(nibble);
 324:Generated_Source\PSoC5/LCD.c ****     nibble = cByte & LCD_NIBBLE_MASK;
 325:Generated_Source\PSoC5/LCD.c **** 
 326:Generated_Source\PSoC5/LCD.c ****     /* WrCntrlNib(Low Nibble) */
 327:Generated_Source\PSoC5/LCD.c ****     LCD_WrCntrlNib(nibble);
 328:Generated_Source\PSoC5/LCD.c **** }
 329:Generated_Source\PSoC5/LCD.c **** 
 330:Generated_Source\PSoC5/LCD.c **** 
 331:Generated_Source\PSoC5/LCD.c **** /*******************************************************************************
 332:Generated_Source\PSoC5/LCD.c **** * Function Name: LCD_IsReady
 333:Generated_Source\PSoC5/LCD.c **** ********************************************************************************
 334:Generated_Source\PSoC5/LCD.c **** *
 335:Generated_Source\PSoC5/LCD.c **** * Summary:
 336:Generated_Source\PSoC5/LCD.c **** *  Polls the LCD until the ready bit is set or a timeout occurs.
 337:Generated_Source\PSoC5/LCD.c **** *
 338:Generated_Source\PSoC5/LCD.c **** * Parameters:
 339:Generated_Source\PSoC5/LCD.c **** *  None.
 340:Generated_Source\PSoC5/LCD.c **** *
 341:Generated_Source\PSoC5/LCD.c **** * Return:
 342:Generated_Source\PSoC5/LCD.c **** *  None.
 343:Generated_Source\PSoC5/LCD.c **** *
 344:Generated_Source\PSoC5/LCD.c **** * Note:
 345:Generated_Source\PSoC5/LCD.c **** *  Changes the pins to High-Z.
 346:Generated_Source\PSoC5/LCD.c **** *
 347:Generated_Source\PSoC5/LCD.c **** *******************************************************************************/
 348:Generated_Source\PSoC5/LCD.c **** void LCD_IsReady(void) 
 349:Generated_Source\PSoC5/LCD.c **** {
 350:Generated_Source\PSoC5/LCD.c ****     uint8 value;
 351:Generated_Source\PSoC5/LCD.c ****     uint32 timeout;
 352:Generated_Source\PSoC5/LCD.c ****     timeout = LCD_READY_DELAY;
 353:Generated_Source\PSoC5/LCD.c **** 
 354:Generated_Source\PSoC5/LCD.c ****     /* Clear LCD port*/
 355:Generated_Source\PSoC5/LCD.c ****     LCD_PORT_DR_REG &= ((uint8)(~LCD_PORT_MASK));
 356:Generated_Source\PSoC5/LCD.c **** 
 357:Generated_Source\PSoC5/LCD.c ****     /* PSoC4 has a little different from PSoC3/5 port/pin organization for setting Drive Modes.
 358:Generated_Source\PSoC5/LCD.c ****   
 359:Generated_Source\PSoC5/LCD.c ****     */
 360:Generated_Source\PSoC5/LCD.c ****     #if (CY_PSOC4)
 361:Generated_Source\PSoC5/LCD.c ****         
 362:Generated_Source\PSoC5/LCD.c ****         /* Mask off data pins to clear old values out */
 363:Generated_Source\PSoC5/LCD.c ****         value = LCD_PORT_PC_REG & ((uint32) (~ LCD_DM_DATA_MASK));
 364:Generated_Source\PSoC5/LCD.c ****         /* Load in high Z values for data pins, others unchanged */
 365:Generated_Source\PSoC5/LCD.c ****         LCD_PORT_PC_REG = value | LCD_HIGH_Z_DATA_DM;
 366:Generated_Source\PSoC5/LCD.c **** 
 367:Generated_Source\PSoC5/LCD.c ****     #else
 368:Generated_Source\PSoC5/LCD.c ****     
 369:Generated_Source\PSoC5/LCD.c ****         /* Change Port to High-Z Status on data pins */
 370:Generated_Source\PSoC5/LCD.c **** 
 371:Generated_Source\PSoC5/LCD.c ****         /* Mask off data pins to clear old values out */
 372:Generated_Source\PSoC5/LCD.c ****         value = LCD_PORT_DM0_REG & ((uint8)(~LCD_DATA_MASK));
 373:Generated_Source\PSoC5/LCD.c ****         /* Load in high Z values for data pins, others unchanged */
 374:Generated_Source\PSoC5/LCD.c ****         LCD_PORT_DM0_REG = value | (LCD_HIGH_Z_DM0 & LCD_DATA_MASK);
ARM GAS  C:\Users\Luggi\AppData\Local\Temp\ccvcYNY5.s 			page 8


 375:Generated_Source\PSoC5/LCD.c **** 
 376:Generated_Source\PSoC5/LCD.c ****         /* Mask off data pins to clear old values out */
 377:Generated_Source\PSoC5/LCD.c ****         value = LCD_PORT_DM1_REG & ((uint8)(~LCD_DATA_MASK));
 378:Generated_Source\PSoC5/LCD.c ****         /* Load in high Z values for data pins, others unchanged */
 379:Generated_Source\PSoC5/LCD.c ****         LCD_PORT_DM1_REG = value;
 380:Generated_Source\PSoC5/LCD.c **** 
 381:Generated_Source\PSoC5/LCD.c ****         /* Mask off data pins to clear old values out */
 382:Generated_Source\PSoC5/LCD.c ****         value = LCD_PORT_DM2_REG & ((uint8)(~LCD_DATA_MASK));
 383:Generated_Source\PSoC5/LCD.c ****         /* Load in high Z values for data pins, others unchanged */
 384:Generated_Source\PSoC5/LCD.c ****         LCD_PORT_DM2_REG = value;
 385:Generated_Source\PSoC5/LCD.c ****     
 386:Generated_Source\PSoC5/LCD.c ****     #endif /* CY_PSOC4 */
 387:Generated_Source\PSoC5/LCD.c ****     
 388:Generated_Source\PSoC5/LCD.c ****     /* Make sure RS is low */
 389:Generated_Source\PSoC5/LCD.c ****     LCD_PORT_DR_REG &= ((uint8)(~LCD_RS));
 390:Generated_Source\PSoC5/LCD.c **** 
 391:Generated_Source\PSoC5/LCD.c ****     /* Set R/W high to read */
 392:Generated_Source\PSoC5/LCD.c ****     LCD_PORT_DR_REG |= LCD_RW;
 393:Generated_Source\PSoC5/LCD.c **** 
 394:Generated_Source\PSoC5/LCD.c ****     do
 395:Generated_Source\PSoC5/LCD.c ****     {
 396:Generated_Source\PSoC5/LCD.c ****         /* 40 ns delay required before rising Enable and 500ns between neighbour Enables */
 397:Generated_Source\PSoC5/LCD.c ****         CyDelayUs(0u);
 398:Generated_Source\PSoC5/LCD.c **** 
 399:Generated_Source\PSoC5/LCD.c ****         /* Set E high */
 400:Generated_Source\PSoC5/LCD.c ****         LCD_PORT_DR_REG |= LCD_E;
 401:Generated_Source\PSoC5/LCD.c **** 
 402:Generated_Source\PSoC5/LCD.c ****         /* 360 ns delay setup time for data pins */
 403:Generated_Source\PSoC5/LCD.c ****         CyDelayUs(1u);
 404:Generated_Source\PSoC5/LCD.c **** 
 405:Generated_Source\PSoC5/LCD.c ****         /* Get port state */
 406:Generated_Source\PSoC5/LCD.c ****         value = LCD_PORT_PS_REG;
 407:Generated_Source\PSoC5/LCD.c **** 
 408:Generated_Source\PSoC5/LCD.c ****         /* Set enable low */
 409:Generated_Source\PSoC5/LCD.c ****         LCD_PORT_DR_REG &= ((uint8)(~LCD_E));
 410:Generated_Source\PSoC5/LCD.c **** 
 411:Generated_Source\PSoC5/LCD.c ****         /* This gives true delay between disabling Enable bit and polling Ready bit */
 412:Generated_Source\PSoC5/LCD.c ****         CyDelayUs(0u);
 413:Generated_Source\PSoC5/LCD.c **** 
 414:Generated_Source\PSoC5/LCD.c ****         /* Extract ready bit */
 415:Generated_Source\PSoC5/LCD.c ****         value &= LCD_READY_BIT;
 416:Generated_Source\PSoC5/LCD.c **** 
 417:Generated_Source\PSoC5/LCD.c ****         /* Set E high as we in 4-bit interface we need extra operation */
 418:Generated_Source\PSoC5/LCD.c ****         LCD_PORT_DR_REG |= LCD_E;
 419:Generated_Source\PSoC5/LCD.c **** 
 420:Generated_Source\PSoC5/LCD.c ****         /* 360 ns delay setup time for data pins */
 421:Generated_Source\PSoC5/LCD.c ****         CyDelayUs(1u);
 422:Generated_Source\PSoC5/LCD.c **** 
 423:Generated_Source\PSoC5/LCD.c ****         /* Set enable low */
 424:Generated_Source\PSoC5/LCD.c ****         LCD_PORT_DR_REG &= ((uint8)(~LCD_E));
 425:Generated_Source\PSoC5/LCD.c **** 
 426:Generated_Source\PSoC5/LCD.c ****         /* If LCD is not ready make a delay */
 427:Generated_Source\PSoC5/LCD.c ****         if (value == 0u)
 428:Generated_Source\PSoC5/LCD.c ****         {
 429:Generated_Source\PSoC5/LCD.c ****             CyDelayUs(10u);
 430:Generated_Source\PSoC5/LCD.c ****         }
 431:Generated_Source\PSoC5/LCD.c **** 
ARM GAS  C:\Users\Luggi\AppData\Local\Temp\ccvcYNY5.s 			page 9


 432:Generated_Source\PSoC5/LCD.c ****         /* Repeat until bit 4 is not zero or until timeout. */
 433:Generated_Source\PSoC5/LCD.c ****         timeout--;
 434:Generated_Source\PSoC5/LCD.c **** 
 435:Generated_Source\PSoC5/LCD.c ****     } while ((value != 0u) && (timeout > 0u));
 436:Generated_Source\PSoC5/LCD.c **** 
 437:Generated_Source\PSoC5/LCD.c ****     /* Set R/W low to write */
 438:Generated_Source\PSoC5/LCD.c ****     LCD_PORT_DR_REG &= ((uint8)(~LCD_RW));
 439:Generated_Source\PSoC5/LCD.c **** 
 440:Generated_Source\PSoC5/LCD.c ****     /* Clear LCD port*/
 441:Generated_Source\PSoC5/LCD.c ****     LCD_PORT_DR_REG &= ((uint8)(~LCD_PORT_MASK));
 442:Generated_Source\PSoC5/LCD.c **** 
 443:Generated_Source\PSoC5/LCD.c ****     #if (CY_PSOC4)
 444:Generated_Source\PSoC5/LCD.c ****         
 445:Generated_Source\PSoC5/LCD.c ****         /* Mask off data pins to clear old values out */
 446:Generated_Source\PSoC5/LCD.c ****         value = LCD_PORT_PC_REG & ((uint32)(~ LCD_DM_DATA_MASK));
 447:Generated_Source\PSoC5/LCD.c ****         /* Load in high Z values for data pins, others unchanged */
 448:Generated_Source\PSoC5/LCD.c ****         LCD_PORT_PC_REG = value | LCD_STRONG_DATA_DM;
 449:Generated_Source\PSoC5/LCD.c **** 
 450:Generated_Source\PSoC5/LCD.c ****     #else
 451:Generated_Source\PSoC5/LCD.c **** 
 452:Generated_Source\PSoC5/LCD.c ****         /* Change Port to Output (Strong) on data pins */
 453:Generated_Source\PSoC5/LCD.c ****         /* Mask off data pins to clear high z values out. Configure data pins 
 454:Generated_Source\PSoC5/LCD.c ****         * to Strong Drive, others unchanged.
 455:Generated_Source\PSoC5/LCD.c ****         */
 456:Generated_Source\PSoC5/LCD.c ****         LCD_PORT_DM0_REG &= ((uint8)(~LCD_DATA_MASK));
 457:Generated_Source\PSoC5/LCD.c ****         /* Mask off data pins to clear high z values out */
 458:Generated_Source\PSoC5/LCD.c ****         value = LCD_PORT_DM1_REG & ((uint8)(~LCD_DATA_MASK));
 459:Generated_Source\PSoC5/LCD.c ****         /* Configure data pins to Strong Drive, others unchanged */
 460:Generated_Source\PSoC5/LCD.c ****         LCD_PORT_DM1_REG = value | (LCD_STRONG_DM1 & LCD_DATA_MASK);
 461:Generated_Source\PSoC5/LCD.c **** 
 462:Generated_Source\PSoC5/LCD.c ****         /* Mask off data pins to clear high z values out */
 463:Generated_Source\PSoC5/LCD.c ****         value = LCD_PORT_DM2_REG & ((uint8)(~LCD_DATA_MASK));
 464:Generated_Source\PSoC5/LCD.c ****         /* Configure data pins to Strong Drive, others unchanged */
 465:Generated_Source\PSoC5/LCD.c ****         LCD_PORT_DM2_REG = value | (LCD_STRONG_DM2 & LCD_DATA_MASK);
 466:Generated_Source\PSoC5/LCD.c ****     
 467:Generated_Source\PSoC5/LCD.c ****     #endif /* CY_PSOC4 */
 468:Generated_Source\PSoC5/LCD.c **** }
 469:Generated_Source\PSoC5/LCD.c **** 
 470:Generated_Source\PSoC5/LCD.c **** 
 471:Generated_Source\PSoC5/LCD.c **** /*******************************************************************************
 472:Generated_Source\PSoC5/LCD.c **** *  Function Name: LCD_WrDatNib
 473:Generated_Source\PSoC5/LCD.c **** ********************************************************************************
 474:Generated_Source\PSoC5/LCD.c **** *
 475:Generated_Source\PSoC5/LCD.c **** * Summary:
 476:Generated_Source\PSoC5/LCD.c **** *  Writes a data nibble to the LCD module.
 477:Generated_Source\PSoC5/LCD.c **** *
 478:Generated_Source\PSoC5/LCD.c **** * Parameters:
 479:Generated_Source\PSoC5/LCD.c **** *  nibble:  Byte containing nibble in the least significant nibble to be
 480:Generated_Source\PSoC5/LCD.c **** *           written to the LCD module.
 481:Generated_Source\PSoC5/LCD.c **** *
 482:Generated_Source\PSoC5/LCD.c **** * Return:
 483:Generated_Source\PSoC5/LCD.c **** *  None.
 484:Generated_Source\PSoC5/LCD.c **** *
 485:Generated_Source\PSoC5/LCD.c **** *******************************************************************************/
 486:Generated_Source\PSoC5/LCD.c **** static void LCD_WrDatNib(uint8 nibble) 
 487:Generated_Source\PSoC5/LCD.c **** {
 488:Generated_Source\PSoC5/LCD.c ****     /* RS should be low to select data register */
ARM GAS  C:\Users\Luggi\AppData\Local\Temp\ccvcYNY5.s 			page 10


 489:Generated_Source\PSoC5/LCD.c ****     LCD_PORT_DR_REG |= LCD_RS;
 490:Generated_Source\PSoC5/LCD.c ****     /* Reset RW for write operation */
 491:Generated_Source\PSoC5/LCD.c ****     LCD_PORT_DR_REG &= ((uint8)(~LCD_RW));
 492:Generated_Source\PSoC5/LCD.c **** 
 493:Generated_Source\PSoC5/LCD.c ****     /* Guaranteed delay between Setting RS and RW and setting E bits */
 494:Generated_Source\PSoC5/LCD.c ****     CyDelayUs(0u);
 495:Generated_Source\PSoC5/LCD.c ****     
 496:Generated_Source\PSoC5/LCD.c ****     /* Clear data pins */
 497:Generated_Source\PSoC5/LCD.c ****     LCD_PORT_DR_REG &= ((uint8)(~LCD_DATA_MASK));
 498:Generated_Source\PSoC5/LCD.c **** 
 499:Generated_Source\PSoC5/LCD.c ****     /* Write data, bring E high */
 500:Generated_Source\PSoC5/LCD.c ****     #if(0u != LCD_PORT_SHIFT) /* MISRA forbids shift by 0 so need to handle that */
 501:Generated_Source\PSoC5/LCD.c ****         LCD_PORT_DR_REG |= 
 502:Generated_Source\PSoC5/LCD.c ****             (LCD_E | ((uint8)(((uint8) nibble) << LCD_PORT_SHIFT)));
 503:Generated_Source\PSoC5/LCD.c ****     #else
 504:Generated_Source\PSoC5/LCD.c ****         LCD_PORT_DR_REG |= (LCD_E | nibble);
 505:Generated_Source\PSoC5/LCD.c ****     #endif /* (0u != LCD_PORT_SHIFT) */
 506:Generated_Source\PSoC5/LCD.c **** 
 507:Generated_Source\PSoC5/LCD.c ****     /* Minimum of 230 ns delay */
 508:Generated_Source\PSoC5/LCD.c ****     CyDelayUs(1u);
 509:Generated_Source\PSoC5/LCD.c **** 
 510:Generated_Source\PSoC5/LCD.c ****     LCD_PORT_DR_REG &= ((uint8)(~LCD_E));
 511:Generated_Source\PSoC5/LCD.c **** }
 512:Generated_Source\PSoC5/LCD.c **** 
 513:Generated_Source\PSoC5/LCD.c **** 
 514:Generated_Source\PSoC5/LCD.c **** /*******************************************************************************
 515:Generated_Source\PSoC5/LCD.c **** *  Function Name: LCD_WrCntrlNib
 516:Generated_Source\PSoC5/LCD.c **** ********************************************************************************
 517:Generated_Source\PSoC5/LCD.c **** *
 518:Generated_Source\PSoC5/LCD.c **** * Summary:
 519:Generated_Source\PSoC5/LCD.c **** *  Writes a control nibble to the LCD module.
 520:Generated_Source\PSoC5/LCD.c **** *
 521:Generated_Source\PSoC5/LCD.c **** * Parameters:
 522:Generated_Source\PSoC5/LCD.c **** *  nibble: The byte containing a nibble in the four least significant bits.????
 523:Generated_Source\PSoC5/LCD.c **** *
 524:Generated_Source\PSoC5/LCD.c **** * Return:
 525:Generated_Source\PSoC5/LCD.c **** *  None.
 526:Generated_Source\PSoC5/LCD.c **** *
 527:Generated_Source\PSoC5/LCD.c **** *******************************************************************************/
 528:Generated_Source\PSoC5/LCD.c **** static void LCD_WrCntrlNib(uint8 nibble) 
 529:Generated_Source\PSoC5/LCD.c **** {
  26              		.loc 1 529 0
  27              		.cfi_startproc
  28              		@ args = 0, pretend = 0, frame = 0
  29              		@ frame_needed = 0, uses_anonymous_args = 0
  30              	.LVL0:
  31 0000 10B5     		push	{r4, lr}
  32              		.cfi_def_cfa_offset 8
  33              		.cfi_offset 4, -8
  34              		.cfi_offset 14, -4
 530:Generated_Source\PSoC5/LCD.c ****     /* RS and RW should be low to select instruction register and  write operation respectively */
 531:Generated_Source\PSoC5/LCD.c ****     LCD_PORT_DR_REG &= ((uint8)(~(LCD_RS | LCD_RW)));
  35              		.loc 1 531 0
  36 0002 0B4C     		ldr	r4, .L2
  37 0004 2378     		ldrb	r3, [r4]	@ zero_extendqisi2
  38 0006 03F09F03 		and	r3, r3, #159
  39 000a 2370     		strb	r3, [r4]
ARM GAS  C:\Users\Luggi\AppData\Local\Temp\ccvcYNY5.s 			page 11


 532:Generated_Source\PSoC5/LCD.c **** 
 533:Generated_Source\PSoC5/LCD.c ****     /* Two following lines of code will give 40ns delay */
 534:Generated_Source\PSoC5/LCD.c ****     /* Clear data pins */
 535:Generated_Source\PSoC5/LCD.c ****     LCD_PORT_DR_REG &= ((uint8)(~LCD_DATA_MASK));
  40              		.loc 1 535 0
  41 000c 2378     		ldrb	r3, [r4]	@ zero_extendqisi2
  42 000e 03F0F003 		and	r3, r3, #240
  43 0012 2370     		strb	r3, [r4]
 536:Generated_Source\PSoC5/LCD.c **** 
 537:Generated_Source\PSoC5/LCD.c ****     /* Write control data and set enable signal */
 538:Generated_Source\PSoC5/LCD.c ****     #if(0u != LCD_PORT_SHIFT) /* MISRA forbids shift by 0 so need to handle that */
 539:Generated_Source\PSoC5/LCD.c ****         LCD_PORT_DR_REG |= 
 540:Generated_Source\PSoC5/LCD.c ****             (LCD_E | ((uint8)(((uint8) nibble) << LCD_PORT_SHIFT)));
 541:Generated_Source\PSoC5/LCD.c ****     #else
 542:Generated_Source\PSoC5/LCD.c ****         LCD_PORT_DR_REG |= (LCD_E | nibble);
  44              		.loc 1 542 0
  45 0014 2378     		ldrb	r3, [r4]	@ zero_extendqisi2
  46 0016 43F01003 		orr	r3, r3, #16
  47 001a 1843     		orrs	r0, r0, r3
  48              	.LVL1:
  49 001c 2070     		strb	r0, [r4]
 543:Generated_Source\PSoC5/LCD.c ****     #endif /* (0u != LCD_PORT_SHIFT) */
 544:Generated_Source\PSoC5/LCD.c **** 
 545:Generated_Source\PSoC5/LCD.c ****     /* Minimum of 230 ns delay */
 546:Generated_Source\PSoC5/LCD.c ****     CyDelayUs(1u);
  50              		.loc 1 546 0
  51 001e 0120     		movs	r0, #1
  52 0020 FFF7FEFF 		bl	CyDelayUs
  53              	.LVL2:
 547:Generated_Source\PSoC5/LCD.c **** 
 548:Generated_Source\PSoC5/LCD.c ****     LCD_PORT_DR_REG &= ((uint8)(~LCD_E));
  54              		.loc 1 548 0
  55 0024 2378     		ldrb	r3, [r4]	@ zero_extendqisi2
  56 0026 03F0EF03 		and	r3, r3, #239
  57 002a 2370     		strb	r3, [r4]
  58 002c 10BD     		pop	{r4, pc}
  59              	.L3:
  60 002e 00BF     		.align	2
  61              	.L2:
  62 0030 20510040 		.word	1073762592
  63              		.cfi_endproc
  64              	.LFE11:
  65              		.size	LCD_WrCntrlNib, .-LCD_WrCntrlNib
  66              		.section	.text.LCD_WrDatNib,"ax",%progbits
  67              		.align	1
  68              		.thumb
  69              		.thumb_func
  70              		.type	LCD_WrDatNib, %function
  71              	LCD_WrDatNib:
  72              	.LFB10:
 487:Generated_Source\PSoC5/LCD.c ****     /* RS should be low to select data register */
  73              		.loc 1 487 0
  74              		.cfi_startproc
  75              		@ args = 0, pretend = 0, frame = 0
  76              		@ frame_needed = 0, uses_anonymous_args = 0
  77              	.LVL3:
  78 0000 38B5     		push	{r3, r4, r5, lr}
ARM GAS  C:\Users\Luggi\AppData\Local\Temp\ccvcYNY5.s 			page 12


  79              		.cfi_def_cfa_offset 16
  80              		.cfi_offset 3, -16
  81              		.cfi_offset 4, -12
  82              		.cfi_offset 5, -8
  83              		.cfi_offset 14, -4
 487:Generated_Source\PSoC5/LCD.c ****     /* RS should be low to select data register */
  84              		.loc 1 487 0
  85 0002 0546     		mov	r5, r0
 489:Generated_Source\PSoC5/LCD.c ****     /* Reset RW for write operation */
  86              		.loc 1 489 0
  87 0004 0E4C     		ldr	r4, .L5
 494:Generated_Source\PSoC5/LCD.c ****     
  88              		.loc 1 494 0
  89 0006 0020     		movs	r0, #0
  90              	.LVL4:
 489:Generated_Source\PSoC5/LCD.c ****     /* Reset RW for write operation */
  91              		.loc 1 489 0
  92 0008 2378     		ldrb	r3, [r4]	@ zero_extendqisi2
  93 000a 43F02003 		orr	r3, r3, #32
  94 000e 2370     		strb	r3, [r4]
 491:Generated_Source\PSoC5/LCD.c **** 
  95              		.loc 1 491 0
  96 0010 2378     		ldrb	r3, [r4]	@ zero_extendqisi2
  97 0012 03F0BF03 		and	r3, r3, #191
  98 0016 2370     		strb	r3, [r4]
 494:Generated_Source\PSoC5/LCD.c ****     
  99              		.loc 1 494 0
 100 0018 FFF7FEFF 		bl	CyDelayUs
 101              	.LVL5:
 497:Generated_Source\PSoC5/LCD.c **** 
 102              		.loc 1 497 0
 103 001c 2378     		ldrb	r3, [r4]	@ zero_extendqisi2
 104 001e 03F0F003 		and	r3, r3, #240
 105 0022 2370     		strb	r3, [r4]
 504:Generated_Source\PSoC5/LCD.c ****     #endif /* (0u != LCD_PORT_SHIFT) */
 106              		.loc 1 504 0
 107 0024 2078     		ldrb	r0, [r4]	@ zero_extendqisi2
 108 0026 40F01000 		orr	r0, r0, #16
 109 002a 2843     		orrs	r0, r0, r5
 110 002c 2070     		strb	r0, [r4]
 508:Generated_Source\PSoC5/LCD.c **** 
 111              		.loc 1 508 0
 112 002e 0120     		movs	r0, #1
 113 0030 FFF7FEFF 		bl	CyDelayUs
 114              	.LVL6:
 510:Generated_Source\PSoC5/LCD.c **** }
 115              		.loc 1 510 0
 116 0034 2378     		ldrb	r3, [r4]	@ zero_extendqisi2
 117 0036 03F0EF03 		and	r3, r3, #239
 118 003a 2370     		strb	r3, [r4]
 119 003c 38BD     		pop	{r3, r4, r5, pc}
 120              	.L6:
 121 003e 00BF     		.align	2
 122              	.L5:
 123 0040 20510040 		.word	1073762592
 124              		.cfi_endproc
 125              	.LFE10:
ARM GAS  C:\Users\Luggi\AppData\Local\Temp\ccvcYNY5.s 			page 13


 126              		.size	LCD_WrDatNib, .-LCD_WrDatNib
 127              		.section	.text.LCD_IsReady,"ax",%progbits
 128              		.align	1
 129              		.global	LCD_IsReady
 130              		.thumb
 131              		.thumb_func
 132              		.type	LCD_IsReady, %function
 133              	LCD_IsReady:
 134              	.LFB9:
 349:Generated_Source\PSoC5/LCD.c ****     uint8 value;
 135              		.loc 1 349 0
 136              		.cfi_startproc
 137              		@ args = 0, pretend = 0, frame = 0
 138              		@ frame_needed = 0, uses_anonymous_args = 0
 139              	.LVL7:
 140 0000 2DE9F843 		push	{r3, r4, r5, r6, r7, r8, r9, lr}
 141              		.cfi_def_cfa_offset 32
 142              		.cfi_offset 3, -32
 143              		.cfi_offset 4, -28
 144              		.cfi_offset 5, -24
 145              		.cfi_offset 6, -20
 146              		.cfi_offset 7, -16
 147              		.cfi_offset 8, -12
 148              		.cfi_offset 9, -8
 149              		.cfi_offset 14, -4
 355:Generated_Source\PSoC5/LCD.c **** 
 150              		.loc 1 355 0
 151 0004 334C     		ldr	r4, .L13
 372:Generated_Source\PSoC5/LCD.c ****         /* Load in high Z values for data pins, others unchanged */
 152              		.loc 1 372 0
 153 0006 344F     		ldr	r7, .L13+4
 355:Generated_Source\PSoC5/LCD.c **** 
 154              		.loc 1 355 0
 155 0008 2378     		ldrb	r3, [r4]	@ zero_extendqisi2
 377:Generated_Source\PSoC5/LCD.c ****         /* Load in high Z values for data pins, others unchanged */
 156              		.loc 1 377 0
 157 000a 344E     		ldr	r6, .L13+8
 355:Generated_Source\PSoC5/LCD.c **** 
 158              		.loc 1 355 0
 159 000c 03F08003 		and	r3, r3, #128
 160 0010 DBB2     		uxtb	r3, r3
 161 0012 2370     		strb	r3, [r4]
 372:Generated_Source\PSoC5/LCD.c ****         /* Load in high Z values for data pins, others unchanged */
 162              		.loc 1 372 0
 163 0014 3B78     		ldrb	r3, [r7]	@ zero_extendqisi2
 164              	.LVL8:
 382:Generated_Source\PSoC5/LCD.c ****         /* Load in high Z values for data pins, others unchanged */
 165              		.loc 1 382 0
 166 0016 324D     		ldr	r5, .L13+12
 372:Generated_Source\PSoC5/LCD.c ****         /* Load in high Z values for data pins, others unchanged */
 167              		.loc 1 372 0
 168 0018 03F0F003 		and	r3, r3, #240
 169              	.LVL9:
 374:Generated_Source\PSoC5/LCD.c **** 
 170              		.loc 1 374 0
 171 001c 43F00F03 		orr	r3, r3, #15
 172 0020 3B70     		strb	r3, [r7]
ARM GAS  C:\Users\Luggi\AppData\Local\Temp\ccvcYNY5.s 			page 14


 377:Generated_Source\PSoC5/LCD.c ****         /* Load in high Z values for data pins, others unchanged */
 173              		.loc 1 377 0
 174 0022 3378     		ldrb	r3, [r6]	@ zero_extendqisi2
 392:Generated_Source\PSoC5/LCD.c **** 
 175              		.loc 1 392 0
 176 0024 4FF4CA78 		mov	r8, #404
 377:Generated_Source\PSoC5/LCD.c ****         /* Load in high Z values for data pins, others unchanged */
 177              		.loc 1 377 0
 178 0028 03F0F003 		and	r3, r3, #240
 179              	.LVL10:
 379:Generated_Source\PSoC5/LCD.c **** 
 180              		.loc 1 379 0
 181 002c 3370     		strb	r3, [r6]
 382:Generated_Source\PSoC5/LCD.c ****         /* Load in high Z values for data pins, others unchanged */
 182              		.loc 1 382 0
 183 002e 2B78     		ldrb	r3, [r5]	@ zero_extendqisi2
 184              	.LVL11:
 185 0030 03F0F003 		and	r3, r3, #240
 186              	.LVL12:
 384:Generated_Source\PSoC5/LCD.c ****     
 187              		.loc 1 384 0
 188 0034 2B70     		strb	r3, [r5]
 389:Generated_Source\PSoC5/LCD.c **** 
 189              		.loc 1 389 0
 190 0036 2378     		ldrb	r3, [r4]	@ zero_extendqisi2
 191              	.LVL13:
 192 0038 03F0DF03 		and	r3, r3, #223
 193 003c 2370     		strb	r3, [r4]
 194              	.LVL14:
 392:Generated_Source\PSoC5/LCD.c **** 
 195              		.loc 1 392 0
 196 003e 2378     		ldrb	r3, [r4]	@ zero_extendqisi2
 197 0040 43F04003 		orr	r3, r3, #64
 198 0044 2370     		strb	r3, [r4]
 199              	.LVL15:
 200              	.L10:
 397:Generated_Source\PSoC5/LCD.c **** 
 201              		.loc 1 397 0
 202 0046 0020     		movs	r0, #0
 203 0048 FFF7FEFF 		bl	CyDelayUs
 204              	.LVL16:
 400:Generated_Source\PSoC5/LCD.c **** 
 205              		.loc 1 400 0
 206 004c 2378     		ldrb	r3, [r4]	@ zero_extendqisi2
 403:Generated_Source\PSoC5/LCD.c **** 
 207              		.loc 1 403 0
 208 004e 0120     		movs	r0, #1
 400:Generated_Source\PSoC5/LCD.c **** 
 209              		.loc 1 400 0
 210 0050 43F01003 		orr	r3, r3, #16
 211 0054 2370     		strb	r3, [r4]
 403:Generated_Source\PSoC5/LCD.c **** 
 212              		.loc 1 403 0
 213 0056 FFF7FEFF 		bl	CyDelayUs
 214              	.LVL17:
 406:Generated_Source\PSoC5/LCD.c **** 
 215              		.loc 1 406 0
ARM GAS  C:\Users\Luggi\AppData\Local\Temp\ccvcYNY5.s 			page 15


 216 005a 224B     		ldr	r3, .L13+16
 412:Generated_Source\PSoC5/LCD.c **** 
 217              		.loc 1 412 0
 218 005c 0020     		movs	r0, #0
 406:Generated_Source\PSoC5/LCD.c **** 
 219              		.loc 1 406 0
 220 005e 93F80090 		ldrb	r9, [r3]	@ zero_extendqisi2
 409:Generated_Source\PSoC5/LCD.c **** 
 221              		.loc 1 409 0
 222 0062 2378     		ldrb	r3, [r4]	@ zero_extendqisi2
 406:Generated_Source\PSoC5/LCD.c **** 
 223              		.loc 1 406 0
 224 0064 5FFA89F9 		uxtb	r9, r9
 225              	.LVL18:
 409:Generated_Source\PSoC5/LCD.c **** 
 226              		.loc 1 409 0
 227 0068 03F0EF03 		and	r3, r3, #239
 228 006c 2370     		strb	r3, [r4]
 412:Generated_Source\PSoC5/LCD.c **** 
 229              		.loc 1 412 0
 230 006e FFF7FEFF 		bl	CyDelayUs
 231              	.LVL19:
 418:Generated_Source\PSoC5/LCD.c **** 
 232              		.loc 1 418 0
 233 0072 2378     		ldrb	r3, [r4]	@ zero_extendqisi2
 421:Generated_Source\PSoC5/LCD.c **** 
 234              		.loc 1 421 0
 235 0074 0120     		movs	r0, #1
 418:Generated_Source\PSoC5/LCD.c **** 
 236              		.loc 1 418 0
 237 0076 43F01003 		orr	r3, r3, #16
 238 007a 2370     		strb	r3, [r4]
 421:Generated_Source\PSoC5/LCD.c **** 
 239              		.loc 1 421 0
 240 007c FFF7FEFF 		bl	CyDelayUs
 241              	.LVL20:
 424:Generated_Source\PSoC5/LCD.c **** 
 242              		.loc 1 424 0
 243 0080 2378     		ldrb	r3, [r4]	@ zero_extendqisi2
 427:Generated_Source\PSoC5/LCD.c ****         {
 244              		.loc 1 427 0
 245 0082 19F0080F 		tst	r9, #8
 424:Generated_Source\PSoC5/LCD.c **** 
 246              		.loc 1 424 0
 247 0086 03F0EF03 		and	r3, r3, #239
 248 008a 2370     		strb	r3, [r4]
 427:Generated_Source\PSoC5/LCD.c ****         {
 249              		.loc 1 427 0
 250 008c 03D1     		bne	.L8
 429:Generated_Source\PSoC5/LCD.c ****         }
 251              		.loc 1 429 0
 252 008e 0A20     		movs	r0, #10
 253 0090 FFF7FEFF 		bl	CyDelayUs
 254              	.LVL21:
 255 0094 02E0     		b	.L9
 256              	.L8:
 257              	.LVL22:
ARM GAS  C:\Users\Luggi\AppData\Local\Temp\ccvcYNY5.s 			page 16


 435:Generated_Source\PSoC5/LCD.c **** 
 258              		.loc 1 435 0 discriminator 1
 259 0096 B8F10108 		subs	r8, r8, #1
 260              	.LVL23:
 261 009a D4D1     		bne	.L10
 262              	.LVL24:
 263              	.L9:
 438:Generated_Source\PSoC5/LCD.c **** 
 264              		.loc 1 438 0
 265 009c 2378     		ldrb	r3, [r4]	@ zero_extendqisi2
 266 009e 03F0BF03 		and	r3, r3, #191
 267 00a2 2370     		strb	r3, [r4]
 441:Generated_Source\PSoC5/LCD.c **** 
 268              		.loc 1 441 0
 269 00a4 2378     		ldrb	r3, [r4]	@ zero_extendqisi2
 270 00a6 03F08003 		and	r3, r3, #128
 271 00aa DBB2     		uxtb	r3, r3
 272 00ac 2370     		strb	r3, [r4]
 456:Generated_Source\PSoC5/LCD.c ****         /* Mask off data pins to clear high z values out */
 273              		.loc 1 456 0
 274 00ae 3B78     		ldrb	r3, [r7]	@ zero_extendqisi2
 275 00b0 03F0F003 		and	r3, r3, #240
 276 00b4 3B70     		strb	r3, [r7]
 458:Generated_Source\PSoC5/LCD.c ****         /* Configure data pins to Strong Drive, others unchanged */
 277              		.loc 1 458 0
 278 00b6 3378     		ldrb	r3, [r6]	@ zero_extendqisi2
 279              	.LVL25:
 280 00b8 03F0F003 		and	r3, r3, #240
 281              	.LVL26:
 460:Generated_Source\PSoC5/LCD.c **** 
 282              		.loc 1 460 0
 283 00bc 43F00F03 		orr	r3, r3, #15
 284 00c0 3370     		strb	r3, [r6]
 463:Generated_Source\PSoC5/LCD.c ****         /* Configure data pins to Strong Drive, others unchanged */
 285              		.loc 1 463 0
 286 00c2 2B78     		ldrb	r3, [r5]	@ zero_extendqisi2
 287              	.LVL27:
 288 00c4 03F0F003 		and	r3, r3, #240
 289              	.LVL28:
 465:Generated_Source\PSoC5/LCD.c ****     
 290              		.loc 1 465 0
 291 00c8 43F00F03 		orr	r3, r3, #15
 292 00cc 2B70     		strb	r3, [r5]
 293 00ce BDE8F883 		pop	{r3, r4, r5, r6, r7, r8, r9, pc}
 294              	.L14:
 295 00d2 00BF     		.align	2
 296              	.L13:
 297 00d4 20510040 		.word	1073762592
 298 00d8 22510040 		.word	1073762594
 299 00dc 23510040 		.word	1073762595
 300 00e0 24510040 		.word	1073762596
 301 00e4 21510040 		.word	1073762593
 302              		.cfi_endproc
 303              	.LFE9:
 304              		.size	LCD_IsReady, .-LCD_IsReady
 305              		.section	.text.LCD_WriteData,"ax",%progbits
 306              		.align	1
ARM GAS  C:\Users\Luggi\AppData\Local\Temp\ccvcYNY5.s 			page 17


 307              		.global	LCD_WriteData
 308              		.thumb
 309              		.thumb_func
 310              		.type	LCD_WriteData, %function
 311              	LCD_WriteData:
 312              	.LFB7:
 285:Generated_Source\PSoC5/LCD.c ****     uint8 nibble;
 313              		.loc 1 285 0
 314              		.cfi_startproc
 315              		@ args = 0, pretend = 0, frame = 0
 316              		@ frame_needed = 0, uses_anonymous_args = 0
 317              	.LVL29:
 318 0000 10B5     		push	{r4, lr}
 319              		.cfi_def_cfa_offset 8
 320              		.cfi_offset 4, -8
 321              		.cfi_offset 14, -4
 285:Generated_Source\PSoC5/LCD.c ****     uint8 nibble;
 322              		.loc 1 285 0
 323 0002 0446     		mov	r4, r0
 288:Generated_Source\PSoC5/LCD.c ****     nibble = dByte >> LCD_NIBBLE_SHIFT;
 324              		.loc 1 288 0
 325 0004 FFF7FEFF 		bl	LCD_IsReady
 326              	.LVL30:
 292:Generated_Source\PSoC5/LCD.c **** 
 327              		.loc 1 292 0
 328 0008 2009     		lsrs	r0, r4, #4
 329 000a FFF7FEFF 		bl	LCD_WrDatNib
 330              	.LVL31:
 296:Generated_Source\PSoC5/LCD.c **** }
 331              		.loc 1 296 0
 332 000e 04F00F00 		and	r0, r4, #15
 297:Generated_Source\PSoC5/LCD.c **** 
 333              		.loc 1 297 0
 334 0012 BDE81040 		pop	{r4, lr}
 335              		.cfi_restore 14
 336              		.cfi_restore 4
 337              		.cfi_def_cfa_offset 0
 338              	.LVL32:
 296:Generated_Source\PSoC5/LCD.c **** }
 339              		.loc 1 296 0
 340 0016 FFF7FEBF 		b	LCD_WrDatNib
 341              	.LVL33:
 342              		.cfi_endproc
 343              	.LFE7:
 344              		.size	LCD_WriteData, .-LCD_WriteData
 345              		.section	.text.LCD_PrintString,"ax",%progbits
 346              		.align	1
 347              		.global	LCD_PrintString
 348              		.thumb
 349              		.thumb_func
 350              		.type	LCD_PrintString, %function
 351              	LCD_PrintString:
 352              	.LFB5:
 234:Generated_Source\PSoC5/LCD.c ****     uint8 indexU8 = 1u;
 353              		.loc 1 234 0
 354              		.cfi_startproc
 355              		@ args = 0, pretend = 0, frame = 0
ARM GAS  C:\Users\Luggi\AppData\Local\Temp\ccvcYNY5.s 			page 18


 356              		@ frame_needed = 0, uses_anonymous_args = 0
 357              	.LVL34:
 358 0000 38B5     		push	{r3, r4, r5, lr}
 359              		.cfi_def_cfa_offset 16
 360              		.cfi_offset 3, -16
 361              		.cfi_offset 4, -12
 362              		.cfi_offset 5, -8
 363              		.cfi_offset 14, -4
 234:Generated_Source\PSoC5/LCD.c ****     uint8 indexU8 = 1u;
 364              		.loc 1 234 0
 365 0002 0546     		mov	r5, r0
 236:Generated_Source\PSoC5/LCD.c **** 
 366              		.loc 1 236 0
 367 0004 0078     		ldrb	r0, [r0]	@ zero_extendqisi2
 368              	.LVL35:
 235:Generated_Source\PSoC5/LCD.c ****     char8 current = *string;
 369              		.loc 1 235 0
 370 0006 0124     		movs	r4, #1
 371              	.LVL36:
 372              	.L17:
 239:Generated_Source\PSoC5/LCD.c ****     {
 373              		.loc 1 239 0
 374 0008 28B1     		cbz	r0, .L19
 241:Generated_Source\PSoC5/LCD.c ****         current = string[indexU8];
 375              		.loc 1 241 0
 376 000a FFF7FEFF 		bl	LCD_WriteData
 377              	.LVL37:
 242:Generated_Source\PSoC5/LCD.c ****         indexU8++;
 378              		.loc 1 242 0
 379 000e 285D     		ldrb	r0, [r5, r4]	@ zero_extendqisi2
 380              	.LVL38:
 243:Generated_Source\PSoC5/LCD.c ****     }
 381              		.loc 1 243 0
 382 0010 0134     		adds	r4, r4, #1
 383              	.LVL39:
 384 0012 E4B2     		uxtb	r4, r4
 385              	.LVL40:
 386 0014 F8E7     		b	.L17
 387              	.L19:
 245:Generated_Source\PSoC5/LCD.c **** 
 388              		.loc 1 245 0
 389 0016 38BD     		pop	{r3, r4, r5, pc}
 390              		.cfi_endproc
 391              	.LFE5:
 392              		.size	LCD_PrintString, .-LCD_PrintString
 393              		.section	.text.LCD_PutChar,"ax",%progbits
 394              		.align	1
 395              		.global	LCD_PutChar
 396              		.thumb
 397              		.thumb_func
 398              		.type	LCD_PutChar, %function
 399              	LCD_PutChar:
 400              	.LFB6:
 265:Generated_Source\PSoC5/LCD.c ****     LCD_WriteData((uint8)character);
 401              		.loc 1 265 0
 402              		.cfi_startproc
 403              		@ args = 0, pretend = 0, frame = 0
ARM GAS  C:\Users\Luggi\AppData\Local\Temp\ccvcYNY5.s 			page 19


 404              		@ frame_needed = 0, uses_anonymous_args = 0
 405              		@ link register save eliminated.
 406              	.LVL41:
 266:Generated_Source\PSoC5/LCD.c **** }
 407              		.loc 1 266 0
 408 0000 FFF7FEBF 		b	LCD_WriteData
 409              	.LVL42:
 410              		.cfi_endproc
 411              	.LFE6:
 412              		.size	LCD_PutChar, .-LCD_PutChar
 413              		.section	.text.LCD_WriteControl,"ax",%progbits
 414              		.align	1
 415              		.global	LCD_WriteControl
 416              		.thumb
 417              		.thumb_func
 418              		.type	LCD_WriteControl, %function
 419              	LCD_WriteControl:
 420              	.LFB8:
 315:Generated_Source\PSoC5/LCD.c ****     uint8 nibble;
 421              		.loc 1 315 0
 422              		.cfi_startproc
 423              		@ args = 0, pretend = 0, frame = 0
 424              		@ frame_needed = 0, uses_anonymous_args = 0
 425              	.LVL43:
 426 0000 10B5     		push	{r4, lr}
 427              		.cfi_def_cfa_offset 8
 428              		.cfi_offset 4, -8
 429              		.cfi_offset 14, -4
 315:Generated_Source\PSoC5/LCD.c ****     uint8 nibble;
 430              		.loc 1 315 0
 431 0002 0446     		mov	r4, r0
 318:Generated_Source\PSoC5/LCD.c **** 
 432              		.loc 1 318 0
 433 0004 FFF7FEFF 		bl	LCD_IsReady
 434              	.LVL44:
 323:Generated_Source\PSoC5/LCD.c ****     nibble = cByte & LCD_NIBBLE_MASK;
 435              		.loc 1 323 0
 436 0008 2009     		lsrs	r0, r4, #4
 437 000a FFF7FEFF 		bl	LCD_WrCntrlNib
 438              	.LVL45:
 327:Generated_Source\PSoC5/LCD.c **** }
 439              		.loc 1 327 0
 440 000e 04F00F00 		and	r0, r4, #15
 328:Generated_Source\PSoC5/LCD.c **** 
 441              		.loc 1 328 0
 442 0012 BDE81040 		pop	{r4, lr}
 443              		.cfi_restore 14
 444              		.cfi_restore 4
 445              		.cfi_def_cfa_offset 0
 446              	.LVL46:
 327:Generated_Source\PSoC5/LCD.c **** }
 447              		.loc 1 327 0
 448 0016 FFF7FEBF 		b	LCD_WrCntrlNib
 449              	.LVL47:
 450              		.cfi_endproc
 451              	.LFE8:
 452              		.size	LCD_WriteControl, .-LCD_WriteControl
ARM GAS  C:\Users\Luggi\AppData\Local\Temp\ccvcYNY5.s 			page 20


 453              		.section	.text.LCD_Init,"ax",%progbits
 454              		.align	1
 455              		.global	LCD_Init
 456              		.thumb
 457              		.thumb_func
 458              		.type	LCD_Init, %function
 459              	LCD_Init:
 460              	.LFB0:
  56:Generated_Source\PSoC5/LCD.c ****     /* INIT CODE */
 461              		.loc 1 56 0
 462              		.cfi_startproc
 463              		@ args = 0, pretend = 0, frame = 0
 464              		@ frame_needed = 0, uses_anonymous_args = 0
 465 0000 08B5     		push	{r3, lr}
 466              		.cfi_def_cfa_offset 8
 467              		.cfi_offset 3, -8
 468              		.cfi_offset 14, -4
  58:Generated_Source\PSoC5/LCD.c ****     LCD_WrCntrlNib(LCD_DISPLAY_8_BIT_INIT);    /* Selects 8-bit mode */
 469              		.loc 1 58 0
 470 0002 2820     		movs	r0, #40
 471 0004 FFF7FEFF 		bl	CyDelay
 472              	.LVL48:
  59:Generated_Source\PSoC5/LCD.c ****     CyDelay(5u);                                                         /* Delay 5 ms */
 473              		.loc 1 59 0
 474 0008 0320     		movs	r0, #3
 475 000a FFF7FEFF 		bl	LCD_WrCntrlNib
 476              	.LVL49:
  60:Generated_Source\PSoC5/LCD.c ****     LCD_WrCntrlNib(LCD_DISPLAY_8_BIT_INIT);    /* Selects 8-bit mode */
 477              		.loc 1 60 0
 478 000e 0520     		movs	r0, #5
 479 0010 FFF7FEFF 		bl	CyDelay
 480              	.LVL50:
  61:Generated_Source\PSoC5/LCD.c ****     CyDelay(15u);                                                        /* Delay 15 ms */
 481              		.loc 1 61 0
 482 0014 0320     		movs	r0, #3
 483 0016 FFF7FEFF 		bl	LCD_WrCntrlNib
 484              	.LVL51:
  62:Generated_Source\PSoC5/LCD.c ****     LCD_WrCntrlNib(LCD_DISPLAY_8_BIT_INIT);    /* Selects 8-bit mode */
 485              		.loc 1 62 0
 486 001a 0F20     		movs	r0, #15
 487 001c FFF7FEFF 		bl	CyDelay
 488              	.LVL52:
  63:Generated_Source\PSoC5/LCD.c ****     CyDelay(1u);                                                         /* Delay 1 ms */
 489              		.loc 1 63 0
 490 0020 0320     		movs	r0, #3
 491 0022 FFF7FEFF 		bl	LCD_WrCntrlNib
 492              	.LVL53:
  64:Generated_Source\PSoC5/LCD.c ****     LCD_WrCntrlNib(LCD_DISPLAY_4_BIT_INIT);    /* Selects 4-bit mode */
 493              		.loc 1 64 0
 494 0026 0120     		movs	r0, #1
 495 0028 FFF7FEFF 		bl	CyDelay
 496              	.LVL54:
  65:Generated_Source\PSoC5/LCD.c ****     CyDelay(5u);                                                         /* Delay 5 ms */
 497              		.loc 1 65 0
 498 002c 0220     		movs	r0, #2
 499 002e FFF7FEFF 		bl	LCD_WrCntrlNib
 500              	.LVL55:
ARM GAS  C:\Users\Luggi\AppData\Local\Temp\ccvcYNY5.s 			page 21


  66:Generated_Source\PSoC5/LCD.c **** 
 501              		.loc 1 66 0
 502 0032 0520     		movs	r0, #5
 503 0034 FFF7FEFF 		bl	CyDelay
 504              	.LVL56:
  68:Generated_Source\PSoC5/LCD.c ****     LCD_WriteControl(LCD_DISPLAY_CURSOR_ON);      /* Turn Display, Cursor ON */
 505              		.loc 1 68 0
 506 0038 0620     		movs	r0, #6
 507 003a FFF7FEFF 		bl	LCD_WriteControl
 508              	.LVL57:
  69:Generated_Source\PSoC5/LCD.c ****     LCD_WriteControl(LCD_DISPLAY_2_LINES_5x10);   /* 2 Lines by 5x10 Characters */
 509              		.loc 1 69 0
 510 003e 0E20     		movs	r0, #14
 511 0040 FFF7FEFF 		bl	LCD_WriteControl
 512              	.LVL58:
  70:Generated_Source\PSoC5/LCD.c ****     LCD_WriteControl(LCD_DISPLAY_CURSOR_OFF);     /* Turn Display, Cursor OFF */
 513              		.loc 1 70 0
 514 0044 2C20     		movs	r0, #44
 515 0046 FFF7FEFF 		bl	LCD_WriteControl
 516              	.LVL59:
  71:Generated_Source\PSoC5/LCD.c ****     LCD_WriteControl(LCD_CLEAR_DISPLAY);          /* Clear LCD Screen */
 517              		.loc 1 71 0
 518 004a 0820     		movs	r0, #8
 519 004c FFF7FEFF 		bl	LCD_WriteControl
 520              	.LVL60:
  72:Generated_Source\PSoC5/LCD.c ****     LCD_WriteControl(LCD_DISPLAY_ON_CURSOR_OFF);  /* Turn Display ON, Cursor OFF */
 521              		.loc 1 72 0
 522 0050 0120     		movs	r0, #1
 523 0052 FFF7FEFF 		bl	LCD_WriteControl
 524              	.LVL61:
  73:Generated_Source\PSoC5/LCD.c ****     LCD_WriteControl(LCD_RESET_CURSOR_POSITION);  /* Set Cursor to 0,0 */
 525              		.loc 1 73 0
 526 0056 0C20     		movs	r0, #12
 527 0058 FFF7FEFF 		bl	LCD_WriteControl
 528              	.LVL62:
  74:Generated_Source\PSoC5/LCD.c ****     CyDelay(5u);
 529              		.loc 1 74 0
 530 005c 0320     		movs	r0, #3
 531 005e FFF7FEFF 		bl	LCD_WriteControl
 532              	.LVL63:
  80:Generated_Source\PSoC5/LCD.c **** 
 533              		.loc 1 80 0
 534 0062 BDE80840 		pop	{r3, lr}
 535              		.cfi_restore 14
 536              		.cfi_restore 3
 537              		.cfi_def_cfa_offset 0
  75:Generated_Source\PSoC5/LCD.c **** 
 538              		.loc 1 75 0
 539 0066 0520     		movs	r0, #5
 540 0068 FFF7FEBF 		b	CyDelay
 541              	.LVL64:
 542              		.cfi_endproc
 543              	.LFE0:
 544              		.size	LCD_Init, .-LCD_Init
 545              		.section	.text.LCD_Enable,"ax",%progbits
 546              		.align	1
 547              		.global	LCD_Enable
ARM GAS  C:\Users\Luggi\AppData\Local\Temp\ccvcYNY5.s 			page 22


 548              		.thumb
 549              		.thumb_func
 550              		.type	LCD_Enable, %function
 551              	LCD_Enable:
 552              	.LFB1:
 105:Generated_Source\PSoC5/LCD.c ****     LCD_DisplayOn();
 553              		.loc 1 105 0
 554              		.cfi_startproc
 555              		@ args = 0, pretend = 0, frame = 0
 556              		@ frame_needed = 0, uses_anonymous_args = 0
 557 0000 08B5     		push	{r3, lr}
 558              		.cfi_def_cfa_offset 8
 559              		.cfi_offset 3, -8
 560              		.cfi_offset 14, -4
 106:Generated_Source\PSoC5/LCD.c ****     LCD_enableState = 1u;
 561              		.loc 1 106 0
 562 0002 0C20     		movs	r0, #12
 563 0004 FFF7FEFF 		bl	LCD_WriteControl
 564              	.LVL65:
 107:Generated_Source\PSoC5/LCD.c **** }
 565              		.loc 1 107 0
 566 0008 014B     		ldr	r3, .L24
 567 000a 0122     		movs	r2, #1
 568 000c 1A70     		strb	r2, [r3]
 569 000e 08BD     		pop	{r3, pc}
 570              	.L25:
 571              		.align	2
 572              	.L24:
 573 0010 00000000 		.word	.LANCHOR0
 574              		.cfi_endproc
 575              	.LFE1:
 576              		.size	LCD_Enable, .-LCD_Enable
 577              		.section	.text.LCD_Start,"ax",%progbits
 578              		.align	1
 579              		.global	LCD_Start
 580              		.thumb
 581              		.thumb_func
 582              		.type	LCD_Start, %function
 583              	LCD_Start:
 584              	.LFB2:
 138:Generated_Source\PSoC5/LCD.c ****     /* If not initialized, perform initialization */
 585              		.loc 1 138 0
 586              		.cfi_startproc
 587              		@ args = 0, pretend = 0, frame = 0
 588              		@ frame_needed = 0, uses_anonymous_args = 0
 589 0000 10B5     		push	{r4, lr}
 590              		.cfi_def_cfa_offset 8
 591              		.cfi_offset 4, -8
 592              		.cfi_offset 14, -4
 140:Generated_Source\PSoC5/LCD.c ****     {
 593              		.loc 1 140 0
 594 0002 054C     		ldr	r4, .L28
 595 0004 6378     		ldrb	r3, [r4, #1]	@ zero_extendqisi2
 596 0006 1BB9     		cbnz	r3, .L27
 142:Generated_Source\PSoC5/LCD.c ****         LCD_initVar = 1u;
 597              		.loc 1 142 0
 598 0008 FFF7FEFF 		bl	LCD_Init
ARM GAS  C:\Users\Luggi\AppData\Local\Temp\ccvcYNY5.s 			page 23


 599              	.LVL66:
 143:Generated_Source\PSoC5/LCD.c ****     }
 600              		.loc 1 143 0
 601 000c 0123     		movs	r3, #1
 602 000e 6370     		strb	r3, [r4, #1]
 603              	.L27:
 148:Generated_Source\PSoC5/LCD.c **** 
 604              		.loc 1 148 0
 605 0010 BDE81040 		pop	{r4, lr}
 606              		.cfi_restore 14
 607              		.cfi_restore 4
 608              		.cfi_def_cfa_offset 0
 147:Generated_Source\PSoC5/LCD.c **** }
 609              		.loc 1 147 0
 610 0014 FFF7FEBF 		b	LCD_Enable
 611              	.LVL67:
 612              	.L29:
 613              		.align	2
 614              	.L28:
 615 0018 00000000 		.word	.LANCHOR0
 616              		.cfi_endproc
 617              	.LFE2:
 618              		.size	LCD_Start, .-LCD_Start
 619              		.section	.text.LCD_Stop,"ax",%progbits
 620              		.align	1
 621              		.global	LCD_Stop
 622              		.thumb
 623              		.thumb_func
 624              		.type	LCD_Stop, %function
 625              	LCD_Stop:
 626              	.LFB3:
 169:Generated_Source\PSoC5/LCD.c ****     /* Calls LCD Off Macro */
 627              		.loc 1 169 0
 628              		.cfi_startproc
 629              		@ args = 0, pretend = 0, frame = 0
 630              		@ frame_needed = 0, uses_anonymous_args = 0
 631 0000 08B5     		push	{r3, lr}
 632              		.cfi_def_cfa_offset 8
 633              		.cfi_offset 3, -8
 634              		.cfi_offset 14, -4
 171:Generated_Source\PSoC5/LCD.c ****     LCD_enableState = 0u;
 635              		.loc 1 171 0
 636 0002 0820     		movs	r0, #8
 637 0004 FFF7FEFF 		bl	LCD_WriteControl
 638              	.LVL68:
 172:Generated_Source\PSoC5/LCD.c **** }
 639              		.loc 1 172 0
 640 0008 014B     		ldr	r3, .L31
 641 000a 0022     		movs	r2, #0
 642 000c 1A70     		strb	r2, [r3]
 643 000e 08BD     		pop	{r3, pc}
 644              	.L32:
 645              		.align	2
 646              	.L31:
 647 0010 00000000 		.word	.LANCHOR0
 648              		.cfi_endproc
 649              	.LFE3:
ARM GAS  C:\Users\Luggi\AppData\Local\Temp\ccvcYNY5.s 			page 24


 650              		.size	LCD_Stop, .-LCD_Stop
 651              		.section	.text.LCD_Position,"ax",%progbits
 652              		.align	1
 653              		.global	LCD_Position
 654              		.thumb
 655              		.thumb_func
 656              		.type	LCD_Position, %function
 657              	LCD_Position:
 658              	.LFB4:
 197:Generated_Source\PSoC5/LCD.c ****     switch (row)
 659              		.loc 1 197 0
 660              		.cfi_startproc
 661              		@ args = 0, pretend = 0, frame = 0
 662              		@ frame_needed = 0, uses_anonymous_args = 0
 663              		@ link register save eliminated.
 664              	.LVL69:
 198:Generated_Source\PSoC5/LCD.c ****     {
 665              		.loc 1 198 0
 666 0000 0328     		cmp	r0, #3
 667 0002 11D8     		bhi	.L33
 668 0004 DFE800F0 		tbb	[pc, r0]
 669              	.L36:
 670 0008 02       		.byte	(.L35-.L36)/2
 671 0009 05       		.byte	(.L37-.L36)/2
 672 000a 08       		.byte	(.L38-.L36)/2
 673 000b 0B       		.byte	(.L39-.L36)/2
 674              		.p2align 1
 675              	.L35:
 201:Generated_Source\PSoC5/LCD.c ****             break;
 676              		.loc 1 201 0
 677 000c 81F08000 		eor	r0, r1, #128
 678              	.LVL70:
 679 0010 08E0     		b	.L40
 680              	.LVL71:
 681              	.L37:
 204:Generated_Source\PSoC5/LCD.c ****             break;
 682              		.loc 1 204 0
 683 0012 A1F14000 		sub	r0, r1, #64
 684              	.LVL72:
 685 0016 04E0     		b	.L41
 686              	.LVL73:
 687              	.L38:
 207:Generated_Source\PSoC5/LCD.c ****             break;
 688              		.loc 1 207 0
 689 0018 A1F16C00 		sub	r0, r1, #108
 690              	.LVL74:
 691 001c 01E0     		b	.L41
 692              	.LVL75:
 693              	.L39:
 210:Generated_Source\PSoC5/LCD.c ****             break;
 694              		.loc 1 210 0
 695 001e A1F12C00 		sub	r0, r1, #44
 696              	.LVL76:
 697              	.L41:
 698 0022 C0B2     		uxtb	r0, r0
 699              	.L40:
 700 0024 FFF7FEBF 		b	LCD_WriteControl
ARM GAS  C:\Users\Luggi\AppData\Local\Temp\ccvcYNY5.s 			page 25


 701              	.LVL77:
 702              	.L33:
 703 0028 7047     		bx	lr
 704              		.cfi_endproc
 705              	.LFE4:
 706              		.size	LCD_Position, .-LCD_Position
 707              		.section	.text.LCD_PrintInt8,"ax",%progbits
 708              		.align	1
 709              		.global	LCD_PrintInt8
 710              		.thumb
 711              		.thumb_func
 712              		.type	LCD_PrintInt8, %function
 713              	LCD_PrintInt8:
 714              	.LFB12:
 549:Generated_Source\PSoC5/LCD.c **** }
 550:Generated_Source\PSoC5/LCD.c **** 
 551:Generated_Source\PSoC5/LCD.c **** 
 552:Generated_Source\PSoC5/LCD.c **** #if(LCD_CONVERSION_ROUTINES == 1u)
 553:Generated_Source\PSoC5/LCD.c **** 
 554:Generated_Source\PSoC5/LCD.c ****     /*******************************************************************************
 555:Generated_Source\PSoC5/LCD.c ****     *  Function Name: LCD_PrintInt8
 556:Generated_Source\PSoC5/LCD.c ****     ********************************************************************************
 557:Generated_Source\PSoC5/LCD.c ****     *
 558:Generated_Source\PSoC5/LCD.c ****     * Summary:
 559:Generated_Source\PSoC5/LCD.c ****     *  Print a byte as two ASCII characters.
 560:Generated_Source\PSoC5/LCD.c ****     *
 561:Generated_Source\PSoC5/LCD.c ****     * Parameters:
 562:Generated_Source\PSoC5/LCD.c ****     *  value: The byte to be printed out as ASCII characters.
 563:Generated_Source\PSoC5/LCD.c ****     *
 564:Generated_Source\PSoC5/LCD.c ****     * Return:
 565:Generated_Source\PSoC5/LCD.c ****     *  None.
 566:Generated_Source\PSoC5/LCD.c ****     *
 567:Generated_Source\PSoC5/LCD.c ****     *******************************************************************************/
 568:Generated_Source\PSoC5/LCD.c ****     void LCD_PrintInt8(uint8 value) 
 569:Generated_Source\PSoC5/LCD.c ****     {
 715              		.loc 1 569 0
 716              		.cfi_startproc
 717              		@ args = 0, pretend = 0, frame = 0
 718              		@ frame_needed = 0, uses_anonymous_args = 0
 719              	.LVL78:
 720 0000 38B5     		push	{r3, r4, r5, lr}
 721              		.cfi_def_cfa_offset 16
 722              		.cfi_offset 3, -16
 723              		.cfi_offset 4, -12
 724              		.cfi_offset 5, -8
 725              		.cfi_offset 14, -4
 726              		.loc 1 569 0
 727 0002 0446     		mov	r4, r0
 570:Generated_Source\PSoC5/LCD.c ****         static char8 const CYCODE LCD_hex[16u] = "0123456789ABCDEF";
 571:Generated_Source\PSoC5/LCD.c ****         
 572:Generated_Source\PSoC5/LCD.c ****         LCD_PutChar((char8) LCD_hex[value >> LCD_BYTE_UPPER_NIBBLE_SHIFT]);
 728              		.loc 1 572 0
 729 0004 054D     		ldr	r5, .L43
 730 0006 0309     		lsrs	r3, r0, #4
 731              	.LBB6:
 732              	.LBB7:
 266:Generated_Source\PSoC5/LCD.c **** }
ARM GAS  C:\Users\Luggi\AppData\Local\Temp\ccvcYNY5.s 			page 26


 733              		.loc 1 266 0
 734 0008 E85C     		ldrb	r0, [r5, r3]	@ zero_extendqisi2
 735              	.LVL79:
 736              	.LBE7:
 737              	.LBE6:
 573:Generated_Source\PSoC5/LCD.c ****         LCD_PutChar((char8) LCD_hex[value & LCD_BYTE_LOWER_NIBBLE_MASK]);
 738              		.loc 1 573 0
 739 000a 04F00F04 		and	r4, r4, #15
 740              	.LBB9:
 741              	.LBB8:
 266:Generated_Source\PSoC5/LCD.c **** }
 742              		.loc 1 266 0
 743 000e FFF7FEFF 		bl	LCD_WriteData
 744              	.LVL80:
 745              	.LBE8:
 746              	.LBE9:
 747              	.LBB10:
 748              	.LBB11:
 749 0012 285D     		ldrb	r0, [r5, r4]	@ zero_extendqisi2
 750              	.LBE11:
 751              	.LBE10:
 574:Generated_Source\PSoC5/LCD.c ****     }
 752              		.loc 1 574 0
 753 0014 BDE83840 		pop	{r3, r4, r5, lr}
 754              		.cfi_restore 14
 755              		.cfi_restore 5
 756              		.cfi_restore 4
 757              		.cfi_restore 3
 758              		.cfi_def_cfa_offset 0
 759              	.LBB13:
 760              	.LBB12:
 266:Generated_Source\PSoC5/LCD.c **** }
 761              		.loc 1 266 0
 762 0018 FFF7FEBF 		b	LCD_WriteData
 763              	.LVL81:
 764              	.L44:
 765              		.align	2
 766              	.L43:
 767 001c 00000000 		.word	.LANCHOR1
 768              	.LBE12:
 769              	.LBE13:
 770              		.cfi_endproc
 771              	.LFE12:
 772              		.size	LCD_PrintInt8, .-LCD_PrintInt8
 773              		.section	.text.LCD_PrintInt16,"ax",%progbits
 774              		.align	1
 775              		.global	LCD_PrintInt16
 776              		.thumb
 777              		.thumb_func
 778              		.type	LCD_PrintInt16, %function
 779              	LCD_PrintInt16:
 780              	.LFB13:
 575:Generated_Source\PSoC5/LCD.c **** 
 576:Generated_Source\PSoC5/LCD.c **** 
 577:Generated_Source\PSoC5/LCD.c ****     /*******************************************************************************
 578:Generated_Source\PSoC5/LCD.c ****     *  Function Name: LCD_PrintInt16
 579:Generated_Source\PSoC5/LCD.c ****     ********************************************************************************
ARM GAS  C:\Users\Luggi\AppData\Local\Temp\ccvcYNY5.s 			page 27


 580:Generated_Source\PSoC5/LCD.c ****     *
 581:Generated_Source\PSoC5/LCD.c ****     * Summary:
 582:Generated_Source\PSoC5/LCD.c ****     *  Print a uint16 as four ASCII characters.
 583:Generated_Source\PSoC5/LCD.c ****     *
 584:Generated_Source\PSoC5/LCD.c ****     * Parameters:
 585:Generated_Source\PSoC5/LCD.c ****     *  value: The uint16 to be printed out as ASCII characters.
 586:Generated_Source\PSoC5/LCD.c ****     *
 587:Generated_Source\PSoC5/LCD.c ****     * Return:
 588:Generated_Source\PSoC5/LCD.c ****     *  None.
 589:Generated_Source\PSoC5/LCD.c ****     *
 590:Generated_Source\PSoC5/LCD.c ****     *******************************************************************************/
 591:Generated_Source\PSoC5/LCD.c ****     void LCD_PrintInt16(uint16 value) 
 592:Generated_Source\PSoC5/LCD.c ****     {
 781              		.loc 1 592 0
 782              		.cfi_startproc
 783              		@ args = 0, pretend = 0, frame = 0
 784              		@ frame_needed = 0, uses_anonymous_args = 0
 785              	.LVL82:
 786 0000 10B5     		push	{r4, lr}
 787              		.cfi_def_cfa_offset 8
 788              		.cfi_offset 4, -8
 789              		.cfi_offset 14, -4
 790              		.loc 1 592 0
 791 0002 0446     		mov	r4, r0
 593:Generated_Source\PSoC5/LCD.c ****         LCD_PrintInt8((uint8)(value >> LCD_U16_UPPER_BYTE_SHIFT));
 792              		.loc 1 593 0
 793 0004 000A     		lsrs	r0, r0, #8
 794              	.LVL83:
 795 0006 FFF7FEFF 		bl	LCD_PrintInt8
 796              	.LVL84:
 594:Generated_Source\PSoC5/LCD.c ****         LCD_PrintInt8((uint8)(value & LCD_U16_LOWER_BYTE_MASK));
 797              		.loc 1 594 0
 798 000a E0B2     		uxtb	r0, r4
 595:Generated_Source\PSoC5/LCD.c ****     }
 799              		.loc 1 595 0
 800 000c BDE81040 		pop	{r4, lr}
 801              		.cfi_restore 14
 802              		.cfi_restore 4
 803              		.cfi_def_cfa_offset 0
 594:Generated_Source\PSoC5/LCD.c ****         LCD_PrintInt8((uint8)(value & LCD_U16_LOWER_BYTE_MASK));
 804              		.loc 1 594 0
 805 0010 FFF7FEBF 		b	LCD_PrintInt8
 806              	.LVL85:
 807              		.cfi_endproc
 808              	.LFE13:
 809              		.size	LCD_PrintInt16, .-LCD_PrintInt16
 810              		.section	.text.LCD_PrintInt32,"ax",%progbits
 811              		.align	1
 812              		.global	LCD_PrintInt32
 813              		.thumb
 814              		.thumb_func
 815              		.type	LCD_PrintInt32, %function
 816              	LCD_PrintInt32:
 817              	.LFB14:
 596:Generated_Source\PSoC5/LCD.c **** 
 597:Generated_Source\PSoC5/LCD.c ****     
 598:Generated_Source\PSoC5/LCD.c ****     /*******************************************************************************
ARM GAS  C:\Users\Luggi\AppData\Local\Temp\ccvcYNY5.s 			page 28


 599:Generated_Source\PSoC5/LCD.c ****     *  Function Name: LCD_PrintInt32
 600:Generated_Source\PSoC5/LCD.c ****     ********************************************************************************
 601:Generated_Source\PSoC5/LCD.c ****     *
 602:Generated_Source\PSoC5/LCD.c ****     * Summary:
 603:Generated_Source\PSoC5/LCD.c ****     *  Print a uint32 hexadecimal number as eight ASCII characters.
 604:Generated_Source\PSoC5/LCD.c ****     *
 605:Generated_Source\PSoC5/LCD.c ****     * Parameters:
 606:Generated_Source\PSoC5/LCD.c ****     *  value: The uint32 to be printed out as ASCII characters.
 607:Generated_Source\PSoC5/LCD.c ****     *
 608:Generated_Source\PSoC5/LCD.c ****     * Return:
 609:Generated_Source\PSoC5/LCD.c ****     *  None.
 610:Generated_Source\PSoC5/LCD.c ****     *
 611:Generated_Source\PSoC5/LCD.c ****     *******************************************************************************/
 612:Generated_Source\PSoC5/LCD.c ****     void LCD_PrintInt32(uint32 value) 
 613:Generated_Source\PSoC5/LCD.c ****     {
 818              		.loc 1 613 0
 819              		.cfi_startproc
 820              		@ args = 0, pretend = 0, frame = 0
 821              		@ frame_needed = 0, uses_anonymous_args = 0
 822              	.LVL86:
 823 0000 38B5     		push	{r3, r4, r5, lr}
 824              		.cfi_def_cfa_offset 16
 825              		.cfi_offset 3, -16
 826              		.cfi_offset 4, -12
 827              		.cfi_offset 5, -8
 828              		.cfi_offset 14, -4
 829              		.loc 1 613 0
 830 0002 0546     		mov	r5, r0
 614:Generated_Source\PSoC5/LCD.c ****         uint8 shift = LCD_32_BIT_SHIFT;
 831              		.loc 1 614 0
 832 0004 2024     		movs	r4, #32
 833              	.LVL87:
 834              	.L47:
 615:Generated_Source\PSoC5/LCD.c ****         
 616:Generated_Source\PSoC5/LCD.c ****         while (shift != 0u)
 617:Generated_Source\PSoC5/LCD.c ****         {
 618:Generated_Source\PSoC5/LCD.c ****             /* "shift" var is to be subtracted by 8 prior shifting. This implements 
 619:Generated_Source\PSoC5/LCD.c ****             * shifting by 24, 16, 8 and 0u. 
 620:Generated_Source\PSoC5/LCD.c ****             */
 621:Generated_Source\PSoC5/LCD.c ****             shift -= LCD_8_BIT_SHIFT;
 835              		.loc 1 621 0
 836 0006 083C     		subs	r4, r4, #8
 837              	.LVL88:
 838 0008 E4B2     		uxtb	r4, r4
 839              	.LVL89:
 622:Generated_Source\PSoC5/LCD.c ****             
 623:Generated_Source\PSoC5/LCD.c ****             /* Print 8 bits of uint32 hex number */
 624:Generated_Source\PSoC5/LCD.c ****             LCD_PrintInt8((uint8) ((uint32) (value >> shift)));
 840              		.loc 1 624 0
 841 000a 25FA04F0 		lsr	r0, r5, r4
 842 000e C0B2     		uxtb	r0, r0
 843 0010 FFF7FEFF 		bl	LCD_PrintInt8
 844              	.LVL90:
 616:Generated_Source\PSoC5/LCD.c ****         {
 845              		.loc 1 616 0
 846 0014 002C     		cmp	r4, #0
 847 0016 F6D1     		bne	.L47
ARM GAS  C:\Users\Luggi\AppData\Local\Temp\ccvcYNY5.s 			page 29


 625:Generated_Source\PSoC5/LCD.c ****         }
 626:Generated_Source\PSoC5/LCD.c ****     }
 848              		.loc 1 626 0
 849 0018 38BD     		pop	{r3, r4, r5, pc}
 850              		.cfi_endproc
 851              	.LFE14:
 852              		.size	LCD_PrintInt32, .-LCD_PrintInt32
 853              		.section	.text.LCD_PrintU32Number,"ax",%progbits
 854              		.align	1
 855              		.global	LCD_PrintU32Number
 856              		.thumb
 857              		.thumb_func
 858              		.type	LCD_PrintU32Number, %function
 859              	LCD_PrintU32Number:
 860              	.LFB15:
 627:Generated_Source\PSoC5/LCD.c ****     
 628:Generated_Source\PSoC5/LCD.c ****     
 629:Generated_Source\PSoC5/LCD.c ****     /*******************************************************************************
 630:Generated_Source\PSoC5/LCD.c ****     *  Function Name: LCD_PrintNumber
 631:Generated_Source\PSoC5/LCD.c ****     ********************************************************************************
 632:Generated_Source\PSoC5/LCD.c ****     *
 633:Generated_Source\PSoC5/LCD.c ****     * Summary:
 634:Generated_Source\PSoC5/LCD.c ****     *  Print an uint16 value as a left-justified decimal value.
 635:Generated_Source\PSoC5/LCD.c ****     *
 636:Generated_Source\PSoC5/LCD.c ****     * Parameters:
 637:Generated_Source\PSoC5/LCD.c ****     *  value: A 16-bit value to be printed in ASCII characters as a decimal number
 638:Generated_Source\PSoC5/LCD.c ****     *
 639:Generated_Source\PSoC5/LCD.c ****     * Return:
 640:Generated_Source\PSoC5/LCD.c ****     *  None.
 641:Generated_Source\PSoC5/LCD.c ****     *
 642:Generated_Source\PSoC5/LCD.c ****     * Note:
 643:Generated_Source\PSoC5/LCD.c ****     *  This function is implemented as a macro.
 644:Generated_Source\PSoC5/LCD.c ****     *
 645:Generated_Source\PSoC5/LCD.c ****     *******************************************************************************/
 646:Generated_Source\PSoC5/LCD.c **** 
 647:Generated_Source\PSoC5/LCD.c ****     
 648:Generated_Source\PSoC5/LCD.c ****     /*******************************************************************************
 649:Generated_Source\PSoC5/LCD.c ****     *  Function Name: LCD_PrintU32Number
 650:Generated_Source\PSoC5/LCD.c ****     ********************************************************************************
 651:Generated_Source\PSoC5/LCD.c ****     *
 652:Generated_Source\PSoC5/LCD.c ****     * Summary:
 653:Generated_Source\PSoC5/LCD.c ****     *  Print an uint32 value as a left-justified decimal value.
 654:Generated_Source\PSoC5/LCD.c ****     *
 655:Generated_Source\PSoC5/LCD.c ****     * Parameters:
 656:Generated_Source\PSoC5/LCD.c ****     *  value: A 32-bit value to be printed in ASCII characters as a decimal number
 657:Generated_Source\PSoC5/LCD.c ****     *
 658:Generated_Source\PSoC5/LCD.c ****     * Return:
 659:Generated_Source\PSoC5/LCD.c ****     *  None.
 660:Generated_Source\PSoC5/LCD.c ****     *
 661:Generated_Source\PSoC5/LCD.c ****     *******************************************************************************/
 662:Generated_Source\PSoC5/LCD.c ****     void LCD_PrintU32Number(uint32 value) 
 663:Generated_Source\PSoC5/LCD.c ****     {
 861              		.loc 1 663 0
 862              		.cfi_startproc
 863              		@ args = 0, pretend = 0, frame = 16
 864              		@ frame_needed = 0, uses_anonymous_args = 0
 865              	.LVL91:
ARM GAS  C:\Users\Luggi\AppData\Local\Temp\ccvcYNY5.s 			page 30


 866 0000 1FB5     		push	{r0, r1, r2, r3, r4, lr}
 867              		.cfi_def_cfa_offset 24
 868              		.cfi_offset 4, -8
 869              		.cfi_offset 14, -4
 664:Generated_Source\PSoC5/LCD.c ****         uint8 tmpDigit;
 665:Generated_Source\PSoC5/LCD.c ****         char8 number[LCD_NUMBER_OF_REMAINDERS_U32 + 1u];
 666:Generated_Source\PSoC5/LCD.c ****         uint8 digIndex = LCD_NUMBER_OF_REMAINDERS_U32;
 667:Generated_Source\PSoC5/LCD.c ****         
 668:Generated_Source\PSoC5/LCD.c ****         /* This API will output a decimal number as a string and that string will be 
 669:Generated_Source\PSoC5/LCD.c ****         * filled from end to start. Set Null termination character first.
 670:Generated_Source\PSoC5/LCD.c ****         */
 671:Generated_Source\PSoC5/LCD.c ****         number[digIndex] = (char8) '\0';
 870              		.loc 1 671 0
 871 0002 0023     		movs	r3, #0
 872 0004 8DF80E30 		strb	r3, [sp, #14]
 873              	.LVL92:
 672:Generated_Source\PSoC5/LCD.c ****         digIndex--;
 874              		.loc 1 672 0
 875 0008 0922     		movs	r2, #9
 876              	.LVL93:
 877              	.L50:
 878 000a 04AB     		add	r3, sp, #16
 879 000c 9C18     		adds	r4, r3, r2
 880 000e 0A23     		movs	r3, #10
 673:Generated_Source\PSoC5/LCD.c ****         
 674:Generated_Source\PSoC5/LCD.c ****         /* Load these in reverse order */
 675:Generated_Source\PSoC5/LCD.c ****         while(value >= LCD_TEN)
 676:Generated_Source\PSoC5/LCD.c ****         {
 677:Generated_Source\PSoC5/LCD.c ****             /* Extract decimal digit, indexed by 'digIndex', from 'value' and
 678:Generated_Source\PSoC5/LCD.c ****             * convert it to ASCII character.
 679:Generated_Source\PSoC5/LCD.c ****             */
 680:Generated_Source\PSoC5/LCD.c ****             tmpDigit = (uint8) (((uint8) (value % LCD_TEN)) + (uint8) LCD_ZERO_CHAR_ASCII);
 881              		.loc 1 680 0
 882 0010 B0FBF3F1 		udiv	r1, r0, r3
 883 0014 03FB1103 		mls	r3, r3, r1, r0
 675:Generated_Source\PSoC5/LCD.c ****         {
 884              		.loc 1 675 0
 885 0018 0928     		cmp	r0, #9
 886              		.loc 1 680 0
 887 001a 03F13003 		add	r3, r3, #48
 681:Generated_Source\PSoC5/LCD.c ****             
 682:Generated_Source\PSoC5/LCD.c ****             /* Temporary variable 'tmpDigit' is used to avoid Violation of MISRA rule 
 683:Generated_Source\PSoC5/LCD.c ****             * #10.3.
 684:Generated_Source\PSoC5/LCD.c ****             */
 685:Generated_Source\PSoC5/LCD.c ****             number[digIndex] = (char8) tmpDigit;
 888              		.loc 1 685 0
 889 001e 04F80C3C 		strb	r3, [r4, #-12]
 675:Generated_Source\PSoC5/LCD.c ****         {
 890              		.loc 1 675 0
 891 0022 03D9     		bls	.L52
 686:Generated_Source\PSoC5/LCD.c ****             value /= LCD_TEN;
 687:Generated_Source\PSoC5/LCD.c ****             digIndex--;
 892              		.loc 1 687 0
 893 0024 013A     		subs	r2, r2, #1
 894              	.LVL94:
 686:Generated_Source\PSoC5/LCD.c ****             value /= LCD_TEN;
 895              		.loc 1 686 0
ARM GAS  C:\Users\Luggi\AppData\Local\Temp\ccvcYNY5.s 			page 31


 896 0026 0846     		mov	r0, r1
 897              	.LVL95:
 898              		.loc 1 687 0
 899 0028 D2B2     		uxtb	r2, r2
 900              	.LVL96:
 901 002a EEE7     		b	.L50
 902              	.L52:
 688:Generated_Source\PSoC5/LCD.c ****         }
 689:Generated_Source\PSoC5/LCD.c ****         
 690:Generated_Source\PSoC5/LCD.c ****         /* Extract last decimal digit 'digIndex', from the 'value' and convert it
 691:Generated_Source\PSoC5/LCD.c ****         * to ASCII character.
 692:Generated_Source\PSoC5/LCD.c ****         */
 693:Generated_Source\PSoC5/LCD.c ****         tmpDigit = (uint8) (((uint8)(value % LCD_TEN)) + (uint8) LCD_ZERO_CHAR_ASCII);
 694:Generated_Source\PSoC5/LCD.c ****         number[digIndex] = (char8) tmpDigit;
 695:Generated_Source\PSoC5/LCD.c **** 
 696:Generated_Source\PSoC5/LCD.c ****         /* Print out number */
 697:Generated_Source\PSoC5/LCD.c ****         LCD_PrintString(&number[digIndex]);
 903              		.loc 1 697 0
 904 002c 01AB     		add	r3, sp, #4
 905 002e 9818     		adds	r0, r3, r2
 906              	.LVL97:
 907 0030 FFF7FEFF 		bl	LCD_PrintString
 908              	.LVL98:
 698:Generated_Source\PSoC5/LCD.c ****     }
 909              		.loc 1 698 0
 910 0034 04B0     		add	sp, sp, #16
 911              		.cfi_def_cfa_offset 8
 912              		@ sp needed
 913 0036 10BD     		pop	{r4, pc}
 914              		.cfi_endproc
 915              	.LFE15:
 916              		.size	LCD_PrintU32Number, .-LCD_PrintU32Number
 917              		.global	LCD_initVar
 918              		.global	LCD_enableState
 919              		.section	.rodata
 920              		.set	.LANCHOR1,. + 0
 921              		.type	LCD_hex.4905, %object
 922              		.size	LCD_hex.4905, 16
 923              	LCD_hex.4905:
 924 0000 30313233 		.ascii	"0123456789ABCDEF"
 924      34353637 
 924      38394142 
 924      43444546 
 925              		.bss
 926              		.set	.LANCHOR0,. + 0
 927              		.type	LCD_enableState, %object
 928              		.size	LCD_enableState, 1
 929              	LCD_enableState:
 930 0000 00       		.space	1
 931              		.type	LCD_initVar, %object
 932              		.size	LCD_initVar, 1
 933              	LCD_initVar:
 934 0001 00       		.space	1
 935              		.text
 936              	.Letext0:
 937              		.file 2 "Generated_Source\\PSoC5\\cytypes.h"
 938              		.file 3 "Generated_Source\\PSoC5\\CyLib.h"
ARM GAS  C:\Users\Luggi\AppData\Local\Temp\ccvcYNY5.s 			page 32

