ARM GAS  C:\Users\Luggi\AppData\Local\Temp\ccGFBufZ.s 			page 1


   1              		.syntax unified
   2              		.cpu cortex-m3
   3              		.fpu softvfp
   4              		.eabi_attribute 20, 1
   5              		.eabi_attribute 21, 1
   6              		.eabi_attribute 23, 3
   7              		.eabi_attribute 24, 1
   8              		.eabi_attribute 25, 1
   9              		.eabi_attribute 26, 1
  10              		.eabi_attribute 30, 4
  11              		.eabi_attribute 34, 1
  12              		.eabi_attribute 18, 4
  13              		.thumb
  14              		.file	"PGA_2_PM.c"
  15              		.text
  16              	.Ltext0:
  17              		.cfi_sections	.debug_frame
  18              		.section	.text.PGA_2_SaveConfig,"ax",%progbits
  19              		.align	1
  20              		.global	PGA_2_SaveConfig
  21              		.thumb
  22              		.thumb_func
  23              		.type	PGA_2_SaveConfig, %function
  24              	PGA_2_SaveConfig:
  25              	.LFB0:
  26              		.file 1 "Generated_Source\\PSoC5\\PGA_2_PM.c"
   1:Generated_Source\PSoC5/PGA_2_PM.c **** /*******************************************************************************
   2:Generated_Source\PSoC5/PGA_2_PM.c **** * File Name: PGA_2_PM.c  
   3:Generated_Source\PSoC5/PGA_2_PM.c **** * Version 2.0
   4:Generated_Source\PSoC5/PGA_2_PM.c **** *
   5:Generated_Source\PSoC5/PGA_2_PM.c **** * Description:
   6:Generated_Source\PSoC5/PGA_2_PM.c **** *  This file provides the power manager source code to the API for PGA 
   7:Generated_Source\PSoC5/PGA_2_PM.c **** *  Component.
   8:Generated_Source\PSoC5/PGA_2_PM.c **** *
   9:Generated_Source\PSoC5/PGA_2_PM.c **** * Note:
  10:Generated_Source\PSoC5/PGA_2_PM.c **** *
  11:Generated_Source\PSoC5/PGA_2_PM.c **** ********************************************************************************
  12:Generated_Source\PSoC5/PGA_2_PM.c **** * Copyright 2008-2012, Cypress Semiconductor Corporation.  All rights reserved.
  13:Generated_Source\PSoC5/PGA_2_PM.c **** * You may use this file only in accordance with the license, terms, conditions, 
  14:Generated_Source\PSoC5/PGA_2_PM.c **** * disclaimers, and limitations in the end user license agreement accompanying 
  15:Generated_Source\PSoC5/PGA_2_PM.c **** * the software package with which this file was provided.
  16:Generated_Source\PSoC5/PGA_2_PM.c **** *******************************************************************************/
  17:Generated_Source\PSoC5/PGA_2_PM.c **** 
  18:Generated_Source\PSoC5/PGA_2_PM.c **** #include "PGA_2.h"
  19:Generated_Source\PSoC5/PGA_2_PM.c **** 
  20:Generated_Source\PSoC5/PGA_2_PM.c **** static PGA_2_BACKUP_STRUCT  PGA_2_backup;
  21:Generated_Source\PSoC5/PGA_2_PM.c **** 
  22:Generated_Source\PSoC5/PGA_2_PM.c **** 
  23:Generated_Source\PSoC5/PGA_2_PM.c **** /*******************************************************************************
  24:Generated_Source\PSoC5/PGA_2_PM.c **** * Function Name: PGA_2_SaveConfig
  25:Generated_Source\PSoC5/PGA_2_PM.c **** ********************************************************************************
  26:Generated_Source\PSoC5/PGA_2_PM.c **** *
  27:Generated_Source\PSoC5/PGA_2_PM.c **** * Summary:
  28:Generated_Source\PSoC5/PGA_2_PM.c **** *  Save the current user register configuration.
  29:Generated_Source\PSoC5/PGA_2_PM.c **** *
  30:Generated_Source\PSoC5/PGA_2_PM.c **** * Parameters:
  31:Generated_Source\PSoC5/PGA_2_PM.c **** *  void
ARM GAS  C:\Users\Luggi\AppData\Local\Temp\ccGFBufZ.s 			page 2


  32:Generated_Source\PSoC5/PGA_2_PM.c **** *
  33:Generated_Source\PSoC5/PGA_2_PM.c **** * Return:
  34:Generated_Source\PSoC5/PGA_2_PM.c **** *  void
  35:Generated_Source\PSoC5/PGA_2_PM.c **** *
  36:Generated_Source\PSoC5/PGA_2_PM.c **** *******************************************************************************/
  37:Generated_Source\PSoC5/PGA_2_PM.c **** void PGA_2_SaveConfig(void) 
  38:Generated_Source\PSoC5/PGA_2_PM.c **** {
  27              		.loc 1 38 0
  28              		.cfi_startproc
  29              		@ args = 0, pretend = 0, frame = 0
  30              		@ frame_needed = 0, uses_anonymous_args = 0
  31              		@ link register save eliminated.
  32 0000 7047     		bx	lr
  33              		.cfi_endproc
  34              	.LFE0:
  35              		.size	PGA_2_SaveConfig, .-PGA_2_SaveConfig
  36              		.section	.text.PGA_2_RestoreConfig,"ax",%progbits
  37              		.align	1
  38              		.global	PGA_2_RestoreConfig
  39              		.thumb
  40              		.thumb_func
  41              		.type	PGA_2_RestoreConfig, %function
  42              	PGA_2_RestoreConfig:
  43              	.LFB1:
  39:Generated_Source\PSoC5/PGA_2_PM.c ****     /* Nothing to save as registers are System reset on retention flops */
  40:Generated_Source\PSoC5/PGA_2_PM.c **** }
  41:Generated_Source\PSoC5/PGA_2_PM.c **** 
  42:Generated_Source\PSoC5/PGA_2_PM.c **** 
  43:Generated_Source\PSoC5/PGA_2_PM.c **** /*******************************************************************************  
  44:Generated_Source\PSoC5/PGA_2_PM.c **** * Function Name: PGA_2_RestoreConfig
  45:Generated_Source\PSoC5/PGA_2_PM.c **** ********************************************************************************
  46:Generated_Source\PSoC5/PGA_2_PM.c **** *
  47:Generated_Source\PSoC5/PGA_2_PM.c **** * Summary:
  48:Generated_Source\PSoC5/PGA_2_PM.c **** *  Restore the register configurations.
  49:Generated_Source\PSoC5/PGA_2_PM.c **** *
  50:Generated_Source\PSoC5/PGA_2_PM.c **** * Parameters:
  51:Generated_Source\PSoC5/PGA_2_PM.c **** *  void
  52:Generated_Source\PSoC5/PGA_2_PM.c **** *
  53:Generated_Source\PSoC5/PGA_2_PM.c **** * Return:
  54:Generated_Source\PSoC5/PGA_2_PM.c **** *  void
  55:Generated_Source\PSoC5/PGA_2_PM.c **** *
  56:Generated_Source\PSoC5/PGA_2_PM.c **** *******************************************************************************/
  57:Generated_Source\PSoC5/PGA_2_PM.c **** void PGA_2_RestoreConfig(void) 
  58:Generated_Source\PSoC5/PGA_2_PM.c **** {
  44              		.loc 1 58 0
  45              		.cfi_startproc
  46              		@ args = 0, pretend = 0, frame = 0
  47              		@ frame_needed = 0, uses_anonymous_args = 0
  48              		@ link register save eliminated.
  49 0000 7047     		bx	lr
  50              		.cfi_endproc
  51              	.LFE1:
  52              		.size	PGA_2_RestoreConfig, .-PGA_2_RestoreConfig
  53              		.section	.text.PGA_2_Sleep,"ax",%progbits
  54              		.align	1
  55              		.global	PGA_2_Sleep
  56              		.thumb
ARM GAS  C:\Users\Luggi\AppData\Local\Temp\ccGFBufZ.s 			page 3


  57              		.thumb_func
  58              		.type	PGA_2_Sleep, %function
  59              	PGA_2_Sleep:
  60              	.LFB2:
  59:Generated_Source\PSoC5/PGA_2_PM.c ****     /* Nothing to restore */
  60:Generated_Source\PSoC5/PGA_2_PM.c **** }
  61:Generated_Source\PSoC5/PGA_2_PM.c **** 
  62:Generated_Source\PSoC5/PGA_2_PM.c **** 
  63:Generated_Source\PSoC5/PGA_2_PM.c **** /*******************************************************************************   
  64:Generated_Source\PSoC5/PGA_2_PM.c **** * Function Name: PGA_2_Sleep
  65:Generated_Source\PSoC5/PGA_2_PM.c **** ********************************************************************************
  66:Generated_Source\PSoC5/PGA_2_PM.c **** *
  67:Generated_Source\PSoC5/PGA_2_PM.c **** * Summary:
  68:Generated_Source\PSoC5/PGA_2_PM.c **** *  Disables block's operation and saves its configuration. Should be called 
  69:Generated_Source\PSoC5/PGA_2_PM.c **** *  just prior to entering sleep.
  70:Generated_Source\PSoC5/PGA_2_PM.c **** *
  71:Generated_Source\PSoC5/PGA_2_PM.c **** * Parameters:
  72:Generated_Source\PSoC5/PGA_2_PM.c **** *  None
  73:Generated_Source\PSoC5/PGA_2_PM.c **** *
  74:Generated_Source\PSoC5/PGA_2_PM.c **** * Return:
  75:Generated_Source\PSoC5/PGA_2_PM.c **** *  None
  76:Generated_Source\PSoC5/PGA_2_PM.c **** *
  77:Generated_Source\PSoC5/PGA_2_PM.c **** * Global variables:
  78:Generated_Source\PSoC5/PGA_2_PM.c **** *  PGA_2_backup: The structure field 'enableState' is modified 
  79:Generated_Source\PSoC5/PGA_2_PM.c **** *  depending on the enable state of the block before entering to sleep mode.
  80:Generated_Source\PSoC5/PGA_2_PM.c **** *
  81:Generated_Source\PSoC5/PGA_2_PM.c **** *******************************************************************************/
  82:Generated_Source\PSoC5/PGA_2_PM.c **** void PGA_2_Sleep(void) 
  83:Generated_Source\PSoC5/PGA_2_PM.c **** {
  61              		.loc 1 83 0
  62              		.cfi_startproc
  63              		@ args = 0, pretend = 0, frame = 0
  64              		@ frame_needed = 0, uses_anonymous_args = 0
  65              		@ link register save eliminated.
  84:Generated_Source\PSoC5/PGA_2_PM.c ****     /* Save PGA enable state */
  85:Generated_Source\PSoC5/PGA_2_PM.c ****     if((PGA_2_PM_ACT_CFG_REG & PGA_2_ACT_PWR_EN) != 0u)
  66              		.loc 1 85 0
  67 0000 054B     		ldr	r3, .L6
  68 0002 064A     		ldr	r2, .L6+4
  69 0004 1B78     		ldrb	r3, [r3]	@ zero_extendqisi2
  70 0006 13F00103 		ands	r3, r3, #1
  71 000a 03D0     		beq	.L4
  86:Generated_Source\PSoC5/PGA_2_PM.c ****     {
  87:Generated_Source\PSoC5/PGA_2_PM.c ****         /* Component is enabled */
  88:Generated_Source\PSoC5/PGA_2_PM.c ****         PGA_2_backup.enableState = 1u;
  72              		.loc 1 88 0
  73 000c 0123     		movs	r3, #1
  74 000e 1370     		strb	r3, [r2]
  89:Generated_Source\PSoC5/PGA_2_PM.c ****         /* Stop the configuration */
  90:Generated_Source\PSoC5/PGA_2_PM.c ****         PGA_2_Stop();
  75              		.loc 1 90 0
  76 0010 FFF7FEBF 		b	PGA_2_Stop
  77              	.LVL0:
  78              	.L4:
  91:Generated_Source\PSoC5/PGA_2_PM.c ****     }
  92:Generated_Source\PSoC5/PGA_2_PM.c ****     else
  93:Generated_Source\PSoC5/PGA_2_PM.c ****     {
ARM GAS  C:\Users\Luggi\AppData\Local\Temp\ccGFBufZ.s 			page 4


  94:Generated_Source\PSoC5/PGA_2_PM.c ****         /* Component is disabled */
  95:Generated_Source\PSoC5/PGA_2_PM.c ****         PGA_2_backup.enableState = 0u;
  79              		.loc 1 95 0
  80 0014 1370     		strb	r3, [r2]
  81 0016 7047     		bx	lr
  82              	.L7:
  83              		.align	2
  84              	.L6:
  85 0018 A9430040 		.word	1073759145
  86 001c 00000000 		.word	.LANCHOR0
  87              		.cfi_endproc
  88              	.LFE2:
  89              		.size	PGA_2_Sleep, .-PGA_2_Sleep
  90              		.section	.text.PGA_2_Wakeup,"ax",%progbits
  91              		.align	1
  92              		.global	PGA_2_Wakeup
  93              		.thumb
  94              		.thumb_func
  95              		.type	PGA_2_Wakeup, %function
  96              	PGA_2_Wakeup:
  97              	.LFB3:
  96:Generated_Source\PSoC5/PGA_2_PM.c ****     }
  97:Generated_Source\PSoC5/PGA_2_PM.c ****     /* Save the configuration */
  98:Generated_Source\PSoC5/PGA_2_PM.c ****     PGA_2_SaveConfig();
  99:Generated_Source\PSoC5/PGA_2_PM.c **** }
 100:Generated_Source\PSoC5/PGA_2_PM.c **** 
 101:Generated_Source\PSoC5/PGA_2_PM.c **** 
 102:Generated_Source\PSoC5/PGA_2_PM.c **** /*******************************************************************************
 103:Generated_Source\PSoC5/PGA_2_PM.c **** * Function Name: PGA_2_Wakeup
 104:Generated_Source\PSoC5/PGA_2_PM.c **** ********************************************************************************
 105:Generated_Source\PSoC5/PGA_2_PM.c **** *
 106:Generated_Source\PSoC5/PGA_2_PM.c **** * Summary:
 107:Generated_Source\PSoC5/PGA_2_PM.c **** *  Enables block's operation and restores its configuration. Should be called
 108:Generated_Source\PSoC5/PGA_2_PM.c **** *  just after awaking from sleep.
 109:Generated_Source\PSoC5/PGA_2_PM.c **** *
 110:Generated_Source\PSoC5/PGA_2_PM.c **** * Parameters:
 111:Generated_Source\PSoC5/PGA_2_PM.c **** *  None
 112:Generated_Source\PSoC5/PGA_2_PM.c **** *
 113:Generated_Source\PSoC5/PGA_2_PM.c **** * Return:
 114:Generated_Source\PSoC5/PGA_2_PM.c **** *  void
 115:Generated_Source\PSoC5/PGA_2_PM.c **** *
 116:Generated_Source\PSoC5/PGA_2_PM.c **** * Global variables:
 117:Generated_Source\PSoC5/PGA_2_PM.c **** *  PGA_2_backup: The structure field 'enableState' is used to 
 118:Generated_Source\PSoC5/PGA_2_PM.c **** *  restore the enable state of block after wakeup from sleep mode.
 119:Generated_Source\PSoC5/PGA_2_PM.c **** * 
 120:Generated_Source\PSoC5/PGA_2_PM.c **** *******************************************************************************/
 121:Generated_Source\PSoC5/PGA_2_PM.c **** void PGA_2_Wakeup(void) 
 122:Generated_Source\PSoC5/PGA_2_PM.c **** {
  98              		.loc 1 122 0
  99              		.cfi_startproc
 100              		@ args = 0, pretend = 0, frame = 0
 101              		@ frame_needed = 0, uses_anonymous_args = 0
 102              		@ link register save eliminated.
 123:Generated_Source\PSoC5/PGA_2_PM.c ****     /* Restore the configurations */
 124:Generated_Source\PSoC5/PGA_2_PM.c ****     PGA_2_RestoreConfig();
 125:Generated_Source\PSoC5/PGA_2_PM.c ****      /* Enables the component operation */
 126:Generated_Source\PSoC5/PGA_2_PM.c ****     if(PGA_2_backup.enableState == 1u)
ARM GAS  C:\Users\Luggi\AppData\Local\Temp\ccGFBufZ.s 			page 5


 103              		.loc 1 126 0
 104 0000 034B     		ldr	r3, .L10
 105 0002 1B78     		ldrb	r3, [r3]	@ zero_extendqisi2
 106 0004 012B     		cmp	r3, #1
 107 0006 01D1     		bne	.L8
 127:Generated_Source\PSoC5/PGA_2_PM.c ****     {
 128:Generated_Source\PSoC5/PGA_2_PM.c ****         PGA_2_Enable();
 108              		.loc 1 128 0
 109 0008 FFF7FEBF 		b	PGA_2_Enable
 110              	.LVL1:
 111              	.L8:
 112 000c 7047     		bx	lr
 113              	.L11:
 114 000e 00BF     		.align	2
 115              	.L10:
 116 0010 00000000 		.word	.LANCHOR0
 117              		.cfi_endproc
 118              	.LFE3:
 119              		.size	PGA_2_Wakeup, .-PGA_2_Wakeup
 120              		.bss
 121              		.set	.LANCHOR0,. + 0
 122              		.type	PGA_2_backup, %object
 123              		.size	PGA_2_backup, 4
 124              	PGA_2_backup:
 125 0000 00000000 		.space	4
 126              		.text
 127              	.Letext0:
 128              		.file 2 "Generated_Source\\PSoC5\\cytypes.h"
 129              		.file 3 "Generated_Source\\PSoC5\\PGA_2.h"