ARM GAS  C:\Users\Luggi\AppData\Local\Temp\ccz9dGF6.s 			page 1


   1              		.syntax unified
   2              		.cpu cortex-m3
   3              		.fpu softvfp
   4              		.eabi_attribute 20, 1
   5              		.eabi_attribute 21, 1
   6              		.eabi_attribute 23, 3
   7              		.eabi_attribute 24, 1
   8              		.eabi_attribute 25, 1
   9              		.eabi_attribute 26, 1
  10              		.eabi_attribute 30, 4
  11              		.eabi_attribute 34, 1
  12              		.eabi_attribute 18, 4
  13              		.thumb
  14              		.file	"USBUART_1_drv.c"
  15              		.text
  16              	.Ltext0:
  17              		.cfi_sections	.debug_frame
  18              		.section	.text.USBUART_1_LoadEP0,"ax",%progbits
  19              		.align	1
  20              		.global	USBUART_1_LoadEP0
  21              		.thumb
  22              		.thumb_func
  23              		.type	USBUART_1_LoadEP0, %function
  24              	USBUART_1_LoadEP0:
  25              	.LFB4:
  26              		.file 1 "Generated_Source\\PSoC5\\USBUART_1_drv.c"
   1:Generated_Source\PSoC5/USBUART_1_drv.c **** /***************************************************************************//**
   2:Generated_Source\PSoC5/USBUART_1_drv.c **** * \file USBUART_1_drv.c
   3:Generated_Source\PSoC5/USBUART_1_drv.c **** * \version 3.10
   4:Generated_Source\PSoC5/USBUART_1_drv.c **** *
   5:Generated_Source\PSoC5/USBUART_1_drv.c **** * \brief
   6:Generated_Source\PSoC5/USBUART_1_drv.c **** *  This file contains the Endpoint 0 Driver for the USBFS Component.  
   7:Generated_Source\PSoC5/USBUART_1_drv.c **** *
   8:Generated_Source\PSoC5/USBUART_1_drv.c **** ********************************************************************************
   9:Generated_Source\PSoC5/USBUART_1_drv.c **** * \copyright
  10:Generated_Source\PSoC5/USBUART_1_drv.c **** * Copyright 2008-2016, Cypress Semiconductor Corporation.  All rights reserved.
  11:Generated_Source\PSoC5/USBUART_1_drv.c **** * You may use this file only in accordance with the license, terms, conditions,
  12:Generated_Source\PSoC5/USBUART_1_drv.c **** * disclaimers, and limitations in the end user license agreement accompanying
  13:Generated_Source\PSoC5/USBUART_1_drv.c **** * the software package with which this file was provided.
  14:Generated_Source\PSoC5/USBUART_1_drv.c **** *******************************************************************************/
  15:Generated_Source\PSoC5/USBUART_1_drv.c **** 
  16:Generated_Source\PSoC5/USBUART_1_drv.c **** #include "USBUART_1_pvt.h"
  17:Generated_Source\PSoC5/USBUART_1_drv.c **** 
  18:Generated_Source\PSoC5/USBUART_1_drv.c **** 
  19:Generated_Source\PSoC5/USBUART_1_drv.c **** 
  20:Generated_Source\PSoC5/USBUART_1_drv.c **** /***************************************
  21:Generated_Source\PSoC5/USBUART_1_drv.c **** * Global data allocation
  22:Generated_Source\PSoC5/USBUART_1_drv.c **** ***************************************/
  23:Generated_Source\PSoC5/USBUART_1_drv.c **** 
  24:Generated_Source\PSoC5/USBUART_1_drv.c **** volatile T_USBUART_1_EP_CTL_BLOCK USBUART_1_EP[USBUART_1_MAX_EP];
  25:Generated_Source\PSoC5/USBUART_1_drv.c **** 
  26:Generated_Source\PSoC5/USBUART_1_drv.c **** /** Contains the current configuration number, which is set by the host using a 
  27:Generated_Source\PSoC5/USBUART_1_drv.c ****  * SET_CONFIGURATION request. This variable is initialized to zero in 
  28:Generated_Source\PSoC5/USBUART_1_drv.c ****  * USBFS_InitComponent() API and can be read by the USBFS_GetConfiguration() 
  29:Generated_Source\PSoC5/USBUART_1_drv.c ****  * API.*/
  30:Generated_Source\PSoC5/USBUART_1_drv.c **** volatile uint8 USBUART_1_configuration;
  31:Generated_Source\PSoC5/USBUART_1_drv.c **** 
ARM GAS  C:\Users\Luggi\AppData\Local\Temp\ccz9dGF6.s 			page 2


  32:Generated_Source\PSoC5/USBUART_1_drv.c **** /** Contains the current interface number.*/
  33:Generated_Source\PSoC5/USBUART_1_drv.c **** volatile uint8 USBUART_1_interfaceNumber;
  34:Generated_Source\PSoC5/USBUART_1_drv.c **** 
  35:Generated_Source\PSoC5/USBUART_1_drv.c **** /** This variable is set to one after SET_CONFIGURATION and SET_INTERFACE 
  36:Generated_Source\PSoC5/USBUART_1_drv.c ****  *requests. It can be read by the USBFS_IsConfigurationChanged() API */
  37:Generated_Source\PSoC5/USBUART_1_drv.c **** volatile uint8 USBUART_1_configurationChanged;
  38:Generated_Source\PSoC5/USBUART_1_drv.c **** 
  39:Generated_Source\PSoC5/USBUART_1_drv.c **** /** Contains the current device address.*/
  40:Generated_Source\PSoC5/USBUART_1_drv.c **** volatile uint8 USBUART_1_deviceAddress;
  41:Generated_Source\PSoC5/USBUART_1_drv.c **** 
  42:Generated_Source\PSoC5/USBUART_1_drv.c **** /** This is a two-bit variable that contains power status in the bit 0 
  43:Generated_Source\PSoC5/USBUART_1_drv.c ****  * (DEVICE_STATUS_BUS_POWERED or DEVICE_STATUS_SELF_POWERED) and remote wakeup 
  44:Generated_Source\PSoC5/USBUART_1_drv.c ****  * status (DEVICE_STATUS_REMOTE_WAKEUP) in the bit 1. This variable is 
  45:Generated_Source\PSoC5/USBUART_1_drv.c ****  * initialized to zero in USBFS_InitComponent() API, configured by the 
  46:Generated_Source\PSoC5/USBUART_1_drv.c ****  * USBFS_SetPowerStatus() API. The remote wakeup status cannot be set using the 
  47:Generated_Source\PSoC5/USBUART_1_drv.c ****  * API SetPowerStatus(). */
  48:Generated_Source\PSoC5/USBUART_1_drv.c **** volatile uint8 USBUART_1_deviceStatus;
  49:Generated_Source\PSoC5/USBUART_1_drv.c **** 
  50:Generated_Source\PSoC5/USBUART_1_drv.c **** volatile uint8 USBUART_1_interfaceSetting[USBUART_1_MAX_INTERFACES_NUMBER];
  51:Generated_Source\PSoC5/USBUART_1_drv.c **** volatile uint8 USBUART_1_interfaceSetting_last[USBUART_1_MAX_INTERFACES_NUMBER];
  52:Generated_Source\PSoC5/USBUART_1_drv.c **** volatile uint8 USBUART_1_interfaceStatus[USBUART_1_MAX_INTERFACES_NUMBER];
  53:Generated_Source\PSoC5/USBUART_1_drv.c **** 
  54:Generated_Source\PSoC5/USBUART_1_drv.c **** /** Contains the started device number. This variable is set by the 
  55:Generated_Source\PSoC5/USBUART_1_drv.c ****  * USBFS_Start() or USBFS_InitComponent() APIs.*/
  56:Generated_Source\PSoC5/USBUART_1_drv.c **** volatile uint8 USBUART_1_device;
  57:Generated_Source\PSoC5/USBUART_1_drv.c **** 
  58:Generated_Source\PSoC5/USBUART_1_drv.c **** /** Initialized class array for each interface. It is used for handling Class 
  59:Generated_Source\PSoC5/USBUART_1_drv.c ****  * specific requests depend on interface class. Different classes in multiple 
  60:Generated_Source\PSoC5/USBUART_1_drv.c ****  * alternate settings are not supported.*/
  61:Generated_Source\PSoC5/USBUART_1_drv.c **** const uint8 CYCODE *USBUART_1_interfaceClass;
  62:Generated_Source\PSoC5/USBUART_1_drv.c **** 
  63:Generated_Source\PSoC5/USBUART_1_drv.c **** 
  64:Generated_Source\PSoC5/USBUART_1_drv.c **** /***************************************
  65:Generated_Source\PSoC5/USBUART_1_drv.c **** * Local data allocation
  66:Generated_Source\PSoC5/USBUART_1_drv.c **** ***************************************/
  67:Generated_Source\PSoC5/USBUART_1_drv.c **** 
  68:Generated_Source\PSoC5/USBUART_1_drv.c **** volatile uint8  USBUART_1_ep0Toggle;
  69:Generated_Source\PSoC5/USBUART_1_drv.c **** volatile uint8  USBUART_1_lastPacketSize;
  70:Generated_Source\PSoC5/USBUART_1_drv.c **** 
  71:Generated_Source\PSoC5/USBUART_1_drv.c **** /** This variable is used by the communication functions to handle the current 
  72:Generated_Source\PSoC5/USBUART_1_drv.c **** * transfer state.
  73:Generated_Source\PSoC5/USBUART_1_drv.c **** * Initialized to TRANS_STATE_IDLE in the USBFS_InitComponent() API and after a 
  74:Generated_Source\PSoC5/USBUART_1_drv.c **** * complete transfer in the status stage.
  75:Generated_Source\PSoC5/USBUART_1_drv.c **** * Changed to the TRANS_STATE_CONTROL_READ or TRANS_STATE_CONTROL_WRITE in setup 
  76:Generated_Source\PSoC5/USBUART_1_drv.c **** * transaction depending on the request type.
  77:Generated_Source\PSoC5/USBUART_1_drv.c **** */
  78:Generated_Source\PSoC5/USBUART_1_drv.c **** volatile uint8  USBUART_1_transferState;
  79:Generated_Source\PSoC5/USBUART_1_drv.c **** volatile T_USBUART_1_TD USBUART_1_currentTD;
  80:Generated_Source\PSoC5/USBUART_1_drv.c **** volatile uint8  USBUART_1_ep0Mode;
  81:Generated_Source\PSoC5/USBUART_1_drv.c **** volatile uint8  USBUART_1_ep0Count;
  82:Generated_Source\PSoC5/USBUART_1_drv.c **** volatile uint16 USBUART_1_transferByteCount;
  83:Generated_Source\PSoC5/USBUART_1_drv.c **** 
  84:Generated_Source\PSoC5/USBUART_1_drv.c **** 
  85:Generated_Source\PSoC5/USBUART_1_drv.c **** /*******************************************************************************
  86:Generated_Source\PSoC5/USBUART_1_drv.c **** * Function Name: USBUART_1_ep_0_Interrupt
  87:Generated_Source\PSoC5/USBUART_1_drv.c **** ****************************************************************************//**
  88:Generated_Source\PSoC5/USBUART_1_drv.c **** *
ARM GAS  C:\Users\Luggi\AppData\Local\Temp\ccz9dGF6.s 			page 3


  89:Generated_Source\PSoC5/USBUART_1_drv.c **** *  This Interrupt Service Routine handles Endpoint 0 (Control Pipe) traffic.
  90:Generated_Source\PSoC5/USBUART_1_drv.c **** *  It dispatches setup requests and handles the data and status stages.
  91:Generated_Source\PSoC5/USBUART_1_drv.c **** *
  92:Generated_Source\PSoC5/USBUART_1_drv.c **** *
  93:Generated_Source\PSoC5/USBUART_1_drv.c **** *******************************************************************************/
  94:Generated_Source\PSoC5/USBUART_1_drv.c **** CY_ISR(USBUART_1_EP_0_ISR)
  95:Generated_Source\PSoC5/USBUART_1_drv.c **** {
  96:Generated_Source\PSoC5/USBUART_1_drv.c ****     uint8 tempReg;
  97:Generated_Source\PSoC5/USBUART_1_drv.c ****     uint8 modifyReg;
  98:Generated_Source\PSoC5/USBUART_1_drv.c **** 
  99:Generated_Source\PSoC5/USBUART_1_drv.c **** #ifdef USBUART_1_EP_0_ISR_ENTRY_CALLBACK
 100:Generated_Source\PSoC5/USBUART_1_drv.c ****     USBUART_1_EP_0_ISR_EntryCallback();
 101:Generated_Source\PSoC5/USBUART_1_drv.c **** #endif /* (USBUART_1_EP_0_ISR_ENTRY_CALLBACK) */
 102:Generated_Source\PSoC5/USBUART_1_drv.c ****     
 103:Generated_Source\PSoC5/USBUART_1_drv.c ****     tempReg = USBUART_1_EP0_CR_REG;
 104:Generated_Source\PSoC5/USBUART_1_drv.c ****     if ((tempReg & USBUART_1_MODE_ACKD) != 0u)
 105:Generated_Source\PSoC5/USBUART_1_drv.c ****     {
 106:Generated_Source\PSoC5/USBUART_1_drv.c ****         modifyReg = 1u;
 107:Generated_Source\PSoC5/USBUART_1_drv.c ****         if ((tempReg & USBUART_1_MODE_SETUP_RCVD) != 0u)
 108:Generated_Source\PSoC5/USBUART_1_drv.c ****         {
 109:Generated_Source\PSoC5/USBUART_1_drv.c ****             if ((tempReg & USBUART_1_MODE_MASK) != USBUART_1_MODE_NAK_IN_OUT)
 110:Generated_Source\PSoC5/USBUART_1_drv.c ****             {
 111:Generated_Source\PSoC5/USBUART_1_drv.c ****                 /* Mode not equal to NAK_IN_OUT: invalid setup */
 112:Generated_Source\PSoC5/USBUART_1_drv.c ****                 modifyReg = 0u;
 113:Generated_Source\PSoC5/USBUART_1_drv.c ****             }
 114:Generated_Source\PSoC5/USBUART_1_drv.c ****             else
 115:Generated_Source\PSoC5/USBUART_1_drv.c ****             {
 116:Generated_Source\PSoC5/USBUART_1_drv.c ****                 USBUART_1_HandleSetup();
 117:Generated_Source\PSoC5/USBUART_1_drv.c ****                 
 118:Generated_Source\PSoC5/USBUART_1_drv.c ****                 if ((USBUART_1_ep0Mode & USBUART_1_MODE_SETUP_RCVD) != 0u)
 119:Generated_Source\PSoC5/USBUART_1_drv.c ****                 {
 120:Generated_Source\PSoC5/USBUART_1_drv.c ****                     /* SETUP bit set: exit without mode modificaiton */
 121:Generated_Source\PSoC5/USBUART_1_drv.c ****                     modifyReg = 0u;
 122:Generated_Source\PSoC5/USBUART_1_drv.c ****                 }
 123:Generated_Source\PSoC5/USBUART_1_drv.c ****             }
 124:Generated_Source\PSoC5/USBUART_1_drv.c ****         }
 125:Generated_Source\PSoC5/USBUART_1_drv.c ****         else if ((tempReg & USBUART_1_MODE_IN_RCVD) != 0u)
 126:Generated_Source\PSoC5/USBUART_1_drv.c ****         {
 127:Generated_Source\PSoC5/USBUART_1_drv.c ****             USBUART_1_HandleIN();
 128:Generated_Source\PSoC5/USBUART_1_drv.c ****         }
 129:Generated_Source\PSoC5/USBUART_1_drv.c ****         else if ((tempReg & USBUART_1_MODE_OUT_RCVD) != 0u)
 130:Generated_Source\PSoC5/USBUART_1_drv.c ****         {
 131:Generated_Source\PSoC5/USBUART_1_drv.c ****             USBUART_1_HandleOUT();
 132:Generated_Source\PSoC5/USBUART_1_drv.c ****         }
 133:Generated_Source\PSoC5/USBUART_1_drv.c ****         else
 134:Generated_Source\PSoC5/USBUART_1_drv.c ****         {
 135:Generated_Source\PSoC5/USBUART_1_drv.c ****             modifyReg = 0u;
 136:Generated_Source\PSoC5/USBUART_1_drv.c ****         }
 137:Generated_Source\PSoC5/USBUART_1_drv.c ****         
 138:Generated_Source\PSoC5/USBUART_1_drv.c ****         /* Modify the EP0_CR register */
 139:Generated_Source\PSoC5/USBUART_1_drv.c ****         if (modifyReg != 0u)
 140:Generated_Source\PSoC5/USBUART_1_drv.c ****         {
 141:Generated_Source\PSoC5/USBUART_1_drv.c ****             
 142:Generated_Source\PSoC5/USBUART_1_drv.c ****             tempReg = USBUART_1_EP0_CR_REG;
 143:Generated_Source\PSoC5/USBUART_1_drv.c ****             
 144:Generated_Source\PSoC5/USBUART_1_drv.c ****             /* Make sure that SETUP bit is cleared before modification */
 145:Generated_Source\PSoC5/USBUART_1_drv.c ****             if ((tempReg & USBUART_1_MODE_SETUP_RCVD) == 0u)
ARM GAS  C:\Users\Luggi\AppData\Local\Temp\ccz9dGF6.s 			page 4


 146:Generated_Source\PSoC5/USBUART_1_drv.c ****             {
 147:Generated_Source\PSoC5/USBUART_1_drv.c ****                 /* Update count register */
 148:Generated_Source\PSoC5/USBUART_1_drv.c ****                 tempReg = (uint8) USBUART_1_ep0Toggle | USBUART_1_ep0Count;
 149:Generated_Source\PSoC5/USBUART_1_drv.c ****                 USBUART_1_EP0_CNT_REG = tempReg;
 150:Generated_Source\PSoC5/USBUART_1_drv.c ****                
 151:Generated_Source\PSoC5/USBUART_1_drv.c ****                 /* Make sure that previous write operaiton was successful */
 152:Generated_Source\PSoC5/USBUART_1_drv.c ****                 if (tempReg == USBUART_1_EP0_CNT_REG)
 153:Generated_Source\PSoC5/USBUART_1_drv.c ****                 {
 154:Generated_Source\PSoC5/USBUART_1_drv.c ****                     /* Repeat until next successful write operation */
 155:Generated_Source\PSoC5/USBUART_1_drv.c ****                     do
 156:Generated_Source\PSoC5/USBUART_1_drv.c ****                     {
 157:Generated_Source\PSoC5/USBUART_1_drv.c ****                         /* Init temporary variable */
 158:Generated_Source\PSoC5/USBUART_1_drv.c ****                         modifyReg = USBUART_1_ep0Mode;
 159:Generated_Source\PSoC5/USBUART_1_drv.c ****                         
 160:Generated_Source\PSoC5/USBUART_1_drv.c ****                         /* Unlock register */
 161:Generated_Source\PSoC5/USBUART_1_drv.c ****                         tempReg = (uint8) (USBUART_1_EP0_CR_REG & USBUART_1_MODE_SETUP_RCVD);
 162:Generated_Source\PSoC5/USBUART_1_drv.c ****                         
 163:Generated_Source\PSoC5/USBUART_1_drv.c ****                         /* Check if SETUP bit is not set */
 164:Generated_Source\PSoC5/USBUART_1_drv.c ****                         if (0u == tempReg)
 165:Generated_Source\PSoC5/USBUART_1_drv.c ****                         {
 166:Generated_Source\PSoC5/USBUART_1_drv.c ****                             /* Set the Mode Register  */
 167:Generated_Source\PSoC5/USBUART_1_drv.c ****                             USBUART_1_EP0_CR_REG = USBUART_1_ep0Mode;
 168:Generated_Source\PSoC5/USBUART_1_drv.c ****                             
 169:Generated_Source\PSoC5/USBUART_1_drv.c ****                             /* Writing check */
 170:Generated_Source\PSoC5/USBUART_1_drv.c ****                             modifyReg = USBUART_1_EP0_CR_REG & USBUART_1_MODE_MASK;
 171:Generated_Source\PSoC5/USBUART_1_drv.c ****                         }
 172:Generated_Source\PSoC5/USBUART_1_drv.c ****                     }
 173:Generated_Source\PSoC5/USBUART_1_drv.c ****                     while (modifyReg != USBUART_1_ep0Mode);
 174:Generated_Source\PSoC5/USBUART_1_drv.c ****                 }
 175:Generated_Source\PSoC5/USBUART_1_drv.c ****             }
 176:Generated_Source\PSoC5/USBUART_1_drv.c ****         }
 177:Generated_Source\PSoC5/USBUART_1_drv.c ****     }
 178:Generated_Source\PSoC5/USBUART_1_drv.c **** 
 179:Generated_Source\PSoC5/USBUART_1_drv.c ****     USBUART_1_ClearSieInterruptSource(USBUART_1_INTR_SIE_EP0_INTR);
 180:Generated_Source\PSoC5/USBUART_1_drv.c **** 	
 181:Generated_Source\PSoC5/USBUART_1_drv.c **** #ifdef USBUART_1_EP_0_ISR_EXIT_CALLBACK
 182:Generated_Source\PSoC5/USBUART_1_drv.c ****     USBUART_1_EP_0_ISR_ExitCallback();
 183:Generated_Source\PSoC5/USBUART_1_drv.c **** #endif /* (USBUART_1_EP_0_ISR_EXIT_CALLBACK) */
 184:Generated_Source\PSoC5/USBUART_1_drv.c **** }
 185:Generated_Source\PSoC5/USBUART_1_drv.c **** 
 186:Generated_Source\PSoC5/USBUART_1_drv.c **** 
 187:Generated_Source\PSoC5/USBUART_1_drv.c **** /*******************************************************************************
 188:Generated_Source\PSoC5/USBUART_1_drv.c **** * Function Name: USBUART_1_HandleSetup
 189:Generated_Source\PSoC5/USBUART_1_drv.c **** ****************************************************************************//**
 190:Generated_Source\PSoC5/USBUART_1_drv.c **** *
 191:Generated_Source\PSoC5/USBUART_1_drv.c **** *  This Routine dispatches requests for the four USB request types
 192:Generated_Source\PSoC5/USBUART_1_drv.c **** *
 193:Generated_Source\PSoC5/USBUART_1_drv.c **** *
 194:Generated_Source\PSoC5/USBUART_1_drv.c **** * \reentrant
 195:Generated_Source\PSoC5/USBUART_1_drv.c **** *  No.
 196:Generated_Source\PSoC5/USBUART_1_drv.c **** *
 197:Generated_Source\PSoC5/USBUART_1_drv.c **** *******************************************************************************/
 198:Generated_Source\PSoC5/USBUART_1_drv.c **** void USBUART_1_HandleSetup(void) 
 199:Generated_Source\PSoC5/USBUART_1_drv.c **** {
 200:Generated_Source\PSoC5/USBUART_1_drv.c ****     uint8 requestHandled;
 201:Generated_Source\PSoC5/USBUART_1_drv.c ****     
 202:Generated_Source\PSoC5/USBUART_1_drv.c ****     /* Clear register lock by SIE (read register) and clear setup bit 
ARM GAS  C:\Users\Luggi\AppData\Local\Temp\ccz9dGF6.s 			page 5


 203:Generated_Source\PSoC5/USBUART_1_drv.c ****     * (write any value in register).
 204:Generated_Source\PSoC5/USBUART_1_drv.c ****     */
 205:Generated_Source\PSoC5/USBUART_1_drv.c ****     requestHandled = (uint8) USBUART_1_EP0_CR_REG;
 206:Generated_Source\PSoC5/USBUART_1_drv.c ****     USBUART_1_EP0_CR_REG = (uint8) requestHandled;
 207:Generated_Source\PSoC5/USBUART_1_drv.c ****     requestHandled = (uint8) USBUART_1_EP0_CR_REG;
 208:Generated_Source\PSoC5/USBUART_1_drv.c **** 
 209:Generated_Source\PSoC5/USBUART_1_drv.c ****     if ((requestHandled & USBUART_1_MODE_SETUP_RCVD) != 0u)
 210:Generated_Source\PSoC5/USBUART_1_drv.c ****     {
 211:Generated_Source\PSoC5/USBUART_1_drv.c ****         /* SETUP bit is set: exit without mode modification. */
 212:Generated_Source\PSoC5/USBUART_1_drv.c ****         USBUART_1_ep0Mode = requestHandled;
 213:Generated_Source\PSoC5/USBUART_1_drv.c ****     }
 214:Generated_Source\PSoC5/USBUART_1_drv.c ****     else
 215:Generated_Source\PSoC5/USBUART_1_drv.c ****     {
 216:Generated_Source\PSoC5/USBUART_1_drv.c ****         /* In case the previous transfer did not complete, close it out */
 217:Generated_Source\PSoC5/USBUART_1_drv.c ****         USBUART_1_UpdateStatusBlock(USBUART_1_XFER_PREMATURE);
 218:Generated_Source\PSoC5/USBUART_1_drv.c **** 
 219:Generated_Source\PSoC5/USBUART_1_drv.c ****         /* Check request type. */
 220:Generated_Source\PSoC5/USBUART_1_drv.c ****         switch (USBUART_1_bmRequestTypeReg & USBUART_1_RQST_TYPE_MASK)
 221:Generated_Source\PSoC5/USBUART_1_drv.c ****         {
 222:Generated_Source\PSoC5/USBUART_1_drv.c ****             case USBUART_1_RQST_TYPE_STD:
 223:Generated_Source\PSoC5/USBUART_1_drv.c ****                 requestHandled = USBUART_1_HandleStandardRqst();
 224:Generated_Source\PSoC5/USBUART_1_drv.c ****                 break;
 225:Generated_Source\PSoC5/USBUART_1_drv.c ****                 
 226:Generated_Source\PSoC5/USBUART_1_drv.c ****             case USBUART_1_RQST_TYPE_CLS:
 227:Generated_Source\PSoC5/USBUART_1_drv.c ****                 requestHandled = USBUART_1_DispatchClassRqst();
 228:Generated_Source\PSoC5/USBUART_1_drv.c ****                 break;
 229:Generated_Source\PSoC5/USBUART_1_drv.c ****                 
 230:Generated_Source\PSoC5/USBUART_1_drv.c ****             case USBUART_1_RQST_TYPE_VND:
 231:Generated_Source\PSoC5/USBUART_1_drv.c ****                 requestHandled = USBUART_1_HandleVendorRqst();
 232:Generated_Source\PSoC5/USBUART_1_drv.c ****                 break;
 233:Generated_Source\PSoC5/USBUART_1_drv.c ****                 
 234:Generated_Source\PSoC5/USBUART_1_drv.c ****             default:
 235:Generated_Source\PSoC5/USBUART_1_drv.c ****                 requestHandled = USBUART_1_FALSE;
 236:Generated_Source\PSoC5/USBUART_1_drv.c ****                 break;
 237:Generated_Source\PSoC5/USBUART_1_drv.c ****         }
 238:Generated_Source\PSoC5/USBUART_1_drv.c ****         
 239:Generated_Source\PSoC5/USBUART_1_drv.c ****         /* If request is not recognized. Stall endpoint 0 IN and OUT. */
 240:Generated_Source\PSoC5/USBUART_1_drv.c ****         if (requestHandled == USBUART_1_FALSE)
 241:Generated_Source\PSoC5/USBUART_1_drv.c ****         {
 242:Generated_Source\PSoC5/USBUART_1_drv.c ****             USBUART_1_ep0Mode = USBUART_1_MODE_STALL_IN_OUT;
 243:Generated_Source\PSoC5/USBUART_1_drv.c ****         }
 244:Generated_Source\PSoC5/USBUART_1_drv.c ****     }
 245:Generated_Source\PSoC5/USBUART_1_drv.c **** }
 246:Generated_Source\PSoC5/USBUART_1_drv.c **** 
 247:Generated_Source\PSoC5/USBUART_1_drv.c **** 
 248:Generated_Source\PSoC5/USBUART_1_drv.c **** /*******************************************************************************
 249:Generated_Source\PSoC5/USBUART_1_drv.c **** * Function Name: USBUART_1_HandleIN
 250:Generated_Source\PSoC5/USBUART_1_drv.c **** ****************************************************************************//**
 251:Generated_Source\PSoC5/USBUART_1_drv.c **** *
 252:Generated_Source\PSoC5/USBUART_1_drv.c **** *  This routine handles EP0 IN transfers.
 253:Generated_Source\PSoC5/USBUART_1_drv.c **** *
 254:Generated_Source\PSoC5/USBUART_1_drv.c **** *
 255:Generated_Source\PSoC5/USBUART_1_drv.c **** * \reentrant
 256:Generated_Source\PSoC5/USBUART_1_drv.c **** *  No.
 257:Generated_Source\PSoC5/USBUART_1_drv.c **** *
 258:Generated_Source\PSoC5/USBUART_1_drv.c **** *******************************************************************************/
 259:Generated_Source\PSoC5/USBUART_1_drv.c **** void USBUART_1_HandleIN(void) 
ARM GAS  C:\Users\Luggi\AppData\Local\Temp\ccz9dGF6.s 			page 6


 260:Generated_Source\PSoC5/USBUART_1_drv.c **** {
 261:Generated_Source\PSoC5/USBUART_1_drv.c ****     switch (USBUART_1_transferState)
 262:Generated_Source\PSoC5/USBUART_1_drv.c ****     {
 263:Generated_Source\PSoC5/USBUART_1_drv.c ****         case USBUART_1_TRANS_STATE_IDLE:
 264:Generated_Source\PSoC5/USBUART_1_drv.c ****             break;
 265:Generated_Source\PSoC5/USBUART_1_drv.c ****         
 266:Generated_Source\PSoC5/USBUART_1_drv.c ****         case USBUART_1_TRANS_STATE_CONTROL_READ:
 267:Generated_Source\PSoC5/USBUART_1_drv.c ****             USBUART_1_ControlReadDataStage();
 268:Generated_Source\PSoC5/USBUART_1_drv.c ****             break;
 269:Generated_Source\PSoC5/USBUART_1_drv.c ****             
 270:Generated_Source\PSoC5/USBUART_1_drv.c ****         case USBUART_1_TRANS_STATE_CONTROL_WRITE:
 271:Generated_Source\PSoC5/USBUART_1_drv.c ****             USBUART_1_ControlWriteStatusStage();
 272:Generated_Source\PSoC5/USBUART_1_drv.c ****             break;
 273:Generated_Source\PSoC5/USBUART_1_drv.c ****             
 274:Generated_Source\PSoC5/USBUART_1_drv.c ****         case USBUART_1_TRANS_STATE_NO_DATA_CONTROL:
 275:Generated_Source\PSoC5/USBUART_1_drv.c ****             USBUART_1_NoDataControlStatusStage();
 276:Generated_Source\PSoC5/USBUART_1_drv.c ****             break;
 277:Generated_Source\PSoC5/USBUART_1_drv.c ****             
 278:Generated_Source\PSoC5/USBUART_1_drv.c ****         default:    /* there are no more states */
 279:Generated_Source\PSoC5/USBUART_1_drv.c ****             break;
 280:Generated_Source\PSoC5/USBUART_1_drv.c ****     }
 281:Generated_Source\PSoC5/USBUART_1_drv.c **** }
 282:Generated_Source\PSoC5/USBUART_1_drv.c **** 
 283:Generated_Source\PSoC5/USBUART_1_drv.c **** 
 284:Generated_Source\PSoC5/USBUART_1_drv.c **** /*******************************************************************************
 285:Generated_Source\PSoC5/USBUART_1_drv.c **** * Function Name: USBUART_1_HandleOUT
 286:Generated_Source\PSoC5/USBUART_1_drv.c **** ****************************************************************************//**
 287:Generated_Source\PSoC5/USBUART_1_drv.c **** *
 288:Generated_Source\PSoC5/USBUART_1_drv.c **** *  This routine handles EP0 OUT transfers.
 289:Generated_Source\PSoC5/USBUART_1_drv.c **** *
 290:Generated_Source\PSoC5/USBUART_1_drv.c **** *
 291:Generated_Source\PSoC5/USBUART_1_drv.c **** * \reentrant
 292:Generated_Source\PSoC5/USBUART_1_drv.c **** *  No.
 293:Generated_Source\PSoC5/USBUART_1_drv.c **** *
 294:Generated_Source\PSoC5/USBUART_1_drv.c **** *******************************************************************************/
 295:Generated_Source\PSoC5/USBUART_1_drv.c **** void USBUART_1_HandleOUT(void) 
 296:Generated_Source\PSoC5/USBUART_1_drv.c **** {
 297:Generated_Source\PSoC5/USBUART_1_drv.c ****     switch (USBUART_1_transferState)
 298:Generated_Source\PSoC5/USBUART_1_drv.c ****     {
 299:Generated_Source\PSoC5/USBUART_1_drv.c ****         case USBUART_1_TRANS_STATE_IDLE:
 300:Generated_Source\PSoC5/USBUART_1_drv.c ****             break;
 301:Generated_Source\PSoC5/USBUART_1_drv.c ****         
 302:Generated_Source\PSoC5/USBUART_1_drv.c ****         case USBUART_1_TRANS_STATE_CONTROL_READ:
 303:Generated_Source\PSoC5/USBUART_1_drv.c ****             USBUART_1_ControlReadStatusStage();
 304:Generated_Source\PSoC5/USBUART_1_drv.c ****             break;
 305:Generated_Source\PSoC5/USBUART_1_drv.c ****             
 306:Generated_Source\PSoC5/USBUART_1_drv.c ****         case USBUART_1_TRANS_STATE_CONTROL_WRITE:
 307:Generated_Source\PSoC5/USBUART_1_drv.c ****             USBUART_1_ControlWriteDataStage();
 308:Generated_Source\PSoC5/USBUART_1_drv.c ****             break;
 309:Generated_Source\PSoC5/USBUART_1_drv.c ****             
 310:Generated_Source\PSoC5/USBUART_1_drv.c ****         case USBUART_1_TRANS_STATE_NO_DATA_CONTROL:
 311:Generated_Source\PSoC5/USBUART_1_drv.c ****             /* Update the completion block */
 312:Generated_Source\PSoC5/USBUART_1_drv.c ****             USBUART_1_UpdateStatusBlock(USBUART_1_XFER_ERROR);
 313:Generated_Source\PSoC5/USBUART_1_drv.c ****             
 314:Generated_Source\PSoC5/USBUART_1_drv.c ****             /* We expect no more data, so stall INs and OUTs */
 315:Generated_Source\PSoC5/USBUART_1_drv.c ****             USBUART_1_ep0Mode = USBUART_1_MODE_STALL_IN_OUT;
 316:Generated_Source\PSoC5/USBUART_1_drv.c ****             break;
ARM GAS  C:\Users\Luggi\AppData\Local\Temp\ccz9dGF6.s 			page 7


 317:Generated_Source\PSoC5/USBUART_1_drv.c ****             
 318:Generated_Source\PSoC5/USBUART_1_drv.c ****         default:    
 319:Generated_Source\PSoC5/USBUART_1_drv.c ****             /* There are no more states */
 320:Generated_Source\PSoC5/USBUART_1_drv.c ****             break;
 321:Generated_Source\PSoC5/USBUART_1_drv.c ****     }
 322:Generated_Source\PSoC5/USBUART_1_drv.c **** }
 323:Generated_Source\PSoC5/USBUART_1_drv.c **** 
 324:Generated_Source\PSoC5/USBUART_1_drv.c **** 
 325:Generated_Source\PSoC5/USBUART_1_drv.c **** /*******************************************************************************
 326:Generated_Source\PSoC5/USBUART_1_drv.c **** * Function Name: USBUART_1_LoadEP0
 327:Generated_Source\PSoC5/USBUART_1_drv.c **** ****************************************************************************//**
 328:Generated_Source\PSoC5/USBUART_1_drv.c **** *
 329:Generated_Source\PSoC5/USBUART_1_drv.c **** *  This routine loads the EP0 data registers for OUT transfers. It uses the
 330:Generated_Source\PSoC5/USBUART_1_drv.c **** *  currentTD (previously initialized by the _InitControlWrite function and
 331:Generated_Source\PSoC5/USBUART_1_drv.c **** *  updated for each OUT transfer, and the bLastPacketSize) to determine how
 332:Generated_Source\PSoC5/USBUART_1_drv.c **** *  many uint8s to transfer on the current OUT.
 333:Generated_Source\PSoC5/USBUART_1_drv.c **** *
 334:Generated_Source\PSoC5/USBUART_1_drv.c **** *  If the number of uint8s remaining is zero and the last transfer was full,
 335:Generated_Source\PSoC5/USBUART_1_drv.c **** *  we need to send a zero length packet.  Otherwise we send the minimum
 336:Generated_Source\PSoC5/USBUART_1_drv.c **** *  of the control endpoint size (8) or remaining number of uint8s for the
 337:Generated_Source\PSoC5/USBUART_1_drv.c **** *  transaction.
 338:Generated_Source\PSoC5/USBUART_1_drv.c **** *
 339:Generated_Source\PSoC5/USBUART_1_drv.c **** *
 340:Generated_Source\PSoC5/USBUART_1_drv.c **** * \globalvars
 341:Generated_Source\PSoC5/USBUART_1_drv.c **** *  USBUART_1_transferByteCount - Update the transfer byte count from the
 342:Generated_Source\PSoC5/USBUART_1_drv.c **** *     last transaction.
 343:Generated_Source\PSoC5/USBUART_1_drv.c **** *  USBUART_1_ep0Count - counts the data loaded to the SIE memory in
 344:Generated_Source\PSoC5/USBUART_1_drv.c **** *     current packet.
 345:Generated_Source\PSoC5/USBUART_1_drv.c **** *  USBUART_1_lastPacketSize - remembers the USBFS_ep0Count value for the
 346:Generated_Source\PSoC5/USBUART_1_drv.c **** *     next packet.
 347:Generated_Source\PSoC5/USBUART_1_drv.c **** *  USBUART_1_transferByteCount - sum of the previous bytes transferred
 348:Generated_Source\PSoC5/USBUART_1_drv.c **** *     on previous packets(sum of USBFS_lastPacketSize)
 349:Generated_Source\PSoC5/USBUART_1_drv.c **** *  USBUART_1_ep0Toggle - inverted
 350:Generated_Source\PSoC5/USBUART_1_drv.c **** *  USBUART_1_ep0Mode  - prepare for mode register content.
 351:Generated_Source\PSoC5/USBUART_1_drv.c **** *  USBUART_1_transferState - set to TRANS_STATE_CONTROL_READ
 352:Generated_Source\PSoC5/USBUART_1_drv.c **** *
 353:Generated_Source\PSoC5/USBUART_1_drv.c **** * \reentrant
 354:Generated_Source\PSoC5/USBUART_1_drv.c **** *  No.
 355:Generated_Source\PSoC5/USBUART_1_drv.c **** *
 356:Generated_Source\PSoC5/USBUART_1_drv.c **** *******************************************************************************/
 357:Generated_Source\PSoC5/USBUART_1_drv.c **** void USBUART_1_LoadEP0(void) 
 358:Generated_Source\PSoC5/USBUART_1_drv.c **** {
  27              		.loc 1 358 0
  28              		.cfi_startproc
  29              		@ args = 0, pretend = 0, frame = 0
  30              		@ frame_needed = 0, uses_anonymous_args = 0
  31              	.LVL0:
  32 0000 30B5     		push	{r4, r5, lr}
  33              		.cfi_def_cfa_offset 12
  34              		.cfi_offset 4, -12
  35              		.cfi_offset 5, -8
  36              		.cfi_offset 14, -4
 359:Generated_Source\PSoC5/USBUART_1_drv.c ****     uint8 ep0Count = 0u;
 360:Generated_Source\PSoC5/USBUART_1_drv.c **** 
 361:Generated_Source\PSoC5/USBUART_1_drv.c ****     /* Update the transfer byte count from the last transaction */
 362:Generated_Source\PSoC5/USBUART_1_drv.c ****     USBUART_1_transferByteCount += USBUART_1_lastPacketSize;
  37              		.loc 1 362 0
ARM GAS  C:\Users\Luggi\AppData\Local\Temp\ccz9dGF6.s 			page 8


  38 0002 1A4A     		ldr	r2, .L17
  39 0004 1A49     		ldr	r1, .L17+4
  40 0006 0878     		ldrb	r0, [r1]	@ zero_extendqisi2
  41 0008 1388     		ldrh	r3, [r2]
  42 000a 0344     		add	r3, r3, r0
  43 000c 9BB2     		uxth	r3, r3
  44 000e 1380     		strh	r3, [r2]	@ movhi
 363:Generated_Source\PSoC5/USBUART_1_drv.c **** 
 364:Generated_Source\PSoC5/USBUART_1_drv.c ****     /* Now load the next transaction */
 365:Generated_Source\PSoC5/USBUART_1_drv.c ****     while ((USBUART_1_currentTD.count > 0u) && (ep0Count < 8u))
  45              		.loc 1 365 0
  46 0010 0023     		movs	r3, #0
  47              	.LVL1:
  48              	.L2:
  49 0012 184A     		ldr	r2, .L17+8
  50 0014 D8B2     		uxtb	r0, r3
  51              	.LVL2:
  52 0016 1488     		ldrh	r4, [r2]
  53 0018 A4B2     		uxth	r4, r4
  54 001a 84B1     		cbz	r4, .L3
  55              		.loc 1 365 0 is_stmt 0 discriminator 1
  56 001c 082B     		cmp	r3, #8
  57 001e 0DD0     		beq	.L16
 366:Generated_Source\PSoC5/USBUART_1_drv.c ****     {
 367:Generated_Source\PSoC5/USBUART_1_drv.c ****         USBUART_1_EP0_DR_BASE.epData[ep0Count] = (uint8) *USBUART_1_currentTD.pData;
  58              		.loc 1 367 0 is_stmt 1
  59 0020 5068     		ldr	r0, [r2, #4]
  60              	.LVL3:
  61 0022 154C     		ldr	r4, .L17+12
  62 0024 0078     		ldrb	r0, [r0]	@ zero_extendqisi2
  63 0026 C0B2     		uxtb	r0, r0
  64 0028 E054     		strb	r0, [r4, r3]
 368:Generated_Source\PSoC5/USBUART_1_drv.c ****         USBUART_1_currentTD.pData = &USBUART_1_currentTD.pData[1u];
  65              		.loc 1 368 0
  66 002a 5068     		ldr	r0, [r2, #4]
  67 002c 0133     		adds	r3, r3, #1
  68              	.LVL4:
  69 002e 0130     		adds	r0, r0, #1
  70 0030 5060     		str	r0, [r2, #4]
 369:Generated_Source\PSoC5/USBUART_1_drv.c ****         ep0Count++;
 370:Generated_Source\PSoC5/USBUART_1_drv.c ****         USBUART_1_currentTD.count--;
  71              		.loc 1 370 0
  72 0032 1088     		ldrh	r0, [r2]
  73 0034 0138     		subs	r0, r0, #1
  74 0036 80B2     		uxth	r0, r0
  75 0038 1080     		strh	r0, [r2]	@ movhi
  76 003a EAE7     		b	.L2
  77              	.LVL5:
  78              	.L16:
  79 003c 1846     		mov	r0, r3
  80              	.LVL6:
  81              	.L3:
 371:Generated_Source\PSoC5/USBUART_1_drv.c ****     }
 372:Generated_Source\PSoC5/USBUART_1_drv.c **** 
 373:Generated_Source\PSoC5/USBUART_1_drv.c ****     /* Support zero-length packet */
 374:Generated_Source\PSoC5/USBUART_1_drv.c ****     if ((USBUART_1_lastPacketSize == 8u) || (ep0Count > 0u))
  82              		.loc 1 374 0
ARM GAS  C:\Users\Luggi\AppData\Local\Temp\ccz9dGF6.s 			page 9


  83 003e 0B78     		ldrb	r3, [r1]	@ zero_extendqisi2
  84              	.LVL7:
  85 0040 0E4C     		ldr	r4, .L17+16
  86 0042 082B     		cmp	r3, #8
  87 0044 0E4A     		ldr	r2, .L17+20
  88 0046 00D0     		beq	.L5
  89              		.loc 1 374 0 is_stmt 0 discriminator 1
  90 0048 40B1     		cbz	r0, .L6
  91              	.L5:
 375:Generated_Source\PSoC5/USBUART_1_drv.c ****     {
 376:Generated_Source\PSoC5/USBUART_1_drv.c ****         /* Update the data toggle */
 377:Generated_Source\PSoC5/USBUART_1_drv.c ****         USBUART_1_ep0Toggle ^= USBUART_1_EP0_CNT_DATA_TOGGLE;
  92              		.loc 1 377 0 is_stmt 1
  93 004a 0E4D     		ldr	r5, .L17+24
  94 004c 2B78     		ldrb	r3, [r5]	@ zero_extendqisi2
  95 004e 83F08003 		eor	r3, r3, #128
  96 0052 2B70     		strb	r3, [r5]
 378:Generated_Source\PSoC5/USBUART_1_drv.c ****         /* Set the Mode Register  */
 379:Generated_Source\PSoC5/USBUART_1_drv.c ****         USBUART_1_ep0Mode = USBUART_1_MODE_ACK_IN_STATUS_OUT;
  97              		.loc 1 379 0
  98 0054 0F23     		movs	r3, #15
  99 0056 2370     		strb	r3, [r4]
 380:Generated_Source\PSoC5/USBUART_1_drv.c ****         /* Update the state (or stay the same) */
 381:Generated_Source\PSoC5/USBUART_1_drv.c ****         USBUART_1_transferState = USBUART_1_TRANS_STATE_CONTROL_READ;
 100              		.loc 1 381 0
 101 0058 0223     		movs	r3, #2
 102 005a 01E0     		b	.L14
 103              	.L6:
 382:Generated_Source\PSoC5/USBUART_1_drv.c ****     }
 383:Generated_Source\PSoC5/USBUART_1_drv.c ****     else
 384:Generated_Source\PSoC5/USBUART_1_drv.c ****     {
 385:Generated_Source\PSoC5/USBUART_1_drv.c ****         /* Expect Status Stage Out */
 386:Generated_Source\PSoC5/USBUART_1_drv.c ****         USBUART_1_ep0Mode = USBUART_1_MODE_STATUS_OUT_ONLY;
 104              		.loc 1 386 0
 105 005c 0223     		movs	r3, #2
 106 005e 2370     		strb	r3, [r4]
 107              	.L14:
 387:Generated_Source\PSoC5/USBUART_1_drv.c ****         /* Update the state (or stay the same) */
 388:Generated_Source\PSoC5/USBUART_1_drv.c ****         USBUART_1_transferState = USBUART_1_TRANS_STATE_CONTROL_READ;
 108              		.loc 1 388 0
 109 0060 1370     		strb	r3, [r2]
 389:Generated_Source\PSoC5/USBUART_1_drv.c ****     }
 390:Generated_Source\PSoC5/USBUART_1_drv.c **** 
 391:Generated_Source\PSoC5/USBUART_1_drv.c ****     /* Save the packet size for next time */
 392:Generated_Source\PSoC5/USBUART_1_drv.c ****     USBUART_1_ep0Count =       (uint8) ep0Count;
 110              		.loc 1 392 0
 111 0062 094B     		ldr	r3, .L17+28
 112 0064 1870     		strb	r0, [r3]
 393:Generated_Source\PSoC5/USBUART_1_drv.c ****     USBUART_1_lastPacketSize = (uint8) ep0Count;
 113              		.loc 1 393 0
 114 0066 0870     		strb	r0, [r1]
 115 0068 30BD     		pop	{r4, r5, pc}
 116              	.L18:
 117 006a 00BF     		.align	2
 118              	.L17:
 119 006c 00000000 		.word	USBUART_1_transferByteCount
 120 0070 00000000 		.word	USBUART_1_lastPacketSize
ARM GAS  C:\Users\Luggi\AppData\Local\Temp\ccz9dGF6.s 			page 10


 121 0074 00000000 		.word	USBUART_1_currentTD
 122 0078 00600040 		.word	1073766400
 123 007c 00000000 		.word	USBUART_1_ep0Mode
 124 0080 00000000 		.word	USBUART_1_transferState
 125 0084 00000000 		.word	USBUART_1_ep0Toggle
 126 0088 00000000 		.word	USBUART_1_ep0Count
 127              		.cfi_endproc
 128              	.LFE4:
 129              		.size	USBUART_1_LoadEP0, .-USBUART_1_LoadEP0
 130              		.section	.text.USBUART_1_InitZeroLengthControlTransfer,"ax",%progbits
 131              		.align	1
 132              		.global	USBUART_1_InitZeroLengthControlTransfer
 133              		.thumb
 134              		.thumb_func
 135              		.type	USBUART_1_InitZeroLengthControlTransfer, %function
 136              	USBUART_1_InitZeroLengthControlTransfer:
 137              	.LFB6:
 394:Generated_Source\PSoC5/USBUART_1_drv.c **** }
 395:Generated_Source\PSoC5/USBUART_1_drv.c **** 
 396:Generated_Source\PSoC5/USBUART_1_drv.c **** 
 397:Generated_Source\PSoC5/USBUART_1_drv.c **** /*******************************************************************************
 398:Generated_Source\PSoC5/USBUART_1_drv.c **** * Function Name: USBUART_1_InitControlRead
 399:Generated_Source\PSoC5/USBUART_1_drv.c **** ****************************************************************************//**
 400:Generated_Source\PSoC5/USBUART_1_drv.c **** *
 401:Generated_Source\PSoC5/USBUART_1_drv.c **** *  Initialize a control read transaction. It is used to send data to the host.
 402:Generated_Source\PSoC5/USBUART_1_drv.c **** *  The following global variables should be initialized before this function
 403:Generated_Source\PSoC5/USBUART_1_drv.c **** *  called. To send zero length packet use InitZeroLengthControlTransfer
 404:Generated_Source\PSoC5/USBUART_1_drv.c **** *  function.
 405:Generated_Source\PSoC5/USBUART_1_drv.c **** *
 406:Generated_Source\PSoC5/USBUART_1_drv.c **** *
 407:Generated_Source\PSoC5/USBUART_1_drv.c **** * \return
 408:Generated_Source\PSoC5/USBUART_1_drv.c **** *  requestHandled state.
 409:Generated_Source\PSoC5/USBUART_1_drv.c **** *
 410:Generated_Source\PSoC5/USBUART_1_drv.c **** * \globalvars
 411:Generated_Source\PSoC5/USBUART_1_drv.c **** *  USBUART_1_currentTD.count - counts of data to be sent.
 412:Generated_Source\PSoC5/USBUART_1_drv.c **** *  USBUART_1_currentTD.pData - data pointer.
 413:Generated_Source\PSoC5/USBUART_1_drv.c **** *
 414:Generated_Source\PSoC5/USBUART_1_drv.c **** * \reentrant
 415:Generated_Source\PSoC5/USBUART_1_drv.c **** *  No.
 416:Generated_Source\PSoC5/USBUART_1_drv.c **** *
 417:Generated_Source\PSoC5/USBUART_1_drv.c **** *******************************************************************************/
 418:Generated_Source\PSoC5/USBUART_1_drv.c **** uint8 USBUART_1_InitControlRead(void) 
 419:Generated_Source\PSoC5/USBUART_1_drv.c **** {
 420:Generated_Source\PSoC5/USBUART_1_drv.c ****     uint16 xferCount;
 421:Generated_Source\PSoC5/USBUART_1_drv.c **** 
 422:Generated_Source\PSoC5/USBUART_1_drv.c ****     if (USBUART_1_currentTD.count == 0u)
 423:Generated_Source\PSoC5/USBUART_1_drv.c ****     {
 424:Generated_Source\PSoC5/USBUART_1_drv.c ****         (void) USBUART_1_InitZeroLengthControlTransfer();
 425:Generated_Source\PSoC5/USBUART_1_drv.c ****     }
 426:Generated_Source\PSoC5/USBUART_1_drv.c ****     else
 427:Generated_Source\PSoC5/USBUART_1_drv.c ****     {
 428:Generated_Source\PSoC5/USBUART_1_drv.c ****         /* Set up the state machine */
 429:Generated_Source\PSoC5/USBUART_1_drv.c ****         USBUART_1_transferState = USBUART_1_TRANS_STATE_CONTROL_READ;
 430:Generated_Source\PSoC5/USBUART_1_drv.c ****         
 431:Generated_Source\PSoC5/USBUART_1_drv.c ****         /* Set the toggle, it gets updated in LoadEP */
 432:Generated_Source\PSoC5/USBUART_1_drv.c ****         USBUART_1_ep0Toggle = 0u;
 433:Generated_Source\PSoC5/USBUART_1_drv.c ****         
ARM GAS  C:\Users\Luggi\AppData\Local\Temp\ccz9dGF6.s 			page 11


 434:Generated_Source\PSoC5/USBUART_1_drv.c ****         /* Initialize the Status Block */
 435:Generated_Source\PSoC5/USBUART_1_drv.c ****         USBUART_1_InitializeStatusBlock();
 436:Generated_Source\PSoC5/USBUART_1_drv.c ****         
 437:Generated_Source\PSoC5/USBUART_1_drv.c ****         xferCount = ((uint16)((uint16) USBUART_1_lengthHiReg << 8u) | ((uint16) USBUART_1_lengthLoR
 438:Generated_Source\PSoC5/USBUART_1_drv.c **** 
 439:Generated_Source\PSoC5/USBUART_1_drv.c ****         if (USBUART_1_currentTD.count > xferCount)
 440:Generated_Source\PSoC5/USBUART_1_drv.c ****         {
 441:Generated_Source\PSoC5/USBUART_1_drv.c ****             USBUART_1_currentTD.count = xferCount;
 442:Generated_Source\PSoC5/USBUART_1_drv.c ****         }
 443:Generated_Source\PSoC5/USBUART_1_drv.c ****         
 444:Generated_Source\PSoC5/USBUART_1_drv.c ****         USBUART_1_LoadEP0();
 445:Generated_Source\PSoC5/USBUART_1_drv.c ****     }
 446:Generated_Source\PSoC5/USBUART_1_drv.c **** 
 447:Generated_Source\PSoC5/USBUART_1_drv.c ****     return (USBUART_1_TRUE);
 448:Generated_Source\PSoC5/USBUART_1_drv.c **** }
 449:Generated_Source\PSoC5/USBUART_1_drv.c **** 
 450:Generated_Source\PSoC5/USBUART_1_drv.c **** 
 451:Generated_Source\PSoC5/USBUART_1_drv.c **** /*******************************************************************************
 452:Generated_Source\PSoC5/USBUART_1_drv.c **** * Function Name: USBUART_1_InitZeroLengthControlTransfer
 453:Generated_Source\PSoC5/USBUART_1_drv.c **** ****************************************************************************//**
 454:Generated_Source\PSoC5/USBUART_1_drv.c **** *
 455:Generated_Source\PSoC5/USBUART_1_drv.c **** *  Initialize a zero length data IN transfer.
 456:Generated_Source\PSoC5/USBUART_1_drv.c **** *
 457:Generated_Source\PSoC5/USBUART_1_drv.c **** * \return
 458:Generated_Source\PSoC5/USBUART_1_drv.c **** *  requestHandled state.
 459:Generated_Source\PSoC5/USBUART_1_drv.c **** *
 460:Generated_Source\PSoC5/USBUART_1_drv.c **** * \globalvars
 461:Generated_Source\PSoC5/USBUART_1_drv.c **** *  USBUART_1_ep0Toggle - set to EP0_CNT_DATA_TOGGLE
 462:Generated_Source\PSoC5/USBUART_1_drv.c **** *  USBUART_1_ep0Mode  - prepare for mode register content.
 463:Generated_Source\PSoC5/USBUART_1_drv.c **** *  USBUART_1_transferState - set to TRANS_STATE_CONTROL_READ
 464:Generated_Source\PSoC5/USBUART_1_drv.c **** *  USBUART_1_ep0Count - cleared, means the zero-length packet.
 465:Generated_Source\PSoC5/USBUART_1_drv.c **** *  USBUART_1_lastPacketSize - cleared.
 466:Generated_Source\PSoC5/USBUART_1_drv.c **** *
 467:Generated_Source\PSoC5/USBUART_1_drv.c **** * \reentrant
 468:Generated_Source\PSoC5/USBUART_1_drv.c **** *  No.
 469:Generated_Source\PSoC5/USBUART_1_drv.c **** *
 470:Generated_Source\PSoC5/USBUART_1_drv.c **** *******************************************************************************/
 471:Generated_Source\PSoC5/USBUART_1_drv.c **** uint8 USBUART_1_InitZeroLengthControlTransfer(void)
 472:Generated_Source\PSoC5/USBUART_1_drv.c ****                                                 
 473:Generated_Source\PSoC5/USBUART_1_drv.c **** {
 138              		.loc 1 473 0
 139              		.cfi_startproc
 140              		@ args = 0, pretend = 0, frame = 0
 141              		@ frame_needed = 0, uses_anonymous_args = 0
 142              		@ link register save eliminated.
 474:Generated_Source\PSoC5/USBUART_1_drv.c ****     /* Update the state */
 475:Generated_Source\PSoC5/USBUART_1_drv.c ****     USBUART_1_transferState = USBUART_1_TRANS_STATE_CONTROL_READ;
 143              		.loc 1 475 0
 144 0000 074B     		ldr	r3, .L20
 145 0002 0222     		movs	r2, #2
 146 0004 1A70     		strb	r2, [r3]
 476:Generated_Source\PSoC5/USBUART_1_drv.c ****     
 477:Generated_Source\PSoC5/USBUART_1_drv.c ****     /* Set the data toggle */
 478:Generated_Source\PSoC5/USBUART_1_drv.c ****     USBUART_1_ep0Toggle = USBUART_1_EP0_CNT_DATA_TOGGLE;
 147              		.loc 1 478 0
 148 0006 074B     		ldr	r3, .L20+4
 149 0008 8022     		movs	r2, #128
ARM GAS  C:\Users\Luggi\AppData\Local\Temp\ccz9dGF6.s 			page 12


 150 000a 1A70     		strb	r2, [r3]
 479:Generated_Source\PSoC5/USBUART_1_drv.c ****     
 480:Generated_Source\PSoC5/USBUART_1_drv.c ****     /* Set the Mode Register  */
 481:Generated_Source\PSoC5/USBUART_1_drv.c ****     USBUART_1_ep0Mode = USBUART_1_MODE_ACK_IN_STATUS_OUT;
 151              		.loc 1 481 0
 152 000c 064B     		ldr	r3, .L20+8
 153 000e 0F22     		movs	r2, #15
 154 0010 1A70     		strb	r2, [r3]
 482:Generated_Source\PSoC5/USBUART_1_drv.c ****     
 483:Generated_Source\PSoC5/USBUART_1_drv.c ****     /* Save the packet size for next time */
 484:Generated_Source\PSoC5/USBUART_1_drv.c ****     USBUART_1_lastPacketSize = 0u;
 155              		.loc 1 484 0
 156 0012 064A     		ldr	r2, .L20+12
 157 0014 0023     		movs	r3, #0
 158 0016 1370     		strb	r3, [r2]
 485:Generated_Source\PSoC5/USBUART_1_drv.c ****     
 486:Generated_Source\PSoC5/USBUART_1_drv.c ****     USBUART_1_ep0Count = 0u;
 159              		.loc 1 486 0
 160 0018 054A     		ldr	r2, .L20+16
 487:Generated_Source\PSoC5/USBUART_1_drv.c **** 
 488:Generated_Source\PSoC5/USBUART_1_drv.c ****     return (USBUART_1_TRUE);
 489:Generated_Source\PSoC5/USBUART_1_drv.c **** }
 161              		.loc 1 489 0
 162 001a 0120     		movs	r0, #1
 486:Generated_Source\PSoC5/USBUART_1_drv.c **** 
 163              		.loc 1 486 0
 164 001c 1370     		strb	r3, [r2]
 165              		.loc 1 489 0
 166 001e 7047     		bx	lr
 167              	.L21:
 168              		.align	2
 169              	.L20:
 170 0020 00000000 		.word	USBUART_1_transferState
 171 0024 00000000 		.word	USBUART_1_ep0Toggle
 172 0028 00000000 		.word	USBUART_1_ep0Mode
 173 002c 00000000 		.word	USBUART_1_lastPacketSize
 174 0030 00000000 		.word	USBUART_1_ep0Count
 175              		.cfi_endproc
 176              	.LFE6:
 177              		.size	USBUART_1_InitZeroLengthControlTransfer, .-USBUART_1_InitZeroLengthControlTransfer
 178              		.section	.text.USBUART_1_ControlReadDataStage,"ax",%progbits
 179              		.align	1
 180              		.global	USBUART_1_ControlReadDataStage
 181              		.thumb
 182              		.thumb_func
 183              		.type	USBUART_1_ControlReadDataStage, %function
 184              	USBUART_1_ControlReadDataStage:
 185              	.LFB7:
 490:Generated_Source\PSoC5/USBUART_1_drv.c **** 
 491:Generated_Source\PSoC5/USBUART_1_drv.c **** 
 492:Generated_Source\PSoC5/USBUART_1_drv.c **** /*******************************************************************************
 493:Generated_Source\PSoC5/USBUART_1_drv.c **** * Function Name: USBUART_1_ControlReadDataStage
 494:Generated_Source\PSoC5/USBUART_1_drv.c **** ****************************************************************************//**
 495:Generated_Source\PSoC5/USBUART_1_drv.c **** *
 496:Generated_Source\PSoC5/USBUART_1_drv.c **** *  Handle the Data Stage of a control read transfer.
 497:Generated_Source\PSoC5/USBUART_1_drv.c **** *
 498:Generated_Source\PSoC5/USBUART_1_drv.c **** *
ARM GAS  C:\Users\Luggi\AppData\Local\Temp\ccz9dGF6.s 			page 13


 499:Generated_Source\PSoC5/USBUART_1_drv.c **** * \reentrant
 500:Generated_Source\PSoC5/USBUART_1_drv.c **** *  No.
 501:Generated_Source\PSoC5/USBUART_1_drv.c **** *
 502:Generated_Source\PSoC5/USBUART_1_drv.c **** *******************************************************************************/
 503:Generated_Source\PSoC5/USBUART_1_drv.c **** void USBUART_1_ControlReadDataStage(void) 
 504:Generated_Source\PSoC5/USBUART_1_drv.c **** 
 505:Generated_Source\PSoC5/USBUART_1_drv.c **** {
 186              		.loc 1 505 0
 187              		.cfi_startproc
 188              		@ args = 0, pretend = 0, frame = 0
 189              		@ frame_needed = 0, uses_anonymous_args = 0
 190              		@ link register save eliminated.
 506:Generated_Source\PSoC5/USBUART_1_drv.c ****     USBUART_1_LoadEP0();
 191              		.loc 1 506 0
 192 0000 FFF7FEBF 		b	USBUART_1_LoadEP0
 193              	.LVL8:
 194              		.cfi_endproc
 195              	.LFE7:
 196              		.size	USBUART_1_ControlReadDataStage, .-USBUART_1_ControlReadDataStage
 197              		.section	.text.USBUART_1_ControlWriteDataStage,"ax",%progbits
 198              		.align	1
 199              		.global	USBUART_1_ControlWriteDataStage
 200              		.thumb
 201              		.thumb_func
 202              		.type	USBUART_1_ControlWriteDataStage, %function
 203              	USBUART_1_ControlWriteDataStage:
 204              	.LFB10:
 507:Generated_Source\PSoC5/USBUART_1_drv.c **** }
 508:Generated_Source\PSoC5/USBUART_1_drv.c **** 
 509:Generated_Source\PSoC5/USBUART_1_drv.c **** 
 510:Generated_Source\PSoC5/USBUART_1_drv.c **** /*******************************************************************************
 511:Generated_Source\PSoC5/USBUART_1_drv.c **** * Function Name: USBUART_1_ControlReadStatusStage
 512:Generated_Source\PSoC5/USBUART_1_drv.c **** ****************************************************************************//**
 513:Generated_Source\PSoC5/USBUART_1_drv.c **** *
 514:Generated_Source\PSoC5/USBUART_1_drv.c **** *  Handle the Status Stage of a control read transfer.
 515:Generated_Source\PSoC5/USBUART_1_drv.c **** *
 516:Generated_Source\PSoC5/USBUART_1_drv.c **** *
 517:Generated_Source\PSoC5/USBUART_1_drv.c **** * \globalvars
 518:Generated_Source\PSoC5/USBUART_1_drv.c **** *  USBUART_1_USBFS_transferByteCount - updated with last packet size.
 519:Generated_Source\PSoC5/USBUART_1_drv.c **** *  USBUART_1_transferState - set to TRANS_STATE_IDLE.
 520:Generated_Source\PSoC5/USBUART_1_drv.c **** *  USBUART_1_ep0Mode  - set to MODE_STALL_IN_OUT.
 521:Generated_Source\PSoC5/USBUART_1_drv.c **** *
 522:Generated_Source\PSoC5/USBUART_1_drv.c **** * \reentrant
 523:Generated_Source\PSoC5/USBUART_1_drv.c **** *  No.
 524:Generated_Source\PSoC5/USBUART_1_drv.c **** *
 525:Generated_Source\PSoC5/USBUART_1_drv.c **** *******************************************************************************/
 526:Generated_Source\PSoC5/USBUART_1_drv.c **** void USBUART_1_ControlReadStatusStage(void) 
 527:Generated_Source\PSoC5/USBUART_1_drv.c **** {
 528:Generated_Source\PSoC5/USBUART_1_drv.c ****     /* Update the transfer byte count */
 529:Generated_Source\PSoC5/USBUART_1_drv.c ****     USBUART_1_transferByteCount += USBUART_1_lastPacketSize;
 530:Generated_Source\PSoC5/USBUART_1_drv.c ****     
 531:Generated_Source\PSoC5/USBUART_1_drv.c ****     /* Go Idle */
 532:Generated_Source\PSoC5/USBUART_1_drv.c ****     USBUART_1_transferState = USBUART_1_TRANS_STATE_IDLE;
 533:Generated_Source\PSoC5/USBUART_1_drv.c ****     
 534:Generated_Source\PSoC5/USBUART_1_drv.c ****     /* Update the completion block */
 535:Generated_Source\PSoC5/USBUART_1_drv.c ****     USBUART_1_UpdateStatusBlock(USBUART_1_XFER_STATUS_ACK);
 536:Generated_Source\PSoC5/USBUART_1_drv.c ****     
ARM GAS  C:\Users\Luggi\AppData\Local\Temp\ccz9dGF6.s 			page 14


 537:Generated_Source\PSoC5/USBUART_1_drv.c ****     /* We expect no more data, so stall INs and OUTs */
 538:Generated_Source\PSoC5/USBUART_1_drv.c ****     USBUART_1_ep0Mode = USBUART_1_MODE_STALL_IN_OUT;
 539:Generated_Source\PSoC5/USBUART_1_drv.c **** }
 540:Generated_Source\PSoC5/USBUART_1_drv.c **** 
 541:Generated_Source\PSoC5/USBUART_1_drv.c **** 
 542:Generated_Source\PSoC5/USBUART_1_drv.c **** /*******************************************************************************
 543:Generated_Source\PSoC5/USBUART_1_drv.c **** * Function Name: USBUART_1_InitControlWrite
 544:Generated_Source\PSoC5/USBUART_1_drv.c **** ****************************************************************************//**
 545:Generated_Source\PSoC5/USBUART_1_drv.c **** *
 546:Generated_Source\PSoC5/USBUART_1_drv.c **** *  Initialize a control write transaction
 547:Generated_Source\PSoC5/USBUART_1_drv.c **** *
 548:Generated_Source\PSoC5/USBUART_1_drv.c **** * \return
 549:Generated_Source\PSoC5/USBUART_1_drv.c **** *  requestHandled state.
 550:Generated_Source\PSoC5/USBUART_1_drv.c **** *
 551:Generated_Source\PSoC5/USBUART_1_drv.c **** * \globalvars
 552:Generated_Source\PSoC5/USBUART_1_drv.c **** *  USBUART_1_USBFS_transferState - set to TRANS_STATE_CONTROL_WRITE
 553:Generated_Source\PSoC5/USBUART_1_drv.c **** *  USBUART_1_ep0Toggle - set to EP0_CNT_DATA_TOGGLE
 554:Generated_Source\PSoC5/USBUART_1_drv.c **** *  USBUART_1_ep0Mode  - set to MODE_ACK_OUT_STATUS_IN
 555:Generated_Source\PSoC5/USBUART_1_drv.c **** *
 556:Generated_Source\PSoC5/USBUART_1_drv.c **** * \reentrant
 557:Generated_Source\PSoC5/USBUART_1_drv.c **** *  No.
 558:Generated_Source\PSoC5/USBUART_1_drv.c **** *
 559:Generated_Source\PSoC5/USBUART_1_drv.c **** *******************************************************************************/
 560:Generated_Source\PSoC5/USBUART_1_drv.c **** uint8 USBUART_1_InitControlWrite(void) 
 561:Generated_Source\PSoC5/USBUART_1_drv.c **** {
 562:Generated_Source\PSoC5/USBUART_1_drv.c ****     uint16 xferCount;
 563:Generated_Source\PSoC5/USBUART_1_drv.c **** 
 564:Generated_Source\PSoC5/USBUART_1_drv.c ****     /* Set up the state machine */
 565:Generated_Source\PSoC5/USBUART_1_drv.c ****     USBUART_1_transferState = USBUART_1_TRANS_STATE_CONTROL_WRITE;
 566:Generated_Source\PSoC5/USBUART_1_drv.c ****     
 567:Generated_Source\PSoC5/USBUART_1_drv.c ****     /* This might not be necessary */
 568:Generated_Source\PSoC5/USBUART_1_drv.c ****     USBUART_1_ep0Toggle = USBUART_1_EP0_CNT_DATA_TOGGLE;
 569:Generated_Source\PSoC5/USBUART_1_drv.c ****     
 570:Generated_Source\PSoC5/USBUART_1_drv.c ****     /* Initialize the Status Block */
 571:Generated_Source\PSoC5/USBUART_1_drv.c ****     USBUART_1_InitializeStatusBlock();
 572:Generated_Source\PSoC5/USBUART_1_drv.c **** 
 573:Generated_Source\PSoC5/USBUART_1_drv.c ****     xferCount = ((uint16)((uint16) USBUART_1_lengthHiReg << 8u) | ((uint16) USBUART_1_lengthLoReg))
 574:Generated_Source\PSoC5/USBUART_1_drv.c **** 
 575:Generated_Source\PSoC5/USBUART_1_drv.c ****     if (USBUART_1_currentTD.count > xferCount)
 576:Generated_Source\PSoC5/USBUART_1_drv.c ****     {
 577:Generated_Source\PSoC5/USBUART_1_drv.c ****         USBUART_1_currentTD.count = xferCount;
 578:Generated_Source\PSoC5/USBUART_1_drv.c ****     }
 579:Generated_Source\PSoC5/USBUART_1_drv.c **** 
 580:Generated_Source\PSoC5/USBUART_1_drv.c ****     /* Expect Data or Status Stage */
 581:Generated_Source\PSoC5/USBUART_1_drv.c ****     USBUART_1_ep0Mode = USBUART_1_MODE_ACK_OUT_STATUS_IN;
 582:Generated_Source\PSoC5/USBUART_1_drv.c **** 
 583:Generated_Source\PSoC5/USBUART_1_drv.c ****     return(USBUART_1_TRUE);
 584:Generated_Source\PSoC5/USBUART_1_drv.c **** }
 585:Generated_Source\PSoC5/USBUART_1_drv.c **** 
 586:Generated_Source\PSoC5/USBUART_1_drv.c **** 
 587:Generated_Source\PSoC5/USBUART_1_drv.c **** /*******************************************************************************
 588:Generated_Source\PSoC5/USBUART_1_drv.c **** * Function Name: USBUART_1_ControlWriteDataStage
 589:Generated_Source\PSoC5/USBUART_1_drv.c **** ****************************************************************************//**
 590:Generated_Source\PSoC5/USBUART_1_drv.c **** *
 591:Generated_Source\PSoC5/USBUART_1_drv.c **** *  Handle the Data Stage of a control write transfer
 592:Generated_Source\PSoC5/USBUART_1_drv.c **** *       1. Get the data (We assume the destination was validated previously)
 593:Generated_Source\PSoC5/USBUART_1_drv.c **** *       2. Update the count and data toggle
ARM GAS  C:\Users\Luggi\AppData\Local\Temp\ccz9dGF6.s 			page 15


 594:Generated_Source\PSoC5/USBUART_1_drv.c **** *       3. Update the mode register for the next transaction
 595:Generated_Source\PSoC5/USBUART_1_drv.c **** *
 596:Generated_Source\PSoC5/USBUART_1_drv.c **** *
 597:Generated_Source\PSoC5/USBUART_1_drv.c **** * \globalvars
 598:Generated_Source\PSoC5/USBUART_1_drv.c **** *  USBUART_1_transferByteCount - Update the transfer byte count from the
 599:Generated_Source\PSoC5/USBUART_1_drv.c **** *    last transaction.
 600:Generated_Source\PSoC5/USBUART_1_drv.c **** *  USBUART_1_ep0Count - counts the data loaded from the SIE memory
 601:Generated_Source\PSoC5/USBUART_1_drv.c **** *    in current packet.
 602:Generated_Source\PSoC5/USBUART_1_drv.c **** *  USBUART_1_transferByteCount - sum of the previous bytes transferred
 603:Generated_Source\PSoC5/USBUART_1_drv.c **** *    on previous packets(sum of USBFS_lastPacketSize)
 604:Generated_Source\PSoC5/USBUART_1_drv.c **** *  USBUART_1_ep0Toggle - inverted
 605:Generated_Source\PSoC5/USBUART_1_drv.c **** *  USBUART_1_ep0Mode  - set to MODE_ACK_OUT_STATUS_IN.
 606:Generated_Source\PSoC5/USBUART_1_drv.c **** *
 607:Generated_Source\PSoC5/USBUART_1_drv.c **** * \reentrant
 608:Generated_Source\PSoC5/USBUART_1_drv.c **** *  No.
 609:Generated_Source\PSoC5/USBUART_1_drv.c **** *
 610:Generated_Source\PSoC5/USBUART_1_drv.c **** *******************************************************************************/
 611:Generated_Source\PSoC5/USBUART_1_drv.c **** void USBUART_1_ControlWriteDataStage(void) 
 612:Generated_Source\PSoC5/USBUART_1_drv.c **** {
 205              		.loc 1 612 0
 206              		.cfi_startproc
 207              		@ args = 0, pretend = 0, frame = 0
 208              		@ frame_needed = 0, uses_anonymous_args = 0
 209              	.LVL9:
 210 0000 10B5     		push	{r4, lr}
 211              		.cfi_def_cfa_offset 8
 212              		.cfi_offset 4, -8
 213              		.cfi_offset 14, -4
 613:Generated_Source\PSoC5/USBUART_1_drv.c ****     uint8 ep0Count;
 614:Generated_Source\PSoC5/USBUART_1_drv.c ****     uint8 regIndex = 0u;
 615:Generated_Source\PSoC5/USBUART_1_drv.c **** 
 616:Generated_Source\PSoC5/USBUART_1_drv.c ****     ep0Count = (USBUART_1_EP0_CNT_REG & USBUART_1_EPX_CNT0_MASK) - USBUART_1_EPX_CNTX_CRC_COUNT;
 214              		.loc 1 616 0
 215 0002 164B     		ldr	r3, .L30
 617:Generated_Source\PSoC5/USBUART_1_drv.c **** 
 618:Generated_Source\PSoC5/USBUART_1_drv.c ****     USBUART_1_transferByteCount += (uint8)ep0Count;
 216              		.loc 1 618 0
 217 0004 1649     		ldr	r1, .L30+4
 616:Generated_Source\PSoC5/USBUART_1_drv.c **** 
 218              		.loc 1 616 0
 219 0006 1B78     		ldrb	r3, [r3]	@ zero_extendqisi2
 220              		.loc 1 618 0
 221 0008 0A88     		ldrh	r2, [r1]
 616:Generated_Source\PSoC5/USBUART_1_drv.c **** 
 222              		.loc 1 616 0
 223 000a 03F00F03 		and	r3, r3, #15
 224 000e 023B     		subs	r3, r3, #2
 225 0010 DBB2     		uxtb	r3, r3
 226              	.LVL10:
 227              		.loc 1 618 0
 228 0012 1A44     		add	r2, r2, r3
 229 0014 92B2     		uxth	r2, r2
 230 0016 0A80     		strh	r2, [r1]	@ movhi
 619:Generated_Source\PSoC5/USBUART_1_drv.c **** 
 620:Generated_Source\PSoC5/USBUART_1_drv.c ****     while ((USBUART_1_currentTD.count > 0u) && (ep0Count > 0u))
 231              		.loc 1 620 0
 232 0018 0020     		movs	r0, #0
ARM GAS  C:\Users\Luggi\AppData\Local\Temp\ccz9dGF6.s 			page 16


 233              	.LVL11:
 234              	.L24:
 235 001a 124A     		ldr	r2, .L30+8
 236 001c 1188     		ldrh	r1, [r2]
 237 001e 89B2     		uxth	r1, r1
 238 0020 81B1     		cbz	r1, .L25
 239              		.loc 1 620 0 is_stmt 0 discriminator 1
 240 0022 7BB1     		cbz	r3, .L25
 621:Generated_Source\PSoC5/USBUART_1_drv.c ****     {
 622:Generated_Source\PSoC5/USBUART_1_drv.c ****         *USBUART_1_currentTD.pData = (uint8) USBUART_1_EP0_DR_BASE.epData[regIndex];
 241              		.loc 1 622 0 is_stmt 1
 242 0024 1049     		ldr	r1, .L30+12
 243 0026 5468     		ldr	r4, [r2, #4]
 244 0028 095C     		ldrb	r1, [r1, r0]	@ zero_extendqisi2
 623:Generated_Source\PSoC5/USBUART_1_drv.c ****         USBUART_1_currentTD.pData = &USBUART_1_currentTD.pData[1u];
 624:Generated_Source\PSoC5/USBUART_1_drv.c ****         regIndex++;
 625:Generated_Source\PSoC5/USBUART_1_drv.c ****         ep0Count--;
 245              		.loc 1 625 0
 246 002a 013B     		subs	r3, r3, #1
 247              	.LVL12:
 622:Generated_Source\PSoC5/USBUART_1_drv.c ****         USBUART_1_currentTD.pData = &USBUART_1_currentTD.pData[1u];
 248              		.loc 1 622 0
 249 002c C9B2     		uxtb	r1, r1
 250 002e 2170     		strb	r1, [r4]
 623:Generated_Source\PSoC5/USBUART_1_drv.c ****         USBUART_1_currentTD.pData = &USBUART_1_currentTD.pData[1u];
 251              		.loc 1 623 0
 252 0030 5168     		ldr	r1, [r2, #4]
 253              		.loc 1 625 0
 254 0032 DBB2     		uxtb	r3, r3
 623:Generated_Source\PSoC5/USBUART_1_drv.c ****         USBUART_1_currentTD.pData = &USBUART_1_currentTD.pData[1u];
 255              		.loc 1 623 0
 256 0034 0131     		adds	r1, r1, #1
 257 0036 5160     		str	r1, [r2, #4]
 258              	.LVL13:
 626:Generated_Source\PSoC5/USBUART_1_drv.c ****         USBUART_1_currentTD.count--;
 259              		.loc 1 626 0
 260 0038 1188     		ldrh	r1, [r2]
 261 003a 0130     		adds	r0, r0, #1
 262              	.LVL14:
 263 003c 0139     		subs	r1, r1, #1
 264 003e 89B2     		uxth	r1, r1
 265 0040 1180     		strh	r1, [r2]	@ movhi
 266 0042 EAE7     		b	.L24
 267              	.LVL15:
 268              	.L25:
 627:Generated_Source\PSoC5/USBUART_1_drv.c ****     }
 628:Generated_Source\PSoC5/USBUART_1_drv.c ****     
 629:Generated_Source\PSoC5/USBUART_1_drv.c ****     USBUART_1_ep0Count = (uint8)ep0Count;
 269              		.loc 1 629 0
 270 0044 094A     		ldr	r2, .L30+16
 271 0046 1370     		strb	r3, [r2]
 630:Generated_Source\PSoC5/USBUART_1_drv.c ****     
 631:Generated_Source\PSoC5/USBUART_1_drv.c ****     /* Update the data toggle */
 632:Generated_Source\PSoC5/USBUART_1_drv.c ****     USBUART_1_ep0Toggle ^= USBUART_1_EP0_CNT_DATA_TOGGLE;
 272              		.loc 1 632 0
 273 0048 094A     		ldr	r2, .L30+20
 274 004a 1378     		ldrb	r3, [r2]	@ zero_extendqisi2
ARM GAS  C:\Users\Luggi\AppData\Local\Temp\ccz9dGF6.s 			page 17


 275              	.LVL16:
 276 004c 83F08003 		eor	r3, r3, #128
 277 0050 1370     		strb	r3, [r2]
 278              	.LVL17:
 633:Generated_Source\PSoC5/USBUART_1_drv.c ****     
 634:Generated_Source\PSoC5/USBUART_1_drv.c ****     /* Expect Data or Status Stage */
 635:Generated_Source\PSoC5/USBUART_1_drv.c ****     USBUART_1_ep0Mode = USBUART_1_MODE_ACK_OUT_STATUS_IN;
 279              		.loc 1 635 0
 280 0052 084B     		ldr	r3, .L30+24
 281 0054 0B22     		movs	r2, #11
 282 0056 1A70     		strb	r2, [r3]
 283 0058 10BD     		pop	{r4, pc}
 284              	.L31:
 285 005a 00BF     		.align	2
 286              	.L30:
 287 005c 29600040 		.word	1073766441
 288 0060 00000000 		.word	USBUART_1_transferByteCount
 289 0064 00000000 		.word	USBUART_1_currentTD
 290 0068 00600040 		.word	1073766400
 291 006c 00000000 		.word	USBUART_1_ep0Count
 292 0070 00000000 		.word	USBUART_1_ep0Toggle
 293 0074 00000000 		.word	USBUART_1_ep0Mode
 294              		.cfi_endproc
 295              	.LFE10:
 296              		.size	USBUART_1_ControlWriteDataStage, .-USBUART_1_ControlWriteDataStage
 297              		.section	.text.USBUART_1_InitNoDataControlTransfer,"ax",%progbits
 298              		.align	1
 299              		.global	USBUART_1_InitNoDataControlTransfer
 300              		.thumb
 301              		.thumb_func
 302              		.type	USBUART_1_InitNoDataControlTransfer, %function
 303              	USBUART_1_InitNoDataControlTransfer:
 304              	.LFB12:
 636:Generated_Source\PSoC5/USBUART_1_drv.c **** }
 637:Generated_Source\PSoC5/USBUART_1_drv.c **** 
 638:Generated_Source\PSoC5/USBUART_1_drv.c **** 
 639:Generated_Source\PSoC5/USBUART_1_drv.c **** /*******************************************************************************
 640:Generated_Source\PSoC5/USBUART_1_drv.c **** * Function Name: USBUART_1_ControlWriteStatusStage
 641:Generated_Source\PSoC5/USBUART_1_drv.c **** ****************************************************************************//**
 642:Generated_Source\PSoC5/USBUART_1_drv.c **** *
 643:Generated_Source\PSoC5/USBUART_1_drv.c **** *  Handle the Status Stage of a control write transfer
 644:Generated_Source\PSoC5/USBUART_1_drv.c **** *
 645:Generated_Source\PSoC5/USBUART_1_drv.c **** * \globalvars
 646:Generated_Source\PSoC5/USBUART_1_drv.c **** *  USBUART_1_transferState - set to TRANS_STATE_IDLE.
 647:Generated_Source\PSoC5/USBUART_1_drv.c **** *  USBUART_1_USBFS_ep0Mode  - set to MODE_STALL_IN_OUT.
 648:Generated_Source\PSoC5/USBUART_1_drv.c **** *
 649:Generated_Source\PSoC5/USBUART_1_drv.c **** * \reentrant
 650:Generated_Source\PSoC5/USBUART_1_drv.c **** *  No.
 651:Generated_Source\PSoC5/USBUART_1_drv.c **** *
 652:Generated_Source\PSoC5/USBUART_1_drv.c **** *******************************************************************************/
 653:Generated_Source\PSoC5/USBUART_1_drv.c **** void USBUART_1_ControlWriteStatusStage(void) 
 654:Generated_Source\PSoC5/USBUART_1_drv.c **** {
 655:Generated_Source\PSoC5/USBUART_1_drv.c ****     /* Go Idle */
 656:Generated_Source\PSoC5/USBUART_1_drv.c ****     USBUART_1_transferState = USBUART_1_TRANS_STATE_IDLE;
 657:Generated_Source\PSoC5/USBUART_1_drv.c ****     
 658:Generated_Source\PSoC5/USBUART_1_drv.c ****     /* Update the completion block */    
 659:Generated_Source\PSoC5/USBUART_1_drv.c ****     USBUART_1_UpdateStatusBlock(USBUART_1_XFER_STATUS_ACK);
ARM GAS  C:\Users\Luggi\AppData\Local\Temp\ccz9dGF6.s 			page 18


 660:Generated_Source\PSoC5/USBUART_1_drv.c ****     
 661:Generated_Source\PSoC5/USBUART_1_drv.c ****     /* We expect no more data, so stall INs and OUTs */
 662:Generated_Source\PSoC5/USBUART_1_drv.c ****     USBUART_1_ep0Mode = USBUART_1_MODE_STALL_IN_OUT;
 663:Generated_Source\PSoC5/USBUART_1_drv.c **** }
 664:Generated_Source\PSoC5/USBUART_1_drv.c **** 
 665:Generated_Source\PSoC5/USBUART_1_drv.c **** 
 666:Generated_Source\PSoC5/USBUART_1_drv.c **** /*******************************************************************************
 667:Generated_Source\PSoC5/USBUART_1_drv.c **** * Function Name: USBUART_1_InitNoDataControlTransfer
 668:Generated_Source\PSoC5/USBUART_1_drv.c **** ****************************************************************************//**
 669:Generated_Source\PSoC5/USBUART_1_drv.c **** *
 670:Generated_Source\PSoC5/USBUART_1_drv.c **** *  Initialize a no data control transfer
 671:Generated_Source\PSoC5/USBUART_1_drv.c **** *
 672:Generated_Source\PSoC5/USBUART_1_drv.c **** * \return
 673:Generated_Source\PSoC5/USBUART_1_drv.c **** *  requestHandled state.
 674:Generated_Source\PSoC5/USBUART_1_drv.c **** *
 675:Generated_Source\PSoC5/USBUART_1_drv.c **** * \globalvars
 676:Generated_Source\PSoC5/USBUART_1_drv.c **** *  USBUART_1_transferState - set to TRANS_STATE_NO_DATA_CONTROL.
 677:Generated_Source\PSoC5/USBUART_1_drv.c **** *  USBUART_1_ep0Mode  - set to MODE_STATUS_IN_ONLY.
 678:Generated_Source\PSoC5/USBUART_1_drv.c **** *  USBUART_1_ep0Count - cleared.
 679:Generated_Source\PSoC5/USBUART_1_drv.c **** *  USBUART_1_ep0Toggle - set to EP0_CNT_DATA_TOGGLE
 680:Generated_Source\PSoC5/USBUART_1_drv.c **** *
 681:Generated_Source\PSoC5/USBUART_1_drv.c **** * \reentrant
 682:Generated_Source\PSoC5/USBUART_1_drv.c **** *  No.
 683:Generated_Source\PSoC5/USBUART_1_drv.c **** *
 684:Generated_Source\PSoC5/USBUART_1_drv.c **** *******************************************************************************/
 685:Generated_Source\PSoC5/USBUART_1_drv.c **** uint8 USBUART_1_InitNoDataControlTransfer(void) 
 686:Generated_Source\PSoC5/USBUART_1_drv.c **** {
 305              		.loc 1 686 0
 306              		.cfi_startproc
 307              		@ args = 0, pretend = 0, frame = 0
 308              		@ frame_needed = 0, uses_anonymous_args = 0
 309              		@ link register save eliminated.
 687:Generated_Source\PSoC5/USBUART_1_drv.c ****     USBUART_1_transferState = USBUART_1_TRANS_STATE_NO_DATA_CONTROL;
 310              		.loc 1 687 0
 311 0000 064A     		ldr	r2, .L33
 312 0002 0623     		movs	r3, #6
 313 0004 1370     		strb	r3, [r2]
 688:Generated_Source\PSoC5/USBUART_1_drv.c ****     USBUART_1_ep0Mode       = USBUART_1_MODE_STATUS_IN_ONLY;
 314              		.loc 1 688 0
 315 0006 064A     		ldr	r2, .L33+4
 689:Generated_Source\PSoC5/USBUART_1_drv.c ****     USBUART_1_ep0Toggle     = USBUART_1_EP0_CNT_DATA_TOGGLE;
 690:Generated_Source\PSoC5/USBUART_1_drv.c ****     USBUART_1_ep0Count      = 0u;
 691:Generated_Source\PSoC5/USBUART_1_drv.c **** 
 692:Generated_Source\PSoC5/USBUART_1_drv.c ****     return (USBUART_1_TRUE);
 693:Generated_Source\PSoC5/USBUART_1_drv.c **** }
 316              		.loc 1 693 0
 317 0008 0120     		movs	r0, #1
 688:Generated_Source\PSoC5/USBUART_1_drv.c ****     USBUART_1_ep0Mode       = USBUART_1_MODE_STATUS_IN_ONLY;
 318              		.loc 1 688 0
 319 000a 1370     		strb	r3, [r2]
 689:Generated_Source\PSoC5/USBUART_1_drv.c ****     USBUART_1_ep0Toggle     = USBUART_1_EP0_CNT_DATA_TOGGLE;
 320              		.loc 1 689 0
 321 000c 054B     		ldr	r3, .L33+8
 322 000e 8022     		movs	r2, #128
 323 0010 1A70     		strb	r2, [r3]
 690:Generated_Source\PSoC5/USBUART_1_drv.c **** 
 324              		.loc 1 690 0
ARM GAS  C:\Users\Luggi\AppData\Local\Temp\ccz9dGF6.s 			page 19


 325 0012 054B     		ldr	r3, .L33+12
 326 0014 0022     		movs	r2, #0
 327 0016 1A70     		strb	r2, [r3]
 328              		.loc 1 693 0
 329 0018 7047     		bx	lr
 330              	.L34:
 331 001a 00BF     		.align	2
 332              	.L33:
 333 001c 00000000 		.word	USBUART_1_transferState
 334 0020 00000000 		.word	USBUART_1_ep0Mode
 335 0024 00000000 		.word	USBUART_1_ep0Toggle
 336 0028 00000000 		.word	USBUART_1_ep0Count
 337              		.cfi_endproc
 338              	.LFE12:
 339              		.size	USBUART_1_InitNoDataControlTransfer, .-USBUART_1_InitNoDataControlTransfer
 340              		.section	.text.USBUART_1_UpdateStatusBlock,"ax",%progbits
 341              		.align	1
 342              		.global	USBUART_1_UpdateStatusBlock
 343              		.thumb
 344              		.thumb_func
 345              		.type	USBUART_1_UpdateStatusBlock, %function
 346              	USBUART_1_UpdateStatusBlock:
 347              	.LFB14:
 694:Generated_Source\PSoC5/USBUART_1_drv.c **** 
 695:Generated_Source\PSoC5/USBUART_1_drv.c **** 
 696:Generated_Source\PSoC5/USBUART_1_drv.c **** /*******************************************************************************
 697:Generated_Source\PSoC5/USBUART_1_drv.c **** * Function Name: USBUART_1_NoDataControlStatusStage
 698:Generated_Source\PSoC5/USBUART_1_drv.c **** ****************************************************************************//**
 699:Generated_Source\PSoC5/USBUART_1_drv.c **** *  Handle the Status Stage of a no data control transfer.
 700:Generated_Source\PSoC5/USBUART_1_drv.c **** *
 701:Generated_Source\PSoC5/USBUART_1_drv.c **** *  SET_ADDRESS is special, since we need to receive the status stage with
 702:Generated_Source\PSoC5/USBUART_1_drv.c **** *  the old address.
 703:Generated_Source\PSoC5/USBUART_1_drv.c **** *
 704:Generated_Source\PSoC5/USBUART_1_drv.c **** * \globalvars
 705:Generated_Source\PSoC5/USBUART_1_drv.c **** *  USBUART_1_transferState - set to TRANS_STATE_IDLE.
 706:Generated_Source\PSoC5/USBUART_1_drv.c **** *  USBUART_1_ep0Mode  - set to MODE_STALL_IN_OUT.
 707:Generated_Source\PSoC5/USBUART_1_drv.c **** *  USBUART_1_ep0Toggle - set to EP0_CNT_DATA_TOGGLE
 708:Generated_Source\PSoC5/USBUART_1_drv.c **** *  USBUART_1_deviceAddress - used to set new address and cleared
 709:Generated_Source\PSoC5/USBUART_1_drv.c **** *
 710:Generated_Source\PSoC5/USBUART_1_drv.c **** * \reentrant
 711:Generated_Source\PSoC5/USBUART_1_drv.c **** *  No.
 712:Generated_Source\PSoC5/USBUART_1_drv.c **** *
 713:Generated_Source\PSoC5/USBUART_1_drv.c **** *******************************************************************************/
 714:Generated_Source\PSoC5/USBUART_1_drv.c **** void USBUART_1_NoDataControlStatusStage(void) 
 715:Generated_Source\PSoC5/USBUART_1_drv.c **** {
 716:Generated_Source\PSoC5/USBUART_1_drv.c ****     if (0u != USBUART_1_deviceAddress)
 717:Generated_Source\PSoC5/USBUART_1_drv.c ****     {
 718:Generated_Source\PSoC5/USBUART_1_drv.c ****         /* Update device address if we got new address. */
 719:Generated_Source\PSoC5/USBUART_1_drv.c ****         USBUART_1_CR0_REG = (uint8) USBUART_1_deviceAddress | USBUART_1_CR0_ENABLE;
 720:Generated_Source\PSoC5/USBUART_1_drv.c ****         USBUART_1_deviceAddress = 0u;
 721:Generated_Source\PSoC5/USBUART_1_drv.c ****     }
 722:Generated_Source\PSoC5/USBUART_1_drv.c **** 
 723:Generated_Source\PSoC5/USBUART_1_drv.c ****     USBUART_1_transferState = USBUART_1_TRANS_STATE_IDLE;
 724:Generated_Source\PSoC5/USBUART_1_drv.c ****     
 725:Generated_Source\PSoC5/USBUART_1_drv.c ****     /* Update the completion block. */
 726:Generated_Source\PSoC5/USBUART_1_drv.c ****     USBUART_1_UpdateStatusBlock(USBUART_1_XFER_STATUS_ACK);
 727:Generated_Source\PSoC5/USBUART_1_drv.c ****     
ARM GAS  C:\Users\Luggi\AppData\Local\Temp\ccz9dGF6.s 			page 20


 728:Generated_Source\PSoC5/USBUART_1_drv.c ****     /* Stall IN and OUT, no more data is expected. */
 729:Generated_Source\PSoC5/USBUART_1_drv.c ****     USBUART_1_ep0Mode = USBUART_1_MODE_STALL_IN_OUT;
 730:Generated_Source\PSoC5/USBUART_1_drv.c **** }
 731:Generated_Source\PSoC5/USBUART_1_drv.c **** 
 732:Generated_Source\PSoC5/USBUART_1_drv.c **** 
 733:Generated_Source\PSoC5/USBUART_1_drv.c **** /*******************************************************************************
 734:Generated_Source\PSoC5/USBUART_1_drv.c **** * Function Name: USBUART_1_UpdateStatusBlock
 735:Generated_Source\PSoC5/USBUART_1_drv.c **** ****************************************************************************//**
 736:Generated_Source\PSoC5/USBUART_1_drv.c **** *
 737:Generated_Source\PSoC5/USBUART_1_drv.c **** *  Update the Completion Status Block for a Request.  The block is updated
 738:Generated_Source\PSoC5/USBUART_1_drv.c **** *  with the completion code the USBUART_1_transferByteCount.  The
 739:Generated_Source\PSoC5/USBUART_1_drv.c **** *  StatusBlock Pointer is set to NULL.
 740:Generated_Source\PSoC5/USBUART_1_drv.c **** *
 741:Generated_Source\PSoC5/USBUART_1_drv.c **** *  completionCode - status.
 742:Generated_Source\PSoC5/USBUART_1_drv.c **** *
 743:Generated_Source\PSoC5/USBUART_1_drv.c **** *
 744:Generated_Source\PSoC5/USBUART_1_drv.c **** * \globalvars
 745:Generated_Source\PSoC5/USBUART_1_drv.c **** *  USBUART_1_currentTD.pStatusBlock->status - updated by the
 746:Generated_Source\PSoC5/USBUART_1_drv.c **** *    completionCode parameter.
 747:Generated_Source\PSoC5/USBUART_1_drv.c **** *  USBUART_1_currentTD.pStatusBlock->length - updated.
 748:Generated_Source\PSoC5/USBUART_1_drv.c **** *  USBUART_1_currentTD.pStatusBlock - cleared.
 749:Generated_Source\PSoC5/USBUART_1_drv.c **** *
 750:Generated_Source\PSoC5/USBUART_1_drv.c **** * \reentrant
 751:Generated_Source\PSoC5/USBUART_1_drv.c **** *  No.
 752:Generated_Source\PSoC5/USBUART_1_drv.c **** *
 753:Generated_Source\PSoC5/USBUART_1_drv.c **** *******************************************************************************/
 754:Generated_Source\PSoC5/USBUART_1_drv.c **** void USBUART_1_UpdateStatusBlock(uint8 completionCode) 
 755:Generated_Source\PSoC5/USBUART_1_drv.c **** {
 348              		.loc 1 755 0
 349              		.cfi_startproc
 350              		@ args = 0, pretend = 0, frame = 0
 351              		@ frame_needed = 0, uses_anonymous_args = 0
 352              		@ link register save eliminated.
 353              	.LVL18:
 756:Generated_Source\PSoC5/USBUART_1_drv.c ****     if (USBUART_1_currentTD.pStatusBlock != NULL)
 354              		.loc 1 756 0
 355 0000 054B     		ldr	r3, .L40
 356 0002 9A68     		ldr	r2, [r3, #8]
 357 0004 3AB1     		cbz	r2, .L35
 757:Generated_Source\PSoC5/USBUART_1_drv.c ****     {
 758:Generated_Source\PSoC5/USBUART_1_drv.c ****         USBUART_1_currentTD.pStatusBlock->status = completionCode;
 358              		.loc 1 758 0
 359 0006 9A68     		ldr	r2, [r3, #8]
 759:Generated_Source\PSoC5/USBUART_1_drv.c ****         USBUART_1_currentTD.pStatusBlock->length = USBUART_1_transferByteCount;
 360              		.loc 1 759 0
 361 0008 0449     		ldr	r1, .L40+4
 758:Generated_Source\PSoC5/USBUART_1_drv.c ****         USBUART_1_currentTD.pStatusBlock->length = USBUART_1_transferByteCount;
 362              		.loc 1 758 0
 363 000a 1070     		strb	r0, [r2]
 364              		.loc 1 759 0
 365 000c 9A68     		ldr	r2, [r3, #8]
 366 000e 0988     		ldrh	r1, [r1]
 367 0010 5180     		strh	r1, [r2, #2]	@ movhi
 760:Generated_Source\PSoC5/USBUART_1_drv.c ****         USBUART_1_currentTD.pStatusBlock = NULL;
 368              		.loc 1 760 0
 369 0012 0022     		movs	r2, #0
 370 0014 9A60     		str	r2, [r3, #8]
ARM GAS  C:\Users\Luggi\AppData\Local\Temp\ccz9dGF6.s 			page 21


 371              	.L35:
 372 0016 7047     		bx	lr
 373              	.L41:
 374              		.align	2
 375              	.L40:
 376 0018 00000000 		.word	USBUART_1_currentTD
 377 001c 00000000 		.word	USBUART_1_transferByteCount
 378              		.cfi_endproc
 379              	.LFE14:
 380              		.size	USBUART_1_UpdateStatusBlock, .-USBUART_1_UpdateStatusBlock
 381              		.section	.text.USBUART_1_HandleSetup,"ax",%progbits
 382              		.align	1
 383              		.global	USBUART_1_HandleSetup
 384              		.thumb
 385              		.thumb_func
 386              		.type	USBUART_1_HandleSetup, %function
 387              	USBUART_1_HandleSetup:
 388              	.LFB1:
 199:Generated_Source\PSoC5/USBUART_1_drv.c ****     uint8 requestHandled;
 389              		.loc 1 199 0
 390              		.cfi_startproc
 391              		@ args = 0, pretend = 0, frame = 0
 392              		@ frame_needed = 0, uses_anonymous_args = 0
 393 0000 08B5     		push	{r3, lr}
 394              		.cfi_def_cfa_offset 8
 395              		.cfi_offset 3, -8
 396              		.cfi_offset 14, -4
 205:Generated_Source\PSoC5/USBUART_1_drv.c ****     USBUART_1_EP0_CR_REG = (uint8) requestHandled;
 397              		.loc 1 205 0
 398 0002 124B     		ldr	r3, .L50
 399 0004 1A78     		ldrb	r2, [r3]	@ zero_extendqisi2
 400 0006 D2B2     		uxtb	r2, r2
 401              	.LVL19:
 206:Generated_Source\PSoC5/USBUART_1_drv.c ****     requestHandled = (uint8) USBUART_1_EP0_CR_REG;
 402              		.loc 1 206 0
 403 0008 1A70     		strb	r2, [r3]
 207:Generated_Source\PSoC5/USBUART_1_drv.c **** 
 404              		.loc 1 207 0
 405 000a 1B78     		ldrb	r3, [r3]	@ zero_extendqisi2
 406 000c DBB2     		uxtb	r3, r3
 407              	.LVL20:
 209:Generated_Source\PSoC5/USBUART_1_drv.c ****     {
 408              		.loc 1 209 0
 409 000e 1A06     		lsls	r2, r3, #24
 410 0010 02D5     		bpl	.L43
 212:Generated_Source\PSoC5/USBUART_1_drv.c ****     }
 411              		.loc 1 212 0
 412 0012 0F4A     		ldr	r2, .L50+4
 413 0014 1370     		strb	r3, [r2]
 414 0016 08BD     		pop	{r3, pc}
 415              	.LVL21:
 416              	.L43:
 417              	.LBB6:
 418              	.LBB7:
 217:Generated_Source\PSoC5/USBUART_1_drv.c **** 
 419              		.loc 1 217 0
 420 0018 0220     		movs	r0, #2
ARM GAS  C:\Users\Luggi\AppData\Local\Temp\ccz9dGF6.s 			page 22


 421 001a FFF7FEFF 		bl	USBUART_1_UpdateStatusBlock
 422              	.LVL22:
 220:Generated_Source\PSoC5/USBUART_1_drv.c ****         {
 423              		.loc 1 220 0
 424 001e 0D4B     		ldr	r3, .L50+8
 425 0020 1B78     		ldrb	r3, [r3]	@ zero_extendqisi2
 426 0022 03F06003 		and	r3, r3, #96
 427 0026 202B     		cmp	r3, #32
 428 0028 05D0     		beq	.L46
 429 002a 402B     		cmp	r3, #64
 430 002c 06D0     		beq	.L47
 431 002e 43B9     		cbnz	r3, .L45
 223:Generated_Source\PSoC5/USBUART_1_drv.c ****                 break;
 432              		.loc 1 223 0
 433 0030 FFF7FEFF 		bl	USBUART_1_HandleStandardRqst
 434              	.LVL23:
 435 0034 04E0     		b	.L49
 436              	.LVL24:
 437              	.L46:
 227:Generated_Source\PSoC5/USBUART_1_drv.c ****                 break;
 438              		.loc 1 227 0
 439 0036 FFF7FEFF 		bl	USBUART_1_DispatchClassRqst
 440              	.LVL25:
 441 003a 01E0     		b	.L49
 442              	.LVL26:
 443              	.L47:
 231:Generated_Source\PSoC5/USBUART_1_drv.c ****                 break;
 444              		.loc 1 231 0
 445 003c FFF7FEFF 		bl	USBUART_1_HandleVendorRqst
 446              	.LVL27:
 447              	.L49:
 240:Generated_Source\PSoC5/USBUART_1_drv.c ****         {
 448              		.loc 1 240 0
 449 0040 10B9     		cbnz	r0, .L42
 450              	.LVL28:
 451              	.L45:
 242:Generated_Source\PSoC5/USBUART_1_drv.c ****         }
 452              		.loc 1 242 0
 453 0042 034B     		ldr	r3, .L50+4
 454 0044 0322     		movs	r2, #3
 455 0046 1A70     		strb	r2, [r3]
 456              	.L42:
 457 0048 08BD     		pop	{r3, pc}
 458              	.L51:
 459 004a 00BF     		.align	2
 460              	.L50:
 461 004c 28600040 		.word	1073766440
 462 0050 00000000 		.word	USBUART_1_ep0Mode
 463 0054 00600040 		.word	1073766400
 464              	.LBE7:
 465              	.LBE6:
 466              		.cfi_endproc
 467              	.LFE1:
 468              		.size	USBUART_1_HandleSetup, .-USBUART_1_HandleSetup
 469              		.section	.text.USBUART_1_ControlReadStatusStage,"ax",%progbits
 470              		.align	1
 471              		.global	USBUART_1_ControlReadStatusStage
ARM GAS  C:\Users\Luggi\AppData\Local\Temp\ccz9dGF6.s 			page 23


 472              		.thumb
 473              		.thumb_func
 474              		.type	USBUART_1_ControlReadStatusStage, %function
 475              	USBUART_1_ControlReadStatusStage:
 476              	.LFB8:
 527:Generated_Source\PSoC5/USBUART_1_drv.c ****     /* Update the transfer byte count */
 477              		.loc 1 527 0
 478              		.cfi_startproc
 479              		@ args = 0, pretend = 0, frame = 0
 480              		@ frame_needed = 0, uses_anonymous_args = 0
 481 0000 08B5     		push	{r3, lr}
 482              		.cfi_def_cfa_offset 8
 483              		.cfi_offset 3, -8
 484              		.cfi_offset 14, -4
 529:Generated_Source\PSoC5/USBUART_1_drv.c ****     
 485              		.loc 1 529 0
 486 0002 084A     		ldr	r2, .L53
 487 0004 084B     		ldr	r3, .L53+4
 535:Generated_Source\PSoC5/USBUART_1_drv.c ****     
 488              		.loc 1 535 0
 489 0006 0120     		movs	r0, #1
 529:Generated_Source\PSoC5/USBUART_1_drv.c ****     
 490              		.loc 1 529 0
 491 0008 1978     		ldrb	r1, [r3]	@ zero_extendqisi2
 492 000a 1388     		ldrh	r3, [r2]
 493 000c 0B44     		add	r3, r3, r1
 494 000e 9BB2     		uxth	r3, r3
 495 0010 1380     		strh	r3, [r2]	@ movhi
 532:Generated_Source\PSoC5/USBUART_1_drv.c ****     
 496              		.loc 1 532 0
 497 0012 064B     		ldr	r3, .L53+8
 498 0014 0022     		movs	r2, #0
 499 0016 1A70     		strb	r2, [r3]
 535:Generated_Source\PSoC5/USBUART_1_drv.c ****     
 500              		.loc 1 535 0
 501 0018 FFF7FEFF 		bl	USBUART_1_UpdateStatusBlock
 502              	.LVL29:
 538:Generated_Source\PSoC5/USBUART_1_drv.c **** }
 503              		.loc 1 538 0
 504 001c 044B     		ldr	r3, .L53+12
 505 001e 0322     		movs	r2, #3
 506 0020 1A70     		strb	r2, [r3]
 507 0022 08BD     		pop	{r3, pc}
 508              	.L54:
 509              		.align	2
 510              	.L53:
 511 0024 00000000 		.word	USBUART_1_transferByteCount
 512 0028 00000000 		.word	USBUART_1_lastPacketSize
 513 002c 00000000 		.word	USBUART_1_transferState
 514 0030 00000000 		.word	USBUART_1_ep0Mode
 515              		.cfi_endproc
 516              	.LFE8:
 517              		.size	USBUART_1_ControlReadStatusStage, .-USBUART_1_ControlReadStatusStage
 518              		.section	.text.USBUART_1_HandleOUT,"ax",%progbits
 519              		.align	1
 520              		.global	USBUART_1_HandleOUT
 521              		.thumb
ARM GAS  C:\Users\Luggi\AppData\Local\Temp\ccz9dGF6.s 			page 24


 522              		.thumb_func
 523              		.type	USBUART_1_HandleOUT, %function
 524              	USBUART_1_HandleOUT:
 525              	.LFB3:
 296:Generated_Source\PSoC5/USBUART_1_drv.c ****     switch (USBUART_1_transferState)
 526              		.loc 1 296 0
 527              		.cfi_startproc
 528              		@ args = 0, pretend = 0, frame = 0
 529              		@ frame_needed = 0, uses_anonymous_args = 0
 530 0000 08B5     		push	{r3, lr}
 531              		.cfi_def_cfa_offset 8
 532              		.cfi_offset 3, -8
 533              		.cfi_offset 14, -4
 297:Generated_Source\PSoC5/USBUART_1_drv.c ****     {
 534              		.loc 1 297 0
 535 0002 0C4B     		ldr	r3, .L60
 536 0004 1B78     		ldrb	r3, [r3]	@ zero_extendqisi2
 537 0006 DBB2     		uxtb	r3, r3
 538 0008 042B     		cmp	r3, #4
 539 000a 07D0     		beq	.L57
 540 000c 062B     		cmp	r3, #6
 541 000e 09D0     		beq	.L58
 542 0010 022B     		cmp	r3, #2
 543 0012 0DD1     		bne	.L55
 322:Generated_Source\PSoC5/USBUART_1_drv.c **** 
 544              		.loc 1 322 0
 545 0014 BDE80840 		pop	{r3, lr}
 546              		.cfi_remember_state
 547              		.cfi_restore 14
 548              		.cfi_restore 3
 549              		.cfi_def_cfa_offset 0
 303:Generated_Source\PSoC5/USBUART_1_drv.c ****             break;
 550              		.loc 1 303 0
 551 0018 FFF7FEBF 		b	USBUART_1_ControlReadStatusStage
 552              	.LVL30:
 553              	.L57:
 554              		.cfi_restore_state
 322:Generated_Source\PSoC5/USBUART_1_drv.c **** 
 555              		.loc 1 322 0
 556 001c BDE80840 		pop	{r3, lr}
 557              		.cfi_remember_state
 558              		.cfi_restore 14
 559              		.cfi_restore 3
 560              		.cfi_def_cfa_offset 0
 307:Generated_Source\PSoC5/USBUART_1_drv.c ****             break;
 561              		.loc 1 307 0
 562 0020 FFF7FEBF 		b	USBUART_1_ControlWriteDataStage
 563              	.LVL31:
 564              	.L58:
 565              		.cfi_restore_state
 566              	.LBB10:
 567              	.LBB11:
 312:Generated_Source\PSoC5/USBUART_1_drv.c ****             
 568              		.loc 1 312 0
 569 0024 0320     		movs	r0, #3
 570 0026 FFF7FEFF 		bl	USBUART_1_UpdateStatusBlock
 571              	.LVL32:
ARM GAS  C:\Users\Luggi\AppData\Local\Temp\ccz9dGF6.s 			page 25


 315:Generated_Source\PSoC5/USBUART_1_drv.c ****             break;
 572              		.loc 1 315 0
 573 002a 034B     		ldr	r3, .L60+4
 574 002c 0322     		movs	r2, #3
 575 002e 1A70     		strb	r2, [r3]
 576              	.L55:
 577 0030 08BD     		pop	{r3, pc}
 578              	.L61:
 579 0032 00BF     		.align	2
 580              	.L60:
 581 0034 00000000 		.word	USBUART_1_transferState
 582 0038 00000000 		.word	USBUART_1_ep0Mode
 583              	.LBE11:
 584              	.LBE10:
 585              		.cfi_endproc
 586              	.LFE3:
 587              		.size	USBUART_1_HandleOUT, .-USBUART_1_HandleOUT
 588              		.section	.text.USBUART_1_ControlWriteStatusStage,"ax",%progbits
 589              		.align	1
 590              		.global	USBUART_1_ControlWriteStatusStage
 591              		.thumb
 592              		.thumb_func
 593              		.type	USBUART_1_ControlWriteStatusStage, %function
 594              	USBUART_1_ControlWriteStatusStage:
 595              	.LFB11:
 654:Generated_Source\PSoC5/USBUART_1_drv.c ****     /* Go Idle */
 596              		.loc 1 654 0
 597              		.cfi_startproc
 598              		@ args = 0, pretend = 0, frame = 0
 599              		@ frame_needed = 0, uses_anonymous_args = 0
 600 0000 08B5     		push	{r3, lr}
 601              		.cfi_def_cfa_offset 8
 602              		.cfi_offset 3, -8
 603              		.cfi_offset 14, -4
 656:Generated_Source\PSoC5/USBUART_1_drv.c ****     
 604              		.loc 1 656 0
 605 0002 054B     		ldr	r3, .L63
 606 0004 0022     		movs	r2, #0
 659:Generated_Source\PSoC5/USBUART_1_drv.c ****     
 607              		.loc 1 659 0
 608 0006 0120     		movs	r0, #1
 656:Generated_Source\PSoC5/USBUART_1_drv.c ****     
 609              		.loc 1 656 0
 610 0008 1A70     		strb	r2, [r3]
 659:Generated_Source\PSoC5/USBUART_1_drv.c ****     
 611              		.loc 1 659 0
 612 000a FFF7FEFF 		bl	USBUART_1_UpdateStatusBlock
 613              	.LVL33:
 662:Generated_Source\PSoC5/USBUART_1_drv.c **** }
 614              		.loc 1 662 0
 615 000e 034B     		ldr	r3, .L63+4
 616 0010 0322     		movs	r2, #3
 617 0012 1A70     		strb	r2, [r3]
 618 0014 08BD     		pop	{r3, pc}
 619              	.L64:
 620 0016 00BF     		.align	2
 621              	.L63:
ARM GAS  C:\Users\Luggi\AppData\Local\Temp\ccz9dGF6.s 			page 26


 622 0018 00000000 		.word	USBUART_1_transferState
 623 001c 00000000 		.word	USBUART_1_ep0Mode
 624              		.cfi_endproc
 625              	.LFE11:
 626              		.size	USBUART_1_ControlWriteStatusStage, .-USBUART_1_ControlWriteStatusStage
 627              		.section	.text.USBUART_1_NoDataControlStatusStage,"ax",%progbits
 628              		.align	1
 629              		.global	USBUART_1_NoDataControlStatusStage
 630              		.thumb
 631              		.thumb_func
 632              		.type	USBUART_1_NoDataControlStatusStage, %function
 633              	USBUART_1_NoDataControlStatusStage:
 634              	.LFB13:
 715:Generated_Source\PSoC5/USBUART_1_drv.c ****     if (0u != USBUART_1_deviceAddress)
 635              		.loc 1 715 0
 636              		.cfi_startproc
 637              		@ args = 0, pretend = 0, frame = 0
 638              		@ frame_needed = 0, uses_anonymous_args = 0
 639 0000 08B5     		push	{r3, lr}
 640              		.cfi_def_cfa_offset 8
 641              		.cfi_offset 3, -8
 642              		.cfi_offset 14, -4
 716:Generated_Source\PSoC5/USBUART_1_drv.c ****     {
 643              		.loc 1 716 0
 644 0002 0A4B     		ldr	r3, .L70
 645 0004 1A78     		ldrb	r2, [r3]	@ zero_extendqisi2
 646 0006 32B1     		cbz	r2, .L66
 719:Generated_Source\PSoC5/USBUART_1_drv.c ****         USBUART_1_deviceAddress = 0u;
 647              		.loc 1 719 0
 648 0008 1A78     		ldrb	r2, [r3]	@ zero_extendqisi2
 649 000a 0949     		ldr	r1, .L70+4
 650 000c 42F08002 		orr	r2, r2, #128
 651 0010 0A70     		strb	r2, [r1]
 720:Generated_Source\PSoC5/USBUART_1_drv.c ****     }
 652              		.loc 1 720 0
 653 0012 0022     		movs	r2, #0
 654 0014 1A70     		strb	r2, [r3]
 655              	.L66:
 723:Generated_Source\PSoC5/USBUART_1_drv.c ****     
 656              		.loc 1 723 0
 657 0016 074B     		ldr	r3, .L70+8
 658 0018 0022     		movs	r2, #0
 726:Generated_Source\PSoC5/USBUART_1_drv.c ****     
 659              		.loc 1 726 0
 660 001a 0120     		movs	r0, #1
 723:Generated_Source\PSoC5/USBUART_1_drv.c ****     
 661              		.loc 1 723 0
 662 001c 1A70     		strb	r2, [r3]
 726:Generated_Source\PSoC5/USBUART_1_drv.c ****     
 663              		.loc 1 726 0
 664 001e FFF7FEFF 		bl	USBUART_1_UpdateStatusBlock
 665              	.LVL34:
 729:Generated_Source\PSoC5/USBUART_1_drv.c **** }
 666              		.loc 1 729 0
 667 0022 054B     		ldr	r3, .L70+12
 668 0024 0322     		movs	r2, #3
 669 0026 1A70     		strb	r2, [r3]
ARM GAS  C:\Users\Luggi\AppData\Local\Temp\ccz9dGF6.s 			page 27


 670 0028 08BD     		pop	{r3, pc}
 671              	.L71:
 672 002a 00BF     		.align	2
 673              	.L70:
 674 002c 00000000 		.word	USBUART_1_deviceAddress
 675 0030 08600040 		.word	1073766408
 676 0034 00000000 		.word	USBUART_1_transferState
 677 0038 00000000 		.word	USBUART_1_ep0Mode
 678              		.cfi_endproc
 679              	.LFE13:
 680              		.size	USBUART_1_NoDataControlStatusStage, .-USBUART_1_NoDataControlStatusStage
 681              		.section	.text.USBUART_1_HandleIN,"ax",%progbits
 682              		.align	1
 683              		.global	USBUART_1_HandleIN
 684              		.thumb
 685              		.thumb_func
 686              		.type	USBUART_1_HandleIN, %function
 687              	USBUART_1_HandleIN:
 688              	.LFB2:
 260:Generated_Source\PSoC5/USBUART_1_drv.c ****     switch (USBUART_1_transferState)
 689              		.loc 1 260 0
 690              		.cfi_startproc
 691              		@ args = 0, pretend = 0, frame = 0
 692              		@ frame_needed = 0, uses_anonymous_args = 0
 693              		@ link register save eliminated.
 261:Generated_Source\PSoC5/USBUART_1_drv.c ****     {
 694              		.loc 1 261 0
 695 0000 074B     		ldr	r3, .L78
 696 0002 1B78     		ldrb	r3, [r3]	@ zero_extendqisi2
 697 0004 DBB2     		uxtb	r3, r3
 698 0006 042B     		cmp	r3, #4
 699 0008 05D0     		beq	.L74
 700 000a 062B     		cmp	r3, #6
 701 000c 05D0     		beq	.L75
 702 000e 022B     		cmp	r3, #2
 703 0010 05D1     		bne	.L77
 704              	.LBB12:
 705              	.LBB13:
 506:Generated_Source\PSoC5/USBUART_1_drv.c **** }
 706              		.loc 1 506 0
 707 0012 FFF7FEBF 		b	USBUART_1_LoadEP0
 708              	.LVL35:
 709              	.L74:
 710              	.LBE13:
 711              	.LBE12:
 271:Generated_Source\PSoC5/USBUART_1_drv.c ****             break;
 712              		.loc 1 271 0
 713 0016 FFF7FEBF 		b	USBUART_1_ControlWriteStatusStage
 714              	.LVL36:
 715              	.L75:
 275:Generated_Source\PSoC5/USBUART_1_drv.c ****             break;
 716              		.loc 1 275 0
 717 001a FFF7FEBF 		b	USBUART_1_NoDataControlStatusStage
 718              	.LVL37:
 719              	.L77:
 720 001e 7047     		bx	lr
 721              	.L79:
ARM GAS  C:\Users\Luggi\AppData\Local\Temp\ccz9dGF6.s 			page 28


 722              		.align	2
 723              	.L78:
 724 0020 00000000 		.word	USBUART_1_transferState
 725              		.cfi_endproc
 726              	.LFE2:
 727              		.size	USBUART_1_HandleIN, .-USBUART_1_HandleIN
 728              		.section	.text.USBUART_1_EP_0_ISR,"ax",%progbits
 729              		.align	1
 730              		.global	USBUART_1_EP_0_ISR
 731              		.thumb
 732              		.thumb_func
 733              		.type	USBUART_1_EP_0_ISR, %function
 734              	USBUART_1_EP_0_ISR:
 735              	.LFB0:
  95:Generated_Source\PSoC5/USBUART_1_drv.c ****     uint8 tempReg;
 736              		.loc 1 95 0
 737              		.cfi_startproc
 738              		@ args = 0, pretend = 0, frame = 0
 739              		@ frame_needed = 0, uses_anonymous_args = 0
 740 0000 10B5     		push	{r4, lr}
 741              		.cfi_def_cfa_offset 8
 742              		.cfi_offset 4, -8
 743              		.cfi_offset 14, -4
 103:Generated_Source\PSoC5/USBUART_1_drv.c ****     if ((tempReg & USBUART_1_MODE_ACKD) != 0u)
 744              		.loc 1 103 0
 745 0002 1D4C     		ldr	r4, .L96
 746 0004 2378     		ldrb	r3, [r4]	@ zero_extendqisi2
 747 0006 DBB2     		uxtb	r3, r3
 748              	.LVL38:
 104:Generated_Source\PSoC5/USBUART_1_drv.c ****     {
 749              		.loc 1 104 0
 750 0008 DA06     		lsls	r2, r3, #27
 751 000a 34D5     		bpl	.L80
 752              	.LVL39:
 107:Generated_Source\PSoC5/USBUART_1_drv.c ****         {
 753              		.loc 1 107 0
 754 000c 1806     		lsls	r0, r3, #24
 755 000e 0AD5     		bpl	.L83
 109:Generated_Source\PSoC5/USBUART_1_drv.c ****             {
 756              		.loc 1 109 0
 757 0010 03F00F03 		and	r3, r3, #15
 758              	.LVL40:
 759 0014 012B     		cmp	r3, #1
 760 0016 2ED1     		bne	.L80
 116:Generated_Source\PSoC5/USBUART_1_drv.c ****                 
 761              		.loc 1 116 0
 762 0018 FFF7FEFF 		bl	USBUART_1_HandleSetup
 763              	.LVL41:
 118:Generated_Source\PSoC5/USBUART_1_drv.c ****                 {
 764              		.loc 1 118 0
 765 001c 174B     		ldr	r3, .L96+4
 766 001e 1B78     		ldrb	r3, [r3]	@ zero_extendqisi2
 767 0020 1906     		lsls	r1, r3, #24
 768 0022 09D5     		bpl	.L85
 769 0024 10BD     		pop	{r4, pc}
 770              	.LVL42:
 771              	.L83:
ARM GAS  C:\Users\Luggi\AppData\Local\Temp\ccz9dGF6.s 			page 29


 125:Generated_Source\PSoC5/USBUART_1_drv.c ****         {
 772              		.loc 1 125 0
 773 0026 5A06     		lsls	r2, r3, #25
 774 0028 02D5     		bpl	.L86
 127:Generated_Source\PSoC5/USBUART_1_drv.c ****         }
 775              		.loc 1 127 0
 776 002a FFF7FEFF 		bl	USBUART_1_HandleIN
 777              	.LVL43:
 778 002e 03E0     		b	.L85
 779              	.LVL44:
 780              	.L86:
 129:Generated_Source\PSoC5/USBUART_1_drv.c ****         {
 781              		.loc 1 129 0
 782 0030 9B06     		lsls	r3, r3, #26
 783              	.LVL45:
 784 0032 20D5     		bpl	.L80
 131:Generated_Source\PSoC5/USBUART_1_drv.c ****         }
 785              		.loc 1 131 0
 786 0034 FFF7FEFF 		bl	USBUART_1_HandleOUT
 787              	.LVL46:
 788              	.L85:
 142:Generated_Source\PSoC5/USBUART_1_drv.c ****             
 789              		.loc 1 142 0
 790 0038 2378     		ldrb	r3, [r4]	@ zero_extendqisi2
 791              	.LVL47:
 145:Generated_Source\PSoC5/USBUART_1_drv.c ****             {
 792              		.loc 1 145 0
 793 003a 1B06     		lsls	r3, r3, #24
 794              	.LVL48:
 795 003c 1BD4     		bmi	.L80
 148:Generated_Source\PSoC5/USBUART_1_drv.c ****                 USBUART_1_EP0_CNT_REG = tempReg;
 796              		.loc 1 148 0
 797 003e 104B     		ldr	r3, .L96+8
 798 0040 104A     		ldr	r2, .L96+12
 799 0042 1B78     		ldrb	r3, [r3]	@ zero_extendqisi2
 800 0044 1278     		ldrb	r2, [r2]	@ zero_extendqisi2
 801 0046 1343     		orrs	r3, r3, r2
 802              	.LVL49:
 149:Generated_Source\PSoC5/USBUART_1_drv.c ****                
 803              		.loc 1 149 0
 804 0048 0F4A     		ldr	r2, .L96+16
 805 004a 1370     		strb	r3, [r2]
 152:Generated_Source\PSoC5/USBUART_1_drv.c ****                 {
 806              		.loc 1 152 0
 807 004c 1278     		ldrb	r2, [r2]	@ zero_extendqisi2
 808 004e 9342     		cmp	r3, r2
 809 0050 11D1     		bne	.L80
 810              	.LVL50:
 811              	.L93:
 158:Generated_Source\PSoC5/USBUART_1_drv.c ****                         
 812              		.loc 1 158 0
 813 0052 0A4A     		ldr	r2, .L96+4
 161:Generated_Source\PSoC5/USBUART_1_drv.c ****                         
 814              		.loc 1 161 0
 815 0054 0849     		ldr	r1, .L96
 158:Generated_Source\PSoC5/USBUART_1_drv.c ****                         
 816              		.loc 1 158 0
ARM GAS  C:\Users\Luggi\AppData\Local\Temp\ccz9dGF6.s 			page 30


 817 0056 1378     		ldrb	r3, [r2]	@ zero_extendqisi2
 161:Generated_Source\PSoC5/USBUART_1_drv.c ****                         
 818              		.loc 1 161 0
 819 0058 2078     		ldrb	r0, [r4]	@ zero_extendqisi2
 158:Generated_Source\PSoC5/USBUART_1_drv.c ****                         
 820              		.loc 1 158 0
 821 005a DBB2     		uxtb	r3, r3
 822              	.LVL51:
 164:Generated_Source\PSoC5/USBUART_1_drv.c ****                         {
 823              		.loc 1 164 0
 824 005c 0006     		lsls	r0, r0, #24
 825              	.LVL52:
 167:Generated_Source\PSoC5/USBUART_1_drv.c ****                             
 826              		.loc 1 167 0
 827 005e 5FBF     		itttt	pl
 828 0060 1378     		ldrbpl	r3, [r2]	@ zero_extendqisi2
 829              	.LVL53:
 830 0062 DBB2     		uxtbpl	r3, r3
 831 0064 0B70     		strbpl	r3, [r1]
 170:Generated_Source\PSoC5/USBUART_1_drv.c ****                         }
 832              		.loc 1 170 0
 833 0066 0B78     		ldrbpl	r3, [r1]	@ zero_extendqisi2
 173:Generated_Source\PSoC5/USBUART_1_drv.c ****                 }
 834              		.loc 1 173 0
 835 0068 1278     		ldrb	r2, [r2]	@ zero_extendqisi2
 170:Generated_Source\PSoC5/USBUART_1_drv.c ****                         }
 836              		.loc 1 170 0
 837 006a 58BF     		it	pl
 838 006c 03F00F03 		andpl	r3, r3, #15
 839              	.LVL54:
 173:Generated_Source\PSoC5/USBUART_1_drv.c ****                 }
 840              		.loc 1 173 0
 841 0070 9342     		cmp	r3, r2
 842 0072 EED1     		bne	.L93
 843 0074 10BD     		pop	{r4, pc}
 844              	.LVL55:
 845              	.L80:
 846 0076 10BD     		pop	{r4, pc}
 847              	.L97:
 848              		.align	2
 849              	.L96:
 850 0078 28600040 		.word	1073766440
 851 007c 00000000 		.word	USBUART_1_ep0Mode
 852 0080 00000000 		.word	USBUART_1_ep0Toggle
 853 0084 00000000 		.word	USBUART_1_ep0Count
 854 0088 29600040 		.word	1073766441
 855              		.cfi_endproc
 856              	.LFE0:
 857              		.size	USBUART_1_EP_0_ISR, .-USBUART_1_EP_0_ISR
 858              		.section	.text.USBUART_1_InitializeStatusBlock,"ax",%progbits
 859              		.align	1
 860              		.global	USBUART_1_InitializeStatusBlock
 861              		.thumb
 862              		.thumb_func
 863              		.type	USBUART_1_InitializeStatusBlock, %function
 864              	USBUART_1_InitializeStatusBlock:
 865              	.LFB15:
ARM GAS  C:\Users\Luggi\AppData\Local\Temp\ccz9dGF6.s 			page 31


 761:Generated_Source\PSoC5/USBUART_1_drv.c ****     }
 762:Generated_Source\PSoC5/USBUART_1_drv.c **** }
 763:Generated_Source\PSoC5/USBUART_1_drv.c **** 
 764:Generated_Source\PSoC5/USBUART_1_drv.c **** 
 765:Generated_Source\PSoC5/USBUART_1_drv.c **** /*******************************************************************************
 766:Generated_Source\PSoC5/USBUART_1_drv.c **** * Function Name: USBUART_1_InitializeStatusBlock
 767:Generated_Source\PSoC5/USBUART_1_drv.c **** ****************************************************************************//**
 768:Generated_Source\PSoC5/USBUART_1_drv.c **** *
 769:Generated_Source\PSoC5/USBUART_1_drv.c **** *  Initialize the Completion Status Block for a Request.  The completion
 770:Generated_Source\PSoC5/USBUART_1_drv.c **** *  code is set to USB_XFER_IDLE.
 771:Generated_Source\PSoC5/USBUART_1_drv.c **** *
 772:Generated_Source\PSoC5/USBUART_1_drv.c **** *  Also, initializes USBUART_1_transferByteCount.  Save some space,
 773:Generated_Source\PSoC5/USBUART_1_drv.c **** *  this is the only consumer.
 774:Generated_Source\PSoC5/USBUART_1_drv.c **** *
 775:Generated_Source\PSoC5/USBUART_1_drv.c **** * \globalvars
 776:Generated_Source\PSoC5/USBUART_1_drv.c **** *  USBUART_1_currentTD.pStatusBlock->status - set to XFER_IDLE.
 777:Generated_Source\PSoC5/USBUART_1_drv.c **** *  USBUART_1_currentTD.pStatusBlock->length - cleared.
 778:Generated_Source\PSoC5/USBUART_1_drv.c **** *  USBUART_1_transferByteCount - cleared.
 779:Generated_Source\PSoC5/USBUART_1_drv.c **** *
 780:Generated_Source\PSoC5/USBUART_1_drv.c **** * \reentrant
 781:Generated_Source\PSoC5/USBUART_1_drv.c **** *  No.
 782:Generated_Source\PSoC5/USBUART_1_drv.c **** *
 783:Generated_Source\PSoC5/USBUART_1_drv.c **** *******************************************************************************/
 784:Generated_Source\PSoC5/USBUART_1_drv.c **** void USBUART_1_InitializeStatusBlock(void) 
 785:Generated_Source\PSoC5/USBUART_1_drv.c **** {
 866              		.loc 1 785 0
 867              		.cfi_startproc
 868              		@ args = 0, pretend = 0, frame = 0
 869              		@ frame_needed = 0, uses_anonymous_args = 0
 870              		@ link register save eliminated.
 786:Generated_Source\PSoC5/USBUART_1_drv.c ****     USBUART_1_transferByteCount = 0u;
 871              		.loc 1 786 0
 872 0000 054A     		ldr	r2, .L103
 873 0002 0023     		movs	r3, #0
 874 0004 1380     		strh	r3, [r2]	@ movhi
 787:Generated_Source\PSoC5/USBUART_1_drv.c ****     
 788:Generated_Source\PSoC5/USBUART_1_drv.c ****     if (USBUART_1_currentTD.pStatusBlock != NULL)
 875              		.loc 1 788 0
 876 0006 054A     		ldr	r2, .L103+4
 877 0008 9168     		ldr	r1, [r2, #8]
 878 000a 19B1     		cbz	r1, .L98
 789:Generated_Source\PSoC5/USBUART_1_drv.c ****     {
 790:Generated_Source\PSoC5/USBUART_1_drv.c ****         USBUART_1_currentTD.pStatusBlock->status = USBUART_1_XFER_IDLE;
 879              		.loc 1 790 0
 880 000c 9168     		ldr	r1, [r2, #8]
 881 000e 0B70     		strb	r3, [r1]
 791:Generated_Source\PSoC5/USBUART_1_drv.c ****         USBUART_1_currentTD.pStatusBlock->length = 0u;
 882              		.loc 1 791 0
 883 0010 9268     		ldr	r2, [r2, #8]
 884 0012 5380     		strh	r3, [r2, #2]	@ movhi
 885              	.L98:
 886 0014 7047     		bx	lr
 887              	.L104:
 888 0016 00BF     		.align	2
 889              	.L103:
 890 0018 00000000 		.word	USBUART_1_transferByteCount
 891 001c 00000000 		.word	USBUART_1_currentTD
ARM GAS  C:\Users\Luggi\AppData\Local\Temp\ccz9dGF6.s 			page 32


 892              		.cfi_endproc
 893              	.LFE15:
 894              		.size	USBUART_1_InitializeStatusBlock, .-USBUART_1_InitializeStatusBlock
 895              		.section	.text.USBUART_1_InitControlRead,"ax",%progbits
 896              		.align	1
 897              		.global	USBUART_1_InitControlRead
 898              		.thumb
 899              		.thumb_func
 900              		.type	USBUART_1_InitControlRead, %function
 901              	USBUART_1_InitControlRead:
 902              	.LFB5:
 419:Generated_Source\PSoC5/USBUART_1_drv.c ****     uint16 xferCount;
 903              		.loc 1 419 0
 904              		.cfi_startproc
 905              		@ args = 0, pretend = 0, frame = 0
 906              		@ frame_needed = 0, uses_anonymous_args = 0
 907 0000 10B5     		push	{r4, lr}
 908              		.cfi_def_cfa_offset 8
 909              		.cfi_offset 4, -8
 910              		.cfi_offset 14, -4
 422:Generated_Source\PSoC5/USBUART_1_drv.c ****     {
 911              		.loc 1 422 0
 912 0002 0E4C     		ldr	r4, .L109
 913 0004 2388     		ldrh	r3, [r4]
 914 0006 9BB2     		uxth	r3, r3
 915 0008 13B9     		cbnz	r3, .L106
 424:Generated_Source\PSoC5/USBUART_1_drv.c ****     }
 916              		.loc 1 424 0
 917 000a FFF7FEFF 		bl	USBUART_1_InitZeroLengthControlTransfer
 918              	.LVL56:
 919 000e 13E0     		b	.L107
 920              	.L106:
 429:Generated_Source\PSoC5/USBUART_1_drv.c ****         
 921              		.loc 1 429 0
 922 0010 0B4B     		ldr	r3, .L109+4
 923 0012 0222     		movs	r2, #2
 924 0014 1A70     		strb	r2, [r3]
 432:Generated_Source\PSoC5/USBUART_1_drv.c ****         
 925              		.loc 1 432 0
 926 0016 0B4B     		ldr	r3, .L109+8
 927 0018 0022     		movs	r2, #0
 928 001a 1A70     		strb	r2, [r3]
 435:Generated_Source\PSoC5/USBUART_1_drv.c ****         
 929              		.loc 1 435 0
 930 001c FFF7FEFF 		bl	USBUART_1_InitializeStatusBlock
 931              	.LVL57:
 437:Generated_Source\PSoC5/USBUART_1_drv.c **** 
 932              		.loc 1 437 0
 933 0020 094A     		ldr	r2, .L109+12
 934 0022 D179     		ldrb	r1, [r2, #7]	@ zero_extendqisi2
 935 0024 9379     		ldrb	r3, [r2, #6]	@ zero_extendqisi2
 439:Generated_Source\PSoC5/USBUART_1_drv.c ****         {
 936              		.loc 1 439 0
 937 0026 2288     		ldrh	r2, [r4]
 437:Generated_Source\PSoC5/USBUART_1_drv.c **** 
 938              		.loc 1 437 0
 939 0028 43EA0123 		orr	r3, r3, r1, lsl #8
ARM GAS  C:\Users\Luggi\AppData\Local\Temp\ccz9dGF6.s 			page 33


 940              	.LVL58:
 439:Generated_Source\PSoC5/USBUART_1_drv.c ****         {
 941              		.loc 1 439 0
 942 002c 92B2     		uxth	r2, r2
 943 002e 9A42     		cmp	r2, r3
 441:Generated_Source\PSoC5/USBUART_1_drv.c ****         }
 944              		.loc 1 441 0
 945 0030 88BF     		it	hi
 946 0032 2380     		strhhi	r3, [r4]	@ movhi
 444:Generated_Source\PSoC5/USBUART_1_drv.c ****     }
 947              		.loc 1 444 0
 948 0034 FFF7FEFF 		bl	USBUART_1_LoadEP0
 949              	.LVL59:
 950              	.L107:
 448:Generated_Source\PSoC5/USBUART_1_drv.c **** 
 951              		.loc 1 448 0
 952 0038 0120     		movs	r0, #1
 953 003a 10BD     		pop	{r4, pc}
 954              	.L110:
 955              		.align	2
 956              	.L109:
 957 003c 00000000 		.word	USBUART_1_currentTD
 958 0040 00000000 		.word	USBUART_1_transferState
 959 0044 00000000 		.word	USBUART_1_ep0Toggle
 960 0048 00600040 		.word	1073766400
 961              		.cfi_endproc
 962              	.LFE5:
 963              		.size	USBUART_1_InitControlRead, .-USBUART_1_InitControlRead
 964              		.section	.text.USBUART_1_InitControlWrite,"ax",%progbits
 965              		.align	1
 966              		.global	USBUART_1_InitControlWrite
 967              		.thumb
 968              		.thumb_func
 969              		.type	USBUART_1_InitControlWrite, %function
 970              	USBUART_1_InitControlWrite:
 971              	.LFB9:
 561:Generated_Source\PSoC5/USBUART_1_drv.c ****     uint16 xferCount;
 972              		.loc 1 561 0
 973              		.cfi_startproc
 974              		@ args = 0, pretend = 0, frame = 0
 975              		@ frame_needed = 0, uses_anonymous_args = 0
 976 0000 08B5     		push	{r3, lr}
 977              		.cfi_def_cfa_offset 8
 978              		.cfi_offset 3, -8
 979              		.cfi_offset 14, -4
 565:Generated_Source\PSoC5/USBUART_1_drv.c ****     
 980              		.loc 1 565 0
 981 0002 0C4B     		ldr	r3, .L113
 982 0004 0422     		movs	r2, #4
 983 0006 1A70     		strb	r2, [r3]
 568:Generated_Source\PSoC5/USBUART_1_drv.c ****     
 984              		.loc 1 568 0
 985 0008 0B4B     		ldr	r3, .L113+4
 986 000a 8022     		movs	r2, #128
 987 000c 1A70     		strb	r2, [r3]
 571:Generated_Source\PSoC5/USBUART_1_drv.c **** 
 988              		.loc 1 571 0
ARM GAS  C:\Users\Luggi\AppData\Local\Temp\ccz9dGF6.s 			page 34


 989 000e FFF7FEFF 		bl	USBUART_1_InitializeStatusBlock
 990              	.LVL60:
 573:Generated_Source\PSoC5/USBUART_1_drv.c **** 
 991              		.loc 1 573 0
 992 0012 0A4A     		ldr	r2, .L113+8
 584:Generated_Source\PSoC5/USBUART_1_drv.c **** 
 993              		.loc 1 584 0
 994 0014 0120     		movs	r0, #1
 573:Generated_Source\PSoC5/USBUART_1_drv.c **** 
 995              		.loc 1 573 0
 996 0016 D179     		ldrb	r1, [r2, #7]	@ zero_extendqisi2
 997 0018 9379     		ldrb	r3, [r2, #6]	@ zero_extendqisi2
 998 001a 43EA0123 		orr	r3, r3, r1, lsl #8
 999              	.LVL61:
 575:Generated_Source\PSoC5/USBUART_1_drv.c ****     {
 1000              		.loc 1 575 0
 1001 001e 0849     		ldr	r1, .L113+12
 1002 0020 0A88     		ldrh	r2, [r1]
 1003 0022 92B2     		uxth	r2, r2
 1004 0024 9A42     		cmp	r2, r3
 577:Generated_Source\PSoC5/USBUART_1_drv.c ****     }
 1005              		.loc 1 577 0
 1006 0026 88BF     		it	hi
 1007 0028 0B80     		strhhi	r3, [r1]	@ movhi
 581:Generated_Source\PSoC5/USBUART_1_drv.c **** 
 1008              		.loc 1 581 0
 1009 002a 064B     		ldr	r3, .L113+16
 1010              	.LVL62:
 1011 002c 0B22     		movs	r2, #11
 1012 002e 1A70     		strb	r2, [r3]
 584:Generated_Source\PSoC5/USBUART_1_drv.c **** 
 1013              		.loc 1 584 0
 1014 0030 08BD     		pop	{r3, pc}
 1015              	.L114:
 1016 0032 00BF     		.align	2
 1017              	.L113:
 1018 0034 00000000 		.word	USBUART_1_transferState
 1019 0038 00000000 		.word	USBUART_1_ep0Toggle
 1020 003c 00600040 		.word	1073766400
 1021 0040 00000000 		.word	USBUART_1_currentTD
 1022 0044 00000000 		.word	USBUART_1_ep0Mode
 1023              		.cfi_endproc
 1024              	.LFE9:
 1025              		.size	USBUART_1_InitControlWrite, .-USBUART_1_InitControlWrite
 1026              		.comm	USBUART_1_transferByteCount,2,2
 1027              		.comm	USBUART_1_ep0Count,1,1
 1028              		.comm	USBUART_1_ep0Mode,1,1
 1029              		.comm	USBUART_1_currentTD,12,4
 1030              		.comm	USBUART_1_transferState,1,1
 1031              		.comm	USBUART_1_lastPacketSize,1,1
 1032              		.comm	USBUART_1_ep0Toggle,1,1
 1033              		.comm	USBUART_1_interfaceClass,4,4
 1034              		.comm	USBUART_1_device,1,1
 1035              		.comm	USBUART_1_interfaceStatus,2,1
 1036              		.comm	USBUART_1_interfaceSettingLast,2,1
 1037              		.comm	USBUART_1_interfaceSetting,2,1
 1038              		.comm	USBUART_1_deviceStatus,1,1
ARM GAS  C:\Users\Luggi\AppData\Local\Temp\ccz9dGF6.s 			page 35


 1039              		.comm	USBUART_1_deviceAddress,1,1
 1040              		.comm	USBUART_1_configurationChanged,1,1
 1041              		.comm	USBUART_1_interfaceNumber,1,1
 1042              		.comm	USBUART_1_configuration,1,1
 1043              		.comm	USBUART_1_EP,108,2
 1044              		.text
 1045              	.Letext0:
 1046              		.file 2 "Generated_Source\\PSoC5\\cytypes.h"
 1047              		.file 3 "Generated_Source\\PSoC5\\USBUART_1.h"
 1048              		.file 4 "Generated_Source\\PSoC5\\USBUART_1_pvt.h"