ARM GAS  C:\Users\Luggi\AppData\Local\Temp\ccf9q2kk.s 			page 1


   1              		.syntax unified
   2              		.cpu cortex-m3
   3              		.fpu softvfp
   4              		.eabi_attribute 20, 1
   5              		.eabi_attribute 21, 1
   6              		.eabi_attribute 23, 3
   7              		.eabi_attribute 24, 1
   8              		.eabi_attribute 25, 1
   9              		.eabi_attribute 26, 1
  10              		.eabi_attribute 30, 4
  11              		.eabi_attribute 34, 1
  12              		.eabi_attribute 18, 4
  13              		.thumb
  14              		.file	"USBUART_1_episr.c"
  15              		.text
  16              	.Ltext0:
  17              		.cfi_sections	.debug_frame
  18              		.section	.text.USBUART_1_EP_1_ISR,"ax",%progbits
  19              		.align	1
  20              		.global	USBUART_1_EP_1_ISR
  21              		.thumb
  22              		.thumb_func
  23              		.type	USBUART_1_EP_1_ISR, %function
  24              	USBUART_1_EP_1_ISR:
  25              	.LFB0:
  26              		.file 1 "Generated_Source\\PSoC5\\USBUART_1_episr.c"
   1:Generated_Source\PSoC5/USBUART_1_episr.c **** /***************************************************************************//**
   2:Generated_Source\PSoC5/USBUART_1_episr.c **** * \file USBUART_1_episr.c
   3:Generated_Source\PSoC5/USBUART_1_episr.c **** * \version 3.10
   4:Generated_Source\PSoC5/USBUART_1_episr.c **** *
   5:Generated_Source\PSoC5/USBUART_1_episr.c **** * \brief
   6:Generated_Source\PSoC5/USBUART_1_episr.c **** *  This file contains the Data endpoint Interrupt Service Routines.
   7:Generated_Source\PSoC5/USBUART_1_episr.c **** *
   8:Generated_Source\PSoC5/USBUART_1_episr.c **** ********************************************************************************
   9:Generated_Source\PSoC5/USBUART_1_episr.c **** * \copyright
  10:Generated_Source\PSoC5/USBUART_1_episr.c **** * Copyright 2008-2016, Cypress Semiconductor Corporation.  All rights reserved.
  11:Generated_Source\PSoC5/USBUART_1_episr.c **** * You may use this file only in accordance with the license, terms, conditions,
  12:Generated_Source\PSoC5/USBUART_1_episr.c **** * disclaimers, and limitations in the end user license agreement accompanying
  13:Generated_Source\PSoC5/USBUART_1_episr.c **** * the software package with which this file was provided.
  14:Generated_Source\PSoC5/USBUART_1_episr.c **** *******************************************************************************/
  15:Generated_Source\PSoC5/USBUART_1_episr.c **** 
  16:Generated_Source\PSoC5/USBUART_1_episr.c **** #include "USBUART_1_pvt.h"
  17:Generated_Source\PSoC5/USBUART_1_episr.c **** #include "USBUART_1_cydmac.h"
  18:Generated_Source\PSoC5/USBUART_1_episr.c **** 
  19:Generated_Source\PSoC5/USBUART_1_episr.c **** 
  20:Generated_Source\PSoC5/USBUART_1_episr.c **** 
  21:Generated_Source\PSoC5/USBUART_1_episr.c **** /***************************************
  22:Generated_Source\PSoC5/USBUART_1_episr.c **** * Custom Declarations
  23:Generated_Source\PSoC5/USBUART_1_episr.c **** ***************************************/
  24:Generated_Source\PSoC5/USBUART_1_episr.c **** /* `#START CUSTOM_DECLARATIONS` Place your declaration here */
  25:Generated_Source\PSoC5/USBUART_1_episr.c **** 
  26:Generated_Source\PSoC5/USBUART_1_episr.c **** /* `#END` */
  27:Generated_Source\PSoC5/USBUART_1_episr.c **** 
  28:Generated_Source\PSoC5/USBUART_1_episr.c **** 
  29:Generated_Source\PSoC5/USBUART_1_episr.c **** #if (USBUART_1_EP1_ISR_ACTIVE)
  30:Generated_Source\PSoC5/USBUART_1_episr.c ****     /******************************************************************************
  31:Generated_Source\PSoC5/USBUART_1_episr.c ****     * Function Name: USBUART_1_EP_1_ISR
ARM GAS  C:\Users\Luggi\AppData\Local\Temp\ccf9q2kk.s 			page 2


  32:Generated_Source\PSoC5/USBUART_1_episr.c ****     ***************************************************************************//**
  33:Generated_Source\PSoC5/USBUART_1_episr.c ****     *
  34:Generated_Source\PSoC5/USBUART_1_episr.c ****     *  Endpoint 1 Interrupt Service Routine
  35:Generated_Source\PSoC5/USBUART_1_episr.c ****     *
  36:Generated_Source\PSoC5/USBUART_1_episr.c ****     ******************************************************************************/
  37:Generated_Source\PSoC5/USBUART_1_episr.c ****     CY_ISR(USBUART_1_EP_1_ISR)
  38:Generated_Source\PSoC5/USBUART_1_episr.c ****     {
  27              		.loc 1 38 0
  28              		.cfi_startproc
  29              		@ args = 0, pretend = 0, frame = 0
  30              		@ frame_needed = 0, uses_anonymous_args = 0
  31              		@ link register save eliminated.
  39:Generated_Source\PSoC5/USBUART_1_episr.c **** 
  40:Generated_Source\PSoC5/USBUART_1_episr.c ****     #ifdef USBUART_1_EP_1_ISR_ENTRY_CALLBACK
  41:Generated_Source\PSoC5/USBUART_1_episr.c ****         USBUART_1_EP_1_ISR_EntryCallback();
  42:Generated_Source\PSoC5/USBUART_1_episr.c ****     #endif /* (USBUART_1_EP_1_ISR_ENTRY_CALLBACK) */
  43:Generated_Source\PSoC5/USBUART_1_episr.c **** 
  44:Generated_Source\PSoC5/USBUART_1_episr.c ****         /* `#START EP1_USER_CODE` Place your code here */
  45:Generated_Source\PSoC5/USBUART_1_episr.c **** 
  46:Generated_Source\PSoC5/USBUART_1_episr.c ****         /* `#END` */
  47:Generated_Source\PSoC5/USBUART_1_episr.c **** 
  48:Generated_Source\PSoC5/USBUART_1_episr.c ****     #if (CY_PSOC3 && defined(USBUART_1_ENABLE_MIDI_STREAMING) && \
  49:Generated_Source\PSoC5/USBUART_1_episr.c ****         !defined(USBUART_1_MAIN_SERVICE_MIDI_OUT) && USBUART_1_ISR_SERVICE_MIDI_OUT)
  50:Generated_Source\PSoC5/USBUART_1_episr.c ****         {
  51:Generated_Source\PSoC5/USBUART_1_episr.c ****             uint8 intEn = EA;
  52:Generated_Source\PSoC5/USBUART_1_episr.c ****             CyGlobalIntEnable;  /* Enable nested interrupts. */
  53:Generated_Source\PSoC5/USBUART_1_episr.c ****     #endif /* (CY_PSOC3 && USBUART_1_ISR_SERVICE_MIDI_OUT) */
  54:Generated_Source\PSoC5/USBUART_1_episr.c ****     
  55:Generated_Source\PSoC5/USBUART_1_episr.c ****         USBUART_1_ClearSieEpInterruptSource(USBUART_1_SIE_INT_EP1_INTR);
  32              		.loc 1 55 0
  33 0000 084B     		ldr	r3, .L6
  34 0002 0122     		movs	r2, #1
  35 0004 1A70     		strb	r2, [r3]
  56:Generated_Source\PSoC5/USBUART_1_episr.c ****             
  57:Generated_Source\PSoC5/USBUART_1_episr.c ****         /* Notifies user that transfer IN or OUT transfer is completed.
  58:Generated_Source\PSoC5/USBUART_1_episr.c ****         * IN endpoint: endpoint buffer can be reloaded, Host is read data.
  59:Generated_Source\PSoC5/USBUART_1_episr.c ****         * OUT endpoint: data is ready to be read from endpoint buffer. 
  60:Generated_Source\PSoC5/USBUART_1_episr.c ****         */
  61:Generated_Source\PSoC5/USBUART_1_episr.c ****     #if (CY_PSOC4 && USBUART_1_EP_MANAGEMENT_DMA_AUTO)
  62:Generated_Source\PSoC5/USBUART_1_episr.c ****         if (0u != (USBUART_1_EP[USBUART_1_EP1].addr & USBUART_1_DIR_IN))
  63:Generated_Source\PSoC5/USBUART_1_episr.c ****     #endif /* (CY_PSOC4 && USBUART_1_EP_MANAGEMENT_DMA_AUTO) */
  64:Generated_Source\PSoC5/USBUART_1_episr.c ****         {
  65:Generated_Source\PSoC5/USBUART_1_episr.c ****             /* Read CR0 register to clear SIE lock. */
  66:Generated_Source\PSoC5/USBUART_1_episr.c ****             (void) USBUART_1_SIE_EP_BASE.sieEp[USBUART_1_EP1].epCr0;
  36              		.loc 1 66 0
  37 0006 0F3B     		subs	r3, r3, #15
  38 0008 9B7C     		ldrb	r3, [r3, #18]	@ zero_extendqisi2
  67:Generated_Source\PSoC5/USBUART_1_episr.c ****             
  68:Generated_Source\PSoC5/USBUART_1_episr.c ****             /* Toggle all endpoint types except ISOC. */
  69:Generated_Source\PSoC5/USBUART_1_episr.c ****             if (USBUART_1_GET_EP_TYPE(USBUART_1_EP1) != USBUART_1_EP_TYPE_ISOC)
  39              		.loc 1 69 0
  40 000a 074B     		ldr	r3, .L6+4
  41 000c 1A7B     		ldrb	r2, [r3, #12]	@ zero_extendqisi2
  42 000e 02F00302 		and	r2, r2, #3
  43 0012 012A     		cmp	r2, #1
  70:Generated_Source\PSoC5/USBUART_1_episr.c ****             {
  71:Generated_Source\PSoC5/USBUART_1_episr.c ****                 USBUART_1_EP[USBUART_1_EP1].epToggle ^= USBUART_1_EPX_CNT_DATA_TOGGLE;
ARM GAS  C:\Users\Luggi\AppData\Local\Temp\ccf9q2kk.s 			page 3


  44              		.loc 1 71 0
  45 0014 1EBF     		ittt	ne
  46 0016 DA7B     		ldrbne	r2, [r3, #15]	@ zero_extendqisi2
  47 0018 82F08002 		eorne	r2, r2, #128
  48 001c DA73     		strbne	r2, [r3, #15]
  72:Generated_Source\PSoC5/USBUART_1_episr.c ****             }
  73:Generated_Source\PSoC5/USBUART_1_episr.c **** 
  74:Generated_Source\PSoC5/USBUART_1_episr.c ****             /* EP_MANAGEMENT_DMA_AUTO (Ticket ID# 214187): For OUT endpoint this event is used to n
  75:Generated_Source\PSoC5/USBUART_1_episr.c ****             * user that DMA has completed copying data from OUT endpoint which is not completely tr
  76:Generated_Source\PSoC5/USBUART_1_episr.c ****             * Because last chunk of data is being copied.
  77:Generated_Source\PSoC5/USBUART_1_episr.c ****             * For CY_PSOC 3/5LP: it is acceptable as DMA is really fast.
  78:Generated_Source\PSoC5/USBUART_1_episr.c ****             * For CY_PSOC4: this event is set in Arbiter interrupt (source is DMA_TERMIN).
  79:Generated_Source\PSoC5/USBUART_1_episr.c ****             */
  80:Generated_Source\PSoC5/USBUART_1_episr.c ****             USBUART_1_EP[USBUART_1_EP1].apiEpState = USBUART_1_EVENT_PENDING;
  49              		.loc 1 80 0
  50 001e 0122     		movs	r2, #1
  51 0020 5A73     		strb	r2, [r3, #13]
  52 0022 7047     		bx	lr
  53              	.L7:
  54              		.align	2
  55              	.L6:
  56 0024 0B600040 		.word	1073766411
  57 0028 00000000 		.word	USBUART_1_EP
  58              		.cfi_endproc
  59              	.LFE0:
  60              		.size	USBUART_1_EP_1_ISR, .-USBUART_1_EP_1_ISR
  61              		.section	.text.USBUART_1_EP_2_ISR,"ax",%progbits
  62              		.align	1
  63              		.global	USBUART_1_EP_2_ISR
  64              		.thumb
  65              		.thumb_func
  66              		.type	USBUART_1_EP_2_ISR, %function
  67              	USBUART_1_EP_2_ISR:
  68              	.LFB1:
  81:Generated_Source\PSoC5/USBUART_1_episr.c ****         }
  82:Generated_Source\PSoC5/USBUART_1_episr.c **** 
  83:Generated_Source\PSoC5/USBUART_1_episr.c ****     #if (!(CY_PSOC4 && USBUART_1_EP_MANAGEMENT_DMA_AUTO))
  84:Generated_Source\PSoC5/USBUART_1_episr.c ****         #if (defined(USBUART_1_ENABLE_MIDI_STREAMING) && \
  85:Generated_Source\PSoC5/USBUART_1_episr.c ****             !defined(USBUART_1_MAIN_SERVICE_MIDI_OUT) && USBUART_1_ISR_SERVICE_MIDI_OUT)
  86:Generated_Source\PSoC5/USBUART_1_episr.c ****             if (USBUART_1_midi_out_ep == USBUART_1_EP1)
  87:Generated_Source\PSoC5/USBUART_1_episr.c ****             {
  88:Generated_Source\PSoC5/USBUART_1_episr.c ****                 USBUART_1_MIDI_OUT_Service();
  89:Generated_Source\PSoC5/USBUART_1_episr.c ****             }
  90:Generated_Source\PSoC5/USBUART_1_episr.c ****         #endif /* (USBUART_1_ISR_SERVICE_MIDI_OUT) */
  91:Generated_Source\PSoC5/USBUART_1_episr.c ****     #endif /* (!(CY_PSOC4 && USBUART_1_EP_MANAGEMENT_DMA_AUTO)) */
  92:Generated_Source\PSoC5/USBUART_1_episr.c ****     
  93:Generated_Source\PSoC5/USBUART_1_episr.c ****         /* `#START EP1_END_USER_CODE` Place your code here */
  94:Generated_Source\PSoC5/USBUART_1_episr.c **** 
  95:Generated_Source\PSoC5/USBUART_1_episr.c ****         /* `#END` */
  96:Generated_Source\PSoC5/USBUART_1_episr.c **** 
  97:Generated_Source\PSoC5/USBUART_1_episr.c ****     #ifdef USBUART_1_EP_1_ISR_EXIT_CALLBACK
  98:Generated_Source\PSoC5/USBUART_1_episr.c ****         USBUART_1_EP_1_ISR_ExitCallback();
  99:Generated_Source\PSoC5/USBUART_1_episr.c ****     #endif /* (USBUART_1_EP_1_ISR_EXIT_CALLBACK) */
 100:Generated_Source\PSoC5/USBUART_1_episr.c **** 
 101:Generated_Source\PSoC5/USBUART_1_episr.c ****     #if (CY_PSOC3 && defined(USBUART_1_ENABLE_MIDI_STREAMING) && \
 102:Generated_Source\PSoC5/USBUART_1_episr.c ****         !defined(USBUART_1_MAIN_SERVICE_MIDI_OUT) && USBUART_1_ISR_SERVICE_MIDI_OUT)
 103:Generated_Source\PSoC5/USBUART_1_episr.c ****         
ARM GAS  C:\Users\Luggi\AppData\Local\Temp\ccf9q2kk.s 			page 4


 104:Generated_Source\PSoC5/USBUART_1_episr.c ****             EA = intEn; /* Restore nested interrupt configuration. */
 105:Generated_Source\PSoC5/USBUART_1_episr.c ****         }
 106:Generated_Source\PSoC5/USBUART_1_episr.c ****     #endif /* (CY_PSOC3 && USBUART_1_ISR_SERVICE_MIDI_OUT) */
 107:Generated_Source\PSoC5/USBUART_1_episr.c ****     }
 108:Generated_Source\PSoC5/USBUART_1_episr.c **** 
 109:Generated_Source\PSoC5/USBUART_1_episr.c **** #endif /* (USBUART_1_EP1_ISR_ACTIVE) */
 110:Generated_Source\PSoC5/USBUART_1_episr.c **** 
 111:Generated_Source\PSoC5/USBUART_1_episr.c **** 
 112:Generated_Source\PSoC5/USBUART_1_episr.c **** #if (USBUART_1_EP2_ISR_ACTIVE)
 113:Generated_Source\PSoC5/USBUART_1_episr.c ****     /*******************************************************************************
 114:Generated_Source\PSoC5/USBUART_1_episr.c ****     * Function Name: USBUART_1_EP_2_ISR
 115:Generated_Source\PSoC5/USBUART_1_episr.c ****     ****************************************************************************//**
 116:Generated_Source\PSoC5/USBUART_1_episr.c ****     *
 117:Generated_Source\PSoC5/USBUART_1_episr.c ****     *  Endpoint 2 Interrupt Service Routine.
 118:Generated_Source\PSoC5/USBUART_1_episr.c ****     *
 119:Generated_Source\PSoC5/USBUART_1_episr.c ****     *******************************************************************************/
 120:Generated_Source\PSoC5/USBUART_1_episr.c ****     CY_ISR(USBUART_1_EP_2_ISR)
 121:Generated_Source\PSoC5/USBUART_1_episr.c ****     {
  69              		.loc 1 121 0
  70              		.cfi_startproc
  71              		@ args = 0, pretend = 0, frame = 0
  72              		@ frame_needed = 0, uses_anonymous_args = 0
  73              		@ link register save eliminated.
 122:Generated_Source\PSoC5/USBUART_1_episr.c ****     #ifdef USBUART_1_EP_2_ISR_ENTRY_CALLBACK
 123:Generated_Source\PSoC5/USBUART_1_episr.c ****         USBUART_1_EP_2_ISR_EntryCallback();
 124:Generated_Source\PSoC5/USBUART_1_episr.c ****     #endif /* (USBUART_1_EP_2_ISR_ENTRY_CALLBACK) */
 125:Generated_Source\PSoC5/USBUART_1_episr.c **** 
 126:Generated_Source\PSoC5/USBUART_1_episr.c ****         /* `#START EP2_USER_CODE` Place your code here */
 127:Generated_Source\PSoC5/USBUART_1_episr.c **** 
 128:Generated_Source\PSoC5/USBUART_1_episr.c ****         /* `#END` */
 129:Generated_Source\PSoC5/USBUART_1_episr.c **** 
 130:Generated_Source\PSoC5/USBUART_1_episr.c ****     #if (CY_PSOC3 && defined(USBUART_1_ENABLE_MIDI_STREAMING) && \
 131:Generated_Source\PSoC5/USBUART_1_episr.c ****         !defined(USBUART_1_MAIN_SERVICE_MIDI_OUT) && USBUART_1_ISR_SERVICE_MIDI_OUT)
 132:Generated_Source\PSoC5/USBUART_1_episr.c ****         {
 133:Generated_Source\PSoC5/USBUART_1_episr.c ****             uint8 intEn = EA;
 134:Generated_Source\PSoC5/USBUART_1_episr.c ****             CyGlobalIntEnable;  /* Enable nested interrupts. */
 135:Generated_Source\PSoC5/USBUART_1_episr.c ****     #endif /* (CY_PSOC3 && USBUART_1_ISR_SERVICE_MIDI_OUT) */
 136:Generated_Source\PSoC5/USBUART_1_episr.c **** 
 137:Generated_Source\PSoC5/USBUART_1_episr.c ****         USBUART_1_ClearSieEpInterruptSource(USBUART_1_SIE_INT_EP2_INTR);
  74              		.loc 1 137 0
  75 0000 094B     		ldr	r3, .L13
  76 0002 0222     		movs	r2, #2
  77 0004 1A70     		strb	r2, [r3]
 138:Generated_Source\PSoC5/USBUART_1_episr.c **** 
 139:Generated_Source\PSoC5/USBUART_1_episr.c ****         /* Notifies user that transfer IN or OUT transfer is completed.
 140:Generated_Source\PSoC5/USBUART_1_episr.c ****         * IN endpoint: endpoint buffer can be reloaded, Host is read data.
 141:Generated_Source\PSoC5/USBUART_1_episr.c ****         * OUT endpoint: data is ready to be read from endpoint buffer. 
 142:Generated_Source\PSoC5/USBUART_1_episr.c ****         */
 143:Generated_Source\PSoC5/USBUART_1_episr.c ****     #if (CY_PSOC4 && USBUART_1_EP_MANAGEMENT_DMA_AUTO)
 144:Generated_Source\PSoC5/USBUART_1_episr.c ****         if (0u != (USBUART_1_EP[USBUART_1_EP2].addr & USBUART_1_DIR_IN))
 145:Generated_Source\PSoC5/USBUART_1_episr.c ****     #endif /* (CY_PSOC4 && USBUART_1_EP_MANAGEMENT_DMA_AUTO) */
 146:Generated_Source\PSoC5/USBUART_1_episr.c ****         {            
 147:Generated_Source\PSoC5/USBUART_1_episr.c ****             /* Read CR0 register to clear SIE lock. */
 148:Generated_Source\PSoC5/USBUART_1_episr.c ****             (void) USBUART_1_SIE_EP_BASE.sieEp[USBUART_1_EP2].epCr0;
  78              		.loc 1 148 0
  79 0006 0F3B     		subs	r3, r3, #15
  80 0008 93F82230 		ldrb	r3, [r3, #34]	@ zero_extendqisi2
ARM GAS  C:\Users\Luggi\AppData\Local\Temp\ccf9q2kk.s 			page 5


 149:Generated_Source\PSoC5/USBUART_1_episr.c ****             
 150:Generated_Source\PSoC5/USBUART_1_episr.c ****             /* Toggle all endpoint types except ISOC. */
 151:Generated_Source\PSoC5/USBUART_1_episr.c ****             if (USBUART_1_GET_EP_TYPE(USBUART_1_EP2) != USBUART_1_EP_TYPE_ISOC)
  81              		.loc 1 151 0
  82 000c 074B     		ldr	r3, .L13+4
  83 000e 1A7E     		ldrb	r2, [r3, #24]	@ zero_extendqisi2
  84 0010 02F00302 		and	r2, r2, #3
  85 0014 012A     		cmp	r2, #1
 152:Generated_Source\PSoC5/USBUART_1_episr.c ****             {
 153:Generated_Source\PSoC5/USBUART_1_episr.c ****                 USBUART_1_EP[USBUART_1_EP2].epToggle ^= USBUART_1_EPX_CNT_DATA_TOGGLE;
  86              		.loc 1 153 0
  87 0016 1EBF     		ittt	ne
  88 0018 DA7E     		ldrbne	r2, [r3, #27]	@ zero_extendqisi2
  89 001a 82F08002 		eorne	r2, r2, #128
  90 001e DA76     		strbne	r2, [r3, #27]
 154:Generated_Source\PSoC5/USBUART_1_episr.c ****             }
 155:Generated_Source\PSoC5/USBUART_1_episr.c **** 
 156:Generated_Source\PSoC5/USBUART_1_episr.c ****             /* EP_MANAGEMENT_DMA_AUTO (Ticket ID# 214187): For OUT endpoint this event is used to n
 157:Generated_Source\PSoC5/USBUART_1_episr.c ****             * user that DMA has completed copying data from OUT endpoint which is not completely tr
 158:Generated_Source\PSoC5/USBUART_1_episr.c ****             * Because last chunk of data is being copied.
 159:Generated_Source\PSoC5/USBUART_1_episr.c ****             * For CY_PSOC 3/5LP: it is acceptable as DMA is really fast.
 160:Generated_Source\PSoC5/USBUART_1_episr.c ****             * For CY_PSOC4: this event is set in Arbiter interrupt (source is DMA_TERMIN).
 161:Generated_Source\PSoC5/USBUART_1_episr.c ****             */
 162:Generated_Source\PSoC5/USBUART_1_episr.c ****             USBUART_1_EP[USBUART_1_EP2].apiEpState = USBUART_1_EVENT_PENDING;
  91              		.loc 1 162 0
  92 0020 0122     		movs	r2, #1
  93 0022 5A76     		strb	r2, [r3, #25]
  94 0024 7047     		bx	lr
  95              	.L14:
  96 0026 00BF     		.align	2
  97              	.L13:
  98 0028 0B600040 		.word	1073766411
  99 002c 00000000 		.word	USBUART_1_EP
 100              		.cfi_endproc
 101              	.LFE1:
 102              		.size	USBUART_1_EP_2_ISR, .-USBUART_1_EP_2_ISR
 103              		.section	.text.USBUART_1_EP_3_ISR,"ax",%progbits
 104              		.align	1
 105              		.global	USBUART_1_EP_3_ISR
 106              		.thumb
 107              		.thumb_func
 108              		.type	USBUART_1_EP_3_ISR, %function
 109              	USBUART_1_EP_3_ISR:
 110              	.LFB2:
 163:Generated_Source\PSoC5/USBUART_1_episr.c ****         }
 164:Generated_Source\PSoC5/USBUART_1_episr.c **** 
 165:Generated_Source\PSoC5/USBUART_1_episr.c ****     #if (!(CY_PSOC4 && USBUART_1_EP_MANAGEMENT_DMA_AUTO))
 166:Generated_Source\PSoC5/USBUART_1_episr.c ****         #if (defined(USBUART_1_ENABLE_MIDI_STREAMING) && \
 167:Generated_Source\PSoC5/USBUART_1_episr.c ****             !defined(USBUART_1_MAIN_SERVICE_MIDI_OUT) && USBUART_1_ISR_SERVICE_MIDI_OUT)
 168:Generated_Source\PSoC5/USBUART_1_episr.c ****             if (USBUART_1_midi_out_ep == USBUART_1_EP2)
 169:Generated_Source\PSoC5/USBUART_1_episr.c ****             {
 170:Generated_Source\PSoC5/USBUART_1_episr.c ****                 USBUART_1_MIDI_OUT_Service();
 171:Generated_Source\PSoC5/USBUART_1_episr.c ****             }
 172:Generated_Source\PSoC5/USBUART_1_episr.c ****         #endif /* (USBUART_1_ISR_SERVICE_MIDI_OUT) */
 173:Generated_Source\PSoC5/USBUART_1_episr.c ****     #endif /* (!(CY_PSOC4 && USBUART_1_EP_MANAGEMENT_DMA_AUTO)) */        
 174:Generated_Source\PSoC5/USBUART_1_episr.c ****     
 175:Generated_Source\PSoC5/USBUART_1_episr.c ****         /* `#START EP2_END_USER_CODE` Place your code here */
ARM GAS  C:\Users\Luggi\AppData\Local\Temp\ccf9q2kk.s 			page 6


 176:Generated_Source\PSoC5/USBUART_1_episr.c **** 
 177:Generated_Source\PSoC5/USBUART_1_episr.c ****         /* `#END` */
 178:Generated_Source\PSoC5/USBUART_1_episr.c **** 
 179:Generated_Source\PSoC5/USBUART_1_episr.c ****     #ifdef USBUART_1_EP_2_ISR_EXIT_CALLBACK
 180:Generated_Source\PSoC5/USBUART_1_episr.c ****         USBUART_1_EP_2_ISR_ExitCallback();
 181:Generated_Source\PSoC5/USBUART_1_episr.c ****     #endif /* (USBUART_1_EP_2_ISR_EXIT_CALLBACK) */
 182:Generated_Source\PSoC5/USBUART_1_episr.c **** 
 183:Generated_Source\PSoC5/USBUART_1_episr.c ****     #if (CY_PSOC3 && defined(USBUART_1_ENABLE_MIDI_STREAMING) && \
 184:Generated_Source\PSoC5/USBUART_1_episr.c ****         !defined(USBUART_1_MAIN_SERVICE_MIDI_OUT) && USBUART_1_ISR_SERVICE_MIDI_OUT)
 185:Generated_Source\PSoC5/USBUART_1_episr.c ****         
 186:Generated_Source\PSoC5/USBUART_1_episr.c ****             EA = intEn; /* Restore nested interrupt configuration. */
 187:Generated_Source\PSoC5/USBUART_1_episr.c ****         }
 188:Generated_Source\PSoC5/USBUART_1_episr.c ****     #endif /* (CY_PSOC3 && USBUART_1_ISR_SERVICE_MIDI_OUT) */
 189:Generated_Source\PSoC5/USBUART_1_episr.c ****     }
 190:Generated_Source\PSoC5/USBUART_1_episr.c **** #endif /* (USBUART_1_EP2_ISR_ACTIVE) */
 191:Generated_Source\PSoC5/USBUART_1_episr.c **** 
 192:Generated_Source\PSoC5/USBUART_1_episr.c **** 
 193:Generated_Source\PSoC5/USBUART_1_episr.c **** #if (USBUART_1_EP3_ISR_ACTIVE)
 194:Generated_Source\PSoC5/USBUART_1_episr.c ****     /*******************************************************************************
 195:Generated_Source\PSoC5/USBUART_1_episr.c ****     * Function Name: USBUART_1_EP_3_ISR
 196:Generated_Source\PSoC5/USBUART_1_episr.c ****     ****************************************************************************//**
 197:Generated_Source\PSoC5/USBUART_1_episr.c ****     *
 198:Generated_Source\PSoC5/USBUART_1_episr.c ****     *  Endpoint 3 Interrupt Service Routine.
 199:Generated_Source\PSoC5/USBUART_1_episr.c ****     *
 200:Generated_Source\PSoC5/USBUART_1_episr.c ****     *******************************************************************************/
 201:Generated_Source\PSoC5/USBUART_1_episr.c ****     CY_ISR(USBUART_1_EP_3_ISR)
 202:Generated_Source\PSoC5/USBUART_1_episr.c ****     {
 111              		.loc 1 202 0
 112              		.cfi_startproc
 113              		@ args = 0, pretend = 0, frame = 0
 114              		@ frame_needed = 0, uses_anonymous_args = 0
 115              		@ link register save eliminated.
 203:Generated_Source\PSoC5/USBUART_1_episr.c ****     #ifdef USBUART_1_EP_3_ISR_ENTRY_CALLBACK
 204:Generated_Source\PSoC5/USBUART_1_episr.c ****         USBUART_1_EP_3_ISR_EntryCallback();
 205:Generated_Source\PSoC5/USBUART_1_episr.c ****     #endif /* (USBUART_1_EP_3_ISR_ENTRY_CALLBACK) */
 206:Generated_Source\PSoC5/USBUART_1_episr.c **** 
 207:Generated_Source\PSoC5/USBUART_1_episr.c ****         /* `#START EP3_USER_CODE` Place your code here */
 208:Generated_Source\PSoC5/USBUART_1_episr.c **** 
 209:Generated_Source\PSoC5/USBUART_1_episr.c ****         /* `#END` */
 210:Generated_Source\PSoC5/USBUART_1_episr.c **** 
 211:Generated_Source\PSoC5/USBUART_1_episr.c ****     #if (CY_PSOC3 && defined(USBUART_1_ENABLE_MIDI_STREAMING) && \
 212:Generated_Source\PSoC5/USBUART_1_episr.c ****         !defined(USBUART_1_MAIN_SERVICE_MIDI_OUT) && USBUART_1_ISR_SERVICE_MIDI_OUT)
 213:Generated_Source\PSoC5/USBUART_1_episr.c ****         {
 214:Generated_Source\PSoC5/USBUART_1_episr.c ****             uint8 intEn = EA;
 215:Generated_Source\PSoC5/USBUART_1_episr.c ****             CyGlobalIntEnable;  /* Enable nested interrupts. */
 216:Generated_Source\PSoC5/USBUART_1_episr.c ****     #endif /* (CY_PSOC3 && USBUART_1_ISR_SERVICE_MIDI_OUT) */
 217:Generated_Source\PSoC5/USBUART_1_episr.c **** 
 218:Generated_Source\PSoC5/USBUART_1_episr.c ****         USBUART_1_ClearSieEpInterruptSource(USBUART_1_SIE_INT_EP3_INTR);    
 116              		.loc 1 218 0
 117 0000 0B4B     		ldr	r3, .L20
 118 0002 0422     		movs	r2, #4
 119 0004 1A70     		strb	r2, [r3]
 219:Generated_Source\PSoC5/USBUART_1_episr.c **** 
 220:Generated_Source\PSoC5/USBUART_1_episr.c ****         /* Notifies user that transfer IN or OUT transfer is completed.
 221:Generated_Source\PSoC5/USBUART_1_episr.c ****         * IN endpoint: endpoint buffer can be reloaded, Host is read data.
 222:Generated_Source\PSoC5/USBUART_1_episr.c ****         * OUT endpoint: data is ready to be read from endpoint buffer. 
 223:Generated_Source\PSoC5/USBUART_1_episr.c ****         */
ARM GAS  C:\Users\Luggi\AppData\Local\Temp\ccf9q2kk.s 			page 7


 224:Generated_Source\PSoC5/USBUART_1_episr.c ****     #if (CY_PSOC4 && USBUART_1_EP_MANAGEMENT_DMA_AUTO)
 225:Generated_Source\PSoC5/USBUART_1_episr.c ****         if (0u != (USBUART_1_EP[USBUART_1_EP3].addr & USBUART_1_DIR_IN))
 226:Generated_Source\PSoC5/USBUART_1_episr.c ****     #endif /* (USBUART_1_EP_MANAGEMENT_DMA_AUTO) */
 227:Generated_Source\PSoC5/USBUART_1_episr.c ****         {            
 228:Generated_Source\PSoC5/USBUART_1_episr.c ****             /* Read CR0 register to clear SIE lock. */
 229:Generated_Source\PSoC5/USBUART_1_episr.c ****             (void) USBUART_1_SIE_EP_BASE.sieEp[USBUART_1_EP3].epCr0;
 120              		.loc 1 229 0
 121 0006 0F3B     		subs	r3, r3, #15
 122 0008 93F83230 		ldrb	r3, [r3, #50]	@ zero_extendqisi2
 230:Generated_Source\PSoC5/USBUART_1_episr.c **** 
 231:Generated_Source\PSoC5/USBUART_1_episr.c ****             /* Toggle all endpoint types except ISOC. */
 232:Generated_Source\PSoC5/USBUART_1_episr.c ****             if (USBUART_1_GET_EP_TYPE(USBUART_1_EP3) != USBUART_1_EP_TYPE_ISOC)
 123              		.loc 1 232 0
 124 000c 094B     		ldr	r3, .L20+4
 125 000e 93F82420 		ldrb	r2, [r3, #36]	@ zero_extendqisi2
 126 0012 02F00302 		and	r2, r2, #3
 127 0016 012A     		cmp	r2, #1
 233:Generated_Source\PSoC5/USBUART_1_episr.c ****             {
 234:Generated_Source\PSoC5/USBUART_1_episr.c ****                 USBUART_1_EP[USBUART_1_EP3].epToggle ^= USBUART_1_EPX_CNT_DATA_TOGGLE;
 128              		.loc 1 234 0
 129 0018 1EBF     		ittt	ne
 130 001a 93F82720 		ldrbne	r2, [r3, #39]	@ zero_extendqisi2
 131 001e 82F08002 		eorne	r2, r2, #128
 132 0022 83F82720 		strbne	r2, [r3, #39]
 235:Generated_Source\PSoC5/USBUART_1_episr.c ****             }
 236:Generated_Source\PSoC5/USBUART_1_episr.c **** 
 237:Generated_Source\PSoC5/USBUART_1_episr.c ****             /* EP_MANAGEMENT_DMA_AUTO (Ticket ID# 214187): For OUT endpoint this event is used to n
 238:Generated_Source\PSoC5/USBUART_1_episr.c ****             * user that DMA has completed copying data from OUT endpoint which is not completely tr
 239:Generated_Source\PSoC5/USBUART_1_episr.c ****             * Because last chunk of data is being copied.
 240:Generated_Source\PSoC5/USBUART_1_episr.c ****             * For CY_PSOC 3/5LP: it is acceptable as DMA is really fast.
 241:Generated_Source\PSoC5/USBUART_1_episr.c ****             * For CY_PSOC4: this event is set in Arbiter interrupt (source is DMA_TERMIN).
 242:Generated_Source\PSoC5/USBUART_1_episr.c ****             */
 243:Generated_Source\PSoC5/USBUART_1_episr.c ****             USBUART_1_EP[USBUART_1_EP3].apiEpState = USBUART_1_EVENT_PENDING;
 133              		.loc 1 243 0
 134 0026 0122     		movs	r2, #1
 135 0028 83F82520 		strb	r2, [r3, #37]
 136 002c 7047     		bx	lr
 137              	.L21:
 138 002e 00BF     		.align	2
 139              	.L20:
 140 0030 0B600040 		.word	1073766411
 141 0034 00000000 		.word	USBUART_1_EP
 142              		.cfi_endproc
 143              	.LFE2:
 144              		.size	USBUART_1_EP_3_ISR, .-USBUART_1_EP_3_ISR
 145              		.section	.text.USBUART_1_EP_4_ISR,"ax",%progbits
 146              		.align	1
 147              		.global	USBUART_1_EP_4_ISR
 148              		.thumb
 149              		.thumb_func
 150              		.type	USBUART_1_EP_4_ISR, %function
 151              	USBUART_1_EP_4_ISR:
 152              	.LFB3:
 244:Generated_Source\PSoC5/USBUART_1_episr.c ****         }
 245:Generated_Source\PSoC5/USBUART_1_episr.c **** 
 246:Generated_Source\PSoC5/USBUART_1_episr.c ****     #if (!(CY_PSOC4 && USBUART_1_EP_MANAGEMENT_DMA_AUTO))
 247:Generated_Source\PSoC5/USBUART_1_episr.c ****         #if (defined(USBUART_1_ENABLE_MIDI_STREAMING) && \
ARM GAS  C:\Users\Luggi\AppData\Local\Temp\ccf9q2kk.s 			page 8


 248:Generated_Source\PSoC5/USBUART_1_episr.c ****             !defined(USBUART_1_MAIN_SERVICE_MIDI_OUT) && USBUART_1_ISR_SERVICE_MIDI_OUT)
 249:Generated_Source\PSoC5/USBUART_1_episr.c ****             if (USBUART_1_midi_out_ep == USBUART_1_EP3)
 250:Generated_Source\PSoC5/USBUART_1_episr.c ****             {
 251:Generated_Source\PSoC5/USBUART_1_episr.c ****                 USBUART_1_MIDI_OUT_Service();
 252:Generated_Source\PSoC5/USBUART_1_episr.c ****             }
 253:Generated_Source\PSoC5/USBUART_1_episr.c ****         #endif /* (USBUART_1_ISR_SERVICE_MIDI_OUT) */
 254:Generated_Source\PSoC5/USBUART_1_episr.c ****     #endif /* (!(CY_PSOC4 && USBUART_1_EP_MANAGEMENT_DMA_AUTO)) */        
 255:Generated_Source\PSoC5/USBUART_1_episr.c **** 
 256:Generated_Source\PSoC5/USBUART_1_episr.c ****         /* `#START EP3_END_USER_CODE` Place your code here */
 257:Generated_Source\PSoC5/USBUART_1_episr.c **** 
 258:Generated_Source\PSoC5/USBUART_1_episr.c ****         /* `#END` */
 259:Generated_Source\PSoC5/USBUART_1_episr.c **** 
 260:Generated_Source\PSoC5/USBUART_1_episr.c ****     #ifdef USBUART_1_EP_3_ISR_EXIT_CALLBACK
 261:Generated_Source\PSoC5/USBUART_1_episr.c ****         USBUART_1_EP_3_ISR_ExitCallback();
 262:Generated_Source\PSoC5/USBUART_1_episr.c ****     #endif /* (USBUART_1_EP_3_ISR_EXIT_CALLBACK) */
 263:Generated_Source\PSoC5/USBUART_1_episr.c **** 
 264:Generated_Source\PSoC5/USBUART_1_episr.c ****     #if (CY_PSOC3 && defined(USBUART_1_ENABLE_MIDI_STREAMING) && \
 265:Generated_Source\PSoC5/USBUART_1_episr.c ****         !defined(USBUART_1_MAIN_SERVICE_MIDI_OUT) && USBUART_1_ISR_SERVICE_MIDI_OUT)
 266:Generated_Source\PSoC5/USBUART_1_episr.c ****         
 267:Generated_Source\PSoC5/USBUART_1_episr.c ****             EA = intEn; /* Restore nested interrupt configuration. */
 268:Generated_Source\PSoC5/USBUART_1_episr.c ****         }
 269:Generated_Source\PSoC5/USBUART_1_episr.c ****     #endif /* (CY_PSOC3 && USBUART_1_ISR_SERVICE_MIDI_OUT) */
 270:Generated_Source\PSoC5/USBUART_1_episr.c ****     }
 271:Generated_Source\PSoC5/USBUART_1_episr.c **** #endif /* (USBUART_1_EP3_ISR_ACTIVE) */
 272:Generated_Source\PSoC5/USBUART_1_episr.c **** 
 273:Generated_Source\PSoC5/USBUART_1_episr.c **** 
 274:Generated_Source\PSoC5/USBUART_1_episr.c **** #if (USBUART_1_EP4_ISR_ACTIVE)
 275:Generated_Source\PSoC5/USBUART_1_episr.c ****     /*******************************************************************************
 276:Generated_Source\PSoC5/USBUART_1_episr.c ****     * Function Name: USBUART_1_EP_4_ISR
 277:Generated_Source\PSoC5/USBUART_1_episr.c ****     ****************************************************************************//**
 278:Generated_Source\PSoC5/USBUART_1_episr.c ****     *
 279:Generated_Source\PSoC5/USBUART_1_episr.c ****     *  Endpoint 4 Interrupt Service Routine.
 280:Generated_Source\PSoC5/USBUART_1_episr.c ****     *
 281:Generated_Source\PSoC5/USBUART_1_episr.c ****     *******************************************************************************/
 282:Generated_Source\PSoC5/USBUART_1_episr.c ****     CY_ISR(USBUART_1_EP_4_ISR)
 283:Generated_Source\PSoC5/USBUART_1_episr.c ****     {
 153              		.loc 1 283 0
 154              		.cfi_startproc
 155              		@ args = 0, pretend = 0, frame = 0
 156              		@ frame_needed = 0, uses_anonymous_args = 0
 157              		@ link register save eliminated.
 284:Generated_Source\PSoC5/USBUART_1_episr.c ****     #ifdef USBUART_1_EP_4_ISR_ENTRY_CALLBACK
 285:Generated_Source\PSoC5/USBUART_1_episr.c ****         USBUART_1_EP_4_ISR_EntryCallback();
 286:Generated_Source\PSoC5/USBUART_1_episr.c ****     #endif /* (USBUART_1_EP_4_ISR_ENTRY_CALLBACK) */
 287:Generated_Source\PSoC5/USBUART_1_episr.c **** 
 288:Generated_Source\PSoC5/USBUART_1_episr.c ****         /* `#START EP4_USER_CODE` Place your code here */
 289:Generated_Source\PSoC5/USBUART_1_episr.c **** 
 290:Generated_Source\PSoC5/USBUART_1_episr.c ****         /* `#END` */
 291:Generated_Source\PSoC5/USBUART_1_episr.c **** 
 292:Generated_Source\PSoC5/USBUART_1_episr.c ****     #if (CY_PSOC3 && defined(USBUART_1_ENABLE_MIDI_STREAMING) && \
 293:Generated_Source\PSoC5/USBUART_1_episr.c ****         !defined(USBUART_1_MAIN_SERVICE_MIDI_OUT) && USBUART_1_ISR_SERVICE_MIDI_OUT)
 294:Generated_Source\PSoC5/USBUART_1_episr.c ****         {
 295:Generated_Source\PSoC5/USBUART_1_episr.c ****             uint8 intEn = EA;
 296:Generated_Source\PSoC5/USBUART_1_episr.c ****             CyGlobalIntEnable;  /* Enable nested interrupts. */
 297:Generated_Source\PSoC5/USBUART_1_episr.c ****     #endif /* (CY_PSOC3 && USBUART_1_ISR_SERVICE_MIDI_OUT) */
 298:Generated_Source\PSoC5/USBUART_1_episr.c **** 
 299:Generated_Source\PSoC5/USBUART_1_episr.c ****         USBUART_1_ClearSieEpInterruptSource(USBUART_1_SIE_INT_EP4_INTR);
ARM GAS  C:\Users\Luggi\AppData\Local\Temp\ccf9q2kk.s 			page 9


 158              		.loc 1 299 0
 159 0000 0B4B     		ldr	r3, .L27
 160 0002 0822     		movs	r2, #8
 161 0004 1A70     		strb	r2, [r3]
 300:Generated_Source\PSoC5/USBUART_1_episr.c ****         
 301:Generated_Source\PSoC5/USBUART_1_episr.c ****         /* Notifies user that transfer IN or OUT transfer is completed.
 302:Generated_Source\PSoC5/USBUART_1_episr.c ****         * IN endpoint: endpoint buffer can be reloaded, Host is read data.
 303:Generated_Source\PSoC5/USBUART_1_episr.c ****         * OUT endpoint: data is ready to read from endpoint buffer. 
 304:Generated_Source\PSoC5/USBUART_1_episr.c ****         */
 305:Generated_Source\PSoC5/USBUART_1_episr.c ****     #if (CY_PSOC4 && USBUART_1_EP_MANAGEMENT_DMA_AUTO)
 306:Generated_Source\PSoC5/USBUART_1_episr.c ****         if (0u != (USBUART_1_EP[USBUART_1_EP4].addr & USBUART_1_DIR_IN))
 307:Generated_Source\PSoC5/USBUART_1_episr.c ****     #endif /* (USBUART_1_EP_MANAGEMENT_DMA_AUTO) */
 308:Generated_Source\PSoC5/USBUART_1_episr.c ****         {
 309:Generated_Source\PSoC5/USBUART_1_episr.c ****             /* Read CR0 register to clear SIE lock. */
 310:Generated_Source\PSoC5/USBUART_1_episr.c ****             (void) USBUART_1_SIE_EP_BASE.sieEp[USBUART_1_EP4].epCr0;
 162              		.loc 1 310 0
 163 0006 0F3B     		subs	r3, r3, #15
 164 0008 93F84230 		ldrb	r3, [r3, #66]	@ zero_extendqisi2
 311:Generated_Source\PSoC5/USBUART_1_episr.c **** 
 312:Generated_Source\PSoC5/USBUART_1_episr.c ****             /* Toggle all endpoint types except ISOC. */
 313:Generated_Source\PSoC5/USBUART_1_episr.c ****             if (USBUART_1_GET_EP_TYPE(USBUART_1_EP4) != USBUART_1_EP_TYPE_ISOC)
 165              		.loc 1 313 0
 166 000c 094B     		ldr	r3, .L27+4
 167 000e 93F83020 		ldrb	r2, [r3, #48]	@ zero_extendqisi2
 168 0012 02F00302 		and	r2, r2, #3
 169 0016 012A     		cmp	r2, #1
 314:Generated_Source\PSoC5/USBUART_1_episr.c ****             {
 315:Generated_Source\PSoC5/USBUART_1_episr.c ****                 USBUART_1_EP[USBUART_1_EP4].epToggle ^= USBUART_1_EPX_CNT_DATA_TOGGLE;
 170              		.loc 1 315 0
 171 0018 1EBF     		ittt	ne
 172 001a 93F83320 		ldrbne	r2, [r3, #51]	@ zero_extendqisi2
 173 001e 82F08002 		eorne	r2, r2, #128
 174 0022 83F83320 		strbne	r2, [r3, #51]
 316:Generated_Source\PSoC5/USBUART_1_episr.c ****             }
 317:Generated_Source\PSoC5/USBUART_1_episr.c **** 
 318:Generated_Source\PSoC5/USBUART_1_episr.c ****             /* EP_MANAGEMENT_DMA_AUTO (Ticket ID# 214187): For OUT endpoint this event is used to n
 319:Generated_Source\PSoC5/USBUART_1_episr.c ****             * user that DMA has completed copying data from OUT endpoint which is not completely tr
 320:Generated_Source\PSoC5/USBUART_1_episr.c ****             * Because last chunk of data is being copied.
 321:Generated_Source\PSoC5/USBUART_1_episr.c ****             * For CY_PSOC 3/5LP: it is acceptable as DMA is really fast.
 322:Generated_Source\PSoC5/USBUART_1_episr.c ****             * For CY_PSOC4: this event is set in Arbiter interrupt (source is DMA_TERMIN).
 323:Generated_Source\PSoC5/USBUART_1_episr.c ****             */
 324:Generated_Source\PSoC5/USBUART_1_episr.c ****             USBUART_1_EP[USBUART_1_EP4].apiEpState = USBUART_1_EVENT_PENDING;
 175              		.loc 1 324 0
 176 0026 0122     		movs	r2, #1
 177 0028 83F83120 		strb	r2, [r3, #49]
 178 002c 7047     		bx	lr
 179              	.L28:
 180 002e 00BF     		.align	2
 181              	.L27:
 182 0030 0B600040 		.word	1073766411
 183 0034 00000000 		.word	USBUART_1_EP
 184              		.cfi_endproc
 185              	.LFE3:
 186              		.size	USBUART_1_EP_4_ISR, .-USBUART_1_EP_4_ISR
 187              		.section	.text.USBUART_1_EP_5_ISR,"ax",%progbits
 188              		.align	1
 189              		.global	USBUART_1_EP_5_ISR
ARM GAS  C:\Users\Luggi\AppData\Local\Temp\ccf9q2kk.s 			page 10


 190              		.thumb
 191              		.thumb_func
 192              		.type	USBUART_1_EP_5_ISR, %function
 193              	USBUART_1_EP_5_ISR:
 194              	.LFB4:
 325:Generated_Source\PSoC5/USBUART_1_episr.c ****         }
 326:Generated_Source\PSoC5/USBUART_1_episr.c **** 
 327:Generated_Source\PSoC5/USBUART_1_episr.c ****     #if (!(CY_PSOC4 && USBUART_1_EP_MANAGEMENT_DMA_AUTO))
 328:Generated_Source\PSoC5/USBUART_1_episr.c ****         #if (defined(USBUART_1_ENABLE_MIDI_STREAMING) && \
 329:Generated_Source\PSoC5/USBUART_1_episr.c ****             !defined(USBUART_1_MAIN_SERVICE_MIDI_OUT) && USBUART_1_ISR_SERVICE_MIDI_OUT)
 330:Generated_Source\PSoC5/USBUART_1_episr.c ****             if(USBUART_1_midi_out_ep == USBUART_1_EP4)
 331:Generated_Source\PSoC5/USBUART_1_episr.c ****             {
 332:Generated_Source\PSoC5/USBUART_1_episr.c ****                 USBUART_1_MIDI_OUT_Service();
 333:Generated_Source\PSoC5/USBUART_1_episr.c ****             }
 334:Generated_Source\PSoC5/USBUART_1_episr.c ****         #endif /* (USBUART_1_ISR_SERVICE_MIDI_OUT) */
 335:Generated_Source\PSoC5/USBUART_1_episr.c ****     #endif /* (!(CY_PSOC4 && USBUART_1_EP_MANAGEMENT_DMA_AUTO)) */        
 336:Generated_Source\PSoC5/USBUART_1_episr.c **** 
 337:Generated_Source\PSoC5/USBUART_1_episr.c ****         /* `#START EP4_END_USER_CODE` Place your code here */
 338:Generated_Source\PSoC5/USBUART_1_episr.c **** 
 339:Generated_Source\PSoC5/USBUART_1_episr.c ****         /* `#END` */
 340:Generated_Source\PSoC5/USBUART_1_episr.c **** 
 341:Generated_Source\PSoC5/USBUART_1_episr.c ****     #ifdef USBUART_1_EP_4_ISR_EXIT_CALLBACK
 342:Generated_Source\PSoC5/USBUART_1_episr.c ****         USBUART_1_EP_4_ISR_ExitCallback();
 343:Generated_Source\PSoC5/USBUART_1_episr.c ****     #endif /* (USBUART_1_EP_4_ISR_EXIT_CALLBACK) */
 344:Generated_Source\PSoC5/USBUART_1_episr.c **** 
 345:Generated_Source\PSoC5/USBUART_1_episr.c ****     #if (CY_PSOC3 && defined(USBUART_1_ENABLE_MIDI_STREAMING) && \
 346:Generated_Source\PSoC5/USBUART_1_episr.c ****         !defined(USBUART_1_MAIN_SERVICE_MIDI_OUT) && USBUART_1_ISR_SERVICE_MIDI_OUT)
 347:Generated_Source\PSoC5/USBUART_1_episr.c ****         
 348:Generated_Source\PSoC5/USBUART_1_episr.c ****             EA = intEn; /* Restore nested interrupt configuration. */
 349:Generated_Source\PSoC5/USBUART_1_episr.c ****         }
 350:Generated_Source\PSoC5/USBUART_1_episr.c ****     #endif /* (CY_PSOC3 && USBUART_1_ISR_SERVICE_MIDI_OUT) */
 351:Generated_Source\PSoC5/USBUART_1_episr.c ****     }
 352:Generated_Source\PSoC5/USBUART_1_episr.c **** #endif /* (USBUART_1_EP4_ISR_ACTIVE) */
 353:Generated_Source\PSoC5/USBUART_1_episr.c **** 
 354:Generated_Source\PSoC5/USBUART_1_episr.c **** 
 355:Generated_Source\PSoC5/USBUART_1_episr.c **** #if (USBUART_1_EP5_ISR_ACTIVE)
 356:Generated_Source\PSoC5/USBUART_1_episr.c ****     /*******************************************************************************
 357:Generated_Source\PSoC5/USBUART_1_episr.c ****     * Function Name: USBUART_1_EP_5_ISR
 358:Generated_Source\PSoC5/USBUART_1_episr.c ****     ****************************************************************************//**
 359:Generated_Source\PSoC5/USBUART_1_episr.c ****     *
 360:Generated_Source\PSoC5/USBUART_1_episr.c ****     *  Endpoint 5 Interrupt Service Routine
 361:Generated_Source\PSoC5/USBUART_1_episr.c ****     *
 362:Generated_Source\PSoC5/USBUART_1_episr.c ****     *
 363:Generated_Source\PSoC5/USBUART_1_episr.c ****     *******************************************************************************/
 364:Generated_Source\PSoC5/USBUART_1_episr.c ****     CY_ISR(USBUART_1_EP_5_ISR)
 365:Generated_Source\PSoC5/USBUART_1_episr.c ****     {
 195              		.loc 1 365 0
 196              		.cfi_startproc
 197              		@ args = 0, pretend = 0, frame = 0
 198              		@ frame_needed = 0, uses_anonymous_args = 0
 199              		@ link register save eliminated.
 366:Generated_Source\PSoC5/USBUART_1_episr.c ****     #ifdef USBUART_1_EP_5_ISR_ENTRY_CALLBACK
 367:Generated_Source\PSoC5/USBUART_1_episr.c ****         USBUART_1_EP_5_ISR_EntryCallback();
 368:Generated_Source\PSoC5/USBUART_1_episr.c ****     #endif /* (USBUART_1_EP_5_ISR_ENTRY_CALLBACK) */
 369:Generated_Source\PSoC5/USBUART_1_episr.c **** 
 370:Generated_Source\PSoC5/USBUART_1_episr.c ****         /* `#START EP5_USER_CODE` Place your code here */
 371:Generated_Source\PSoC5/USBUART_1_episr.c **** 
ARM GAS  C:\Users\Luggi\AppData\Local\Temp\ccf9q2kk.s 			page 11


 372:Generated_Source\PSoC5/USBUART_1_episr.c ****         /* `#END` */
 373:Generated_Source\PSoC5/USBUART_1_episr.c **** 
 374:Generated_Source\PSoC5/USBUART_1_episr.c ****     #if (defined(USBUART_1_ENABLE_MIDI_STREAMING) && !defined(USBUART_1_MAIN_SERVICE_MIDI_OUT) && \
 375:Generated_Source\PSoC5/USBUART_1_episr.c ****                  USBUART_1_ISR_SERVICE_MIDI_OUT && CY_PSOC3)
 376:Generated_Source\PSoC5/USBUART_1_episr.c ****         {
 377:Generated_Source\PSoC5/USBUART_1_episr.c ****             uint8 intEn = EA;
 378:Generated_Source\PSoC5/USBUART_1_episr.c ****             CyGlobalIntEnable;  /* Enable nested interrupts. */
 379:Generated_Source\PSoC5/USBUART_1_episr.c ****     #endif /* (CY_PSOC3 && USBUART_1_ISR_SERVICE_MIDI_OUT) */
 380:Generated_Source\PSoC5/USBUART_1_episr.c **** 
 381:Generated_Source\PSoC5/USBUART_1_episr.c ****         USBUART_1_ClearSieEpInterruptSource(USBUART_1_SIE_INT_EP5_INTR);
 200              		.loc 1 381 0
 201 0000 0B4B     		ldr	r3, .L34
 202 0002 1022     		movs	r2, #16
 203 0004 1A70     		strb	r2, [r3]
 382:Generated_Source\PSoC5/USBUART_1_episr.c ****     
 383:Generated_Source\PSoC5/USBUART_1_episr.c ****         /* Notifies user that transfer IN or OUT transfer is completed.
 384:Generated_Source\PSoC5/USBUART_1_episr.c ****         * IN endpoint: endpoint buffer can be reloaded, Host is read data.
 385:Generated_Source\PSoC5/USBUART_1_episr.c ****         * OUT endpoint: data is ready to read from endpoint buffer. 
 386:Generated_Source\PSoC5/USBUART_1_episr.c ****         */
 387:Generated_Source\PSoC5/USBUART_1_episr.c ****     #if (CY_PSOC4 && USBUART_1_EP_MANAGEMENT_DMA_AUTO)
 388:Generated_Source\PSoC5/USBUART_1_episr.c ****         if (0u != (USBUART_1_EP[USBUART_1_EP5].addr & USBUART_1_DIR_IN))
 389:Generated_Source\PSoC5/USBUART_1_episr.c ****     #endif /* (USBUART_1_EP_MANAGEMENT_DMA_AUTO) */
 390:Generated_Source\PSoC5/USBUART_1_episr.c ****         {            
 391:Generated_Source\PSoC5/USBUART_1_episr.c ****             /* Read CR0 register to clear SIE lock. */
 392:Generated_Source\PSoC5/USBUART_1_episr.c ****             (void) USBUART_1_SIE_EP_BASE.sieEp[USBUART_1_EP5].epCr0;
 204              		.loc 1 392 0
 205 0006 0F3B     		subs	r3, r3, #15
 206 0008 93F85230 		ldrb	r3, [r3, #82]	@ zero_extendqisi2
 393:Generated_Source\PSoC5/USBUART_1_episr.c **** 
 394:Generated_Source\PSoC5/USBUART_1_episr.c ****             /* Toggle all endpoint types except ISOC. */
 395:Generated_Source\PSoC5/USBUART_1_episr.c ****             if (USBUART_1_GET_EP_TYPE(USBUART_1_EP5) != USBUART_1_EP_TYPE_ISOC)
 207              		.loc 1 395 0
 208 000c 094B     		ldr	r3, .L34+4
 209 000e 93F83C20 		ldrb	r2, [r3, #60]	@ zero_extendqisi2
 210 0012 02F00302 		and	r2, r2, #3
 211 0016 012A     		cmp	r2, #1
 396:Generated_Source\PSoC5/USBUART_1_episr.c ****             {
 397:Generated_Source\PSoC5/USBUART_1_episr.c ****                 USBUART_1_EP[USBUART_1_EP5].epToggle ^= USBUART_1_EPX_CNT_DATA_TOGGLE;
 212              		.loc 1 397 0
 213 0018 1EBF     		ittt	ne
 214 001a 93F83F20 		ldrbne	r2, [r3, #63]	@ zero_extendqisi2
 215 001e 82F08002 		eorne	r2, r2, #128
 216 0022 83F83F20 		strbne	r2, [r3, #63]
 398:Generated_Source\PSoC5/USBUART_1_episr.c ****             }
 399:Generated_Source\PSoC5/USBUART_1_episr.c **** 
 400:Generated_Source\PSoC5/USBUART_1_episr.c ****             /* EP_MANAGEMENT_DMA_AUTO (Ticket ID# 214187): For OUT endpoint this event is used to n
 401:Generated_Source\PSoC5/USBUART_1_episr.c ****             * user that DMA has completed copying data from OUT endpoint which is not completely tr
 402:Generated_Source\PSoC5/USBUART_1_episr.c ****             * Because last chunk of data is being copied.
 403:Generated_Source\PSoC5/USBUART_1_episr.c ****             * For CY_PSOC 3/5LP: it is acceptable as DMA is really fast.
 404:Generated_Source\PSoC5/USBUART_1_episr.c ****             * For CY_PSOC4: this event is set in Arbiter interrupt (source is DMA_TERMIN).
 405:Generated_Source\PSoC5/USBUART_1_episr.c ****             */
 406:Generated_Source\PSoC5/USBUART_1_episr.c ****             USBUART_1_EP[USBUART_1_EP5].apiEpState = USBUART_1_EVENT_PENDING;
 217              		.loc 1 406 0
 218 0026 0122     		movs	r2, #1
 219 0028 83F83D20 		strb	r2, [r3, #61]
 220 002c 7047     		bx	lr
 221              	.L35:
ARM GAS  C:\Users\Luggi\AppData\Local\Temp\ccf9q2kk.s 			page 12


 222 002e 00BF     		.align	2
 223              	.L34:
 224 0030 0B600040 		.word	1073766411
 225 0034 00000000 		.word	USBUART_1_EP
 226              		.cfi_endproc
 227              	.LFE4:
 228              		.size	USBUART_1_EP_5_ISR, .-USBUART_1_EP_5_ISR
 229              		.section	.text.USBUART_1_EP_6_ISR,"ax",%progbits
 230              		.align	1
 231              		.global	USBUART_1_EP_6_ISR
 232              		.thumb
 233              		.thumb_func
 234              		.type	USBUART_1_EP_6_ISR, %function
 235              	USBUART_1_EP_6_ISR:
 236              	.LFB5:
 407:Generated_Source\PSoC5/USBUART_1_episr.c ****         }
 408:Generated_Source\PSoC5/USBUART_1_episr.c **** 
 409:Generated_Source\PSoC5/USBUART_1_episr.c ****     #if (!(CY_PSOC4 && USBUART_1_EP_MANAGEMENT_DMA_AUTO))        
 410:Generated_Source\PSoC5/USBUART_1_episr.c ****         #if (defined(USBUART_1_ENABLE_MIDI_STREAMING) && \
 411:Generated_Source\PSoC5/USBUART_1_episr.c ****             !defined(USBUART_1_MAIN_SERVICE_MIDI_OUT) && USBUART_1_ISR_SERVICE_MIDI_OUT)
 412:Generated_Source\PSoC5/USBUART_1_episr.c ****             if (USBUART_1_midi_out_ep == USBUART_1_EP5)
 413:Generated_Source\PSoC5/USBUART_1_episr.c ****             {
 414:Generated_Source\PSoC5/USBUART_1_episr.c ****                 USBUART_1_MIDI_OUT_Service();
 415:Generated_Source\PSoC5/USBUART_1_episr.c ****             }
 416:Generated_Source\PSoC5/USBUART_1_episr.c ****         #endif /* (USBUART_1_ISR_SERVICE_MIDI_OUT) */
 417:Generated_Source\PSoC5/USBUART_1_episr.c ****     #endif /* (!(CY_PSOC4 && USBUART_1_EP_MANAGEMENT_DMA_AUTO)) */
 418:Generated_Source\PSoC5/USBUART_1_episr.c **** 
 419:Generated_Source\PSoC5/USBUART_1_episr.c ****         /* `#START EP5_END_USER_CODE` Place your code here */
 420:Generated_Source\PSoC5/USBUART_1_episr.c **** 
 421:Generated_Source\PSoC5/USBUART_1_episr.c ****         /* `#END` */
 422:Generated_Source\PSoC5/USBUART_1_episr.c **** 
 423:Generated_Source\PSoC5/USBUART_1_episr.c ****     #ifdef USBUART_1_EP_5_ISR_EXIT_CALLBACK
 424:Generated_Source\PSoC5/USBUART_1_episr.c ****         USBUART_1_EP_5_ISR_ExitCallback();
 425:Generated_Source\PSoC5/USBUART_1_episr.c ****     #endif /* (USBUART_1_EP_5_ISR_EXIT_CALLBACK) */
 426:Generated_Source\PSoC5/USBUART_1_episr.c **** 
 427:Generated_Source\PSoC5/USBUART_1_episr.c ****     #if (CY_PSOC3 && defined(USBUART_1_ENABLE_MIDI_STREAMING) && \
 428:Generated_Source\PSoC5/USBUART_1_episr.c ****         !defined(USBUART_1_MAIN_SERVICE_MIDI_OUT) && USBUART_1_ISR_SERVICE_MIDI_OUT)
 429:Generated_Source\PSoC5/USBUART_1_episr.c ****         
 430:Generated_Source\PSoC5/USBUART_1_episr.c ****             EA = intEn; /* Restore nested interrupt configuration. */
 431:Generated_Source\PSoC5/USBUART_1_episr.c ****         }
 432:Generated_Source\PSoC5/USBUART_1_episr.c ****     #endif /* (CY_PSOC3 && USBUART_1_ISR_SERVICE_MIDI_OUT) */
 433:Generated_Source\PSoC5/USBUART_1_episr.c ****     }
 434:Generated_Source\PSoC5/USBUART_1_episr.c **** #endif /* (USBUART_1_EP5_ISR_ACTIVE) */
 435:Generated_Source\PSoC5/USBUART_1_episr.c **** 
 436:Generated_Source\PSoC5/USBUART_1_episr.c **** 
 437:Generated_Source\PSoC5/USBUART_1_episr.c **** #if (USBUART_1_EP6_ISR_ACTIVE)
 438:Generated_Source\PSoC5/USBUART_1_episr.c ****     /*******************************************************************************
 439:Generated_Source\PSoC5/USBUART_1_episr.c ****     * Function Name: USBUART_1_EP_6_ISR
 440:Generated_Source\PSoC5/USBUART_1_episr.c ****     ****************************************************************************//**
 441:Generated_Source\PSoC5/USBUART_1_episr.c ****     *
 442:Generated_Source\PSoC5/USBUART_1_episr.c ****     *  Endpoint 6 Interrupt Service Routine.
 443:Generated_Source\PSoC5/USBUART_1_episr.c ****     *
 444:Generated_Source\PSoC5/USBUART_1_episr.c ****     *
 445:Generated_Source\PSoC5/USBUART_1_episr.c ****     *******************************************************************************/
 446:Generated_Source\PSoC5/USBUART_1_episr.c ****     CY_ISR(USBUART_1_EP_6_ISR)
 447:Generated_Source\PSoC5/USBUART_1_episr.c ****     {
 237              		.loc 1 447 0
ARM GAS  C:\Users\Luggi\AppData\Local\Temp\ccf9q2kk.s 			page 13


 238              		.cfi_startproc
 239              		@ args = 0, pretend = 0, frame = 0
 240              		@ frame_needed = 0, uses_anonymous_args = 0
 241              		@ link register save eliminated.
 448:Generated_Source\PSoC5/USBUART_1_episr.c ****     #ifdef USBUART_1_EP_6_ISR_ENTRY_CALLBACK
 449:Generated_Source\PSoC5/USBUART_1_episr.c ****         USBUART_1_EP_6_ISR_EntryCallback();
 450:Generated_Source\PSoC5/USBUART_1_episr.c ****     #endif /* (USBUART_1_EP_6_ISR_ENTRY_CALLBACK) */
 451:Generated_Source\PSoC5/USBUART_1_episr.c **** 
 452:Generated_Source\PSoC5/USBUART_1_episr.c ****         /* `#START EP6_USER_CODE` Place your code here */
 453:Generated_Source\PSoC5/USBUART_1_episr.c **** 
 454:Generated_Source\PSoC5/USBUART_1_episr.c ****         /* `#END` */
 455:Generated_Source\PSoC5/USBUART_1_episr.c **** 
 456:Generated_Source\PSoC5/USBUART_1_episr.c ****     #if (CY_PSOC3 && defined(USBUART_1_ENABLE_MIDI_STREAMING) && \
 457:Generated_Source\PSoC5/USBUART_1_episr.c ****         !defined(USBUART_1_MAIN_SERVICE_MIDI_OUT) && USBUART_1_ISR_SERVICE_MIDI_OUT)
 458:Generated_Source\PSoC5/USBUART_1_episr.c ****         {
 459:Generated_Source\PSoC5/USBUART_1_episr.c ****             uint8 intEn = EA;
 460:Generated_Source\PSoC5/USBUART_1_episr.c ****             CyGlobalIntEnable;  /* Enable nested interrupts. */
 461:Generated_Source\PSoC5/USBUART_1_episr.c ****     #endif /* (CY_PSOC3 && USBUART_1_ISR_SERVICE_MIDI_OUT) */
 462:Generated_Source\PSoC5/USBUART_1_episr.c **** 
 463:Generated_Source\PSoC5/USBUART_1_episr.c ****         USBUART_1_ClearSieEpInterruptSource(USBUART_1_SIE_INT_EP6_INTR);
 242              		.loc 1 463 0
 243 0000 0B4B     		ldr	r3, .L41
 244 0002 2022     		movs	r2, #32
 245 0004 1A70     		strb	r2, [r3]
 464:Generated_Source\PSoC5/USBUART_1_episr.c ****         
 465:Generated_Source\PSoC5/USBUART_1_episr.c ****         /* Notifies user that transfer IN or OUT transfer is completed.
 466:Generated_Source\PSoC5/USBUART_1_episr.c ****         * IN endpoint: endpoint buffer can be reloaded, Host is read data.
 467:Generated_Source\PSoC5/USBUART_1_episr.c ****         * OUT endpoint: data is ready to read from endpoint buffer. 
 468:Generated_Source\PSoC5/USBUART_1_episr.c ****         */
 469:Generated_Source\PSoC5/USBUART_1_episr.c ****     #if (CY_PSOC4 && USBUART_1_EP_MANAGEMENT_DMA_AUTO)
 470:Generated_Source\PSoC5/USBUART_1_episr.c ****         if (0u != (USBUART_1_EP[USBUART_1_EP6].addr & USBUART_1_DIR_IN))
 471:Generated_Source\PSoC5/USBUART_1_episr.c ****     #endif /* (USBUART_1_EP_MANAGEMENT_DMA_AUTO) */
 472:Generated_Source\PSoC5/USBUART_1_episr.c ****         {
 473:Generated_Source\PSoC5/USBUART_1_episr.c ****             /* Read CR0 register to clear SIE lock. */
 474:Generated_Source\PSoC5/USBUART_1_episr.c ****             (void) USBUART_1_SIE_EP_BASE.sieEp[USBUART_1_EP6].epCr0;
 246              		.loc 1 474 0
 247 0006 0F3B     		subs	r3, r3, #15
 248 0008 93F86230 		ldrb	r3, [r3, #98]	@ zero_extendqisi2
 475:Generated_Source\PSoC5/USBUART_1_episr.c **** 
 476:Generated_Source\PSoC5/USBUART_1_episr.c ****             /* Toggle all endpoint types except ISOC. */
 477:Generated_Source\PSoC5/USBUART_1_episr.c ****             if (USBUART_1_GET_EP_TYPE(USBUART_1_EP6) != USBUART_1_EP_TYPE_ISOC)
 249              		.loc 1 477 0
 250 000c 094B     		ldr	r3, .L41+4
 251 000e 93F84820 		ldrb	r2, [r3, #72]	@ zero_extendqisi2
 252 0012 02F00302 		and	r2, r2, #3
 253 0016 012A     		cmp	r2, #1
 478:Generated_Source\PSoC5/USBUART_1_episr.c ****             {
 479:Generated_Source\PSoC5/USBUART_1_episr.c ****                 USBUART_1_EP[USBUART_1_EP6].epToggle ^= USBUART_1_EPX_CNT_DATA_TOGGLE;
 254              		.loc 1 479 0
 255 0018 1EBF     		ittt	ne
 256 001a 93F84B20 		ldrbne	r2, [r3, #75]	@ zero_extendqisi2
 257 001e 82F08002 		eorne	r2, r2, #128
 258 0022 83F84B20 		strbne	r2, [r3, #75]
 480:Generated_Source\PSoC5/USBUART_1_episr.c ****             }
 481:Generated_Source\PSoC5/USBUART_1_episr.c ****             
 482:Generated_Source\PSoC5/USBUART_1_episr.c ****             /* EP_MANAGEMENT_DMA_AUTO (Ticket ID# 214187): For OUT endpoint this event is used to n
 483:Generated_Source\PSoC5/USBUART_1_episr.c ****             * user that DMA has completed copying data from OUT endpoint which is not completely tr
ARM GAS  C:\Users\Luggi\AppData\Local\Temp\ccf9q2kk.s 			page 14


 484:Generated_Source\PSoC5/USBUART_1_episr.c ****             * Because last chunk of data is being copied.
 485:Generated_Source\PSoC5/USBUART_1_episr.c ****             * For CY_PSOC 3/5LP: it is acceptable as DMA is really fast.
 486:Generated_Source\PSoC5/USBUART_1_episr.c ****             * For CY_PSOC4: this event is set in Arbiter interrupt (source is DMA_TERMIN).
 487:Generated_Source\PSoC5/USBUART_1_episr.c ****             */
 488:Generated_Source\PSoC5/USBUART_1_episr.c ****             USBUART_1_EP[USBUART_1_EP6].apiEpState = USBUART_1_EVENT_PENDING;
 259              		.loc 1 488 0
 260 0026 0122     		movs	r2, #1
 261 0028 83F84920 		strb	r2, [r3, #73]
 262 002c 7047     		bx	lr
 263              	.L42:
 264 002e 00BF     		.align	2
 265              	.L41:
 266 0030 0B600040 		.word	1073766411
 267 0034 00000000 		.word	USBUART_1_EP
 268              		.cfi_endproc
 269              	.LFE5:
 270              		.size	USBUART_1_EP_6_ISR, .-USBUART_1_EP_6_ISR
 271              		.section	.text.USBUART_1_SOF_ISR,"ax",%progbits
 272              		.align	1
 273              		.global	USBUART_1_SOF_ISR
 274              		.thumb
 275              		.thumb_func
 276              		.type	USBUART_1_SOF_ISR, %function
 277              	USBUART_1_SOF_ISR:
 278              	.LFB6:
 489:Generated_Source\PSoC5/USBUART_1_episr.c ****         }
 490:Generated_Source\PSoC5/USBUART_1_episr.c **** 
 491:Generated_Source\PSoC5/USBUART_1_episr.c ****     #if (!(CY_PSOC4 && USBUART_1_EP_MANAGEMENT_DMA_AUTO))
 492:Generated_Source\PSoC5/USBUART_1_episr.c ****         #if (defined(USBUART_1_ENABLE_MIDI_STREAMING) && \
 493:Generated_Source\PSoC5/USBUART_1_episr.c ****             !defined(USBUART_1_MAIN_SERVICE_MIDI_OUT) && USBUART_1_ISR_SERVICE_MIDI_OUT)
 494:Generated_Source\PSoC5/USBUART_1_episr.c ****             if (USBUART_1_midi_out_ep == USBUART_1_EP6)
 495:Generated_Source\PSoC5/USBUART_1_episr.c ****             {
 496:Generated_Source\PSoC5/USBUART_1_episr.c ****                 USBUART_1_MIDI_OUT_Service();
 497:Generated_Source\PSoC5/USBUART_1_episr.c ****             }
 498:Generated_Source\PSoC5/USBUART_1_episr.c ****         #endif /* (USBUART_1_ISR_SERVICE_MIDI_OUT) */
 499:Generated_Source\PSoC5/USBUART_1_episr.c ****     #endif /* (!(CY_PSOC4 && USBUART_1_EP_MANAGEMENT_DMA_AUTO)) */
 500:Generated_Source\PSoC5/USBUART_1_episr.c **** 
 501:Generated_Source\PSoC5/USBUART_1_episr.c ****         /* `#START EP6_END_USER_CODE` Place your code here */
 502:Generated_Source\PSoC5/USBUART_1_episr.c **** 
 503:Generated_Source\PSoC5/USBUART_1_episr.c ****         /* `#END` */
 504:Generated_Source\PSoC5/USBUART_1_episr.c **** 
 505:Generated_Source\PSoC5/USBUART_1_episr.c ****     #ifdef USBUART_1_EP_6_ISR_EXIT_CALLBACK
 506:Generated_Source\PSoC5/USBUART_1_episr.c ****         USBUART_1_EP_6_ISR_ExitCallback();
 507:Generated_Source\PSoC5/USBUART_1_episr.c ****     #endif /* (USBUART_1_EP_6_ISR_EXIT_CALLBACK) */
 508:Generated_Source\PSoC5/USBUART_1_episr.c **** 
 509:Generated_Source\PSoC5/USBUART_1_episr.c ****     #if (CY_PSOC3 && defined(USBUART_1_ENABLE_MIDI_STREAMING) && \
 510:Generated_Source\PSoC5/USBUART_1_episr.c ****         !defined(USBUART_1_MAIN_SERVICE_MIDI_OUT) && USBUART_1_ISR_SERVICE_MIDI_OUT)
 511:Generated_Source\PSoC5/USBUART_1_episr.c ****         
 512:Generated_Source\PSoC5/USBUART_1_episr.c ****             EA = intEn; /* Restore nested interrupt configuration. */
 513:Generated_Source\PSoC5/USBUART_1_episr.c ****         }
 514:Generated_Source\PSoC5/USBUART_1_episr.c ****     #endif /* (CY_PSOC3 && USBUART_1_ISR_SERVICE_MIDI_OUT) */
 515:Generated_Source\PSoC5/USBUART_1_episr.c ****     }
 516:Generated_Source\PSoC5/USBUART_1_episr.c **** #endif /* (USBUART_1_EP6_ISR_ACTIVE) */
 517:Generated_Source\PSoC5/USBUART_1_episr.c **** 
 518:Generated_Source\PSoC5/USBUART_1_episr.c **** 
 519:Generated_Source\PSoC5/USBUART_1_episr.c **** #if (USBUART_1_EP7_ISR_ACTIVE)
 520:Generated_Source\PSoC5/USBUART_1_episr.c ****     /*******************************************************************************
ARM GAS  C:\Users\Luggi\AppData\Local\Temp\ccf9q2kk.s 			page 15


 521:Generated_Source\PSoC5/USBUART_1_episr.c ****     * Function Name: USBUART_1_EP_7_ISR
 522:Generated_Source\PSoC5/USBUART_1_episr.c ****     ****************************************************************************//**
 523:Generated_Source\PSoC5/USBUART_1_episr.c ****     *
 524:Generated_Source\PSoC5/USBUART_1_episr.c ****     *  Endpoint 7 Interrupt Service Routine.
 525:Generated_Source\PSoC5/USBUART_1_episr.c ****     *
 526:Generated_Source\PSoC5/USBUART_1_episr.c ****     *
 527:Generated_Source\PSoC5/USBUART_1_episr.c ****     *******************************************************************************/
 528:Generated_Source\PSoC5/USBUART_1_episr.c ****     CY_ISR(USBUART_1_EP_7_ISR)
 529:Generated_Source\PSoC5/USBUART_1_episr.c ****     {
 530:Generated_Source\PSoC5/USBUART_1_episr.c ****     #ifdef USBUART_1_EP_7_ISR_ENTRY_CALLBACK
 531:Generated_Source\PSoC5/USBUART_1_episr.c ****         USBUART_1_EP_7_ISR_EntryCallback();
 532:Generated_Source\PSoC5/USBUART_1_episr.c ****     #endif /* (USBUART_1_EP_7_ISR_ENTRY_CALLBACK) */
 533:Generated_Source\PSoC5/USBUART_1_episr.c **** 
 534:Generated_Source\PSoC5/USBUART_1_episr.c ****         /* `#START EP7_USER_CODE` Place your code here */
 535:Generated_Source\PSoC5/USBUART_1_episr.c **** 
 536:Generated_Source\PSoC5/USBUART_1_episr.c ****         /* `#END` */
 537:Generated_Source\PSoC5/USBUART_1_episr.c **** 
 538:Generated_Source\PSoC5/USBUART_1_episr.c ****     #if (CY_PSOC3 && defined(USBUART_1_ENABLE_MIDI_STREAMING) && \
 539:Generated_Source\PSoC5/USBUART_1_episr.c ****         !defined(USBUART_1_MAIN_SERVICE_MIDI_OUT) && USBUART_1_ISR_SERVICE_MIDI_OUT)
 540:Generated_Source\PSoC5/USBUART_1_episr.c ****         {
 541:Generated_Source\PSoC5/USBUART_1_episr.c ****             uint8 intEn = EA;
 542:Generated_Source\PSoC5/USBUART_1_episr.c ****             CyGlobalIntEnable;  /* Enable nested interrupts. */
 543:Generated_Source\PSoC5/USBUART_1_episr.c ****     #endif /* (CY_PSOC3 && USBUART_1_ISR_SERVICE_MIDI_OUT) */
 544:Generated_Source\PSoC5/USBUART_1_episr.c ****     
 545:Generated_Source\PSoC5/USBUART_1_episr.c ****         USBUART_1_ClearSieEpInterruptSource(USBUART_1_SIE_INT_EP7_INTR);
 546:Generated_Source\PSoC5/USBUART_1_episr.c ****         
 547:Generated_Source\PSoC5/USBUART_1_episr.c ****         /* Notifies user that transfer IN or OUT transfer is completed.
 548:Generated_Source\PSoC5/USBUART_1_episr.c ****         * IN endpoint: endpoint buffer can be reloaded, Host is read data.
 549:Generated_Source\PSoC5/USBUART_1_episr.c ****         * OUT endpoint: data is ready to read from endpoint buffer. 
 550:Generated_Source\PSoC5/USBUART_1_episr.c ****         */
 551:Generated_Source\PSoC5/USBUART_1_episr.c ****     #if (CY_PSOC4 && USBUART_1_EP_MANAGEMENT_DMA_AUTO)
 552:Generated_Source\PSoC5/USBUART_1_episr.c ****         if (0u != (USBUART_1_EP[USBUART_1_EP7].addr & USBUART_1_DIR_IN))
 553:Generated_Source\PSoC5/USBUART_1_episr.c ****     #endif /* (USBUART_1_EP_MANAGEMENT_DMA_AUTO) */
 554:Generated_Source\PSoC5/USBUART_1_episr.c ****         {           
 555:Generated_Source\PSoC5/USBUART_1_episr.c ****             /* Read CR0 register to clear SIE lock. */
 556:Generated_Source\PSoC5/USBUART_1_episr.c ****             (void) USBUART_1_SIE_EP_BASE.sieEp[USBUART_1_EP7].epCr0;
 557:Generated_Source\PSoC5/USBUART_1_episr.c **** 
 558:Generated_Source\PSoC5/USBUART_1_episr.c ****             /* Toggle all endpoint types except ISOC. */
 559:Generated_Source\PSoC5/USBUART_1_episr.c ****             if (USBUART_1_GET_EP_TYPE(USBUART_1_EP7) != USBUART_1_EP_TYPE_ISOC)
 560:Generated_Source\PSoC5/USBUART_1_episr.c ****             {
 561:Generated_Source\PSoC5/USBUART_1_episr.c ****                 USBUART_1_EP[USBUART_1_EP7].epToggle ^= USBUART_1_EPX_CNT_DATA_TOGGLE;
 562:Generated_Source\PSoC5/USBUART_1_episr.c ****             }
 563:Generated_Source\PSoC5/USBUART_1_episr.c ****             
 564:Generated_Source\PSoC5/USBUART_1_episr.c ****             /* EP_MANAGEMENT_DMA_AUTO (Ticket ID# 214187): For OUT endpoint this event is used to n
 565:Generated_Source\PSoC5/USBUART_1_episr.c ****             * user that DMA has completed copying data from OUT endpoint which is not completely tr
 566:Generated_Source\PSoC5/USBUART_1_episr.c ****             * Because last chunk of data is being copied.
 567:Generated_Source\PSoC5/USBUART_1_episr.c ****             * For CY_PSOC 3/5LP: it is acceptable as DMA is really fast.
 568:Generated_Source\PSoC5/USBUART_1_episr.c ****             * For CY_PSOC4: this event is set in Arbiter interrupt (source is DMA_TERMIN).
 569:Generated_Source\PSoC5/USBUART_1_episr.c ****             */
 570:Generated_Source\PSoC5/USBUART_1_episr.c ****             USBUART_1_EP[USBUART_1_EP7].apiEpState = USBUART_1_EVENT_PENDING;
 571:Generated_Source\PSoC5/USBUART_1_episr.c ****         }
 572:Generated_Source\PSoC5/USBUART_1_episr.c **** 
 573:Generated_Source\PSoC5/USBUART_1_episr.c **** 
 574:Generated_Source\PSoC5/USBUART_1_episr.c ****     #if (!(CY_PSOC4 && USBUART_1_EP_MANAGEMENT_DMA_AUTO))
 575:Generated_Source\PSoC5/USBUART_1_episr.c ****         #if (defined(USBUART_1_ENABLE_MIDI_STREAMING) && \
 576:Generated_Source\PSoC5/USBUART_1_episr.c ****             !defined(USBUART_1_MAIN_SERVICE_MIDI_OUT) && USBUART_1_ISR_SERVICE_MIDI_OUT)
 577:Generated_Source\PSoC5/USBUART_1_episr.c ****             if(USBUART_1_midi_out_ep == USBUART_1_EP7)
ARM GAS  C:\Users\Luggi\AppData\Local\Temp\ccf9q2kk.s 			page 16


 578:Generated_Source\PSoC5/USBUART_1_episr.c ****             {
 579:Generated_Source\PSoC5/USBUART_1_episr.c ****                 USBUART_1_MIDI_OUT_Service();
 580:Generated_Source\PSoC5/USBUART_1_episr.c ****             }
 581:Generated_Source\PSoC5/USBUART_1_episr.c ****         #endif /* (USBUART_1_ISR_SERVICE_MIDI_OUT) */
 582:Generated_Source\PSoC5/USBUART_1_episr.c ****     #endif /* (!(CY_PSOC4 && USBUART_1_EP_MANAGEMENT_DMA_AUTO)) */
 583:Generated_Source\PSoC5/USBUART_1_episr.c **** 
 584:Generated_Source\PSoC5/USBUART_1_episr.c ****         /* `#START EP7_END_USER_CODE` Place your code here */
 585:Generated_Source\PSoC5/USBUART_1_episr.c **** 
 586:Generated_Source\PSoC5/USBUART_1_episr.c ****         /* `#END` */
 587:Generated_Source\PSoC5/USBUART_1_episr.c **** 
 588:Generated_Source\PSoC5/USBUART_1_episr.c ****     #ifdef USBUART_1_EP_7_ISR_EXIT_CALLBACK
 589:Generated_Source\PSoC5/USBUART_1_episr.c ****         USBUART_1_EP_7_ISR_ExitCallback();
 590:Generated_Source\PSoC5/USBUART_1_episr.c ****     #endif /* (USBUART_1_EP_7_ISR_EXIT_CALLBACK) */
 591:Generated_Source\PSoC5/USBUART_1_episr.c **** 
 592:Generated_Source\PSoC5/USBUART_1_episr.c ****     #if (CY_PSOC3 && defined(USBUART_1_ENABLE_MIDI_STREAMING) && \
 593:Generated_Source\PSoC5/USBUART_1_episr.c ****         !defined(USBUART_1_MAIN_SERVICE_MIDI_OUT) && USBUART_1_ISR_SERVICE_MIDI_OUT)
 594:Generated_Source\PSoC5/USBUART_1_episr.c ****         
 595:Generated_Source\PSoC5/USBUART_1_episr.c ****             EA = intEn; /* Restore nested interrupt configuration. */
 596:Generated_Source\PSoC5/USBUART_1_episr.c ****         }
 597:Generated_Source\PSoC5/USBUART_1_episr.c ****     #endif /* (CY_PSOC3 && USBUART_1_ISR_SERVICE_MIDI_OUT) */
 598:Generated_Source\PSoC5/USBUART_1_episr.c ****     }
 599:Generated_Source\PSoC5/USBUART_1_episr.c **** #endif /* (USBUART_1_EP7_ISR_ACTIVE) */
 600:Generated_Source\PSoC5/USBUART_1_episr.c **** 
 601:Generated_Source\PSoC5/USBUART_1_episr.c **** 
 602:Generated_Source\PSoC5/USBUART_1_episr.c **** #if (USBUART_1_EP8_ISR_ACTIVE)
 603:Generated_Source\PSoC5/USBUART_1_episr.c ****     /*******************************************************************************
 604:Generated_Source\PSoC5/USBUART_1_episr.c ****     * Function Name: USBUART_1_EP_8_ISR
 605:Generated_Source\PSoC5/USBUART_1_episr.c ****     ****************************************************************************//**
 606:Generated_Source\PSoC5/USBUART_1_episr.c ****     *
 607:Generated_Source\PSoC5/USBUART_1_episr.c ****     *  Endpoint 8 Interrupt Service Routine
 608:Generated_Source\PSoC5/USBUART_1_episr.c ****     *
 609:Generated_Source\PSoC5/USBUART_1_episr.c ****     *
 610:Generated_Source\PSoC5/USBUART_1_episr.c ****     *******************************************************************************/
 611:Generated_Source\PSoC5/USBUART_1_episr.c ****     CY_ISR(USBUART_1_EP_8_ISR)
 612:Generated_Source\PSoC5/USBUART_1_episr.c ****     {
 613:Generated_Source\PSoC5/USBUART_1_episr.c ****     #ifdef USBUART_1_EP_8_ISR_ENTRY_CALLBACK
 614:Generated_Source\PSoC5/USBUART_1_episr.c ****         USBUART_1_EP_8_ISR_EntryCallback();
 615:Generated_Source\PSoC5/USBUART_1_episr.c ****     #endif /* (USBUART_1_EP_8_ISR_ENTRY_CALLBACK) */
 616:Generated_Source\PSoC5/USBUART_1_episr.c **** 
 617:Generated_Source\PSoC5/USBUART_1_episr.c ****         /* `#START EP8_USER_CODE` Place your code here */
 618:Generated_Source\PSoC5/USBUART_1_episr.c **** 
 619:Generated_Source\PSoC5/USBUART_1_episr.c ****         /* `#END` */
 620:Generated_Source\PSoC5/USBUART_1_episr.c **** 
 621:Generated_Source\PSoC5/USBUART_1_episr.c ****     #if (CY_PSOC3 && defined(USBUART_1_ENABLE_MIDI_STREAMING) && \
 622:Generated_Source\PSoC5/USBUART_1_episr.c ****         !defined(USBUART_1_MAIN_SERVICE_MIDI_OUT) && USBUART_1_ISR_SERVICE_MIDI_OUT)
 623:Generated_Source\PSoC5/USBUART_1_episr.c ****         {
 624:Generated_Source\PSoC5/USBUART_1_episr.c ****             uint8 intEn = EA;
 625:Generated_Source\PSoC5/USBUART_1_episr.c ****             CyGlobalIntEnable;  /* Enable nested interrupts. */
 626:Generated_Source\PSoC5/USBUART_1_episr.c ****     #endif /* (CY_PSOC3 && USBUART_1_ISR_SERVICE_MIDI_OUT) */
 627:Generated_Source\PSoC5/USBUART_1_episr.c **** 
 628:Generated_Source\PSoC5/USBUART_1_episr.c ****         USBUART_1_ClearSieEpInterruptSource(USBUART_1_SIE_INT_EP8_INTR);
 629:Generated_Source\PSoC5/USBUART_1_episr.c ****         
 630:Generated_Source\PSoC5/USBUART_1_episr.c ****         /* Notifies user that transfer IN or OUT transfer is completed.
 631:Generated_Source\PSoC5/USBUART_1_episr.c ****         * IN endpoint: endpoint buffer can be reloaded, Host is read data.
 632:Generated_Source\PSoC5/USBUART_1_episr.c ****         * OUT endpoint: data is ready to read from endpoint buffer. 
 633:Generated_Source\PSoC5/USBUART_1_episr.c ****         */
 634:Generated_Source\PSoC5/USBUART_1_episr.c ****     #if (CY_PSOC4 && USBUART_1_EP_MANAGEMENT_DMA_AUTO)
ARM GAS  C:\Users\Luggi\AppData\Local\Temp\ccf9q2kk.s 			page 17


 635:Generated_Source\PSoC5/USBUART_1_episr.c ****         if (0u != (USBUART_1_EP[USBUART_1_EP8].addr & USBUART_1_DIR_IN))
 636:Generated_Source\PSoC5/USBUART_1_episr.c ****     #endif /* (USBUART_1_EP_MANAGEMENT_DMA_AUTO) */
 637:Generated_Source\PSoC5/USBUART_1_episr.c ****         {
 638:Generated_Source\PSoC5/USBUART_1_episr.c ****             /* Read CR0 register to clear SIE lock. */
 639:Generated_Source\PSoC5/USBUART_1_episr.c ****             (void) USBUART_1_SIE_EP_BASE.sieEp[USBUART_1_EP8].epCr0;
 640:Generated_Source\PSoC5/USBUART_1_episr.c **** 
 641:Generated_Source\PSoC5/USBUART_1_episr.c ****             /* Toggle all endpoint types except ISOC. */
 642:Generated_Source\PSoC5/USBUART_1_episr.c ****             if (USBUART_1_GET_EP_TYPE(USBUART_1_EP8) != USBUART_1_EP_TYPE_ISOC)
 643:Generated_Source\PSoC5/USBUART_1_episr.c ****             {
 644:Generated_Source\PSoC5/USBUART_1_episr.c ****                 USBUART_1_EP[USBUART_1_EP8].epToggle ^= USBUART_1_EPX_CNT_DATA_TOGGLE;
 645:Generated_Source\PSoC5/USBUART_1_episr.c ****             }
 646:Generated_Source\PSoC5/USBUART_1_episr.c **** 
 647:Generated_Source\PSoC5/USBUART_1_episr.c ****             /* EP_MANAGEMENT_DMA_AUTO (Ticket ID# 214187): For OUT endpoint this event is used to n
 648:Generated_Source\PSoC5/USBUART_1_episr.c ****             * user that DMA has completed copying data from OUT endpoint which is not completely tr
 649:Generated_Source\PSoC5/USBUART_1_episr.c ****             * Because last chunk of data is being copied.
 650:Generated_Source\PSoC5/USBUART_1_episr.c ****             * For CY_PSOC 3/5LP: it is acceptable as DMA is really fast.
 651:Generated_Source\PSoC5/USBUART_1_episr.c ****             * For CY_PSOC4: this event is set in Arbiter interrupt (source is DMA_TERMIN).
 652:Generated_Source\PSoC5/USBUART_1_episr.c ****             */
 653:Generated_Source\PSoC5/USBUART_1_episr.c ****             USBUART_1_EP[USBUART_1_EP8].apiEpState = USBUART_1_EVENT_PENDING;
 654:Generated_Source\PSoC5/USBUART_1_episr.c ****         }
 655:Generated_Source\PSoC5/USBUART_1_episr.c **** 
 656:Generated_Source\PSoC5/USBUART_1_episr.c ****     #if (!(CY_PSOC4 && USBUART_1_EP_MANAGEMENT_DMA_AUTO))
 657:Generated_Source\PSoC5/USBUART_1_episr.c ****         #if (defined(USBUART_1_ENABLE_MIDI_STREAMING) && \
 658:Generated_Source\PSoC5/USBUART_1_episr.c ****             !defined(USBUART_1_MAIN_SERVICE_MIDI_OUT) && USBUART_1_ISR_SERVICE_MIDI_OUT)
 659:Generated_Source\PSoC5/USBUART_1_episr.c ****             if (USBUART_1_midi_out_ep == USBUART_1_EP8)
 660:Generated_Source\PSoC5/USBUART_1_episr.c ****             {
 661:Generated_Source\PSoC5/USBUART_1_episr.c ****                 USBUART_1_MIDI_OUT_Service();
 662:Generated_Source\PSoC5/USBUART_1_episr.c ****             }
 663:Generated_Source\PSoC5/USBUART_1_episr.c ****         #endif /* (USBUART_1_ISR_SERVICE_MIDI_OUT) */
 664:Generated_Source\PSoC5/USBUART_1_episr.c ****     #endif /* (!(CY_PSOC4 && USBUART_1_EP_MANAGEMENT_DMA_AUTO)) */
 665:Generated_Source\PSoC5/USBUART_1_episr.c **** 
 666:Generated_Source\PSoC5/USBUART_1_episr.c ****         /* `#START EP8_END_USER_CODE` Place your code here */
 667:Generated_Source\PSoC5/USBUART_1_episr.c **** 
 668:Generated_Source\PSoC5/USBUART_1_episr.c ****         /* `#END` */
 669:Generated_Source\PSoC5/USBUART_1_episr.c **** 
 670:Generated_Source\PSoC5/USBUART_1_episr.c ****     #ifdef USBUART_1_EP_8_ISR_EXIT_CALLBACK
 671:Generated_Source\PSoC5/USBUART_1_episr.c ****         USBUART_1_EP_8_ISR_ExitCallback();
 672:Generated_Source\PSoC5/USBUART_1_episr.c ****     #endif /* (USBUART_1_EP_8_ISR_EXIT_CALLBACK) */
 673:Generated_Source\PSoC5/USBUART_1_episr.c **** 
 674:Generated_Source\PSoC5/USBUART_1_episr.c ****     #if (CY_PSOC3 && defined(USBUART_1_ENABLE_MIDI_STREAMING) && \
 675:Generated_Source\PSoC5/USBUART_1_episr.c ****         !defined(USBUART_1_MAIN_SERVICE_MIDI_OUT) && USBUART_1_ISR_SERVICE_MIDI_OUT)
 676:Generated_Source\PSoC5/USBUART_1_episr.c ****         
 677:Generated_Source\PSoC5/USBUART_1_episr.c ****             EA = intEn; /* Restore nested interrupt configuration. */
 678:Generated_Source\PSoC5/USBUART_1_episr.c ****         }
 679:Generated_Source\PSoC5/USBUART_1_episr.c ****     #endif /* (CY_PSOC3 && USBUART_1_ISR_SERVICE_MIDI_OUT) */
 680:Generated_Source\PSoC5/USBUART_1_episr.c ****     }
 681:Generated_Source\PSoC5/USBUART_1_episr.c **** #endif /* (USBUART_1_EP8_ISR_ACTIVE) */
 682:Generated_Source\PSoC5/USBUART_1_episr.c **** 
 683:Generated_Source\PSoC5/USBUART_1_episr.c **** 
 684:Generated_Source\PSoC5/USBUART_1_episr.c **** #if (USBUART_1_SOF_ISR_ACTIVE)
 685:Generated_Source\PSoC5/USBUART_1_episr.c ****     /*******************************************************************************
 686:Generated_Source\PSoC5/USBUART_1_episr.c ****     * Function Name: USBUART_1_SOF_ISR
 687:Generated_Source\PSoC5/USBUART_1_episr.c ****     ****************************************************************************//**
 688:Generated_Source\PSoC5/USBUART_1_episr.c ****     *
 689:Generated_Source\PSoC5/USBUART_1_episr.c ****     *  Start of Frame Interrupt Service Routine.
 690:Generated_Source\PSoC5/USBUART_1_episr.c ****     *
 691:Generated_Source\PSoC5/USBUART_1_episr.c ****     *
ARM GAS  C:\Users\Luggi\AppData\Local\Temp\ccf9q2kk.s 			page 18


 692:Generated_Source\PSoC5/USBUART_1_episr.c ****     *******************************************************************************/
 693:Generated_Source\PSoC5/USBUART_1_episr.c ****     CY_ISR(USBUART_1_SOF_ISR)
 694:Generated_Source\PSoC5/USBUART_1_episr.c ****     {
 279              		.loc 1 694 0
 280              		.cfi_startproc
 281              		@ args = 0, pretend = 0, frame = 0
 282              		@ frame_needed = 0, uses_anonymous_args = 0
 283              		@ link register save eliminated.
 284 0000 7047     		bx	lr
 285              		.cfi_endproc
 286              	.LFE6:
 287              		.size	USBUART_1_SOF_ISR, .-USBUART_1_SOF_ISR
 288              		.section	.text.USBUART_1_BUS_RESET_ISR,"ax",%progbits
 289              		.align	1
 290              		.global	USBUART_1_BUS_RESET_ISR
 291              		.thumb
 292              		.thumb_func
 293              		.type	USBUART_1_BUS_RESET_ISR, %function
 294              	USBUART_1_BUS_RESET_ISR:
 295              	.LFB7:
 695:Generated_Source\PSoC5/USBUART_1_episr.c ****     #ifdef USBUART_1_SOF_ISR_ENTRY_CALLBACK
 696:Generated_Source\PSoC5/USBUART_1_episr.c ****         USBUART_1_SOF_ISR_EntryCallback();
 697:Generated_Source\PSoC5/USBUART_1_episr.c ****     #endif /* (USBUART_1_SOF_ISR_ENTRY_CALLBACK) */
 698:Generated_Source\PSoC5/USBUART_1_episr.c **** 
 699:Generated_Source\PSoC5/USBUART_1_episr.c ****         /* `#START SOF_USER_CODE` Place your code here */
 700:Generated_Source\PSoC5/USBUART_1_episr.c **** 
 701:Generated_Source\PSoC5/USBUART_1_episr.c ****         /* `#END` */
 702:Generated_Source\PSoC5/USBUART_1_episr.c **** 
 703:Generated_Source\PSoC5/USBUART_1_episr.c ****         USBUART_1_ClearSieInterruptSource(USBUART_1_INTR_SIE_SOF_INTR);
 704:Generated_Source\PSoC5/USBUART_1_episr.c **** 
 705:Generated_Source\PSoC5/USBUART_1_episr.c ****     #ifdef USBUART_1_SOF_ISR_EXIT_CALLBACK
 706:Generated_Source\PSoC5/USBUART_1_episr.c ****         USBUART_1_SOF_ISR_ExitCallback();
 707:Generated_Source\PSoC5/USBUART_1_episr.c ****     #endif /* (USBUART_1_SOF_ISR_EXIT_CALLBACK) */
 708:Generated_Source\PSoC5/USBUART_1_episr.c ****     }
 709:Generated_Source\PSoC5/USBUART_1_episr.c **** #endif /* (USBUART_1_SOF_ISR_ACTIVE) */
 710:Generated_Source\PSoC5/USBUART_1_episr.c **** 
 711:Generated_Source\PSoC5/USBUART_1_episr.c **** 
 712:Generated_Source\PSoC5/USBUART_1_episr.c **** #if (USBUART_1_BUS_RESET_ISR_ACTIVE)
 713:Generated_Source\PSoC5/USBUART_1_episr.c **** /*******************************************************************************
 714:Generated_Source\PSoC5/USBUART_1_episr.c **** * Function Name: USBUART_1_BUS_RESET_ISR
 715:Generated_Source\PSoC5/USBUART_1_episr.c **** ****************************************************************************//**
 716:Generated_Source\PSoC5/USBUART_1_episr.c **** *
 717:Generated_Source\PSoC5/USBUART_1_episr.c **** *  USB Bus Reset Interrupt Service Routine.  Calls _Start with the same
 718:Generated_Source\PSoC5/USBUART_1_episr.c **** *  parameters as the last USER call to _Start
 719:Generated_Source\PSoC5/USBUART_1_episr.c **** *
 720:Generated_Source\PSoC5/USBUART_1_episr.c **** *
 721:Generated_Source\PSoC5/USBUART_1_episr.c **** *******************************************************************************/
 722:Generated_Source\PSoC5/USBUART_1_episr.c **** CY_ISR(USBUART_1_BUS_RESET_ISR)
 723:Generated_Source\PSoC5/USBUART_1_episr.c **** {
 296              		.loc 1 723 0
 297              		.cfi_startproc
 298              		@ args = 0, pretend = 0, frame = 0
 299              		@ frame_needed = 0, uses_anonymous_args = 0
 300              		@ link register save eliminated.
 724:Generated_Source\PSoC5/USBUART_1_episr.c **** #ifdef USBUART_1_BUS_RESET_ISR_ENTRY_CALLBACK
 725:Generated_Source\PSoC5/USBUART_1_episr.c ****     USBUART_1_BUS_RESET_ISR_EntryCallback();
 726:Generated_Source\PSoC5/USBUART_1_episr.c **** #endif /* (USBUART_1_BUS_RESET_ISR_ENTRY_CALLBACK) */
ARM GAS  C:\Users\Luggi\AppData\Local\Temp\ccf9q2kk.s 			page 19


 727:Generated_Source\PSoC5/USBUART_1_episr.c **** 
 728:Generated_Source\PSoC5/USBUART_1_episr.c ****     /* `#START BUS_RESET_USER_CODE` Place your code here */
 729:Generated_Source\PSoC5/USBUART_1_episr.c **** 
 730:Generated_Source\PSoC5/USBUART_1_episr.c ****     /* `#END` */
 731:Generated_Source\PSoC5/USBUART_1_episr.c **** 
 732:Generated_Source\PSoC5/USBUART_1_episr.c ****     USBUART_1_ClearSieInterruptSource(USBUART_1_INTR_SIE_BUS_RESET_INTR);
 733:Generated_Source\PSoC5/USBUART_1_episr.c **** 
 734:Generated_Source\PSoC5/USBUART_1_episr.c ****     USBUART_1_ReInitComponent();
 301              		.loc 1 734 0
 302 0000 FFF7FEBF 		b	USBUART_1_ReInitComponent
 303              	.LVL0:
 304              		.cfi_endproc
 305              	.LFE7:
 306              		.size	USBUART_1_BUS_RESET_ISR, .-USBUART_1_BUS_RESET_ISR
 307              		.text
 308              	.Letext0:
 309              		.file 2 "Generated_Source\\PSoC5\\cytypes.h"
 310              		.file 3 "Generated_Source\\PSoC5\\USBUART_1.h"
 311              		.file 4 "Generated_Source\\PSoC5\\USBUART_1_pvt.h"