ARM GAS  C:\Users\Luggi\AppData\Local\Temp\ccLTEJfD.s 			page 1


   1              		.syntax unified
   2              		.cpu cortex-m3
   3              		.fpu softvfp
   4              		.eabi_attribute 20, 1
   5              		.eabi_attribute 21, 1
   6              		.eabi_attribute 23, 3
   7              		.eabi_attribute 24, 1
   8              		.eabi_attribute 25, 1
   9              		.eabi_attribute 26, 1
  10              		.eabi_attribute 30, 4
  11              		.eabi_attribute 34, 1
  12              		.eabi_attribute 18, 4
  13              		.thumb
  14              		.file	"USBUART_1_cdc.c"
  15              		.text
  16              	.Ltext0:
  17              		.cfi_sections	.debug_frame
  18              		.section	.text.USBUART_1_GetInterfaceComPort,"ax",%progbits
  19              		.align	1
  20              		.global	USBUART_1_GetInterfaceComPort
  21              		.thumb
  22              		.thumb_func
  23              		.type	USBUART_1_GetInterfaceComPort, %function
  24              	USBUART_1_GetInterfaceComPort:
  25              	.LFB1:
  26              		.file 1 "Generated_Source\\PSoC5\\USBUART_1_cdc.c"
   1:Generated_Source\PSoC5/USBUART_1_cdc.c **** /***************************************************************************//**
   2:Generated_Source\PSoC5/USBUART_1_cdc.c **** * \file USBUART_1_cdc.c
   3:Generated_Source\PSoC5/USBUART_1_cdc.c **** * \version 3.10
   4:Generated_Source\PSoC5/USBUART_1_cdc.c **** *
   5:Generated_Source\PSoC5/USBUART_1_cdc.c **** * \brief
   6:Generated_Source\PSoC5/USBUART_1_cdc.c **** *  This file contains the USB CDC class request handler.
   7:Generated_Source\PSoC5/USBUART_1_cdc.c **** *
   8:Generated_Source\PSoC5/USBUART_1_cdc.c **** * Related Document:
   9:Generated_Source\PSoC5/USBUART_1_cdc.c **** *  Universal Serial Bus Class Definitions for Communication Devices Version 1.1
  10:Generated_Source\PSoC5/USBUART_1_cdc.c **** *
  11:Generated_Source\PSoC5/USBUART_1_cdc.c **** ********************************************************************************
  12:Generated_Source\PSoC5/USBUART_1_cdc.c **** * \copyright
  13:Generated_Source\PSoC5/USBUART_1_cdc.c **** * Copyright 2012-2016, Cypress Semiconductor Corporation.  All rights reserved.
  14:Generated_Source\PSoC5/USBUART_1_cdc.c **** * You may use this file only in accordance with the license, terms, conditions,
  15:Generated_Source\PSoC5/USBUART_1_cdc.c **** * disclaimers, and limitations in the end user license agreement accompanying
  16:Generated_Source\PSoC5/USBUART_1_cdc.c **** * the software package with which this file was provided.
  17:Generated_Source\PSoC5/USBUART_1_cdc.c **** *******************************************************************************/
  18:Generated_Source\PSoC5/USBUART_1_cdc.c **** 
  19:Generated_Source\PSoC5/USBUART_1_cdc.c **** #include "USBUART_1_cdc.h"
  20:Generated_Source\PSoC5/USBUART_1_cdc.c **** #include "USBUART_1_pvt.h"
  21:Generated_Source\PSoC5/USBUART_1_cdc.c **** 
  22:Generated_Source\PSoC5/USBUART_1_cdc.c **** 
  23:Generated_Source\PSoC5/USBUART_1_cdc.c **** #if defined(USBUART_1_ENABLE_CDC_CLASS)
  24:Generated_Source\PSoC5/USBUART_1_cdc.c **** 
  25:Generated_Source\PSoC5/USBUART_1_cdc.c **** /*******************************************************************************
  26:Generated_Source\PSoC5/USBUART_1_cdc.c **** *    CDC Variables
  27:Generated_Source\PSoC5/USBUART_1_cdc.c **** *******************************************************************************/
  28:Generated_Source\PSoC5/USBUART_1_cdc.c **** 
  29:Generated_Source\PSoC5/USBUART_1_cdc.c **** /*PUBLIC*/
  30:Generated_Source\PSoC5/USBUART_1_cdc.c **** /** Contains the current line coding structure. The host sets it using a
  31:Generated_Source\PSoC5/USBUART_1_cdc.c ****  * SET_LINE_CODING request and returns it to the user code using the
ARM GAS  C:\Users\Luggi\AppData\Local\Temp\ccLTEJfD.s 			page 2


  32:Generated_Source\PSoC5/USBUART_1_cdc.c ****  * USBUART_1_GetDTERate(), USBUART_1_GetCharFormat(),
  33:Generated_Source\PSoC5/USBUART_1_cdc.c ****  * USBUART_1_GetParityType(), and USBUART_1_GetDataBits() APIs.
  34:Generated_Source\PSoC5/USBUART_1_cdc.c ****  * It is an array of 2 elements for COM port 1 and COM port 2 for MultiCOM port
  35:Generated_Source\PSoC5/USBUART_1_cdc.c ****  * support. In case of 1 COM port, data is in 0 element.*/
  36:Generated_Source\PSoC5/USBUART_1_cdc.c **** volatile uint8 USBUART_1_linesCoding[USBUART_1_MAX_MULTI_COM_NUM][USBUART_1_LINE_CODING_SIZE] =
  37:Generated_Source\PSoC5/USBUART_1_cdc.c **** {
  38:Generated_Source\PSoC5/USBUART_1_cdc.c ****     /*COM Port 1*/
  39:Generated_Source\PSoC5/USBUART_1_cdc.c ****     {
  40:Generated_Source\PSoC5/USBUART_1_cdc.c ****     0x00u, 0xC2u, 0x01u, 0x00u,     /* Data terminal rate 115200 */
  41:Generated_Source\PSoC5/USBUART_1_cdc.c ****     0x00u,                          /* 1 Stop bit */
  42:Generated_Source\PSoC5/USBUART_1_cdc.c ****     0x00u,                          /* None parity */
  43:Generated_Source\PSoC5/USBUART_1_cdc.c ****     0x08u                           /* 8 data bits */
  44:Generated_Source\PSoC5/USBUART_1_cdc.c ****     },
  45:Generated_Source\PSoC5/USBUART_1_cdc.c ****     /*COM Port 2*/
  46:Generated_Source\PSoC5/USBUART_1_cdc.c ****     {
  47:Generated_Source\PSoC5/USBUART_1_cdc.c ****     0x00u, 0xC2u, 0x01u, 0x00u,     /* Data terminal rate 115200 */
  48:Generated_Source\PSoC5/USBUART_1_cdc.c ****     0x00u,                          /* 1 Stop bit */
  49:Generated_Source\PSoC5/USBUART_1_cdc.c ****     0x00u,                          /* None parity */
  50:Generated_Source\PSoC5/USBUART_1_cdc.c ****     0x08u                           /* 8 data bits */
  51:Generated_Source\PSoC5/USBUART_1_cdc.c ****     }
  52:Generated_Source\PSoC5/USBUART_1_cdc.c **** };
  53:Generated_Source\PSoC5/USBUART_1_cdc.c **** 
  54:Generated_Source\PSoC5/USBUART_1_cdc.c **** /**Used as a flag for the USBUART_1_IsLineChanged() API, to inform it that the
  55:Generated_Source\PSoC5/USBUART_1_cdc.c ****  * host has been sent a request to change line coding or control bitmap. It is 
  56:Generated_Source\PSoC5/USBUART_1_cdc.c ****  * an array of 2 elements for COM port 1 and COM port 2 for MultiCOM port 
  57:Generated_Source\PSoC5/USBUART_1_cdc.c ****  * support. In case of 1 COM port, data is in 0 element.*/
  58:Generated_Source\PSoC5/USBUART_1_cdc.c **** volatile uint8  USBUART_1_linesChanged[USBUART_1_MAX_MULTI_COM_NUM];
  59:Generated_Source\PSoC5/USBUART_1_cdc.c **** /** Contains the current control-signal bitmap. The host sets it using a
  60:Generated_Source\PSoC5/USBUART_1_cdc.c ****  * SET_CONTROL_LINE request and returns it to the user code using the 
  61:Generated_Source\PSoC5/USBUART_1_cdc.c ****  * USBUART_1_GetLineControl() API. It is an array of 2 elements for COM 
  62:Generated_Source\PSoC5/USBUART_1_cdc.c ****  * port 1 and COM port 2 for MultiCOM port support. In case of 1 COM port, data 
  63:Generated_Source\PSoC5/USBUART_1_cdc.c ****  * is in 0 element.*/
  64:Generated_Source\PSoC5/USBUART_1_cdc.c **** volatile uint16 USBUART_1_linesControlBitmap[USBUART_1_MAX_MULTI_COM_NUM];
  65:Generated_Source\PSoC5/USBUART_1_cdc.c **** /** Contains the 16-bit serial state value that was sent using the 
  66:Generated_Source\PSoC5/USBUART_1_cdc.c ****  * \ref USBUART_1_SendSerialState() API. . It is an array of 2 elements 
  67:Generated_Source\PSoC5/USBUART_1_cdc.c ****  * for COM port 1 and COM port 2 for MultiCOM port support. In case of 1 COM 
  68:Generated_Source\PSoC5/USBUART_1_cdc.c ****  * port, data is in 0 element.*/
  69:Generated_Source\PSoC5/USBUART_1_cdc.c **** volatile uint16 USBUART_1_serialStateBitmap[USBUART_1_MAX_MULTI_COM_NUM];
  70:Generated_Source\PSoC5/USBUART_1_cdc.c **** /** Contains the data IN endpoint number. It is initialized after a 
  71:Generated_Source\PSoC5/USBUART_1_cdc.c ****  * SET_CONFIGURATION request based on a user descriptor. It is used in CDC APIs 
  72:Generated_Source\PSoC5/USBUART_1_cdc.c ****  * to send data to the PC. It is an array of 2 elements for COM port 1 and COM 
  73:Generated_Source\PSoC5/USBUART_1_cdc.c ****  * port 2 for MultiCOM port support. In case of 1 COM port, data is in 0 element.*/
  74:Generated_Source\PSoC5/USBUART_1_cdc.c **** volatile uint8  USBUART_1_cdcDataInEp[USBUART_1_MAX_MULTI_COM_NUM];
  75:Generated_Source\PSoC5/USBUART_1_cdc.c **** /** Contains the data OUT endpoint number. It is initialized after a 
  76:Generated_Source\PSoC5/USBUART_1_cdc.c ****  * SET_CONFIGURATION request based on user descriptor. It is used in CDC APIs to 
  77:Generated_Source\PSoC5/USBUART_1_cdc.c ****  * receive data from the PC. It is an array of 2 elements for COM port 1 and COM  
  78:Generated_Source\PSoC5/USBUART_1_cdc.c ****  * port 2 for MultiCOM port support. In case of 1 COM port, data is in 0 element.*/
  79:Generated_Source\PSoC5/USBUART_1_cdc.c **** volatile uint8  USBUART_1_cdcDataOutEp[USBUART_1_MAX_MULTI_COM_NUM];
  80:Generated_Source\PSoC5/USBUART_1_cdc.c **** /** Contains the data IN endpoint number for COMMUNICATION interface. It is 
  81:Generated_Source\PSoC5/USBUART_1_cdc.c ****  * initialized after a SET_CONFIGURATION request based on a user descriptor. It 
  82:Generated_Source\PSoC5/USBUART_1_cdc.c ****  * is used in CDC APIs to send data to the PC. It is an array of 2 elements for 
  83:Generated_Source\PSoC5/USBUART_1_cdc.c ****  * COM port 1 and COM port 2 for MultiCOM port support. In case of 1 COM port, 
  84:Generated_Source\PSoC5/USBUART_1_cdc.c ****  * data is in 0 element.*/
  85:Generated_Source\PSoC5/USBUART_1_cdc.c **** volatile uint8  USBUART_1_cdcCommInInterruptEp[USBUART_1_MAX_MULTI_COM_NUM];
  86:Generated_Source\PSoC5/USBUART_1_cdc.c **** 
  87:Generated_Source\PSoC5/USBUART_1_cdc.c **** /*PRIVATE*/
  88:Generated_Source\PSoC5/USBUART_1_cdc.c **** 
ARM GAS  C:\Users\Luggi\AppData\Local\Temp\ccLTEJfD.s 			page 3


  89:Generated_Source\PSoC5/USBUART_1_cdc.c **** #define USBUART_1_CDC_IN_EP      (0u)
  90:Generated_Source\PSoC5/USBUART_1_cdc.c **** #define USBUART_1_CDC_OUT_EP     (1u)
  91:Generated_Source\PSoC5/USBUART_1_cdc.c **** #define USBUART_1_CDC_NOTE_EP    (2u)
  92:Generated_Source\PSoC5/USBUART_1_cdc.c **** 
  93:Generated_Source\PSoC5/USBUART_1_cdc.c **** #define USBUART_1_CDC_EP_MASK    (0x01u)
  94:Generated_Source\PSoC5/USBUART_1_cdc.c **** 
  95:Generated_Source\PSoC5/USBUART_1_cdc.c **** #define USBUART_1_GET_EP_COM_NUM(cdcComNums, epType) (((cdcComNums) >> (epType)) & USBUART_1_CDC_EP
  96:Generated_Source\PSoC5/USBUART_1_cdc.c **** 
  97:Generated_Source\PSoC5/USBUART_1_cdc.c **** 
  98:Generated_Source\PSoC5/USBUART_1_cdc.c **** /***************************************
  99:Generated_Source\PSoC5/USBUART_1_cdc.c **** *     Static Function Prototypes
 100:Generated_Source\PSoC5/USBUART_1_cdc.c **** ***************************************/
 101:Generated_Source\PSoC5/USBUART_1_cdc.c **** #if (USBUART_1_ENABLE_CDC_CLASS_API != 0u)
 102:Generated_Source\PSoC5/USBUART_1_cdc.c ****     static uint16 USBUART_1_StrLen(const char8 string[]) ;
 103:Generated_Source\PSoC5/USBUART_1_cdc.c ****     static t_USBUART_1_cdc_notification USBUART_1_serialStateNotification =
 104:Generated_Source\PSoC5/USBUART_1_cdc.c ****     {
 105:Generated_Source\PSoC5/USBUART_1_cdc.c **** 
 106:Generated_Source\PSoC5/USBUART_1_cdc.c ****         USBUART_1_SERIAL_STATE_REQUEST_TYPE, /* bRequestType    */
 107:Generated_Source\PSoC5/USBUART_1_cdc.c ****         USBUART_1_SERIAL_STATE,              /* bNotification   */
 108:Generated_Source\PSoC5/USBUART_1_cdc.c ****         0u,                                         /* wValue          */
 109:Generated_Source\PSoC5/USBUART_1_cdc.c ****         0u,                                         /* wValueMSB       */
 110:Generated_Source\PSoC5/USBUART_1_cdc.c ****         0u,                                         /* wIndex          */
 111:Generated_Source\PSoC5/USBUART_1_cdc.c ****         0u,                                         /* wIndexMSB       */
 112:Generated_Source\PSoC5/USBUART_1_cdc.c ****         USBUART_1_SERIAL_STATE_LENGTH,       /* wLength         */
 113:Generated_Source\PSoC5/USBUART_1_cdc.c ****         0u,                                         /* wLengthMSB      */
 114:Generated_Source\PSoC5/USBUART_1_cdc.c ****         0u,                                         /* wSerialState    */
 115:Generated_Source\PSoC5/USBUART_1_cdc.c ****         0u,                                         /* wSerialStateMSB */
 116:Generated_Source\PSoC5/USBUART_1_cdc.c ****     };
 117:Generated_Source\PSoC5/USBUART_1_cdc.c ****     static uint8 USBUART_1_activeCom = 0u;
 118:Generated_Source\PSoC5/USBUART_1_cdc.c **** #endif /* (USBUART_1_ENABLE_CDC_CLASS_API != 0u) */
 119:Generated_Source\PSoC5/USBUART_1_cdc.c **** 
 120:Generated_Source\PSoC5/USBUART_1_cdc.c **** 
 121:Generated_Source\PSoC5/USBUART_1_cdc.c **** /***************************************
 122:Generated_Source\PSoC5/USBUART_1_cdc.c **** * Custom Declarations
 123:Generated_Source\PSoC5/USBUART_1_cdc.c **** ***************************************/
 124:Generated_Source\PSoC5/USBUART_1_cdc.c **** 
 125:Generated_Source\PSoC5/USBUART_1_cdc.c **** /* `#START CDC_CUSTOM_DECLARATIONS` Place your declaration here */
 126:Generated_Source\PSoC5/USBUART_1_cdc.c **** 
 127:Generated_Source\PSoC5/USBUART_1_cdc.c **** /* `#END` */
 128:Generated_Source\PSoC5/USBUART_1_cdc.c **** 
 129:Generated_Source\PSoC5/USBUART_1_cdc.c **** 
 130:Generated_Source\PSoC5/USBUART_1_cdc.c **** /*******************************************************************************
 131:Generated_Source\PSoC5/USBUART_1_cdc.c **** * Function Name: USBUART_1_DispatchCDCClassRqst
 132:Generated_Source\PSoC5/USBUART_1_cdc.c **** ****************************************************************************//**
 133:Generated_Source\PSoC5/USBUART_1_cdc.c **** *
 134:Generated_Source\PSoC5/USBUART_1_cdc.c **** *  This routine dispatches CDC class requests.
 135:Generated_Source\PSoC5/USBUART_1_cdc.c **** *
 136:Generated_Source\PSoC5/USBUART_1_cdc.c **** * \return
 137:Generated_Source\PSoC5/USBUART_1_cdc.c **** *  requestHandled
 138:Generated_Source\PSoC5/USBUART_1_cdc.c **** *
 139:Generated_Source\PSoC5/USBUART_1_cdc.c **** * \globalvars
 140:Generated_Source\PSoC5/USBUART_1_cdc.c **** *   USBUART_1_linesCoding: Contains the current line coding structure.
 141:Generated_Source\PSoC5/USBUART_1_cdc.c **** *     It is set by the Host using SET_LINE_CODING request and returned to the
 142:Generated_Source\PSoC5/USBUART_1_cdc.c **** *     user code by the USBFS_GetDTERate(), USBFS_GetCharFormat(),
 143:Generated_Source\PSoC5/USBUART_1_cdc.c **** *     USBFS_GetParityType(), USBFS_GetDataBits() APIs.
 144:Generated_Source\PSoC5/USBUART_1_cdc.c **** *   USBUART_1_linesControlBitmap: Contains the current control signal
 145:Generated_Source\PSoC5/USBUART_1_cdc.c **** *     bitmap. It is set by the Host using SET_CONTROL_LINE request and returned
ARM GAS  C:\Users\Luggi\AppData\Local\Temp\ccLTEJfD.s 			page 4


 146:Generated_Source\PSoC5/USBUART_1_cdc.c **** *     to the user code by the USBFS_GetLineControl() API.
 147:Generated_Source\PSoC5/USBUART_1_cdc.c **** *   USBUART_1_linesChanged: This variable is used as a flag for the
 148:Generated_Source\PSoC5/USBUART_1_cdc.c **** *     USBFS_IsLineChanged() API, to be aware that Host has been sent request
 149:Generated_Source\PSoC5/USBUART_1_cdc.c **** *     for changing Line Coding or Control Bitmap.
 150:Generated_Source\PSoC5/USBUART_1_cdc.c **** *
 151:Generated_Source\PSoC5/USBUART_1_cdc.c **** * \reentrant
 152:Generated_Source\PSoC5/USBUART_1_cdc.c **** *  No.
 153:Generated_Source\PSoC5/USBUART_1_cdc.c **** *
 154:Generated_Source\PSoC5/USBUART_1_cdc.c **** *******************************************************************************/
 155:Generated_Source\PSoC5/USBUART_1_cdc.c **** uint8 USBUART_1_DispatchCDCClassRqst(void) 
 156:Generated_Source\PSoC5/USBUART_1_cdc.c **** {
 157:Generated_Source\PSoC5/USBUART_1_cdc.c ****     uint8 requestHandled = USBUART_1_FALSE;
 158:Generated_Source\PSoC5/USBUART_1_cdc.c ****     uint8 comPort;
 159:Generated_Source\PSoC5/USBUART_1_cdc.c **** 
 160:Generated_Source\PSoC5/USBUART_1_cdc.c ****     comPort = USBUART_1_GetInterfaceComPort((uint8)USBUART_1_wIndexLoReg);
 161:Generated_Source\PSoC5/USBUART_1_cdc.c **** 
 162:Generated_Source\PSoC5/USBUART_1_cdc.c ****     /* Check request direction: D2H or H2D. */
 163:Generated_Source\PSoC5/USBUART_1_cdc.c ****     if (0u != (USBUART_1_bmRequestTypeReg & USBUART_1_RQST_DIR_D2H))
 164:Generated_Source\PSoC5/USBUART_1_cdc.c ****     {
 165:Generated_Source\PSoC5/USBUART_1_cdc.c ****         /* Handle direction from device to host. */
 166:Generated_Source\PSoC5/USBUART_1_cdc.c **** 
 167:Generated_Source\PSoC5/USBUART_1_cdc.c ****         switch (USBUART_1_bRequestReg)
 168:Generated_Source\PSoC5/USBUART_1_cdc.c ****         {
 169:Generated_Source\PSoC5/USBUART_1_cdc.c ****             case USBUART_1_CDC_GET_LINE_CODING:
 170:Generated_Source\PSoC5/USBUART_1_cdc.c ****                 USBUART_1_currentTD.count = USBUART_1_LINE_CODING_SIZE;
 171:Generated_Source\PSoC5/USBUART_1_cdc.c ****                 USBUART_1_currentTD.pData = USBUART_1_linesCoding[comPort];
 172:Generated_Source\PSoC5/USBUART_1_cdc.c ****                 requestHandled  = USBUART_1_InitControlRead();
 173:Generated_Source\PSoC5/USBUART_1_cdc.c ****                 break;
 174:Generated_Source\PSoC5/USBUART_1_cdc.c **** 
 175:Generated_Source\PSoC5/USBUART_1_cdc.c ****             /* `#START CDC_READ_REQUESTS` Place other request handler here */
 176:Generated_Source\PSoC5/USBUART_1_cdc.c **** 
 177:Generated_Source\PSoC5/USBUART_1_cdc.c ****             /* `#END` */
 178:Generated_Source\PSoC5/USBUART_1_cdc.c **** 
 179:Generated_Source\PSoC5/USBUART_1_cdc.c ****             default:
 180:Generated_Source\PSoC5/USBUART_1_cdc.c ****             /* Do not handle this request unless callback is defined. */
 181:Generated_Source\PSoC5/USBUART_1_cdc.c ****             #ifdef USBUART_1_DISPATCH_CDC_CLASS_CDC_READ_REQUESTS_CALLBACK
 182:Generated_Source\PSoC5/USBUART_1_cdc.c ****                 requestHandled = USBUART_1_DispatchCDCClass_CDC_READ_REQUESTS_Callback();
 183:Generated_Source\PSoC5/USBUART_1_cdc.c ****             #endif /* (USBUART_1_DISPATCH_CDC_CLASS_CDC_READ_REQUESTS_CALLBACK) */
 184:Generated_Source\PSoC5/USBUART_1_cdc.c ****                 break;
 185:Generated_Source\PSoC5/USBUART_1_cdc.c ****         }
 186:Generated_Source\PSoC5/USBUART_1_cdc.c ****     }
 187:Generated_Source\PSoC5/USBUART_1_cdc.c ****     else
 188:Generated_Source\PSoC5/USBUART_1_cdc.c ****     {
 189:Generated_Source\PSoC5/USBUART_1_cdc.c ****         /* Handle direction from host to device. */
 190:Generated_Source\PSoC5/USBUART_1_cdc.c **** 
 191:Generated_Source\PSoC5/USBUART_1_cdc.c ****         switch (USBUART_1_bRequestReg)
 192:Generated_Source\PSoC5/USBUART_1_cdc.c ****         {
 193:Generated_Source\PSoC5/USBUART_1_cdc.c ****             case USBUART_1_CDC_SET_LINE_CODING:
 194:Generated_Source\PSoC5/USBUART_1_cdc.c ****                 USBUART_1_currentTD.count  = USBUART_1_LINE_CODING_SIZE;
 195:Generated_Source\PSoC5/USBUART_1_cdc.c ****                 USBUART_1_currentTD.pData  = USBUART_1_linesCoding[comPort];
 196:Generated_Source\PSoC5/USBUART_1_cdc.c ****                 USBUART_1_linesChanged[comPort] |= USBUART_1_LINE_CODING_CHANGED;
 197:Generated_Source\PSoC5/USBUART_1_cdc.c **** 
 198:Generated_Source\PSoC5/USBUART_1_cdc.c ****                 requestHandled = USBUART_1_InitControlWrite();
 199:Generated_Source\PSoC5/USBUART_1_cdc.c ****                 break;
 200:Generated_Source\PSoC5/USBUART_1_cdc.c **** 
 201:Generated_Source\PSoC5/USBUART_1_cdc.c ****             case USBUART_1_CDC_SET_CONTROL_LINE_STATE:
 202:Generated_Source\PSoC5/USBUART_1_cdc.c ****                 USBUART_1_linesControlBitmap[comPort] = (uint8) USBUART_1_wValueLoReg;
ARM GAS  C:\Users\Luggi\AppData\Local\Temp\ccLTEJfD.s 			page 5


 203:Generated_Source\PSoC5/USBUART_1_cdc.c ****                 USBUART_1_linesChanged[comPort]      |= USBUART_1_LINE_CONTROL_CHANGED;
 204:Generated_Source\PSoC5/USBUART_1_cdc.c **** 
 205:Generated_Source\PSoC5/USBUART_1_cdc.c ****                 requestHandled = USBUART_1_InitNoDataControlTransfer();
 206:Generated_Source\PSoC5/USBUART_1_cdc.c ****                 break;
 207:Generated_Source\PSoC5/USBUART_1_cdc.c **** 
 208:Generated_Source\PSoC5/USBUART_1_cdc.c ****             /* `#START CDC_WRITE_REQUESTS` Place other request handler here */
 209:Generated_Source\PSoC5/USBUART_1_cdc.c **** 
 210:Generated_Source\PSoC5/USBUART_1_cdc.c ****             /* `#END` */
 211:Generated_Source\PSoC5/USBUART_1_cdc.c **** 
 212:Generated_Source\PSoC5/USBUART_1_cdc.c ****             default:
 213:Generated_Source\PSoC5/USBUART_1_cdc.c ****                 /* Do not handle this request unless callback is defined. */
 214:Generated_Source\PSoC5/USBUART_1_cdc.c ****             #ifdef USBUART_1_DISPATCH_CDC_CLASS_CDC_WRITE_REQUESTS_CALLBACK
 215:Generated_Source\PSoC5/USBUART_1_cdc.c ****                 requestHandled = USBUART_1_DispatchCDCClass_CDC_WRITE_REQUESTS_Callback();
 216:Generated_Source\PSoC5/USBUART_1_cdc.c ****             #endif /* (USBUART_1_DISPATCH_CDC_CLASS_CDC_WRITE_REQUESTS_CALLBACK) */
 217:Generated_Source\PSoC5/USBUART_1_cdc.c ****                 break;
 218:Generated_Source\PSoC5/USBUART_1_cdc.c ****         }
 219:Generated_Source\PSoC5/USBUART_1_cdc.c ****     }
 220:Generated_Source\PSoC5/USBUART_1_cdc.c **** 
 221:Generated_Source\PSoC5/USBUART_1_cdc.c ****     return(requestHandled);
 222:Generated_Source\PSoC5/USBUART_1_cdc.c **** }
 223:Generated_Source\PSoC5/USBUART_1_cdc.c **** 
 224:Generated_Source\PSoC5/USBUART_1_cdc.c **** 
 225:Generated_Source\PSoC5/USBUART_1_cdc.c **** /***************************************************************************
 226:Generated_Source\PSoC5/USBUART_1_cdc.c **** * Function Name: USBUART_1_GetInterfaceComPort
 227:Generated_Source\PSoC5/USBUART_1_cdc.c **** ************************************************************************//**
 228:Generated_Source\PSoC5/USBUART_1_cdc.c **** *   \internal
 229:Generated_Source\PSoC5/USBUART_1_cdc.c **** *  Internal function which gets number of COM port by specified interface
 230:Generated_Source\PSoC5/USBUART_1_cdc.c **** *   number.
 231:Generated_Source\PSoC5/USBUART_1_cdc.c **** *
 232:Generated_Source\PSoC5/USBUART_1_cdc.c **** * \param uint8 interface
 233:Generated_Source\PSoC5/USBUART_1_cdc.c **** *  Interface number
 234:Generated_Source\PSoC5/USBUART_1_cdc.c **** *
 235:Generated_Source\PSoC5/USBUART_1_cdc.c **** * \return
 236:Generated_Source\PSoC5/USBUART_1_cdc.c **** *  COM port number (0 or 1) or error 0xFF
 237:Generated_Source\PSoC5/USBUART_1_cdc.c **** *
 238:Generated_Source\PSoC5/USBUART_1_cdc.c **** ***************************************************************************/
 239:Generated_Source\PSoC5/USBUART_1_cdc.c **** uint8 USBUART_1_GetInterfaceComPort(uint8 interface) 
 240:Generated_Source\PSoC5/USBUART_1_cdc.c **** {
  27              		.loc 1 240 0
  28              		.cfi_startproc
  29              		@ args = 0, pretend = 0, frame = 0
  30              		@ frame_needed = 0, uses_anonymous_args = 0
  31              	.LVL0:
  32 0000 30B5     		push	{r4, r5, lr}
  33              		.cfi_def_cfa_offset 12
  34              		.cfi_offset 4, -12
  35              		.cfi_offset 5, -8
  36              		.cfi_offset 14, -4
 241:Generated_Source\PSoC5/USBUART_1_cdc.c ****     uint8 comPort = 0u;
  37              		.loc 1 241 0
  38 0002 0021     		movs	r1, #0
 240:Generated_Source\PSoC5/USBUART_1_cdc.c ****     uint8 comPort = 0u;
  39              		.loc 1 240 0
  40 0004 0446     		mov	r4, r0
 242:Generated_Source\PSoC5/USBUART_1_cdc.c ****     uint8 res = 0xFFu;
  41              		.loc 1 242 0
  42 0006 FF20     		movs	r0, #255
ARM GAS  C:\Users\Luggi\AppData\Local\Temp\ccLTEJfD.s 			page 6


  43              	.LVL1:
  44              	.L3:
 243:Generated_Source\PSoC5/USBUART_1_cdc.c ****     uint8 notEp;
 244:Generated_Source\PSoC5/USBUART_1_cdc.c **** 
 245:Generated_Source\PSoC5/USBUART_1_cdc.c ****     while (comPort < USBUART_1_MAX_MULTI_COM_NUM)
 246:Generated_Source\PSoC5/USBUART_1_cdc.c ****     {
 247:Generated_Source\PSoC5/USBUART_1_cdc.c ****         notEp = USBUART_1_cdcCommInInterruptEp[comPort];
  45              		.loc 1 247 0
  46 0008 074B     		ldr	r3, .L8
 248:Generated_Source\PSoC5/USBUART_1_cdc.c **** 
 249:Generated_Source\PSoC5/USBUART_1_cdc.c ****         if (USBUART_1_EP[notEp].interface == interface)
  47              		.loc 1 249 0
  48 000a 0C25     		movs	r5, #12
 247:Generated_Source\PSoC5/USBUART_1_cdc.c **** 
  49              		.loc 1 247 0
  50 000c 5A5C     		ldrb	r2, [r3, r1]	@ zero_extendqisi2
  51              	.LVL2:
  52              		.loc 1 249 0
  53 000e 074B     		ldr	r3, .L8+4
  54 0010 05FB0233 		mla	r3, r5, r2, r3
  55 0014 0833     		adds	r3, r3, #8
  56 0016 9B78     		ldrb	r3, [r3, #2]	@ zero_extendqisi2
  57 0018 A342     		cmp	r3, r4
  58 001a 01D1     		bne	.L2
  59 001c 0846     		mov	r0, r1
  60 001e 30BD     		pop	{r4, r5, pc}
  61              	.L2:
  62              	.LVL3:
 245:Generated_Source\PSoC5/USBUART_1_cdc.c ****     {
  63              		.loc 1 245 0
  64 0020 09B9     		cbnz	r1, .L7
  65 0022 0121     		movs	r1, #1
  66              	.LVL4:
  67 0024 F0E7     		b	.L3
  68              	.LVL5:
  69              	.L7:
 250:Generated_Source\PSoC5/USBUART_1_cdc.c ****         {
 251:Generated_Source\PSoC5/USBUART_1_cdc.c ****             res = comPort;
 252:Generated_Source\PSoC5/USBUART_1_cdc.c ****             comPort = USBUART_1_MAX_MULTI_COM_NUM;
 253:Generated_Source\PSoC5/USBUART_1_cdc.c ****         }
 254:Generated_Source\PSoC5/USBUART_1_cdc.c **** 
 255:Generated_Source\PSoC5/USBUART_1_cdc.c ****         comPort++;
 256:Generated_Source\PSoC5/USBUART_1_cdc.c ****     }
 257:Generated_Source\PSoC5/USBUART_1_cdc.c ****     return (res);
 258:Generated_Source\PSoC5/USBUART_1_cdc.c **** }
  70              		.loc 1 258 0
  71 0026 30BD     		pop	{r4, r5, pc}
  72              	.L9:
  73              		.align	2
  74              	.L8:
  75 0028 00000000 		.word	USBUART_1_cdcCommInInterruptEp
  76 002c 00000000 		.word	USBUART_1_EP
  77              		.cfi_endproc
  78              	.LFE1:
  79              		.size	USBUART_1_GetInterfaceComPort, .-USBUART_1_GetInterfaceComPort
  80              		.section	.text.USBUART_1_DispatchCDCClassRqst,"ax",%progbits
  81              		.align	1
ARM GAS  C:\Users\Luggi\AppData\Local\Temp\ccLTEJfD.s 			page 7


  82              		.global	USBUART_1_DispatchCDCClassRqst
  83              		.thumb
  84              		.thumb_func
  85              		.type	USBUART_1_DispatchCDCClassRqst, %function
  86              	USBUART_1_DispatchCDCClassRqst:
  87              	.LFB0:
 156:Generated_Source\PSoC5/USBUART_1_cdc.c ****     uint8 requestHandled = USBUART_1_FALSE;
  88              		.loc 1 156 0
  89              		.cfi_startproc
  90              		@ args = 0, pretend = 0, frame = 0
  91              		@ frame_needed = 0, uses_anonymous_args = 0
  92              	.LVL6:
  93 0000 10B5     		push	{r4, lr}
  94              		.cfi_def_cfa_offset 8
  95              		.cfi_offset 4, -8
  96              		.cfi_offset 14, -4
 160:Generated_Source\PSoC5/USBUART_1_cdc.c **** 
  97              		.loc 1 160 0
  98 0002 1E4C     		ldr	r4, .L18
  99 0004 2079     		ldrb	r0, [r4, #4]	@ zero_extendqisi2
 100 0006 FFF7FEFF 		bl	USBUART_1_GetInterfaceComPort
 101              	.LVL7:
 163:Generated_Source\PSoC5/USBUART_1_cdc.c ****     {
 102              		.loc 1 163 0
 103 000a 2378     		ldrb	r3, [r4]	@ zero_extendqisi2
 104 000c 13F0800F 		tst	r3, #128
 167:Generated_Source\PSoC5/USBUART_1_cdc.c ****         {
 105              		.loc 1 167 0
 106 0010 6378     		ldrb	r3, [r4, #1]	@ zero_extendqisi2
 163:Generated_Source\PSoC5/USBUART_1_cdc.c ****     {
 107              		.loc 1 163 0
 108 0012 0DD0     		beq	.L11
 167:Generated_Source\PSoC5/USBUART_1_cdc.c ****         {
 109              		.loc 1 167 0
 110 0014 212B     		cmp	r3, #33
 111 0016 2ED1     		bne	.L12
 222:Generated_Source\PSoC5/USBUART_1_cdc.c **** 
 112              		.loc 1 222 0
 113 0018 BDE81040 		pop	{r4, lr}
 114              		.cfi_remember_state
 115              		.cfi_restore 14
 116              		.cfi_restore 4
 117              		.cfi_def_cfa_offset 0
 170:Generated_Source\PSoC5/USBUART_1_cdc.c ****                 USBUART_1_currentTD.pData = USBUART_1_linesCoding[comPort];
 118              		.loc 1 170 0
 119 001c 184B     		ldr	r3, .L18+4
 120 001e 0722     		movs	r2, #7
 121 0020 1A80     		strh	r2, [r3]	@ movhi
 171:Generated_Source\PSoC5/USBUART_1_cdc.c ****                 requestHandled  = USBUART_1_InitControlRead();
 122              		.loc 1 171 0
 123 0022 184A     		ldr	r2, .L18+8
 124 0024 C0EBC000 		rsb	r0, r0, r0, lsl #3
 125              	.LVL8:
 126 0028 1044     		add	r0, r0, r2
 127 002a 5860     		str	r0, [r3, #4]
 172:Generated_Source\PSoC5/USBUART_1_cdc.c ****                 break;
 128              		.loc 1 172 0
ARM GAS  C:\Users\Luggi\AppData\Local\Temp\ccLTEJfD.s 			page 8


 129 002c FFF7FEBF 		b	USBUART_1_InitControlRead
 130              	.LVL9:
 131              	.L11:
 132              		.cfi_restore_state
 191:Generated_Source\PSoC5/USBUART_1_cdc.c ****         {
 133              		.loc 1 191 0
 134 0030 DBB2     		uxtb	r3, r3
 135 0032 202B     		cmp	r3, #32
 136 0034 0ED0     		beq	.L14
 137 0036 222B     		cmp	r3, #34
 138 0038 1DD1     		bne	.L12
 202:Generated_Source\PSoC5/USBUART_1_cdc.c ****                 USBUART_1_linesChanged[comPort]      |= USBUART_1_LINE_CONTROL_CHANGED;
 139              		.loc 1 202 0
 140 003a A378     		ldrb	r3, [r4, #2]	@ zero_extendqisi2
 141 003c 124A     		ldr	r2, .L18+12
 142 003e 22F81030 		strh	r3, [r2, r0, lsl #1]	@ movhi
 203:Generated_Source\PSoC5/USBUART_1_cdc.c **** 
 143              		.loc 1 203 0
 144 0042 124A     		ldr	r2, .L18+16
 145 0044 135C     		ldrb	r3, [r2, r0]	@ zero_extendqisi2
 146 0046 43F00203 		orr	r3, r3, #2
 147 004a 1354     		strb	r3, [r2, r0]
 222:Generated_Source\PSoC5/USBUART_1_cdc.c **** 
 148              		.loc 1 222 0
 149 004c BDE81040 		pop	{r4, lr}
 150              		.cfi_remember_state
 151              		.cfi_restore 14
 152              		.cfi_restore 4
 153              		.cfi_def_cfa_offset 0
 205:Generated_Source\PSoC5/USBUART_1_cdc.c ****                 break;
 154              		.loc 1 205 0
 155 0050 FFF7FEBF 		b	USBUART_1_InitNoDataControlTransfer
 156              	.LVL10:
 157              	.L14:
 158              		.cfi_restore_state
 194:Generated_Source\PSoC5/USBUART_1_cdc.c ****                 USBUART_1_currentTD.pData  = USBUART_1_linesCoding[comPort];
 159              		.loc 1 194 0
 160 0054 0A4A     		ldr	r2, .L18+4
 161 0056 0723     		movs	r3, #7
 195:Generated_Source\PSoC5/USBUART_1_cdc.c ****                 USBUART_1_linesChanged[comPort] |= USBUART_1_LINE_CODING_CHANGED;
 162              		.loc 1 195 0
 163 0058 0A49     		ldr	r1, .L18+8
 194:Generated_Source\PSoC5/USBUART_1_cdc.c ****                 USBUART_1_currentTD.pData  = USBUART_1_linesCoding[comPort];
 164              		.loc 1 194 0
 165 005a 1380     		strh	r3, [r2]	@ movhi
 195:Generated_Source\PSoC5/USBUART_1_cdc.c ****                 USBUART_1_linesChanged[comPort] |= USBUART_1_LINE_CODING_CHANGED;
 166              		.loc 1 195 0
 167 005c C0EBC003 		rsb	r3, r0, r0, lsl #3
 168 0060 0B44     		add	r3, r3, r1
 169 0062 5360     		str	r3, [r2, #4]
 196:Generated_Source\PSoC5/USBUART_1_cdc.c **** 
 170              		.loc 1 196 0
 171 0064 094A     		ldr	r2, .L18+16
 172 0066 135C     		ldrb	r3, [r2, r0]	@ zero_extendqisi2
 173 0068 43F00103 		orr	r3, r3, #1
 174 006c 1354     		strb	r3, [r2, r0]
 222:Generated_Source\PSoC5/USBUART_1_cdc.c **** 
ARM GAS  C:\Users\Luggi\AppData\Local\Temp\ccLTEJfD.s 			page 9


 175              		.loc 1 222 0
 176 006e BDE81040 		pop	{r4, lr}
 177              		.cfi_remember_state
 178              		.cfi_restore 14
 179              		.cfi_restore 4
 180              		.cfi_def_cfa_offset 0
 198:Generated_Source\PSoC5/USBUART_1_cdc.c ****                 break;
 181              		.loc 1 198 0
 182 0072 FFF7FEBF 		b	USBUART_1_InitControlWrite
 183              	.LVL11:
 184              	.L12:
 185              		.cfi_restore_state
 222:Generated_Source\PSoC5/USBUART_1_cdc.c **** 
 186              		.loc 1 222 0
 187 0076 0020     		movs	r0, #0
 188              	.LVL12:
 189 0078 10BD     		pop	{r4, pc}
 190              	.L19:
 191 007a 00BF     		.align	2
 192              	.L18:
 193 007c 00600040 		.word	1073766400
 194 0080 00000000 		.word	USBUART_1_currentTD
 195 0084 00000000 		.word	.LANCHOR0
 196 0088 00000000 		.word	USBUART_1_linesControlBitmap
 197 008c 00000000 		.word	USBUART_1_linesChanged
 198              		.cfi_endproc
 199              	.LFE0:
 200              		.size	USBUART_1_DispatchCDCClassRqst, .-USBUART_1_DispatchCDCClassRqst
 201              		.section	.text.USBUART_1_CDC_Init,"ax",%progbits
 202              		.align	1
 203              		.global	USBUART_1_CDC_Init
 204              		.thumb
 205              		.thumb_func
 206              		.type	USBUART_1_CDC_Init, %function
 207              	USBUART_1_CDC_Init:
 208              	.LFB2:
 259:Generated_Source\PSoC5/USBUART_1_cdc.c **** 
 260:Generated_Source\PSoC5/USBUART_1_cdc.c **** 
 261:Generated_Source\PSoC5/USBUART_1_cdc.c **** /***************************************
 262:Generated_Source\PSoC5/USBUART_1_cdc.c **** * Optional CDC APIs
 263:Generated_Source\PSoC5/USBUART_1_cdc.c **** ***************************************/
 264:Generated_Source\PSoC5/USBUART_1_cdc.c **** #if (USBUART_1_ENABLE_CDC_CLASS_API != 0u)
 265:Generated_Source\PSoC5/USBUART_1_cdc.c **** /***************************************************************************
 266:Generated_Source\PSoC5/USBUART_1_cdc.c **** * Function Name: USBUART_1_CDC_Init
 267:Generated_Source\PSoC5/USBUART_1_cdc.c **** ************************************************************************//**
 268:Generated_Source\PSoC5/USBUART_1_cdc.c **** *
 269:Generated_Source\PSoC5/USBUART_1_cdc.c **** *  This function initializes the CDC interface to be ready to receive data
 270:Generated_Source\PSoC5/USBUART_1_cdc.c **** *  from the PC. The API set active communication port to 0 in the case of 
 271:Generated_Source\PSoC5/USBUART_1_cdc.c **** *  multiple communication port support.This API should be called after the 
 272:Generated_Source\PSoC5/USBUART_1_cdc.c **** *  device has been started and configured using USBUART_Start() API to 
 273:Generated_Source\PSoC5/USBUART_1_cdc.c **** *  initialize and start the USBFS component operation. Then call the 
 274:Generated_Source\PSoC5/USBUART_1_cdc.c **** *  USBUART_GetConfiguration() API to wait until the host has enumerated and 
 275:Generated_Source\PSoC5/USBUART_1_cdc.c **** *  configured the device. For example:
 276:Generated_Source\PSoC5/USBUART_1_cdc.c **** *
 277:Generated_Source\PSoC5/USBUART_1_cdc.c **** *  \snippet /USBFS_sut_02.cydsn/main.c wait for enumeration
 278:Generated_Source\PSoC5/USBUART_1_cdc.c **** *
 279:Generated_Source\PSoC5/USBUART_1_cdc.c **** * \return
ARM GAS  C:\Users\Luggi\AppData\Local\Temp\ccLTEJfD.s 			page 10


 280:Generated_Source\PSoC5/USBUART_1_cdc.c **** *  cystatus:
 281:Generated_Source\PSoC5/USBUART_1_cdc.c **** *   Return Value    Description
 282:Generated_Source\PSoC5/USBUART_1_cdc.c **** *   USBUART_1_SUCCESS   CDC interface was initialized correctly
 283:Generated_Source\PSoC5/USBUART_1_cdc.c **** *   USBUART_1_FAILURE   CDC interface was not initialized
 284:Generated_Source\PSoC5/USBUART_1_cdc.c **** *
 285:Generated_Source\PSoC5/USBUART_1_cdc.c **** * \globalvars
 286:Generated_Source\PSoC5/USBUART_1_cdc.c **** *   USBUART_1_linesChanged: Initialized to zero.
 287:Generated_Source\PSoC5/USBUART_1_cdc.c **** *   USBUART_1_cdcDataOutEp: Used as an OUT endpoint number.
 288:Generated_Source\PSoC5/USBUART_1_cdc.c **** *
 289:Generated_Source\PSoC5/USBUART_1_cdc.c **** * \reentrant
 290:Generated_Source\PSoC5/USBUART_1_cdc.c **** *  No.
 291:Generated_Source\PSoC5/USBUART_1_cdc.c **** *
 292:Generated_Source\PSoC5/USBUART_1_cdc.c **** *******************************************************************************/
 293:Generated_Source\PSoC5/USBUART_1_cdc.c **** uint8 USBUART_1_CDC_Init(void) 
 294:Generated_Source\PSoC5/USBUART_1_cdc.c **** {
 209              		.loc 1 294 0
 210              		.cfi_startproc
 211              		@ args = 0, pretend = 0, frame = 0
 212              		@ frame_needed = 0, uses_anonymous_args = 0
 213              	.LVL13:
 214 0000 10B5     		push	{r4, lr}
 215              		.cfi_def_cfa_offset 8
 216              		.cfi_offset 4, -8
 217              		.cfi_offset 14, -4
 295:Generated_Source\PSoC5/USBUART_1_cdc.c ****     uint8 comPort;
 296:Generated_Source\PSoC5/USBUART_1_cdc.c ****     uint8 outEp;
 297:Generated_Source\PSoC5/USBUART_1_cdc.c ****     uint8 ret = USBUART_1_SUCCESS;
 298:Generated_Source\PSoC5/USBUART_1_cdc.c **** 
 299:Generated_Source\PSoC5/USBUART_1_cdc.c ****     USBUART_1_activeCom = 0u;
 218              		.loc 1 299 0
 219 0002 164A     		ldr	r2, .L29
 220 0004 0023     		movs	r3, #0
 221 0006 1370     		strb	r3, [r2]
 300:Generated_Source\PSoC5/USBUART_1_cdc.c ****     USBUART_1_linesChanged[USBUART_1_COM_PORT1] = 0u;
 222              		.loc 1 300 0
 223 0008 154A     		ldr	r2, .L29+4
 301:Generated_Source\PSoC5/USBUART_1_cdc.c ****     USBUART_1_linesChanged[USBUART_1_COM_PORT2] = 0u;
 302:Generated_Source\PSoC5/USBUART_1_cdc.c **** 
 303:Generated_Source\PSoC5/USBUART_1_cdc.c ****     for(comPort = 0u; comPort<USBUART_1_MAX_MULTI_COM_NUM; comPort++)
 304:Generated_Source\PSoC5/USBUART_1_cdc.c ****     {
 305:Generated_Source\PSoC5/USBUART_1_cdc.c ****         outEp = USBUART_1_cdcDataOutEp[comPort];
 224              		.loc 1 305 0
 225 000a 164C     		ldr	r4, .L29+8
 300:Generated_Source\PSoC5/USBUART_1_cdc.c ****     USBUART_1_linesChanged[USBUART_1_COM_PORT1] = 0u;
 226              		.loc 1 300 0
 227 000c 1370     		strb	r3, [r2]
 301:Generated_Source\PSoC5/USBUART_1_cdc.c ****     USBUART_1_linesChanged[USBUART_1_COM_PORT2] = 0u;
 228              		.loc 1 301 0
 229 000e 5370     		strb	r3, [r2, #1]
 230              	.LVL14:
 231              		.loc 1 305 0
 232 0010 2078     		ldrb	r0, [r4]	@ zero_extendqisi2
 233 0012 C0B2     		uxtb	r0, r0
 234              	.LVL15:
 306:Generated_Source\PSoC5/USBUART_1_cdc.c ****         if((0u != outEp) && (USBUART_1_MAX_EP > outEp))
 235              		.loc 1 306 0
 236 0014 431E     		subs	r3, r0, #1
ARM GAS  C:\Users\Luggi\AppData\Local\Temp\ccLTEJfD.s 			page 11


 237 0016 072B     		cmp	r3, #7
 238 0018 01D8     		bhi	.L21
 307:Generated_Source\PSoC5/USBUART_1_cdc.c ****         {
 308:Generated_Source\PSoC5/USBUART_1_cdc.c ****             USBUART_1_EnableOutEP(outEp);
 239              		.loc 1 308 0
 240 001a FFF7FEFF 		bl	USBUART_1_EnableOutEP
 241              	.LVL16:
 242              	.L21:
 305:Generated_Source\PSoC5/USBUART_1_cdc.c ****         if((0u != outEp) && (USBUART_1_MAX_EP > outEp))
 243              		.loc 1 305 0
 244 001e 6078     		ldrb	r0, [r4, #1]	@ zero_extendqisi2
 245 0020 C0B2     		uxtb	r0, r0
 246              	.LVL17:
 306:Generated_Source\PSoC5/USBUART_1_cdc.c ****         if((0u != outEp) && (USBUART_1_MAX_EP > outEp))
 247              		.loc 1 306 0
 248 0022 431E     		subs	r3, r0, #1
 249 0024 072B     		cmp	r3, #7
 250 0026 01D8     		bhi	.L22
 251              		.loc 1 308 0
 252 0028 FFF7FEFF 		bl	USBUART_1_EnableOutEP
 253              	.LVL18:
 254              	.L22:
 309:Generated_Source\PSoC5/USBUART_1_cdc.c ****         }
 310:Generated_Source\PSoC5/USBUART_1_cdc.c **** 
 311:Generated_Source\PSoC5/USBUART_1_cdc.c ****     }
 312:Generated_Source\PSoC5/USBUART_1_cdc.c **** 
 313:Generated_Source\PSoC5/USBUART_1_cdc.c ****     /* COM Port 1 should be correct to proceed. */
 314:Generated_Source\PSoC5/USBUART_1_cdc.c ****     if ((0u == USBUART_1_cdcDataInEp[USBUART_1_COM_PORT1]) \
 255              		.loc 1 314 0
 256 002c 0E4A     		ldr	r2, .L29+12
 257 002e 1378     		ldrb	r3, [r2]	@ zero_extendqisi2
 258 0030 8BB1     		cbz	r3, .L28
 315:Generated_Source\PSoC5/USBUART_1_cdc.c ****             || (0u == USBUART_1_cdcDataOutEp[USBUART_1_COM_PORT1]) \
 259              		.loc 1 315 0
 260 0032 2378     		ldrb	r3, [r4]	@ zero_extendqisi2
 261 0034 7BB1     		cbz	r3, .L28
 316:Generated_Source\PSoC5/USBUART_1_cdc.c ****             || (0u ==  USBUART_1_cdcCommInInterruptEp[USBUART_1_COM_PORT1])
 262              		.loc 1 316 0
 263 0036 0D4B     		ldr	r3, .L29+16
 264 0038 1978     		ldrb	r1, [r3]	@ zero_extendqisi2
 265 003a 61B1     		cbz	r1, .L28
 317:Generated_Source\PSoC5/USBUART_1_cdc.c ****             || (USBUART_1_cdcDataInEp[USBUART_1_COM_PORT1] >= USBUART_1_MAX_EP)
 266              		.loc 1 317 0
 267 003c 1278     		ldrb	r2, [r2]	@ zero_extendqisi2
 268 003e 082A     		cmp	r2, #8
 269 0040 09D8     		bhi	.L28
 318:Generated_Source\PSoC5/USBUART_1_cdc.c ****             || (USBUART_1_cdcDataOutEp[USBUART_1_COM_PORT1] >= USBUART_1_MAX_EP)
 270              		.loc 1 318 0
 271 0042 084A     		ldr	r2, .L29+8
 272 0044 1278     		ldrb	r2, [r2]	@ zero_extendqisi2
 273 0046 082A     		cmp	r2, #8
 274 0048 05D8     		bhi	.L28
 319:Generated_Source\PSoC5/USBUART_1_cdc.c ****             || (USBUART_1_cdcCommInInterruptEp[USBUART_1_COM_PORT1] >= USBUART_1_MAX_EP))
 275              		.loc 1 319 0
 276 004a 1878     		ldrb	r0, [r3]	@ zero_extendqisi2
 297:Generated_Source\PSoC5/USBUART_1_cdc.c **** 
 277              		.loc 1 297 0
ARM GAS  C:\Users\Luggi\AppData\Local\Temp\ccLTEJfD.s 			page 12


 278 004c 0828     		cmp	r0, #8
 279 004e 94BF     		ite	ls
 280 0050 0020     		movls	r0, #0
 281 0052 0120     		movhi	r0, #1
 282 0054 10BD     		pop	{r4, pc}
 283              	.L28:
 320:Generated_Source\PSoC5/USBUART_1_cdc.c ****     {
 321:Generated_Source\PSoC5/USBUART_1_cdc.c ****         ret = USBUART_1_FAILURE;
 284              		.loc 1 321 0
 285 0056 0120     		movs	r0, #1
 286              	.LVL19:
 322:Generated_Source\PSoC5/USBUART_1_cdc.c ****     }
 323:Generated_Source\PSoC5/USBUART_1_cdc.c **** 
 324:Generated_Source\PSoC5/USBUART_1_cdc.c ****     return (ret);
 325:Generated_Source\PSoC5/USBUART_1_cdc.c **** }
 287              		.loc 1 325 0
 288 0058 10BD     		pop	{r4, pc}
 289              	.L30:
 290 005a 00BF     		.align	2
 291              	.L29:
 292 005c 00000000 		.word	.LANCHOR1
 293 0060 00000000 		.word	USBUART_1_linesChanged
 294 0064 00000000 		.word	USBUART_1_cdcDataOutEp
 295 0068 00000000 		.word	USBUART_1_cdcDataInEp
 296 006c 00000000 		.word	USBUART_1_cdcCommInInterruptEp
 297              		.cfi_endproc
 298              	.LFE2:
 299              		.size	USBUART_1_CDC_Init, .-USBUART_1_CDC_Init
 300              		.section	.text.USBUART_1_PutData,"ax",%progbits
 301              		.align	1
 302              		.global	USBUART_1_PutData
 303              		.thumb
 304              		.thumb_func
 305              		.type	USBUART_1_PutData, %function
 306              	USBUART_1_PutData:
 307              	.LFB3:
 326:Generated_Source\PSoC5/USBUART_1_cdc.c **** 
 327:Generated_Source\PSoC5/USBUART_1_cdc.c **** 
 328:Generated_Source\PSoC5/USBUART_1_cdc.c **** /*******************************************************************************
 329:Generated_Source\PSoC5/USBUART_1_cdc.c **** * Function Name: USBUART_1_PutData
 330:Generated_Source\PSoC5/USBUART_1_cdc.c **** ****************************************************************************//**
 331:Generated_Source\PSoC5/USBUART_1_cdc.c **** *
 332:Generated_Source\PSoC5/USBUART_1_cdc.c **** *  This function sends a specified number of bytes from the location specified
 333:Generated_Source\PSoC5/USBUART_1_cdc.c **** *  by a pointer to the PC. The USBUART_1_CDCIsReady() function should be
 334:Generated_Source\PSoC5/USBUART_1_cdc.c **** *  called before sending new data, to be sure that the previous data has
 335:Generated_Source\PSoC5/USBUART_1_cdc.c **** *  finished sending.
 336:Generated_Source\PSoC5/USBUART_1_cdc.c **** *  If the last sent packet is less than maximum packet size the USB transfer
 337:Generated_Source\PSoC5/USBUART_1_cdc.c **** *  of this short packet will identify the end of the segment. If the last sent
 338:Generated_Source\PSoC5/USBUART_1_cdc.c **** *  packet is exactly maximum packet size, it shall be followed by a zero-length
 339:Generated_Source\PSoC5/USBUART_1_cdc.c **** *  packet (which is a short packet) to assure the end of segment is properly
 340:Generated_Source\PSoC5/USBUART_1_cdc.c **** *  identified. To send zero-length packet, use USBUART_1_PutData() API
 341:Generated_Source\PSoC5/USBUART_1_cdc.c **** *  with length parameter set to zero.
 342:Generated_Source\PSoC5/USBUART_1_cdc.c **** *
 343:Generated_Source\PSoC5/USBUART_1_cdc.c **** *  \param pData: pointer to the buffer containing data to be sent.
 344:Generated_Source\PSoC5/USBUART_1_cdc.c **** *  \param length: Specifies the number of bytes to send from the pData
 345:Generated_Source\PSoC5/USBUART_1_cdc.c **** *  buffer. Maximum length will be limited by the maximum packet
 346:Generated_Source\PSoC5/USBUART_1_cdc.c **** *  size for the endpoint. Data will be lost if length is greater than Max
ARM GAS  C:\Users\Luggi\AppData\Local\Temp\ccLTEJfD.s 			page 13


 347:Generated_Source\PSoC5/USBUART_1_cdc.c **** *  Packet Size.
 348:Generated_Source\PSoC5/USBUART_1_cdc.c **** *
 349:Generated_Source\PSoC5/USBUART_1_cdc.c **** * \globalvars
 350:Generated_Source\PSoC5/USBUART_1_cdc.c **** *
 351:Generated_Source\PSoC5/USBUART_1_cdc.c **** *   USBUART_1_cdcDataInEp: CDC IN endpoint number used for sending
 352:Generated_Source\PSoC5/USBUART_1_cdc.c **** *     data.
 353:Generated_Source\PSoC5/USBUART_1_cdc.c **** *
 354:Generated_Source\PSoC5/USBUART_1_cdc.c **** * \reentrant
 355:Generated_Source\PSoC5/USBUART_1_cdc.c **** *  No.
 356:Generated_Source\PSoC5/USBUART_1_cdc.c **** *
 357:Generated_Source\PSoC5/USBUART_1_cdc.c **** *******************************************************************************/
 358:Generated_Source\PSoC5/USBUART_1_cdc.c **** void USBUART_1_PutData(const uint8* pData, uint16 length) 
 359:Generated_Source\PSoC5/USBUART_1_cdc.c **** {
 308              		.loc 1 359 0
 309              		.cfi_startproc
 310              		@ args = 0, pretend = 0, frame = 0
 311              		@ frame_needed = 0, uses_anonymous_args = 0
 312              	.LVL20:
 313 0000 0A46     		mov	r2, r1
 314 0002 10B5     		push	{r4, lr}
 315              		.cfi_def_cfa_offset 8
 316              		.cfi_offset 4, -8
 317              		.cfi_offset 14, -4
 318              		.loc 1 359 0
 319 0004 0446     		mov	r4, r0
 360:Generated_Source\PSoC5/USBUART_1_cdc.c ****     uint8 epNumber = USBUART_1_cdcDataInEp[USBUART_1_activeCom];
 320              		.loc 1 360 0
 321 0006 0A4B     		ldr	r3, .L33
 322 0008 0A49     		ldr	r1, .L33+4
 323              	.LVL21:
 324 000a 1B78     		ldrb	r3, [r3]	@ zero_extendqisi2
 325 000c C85C     		ldrb	r0, [r1, r3]	@ zero_extendqisi2
 326              	.LVL22:
 361:Generated_Source\PSoC5/USBUART_1_cdc.c **** 
 362:Generated_Source\PSoC5/USBUART_1_cdc.c ****     /* Limit length to maximum packet size for endpoint. */
 363:Generated_Source\PSoC5/USBUART_1_cdc.c ****     if (length > USBUART_1_EP[epNumber].bufferSize)
 327              		.loc 1 363 0
 328 000e 0A49     		ldr	r1, .L33+8
 360:Generated_Source\PSoC5/USBUART_1_cdc.c ****     uint8 epNumber = USBUART_1_cdcDataInEp[USBUART_1_activeCom];
 329              		.loc 1 360 0
 330 0010 C0B2     		uxtb	r0, r0
 331              	.LVL23:
 332              		.loc 1 363 0
 333 0012 0C23     		movs	r3, #12
 334 0014 03FB0013 		mla	r3, r3, r0, r1
 335 0018 1989     		ldrh	r1, [r3, #8]
 336 001a 89B2     		uxth	r1, r1
 337 001c 8A42     		cmp	r2, r1
 364:Generated_Source\PSoC5/USBUART_1_cdc.c ****     {
 365:Generated_Source\PSoC5/USBUART_1_cdc.c ****         /* Caution: Data will be lost if length is greater than Max Packet Size. */
 366:Generated_Source\PSoC5/USBUART_1_cdc.c ****         length = USBUART_1_EP[epNumber].bufferSize;
 338              		.loc 1 366 0
 339 001e 88BF     		it	hi
 340 0020 1A89     		ldrhhi	r2, [r3, #8]
 367:Generated_Source\PSoC5/USBUART_1_cdc.c **** 
 368:Generated_Source\PSoC5/USBUART_1_cdc.c ****         /* Halt CPU in debug mode */
 369:Generated_Source\PSoC5/USBUART_1_cdc.c ****         CYASSERT(0u != 0u);
ARM GAS  C:\Users\Luggi\AppData\Local\Temp\ccLTEJfD.s 			page 14


 370:Generated_Source\PSoC5/USBUART_1_cdc.c ****     }
 371:Generated_Source\PSoC5/USBUART_1_cdc.c **** 
 372:Generated_Source\PSoC5/USBUART_1_cdc.c ****     USBUART_1_LoadInEP(epNumber, pData, length);
 341              		.loc 1 372 0
 342 0022 2146     		mov	r1, r4
 373:Generated_Source\PSoC5/USBUART_1_cdc.c **** }
 343              		.loc 1 373 0
 344 0024 BDE81040 		pop	{r4, lr}
 345              		.cfi_restore 14
 346              		.cfi_restore 4
 347              		.cfi_def_cfa_offset 0
 348              	.LVL24:
 366:Generated_Source\PSoC5/USBUART_1_cdc.c **** 
 349              		.loc 1 366 0
 350 0028 88BF     		it	hi
 351 002a 92B2     		uxthhi	r2, r2
 352              	.LVL25:
 372:Generated_Source\PSoC5/USBUART_1_cdc.c **** }
 353              		.loc 1 372 0
 354 002c FFF7FEBF 		b	USBUART_1_LoadInEP
 355              	.LVL26:
 356              	.L34:
 357              		.align	2
 358              	.L33:
 359 0030 00000000 		.word	.LANCHOR1
 360 0034 00000000 		.word	USBUART_1_cdcDataInEp
 361 0038 00000000 		.word	USBUART_1_EP
 362              		.cfi_endproc
 363              	.LFE3:
 364              		.size	USBUART_1_PutData, .-USBUART_1_PutData
 365              		.section	.text.USBUART_1_PutString,"ax",%progbits
 366              		.align	1
 367              		.global	USBUART_1_PutString
 368              		.thumb
 369              		.thumb_func
 370              		.type	USBUART_1_PutString, %function
 371              	USBUART_1_PutString:
 372              	.LFB5:
 374:Generated_Source\PSoC5/USBUART_1_cdc.c **** 
 375:Generated_Source\PSoC5/USBUART_1_cdc.c **** 
 376:Generated_Source\PSoC5/USBUART_1_cdc.c **** /*******************************************************************************
 377:Generated_Source\PSoC5/USBUART_1_cdc.c **** * Function Name: USBUART_1_StrLen
 378:Generated_Source\PSoC5/USBUART_1_cdc.c **** ****************************************************************************//**
 379:Generated_Source\PSoC5/USBUART_1_cdc.c **** *
 380:Generated_Source\PSoC5/USBUART_1_cdc.c **** *  Calculates length of a null terminated string.
 381:Generated_Source\PSoC5/USBUART_1_cdc.c **** *
 382:Generated_Source\PSoC5/USBUART_1_cdc.c **** *  \param string: pointer to the string.
 383:Generated_Source\PSoC5/USBUART_1_cdc.c **** *
 384:Generated_Source\PSoC5/USBUART_1_cdc.c **** * \return
 385:Generated_Source\PSoC5/USBUART_1_cdc.c **** *  Length of the string
 386:Generated_Source\PSoC5/USBUART_1_cdc.c **** *
 387:Generated_Source\PSoC5/USBUART_1_cdc.c **** *******************************************************************************/
 388:Generated_Source\PSoC5/USBUART_1_cdc.c **** static uint16 USBUART_1_StrLen(const char8 string[]) 
 389:Generated_Source\PSoC5/USBUART_1_cdc.c **** {
 390:Generated_Source\PSoC5/USBUART_1_cdc.c ****     uint16 len = 0u;
 391:Generated_Source\PSoC5/USBUART_1_cdc.c **** 
 392:Generated_Source\PSoC5/USBUART_1_cdc.c ****     while (string[len] != (char8)0)
ARM GAS  C:\Users\Luggi\AppData\Local\Temp\ccLTEJfD.s 			page 15


 393:Generated_Source\PSoC5/USBUART_1_cdc.c ****     {
 394:Generated_Source\PSoC5/USBUART_1_cdc.c ****         len++;
 395:Generated_Source\PSoC5/USBUART_1_cdc.c ****     }
 396:Generated_Source\PSoC5/USBUART_1_cdc.c **** 
 397:Generated_Source\PSoC5/USBUART_1_cdc.c ****     return ((uint16) len);
 398:Generated_Source\PSoC5/USBUART_1_cdc.c **** }
 399:Generated_Source\PSoC5/USBUART_1_cdc.c **** 
 400:Generated_Source\PSoC5/USBUART_1_cdc.c **** 
 401:Generated_Source\PSoC5/USBUART_1_cdc.c **** /***************************************************************************
 402:Generated_Source\PSoC5/USBUART_1_cdc.c **** * Function Name: USBUART_1_PutString
 403:Generated_Source\PSoC5/USBUART_1_cdc.c **** ************************************************************************//**
 404:Generated_Source\PSoC5/USBUART_1_cdc.c **** *
 405:Generated_Source\PSoC5/USBUART_1_cdc.c **** *  This function sends a null terminated string to the PC. This function will
 406:Generated_Source\PSoC5/USBUART_1_cdc.c **** *  block if there is not enough memory to place the whole string. It will block
 407:Generated_Source\PSoC5/USBUART_1_cdc.c **** *  until the entire string has been written to the transmit buffer.
 408:Generated_Source\PSoC5/USBUART_1_cdc.c **** *  The USBUART_1_CDCIsReady() function should be called before
 409:Generated_Source\PSoC5/USBUART_1_cdc.c **** *  sending data with a new call to USBUART_1_PutString(), to be sure
 410:Generated_Source\PSoC5/USBUART_1_cdc.c **** *  that the previous data has finished sending. This function sends
 411:Generated_Source\PSoC5/USBUART_1_cdc.c **** *  zero-length packet automatically, if the length of the last packet, sent
 412:Generated_Source\PSoC5/USBUART_1_cdc.c **** *  by this API, is equal to Max Packet Size
 413:Generated_Source\PSoC5/USBUART_1_cdc.c **** *
 414:Generated_Source\PSoC5/USBUART_1_cdc.c **** *  \param string: pointer to the string to be sent to the PC.
 415:Generated_Source\PSoC5/USBUART_1_cdc.c **** *
 416:Generated_Source\PSoC5/USBUART_1_cdc.c **** * \globalvars
 417:Generated_Source\PSoC5/USBUART_1_cdc.c **** *
 418:Generated_Source\PSoC5/USBUART_1_cdc.c **** *   USBUART_1_cdcDataInEp: CDC IN endpoint number used for sending
 419:Generated_Source\PSoC5/USBUART_1_cdc.c **** *     data.
 420:Generated_Source\PSoC5/USBUART_1_cdc.c **** *
 421:Generated_Source\PSoC5/USBUART_1_cdc.c **** * \reentrant
 422:Generated_Source\PSoC5/USBUART_1_cdc.c **** *  No.
 423:Generated_Source\PSoC5/USBUART_1_cdc.c **** *
 424:Generated_Source\PSoC5/USBUART_1_cdc.c **** ***************************************************************************/
 425:Generated_Source\PSoC5/USBUART_1_cdc.c **** void USBUART_1_PutString(const char8 string[]) 
 426:Generated_Source\PSoC5/USBUART_1_cdc.c **** {
 373              		.loc 1 426 0
 374              		.cfi_startproc
 375              		@ args = 0, pretend = 0, frame = 0
 376              		@ frame_needed = 0, uses_anonymous_args = 0
 377              	.LVL27:
 378 0000 2DE9F843 		push	{r3, r4, r5, r6, r7, r8, r9, lr}
 379              		.cfi_def_cfa_offset 32
 380              		.cfi_offset 3, -32
 381              		.cfi_offset 4, -28
 382              		.cfi_offset 5, -24
 383              		.cfi_offset 6, -20
 384              		.cfi_offset 7, -16
 385              		.cfi_offset 8, -12
 386              		.cfi_offset 9, -8
 387              		.cfi_offset 14, -4
 388              		.loc 1 426 0
 389 0004 8146     		mov	r9, r0
 427:Generated_Source\PSoC5/USBUART_1_cdc.c ****     uint16 strLength;
 428:Generated_Source\PSoC5/USBUART_1_cdc.c ****     uint16 sendLength;
 429:Generated_Source\PSoC5/USBUART_1_cdc.c ****     uint16 bufIndex = 0u;
 430:Generated_Source\PSoC5/USBUART_1_cdc.c **** 
 431:Generated_Source\PSoC5/USBUART_1_cdc.c ****     uint8  epNumber = USBUART_1_cdcDataInEp[USBUART_1_activeCom];
 390              		.loc 1 431 0
ARM GAS  C:\Users\Luggi\AppData\Local\Temp\ccLTEJfD.s 			page 16


 391 0006 1E4B     		ldr	r3, .L47
 392 0008 1E4A     		ldr	r2, .L47+4
 393 000a 1B78     		ldrb	r3, [r3]	@ zero_extendqisi2
 394 000c D65C     		ldrb	r6, [r2, r3]	@ zero_extendqisi2
 395 000e 0023     		movs	r3, #0
 396 0010 F6B2     		uxtb	r6, r6
 397              	.LVL28:
 398              	.L36:
 399 0012 9CB2     		uxth	r4, r3
 400              	.LVL29:
 401              	.LBB4:
 402              	.LBB5:
 392:Generated_Source\PSoC5/USBUART_1_cdc.c ****     {
 403              		.loc 1 392 0
 404 0014 19F80450 		ldrb	r5, [r9, r4]	@ zero_extendqisi2
 405 0018 0133     		adds	r3, r3, #1
 406 001a 002D     		cmp	r5, #0
 407 001c F9D1     		bne	.L36
 408 001e 2F46     		mov	r7, r5
 409              	.LVL30:
 410              	.L41:
 411              	.LBE5:
 412              	.LBE4:
 432:Generated_Source\PSoC5/USBUART_1_cdc.c **** 
 433:Generated_Source\PSoC5/USBUART_1_cdc.c ****     /* Get length string length (it is terminated with zero). */
 434:Generated_Source\PSoC5/USBUART_1_cdc.c ****     strLength = USBUART_1_StrLen(string);
 435:Generated_Source\PSoC5/USBUART_1_cdc.c **** 
 436:Generated_Source\PSoC5/USBUART_1_cdc.c ****     do
 437:Generated_Source\PSoC5/USBUART_1_cdc.c ****     {
 438:Generated_Source\PSoC5/USBUART_1_cdc.c ****         /* Limit length to maximum packet size of endpoint. */
 439:Generated_Source\PSoC5/USBUART_1_cdc.c ****         sendLength = (strLength > USBUART_1_EP[epNumber].bufferSize) ?
 413              		.loc 1 439 0
 414 0020 1949     		ldr	r1, .L47+8
 415 0022 0C23     		movs	r3, #12
 416 0024 03FB0613 		mla	r3, r3, r6, r1
 417 0028 1A89     		ldrh	r2, [r3, #8]
 418 002a 8846     		mov	r8, r1
 419 002c 92B2     		uxth	r2, r2
 420 002e 9442     		cmp	r4, r2
 421 0030 94BF     		ite	ls
 422 0032 2546     		movls	r5, r4
 423 0034 1D89     		ldrhhi	r5, [r3, #8]
 440:Generated_Source\PSoC5/USBUART_1_cdc.c ****                                   USBUART_1_EP[epNumber].bufferSize : strLength;
 441:Generated_Source\PSoC5/USBUART_1_cdc.c **** 
 442:Generated_Source\PSoC5/USBUART_1_cdc.c ****         /* Load IN endpoint and expose it to host. */
 443:Generated_Source\PSoC5/USBUART_1_cdc.c ****         USBUART_1_LoadInEP(epNumber, (const uint8 *)&string[bufIndex], sendLength);
 424              		.loc 1 443 0
 425 0036 3046     		mov	r0, r6
 439:Generated_Source\PSoC5/USBUART_1_cdc.c ****                                   USBUART_1_EP[epNumber].bufferSize : strLength;
 426              		.loc 1 439 0
 427 0038 88BF     		it	hi
 428 003a ADB2     		uxthhi	r5, r5
 429              	.LVL31:
 444:Generated_Source\PSoC5/USBUART_1_cdc.c ****         strLength -= sendLength;
 430              		.loc 1 444 0
 431 003c 641B     		subs	r4, r4, r5
 432              	.LVL32:
ARM GAS  C:\Users\Luggi\AppData\Local\Temp\ccLTEJfD.s 			page 17


 443:Generated_Source\PSoC5/USBUART_1_cdc.c ****         strLength -= sendLength;
 433              		.loc 1 443 0
 434 003e 09EB0701 		add	r1, r9, r7
 435 0042 2A46     		mov	r2, r5
 436              		.loc 1 444 0
 437 0044 A4B2     		uxth	r4, r4
 443:Generated_Source\PSoC5/USBUART_1_cdc.c ****         strLength -= sendLength;
 438              		.loc 1 443 0
 439 0046 FFF7FEFF 		bl	USBUART_1_LoadInEP
 440              	.LVL33:
 445:Generated_Source\PSoC5/USBUART_1_cdc.c **** 
 446:Generated_Source\PSoC5/USBUART_1_cdc.c ****         /* If more data are present to send or full packet was sent */
 447:Generated_Source\PSoC5/USBUART_1_cdc.c ****         if ((strLength > 0u) || (sendLength == USBUART_1_EP[epNumber].bufferSize))
 441              		.loc 1 447 0
 442 004a 34B9     		cbnz	r4, .L38
 443              	.LVL34:
 444              		.loc 1 447 0 is_stmt 0 discriminator 1
 445 004c 0C23     		movs	r3, #12
 446 004e 03FB0683 		mla	r3, r3, r6, r8
 447 0052 1B89     		ldrh	r3, [r3, #8]
 448 0054 9BB2     		uxth	r3, r3
 449 0056 9D42     		cmp	r5, r3
 450 0058 10D1     		bne	.L35
 451              	.LVL35:
 452              	.L38:
 448:Generated_Source\PSoC5/USBUART_1_cdc.c ****         {
 449:Generated_Source\PSoC5/USBUART_1_cdc.c ****             bufIndex += sendLength;
 453              		.loc 1 449 0 is_stmt 1
 454 005a 3D44     		add	r5, r5, r7
 455              	.LVL36:
 456 005c AFB2     		uxth	r7, r5
 457              	.LVL37:
 458              	.L40:
 450:Generated_Source\PSoC5/USBUART_1_cdc.c **** 
 451:Generated_Source\PSoC5/USBUART_1_cdc.c ****             /* Wait until host read data from IN endpoint buffer. */
 452:Generated_Source\PSoC5/USBUART_1_cdc.c ****             while (USBUART_1_IN_BUFFER_FULL == USBUART_1_EP[epNumber].apiEpState)
 459              		.loc 1 452 0 discriminator 1
 460 005e 0C23     		movs	r3, #12
 461 0060 03FB0683 		mla	r3, r3, r6, r8
 462 0064 5B78     		ldrb	r3, [r3, #1]	@ zero_extendqisi2
 463 0066 002B     		cmp	r3, #0
 464 0068 F9D0     		beq	.L40
 453:Generated_Source\PSoC5/USBUART_1_cdc.c ****             {
 454:Generated_Source\PSoC5/USBUART_1_cdc.c ****             }
 455:Generated_Source\PSoC5/USBUART_1_cdc.c **** 
 456:Generated_Source\PSoC5/USBUART_1_cdc.c ****             /* If last packet is exactly maximum packet size, it shall be followed
 457:Generated_Source\PSoC5/USBUART_1_cdc.c ****             * by a zero-length packet to assure the end of segment is properly
 458:Generated_Source\PSoC5/USBUART_1_cdc.c ****             * identified by the terminal.
 459:Generated_Source\PSoC5/USBUART_1_cdc.c ****             */
 460:Generated_Source\PSoC5/USBUART_1_cdc.c ****             if (0u == strLength)
 465              		.loc 1 460 0
 466 006a 002C     		cmp	r4, #0
 467 006c D8D1     		bne	.L41
 461:Generated_Source\PSoC5/USBUART_1_cdc.c ****             {
 462:Generated_Source\PSoC5/USBUART_1_cdc.c ****                 USBUART_1_LoadInEP(epNumber, NULL, 0u);
 468              		.loc 1 462 0
 469 006e 3046     		mov	r0, r6
ARM GAS  C:\Users\Luggi\AppData\Local\Temp\ccLTEJfD.s 			page 18


 470 0070 2146     		mov	r1, r4
 471 0072 2246     		mov	r2, r4
 463:Generated_Source\PSoC5/USBUART_1_cdc.c ****             }
 464:Generated_Source\PSoC5/USBUART_1_cdc.c ****         }
 465:Generated_Source\PSoC5/USBUART_1_cdc.c ****     }
 466:Generated_Source\PSoC5/USBUART_1_cdc.c ****     while (strLength > 0u);
 467:Generated_Source\PSoC5/USBUART_1_cdc.c **** }
 472              		.loc 1 467 0
 473 0074 BDE8F843 		pop	{r3, r4, r5, r6, r7, r8, r9, lr}
 474              		.cfi_remember_state
 475              		.cfi_restore 14
 476              		.cfi_restore 9
 477              		.cfi_restore 8
 478              		.cfi_restore 7
 479              		.cfi_restore 6
 480              		.cfi_restore 5
 481              		.cfi_restore 4
 482              		.cfi_restore 3
 483              		.cfi_def_cfa_offset 0
 484              	.LVL38:
 462:Generated_Source\PSoC5/USBUART_1_cdc.c ****             }
 485              		.loc 1 462 0
 486 0078 FFF7FEBF 		b	USBUART_1_LoadInEP
 487              	.LVL39:
 488              	.L35:
 489              		.cfi_restore_state
 490 007c BDE8F883 		pop	{r3, r4, r5, r6, r7, r8, r9, pc}
 491              	.LVL40:
 492              	.L48:
 493              		.align	2
 494              	.L47:
 495 0080 00000000 		.word	.LANCHOR1
 496 0084 00000000 		.word	USBUART_1_cdcDataInEp
 497 0088 00000000 		.word	USBUART_1_EP
 498              		.cfi_endproc
 499              	.LFE5:
 500              		.size	USBUART_1_PutString, .-USBUART_1_PutString
 501              		.section	.text.USBUART_1_PutChar,"ax",%progbits
 502              		.align	1
 503              		.global	USBUART_1_PutChar
 504              		.thumb
 505              		.thumb_func
 506              		.type	USBUART_1_PutChar, %function
 507              	USBUART_1_PutChar:
 508              	.LFB6:
 468:Generated_Source\PSoC5/USBUART_1_cdc.c **** 
 469:Generated_Source\PSoC5/USBUART_1_cdc.c **** 
 470:Generated_Source\PSoC5/USBUART_1_cdc.c **** /***************************************************************************
 471:Generated_Source\PSoC5/USBUART_1_cdc.c **** * Function Name: USBUART_1_PutChar
 472:Generated_Source\PSoC5/USBUART_1_cdc.c **** ************************************************************************//**
 473:Generated_Source\PSoC5/USBUART_1_cdc.c **** *
 474:Generated_Source\PSoC5/USBUART_1_cdc.c **** *  This function writes a single character to the PC at a time. This is an
 475:Generated_Source\PSoC5/USBUART_1_cdc.c **** *  inefficient way to send large amounts of data.
 476:Generated_Source\PSoC5/USBUART_1_cdc.c **** *
 477:Generated_Source\PSoC5/USBUART_1_cdc.c **** *  \param txDataByte: Character to be sent to the PC.
 478:Generated_Source\PSoC5/USBUART_1_cdc.c **** *
 479:Generated_Source\PSoC5/USBUART_1_cdc.c **** *  \globalvars
ARM GAS  C:\Users\Luggi\AppData\Local\Temp\ccLTEJfD.s 			page 19


 480:Generated_Source\PSoC5/USBUART_1_cdc.c **** *
 481:Generated_Source\PSoC5/USBUART_1_cdc.c **** *   USBUART_1_cdcDataInEp: CDC IN endpoint number used for sending
 482:Generated_Source\PSoC5/USBUART_1_cdc.c **** *     data.
 483:Generated_Source\PSoC5/USBUART_1_cdc.c **** *
 484:Generated_Source\PSoC5/USBUART_1_cdc.c **** *  \reentrant
 485:Generated_Source\PSoC5/USBUART_1_cdc.c **** *  No.
 486:Generated_Source\PSoC5/USBUART_1_cdc.c **** *
 487:Generated_Source\PSoC5/USBUART_1_cdc.c **** ***************************************************************************/
 488:Generated_Source\PSoC5/USBUART_1_cdc.c **** void USBUART_1_PutChar(char8 txDataByte) 
 489:Generated_Source\PSoC5/USBUART_1_cdc.c **** {
 509              		.loc 1 489 0
 510              		.cfi_startproc
 511              		@ args = 0, pretend = 0, frame = 8
 512              		@ frame_needed = 0, uses_anonymous_args = 0
 513              	.LVL41:
 514 0000 07B5     		push	{r0, r1, r2, lr}
 515              		.cfi_def_cfa_offset 16
 516              		.cfi_offset 14, -4
 490:Generated_Source\PSoC5/USBUART_1_cdc.c ****     uint8 dataByte;
 491:Generated_Source\PSoC5/USBUART_1_cdc.c ****     dataByte = (uint8) txDataByte;
 492:Generated_Source\PSoC5/USBUART_1_cdc.c **** 
 493:Generated_Source\PSoC5/USBUART_1_cdc.c ****     USBUART_1_LoadInEP(USBUART_1_cdcDataInEp[USBUART_1_activeCom], &dataByte, 1u);
 517              		.loc 1 493 0
 518 0002 064B     		ldr	r3, .L50
 519 0004 064A     		ldr	r2, .L50+4
 520 0006 1B78     		ldrb	r3, [r3]	@ zero_extendqisi2
 491:Generated_Source\PSoC5/USBUART_1_cdc.c **** 
 521              		.loc 1 491 0
 522 0008 02A9     		add	r1, sp, #8
 523 000a 01F8010D 		strb	r0, [r1, #-1]!
 524              		.loc 1 493 0
 525 000e D05C     		ldrb	r0, [r2, r3]	@ zero_extendqisi2
 526              	.LVL42:
 527 0010 0122     		movs	r2, #1
 528 0012 FFF7FEFF 		bl	USBUART_1_LoadInEP
 529              	.LVL43:
 494:Generated_Source\PSoC5/USBUART_1_cdc.c **** }
 530              		.loc 1 494 0
 531 0016 03B0     		add	sp, sp, #12
 532              		.cfi_def_cfa_offset 4
 533              		@ sp needed
 534 0018 5DF804FB 		ldr	pc, [sp], #4
 535              	.L51:
 536              		.align	2
 537              	.L50:
 538 001c 00000000 		.word	.LANCHOR1
 539 0020 00000000 		.word	USBUART_1_cdcDataInEp
 540              		.cfi_endproc
 541              	.LFE6:
 542              		.size	USBUART_1_PutChar, .-USBUART_1_PutChar
 543              		.section	.text.USBUART_1_PutCRLF,"ax",%progbits
 544              		.align	1
 545              		.global	USBUART_1_PutCRLF
 546              		.thumb
 547              		.thumb_func
 548              		.type	USBUART_1_PutCRLF, %function
 549              	USBUART_1_PutCRLF:
ARM GAS  C:\Users\Luggi\AppData\Local\Temp\ccLTEJfD.s 			page 20


 550              	.LFB7:
 495:Generated_Source\PSoC5/USBUART_1_cdc.c **** 
 496:Generated_Source\PSoC5/USBUART_1_cdc.c **** 
 497:Generated_Source\PSoC5/USBUART_1_cdc.c **** /*******************************************************************************
 498:Generated_Source\PSoC5/USBUART_1_cdc.c **** * Function Name: USBUART_1_PutCRLF
 499:Generated_Source\PSoC5/USBUART_1_cdc.c **** ****************************************************************************//**
 500:Generated_Source\PSoC5/USBUART_1_cdc.c **** *
 501:Generated_Source\PSoC5/USBUART_1_cdc.c **** *  This function sends a carriage return (0x0D) and line feed (0x0A) to the
 502:Generated_Source\PSoC5/USBUART_1_cdc.c **** *  PC. This APIis provided to mimic API provided by our other UART components
 503:Generated_Source\PSoC5/USBUART_1_cdc.c **** *
 504:Generated_Source\PSoC5/USBUART_1_cdc.c **** * \globalvars
 505:Generated_Source\PSoC5/USBUART_1_cdc.c **** *
 506:Generated_Source\PSoC5/USBUART_1_cdc.c **** *   USBUART_1_cdcDataInEp: CDC IN endpoint number used for sending
 507:Generated_Source\PSoC5/USBUART_1_cdc.c **** *     data.
 508:Generated_Source\PSoC5/USBUART_1_cdc.c **** *
 509:Generated_Source\PSoC5/USBUART_1_cdc.c **** * \reentrant
 510:Generated_Source\PSoC5/USBUART_1_cdc.c **** *  No.
 511:Generated_Source\PSoC5/USBUART_1_cdc.c **** *
 512:Generated_Source\PSoC5/USBUART_1_cdc.c **** *******************************************************************************/
 513:Generated_Source\PSoC5/USBUART_1_cdc.c **** void USBUART_1_PutCRLF(void) 
 514:Generated_Source\PSoC5/USBUART_1_cdc.c **** {
 551              		.loc 1 514 0
 552              		.cfi_startproc
 553              		@ args = 0, pretend = 0, frame = 8
 554              		@ frame_needed = 0, uses_anonymous_args = 0
 555 0000 07B5     		push	{r0, r1, r2, lr}
 556              		.cfi_def_cfa_offset 16
 557              		.cfi_offset 14, -4
 515:Generated_Source\PSoC5/USBUART_1_cdc.c ****     const uint8 CYCODE txData[] = {0x0Du, 0x0Au};
 558              		.loc 1 515 0
 559 0002 074B     		ldr	r3, .L53
 516:Generated_Source\PSoC5/USBUART_1_cdc.c **** 
 517:Generated_Source\PSoC5/USBUART_1_cdc.c ****     USBUART_1_LoadInEP(USBUART_1_cdcDataInEp[USBUART_1_activeCom], (const uint8 *)txData, 2u);
 560              		.loc 1 517 0
 561 0004 074A     		ldr	r2, .L53+4
 515:Generated_Source\PSoC5/USBUART_1_cdc.c ****     const uint8 CYCODE txData[] = {0x0Du, 0x0Au};
 562              		.loc 1 515 0
 563 0006 1B88     		ldrh	r3, [r3]	@ unaligned
 564              		.loc 1 517 0
 565 0008 01A9     		add	r1, sp, #4
 515:Generated_Source\PSoC5/USBUART_1_cdc.c ****     const uint8 CYCODE txData[] = {0x0Du, 0x0Au};
 566              		.loc 1 515 0
 567 000a ADF80430 		strh	r3, [sp, #4]	@ unaligned
 568              		.loc 1 517 0
 569 000e 064B     		ldr	r3, .L53+8
 570 0010 1B78     		ldrb	r3, [r3]	@ zero_extendqisi2
 571 0012 D05C     		ldrb	r0, [r2, r3]	@ zero_extendqisi2
 572 0014 0222     		movs	r2, #2
 573 0016 FFF7FEFF 		bl	USBUART_1_LoadInEP
 574              	.LVL44:
 518:Generated_Source\PSoC5/USBUART_1_cdc.c **** }
 575              		.loc 1 518 0
 576 001a 03B0     		add	sp, sp, #12
 577              		.cfi_def_cfa_offset 4
 578              		@ sp needed
 579 001c 5DF804FB 		ldr	pc, [sp], #4
 580              	.L54:
ARM GAS  C:\Users\Luggi\AppData\Local\Temp\ccLTEJfD.s 			page 21


 581              		.align	2
 582              	.L53:
 583 0020 00000000 		.word	.LANCHOR2
 584 0024 00000000 		.word	USBUART_1_cdcDataInEp
 585 0028 00000000 		.word	.LANCHOR1
 586              		.cfi_endproc
 587              	.LFE7:
 588              		.size	USBUART_1_PutCRLF, .-USBUART_1_PutCRLF
 589              		.section	.text.USBUART_1_GetCount,"ax",%progbits
 590              		.align	1
 591              		.global	USBUART_1_GetCount
 592              		.thumb
 593              		.thumb_func
 594              		.type	USBUART_1_GetCount, %function
 595              	USBUART_1_GetCount:
 596              	.LFB8:
 519:Generated_Source\PSoC5/USBUART_1_cdc.c **** 
 520:Generated_Source\PSoC5/USBUART_1_cdc.c **** 
 521:Generated_Source\PSoC5/USBUART_1_cdc.c **** /*******************************************************************************
 522:Generated_Source\PSoC5/USBUART_1_cdc.c **** * Function Name: USBUART_1_GetCount
 523:Generated_Source\PSoC5/USBUART_1_cdc.c **** ****************************************************************************//**
 524:Generated_Source\PSoC5/USBUART_1_cdc.c **** *
 525:Generated_Source\PSoC5/USBUART_1_cdc.c **** *  This function returns the number of bytes that were received from the PC.
 526:Generated_Source\PSoC5/USBUART_1_cdc.c **** *  The returned length value should be passed to USBUART_1_GetData() as
 527:Generated_Source\PSoC5/USBUART_1_cdc.c **** *  a parameter to read all received data. If all of the received data is not
 528:Generated_Source\PSoC5/USBUART_1_cdc.c **** *  read at one time by the USBUART_1_GetData() API, the unread data will
 529:Generated_Source\PSoC5/USBUART_1_cdc.c **** *  be lost.
 530:Generated_Source\PSoC5/USBUART_1_cdc.c **** *
 531:Generated_Source\PSoC5/USBUART_1_cdc.c **** * \return
 532:Generated_Source\PSoC5/USBUART_1_cdc.c **** *  Returns the number of received bytes. The maximum amount of received data at
 533:Generated_Source\PSoC5/USBUART_1_cdc.c **** *  a time is limited by the maximum packet size for the endpoint.
 534:Generated_Source\PSoC5/USBUART_1_cdc.c **** *
 535:Generated_Source\PSoC5/USBUART_1_cdc.c **** * \globalvars
 536:Generated_Source\PSoC5/USBUART_1_cdc.c **** *   USBUART_1_cdcDataOutEp: CDC OUT endpoint number used.
 537:Generated_Source\PSoC5/USBUART_1_cdc.c **** *
 538:Generated_Source\PSoC5/USBUART_1_cdc.c **** *******************************************************************************/
 539:Generated_Source\PSoC5/USBUART_1_cdc.c **** uint16 USBUART_1_GetCount(void) 
 540:Generated_Source\PSoC5/USBUART_1_cdc.c **** {
 597              		.loc 1 540 0
 598              		.cfi_startproc
 599              		@ args = 0, pretend = 0, frame = 0
 600              		@ frame_needed = 0, uses_anonymous_args = 0
 601              		@ link register save eliminated.
 541:Generated_Source\PSoC5/USBUART_1_cdc.c ****     uint16 bytesCount;
 542:Generated_Source\PSoC5/USBUART_1_cdc.c **** 
 543:Generated_Source\PSoC5/USBUART_1_cdc.c ****     uint8  epNumber = USBUART_1_cdcDataOutEp[USBUART_1_activeCom];
 602              		.loc 1 543 0
 603 0000 074B     		ldr	r3, .L57
 604 0002 084A     		ldr	r2, .L57+4
 605 0004 1B78     		ldrb	r3, [r3]	@ zero_extendqisi2
 606 0006 D05C     		ldrb	r0, [r2, r3]	@ zero_extendqisi2
 544:Generated_Source\PSoC5/USBUART_1_cdc.c **** 
 545:Generated_Source\PSoC5/USBUART_1_cdc.c ****     if (USBUART_1_OUT_BUFFER_FULL == USBUART_1_EP[epNumber].apiEpState)
 607              		.loc 1 545 0
 608 0008 074A     		ldr	r2, .L57+8
 543:Generated_Source\PSoC5/USBUART_1_cdc.c **** 
 609              		.loc 1 543 0
ARM GAS  C:\Users\Luggi\AppData\Local\Temp\ccLTEJfD.s 			page 22


 610 000a C0B2     		uxtb	r0, r0
 611              	.LVL45:
 612              		.loc 1 545 0
 613 000c 0C23     		movs	r3, #12
 614 000e 03FB0023 		mla	r3, r3, r0, r2
 615 0012 5B78     		ldrb	r3, [r3, #1]	@ zero_extendqisi2
 616 0014 012B     		cmp	r3, #1
 617 0016 01D1     		bne	.L56
 546:Generated_Source\PSoC5/USBUART_1_cdc.c ****     {
 547:Generated_Source\PSoC5/USBUART_1_cdc.c ****         bytesCount = USBUART_1_GetEPCount(epNumber);
 618              		.loc 1 547 0
 619 0018 FFF7FEBF 		b	USBUART_1_GetEPCount
 620              	.LVL46:
 621              	.L56:
 548:Generated_Source\PSoC5/USBUART_1_cdc.c ****     }
 549:Generated_Source\PSoC5/USBUART_1_cdc.c ****     else
 550:Generated_Source\PSoC5/USBUART_1_cdc.c ****     {
 551:Generated_Source\PSoC5/USBUART_1_cdc.c ****         bytesCount = 0u;
 552:Generated_Source\PSoC5/USBUART_1_cdc.c ****     }
 553:Generated_Source\PSoC5/USBUART_1_cdc.c **** 
 554:Generated_Source\PSoC5/USBUART_1_cdc.c ****     return (bytesCount);
 555:Generated_Source\PSoC5/USBUART_1_cdc.c **** }
 622              		.loc 1 555 0
 623 001c 0020     		movs	r0, #0
 624              	.LVL47:
 625 001e 7047     		bx	lr
 626              	.L58:
 627              		.align	2
 628              	.L57:
 629 0020 00000000 		.word	.LANCHOR1
 630 0024 00000000 		.word	USBUART_1_cdcDataOutEp
 631 0028 00000000 		.word	USBUART_1_EP
 632              		.cfi_endproc
 633              	.LFE8:
 634              		.size	USBUART_1_GetCount, .-USBUART_1_GetCount
 635              		.section	.text.USBUART_1_DataIsReady,"ax",%progbits
 636              		.align	1
 637              		.global	USBUART_1_DataIsReady
 638              		.thumb
 639              		.thumb_func
 640              		.type	USBUART_1_DataIsReady, %function
 641              	USBUART_1_DataIsReady:
 642              	.LFB9:
 556:Generated_Source\PSoC5/USBUART_1_cdc.c **** 
 557:Generated_Source\PSoC5/USBUART_1_cdc.c **** 
 558:Generated_Source\PSoC5/USBUART_1_cdc.c **** /*******************************************************************************
 559:Generated_Source\PSoC5/USBUART_1_cdc.c **** * Function Name: USBUART_1_DataIsReady
 560:Generated_Source\PSoC5/USBUART_1_cdc.c **** ****************************************************************************//**
 561:Generated_Source\PSoC5/USBUART_1_cdc.c **** *
 562:Generated_Source\PSoC5/USBUART_1_cdc.c **** *  This function returns a non-zero value if the component received data or
 563:Generated_Source\PSoC5/USBUART_1_cdc.c **** *  received zero-length packet. The USBUART_1_GetAll() or
 564:Generated_Source\PSoC5/USBUART_1_cdc.c **** *  USBUART_1_GetData() API should be called to read data from the buffer
 565:Generated_Source\PSoC5/USBUART_1_cdc.c **** *  and reinitialize the OUT endpoint even when a zero-length packet is
 566:Generated_Source\PSoC5/USBUART_1_cdc.c **** *  received. These APIs will return zero value when zero-length packet is
 567:Generated_Source\PSoC5/USBUART_1_cdc.c **** *  received.
 568:Generated_Source\PSoC5/USBUART_1_cdc.c **** *
 569:Generated_Source\PSoC5/USBUART_1_cdc.c **** * \return
ARM GAS  C:\Users\Luggi\AppData\Local\Temp\ccLTEJfD.s 			page 23


 570:Generated_Source\PSoC5/USBUART_1_cdc.c **** *  If the OUT packet is received, this function returns a non-zero value.
 571:Generated_Source\PSoC5/USBUART_1_cdc.c **** *  Otherwise, it returns zero.
 572:Generated_Source\PSoC5/USBUART_1_cdc.c **** *
 573:Generated_Source\PSoC5/USBUART_1_cdc.c **** * \globalvars
 574:Generated_Source\PSoC5/USBUART_1_cdc.c **** *   USBUART_1_cdcDataOutEp: CDC OUT endpoint number used.
 575:Generated_Source\PSoC5/USBUART_1_cdc.c **** *
 576:Generated_Source\PSoC5/USBUART_1_cdc.c **** *******************************************************************************/
 577:Generated_Source\PSoC5/USBUART_1_cdc.c **** uint8 USBUART_1_DataIsReady(void) 
 578:Generated_Source\PSoC5/USBUART_1_cdc.c **** {
 643              		.loc 1 578 0
 644              		.cfi_startproc
 645              		@ args = 0, pretend = 0, frame = 0
 646              		@ frame_needed = 0, uses_anonymous_args = 0
 647              		@ link register save eliminated.
 579:Generated_Source\PSoC5/USBUART_1_cdc.c ****     return (USBUART_1_GetEPState(USBUART_1_cdcDataOutEp[USBUART_1_activeCom]));
 648              		.loc 1 579 0
 649 0000 024B     		ldr	r3, .L60
 650 0002 034A     		ldr	r2, .L60+4
 651 0004 1B78     		ldrb	r3, [r3]	@ zero_extendqisi2
 652 0006 D05C     		ldrb	r0, [r2, r3]	@ zero_extendqisi2
 653 0008 FFF7FEBF 		b	USBUART_1_GetEPState
 654              	.LVL48:
 655              	.L61:
 656              		.align	2
 657              	.L60:
 658 000c 00000000 		.word	.LANCHOR1
 659 0010 00000000 		.word	USBUART_1_cdcDataOutEp
 660              		.cfi_endproc
 661              	.LFE9:
 662              		.size	USBUART_1_DataIsReady, .-USBUART_1_DataIsReady
 663              		.section	.text.USBUART_1_CDCIsReady,"ax",%progbits
 664              		.align	1
 665              		.global	USBUART_1_CDCIsReady
 666              		.thumb
 667              		.thumb_func
 668              		.type	USBUART_1_CDCIsReady, %function
 669              	USBUART_1_CDCIsReady:
 670              	.LFB10:
 580:Generated_Source\PSoC5/USBUART_1_cdc.c **** }
 581:Generated_Source\PSoC5/USBUART_1_cdc.c **** 
 582:Generated_Source\PSoC5/USBUART_1_cdc.c **** 
 583:Generated_Source\PSoC5/USBUART_1_cdc.c **** /*******************************************************************************
 584:Generated_Source\PSoC5/USBUART_1_cdc.c **** * Function Name: USBUART_1_CDCIsReady
 585:Generated_Source\PSoC5/USBUART_1_cdc.c **** ****************************************************************************//**
 586:Generated_Source\PSoC5/USBUART_1_cdc.c **** *
 587:Generated_Source\PSoC5/USBUART_1_cdc.c **** *  This function returns a non-zero value if the component is ready to send more
 588:Generated_Source\PSoC5/USBUART_1_cdc.c **** *  data to the PC; otherwise, it returns zero. The function should be called
 589:Generated_Source\PSoC5/USBUART_1_cdc.c **** *  before sending new data when using any of the following APIs:
 590:Generated_Source\PSoC5/USBUART_1_cdc.c **** *  USBUART_1_PutData(),USBUART_1_PutString(),
 591:Generated_Source\PSoC5/USBUART_1_cdc.c **** *  USBUART_1_PutChar or USBUART_1_PutCRLF(),
 592:Generated_Source\PSoC5/USBUART_1_cdc.c **** *  to be sure that the previous data has finished sending.
 593:Generated_Source\PSoC5/USBUART_1_cdc.c **** *
 594:Generated_Source\PSoC5/USBUART_1_cdc.c **** * \return
 595:Generated_Source\PSoC5/USBUART_1_cdc.c **** *  If the buffer can accept new data, this function returns a non-zero value.
 596:Generated_Source\PSoC5/USBUART_1_cdc.c **** *  Otherwise, it returns zero.
 597:Generated_Source\PSoC5/USBUART_1_cdc.c **** *
 598:Generated_Source\PSoC5/USBUART_1_cdc.c **** * \globalvars
ARM GAS  C:\Users\Luggi\AppData\Local\Temp\ccLTEJfD.s 			page 24


 599:Generated_Source\PSoC5/USBUART_1_cdc.c **** *   USBUART_1_cdcDataInEp: CDC IN endpoint number used.
 600:Generated_Source\PSoC5/USBUART_1_cdc.c **** *
 601:Generated_Source\PSoC5/USBUART_1_cdc.c **** *******************************************************************************/
 602:Generated_Source\PSoC5/USBUART_1_cdc.c **** uint8 USBUART_1_CDCIsReady(void) 
 603:Generated_Source\PSoC5/USBUART_1_cdc.c **** {
 671              		.loc 1 603 0
 672              		.cfi_startproc
 673              		@ args = 0, pretend = 0, frame = 0
 674              		@ frame_needed = 0, uses_anonymous_args = 0
 675              		@ link register save eliminated.
 604:Generated_Source\PSoC5/USBUART_1_cdc.c ****     return (USBUART_1_GetEPState(USBUART_1_cdcDataInEp[USBUART_1_activeCom]));
 676              		.loc 1 604 0
 677 0000 024B     		ldr	r3, .L63
 678 0002 034A     		ldr	r2, .L63+4
 679 0004 1B78     		ldrb	r3, [r3]	@ zero_extendqisi2
 680 0006 D05C     		ldrb	r0, [r2, r3]	@ zero_extendqisi2
 681 0008 FFF7FEBF 		b	USBUART_1_GetEPState
 682              	.LVL49:
 683              	.L64:
 684              		.align	2
 685              	.L63:
 686 000c 00000000 		.word	.LANCHOR1
 687 0010 00000000 		.word	USBUART_1_cdcDataInEp
 688              		.cfi_endproc
 689              	.LFE10:
 690              		.size	USBUART_1_CDCIsReady, .-USBUART_1_CDCIsReady
 691              		.section	.text.USBUART_1_GetData,"ax",%progbits
 692              		.align	1
 693              		.global	USBUART_1_GetData
 694              		.thumb
 695              		.thumb_func
 696              		.type	USBUART_1_GetData, %function
 697              	USBUART_1_GetData:
 698              	.LFB11:
 605:Generated_Source\PSoC5/USBUART_1_cdc.c **** }
 606:Generated_Source\PSoC5/USBUART_1_cdc.c **** 
 607:Generated_Source\PSoC5/USBUART_1_cdc.c **** 
 608:Generated_Source\PSoC5/USBUART_1_cdc.c **** /***************************************************************************
 609:Generated_Source\PSoC5/USBUART_1_cdc.c **** * Function Name: USBUART_1_GetData
 610:Generated_Source\PSoC5/USBUART_1_cdc.c **** ************************************************************************//**
 611:Generated_Source\PSoC5/USBUART_1_cdc.c **** *
 612:Generated_Source\PSoC5/USBUART_1_cdc.c **** *  This function gets a specified number of bytes from the input buffer and
 613:Generated_Source\PSoC5/USBUART_1_cdc.c **** *  places them in a data array specified by the passed pointer.
 614:Generated_Source\PSoC5/USBUART_1_cdc.c **** *  The USBUART_1_DataIsReady() API should be called first, to be sure
 615:Generated_Source\PSoC5/USBUART_1_cdc.c **** *  that data is received from the host. If all received data will not be read at
 616:Generated_Source\PSoC5/USBUART_1_cdc.c **** *  once, the unread data will be lost. The USBUART_1_GetData() API should
 617:Generated_Source\PSoC5/USBUART_1_cdc.c **** *  be called to get the number of bytes that were received.
 618:Generated_Source\PSoC5/USBUART_1_cdc.c **** *
 619:Generated_Source\PSoC5/USBUART_1_cdc.c **** *  \param pData: Pointer to the data array where data will be placed.
 620:Generated_Source\PSoC5/USBUART_1_cdc.c **** *  \param Length: Number of bytes to read into the data array from the RX buffer.
 621:Generated_Source\PSoC5/USBUART_1_cdc.c **** *          Maximum length is limited by the the number of received bytes
 622:Generated_Source\PSoC5/USBUART_1_cdc.c **** *          or 64 bytes.
 623:Generated_Source\PSoC5/USBUART_1_cdc.c **** *
 624:Generated_Source\PSoC5/USBUART_1_cdc.c **** * \return
 625:Generated_Source\PSoC5/USBUART_1_cdc.c **** *         Number of bytes which function moves from endpoint RAM into the
 626:Generated_Source\PSoC5/USBUART_1_cdc.c **** *         data array. The function moves fewer than the requested number
 627:Generated_Source\PSoC5/USBUART_1_cdc.c **** *         of bytes if the host sends fewer bytes than requested or sends
ARM GAS  C:\Users\Luggi\AppData\Local\Temp\ccLTEJfD.s 			page 25


 628:Generated_Source\PSoC5/USBUART_1_cdc.c **** *         zero-length packet.
 629:Generated_Source\PSoC5/USBUART_1_cdc.c **** *
 630:Generated_Source\PSoC5/USBUART_1_cdc.c **** * \globalvars
 631:Generated_Source\PSoC5/USBUART_1_cdc.c **** *   USBUART_1_cdcDataOutEp: CDC OUT endpoint number used.
 632:Generated_Source\PSoC5/USBUART_1_cdc.c **** *
 633:Generated_Source\PSoC5/USBUART_1_cdc.c **** * \reentrant
 634:Generated_Source\PSoC5/USBUART_1_cdc.c **** *  No.
 635:Generated_Source\PSoC5/USBUART_1_cdc.c **** *
 636:Generated_Source\PSoC5/USBUART_1_cdc.c **** ***************************************************************************/
 637:Generated_Source\PSoC5/USBUART_1_cdc.c **** uint16 USBUART_1_GetData(uint8* pData, uint16 length) 
 638:Generated_Source\PSoC5/USBUART_1_cdc.c **** {
 699              		.loc 1 638 0
 700              		.cfi_startproc
 701              		@ args = 0, pretend = 0, frame = 0
 702              		@ frame_needed = 0, uses_anonymous_args = 0
 703              		@ link register save eliminated.
 704              	.LVL50:
 705              		.loc 1 638 0
 706 0000 0346     		mov	r3, r0
 707 0002 0A46     		mov	r2, r1
 639:Generated_Source\PSoC5/USBUART_1_cdc.c ****     uint8 epNumber = USBUART_1_cdcDataOutEp[USBUART_1_activeCom];
 708              		.loc 1 639 0
 709 0004 0349     		ldr	r1, .L66
 710              	.LVL51:
 711 0006 0448     		ldr	r0, .L66+4
 712              	.LVL52:
 713 0008 0978     		ldrb	r1, [r1]	@ zero_extendqisi2
 714 000a 405C     		ldrb	r0, [r0, r1]	@ zero_extendqisi2
 715              	.LVL53:
 640:Generated_Source\PSoC5/USBUART_1_cdc.c **** 
 641:Generated_Source\PSoC5/USBUART_1_cdc.c ****     /* Read data from OUT endpoint buffer. */
 642:Generated_Source\PSoC5/USBUART_1_cdc.c ****     length = USBUART_1_ReadOutEP(epNumber, pData, length);
 716              		.loc 1 642 0
 717 000c 1946     		mov	r1, r3
 718 000e FFF7FEBF 		b	USBUART_1_ReadOutEP
 719              	.LVL54:
 720              	.L67:
 721 0012 00BF     		.align	2
 722              	.L66:
 723 0014 00000000 		.word	.LANCHOR1
 724 0018 00000000 		.word	USBUART_1_cdcDataOutEp
 725              		.cfi_endproc
 726              	.LFE11:
 727              		.size	USBUART_1_GetData, .-USBUART_1_GetData
 728              		.section	.text.USBUART_1_GetAll,"ax",%progbits
 729              		.align	1
 730              		.global	USBUART_1_GetAll
 731              		.thumb
 732              		.thumb_func
 733              		.type	USBUART_1_GetAll, %function
 734              	USBUART_1_GetAll:
 735              	.LFB12:
 643:Generated_Source\PSoC5/USBUART_1_cdc.c **** 
 644:Generated_Source\PSoC5/USBUART_1_cdc.c **** #if (USBUART_1_EP_MANAGEMENT_DMA_MANUAL)
 645:Generated_Source\PSoC5/USBUART_1_cdc.c ****     /* Wait until DMA complete transferring data from OUT endpoint buffer. */
 646:Generated_Source\PSoC5/USBUART_1_cdc.c ****     while (USBUART_1_OUT_BUFFER_FULL == USBUART_1_GetEPState(epNumber))
 647:Generated_Source\PSoC5/USBUART_1_cdc.c ****     {
ARM GAS  C:\Users\Luggi\AppData\Local\Temp\ccLTEJfD.s 			page 26


 648:Generated_Source\PSoC5/USBUART_1_cdc.c ****     }
 649:Generated_Source\PSoC5/USBUART_1_cdc.c **** 
 650:Generated_Source\PSoC5/USBUART_1_cdc.c ****     /* Enable OUT endpoint to communicate with host. */
 651:Generated_Source\PSoC5/USBUART_1_cdc.c ****     USBUART_1_EnableOutEP(epNumber);
 652:Generated_Source\PSoC5/USBUART_1_cdc.c **** #endif /* (USBUART_1_EP_MANAGEMENT_DMA_MANUAL) */
 653:Generated_Source\PSoC5/USBUART_1_cdc.c **** 
 654:Generated_Source\PSoC5/USBUART_1_cdc.c ****     return (length);
 655:Generated_Source\PSoC5/USBUART_1_cdc.c **** }
 656:Generated_Source\PSoC5/USBUART_1_cdc.c **** 
 657:Generated_Source\PSoC5/USBUART_1_cdc.c **** 
 658:Generated_Source\PSoC5/USBUART_1_cdc.c **** /*******************************************************************************
 659:Generated_Source\PSoC5/USBUART_1_cdc.c **** * Function Name: USBUART_1_GetAll
 660:Generated_Source\PSoC5/USBUART_1_cdc.c **** ****************************************************************************//**
 661:Generated_Source\PSoC5/USBUART_1_cdc.c **** *
 662:Generated_Source\PSoC5/USBUART_1_cdc.c **** *  This function gets all bytes of received data from the input buffer and
 663:Generated_Source\PSoC5/USBUART_1_cdc.c **** *  places them into a specified data array. The
 664:Generated_Source\PSoC5/USBUART_1_cdc.c **** *  USBUART_1_DataIsReady() API should be called first, to be sure
 665:Generated_Source\PSoC5/USBUART_1_cdc.c **** *  that data is received from the host.
 666:Generated_Source\PSoC5/USBUART_1_cdc.c **** *
 667:Generated_Source\PSoC5/USBUART_1_cdc.c **** *  \param pData: Pointer to the data array where data will be placed.
 668:Generated_Source\PSoC5/USBUART_1_cdc.c **** *
 669:Generated_Source\PSoC5/USBUART_1_cdc.c **** * \return
 670:Generated_Source\PSoC5/USBUART_1_cdc.c **** *  Number of bytes received. The maximum amount of the received at a time
 671:Generated_Source\PSoC5/USBUART_1_cdc.c **** *  data is 64 bytes.
 672:Generated_Source\PSoC5/USBUART_1_cdc.c **** *
 673:Generated_Source\PSoC5/USBUART_1_cdc.c **** * \globalvars
 674:Generated_Source\PSoC5/USBUART_1_cdc.c **** *   - \ref USBUART_1_cdcDataOutEp: CDC OUT endpoint number used.
 675:Generated_Source\PSoC5/USBUART_1_cdc.c **** *   - \ref USBUART_1_EP[].bufferSize: EP max packet size is used as a
 676:Generated_Source\PSoC5/USBUART_1_cdc.c **** *     length to read all data from the EP buffer.
 677:Generated_Source\PSoC5/USBUART_1_cdc.c **** *
 678:Generated_Source\PSoC5/USBUART_1_cdc.c **** * \reentrant
 679:Generated_Source\PSoC5/USBUART_1_cdc.c **** *  No.
 680:Generated_Source\PSoC5/USBUART_1_cdc.c **** *
 681:Generated_Source\PSoC5/USBUART_1_cdc.c **** *******************************************************************************/
 682:Generated_Source\PSoC5/USBUART_1_cdc.c **** uint16 USBUART_1_GetAll(uint8* pData) 
 683:Generated_Source\PSoC5/USBUART_1_cdc.c **** {
 736              		.loc 1 683 0
 737              		.cfi_startproc
 738              		@ args = 0, pretend = 0, frame = 0
 739              		@ frame_needed = 0, uses_anonymous_args = 0
 740              		@ link register save eliminated.
 741              	.LVL55:
 684:Generated_Source\PSoC5/USBUART_1_cdc.c ****     uint8 epNumber = USBUART_1_cdcDataOutEp[USBUART_1_activeCom];
 742              		.loc 1 684 0
 743 0000 064B     		ldr	r3, .L69
 744 0002 074A     		ldr	r2, .L69+4
 745 0004 1B78     		ldrb	r3, [r3]	@ zero_extendqisi2
 683:Generated_Source\PSoC5/USBUART_1_cdc.c ****     uint8 epNumber = USBUART_1_cdcDataOutEp[USBUART_1_activeCom];
 746              		.loc 1 683 0
 747 0006 0146     		mov	r1, r0
 748              		.loc 1 684 0
 749 0008 D05C     		ldrb	r0, [r2, r3]	@ zero_extendqisi2
 750              	.LVL56:
 685:Generated_Source\PSoC5/USBUART_1_cdc.c ****     uint16 dataLength;
 686:Generated_Source\PSoC5/USBUART_1_cdc.c **** 
 687:Generated_Source\PSoC5/USBUART_1_cdc.c ****     /* Read data from OUT endpoint buffer. */
 688:Generated_Source\PSoC5/USBUART_1_cdc.c ****     dataLength = USBUART_1_ReadOutEP(epNumber, pData, USBUART_1_EP[epNumber].bufferSize);
ARM GAS  C:\Users\Luggi\AppData\Local\Temp\ccLTEJfD.s 			page 27


 751              		.loc 1 688 0
 752 000a 064A     		ldr	r2, .L69+8
 684:Generated_Source\PSoC5/USBUART_1_cdc.c ****     uint16 dataLength;
 753              		.loc 1 684 0
 754 000c C0B2     		uxtb	r0, r0
 755              	.LVL57:
 756              		.loc 1 688 0
 757 000e 0C23     		movs	r3, #12
 758 0010 03FB0023 		mla	r3, r3, r0, r2
 759 0014 1A89     		ldrh	r2, [r3, #8]
 760 0016 92B2     		uxth	r2, r2
 761 0018 FFF7FEBF 		b	USBUART_1_ReadOutEP
 762              	.LVL58:
 763              	.L70:
 764              		.align	2
 765              	.L69:
 766 001c 00000000 		.word	.LANCHOR1
 767 0020 00000000 		.word	USBUART_1_cdcDataOutEp
 768 0024 00000000 		.word	USBUART_1_EP
 769              		.cfi_endproc
 770              	.LFE12:
 771              		.size	USBUART_1_GetAll, .-USBUART_1_GetAll
 772              		.section	.text.USBUART_1_GetChar,"ax",%progbits
 773              		.align	1
 774              		.global	USBUART_1_GetChar
 775              		.thumb
 776              		.thumb_func
 777              		.type	USBUART_1_GetChar, %function
 778              	USBUART_1_GetChar:
 779              	.LFB13:
 689:Generated_Source\PSoC5/USBUART_1_cdc.c **** 
 690:Generated_Source\PSoC5/USBUART_1_cdc.c **** #if (USBUART_1_EP_MANAGEMENT_DMA_MANUAL)
 691:Generated_Source\PSoC5/USBUART_1_cdc.c ****     /* Wait until DMA complete transferring data from OUT endpoint buffer. */
 692:Generated_Source\PSoC5/USBUART_1_cdc.c ****     while (USBUART_1_OUT_BUFFER_FULL == USBUART_1_GetEPState(epNumber))
 693:Generated_Source\PSoC5/USBUART_1_cdc.c ****     {
 694:Generated_Source\PSoC5/USBUART_1_cdc.c ****     }
 695:Generated_Source\PSoC5/USBUART_1_cdc.c **** 
 696:Generated_Source\PSoC5/USBUART_1_cdc.c ****     /* Enable OUT endpoint to communicate with host. */
 697:Generated_Source\PSoC5/USBUART_1_cdc.c ****     USBUART_1_EnableOutEP(epNumber);
 698:Generated_Source\PSoC5/USBUART_1_cdc.c **** #endif /* (USBUART_1_EP_MANAGEMENT_DMA_MANUAL) */
 699:Generated_Source\PSoC5/USBUART_1_cdc.c **** 
 700:Generated_Source\PSoC5/USBUART_1_cdc.c ****     return (dataLength);
 701:Generated_Source\PSoC5/USBUART_1_cdc.c **** }
 702:Generated_Source\PSoC5/USBUART_1_cdc.c **** 
 703:Generated_Source\PSoC5/USBUART_1_cdc.c **** 
 704:Generated_Source\PSoC5/USBUART_1_cdc.c **** /***************************************************************************
 705:Generated_Source\PSoC5/USBUART_1_cdc.c **** * Function Name: USBUART_1_GetChar
 706:Generated_Source\PSoC5/USBUART_1_cdc.c **** ************************************************************************//**
 707:Generated_Source\PSoC5/USBUART_1_cdc.c **** *
 708:Generated_Source\PSoC5/USBUART_1_cdc.c **** *  This function reads one byte of received data from the buffer. If more than
 709:Generated_Source\PSoC5/USBUART_1_cdc.c **** *  one byte has been received from the host, the rest of the data will be lost.
 710:Generated_Source\PSoC5/USBUART_1_cdc.c **** *
 711:Generated_Source\PSoC5/USBUART_1_cdc.c **** * \return
 712:Generated_Source\PSoC5/USBUART_1_cdc.c **** *  Received one character.
 713:Generated_Source\PSoC5/USBUART_1_cdc.c **** *
 714:Generated_Source\PSoC5/USBUART_1_cdc.c **** * \globalvars
 715:Generated_Source\PSoC5/USBUART_1_cdc.c **** *   USBUART_1_cdcDataOutEp: CDC OUT endpoint number used.
ARM GAS  C:\Users\Luggi\AppData\Local\Temp\ccLTEJfD.s 			page 28


 716:Generated_Source\PSoC5/USBUART_1_cdc.c **** *
 717:Generated_Source\PSoC5/USBUART_1_cdc.c **** * \reentrant
 718:Generated_Source\PSoC5/USBUART_1_cdc.c **** *  No.
 719:Generated_Source\PSoC5/USBUART_1_cdc.c **** *
 720:Generated_Source\PSoC5/USBUART_1_cdc.c **** ***************************************************************************/
 721:Generated_Source\PSoC5/USBUART_1_cdc.c **** uint8 USBUART_1_GetChar(void) 
 722:Generated_Source\PSoC5/USBUART_1_cdc.c **** {
 780              		.loc 1 722 0
 781              		.cfi_startproc
 782              		@ args = 0, pretend = 0, frame = 8
 783              		@ frame_needed = 0, uses_anonymous_args = 0
 784 0000 07B5     		push	{r0, r1, r2, lr}
 785              		.cfi_def_cfa_offset 16
 786              		.cfi_offset 14, -4
 723:Generated_Source\PSoC5/USBUART_1_cdc.c ****      uint8 rxData;
 724:Generated_Source\PSoC5/USBUART_1_cdc.c ****      uint8 epNumber = USBUART_1_cdcDataOutEp[USBUART_1_activeCom];
 787              		.loc 1 724 0
 788 0002 074B     		ldr	r3, .L72
 789 0004 074A     		ldr	r2, .L72+4
 790 0006 1B78     		ldrb	r3, [r3]	@ zero_extendqisi2
 725:Generated_Source\PSoC5/USBUART_1_cdc.c **** 
 726:Generated_Source\PSoC5/USBUART_1_cdc.c ****     (void) USBUART_1_ReadOutEP(epNumber, &rxData, 1u);
 791              		.loc 1 726 0
 792 0008 0DF10701 		add	r1, sp, #7
 724:Generated_Source\PSoC5/USBUART_1_cdc.c **** 
 793              		.loc 1 724 0
 794 000c D05C     		ldrb	r0, [r2, r3]	@ zero_extendqisi2
 795              	.LVL59:
 796              		.loc 1 726 0
 797 000e 0122     		movs	r2, #1
 798 0010 FFF7FEFF 		bl	USBUART_1_ReadOutEP
 799              	.LVL60:
 727:Generated_Source\PSoC5/USBUART_1_cdc.c **** 
 728:Generated_Source\PSoC5/USBUART_1_cdc.c **** #if (USBUART_1_EP_MANAGEMENT_DMA_MANUAL)
 729:Generated_Source\PSoC5/USBUART_1_cdc.c ****     /* Wait until DMA complete transferring data from OUT endpoint buffer. */
 730:Generated_Source\PSoC5/USBUART_1_cdc.c ****     while (USBUART_1_OUT_BUFFER_FULL == USBUART_1_GetEPState(epNumber))
 731:Generated_Source\PSoC5/USBUART_1_cdc.c ****     {
 732:Generated_Source\PSoC5/USBUART_1_cdc.c ****     }
 733:Generated_Source\PSoC5/USBUART_1_cdc.c **** 
 734:Generated_Source\PSoC5/USBUART_1_cdc.c ****     /* Enable OUT endpoint to communicate with host. */
 735:Generated_Source\PSoC5/USBUART_1_cdc.c ****     USBUART_1_EnableOutEP(epNumber);
 736:Generated_Source\PSoC5/USBUART_1_cdc.c **** #endif /* (USBUART_1_EP_MANAGEMENT_DMA_MANUAL) */
 737:Generated_Source\PSoC5/USBUART_1_cdc.c **** 
 738:Generated_Source\PSoC5/USBUART_1_cdc.c ****     return (rxData);
 739:Generated_Source\PSoC5/USBUART_1_cdc.c **** }
 800              		.loc 1 739 0
 801 0014 9DF80700 		ldrb	r0, [sp, #7]	@ zero_extendqisi2
 802 0018 03B0     		add	sp, sp, #12
 803              		.cfi_def_cfa_offset 4
 804              		@ sp needed
 805 001a 5DF804FB 		ldr	pc, [sp], #4
 806              	.L73:
 807 001e 00BF     		.align	2
 808              	.L72:
 809 0020 00000000 		.word	.LANCHOR1
 810 0024 00000000 		.word	USBUART_1_cdcDataOutEp
 811              		.cfi_endproc
ARM GAS  C:\Users\Luggi\AppData\Local\Temp\ccLTEJfD.s 			page 29


 812              	.LFE13:
 813              		.size	USBUART_1_GetChar, .-USBUART_1_GetChar
 814              		.section	.text.USBUART_1_IsLineChanged,"ax",%progbits
 815              		.align	1
 816              		.global	USBUART_1_IsLineChanged
 817              		.thumb
 818              		.thumb_func
 819              		.type	USBUART_1_IsLineChanged, %function
 820              	USBUART_1_IsLineChanged:
 821              	.LFB14:
 740:Generated_Source\PSoC5/USBUART_1_cdc.c **** 
 741:Generated_Source\PSoC5/USBUART_1_cdc.c **** 
 742:Generated_Source\PSoC5/USBUART_1_cdc.c **** /*******************************************************************************
 743:Generated_Source\PSoC5/USBUART_1_cdc.c **** * Function Name: USBUART_1_IsLineChanged
 744:Generated_Source\PSoC5/USBUART_1_cdc.c **** ****************************************************************************//**
 745:Generated_Source\PSoC5/USBUART_1_cdc.c **** *
 746:Generated_Source\PSoC5/USBUART_1_cdc.c **** *  This function returns clear on read status of the line. It returns not zero
 747:Generated_Source\PSoC5/USBUART_1_cdc.c **** *  value when the host sends updated coding or control information to the
 748:Generated_Source\PSoC5/USBUART_1_cdc.c **** *  device. The USBUART_1_GetDTERate(), USBUART_1_GetCharFormat()
 749:Generated_Source\PSoC5/USBUART_1_cdc.c **** *  or USBUART_1_GetParityType() or USBUART_1_GetDataBits() API
 750:Generated_Source\PSoC5/USBUART_1_cdc.c **** *  should be called to read data coding information.
 751:Generated_Source\PSoC5/USBUART_1_cdc.c **** *  The USBUART_1_GetLineControl() API should be called to read line
 752:Generated_Source\PSoC5/USBUART_1_cdc.c **** *  control information.
 753:Generated_Source\PSoC5/USBUART_1_cdc.c **** *
 754:Generated_Source\PSoC5/USBUART_1_cdc.c **** * \return
 755:Generated_Source\PSoC5/USBUART_1_cdc.c **** *  If SET_LINE_CODING or CDC_SET_CONTROL_LINE_STATE requests are received, it
 756:Generated_Source\PSoC5/USBUART_1_cdc.c **** *  returns a non-zero value. Otherwise, it returns zero.
 757:Generated_Source\PSoC5/USBUART_1_cdc.c **** *  Return Value                 | Description
 758:Generated_Source\PSoC5/USBUART_1_cdc.c **** *  -----------------------------|--------------------------
 759:Generated_Source\PSoC5/USBUART_1_cdc.c **** *  USBUART_LINE_CODING_CHANGED  | Line coding changed
 760:Generated_Source\PSoC5/USBUART_1_cdc.c **** *  USBUART_LINE_CONTROL_CHANGED |   Line control changed
 761:Generated_Source\PSoC5/USBUART_1_cdc.c **** *
 762:Generated_Source\PSoC5/USBUART_1_cdc.c **** * \globalvars
 763:Generated_Source\PSoC5/USBUART_1_cdc.c **** *  - \ref USBUART_1_transferState: it is checked to be sure then OUT
 764:Generated_Source\PSoC5/USBUART_1_cdc.c **** *    data phase has been complete, and data written to the lineCoding or
 765:Generated_Source\PSoC5/USBUART_1_cdc.c **** *    Control Bitmap buffer.
 766:Generated_Source\PSoC5/USBUART_1_cdc.c **** *  - \ref USBUART_1_linesChanged: used as a flag to be aware that
 767:Generated_Source\PSoC5/USBUART_1_cdc.c **** *    Host has been sent request for changing Line Coding or Control Bitmap.
 768:Generated_Source\PSoC5/USBUART_1_cdc.c **** *
 769:Generated_Source\PSoC5/USBUART_1_cdc.c **** *******************************************************************************/
 770:Generated_Source\PSoC5/USBUART_1_cdc.c **** uint8 USBUART_1_IsLineChanged(void) 
 771:Generated_Source\PSoC5/USBUART_1_cdc.c **** {
 822              		.loc 1 771 0
 823              		.cfi_startproc
 824              		@ args = 0, pretend = 0, frame = 0
 825              		@ frame_needed = 0, uses_anonymous_args = 0
 826              	.LVL61:
 827 0000 10B5     		push	{r4, lr}
 828              		.cfi_def_cfa_offset 8
 829              		.cfi_offset 4, -8
 830              		.cfi_offset 14, -4
 772:Generated_Source\PSoC5/USBUART_1_cdc.c ****     uint8 state = 0u;
 773:Generated_Source\PSoC5/USBUART_1_cdc.c **** 
 774:Generated_Source\PSoC5/USBUART_1_cdc.c ****     /* transferState is checked to be sure then OUT data phase has been complete */
 775:Generated_Source\PSoC5/USBUART_1_cdc.c ****     if (USBUART_1_transferState == USBUART_1_TRANS_STATE_IDLE)
 831              		.loc 1 775 0
 832 0002 094B     		ldr	r3, .L78
ARM GAS  C:\Users\Luggi\AppData\Local\Temp\ccLTEJfD.s 			page 30


 833 0004 1B78     		ldrb	r3, [r3]	@ zero_extendqisi2
 834 0006 03F0FF04 		and	r4, r3, #255
 835 000a 53B9     		cbnz	r3, .L76
 776:Generated_Source\PSoC5/USBUART_1_cdc.c ****     {
 777:Generated_Source\PSoC5/USBUART_1_cdc.c ****         if (USBUART_1_linesChanged[USBUART_1_activeCom] != 0u)
 836              		.loc 1 777 0
 837 000c 074B     		ldr	r3, .L78+4
 838 000e 084A     		ldr	r2, .L78+8
 839 0010 1B78     		ldrb	r3, [r3]	@ zero_extendqisi2
 840 0012 D15C     		ldrb	r1, [r2, r3]	@ zero_extendqisi2
 841 0014 01F0FF00 		and	r0, r1, #255
 842 0018 21B1     		cbz	r1, .L75
 778:Generated_Source\PSoC5/USBUART_1_cdc.c ****         {
 779:Generated_Source\PSoC5/USBUART_1_cdc.c ****             state = USBUART_1_linesChanged[USBUART_1_activeCom];
 843              		.loc 1 779 0
 844 001a D05C     		ldrb	r0, [r2, r3]	@ zero_extendqisi2
 780:Generated_Source\PSoC5/USBUART_1_cdc.c ****             USBUART_1_linesChanged[USBUART_1_activeCom] = 0u;
 845              		.loc 1 780 0
 846 001c D454     		strb	r4, [r2, r3]
 779:Generated_Source\PSoC5/USBUART_1_cdc.c ****             USBUART_1_linesChanged[USBUART_1_activeCom] = 0u;
 847              		.loc 1 779 0
 848 001e C0B2     		uxtb	r0, r0
 849              	.LVL62:
 850 0020 10BD     		pop	{r4, pc}
 851              	.LVL63:
 852              	.L76:
 772:Generated_Source\PSoC5/USBUART_1_cdc.c **** 
 853              		.loc 1 772 0
 854 0022 0020     		movs	r0, #0
 855              	.L75:
 856              	.LVL64:
 781:Generated_Source\PSoC5/USBUART_1_cdc.c ****         }
 782:Generated_Source\PSoC5/USBUART_1_cdc.c ****     }
 783:Generated_Source\PSoC5/USBUART_1_cdc.c **** 
 784:Generated_Source\PSoC5/USBUART_1_cdc.c ****     return (state);
 785:Generated_Source\PSoC5/USBUART_1_cdc.c **** }
 857              		.loc 1 785 0
 858 0024 10BD     		pop	{r4, pc}
 859              	.L79:
 860 0026 00BF     		.align	2
 861              	.L78:
 862 0028 00000000 		.word	USBUART_1_transferState
 863 002c 00000000 		.word	.LANCHOR1
 864 0030 00000000 		.word	USBUART_1_linesChanged
 865              		.cfi_endproc
 866              	.LFE14:
 867              		.size	USBUART_1_IsLineChanged, .-USBUART_1_IsLineChanged
 868              		.section	.text.USBUART_1_GetDTERate,"ax",%progbits
 869              		.align	1
 870              		.global	USBUART_1_GetDTERate
 871              		.thumb
 872              		.thumb_func
 873              		.type	USBUART_1_GetDTERate, %function
 874              	USBUART_1_GetDTERate:
 875              	.LFB15:
 786:Generated_Source\PSoC5/USBUART_1_cdc.c **** 
 787:Generated_Source\PSoC5/USBUART_1_cdc.c **** 
ARM GAS  C:\Users\Luggi\AppData\Local\Temp\ccLTEJfD.s 			page 31


 788:Generated_Source\PSoC5/USBUART_1_cdc.c **** /***************************************************************************
 789:Generated_Source\PSoC5/USBUART_1_cdc.c **** * Function Name: USBUART_1_GetDTERate
 790:Generated_Source\PSoC5/USBUART_1_cdc.c **** ************************************************************************//**
 791:Generated_Source\PSoC5/USBUART_1_cdc.c **** *
 792:Generated_Source\PSoC5/USBUART_1_cdc.c **** *  This function returns the data terminal rate set for this port in bits
 793:Generated_Source\PSoC5/USBUART_1_cdc.c **** *  per second.
 794:Generated_Source\PSoC5/USBUART_1_cdc.c **** *
 795:Generated_Source\PSoC5/USBUART_1_cdc.c **** * \return
 796:Generated_Source\PSoC5/USBUART_1_cdc.c **** *  Returns a uint32 value of the data rate in bits per second.
 797:Generated_Source\PSoC5/USBUART_1_cdc.c **** *
 798:Generated_Source\PSoC5/USBUART_1_cdc.c **** * \globalvars
 799:Generated_Source\PSoC5/USBUART_1_cdc.c **** *  USBUART_1_linesCoding: First four bytes converted to uint32
 800:Generated_Source\PSoC5/USBUART_1_cdc.c **** *    depend on compiler, and returned as a data rate.
 801:Generated_Source\PSoC5/USBUART_1_cdc.c **** *
 802:Generated_Source\PSoC5/USBUART_1_cdc.c **** *******************************************************************************/
 803:Generated_Source\PSoC5/USBUART_1_cdc.c **** uint32 USBUART_1_GetDTERate(void) 
 804:Generated_Source\PSoC5/USBUART_1_cdc.c **** {
 876              		.loc 1 804 0
 877              		.cfi_startproc
 878              		@ args = 0, pretend = 0, frame = 0
 879              		@ frame_needed = 0, uses_anonymous_args = 0
 880 0000 10B5     		push	{r4, lr}
 881              		.cfi_def_cfa_offset 8
 882              		.cfi_offset 4, -8
 883              		.cfi_offset 14, -4
 805:Generated_Source\PSoC5/USBUART_1_cdc.c ****     uint32 rate;
 806:Generated_Source\PSoC5/USBUART_1_cdc.c **** 
 807:Generated_Source\PSoC5/USBUART_1_cdc.c ****     rate = USBUART_1_linesCoding[USBUART_1_activeCom][USBUART_1_LINE_CODING_RATE + 3u];
 884              		.loc 1 807 0
 885 0002 084B     		ldr	r3, .L81
 886 0004 084C     		ldr	r4, .L81+4
 887 0006 1B78     		ldrb	r3, [r3]	@ zero_extendqisi2
 888 0008 C3EBC303 		rsb	r3, r3, r3, lsl #3
 889 000c E118     		adds	r1, r4, r3
 890 000e C878     		ldrb	r0, [r1, #3]	@ zero_extendqisi2
 891              	.LVL65:
 808:Generated_Source\PSoC5/USBUART_1_cdc.c ****     rate = (rate << 8u) | USBUART_1_linesCoding[USBUART_1_activeCom][USBUART_1_LINE_CODING_RATE + 2
 892              		.loc 1 808 0
 893 0010 8A78     		ldrb	r2, [r1, #2]	@ zero_extendqisi2
 894              	.LVL66:
 895 0012 42EA0020 		orr	r0, r2, r0, lsl #8
 896              	.LVL67:
 809:Generated_Source\PSoC5/USBUART_1_cdc.c ****     rate = (rate << 8u) | USBUART_1_linesCoding[USBUART_1_activeCom][USBUART_1_LINE_CODING_RATE + 1
 897              		.loc 1 809 0
 898 0016 4A78     		ldrb	r2, [r1, #1]	@ zero_extendqisi2
 899              	.LVL68:
 900 0018 42EA0022 		orr	r2, r2, r0, lsl #8
 901              	.LVL69:
 810:Generated_Source\PSoC5/USBUART_1_cdc.c ****     rate = (rate << 8u) | USBUART_1_linesCoding[USBUART_1_activeCom][USBUART_1_LINE_CODING_RATE];
 902              		.loc 1 810 0
 903 001c E05C     		ldrb	r0, [r4, r3]	@ zero_extendqisi2
 904              	.LVL70:
 811:Generated_Source\PSoC5/USBUART_1_cdc.c **** 
 812:Generated_Source\PSoC5/USBUART_1_cdc.c ****     return (rate);
 813:Generated_Source\PSoC5/USBUART_1_cdc.c **** }
 905              		.loc 1 813 0
 906 001e 40EA0220 		orr	r0, r0, r2, lsl #8
ARM GAS  C:\Users\Luggi\AppData\Local\Temp\ccLTEJfD.s 			page 32


 907              	.LVL71:
 908 0022 10BD     		pop	{r4, pc}
 909              	.L82:
 910              		.align	2
 911              	.L81:
 912 0024 00000000 		.word	.LANCHOR1
 913 0028 00000000 		.word	.LANCHOR0
 914              		.cfi_endproc
 915              	.LFE15:
 916              		.size	USBUART_1_GetDTERate, .-USBUART_1_GetDTERate
 917              		.section	.text.USBUART_1_GetCharFormat,"ax",%progbits
 918              		.align	1
 919              		.global	USBUART_1_GetCharFormat
 920              		.thumb
 921              		.thumb_func
 922              		.type	USBUART_1_GetCharFormat, %function
 923              	USBUART_1_GetCharFormat:
 924              	.LFB16:
 814:Generated_Source\PSoC5/USBUART_1_cdc.c **** 
 815:Generated_Source\PSoC5/USBUART_1_cdc.c **** 
 816:Generated_Source\PSoC5/USBUART_1_cdc.c **** /*******************************************************************************
 817:Generated_Source\PSoC5/USBUART_1_cdc.c **** * Function Name: USBUART_1_GetCharFormat
 818:Generated_Source\PSoC5/USBUART_1_cdc.c **** ****************************************************************************//**
 819:Generated_Source\PSoC5/USBUART_1_cdc.c **** *
 820:Generated_Source\PSoC5/USBUART_1_cdc.c **** *  Returns the number of stop bits.
 821:Generated_Source\PSoC5/USBUART_1_cdc.c **** *
 822:Generated_Source\PSoC5/USBUART_1_cdc.c **** * \return
 823:Generated_Source\PSoC5/USBUART_1_cdc.c **** *  Returns the number of stop bits.
 824:Generated_Source\PSoC5/USBUART_1_cdc.c **** *  Return               |Value Description
 825:Generated_Source\PSoC5/USBUART_1_cdc.c **** *  ---------------------|-------------------
 826:Generated_Source\PSoC5/USBUART_1_cdc.c **** *  USBUART_1_STOPBIT    | 1 stop bit
 827:Generated_Source\PSoC5/USBUART_1_cdc.c **** *  USBUART_1_5_STOPBITS | 1,5 stop bits
 828:Generated_Source\PSoC5/USBUART_1_cdc.c **** *  USBUART_2_STOPBITS   | 2 stop bits
 829:Generated_Source\PSoC5/USBUART_1_cdc.c **** *
 830:Generated_Source\PSoC5/USBUART_1_cdc.c **** *
 831:Generated_Source\PSoC5/USBUART_1_cdc.c **** * \globalvars
 832:Generated_Source\PSoC5/USBUART_1_cdc.c **** *  USBUART_1_linesCoding: used to get a parameter.
 833:Generated_Source\PSoC5/USBUART_1_cdc.c **** *
 834:Generated_Source\PSoC5/USBUART_1_cdc.c **** *******************************************************************************/
 835:Generated_Source\PSoC5/USBUART_1_cdc.c **** uint8 USBUART_1_GetCharFormat(void) 
 836:Generated_Source\PSoC5/USBUART_1_cdc.c **** {
 925              		.loc 1 836 0
 926              		.cfi_startproc
 927              		@ args = 0, pretend = 0, frame = 0
 928              		@ frame_needed = 0, uses_anonymous_args = 0
 929              		@ link register save eliminated.
 837:Generated_Source\PSoC5/USBUART_1_cdc.c ****     return (USBUART_1_linesCoding[USBUART_1_activeCom][USBUART_1_LINE_CODING_STOP_BITS]);
 930              		.loc 1 837 0
 931 0000 034B     		ldr	r3, .L84
 932 0002 044A     		ldr	r2, .L84+4
 933 0004 1B78     		ldrb	r3, [r3]	@ zero_extendqisi2
 934 0006 C3EBC303 		rsb	r3, r3, r3, lsl #3
 935 000a 1344     		add	r3, r3, r2
 936 000c 1879     		ldrb	r0, [r3, #4]	@ zero_extendqisi2
 838:Generated_Source\PSoC5/USBUART_1_cdc.c **** }
 937              		.loc 1 838 0
 938 000e 7047     		bx	lr
ARM GAS  C:\Users\Luggi\AppData\Local\Temp\ccLTEJfD.s 			page 33


 939              	.L85:
 940              		.align	2
 941              	.L84:
 942 0010 00000000 		.word	.LANCHOR1
 943 0014 00000000 		.word	.LANCHOR0
 944              		.cfi_endproc
 945              	.LFE16:
 946              		.size	USBUART_1_GetCharFormat, .-USBUART_1_GetCharFormat
 947              		.section	.text.USBUART_1_GetParityType,"ax",%progbits
 948              		.align	1
 949              		.global	USBUART_1_GetParityType
 950              		.thumb
 951              		.thumb_func
 952              		.type	USBUART_1_GetParityType, %function
 953              	USBUART_1_GetParityType:
 954              	.LFB17:
 839:Generated_Source\PSoC5/USBUART_1_cdc.c **** 
 840:Generated_Source\PSoC5/USBUART_1_cdc.c **** 
 841:Generated_Source\PSoC5/USBUART_1_cdc.c **** /*******************************************************************************
 842:Generated_Source\PSoC5/USBUART_1_cdc.c **** * Function Name: USBUART_1_GetParityType
 843:Generated_Source\PSoC5/USBUART_1_cdc.c **** ****************************************************************************//**
 844:Generated_Source\PSoC5/USBUART_1_cdc.c **** *
 845:Generated_Source\PSoC5/USBUART_1_cdc.c **** *  This function returns the parity type for the CDC port.
 846:Generated_Source\PSoC5/USBUART_1_cdc.c **** *
 847:Generated_Source\PSoC5/USBUART_1_cdc.c **** * \return
 848:Generated_Source\PSoC5/USBUART_1_cdc.c **** *  Returns the parity type.
 849:Generated_Source\PSoC5/USBUART_1_cdc.c **** *   Return               | Value Description
 850:Generated_Source\PSoC5/USBUART_1_cdc.c **** *  ----------------------|-------------------
 851:Generated_Source\PSoC5/USBUART_1_cdc.c **** *  USBUART_PARITY_NONE   | 1 stop bit
 852:Generated_Source\PSoC5/USBUART_1_cdc.c **** *  USBUART_PARITY_ODD    | 1,5 stop bits
 853:Generated_Source\PSoC5/USBUART_1_cdc.c **** *  USBUART_PARITY_EVEN   | 2 stop bits
 854:Generated_Source\PSoC5/USBUART_1_cdc.c **** *  USBUART_PARITY_MARK   | Mark
 855:Generated_Source\PSoC5/USBUART_1_cdc.c **** *  USBUART_PARITY_SPACE  | Space
 856:Generated_Source\PSoC5/USBUART_1_cdc.c **** *
 857:Generated_Source\PSoC5/USBUART_1_cdc.c **** * \globalvars
 858:Generated_Source\PSoC5/USBUART_1_cdc.c **** *  USBUART_1_linesCoding: used to get a parameter.
 859:Generated_Source\PSoC5/USBUART_1_cdc.c **** *
 860:Generated_Source\PSoC5/USBUART_1_cdc.c **** *******************************************************************************/
 861:Generated_Source\PSoC5/USBUART_1_cdc.c **** uint8 USBUART_1_GetParityType(void) 
 862:Generated_Source\PSoC5/USBUART_1_cdc.c **** {
 955              		.loc 1 862 0
 956              		.cfi_startproc
 957              		@ args = 0, pretend = 0, frame = 0
 958              		@ frame_needed = 0, uses_anonymous_args = 0
 959              		@ link register save eliminated.
 863:Generated_Source\PSoC5/USBUART_1_cdc.c ****     return (USBUART_1_linesCoding[USBUART_1_activeCom][USBUART_1_LINE_CODING_PARITY]);
 960              		.loc 1 863 0
 961 0000 034B     		ldr	r3, .L87
 962 0002 044A     		ldr	r2, .L87+4
 963 0004 1B78     		ldrb	r3, [r3]	@ zero_extendqisi2
 964 0006 C3EBC303 		rsb	r3, r3, r3, lsl #3
 965 000a 1344     		add	r3, r3, r2
 966 000c 5879     		ldrb	r0, [r3, #5]	@ zero_extendqisi2
 864:Generated_Source\PSoC5/USBUART_1_cdc.c **** }
 967              		.loc 1 864 0
 968 000e 7047     		bx	lr
 969              	.L88:
ARM GAS  C:\Users\Luggi\AppData\Local\Temp\ccLTEJfD.s 			page 34


 970              		.align	2
 971              	.L87:
 972 0010 00000000 		.word	.LANCHOR1
 973 0014 00000000 		.word	.LANCHOR0
 974              		.cfi_endproc
 975              	.LFE17:
 976              		.size	USBUART_1_GetParityType, .-USBUART_1_GetParityType
 977              		.section	.text.USBUART_1_GetDataBits,"ax",%progbits
 978              		.align	1
 979              		.global	USBUART_1_GetDataBits
 980              		.thumb
 981              		.thumb_func
 982              		.type	USBUART_1_GetDataBits, %function
 983              	USBUART_1_GetDataBits:
 984              	.LFB18:
 865:Generated_Source\PSoC5/USBUART_1_cdc.c **** 
 866:Generated_Source\PSoC5/USBUART_1_cdc.c **** 
 867:Generated_Source\PSoC5/USBUART_1_cdc.c **** /***************************************************************************
 868:Generated_Source\PSoC5/USBUART_1_cdc.c **** * Function Name: USBUART_1_GetDataBits
 869:Generated_Source\PSoC5/USBUART_1_cdc.c **** ************************************************************************//**
 870:Generated_Source\PSoC5/USBUART_1_cdc.c **** *
 871:Generated_Source\PSoC5/USBUART_1_cdc.c **** *  This function returns the number of data bits for the CDC port.
 872:Generated_Source\PSoC5/USBUART_1_cdc.c **** *
 873:Generated_Source\PSoC5/USBUART_1_cdc.c **** * \return
 874:Generated_Source\PSoC5/USBUART_1_cdc.c **** *  Returns the number of data bits.
 875:Generated_Source\PSoC5/USBUART_1_cdc.c **** *  The number of data bits can be 5, 6, 7, 8 or 16.
 876:Generated_Source\PSoC5/USBUART_1_cdc.c **** *
 877:Generated_Source\PSoC5/USBUART_1_cdc.c **** * \globalvars
 878:Generated_Source\PSoC5/USBUART_1_cdc.c **** *  USBUART_1_linesCoding: used to get a parameter.
 879:Generated_Source\PSoC5/USBUART_1_cdc.c **** *
 880:Generated_Source\PSoC5/USBUART_1_cdc.c **** *******************************************************************************/
 881:Generated_Source\PSoC5/USBUART_1_cdc.c **** uint8 USBUART_1_GetDataBits(void) 
 882:Generated_Source\PSoC5/USBUART_1_cdc.c **** {
 985              		.loc 1 882 0
 986              		.cfi_startproc
 987              		@ args = 0, pretend = 0, frame = 0
 988              		@ frame_needed = 0, uses_anonymous_args = 0
 989              		@ link register save eliminated.
 883:Generated_Source\PSoC5/USBUART_1_cdc.c ****     return (USBUART_1_linesCoding[USBUART_1_activeCom][USBUART_1_LINE_CODING_DATA_BITS]);
 990              		.loc 1 883 0
 991 0000 034B     		ldr	r3, .L90
 992 0002 044A     		ldr	r2, .L90+4
 993 0004 1B78     		ldrb	r3, [r3]	@ zero_extendqisi2
 994 0006 C3EBC303 		rsb	r3, r3, r3, lsl #3
 995 000a 1344     		add	r3, r3, r2
 996 000c 9879     		ldrb	r0, [r3, #6]	@ zero_extendqisi2
 884:Generated_Source\PSoC5/USBUART_1_cdc.c **** }
 997              		.loc 1 884 0
 998 000e 7047     		bx	lr
 999              	.L91:
 1000              		.align	2
 1001              	.L90:
 1002 0010 00000000 		.word	.LANCHOR1
 1003 0014 00000000 		.word	.LANCHOR0
 1004              		.cfi_endproc
 1005              	.LFE18:
 1006              		.size	USBUART_1_GetDataBits, .-USBUART_1_GetDataBits
ARM GAS  C:\Users\Luggi\AppData\Local\Temp\ccLTEJfD.s 			page 35


 1007              		.section	.text.USBUART_1_GetLineControl,"ax",%progbits
 1008              		.align	1
 1009              		.global	USBUART_1_GetLineControl
 1010              		.thumb
 1011              		.thumb_func
 1012              		.type	USBUART_1_GetLineControl, %function
 1013              	USBUART_1_GetLineControl:
 1014              	.LFB19:
 885:Generated_Source\PSoC5/USBUART_1_cdc.c **** 
 886:Generated_Source\PSoC5/USBUART_1_cdc.c **** 
 887:Generated_Source\PSoC5/USBUART_1_cdc.c **** /***************************************************************************
 888:Generated_Source\PSoC5/USBUART_1_cdc.c **** * Function Name: USBUART_1_GetLineControl
 889:Generated_Source\PSoC5/USBUART_1_cdc.c **** ************************************************************************//**
 890:Generated_Source\PSoC5/USBUART_1_cdc.c **** *
 891:Generated_Source\PSoC5/USBUART_1_cdc.c **** *  This function returns Line control bitmap that the host sends to the
 892:Generated_Source\PSoC5/USBUART_1_cdc.c **** *  device.
 893:Generated_Source\PSoC5/USBUART_1_cdc.c **** *
 894:Generated_Source\PSoC5/USBUART_1_cdc.c **** * \return
 895:Generated_Source\PSoC5/USBUART_1_cdc.c **** *  Returns Line control bitmap.
 896:Generated_Source\PSoC5/USBUART_1_cdc.c **** *  Return                   |Value Notes
 897:Generated_Source\PSoC5/USBUART_1_cdc.c **** *  -------------------------|-----------------------------------------------
 898:Generated_Source\PSoC5/USBUART_1_cdc.c **** *  USBUART_LINE_CONTROL_DTR |Indicates that a DTR signal is present. This signal corresponds to V.2
 899:Generated_Source\PSoC5/USBUART_1_cdc.c **** *  USBUART_LINE_CONTROL_RTS |Carrier control for half-duplex modems. This signal corresponds to V.2
 900:Generated_Source\PSoC5/USBUART_1_cdc.c **** *  RESERVED                 |The rest of the bits are reserved.
 901:Generated_Source\PSoC5/USBUART_1_cdc.c **** *
 902:Generated_Source\PSoC5/USBUART_1_cdc.c **** *  *Note* Some terminal emulation programs do not properly handle these
 903:Generated_Source\PSoC5/USBUART_1_cdc.c **** *  control signals. They update information about DTR and RTS state only
 904:Generated_Source\PSoC5/USBUART_1_cdc.c **** *  when the RTS signal changes the state.
 905:Generated_Source\PSoC5/USBUART_1_cdc.c **** *
 906:Generated_Source\PSoC5/USBUART_1_cdc.c **** * \globalvars
 907:Generated_Source\PSoC5/USBUART_1_cdc.c **** *  USBUART_1_linesControlBitmap: used to get a parameter.
 908:Generated_Source\PSoC5/USBUART_1_cdc.c **** *
 909:Generated_Source\PSoC5/USBUART_1_cdc.c **** *******************************************************************************/
 910:Generated_Source\PSoC5/USBUART_1_cdc.c **** uint16 USBUART_1_GetLineControl(void) 
 911:Generated_Source\PSoC5/USBUART_1_cdc.c **** {
 1015              		.loc 1 911 0
 1016              		.cfi_startproc
 1017              		@ args = 0, pretend = 0, frame = 0
 1018              		@ frame_needed = 0, uses_anonymous_args = 0
 1019              		@ link register save eliminated.
 912:Generated_Source\PSoC5/USBUART_1_cdc.c ****     return (USBUART_1_linesControlBitmap[USBUART_1_activeCom]);
 1020              		.loc 1 912 0
 1021 0000 034B     		ldr	r3, .L93
 1022 0002 1A78     		ldrb	r2, [r3]	@ zero_extendqisi2
 1023 0004 034B     		ldr	r3, .L93+4
 1024 0006 33F81200 		ldrh	r0, [r3, r2, lsl #1]
 913:Generated_Source\PSoC5/USBUART_1_cdc.c **** }
 1025              		.loc 1 913 0
 1026 000a 80B2     		uxth	r0, r0
 1027 000c 7047     		bx	lr
 1028              	.L94:
 1029 000e 00BF     		.align	2
 1030              	.L93:
 1031 0010 00000000 		.word	.LANCHOR1
 1032 0014 00000000 		.word	USBUART_1_linesControlBitmap
 1033              		.cfi_endproc
 1034              	.LFE19:
ARM GAS  C:\Users\Luggi\AppData\Local\Temp\ccLTEJfD.s 			page 36


 1035              		.size	USBUART_1_GetLineControl, .-USBUART_1_GetLineControl
 1036              		.section	.text.USBUART_1_SendSerialState,"ax",%progbits
 1037              		.align	1
 1038              		.global	USBUART_1_SendSerialState
 1039              		.thumb
 1040              		.thumb_func
 1041              		.type	USBUART_1_SendSerialState, %function
 1042              	USBUART_1_SendSerialState:
 1043              	.LFB20:
 914:Generated_Source\PSoC5/USBUART_1_cdc.c **** 
 915:Generated_Source\PSoC5/USBUART_1_cdc.c **** 
 916:Generated_Source\PSoC5/USBUART_1_cdc.c **** /*******************************************************************************
 917:Generated_Source\PSoC5/USBUART_1_cdc.c **** * Function Name: USBUART_1_SendSerialState
 918:Generated_Source\PSoC5/USBUART_1_cdc.c **** ****************************************************************************//**
 919:Generated_Source\PSoC5/USBUART_1_cdc.c **** *
 920:Generated_Source\PSoC5/USBUART_1_cdc.c **** *  Sends the serial state notification to the host using the interrupt
 921:Generated_Source\PSoC5/USBUART_1_cdc.c **** *  endpoint for the COM port selected using the API SetComPort().The
 922:Generated_Source\PSoC5/USBUART_1_cdc.c **** *  USBUART_1_NotificationIsReady() API must be called to check if the
 923:Generated_Source\PSoC5/USBUART_1_cdc.c **** *  Component is ready to send more serial state to the host. The API will
 924:Generated_Source\PSoC5/USBUART_1_cdc.c **** *  not send the notification data if the interrupt endpoint Max Packet Size
 925:Generated_Source\PSoC5/USBUART_1_cdc.c **** *  is less than the required 10 bytes.
 926:Generated_Source\PSoC5/USBUART_1_cdc.c **** *
 927:Generated_Source\PSoC5/USBUART_1_cdc.c **** * \param uint16 serialState
 928:Generated_Source\PSoC5/USBUART_1_cdc.c **** *  16-bit value that will be sent from the device to the
 929:Generated_Source\PSoC5/USBUART_1_cdc.c **** *  host as SERIAL_STATE notification using the IN interrupt endpoint. Refer
 930:Generated_Source\PSoC5/USBUART_1_cdc.c **** *  to revision 1.2 of the CDC PSTN Subclass specification for bit field
 931:Generated_Source\PSoC5/USBUART_1_cdc.c **** *  definitions of the 16-bit serial state value.
 932:Generated_Source\PSoC5/USBUART_1_cdc.c **** *
 933:Generated_Source\PSoC5/USBUART_1_cdc.c **** *******************************************************************************/
 934:Generated_Source\PSoC5/USBUART_1_cdc.c **** void USBUART_1_SendSerialState (uint16 serialState) 
 935:Generated_Source\PSoC5/USBUART_1_cdc.c **** {
 1044              		.loc 1 935 0
 1045              		.cfi_startproc
 1046              		@ args = 0, pretend = 0, frame = 0
 1047              		@ frame_needed = 0, uses_anonymous_args = 0
 1048              	.LVL72:
 1049 0000 30B5     		push	{r4, r5, lr}
 1050              		.cfi_def_cfa_offset 12
 1051              		.cfi_offset 4, -12
 1052              		.cfi_offset 5, -8
 1053              		.cfi_offset 14, -4
 936:Generated_Source\PSoC5/USBUART_1_cdc.c ****     uint8 epNumber = USBUART_1_cdcCommInInterruptEp[USBUART_1_activeCom];
 1054              		.loc 1 936 0
 1055 0002 124B     		ldr	r3, .L97
 937:Generated_Source\PSoC5/USBUART_1_cdc.c **** 
 938:Generated_Source\PSoC5/USBUART_1_cdc.c ****     if(USBUART_1_SERIAL_STATE_SIZE <= USBUART_1_EP[epNumber].bufferSize)
 1056              		.loc 1 938 0
 1057 0004 124C     		ldr	r4, .L97+4
 936:Generated_Source\PSoC5/USBUART_1_cdc.c ****     uint8 epNumber = USBUART_1_cdcCommInInterruptEp[USBUART_1_activeCom];
 1058              		.loc 1 936 0
 1059 0006 1A78     		ldrb	r2, [r3]	@ zero_extendqisi2
 1060 0008 124B     		ldr	r3, .L97+8
 1061              		.loc 1 938 0
 1062 000a 0C21     		movs	r1, #12
 936:Generated_Source\PSoC5/USBUART_1_cdc.c ****     uint8 epNumber = USBUART_1_cdcCommInInterruptEp[USBUART_1_activeCom];
 1063              		.loc 1 936 0
 1064 000c 9B5C     		ldrb	r3, [r3, r2]	@ zero_extendqisi2
ARM GAS  C:\Users\Luggi\AppData\Local\Temp\ccLTEJfD.s 			page 37


 1065 000e DBB2     		uxtb	r3, r3
 1066              	.LVL73:
 1067              		.loc 1 938 0
 1068 0010 01FB0341 		mla	r1, r1, r3, r4
 1069 0014 01F10805 		add	r5, r1, #8
 1070 0018 0989     		ldrh	r1, [r1, #8]
 1071 001a 89B2     		uxth	r1, r1
 1072 001c 0929     		cmp	r1, #9
 1073 001e 14D9     		bls	.L95
 939:Generated_Source\PSoC5/USBUART_1_cdc.c ****     {
 940:Generated_Source\PSoC5/USBUART_1_cdc.c ****         /* Save current SERIAL_STATE bitmap. */
 941:Generated_Source\PSoC5/USBUART_1_cdc.c ****         USBUART_1_serialStateBitmap[USBUART_1_activeCom] = serialState;
 1074              		.loc 1 941 0
 1075 0020 0D4C     		ldr	r4, .L97+12
 942:Generated_Source\PSoC5/USBUART_1_cdc.c **** 
 943:Generated_Source\PSoC5/USBUART_1_cdc.c ****         /* Add interface number */
 944:Generated_Source\PSoC5/USBUART_1_cdc.c ****         USBUART_1_serialStateNotification.wIndex = USBUART_1_EP[epNumber].interface;
 1076              		.loc 1 944 0
 1077 0022 0E49     		ldr	r1, .L97+16
 941:Generated_Source\PSoC5/USBUART_1_cdc.c **** 
 1078              		.loc 1 941 0
 1079 0024 24F81200 		strh	r0, [r4, r2, lsl #1]	@ movhi
 1080              		.loc 1 944 0
 1081 0028 A878     		ldrb	r0, [r5, #2]	@ zero_extendqisi2
 1082              	.LVL74:
 945:Generated_Source\PSoC5/USBUART_1_cdc.c **** 
 946:Generated_Source\PSoC5/USBUART_1_cdc.c ****         /*Form SERIAL_STATE data*/
 947:Generated_Source\PSoC5/USBUART_1_cdc.c ****         USBUART_1_serialStateNotification.wSerialState =    LO8(USBUART_1_serialStateBitmap[USBUART
 948:Generated_Source\PSoC5/USBUART_1_cdc.c ****         USBUART_1_serialStateNotification.wSerialStateMSB = HI8(USBUART_1_serialStateBitmap[USBUART
 949:Generated_Source\PSoC5/USBUART_1_cdc.c **** 
 950:Generated_Source\PSoC5/USBUART_1_cdc.c ****         USBUART_1_LoadInEP(epNumber, (uint8 *) &USBUART_1_serialStateNotification, sizeof(USBUART_1
 1083              		.loc 1 950 0
 1084 002a 0E31     		adds	r1, r1, #14
 944:Generated_Source\PSoC5/USBUART_1_cdc.c **** 
 1085              		.loc 1 944 0
 1086 002c 0871     		strb	r0, [r1, #4]
 947:Generated_Source\PSoC5/USBUART_1_cdc.c ****         USBUART_1_serialStateNotification.wSerialStateMSB = HI8(USBUART_1_serialStateBitmap[USBUART
 1087              		.loc 1 947 0
 1088 002e 34F81200 		ldrh	r0, [r4, r2, lsl #1]
 948:Generated_Source\PSoC5/USBUART_1_cdc.c **** 
 1089              		.loc 1 948 0
 1090 0032 34F81220 		ldrh	r2, [r4, r2, lsl #1]
 1091              	.LVL75:
 947:Generated_Source\PSoC5/USBUART_1_cdc.c ****         USBUART_1_serialStateNotification.wSerialStateMSB = HI8(USBUART_1_serialStateBitmap[USBUART
 1092              		.loc 1 947 0
 1093 0036 0872     		strb	r0, [r1, #8]
 948:Generated_Source\PSoC5/USBUART_1_cdc.c **** 
 1094              		.loc 1 948 0
 1095 0038 C2F30722 		ubfx	r2, r2, #8, #8
 1096 003c 4A72     		strb	r2, [r1, #9]
 1097              		.loc 1 950 0
 1098 003e 1846     		mov	r0, r3
 951:Generated_Source\PSoC5/USBUART_1_cdc.c ****     }
 952:Generated_Source\PSoC5/USBUART_1_cdc.c **** }
 1099              		.loc 1 952 0
 1100 0040 BDE83040 		pop	{r4, r5, lr}
 1101              		.cfi_remember_state
ARM GAS  C:\Users\Luggi\AppData\Local\Temp\ccLTEJfD.s 			page 38


 1102              		.cfi_restore 14
 1103              		.cfi_restore 5
 1104              		.cfi_restore 4
 1105              		.cfi_def_cfa_offset 0
 1106              	.LVL76:
 950:Generated_Source\PSoC5/USBUART_1_cdc.c ****     }
 1107              		.loc 1 950 0
 1108 0044 0A22     		movs	r2, #10
 1109 0046 FFF7FEBF 		b	USBUART_1_LoadInEP
 1110              	.LVL77:
 1111              	.L95:
 1112              		.cfi_restore_state
 1113 004a 30BD     		pop	{r4, r5, pc}
 1114              	.L98:
 1115              		.align	2
 1116              	.L97:
 1117 004c 00000000 		.word	.LANCHOR1
 1118 0050 00000000 		.word	USBUART_1_EP
 1119 0054 00000000 		.word	USBUART_1_cdcCommInInterruptEp
 1120 0058 00000000 		.word	USBUART_1_serialStateBitmap
 1121 005c 00000000 		.word	.LANCHOR0
 1122              		.cfi_endproc
 1123              	.LFE20:
 1124              		.size	USBUART_1_SendSerialState, .-USBUART_1_SendSerialState
 1125              		.section	.text.USBUART_1_GetSerialState,"ax",%progbits
 1126              		.align	1
 1127              		.global	USBUART_1_GetSerialState
 1128              		.thumb
 1129              		.thumb_func
 1130              		.type	USBUART_1_GetSerialState, %function
 1131              	USBUART_1_GetSerialState:
 1132              	.LFB21:
 953:Generated_Source\PSoC5/USBUART_1_cdc.c **** 
 954:Generated_Source\PSoC5/USBUART_1_cdc.c **** 
 955:Generated_Source\PSoC5/USBUART_1_cdc.c **** /*******************************************************************************
 956:Generated_Source\PSoC5/USBUART_1_cdc.c **** * Function Name: USBUART_1_GetSerialState
 957:Generated_Source\PSoC5/USBUART_1_cdc.c **** ****************************************************************************//**
 958:Generated_Source\PSoC5/USBUART_1_cdc.c **** *
 959:Generated_Source\PSoC5/USBUART_1_cdc.c **** *  This function returns the current serial state value for the COM port
 960:Generated_Source\PSoC5/USBUART_1_cdc.c **** *  selected using the API SetComPort().
 961:Generated_Source\PSoC5/USBUART_1_cdc.c **** *
 962:Generated_Source\PSoC5/USBUART_1_cdc.c **** * \return
 963:Generated_Source\PSoC5/USBUART_1_cdc.c **** *  16-bit serial state value. Refer to revision 1.2 of the CDC PSTN Subclass
 964:Generated_Source\PSoC5/USBUART_1_cdc.c **** *  specification for bit field definitions of the 16-bit serial state value.
 965:Generated_Source\PSoC5/USBUART_1_cdc.c **** *
 966:Generated_Source\PSoC5/USBUART_1_cdc.c **** *******************************************************************************/
 967:Generated_Source\PSoC5/USBUART_1_cdc.c **** uint16 USBUART_1_GetSerialState(void) 
 968:Generated_Source\PSoC5/USBUART_1_cdc.c **** {
 1133              		.loc 1 968 0
 1134              		.cfi_startproc
 1135              		@ args = 0, pretend = 0, frame = 0
 1136              		@ frame_needed = 0, uses_anonymous_args = 0
 1137              		@ link register save eliminated.
 969:Generated_Source\PSoC5/USBUART_1_cdc.c ****     return USBUART_1_serialStateBitmap[USBUART_1_activeCom];
 1138              		.loc 1 969 0
 1139 0000 034B     		ldr	r3, .L100
 1140 0002 1A78     		ldrb	r2, [r3]	@ zero_extendqisi2
ARM GAS  C:\Users\Luggi\AppData\Local\Temp\ccLTEJfD.s 			page 39


 1141 0004 034B     		ldr	r3, .L100+4
 1142 0006 33F81200 		ldrh	r0, [r3, r2, lsl #1]
 970:Generated_Source\PSoC5/USBUART_1_cdc.c **** }
 1143              		.loc 1 970 0
 1144 000a 80B2     		uxth	r0, r0
 1145 000c 7047     		bx	lr
 1146              	.L101:
 1147 000e 00BF     		.align	2
 1148              	.L100:
 1149 0010 00000000 		.word	.LANCHOR1
 1150 0014 00000000 		.word	USBUART_1_serialStateBitmap
 1151              		.cfi_endproc
 1152              	.LFE21:
 1153              		.size	USBUART_1_GetSerialState, .-USBUART_1_GetSerialState
 1154              		.section	.text.USBUART_1_NotificationIsReady,"ax",%progbits
 1155              		.align	1
 1156              		.global	USBUART_1_NotificationIsReady
 1157              		.thumb
 1158              		.thumb_func
 1159              		.type	USBUART_1_NotificationIsReady, %function
 1160              	USBUART_1_NotificationIsReady:
 1161              	.LFB22:
 971:Generated_Source\PSoC5/USBUART_1_cdc.c **** 
 972:Generated_Source\PSoC5/USBUART_1_cdc.c **** 
 973:Generated_Source\PSoC5/USBUART_1_cdc.c **** /*******************************************************************************
 974:Generated_Source\PSoC5/USBUART_1_cdc.c **** * Function Name: USBUART_1_NotificationIsReady
 975:Generated_Source\PSoC5/USBUART_1_cdc.c **** ****************************************************************************//**
 976:Generated_Source\PSoC5/USBUART_1_cdc.c **** *
 977:Generated_Source\PSoC5/USBUART_1_cdc.c **** *  This function returns a non-zero value if the Component is ready to send
 978:Generated_Source\PSoC5/USBUART_1_cdc.c **** *  more notifications to the host; otherwise, it returns zero. The function
 979:Generated_Source\PSoC5/USBUART_1_cdc.c **** *  should be called before sending new notifications when using
 980:Generated_Source\PSoC5/USBUART_1_cdc.c **** *  USBUART_1_SendSerialState() to ensure that any previous
 981:Generated_Source\PSoC5/USBUART_1_cdc.c **** *  notification data has been already sent to the host.
 982:Generated_Source\PSoC5/USBUART_1_cdc.c **** *
 983:Generated_Source\PSoC5/USBUART_1_cdc.c **** * \return
 984:Generated_Source\PSoC5/USBUART_1_cdc.c **** *  If the buffer can accept new data(endpoint buffer not full), this
 985:Generated_Source\PSoC5/USBUART_1_cdc.c **** *  function returns a non-zero value. Otherwise, it returns zero.
 986:Generated_Source\PSoC5/USBUART_1_cdc.c **** *
 987:Generated_Source\PSoC5/USBUART_1_cdc.c **** * \globalvars
 988:Generated_Source\PSoC5/USBUART_1_cdc.c **** *   USBUART_1_cdcDataInEp: CDC IN endpoint number used.
 989:Generated_Source\PSoC5/USBUART_1_cdc.c **** *
 990:Generated_Source\PSoC5/USBUART_1_cdc.c **** *******************************************************************************/
 991:Generated_Source\PSoC5/USBUART_1_cdc.c **** uint8 USBUART_1_NotificationIsReady(void) 
 992:Generated_Source\PSoC5/USBUART_1_cdc.c **** {
 1162              		.loc 1 992 0
 1163              		.cfi_startproc
 1164              		@ args = 0, pretend = 0, frame = 0
 1165              		@ frame_needed = 0, uses_anonymous_args = 0
 1166              		@ link register save eliminated.
 993:Generated_Source\PSoC5/USBUART_1_cdc.c ****     return (USBUART_1_EP[USBUART_1_cdcCommInInterruptEp[USBUART_1_activeCom]].apiEpState);
 1167              		.loc 1 993 0
 1168 0000 044B     		ldr	r3, .L103
 1169 0002 054A     		ldr	r2, .L103+4
 1170 0004 1B78     		ldrb	r3, [r3]	@ zero_extendqisi2
 1171 0006 0C21     		movs	r1, #12
 1172 0008 D25C     		ldrb	r2, [r2, r3]	@ zero_extendqisi2
 1173 000a 044B     		ldr	r3, .L103+8
ARM GAS  C:\Users\Luggi\AppData\Local\Temp\ccLTEJfD.s 			page 40


 1174 000c 01FB0233 		mla	r3, r1, r2, r3
 1175 0010 5878     		ldrb	r0, [r3, #1]	@ zero_extendqisi2
 994:Generated_Source\PSoC5/USBUART_1_cdc.c **** }
 1176              		.loc 1 994 0
 1177 0012 7047     		bx	lr
 1178              	.L104:
 1179              		.align	2
 1180              	.L103:
 1181 0014 00000000 		.word	.LANCHOR1
 1182 0018 00000000 		.word	USBUART_1_cdcCommInInterruptEp
 1183 001c 00000000 		.word	USBUART_1_EP
 1184              		.cfi_endproc
 1185              	.LFE22:
 1186              		.size	USBUART_1_NotificationIsReady, .-USBUART_1_NotificationIsReady
 1187              		.section	.text.USBUART_1_SetComPort,"ax",%progbits
 1188              		.align	1
 1189              		.global	USBUART_1_SetComPort
 1190              		.thumb
 1191              		.thumb_func
 1192              		.type	USBUART_1_SetComPort, %function
 1193              	USBUART_1_SetComPort:
 1194              	.LFB23:
 995:Generated_Source\PSoC5/USBUART_1_cdc.c **** 
 996:Generated_Source\PSoC5/USBUART_1_cdc.c **** 
 997:Generated_Source\PSoC5/USBUART_1_cdc.c **** /*******************************************************************************
 998:Generated_Source\PSoC5/USBUART_1_cdc.c **** * Function Name: USBUART_1_SetComPort
 999:Generated_Source\PSoC5/USBUART_1_cdc.c **** ****************************************************************************//**
1000:Generated_Source\PSoC5/USBUART_1_cdc.c **** *
1001:Generated_Source\PSoC5/USBUART_1_cdc.c **** *  This function allows the user to select from one of the two COM ports
1002:Generated_Source\PSoC5/USBUART_1_cdc.c **** *  they wish to address in the instance of having multiple COM ports
1003:Generated_Source\PSoC5/USBUART_1_cdc.c **** *  instantiated though the use of a composite device. Once set, all future
1004:Generated_Source\PSoC5/USBUART_1_cdc.c **** *  function calls related to the USBUART will be affected. This addressed
1005:Generated_Source\PSoC5/USBUART_1_cdc.c **** *  COM port can be changed during run time.
1006:Generated_Source\PSoC5/USBUART_1_cdc.c **** *
1007:Generated_Source\PSoC5/USBUART_1_cdc.c **** * \param comNumber
1008:Generated_Source\PSoC5/USBUART_1_cdc.c **** *  Contains the COM interface the user wishes to address. Value can either
1009:Generated_Source\PSoC5/USBUART_1_cdc.c **** *  be 0 or 1 since a maximum of only 2 COM ports can be supported. Note that
1010:Generated_Source\PSoC5/USBUART_1_cdc.c **** *  this COM port number is not the COM port number assigned on the PC side
1011:Generated_Source\PSoC5/USBUART_1_cdc.c **** *  for the UART communication. If a value greater than 1 is passed, the
1012:Generated_Source\PSoC5/USBUART_1_cdc.c **** *  function returns without performing any action.
1013:Generated_Source\PSoC5/USBUART_1_cdc.c **** *
1014:Generated_Source\PSoC5/USBUART_1_cdc.c **** *******************************************************************************/
1015:Generated_Source\PSoC5/USBUART_1_cdc.c **** void USBUART_1_SetComPort(uint8 comNumber) 
1016:Generated_Source\PSoC5/USBUART_1_cdc.c **** {
 1195              		.loc 1 1016 0
 1196              		.cfi_startproc
 1197              		@ args = 0, pretend = 0, frame = 0
 1198              		@ frame_needed = 0, uses_anonymous_args = 0
 1199              		@ link register save eliminated.
 1200              	.LVL78:
1017:Generated_Source\PSoC5/USBUART_1_cdc.c ****     if ((USBUART_1_activeCom != comNumber) && \
 1201              		.loc 1 1017 0
 1202 0000 034B     		ldr	r3, .L107
 1203 0002 1A78     		ldrb	r2, [r3]	@ zero_extendqisi2
 1204 0004 8242     		cmp	r2, r0
 1205 0006 02D0     		beq	.L105
 1206              		.loc 1 1017 0 is_stmt 0 discriminator 1
ARM GAS  C:\Users\Luggi\AppData\Local\Temp\ccLTEJfD.s 			page 41


 1207 0008 0128     		cmp	r0, #1
1018:Generated_Source\PSoC5/USBUART_1_cdc.c ****             (comNumber < USBUART_1_MAX_MULTI_COM_NUM ))
1019:Generated_Source\PSoC5/USBUART_1_cdc.c ****     {
1020:Generated_Source\PSoC5/USBUART_1_cdc.c ****         USBUART_1_activeCom = comNumber;
 1208              		.loc 1 1020 0 is_stmt 1 discriminator 1
 1209 000a 98BF     		it	ls
 1210 000c 1870     		strbls	r0, [r3]
 1211              	.L105:
 1212 000e 7047     		bx	lr
 1213              	.L108:
 1214              		.align	2
 1215              	.L107:
 1216 0010 00000000 		.word	.LANCHOR1
 1217              		.cfi_endproc
 1218              	.LFE23:
 1219              		.size	USBUART_1_SetComPort, .-USBUART_1_SetComPort
 1220              		.section	.text.USBUART_1_GetComPort,"ax",%progbits
 1221              		.align	1
 1222              		.global	USBUART_1_GetComPort
 1223              		.thumb
 1224              		.thumb_func
 1225              		.type	USBUART_1_GetComPort, %function
 1226              	USBUART_1_GetComPort:
 1227              	.LFB24:
1021:Generated_Source\PSoC5/USBUART_1_cdc.c ****     }
1022:Generated_Source\PSoC5/USBUART_1_cdc.c **** }
1023:Generated_Source\PSoC5/USBUART_1_cdc.c **** 
1024:Generated_Source\PSoC5/USBUART_1_cdc.c **** 
1025:Generated_Source\PSoC5/USBUART_1_cdc.c **** /*******************************************************************************
1026:Generated_Source\PSoC5/USBUART_1_cdc.c **** * Function Name: USBUART_1_GetComPort
1027:Generated_Source\PSoC5/USBUART_1_cdc.c **** ****************************************************************************//**
1028:Generated_Source\PSoC5/USBUART_1_cdc.c **** *
1029:Generated_Source\PSoC5/USBUART_1_cdc.c **** *  This function returns the current selected COM port that the user is
1030:Generated_Source\PSoC5/USBUART_1_cdc.c **** *  currently addressing in the instance of having multiple COM ports
1031:Generated_Source\PSoC5/USBUART_1_cdc.c **** *  instantiated though the use of a composite device.
1032:Generated_Source\PSoC5/USBUART_1_cdc.c **** *
1033:Generated_Source\PSoC5/USBUART_1_cdc.c **** * \return
1034:Generated_Source\PSoC5/USBUART_1_cdc.c **** *  Returns the currently selected COM port. Value can either be 0 or 1 since
1035:Generated_Source\PSoC5/USBUART_1_cdc.c **** *  a maximum of only 2 COM ports can be supported. . Note that this COM port
1036:Generated_Source\PSoC5/USBUART_1_cdc.c **** *  number is not the COM port number assigned on the PC side for the UART
1037:Generated_Source\PSoC5/USBUART_1_cdc.c **** *  communication.
1038:Generated_Source\PSoC5/USBUART_1_cdc.c **** *
1039:Generated_Source\PSoC5/USBUART_1_cdc.c **** *******************************************************************************/
1040:Generated_Source\PSoC5/USBUART_1_cdc.c **** uint8 USBUART_1_GetComPort(void) 
1041:Generated_Source\PSoC5/USBUART_1_cdc.c **** {
 1228              		.loc 1 1041 0
 1229              		.cfi_startproc
 1230              		@ args = 0, pretend = 0, frame = 0
 1231              		@ frame_needed = 0, uses_anonymous_args = 0
 1232              		@ link register save eliminated.
1042:Generated_Source\PSoC5/USBUART_1_cdc.c ****     return (USBUART_1_activeCom);
1043:Generated_Source\PSoC5/USBUART_1_cdc.c **** }
 1233              		.loc 1 1043 0
 1234 0000 014B     		ldr	r3, .L110
 1235 0002 1878     		ldrb	r0, [r3]	@ zero_extendqisi2
 1236 0004 7047     		bx	lr
 1237              	.L111:
ARM GAS  C:\Users\Luggi\AppData\Local\Temp\ccLTEJfD.s 			page 42


 1238 0006 00BF     		.align	2
 1239              	.L110:
 1240 0008 00000000 		.word	.LANCHOR1
 1241              		.cfi_endproc
 1242              	.LFE24:
 1243              		.size	USBUART_1_GetComPort, .-USBUART_1_GetComPort
 1244              		.section	.text.USBUART_1_Cdc_EpInit,"ax",%progbits
 1245              		.align	1
 1246              		.global	USBUART_1_Cdc_EpInit
 1247              		.thumb
 1248              		.thumb_func
 1249              		.type	USBUART_1_Cdc_EpInit, %function
 1250              	USBUART_1_Cdc_EpInit:
 1251              	.LFB25:
1044:Generated_Source\PSoC5/USBUART_1_cdc.c **** 
1045:Generated_Source\PSoC5/USBUART_1_cdc.c **** 
1046:Generated_Source\PSoC5/USBUART_1_cdc.c **** #endif  /* (USBUART_1_ENABLE_CDC_CLASS_API) */
1047:Generated_Source\PSoC5/USBUART_1_cdc.c **** 
1048:Generated_Source\PSoC5/USBUART_1_cdc.c **** 
1049:Generated_Source\PSoC5/USBUART_1_cdc.c **** /***************************************************************************
1050:Generated_Source\PSoC5/USBUART_1_cdc.c **** * Function Name: USBUART_1_Cdc_EpInit
1051:Generated_Source\PSoC5/USBUART_1_cdc.c **** ************************************************************************//**
1052:Generated_Source\PSoC5/USBUART_1_cdc.c **** *
1053:Generated_Source\PSoC5/USBUART_1_cdc.c **** *  \internal
1054:Generated_Source\PSoC5/USBUART_1_cdc.c **** *  This routine decide type of endpoint (IN, OUT, Notification) and same to
1055:Generated_Source\PSoC5/USBUART_1_cdc.c **** *   appropriate global variables  according to COM port number.
1056:Generated_Source\PSoC5/USBUART_1_cdc.c **** *   USBUART_1_cdcDataInEp[], USBUART_1_cdcCommInInterruptEp[],
1057:Generated_Source\PSoC5/USBUART_1_cdc.c **** *   USBUART_1_cdcDataOutEp[]
1058:Generated_Source\PSoC5/USBUART_1_cdc.c **** *
1059:Generated_Source\PSoC5/USBUART_1_cdc.c **** * \param pEP: Pointer to structure with current EP description.
1060:Generated_Source\PSoC5/USBUART_1_cdc.c **** * \param epNum: EP number
1061:Generated_Source\PSoC5/USBUART_1_cdc.c **** * \param cdcComNums: Bit array of current COM ports for CDC IN, OUT,
1062:Generated_Source\PSoC5/USBUART_1_cdc.c **** *        and notification EPs(0 - COM port 1, 1- COM port 2)
1063:Generated_Source\PSoC5/USBUART_1_cdc.c **** *
1064:Generated_Source\PSoC5/USBUART_1_cdc.c **** * \return
1065:Generated_Source\PSoC5/USBUART_1_cdc.c **** *  Updated cdcComNums
1066:Generated_Source\PSoC5/USBUART_1_cdc.c **** *
1067:Generated_Source\PSoC5/USBUART_1_cdc.c **** * \reentrant
1068:Generated_Source\PSoC5/USBUART_1_cdc.c **** *  No.
1069:Generated_Source\PSoC5/USBUART_1_cdc.c **** *
1070:Generated_Source\PSoC5/USBUART_1_cdc.c **** ***************************************************************************/
1071:Generated_Source\PSoC5/USBUART_1_cdc.c **** uint8 USBUART_1_Cdc_EpInit(const T_USBUART_1_EP_SETTINGS_BLOCK CYCODE *pEP, uint8 epNum, uint8 cdcC
1072:Generated_Source\PSoC5/USBUART_1_cdc.c **** {
 1252              		.loc 1 1072 0
 1253              		.cfi_startproc
 1254              		@ args = 0, pretend = 0, frame = 0
 1255              		@ frame_needed = 0, uses_anonymous_args = 0
 1256              		@ link register save eliminated.
 1257              	.LVL79:
1073:Generated_Source\PSoC5/USBUART_1_cdc.c ****     uint8 epType;
1074:Generated_Source\PSoC5/USBUART_1_cdc.c **** 
1075:Generated_Source\PSoC5/USBUART_1_cdc.c ****     epType = pEP->attributes & USBUART_1_EP_TYPE_MASK;
 1258              		.loc 1 1075 0
 1259 0000 C378     		ldrb	r3, [r0, #3]	@ zero_extendqisi2
1076:Generated_Source\PSoC5/USBUART_1_cdc.c **** 
1077:Generated_Source\PSoC5/USBUART_1_cdc.c ****     if (0u != (pEP->addr & USBUART_1_DIR_IN))
 1260              		.loc 1 1077 0
ARM GAS  C:\Users\Luggi\AppData\Local\Temp\ccLTEJfD.s 			page 43


 1261 0002 90F90200 		ldrsb	r0, [r0, #2]
 1262              	.LVL80:
1075:Generated_Source\PSoC5/USBUART_1_cdc.c **** 
 1263              		.loc 1 1075 0
 1264 0006 03F00303 		and	r3, r3, #3
 1265              	.LVL81:
 1266              		.loc 1 1077 0
 1267 000a 0028     		cmp	r0, #0
 1268 000c 0FDA     		bge	.L113
1078:Generated_Source\PSoC5/USBUART_1_cdc.c ****     {
1079:Generated_Source\PSoC5/USBUART_1_cdc.c ****         if (epType != USBUART_1_EP_TYPE_INT)
 1269              		.loc 1 1079 0
 1270 000e 032B     		cmp	r3, #3
1080:Generated_Source\PSoC5/USBUART_1_cdc.c ****         {
1081:Generated_Source\PSoC5/USBUART_1_cdc.c ****             USBUART_1_cdcDataInEp[USBUART_1_GET_EP_COM_NUM(cdcComNums, USBUART_1_CDC_IN_EP)] = epNu
 1271              		.loc 1 1081 0
 1272 0010 15BF     		itete	ne
 1273 0012 0C48     		ldrne	r0, .L119
1082:Generated_Source\PSoC5/USBUART_1_cdc.c ****             cdcComNums |= (uint8)(USBUART_1_COM_PORT2 << USBUART_1_CDC_IN_EP);
1083:Generated_Source\PSoC5/USBUART_1_cdc.c ****         }
1084:Generated_Source\PSoC5/USBUART_1_cdc.c ****         else
1085:Generated_Source\PSoC5/USBUART_1_cdc.c ****         {
1086:Generated_Source\PSoC5/USBUART_1_cdc.c **** 
1087:Generated_Source\PSoC5/USBUART_1_cdc.c ****             USBUART_1_cdcCommInInterruptEp[USBUART_1_GET_EP_COM_NUM(cdcComNums, USBUART_1_CDC_NOTE_
 1274              		.loc 1 1087 0
 1275 0014 0C48     		ldreq	r0, .L119+4
1081:Generated_Source\PSoC5/USBUART_1_cdc.c ****             cdcComNums |= (uint8)(USBUART_1_COM_PORT2 << USBUART_1_CDC_IN_EP);
 1276              		.loc 1 1081 0
 1277 0016 02F00103 		andne	r3, r2, #1
 1278              	.LVL82:
 1279              		.loc 1 1087 0
 1280 001a C2F38003 		ubfxeq	r3, r2, #2, #1
1081:Generated_Source\PSoC5/USBUART_1_cdc.c ****             cdcComNums |= (uint8)(USBUART_1_COM_PORT2 << USBUART_1_CDC_IN_EP);
 1281              		.loc 1 1081 0
 1282 001e 19BF     		ittee	ne
 1283 0020 C154     		strbne	r1, [r0, r3]
1082:Generated_Source\PSoC5/USBUART_1_cdc.c ****             cdcComNums |= (uint8)(USBUART_1_COM_PORT2 << USBUART_1_CDC_IN_EP);
 1284              		.loc 1 1082 0
 1285 0022 42F00102 		orrne	r2, r2, #1
 1286              	.LVL83:
 1287              		.loc 1 1087 0
 1288 0026 C154     		strbeq	r1, [r0, r3]
1088:Generated_Source\PSoC5/USBUART_1_cdc.c ****             cdcComNums |= (uint8)(USBUART_1_COM_PORT2 << USBUART_1_CDC_NOTE_EP);
 1289              		.loc 1 1088 0
 1290 0028 42F00402 		orreq	r2, r2, #4
 1291              	.LVL84:
 1292 002c 07E0     		b	.L115
 1293              	.LVL85:
 1294              	.L113:
1089:Generated_Source\PSoC5/USBUART_1_cdc.c ****         }
1090:Generated_Source\PSoC5/USBUART_1_cdc.c ****     }
1091:Generated_Source\PSoC5/USBUART_1_cdc.c ****     else
1092:Generated_Source\PSoC5/USBUART_1_cdc.c ****     {
1093:Generated_Source\PSoC5/USBUART_1_cdc.c ****         if (epType != USBUART_1_EP_TYPE_INT)
 1295              		.loc 1 1093 0
 1296 002e 032B     		cmp	r3, #3
1094:Generated_Source\PSoC5/USBUART_1_cdc.c ****         {
ARM GAS  C:\Users\Luggi\AppData\Local\Temp\ccLTEJfD.s 			page 44


1095:Generated_Source\PSoC5/USBUART_1_cdc.c ****             USBUART_1_cdcDataOutEp[USBUART_1_GET_EP_COM_NUM(cdcComNums, USBUART_1_CDC_OUT_EP)] = ep
 1297              		.loc 1 1095 0
 1298 0030 1FBF     		itttt	ne
 1299 0032 0648     		ldrne	r0, .L119+8
 1300 0034 C2F34003 		ubfxne	r3, r2, #1, #1
 1301              	.LVL86:
 1302 0038 C154     		strbne	r1, [r0, r3]
1096:Generated_Source\PSoC5/USBUART_1_cdc.c ****             cdcComNums |= (uint8)(USBUART_1_COM_PORT2 << USBUART_1_CDC_OUT_EP);
 1303              		.loc 1 1096 0
 1304 003a 42F00202 		orrne	r2, r2, #2
 1305              	.LVL87:
 1306              	.L115:
1097:Generated_Source\PSoC5/USBUART_1_cdc.c ****         }
1098:Generated_Source\PSoC5/USBUART_1_cdc.c ****     }
1099:Generated_Source\PSoC5/USBUART_1_cdc.c ****     return (cdcComNums);
1100:Generated_Source\PSoC5/USBUART_1_cdc.c **** }
 1307              		.loc 1 1100 0
 1308 003e 1046     		mov	r0, r2
 1309 0040 7047     		bx	lr
 1310              	.L120:
 1311 0042 00BF     		.align	2
 1312              	.L119:
 1313 0044 00000000 		.word	USBUART_1_cdcDataInEp
 1314 0048 00000000 		.word	USBUART_1_cdcCommInInterruptEp
 1315 004c 00000000 		.word	USBUART_1_cdcDataOutEp
 1316              		.cfi_endproc
 1317              	.LFE25:
 1318              		.size	USBUART_1_Cdc_EpInit, .-USBUART_1_Cdc_EpInit
 1319              		.comm	USBUART_1_cdcCommInInterruptEp,2,1
 1320              		.comm	USBUART_1_cdcDataOutEp,2,1
 1321              		.comm	USBUART_1_cdcDataInEp,2,1
 1322              		.comm	USBUART_1_serialStateBitmap,4,2
 1323              		.comm	USBUART_1_linesControlBitmap,4,2
 1324              		.comm	USBUART_1_linesChanged,2,1
 1325              		.global	USBUART_1_linesCoding
 1326              		.section	.rodata
 1327              		.set	.LANCHOR2,. + 0
 1328              	.LC0:
 1329 0000 0D       		.byte	13
 1330 0001 0A       		.byte	10
 1331              		.data
 1332              		.set	.LANCHOR0,. + 0
 1333              		.type	USBUART_1_linesCoding, %object
 1334              		.size	USBUART_1_linesCoding, 14
 1335              	USBUART_1_linesCoding:
 1336 0000 00       		.byte	0
 1337 0001 C2       		.byte	-62
 1338 0002 01       		.byte	1
 1339 0003 00       		.byte	0
 1340 0004 00       		.byte	0
 1341 0005 00       		.byte	0
 1342 0006 08       		.byte	8
 1343 0007 00       		.byte	0
 1344 0008 C2       		.byte	-62
 1345 0009 01       		.byte	1
 1346 000a 00       		.byte	0
 1347 000b 00       		.byte	0
ARM GAS  C:\Users\Luggi\AppData\Local\Temp\ccLTEJfD.s 			page 45


 1348 000c 00       		.byte	0
 1349 000d 08       		.byte	8
 1350              		.type	USBUART_1_serialStateNotification, %object
 1351              		.size	USBUART_1_serialStateNotification, 10
 1352              	USBUART_1_serialStateNotification:
 1353 000e A1       		.byte	-95
 1354 000f 20       		.byte	32
 1355 0010 00       		.byte	0
 1356 0011 00       		.byte	0
 1357 0012 00       		.byte	0
 1358 0013 00       		.byte	0
 1359 0014 02       		.byte	2
 1360 0015 00       		.byte	0
 1361 0016 00       		.byte	0
 1362 0017 00       		.byte	0
 1363              		.bss
 1364              		.set	.LANCHOR1,. + 0
 1365              		.type	USBUART_1_activeCom, %object
 1366              		.size	USBUART_1_activeCom, 1
 1367              	USBUART_1_activeCom:
 1368 0000 00       		.space	1
 1369              		.text
 1370              	.Letext0:
 1371              		.file 2 "Generated_Source\\PSoC5\\cytypes.h"
 1372              		.file 3 "Generated_Source\\PSoC5\\USBUART_1.h"
 1373              		.file 4 "Generated_Source\\PSoC5\\USBUART_1_pvt.h"