ARM GAS  C:\Users\csap2972\AppData\Local\Temp\cclUBZwy.s 			page 1


   1              		.syntax unified
   2              		.cpu cortex-m3
   3              		.fpu softvfp
   4              		.eabi_attribute 20, 1
   5              		.eabi_attribute 21, 1
   6              		.eabi_attribute 23, 3
   7              		.eabi_attribute 24, 1
   8              		.eabi_attribute 25, 1
   9              		.eabi_attribute 26, 1
  10              		.eabi_attribute 30, 6
  11              		.eabi_attribute 34, 1
  12              		.eabi_attribute 18, 4
  13              		.thumb
  14              		.file	"cli.c"
  15              		.text
  16              	.Ltext0:
  17              		.cfi_sections	.debug_frame
  18              		.bss
  19              		.align	2
  20              	cliBuffer:
  21 0000 00000000 		.space	48
  21      00000000 
  21      00000000 
  21      00000000 
  21      00000000 
  22              		.align	2
  23              	bufferIndex:
  24 0030 00000000 		.space	4
  25              		.global	cmdTable
  26              		.section	.rodata
  27              		.align	2
  28              	.LC0:
  29 0000 64656661 		.ascii	"defaults\000"
  29      756C7473 
  29      00
  30 0009 000000   		.align	2
  31              	.LC1:
  32 000c 72657365 		.ascii	"reset to defaults and reboot\000"
  32      7420746F 
  32      20646566 
  32      61756C74 
  32      7320616E 
  33 0029 000000   		.align	2
  34              	.LC2:
  35 002c 65786974 		.ascii	"exit\000"
  35      00
  36 0031 000000   		.align	2
  37              	.LC3:
  38 0034 00       		.ascii	"\000"
  39 0035 000000   		.align	2
  40              	.LC4:
  41 0038 68656C70 		.ascii	"help\000"
  41      00
  42 003d 000000   		.align	2
  43              	.LC5:
  44 0040 73617665 		.ascii	"save\000"
  44      00
ARM GAS  C:\Users\csap2972\AppData\Local\Temp\cclUBZwy.s 			page 2


  45 0045 000000   		.align	2
  46              	.LC6:
  47 0048 73617665 		.ascii	"save variables\000"
  47      20766172 
  47      6961626C 
  47      657300
  48 0057 00       		.align	2
  49              	.LC7:
  50 0058 73657400 		.ascii	"set\000"
  51              		.align	2
  52              	.LC8:
  53 005c 6E616D65 		.ascii	"name=value or blank or * for list\000"
  53      3D76616C 
  53      7565206F 
  53      7220626C 
  53      616E6B20 
  54 007e 0000     		.align	2
  55              	.LC9:
  56 0080 73746174 		.ascii	"status\000"
  56      757300
  57 0087 00       		.align	2
  58              	.LC10:
  59 0088 73686F77 		.ascii	"show system status\000"
  59      20737973 
  59      74656D20 
  59      73746174 
  59      757300
  60 009b 00       		.align	2
  61              		.type	cmdTable, %object
  62              		.size	cmdTable, 72
  63              	cmdTable:
  64 009c 00000000 		.word	.LC0
  65 00a0 0C000000 		.word	.LC1
  66 00a4 00000000 		.word	cliDefaults
  67 00a8 2C000000 		.word	.LC2
  68 00ac 34000000 		.word	.LC3
  69 00b0 00000000 		.word	cliExit
  70 00b4 38000000 		.word	.LC4
  71 00b8 34000000 		.word	.LC3
  72 00bc 00000000 		.word	cliHelp
  73 00c0 40000000 		.word	.LC5
  74 00c4 48000000 		.word	.LC6
  75 00c8 00000000 		.word	cliSave
  76 00cc 58000000 		.word	.LC7
  77 00d0 5C000000 		.word	.LC8
  78 00d4 00000000 		.word	cliSet
  79 00d8 80000000 		.word	.LC9
  80 00dc 88000000 		.word	.LC10
  81 00e0 00000000 		.word	cliStatus
  82              		.global	valueTable
  83              		.align	2
  84              	.LC11:
  85 00e4 502D7465 		.ascii	"P-term\000"
  85      726D00
  86 00eb 00       		.align	2
  87              	.LC12:
  88 00ec 492D7465 		.ascii	"I-term\000"
ARM GAS  C:\Users\csap2972\AppData\Local\Temp\cclUBZwy.s 			page 3


  88      726D00
  89 00f3 00       		.align	2
  90              	.LC13:
  91 00f4 442D7465 		.ascii	"D-term\000"
  91      726D00
  92 00fb 00       		.align	2
  93              	.LC14:
  94 00fc 73657470 		.ascii	"setpoint\000"
  94      6F696E74 
  94      00
  95 0105 000000   		.align	2
  96              	.LC15:
  97 0108 52656765 		.ascii	"Regelzeit\000"
  97      6C7A6569 
  97      7400
  98 0112 0000     		.align	2
  99              	.LC16:
 100 0114 77696E64 		.ascii	"windup\000"
 100      757000
 101 011b 00       		.align	2
 102              	.LC17:
 103 011c 64656275 		.ascii	"debug_output\000"
 103      675F6F75 
 103      74707574 
 103      00
 104 0129 000000   		.align	2
 105              	.LC18:
 106 012c 6461635F 		.ascii	"dac_offset\000"
 106      6F666673 
 106      657400
 107 0137 00       		.align	2
 108              		.type	valueTable, %object
 109              		.size	valueTable, 160
 110              	valueTable:
 111 0138 E4000000 		.word	.LC11
 112 013c 0B       		.byte	11
 113 013d 000000   		.space	3
 114 0140 00000000 		.word	pid1
 115 0144 00000000 		.word	0
 116 0148 64000000 		.word	100
 117 014c EC000000 		.word	.LC12
 118 0150 0C       		.byte	12
 119 0151 000000   		.space	3
 120 0154 04000000 		.word	pid1+4
 121 0158 00000000 		.word	0
 122 015c 64000000 		.word	100
 123 0160 F4000000 		.word	.LC13
 124 0164 0C       		.byte	12
 125 0165 000000   		.space	3
 126 0168 08000000 		.word	pid1+8
 127 016c 00000000 		.word	0
 128 0170 64000000 		.word	100
 129 0174 FC000000 		.word	.LC14
 130 0178 0C       		.byte	12
 131 0179 000000   		.space	3
 132 017c 00000000 		.word	setpoint
 133 0180 00000000 		.word	0
ARM GAS  C:\Users\csap2972\AppData\Local\Temp\cclUBZwy.s 			page 4


 134 0184 E8030000 		.word	1000
 135 0188 08010000 		.word	.LC15
 136 018c 0D       		.byte	13
 137 018d 000000   		.space	3
 138 0190 00000000 		.word	deltaTms
 139 0194 00000000 		.word	0
 140 0198 0A000000 		.word	10
 141 019c 14010000 		.word	.LC16
 142 01a0 04       		.byte	4
 143 01a1 000000   		.space	3
 144 01a4 14000000 		.word	pid1+20
 145 01a8 00000000 		.word	0
 146 01ac 80969800 		.word	10000000
 147 01b0 1C010000 		.word	.LC17
 148 01b4 00       		.byte	0
 149 01b5 000000   		.space	3
 150 01b8 00000000 		.word	debug
 151 01bc 00000000 		.word	0
 152 01c0 01000000 		.word	1
 153 01c4 2C010000 		.word	.LC18
 154 01c8 00       		.byte	0
 155 01c9 000000   		.space	3
 156 01cc 00000000 		.word	dac_offset
 157 01d0 00000000 		.word	0
 158 01d4 FF000000 		.word	255
 159              		.align	2
 160              	.LC19:
 161 01d8 30313233 		.ascii	"0123456789ABCDEFGHIJKLMNOPQRSTUVWXYZ\000"
 161      34353637 
 161      38394142 
 161      43444546 
 161      4748494A 
 162              		.section	.text.i2a,"ax",%progbits
 163              		.align	2
 164              		.thumb
 165              		.thumb_func
 166              		.type	i2a, %function
 167              	i2a:
 168              	.LFB56:
 169              		.file 1 ".\\cli.c"
   1:.\cli.c       **** #include "cli.h"
   2:.\cli.c       **** #include "pid.h"
   3:.\cli.c       **** #include <stdio.h>
   4:.\cli.c       **** #include <stdint.h>
   5:.\cli.c       **** #include <stdlib.h>
   6:.\cli.c       **** #include "device.h"
   7:.\cli.c       **** #include "eeprom.h"
   8:.\cli.c       **** #include <math.h>
   9:.\cli.c       **** 
  10:.\cli.c       **** // we unset this on 'exit'
  11:.\cli.c       **** extern uint8_t cliMode;
  12:.\cli.c       **** static void cliDefaults(char *cmdline);
  13:.\cli.c       **** static void cliExit(char *cmdline);
  14:.\cli.c       **** static void cliHelp(char *cmdline);
  15:.\cli.c       **** static void cliSave(char *cmdline);
  16:.\cli.c       **** static void cliSet(char *cmdline);
  17:.\cli.c       **** static void cliStatus(char *cmdline);
ARM GAS  C:\Users\csap2972\AppData\Local\Temp\cclUBZwy.s 			page 5


  18:.\cli.c       **** 
  19:.\cli.c       **** // from main.c
  20:.\cli.c       **** extern pid pid1;
  21:.\cli.c       **** extern int setpoint;
  22:.\cli.c       **** extern float Temperature;
  23:.\cli.c       **** extern uint32_t eventcounter;
  24:.\cli.c       **** extern uint8_t debug;
  25:.\cli.c       **** extern int deltaTms;
  26:.\cli.c       **** extern uint8_t dac_offset;
  27:.\cli.c       **** 
  28:.\cli.c       **** // buffer
  29:.\cli.c       **** static char cliBuffer[48];
  30:.\cli.c       **** static uint32_t bufferIndex = 0;
  31:.\cli.c       **** 
  32:.\cli.c       **** static float _atof(const char *p);
  33:.\cli.c       **** static char *ftoa(float x, char *floatString);
  34:.\cli.c       **** 
  35:.\cli.c       **** 
  36:.\cli.c       **** typedef struct {
  37:.\cli.c       ****     const char *name;
  38:.\cli.c       ****     const char *param;
  39:.\cli.c       ****     void (*func)(char *cmdline);
  40:.\cli.c       **** } clicmd_t;
  41:.\cli.c       **** 
  42:.\cli.c       **** // should be sorted a..z for bsearch()
  43:.\cli.c       **** const clicmd_t cmdTable[] = {
  44:.\cli.c       ****     { "defaults", "reset to defaults and reboot", cliDefaults },
  45:.\cli.c       ****     { "exit", "", cliExit },
  46:.\cli.c       ****     { "help", "", cliHelp },
  47:.\cli.c       ****     { "save", "save variables", cliSave },
  48:.\cli.c       ****     { "set", "name=value or blank or * for list", cliSet },
  49:.\cli.c       ****     { "status", "show system status", cliStatus },
  50:.\cli.c       **** };
  51:.\cli.c       **** #define CMD_COUNT (sizeof(cmdTable) / sizeof(clicmd_t))
  52:.\cli.c       **** 
  53:.\cli.c       **** typedef enum {
  54:.\cli.c       ****     VAR_UINT8 = 0,
  55:.\cli.c       ****     VAR_INT8 = 1,
  56:.\cli.c       ****     VAR_UINT16 = 2,
  57:.\cli.c       ****     VAR_INT16 = 3,
  58:.\cli.c       ****     VAR_UINT32 = 4,
  59:.\cli.c       ****     VAR_FLOAT = 5,
  60:.\cli.c       ****     VAR_INT1DECIMALS = 11,
  61:.\cli.c       ****     VAR_INT2DECIMALS = 12,
  62:.\cli.c       ****     VAR_INT3DECIMALS = 13,
  63:.\cli.c       ****     VAR_INT4DECIMALS = 14,
  64:.\cli.c       **** } vartype_e;
  65:.\cli.c       **** 
  66:.\cli.c       **** typedef union {
  67:.\cli.c       ****     float fInput;
  68:.\cli.c       ****     int   iInput;
  69:.\cli.c       **** } inputValue_u;
  70:.\cli.c       **** 
  71:.\cli.c       **** typedef struct {
  72:.\cli.c       ****     uint8_t type;
  73:.\cli.c       ****     inputValue_u value;
  74:.\cli.c       **** } inputValue_t;
ARM GAS  C:\Users\csap2972\AppData\Local\Temp\cclUBZwy.s 			page 6


  75:.\cli.c       **** 
  76:.\cli.c       **** 
  77:.\cli.c       **** typedef struct {
  78:.\cli.c       ****     const char *name;
  79:.\cli.c       ****     const uint8_t type; // vartype_e
  80:.\cli.c       ****     void *ptr;
  81:.\cli.c       ****     const int32_t min;
  82:.\cli.c       ****     const int32_t max;
  83:.\cli.c       **** } clivalue_t;
  84:.\cli.c       **** 
  85:.\cli.c       **** 
  86:.\cli.c       **** const clivalue_t valueTable[] = { // { "name", VAR_TYPE, &varpointer, min, max } neue variablen zur
  87:.\cli.c       ****     { "P-term", VAR_INT1DECIMALS, &pid1.P, 0, 100},
  88:.\cli.c       **** 	{ "I-term", VAR_INT2DECIMALS, &pid1.I, 0, 100},
  89:.\cli.c       **** 	{ "D-term", VAR_INT2DECIMALS, &pid1.D, 0, 100},
  90:.\cli.c       **** 	{ "setpoint", VAR_INT2DECIMALS, &setpoint, 0, 1000},
  91:.\cli.c       ****     { "Regelzeit", VAR_INT3DECIMALS, &deltaTms, 0, 10},
  92:.\cli.c       ****     { "windup", VAR_UINT32, &pid1.windup, 0, 10000000},
  93:.\cli.c       ****     { "debug_output", VAR_UINT8, &debug, 0, 1},
  94:.\cli.c       ****     { "dac_offset", VAR_UINT8, &dac_offset, 0, 255},
  95:.\cli.c       **** };
  96:.\cli.c       **** 
  97:.\cli.c       **** #define VALUE_COUNT (sizeof(valueTable) / sizeof(clivalue_t))
  98:.\cli.c       **** 
  99:.\cli.c       **** typedef union {
 100:.\cli.c       ****     int32_t int_value;
 101:.\cli.c       ****     float float_value;
 102:.\cli.c       **** } int_float_value_t;
 103:.\cli.c       **** 
 104:.\cli.c       **** static void cliSetVar(const clivalue_t *var, const int_float_value_t value);
 105:.\cli.c       **** static void cliPrintVar(const clivalue_t *var, uint32_t full);
 106:.\cli.c       **** static void cliPrint(const char *str);
 107:.\cli.c       **** static void cliWrite(uint8_t ch);
 108:.\cli.c       **** 
 109:.\cli.c       **** #ifndef HAVE_ITOA_FUNCTION
 110:.\cli.c       **** 
 111:.\cli.c       **** /*
 112:.\cli.c       **** ** The following two functions together make up an itoa()
 113:.\cli.c       **** ** implementation. Function i2a() is a 'private' function
 114:.\cli.c       **** ** called by the public itoa() function.
 115:.\cli.c       **** **
 116:.\cli.c       **** ** itoa() takes three arguments:
 117:.\cli.c       **** **        1) the integer to be converted,
 118:.\cli.c       **** **        2) a pointer to a character conversion buffer,
 119:.\cli.c       **** **        3) the radix for the conversion
 120:.\cli.c       **** **           which can range between 2 and 36 inclusive
 121:.\cli.c       **** **           range errors on the radix default it to base10
 122:.\cli.c       **** ** Code from http://groups.google.com/group/comp.lang.c/msg/66552ef8b04fe1ab?pli=1
 123:.\cli.c       **** */
 124:.\cli.c       **** 
 125:.\cli.c       **** static char *i2a(unsigned i, char *a, unsigned r)
 126:.\cli.c       **** {
 170              		.loc 1 126 0
 171              		.cfi_startproc
 172              		@ args = 0, pretend = 0, frame = 16
 173              		@ frame_needed = 1, uses_anonymous_args = 0
 174 0000 80B5     		push	{r7, lr}
ARM GAS  C:\Users\csap2972\AppData\Local\Temp\cclUBZwy.s 			page 7


 175              	.LCFI0:
 176              		.cfi_def_cfa_offset 8
 177              		.cfi_offset 7, -8
 178              		.cfi_offset 14, -4
 179 0002 84B0     		sub	sp, sp, #16
 180              	.LCFI1:
 181              		.cfi_def_cfa_offset 24
 182 0004 00AF     		add	r7, sp, #0
 183              	.LCFI2:
 184              		.cfi_def_cfa_register 7
 185 0006 F860     		str	r0, [r7, #12]
 186 0008 B960     		str	r1, [r7, #8]
 187 000a 7A60     		str	r2, [r7, #4]
 127:.\cli.c       ****     if (i / r > 0)
 188              		.loc 1 127 0
 189 000c FA68     		ldr	r2, [r7, #12]
 190 000e 7B68     		ldr	r3, [r7, #4]
 191 0010 B2FBF3F3 		udiv	r3, r2, r3
 192 0014 002B     		cmp	r3, #0
 193 0016 09D0     		beq	.L2
 128:.\cli.c       ****         a = i2a(i / r, a, r);
 194              		.loc 1 128 0
 195 0018 FA68     		ldr	r2, [r7, #12]
 196 001a 7B68     		ldr	r3, [r7, #4]
 197 001c B2FBF3F3 		udiv	r3, r2, r3
 198 0020 1846     		mov	r0, r3
 199 0022 B968     		ldr	r1, [r7, #8]
 200 0024 7A68     		ldr	r2, [r7, #4]
 201 0026 FFF7EBFF 		bl	i2a
 202 002a B860     		str	r0, [r7, #8]
 203              	.L2:
 129:.\cli.c       ****     *a = "0123456789ABCDEFGHIJKLMNOPQRSTUVWXYZ"[i % r];
 204              		.loc 1 129 0
 205 002c FB68     		ldr	r3, [r7, #12]
 206 002e 7A68     		ldr	r2, [r7, #4]
 207 0030 B3FBF2F2 		udiv	r2, r3, r2
 208 0034 7968     		ldr	r1, [r7, #4]
 209 0036 01FB02F2 		mul	r2, r1, r2
 210 003a 9A1A     		subs	r2, r3, r2
 211 003c 40F20003 		movw	r3, #:lower16:.LC19
 212 0040 C0F20003 		movt	r3, #:upper16:.LC19
 213 0044 9A5C     		ldrb	r2, [r3, r2]	@ zero_extendqisi2
 214 0046 BB68     		ldr	r3, [r7, #8]
 215 0048 1A70     		strb	r2, [r3, #0]
 130:.\cli.c       ****     return a + 1;
 216              		.loc 1 130 0
 217 004a BB68     		ldr	r3, [r7, #8]
 218 004c 03F10103 		add	r3, r3, #1
 131:.\cli.c       **** }
 219              		.loc 1 131 0
 220 0050 1846     		mov	r0, r3
 221 0052 07F11007 		add	r7, r7, #16
 222 0056 BD46     		mov	sp, r7
 223 0058 80BD     		pop	{r7, pc}
 224              		.cfi_endproc
 225              	.LFE56:
 226              		.size	i2a, .-i2a
ARM GAS  C:\Users\csap2972\AppData\Local\Temp\cclUBZwy.s 			page 8


 227 005a 00BF     		.section	.text.itoa,"ax",%progbits
 228              		.align	2
 229              		.global	itoa
 230              		.thumb
 231              		.thumb_func
 232              		.type	itoa, %function
 233              	itoa:
 234              	.LFB57:
 132:.\cli.c       **** 
 133:.\cli.c       **** char *itoa(int i, char *a, int r)
 134:.\cli.c       **** {
 235              		.loc 1 134 0
 236              		.cfi_startproc
 237              		@ args = 0, pretend = 0, frame = 16
 238              		@ frame_needed = 1, uses_anonymous_args = 0
 239 0000 80B5     		push	{r7, lr}
 240              	.LCFI3:
 241              		.cfi_def_cfa_offset 8
 242              		.cfi_offset 7, -8
 243              		.cfi_offset 14, -4
 244 0002 84B0     		sub	sp, sp, #16
 245              	.LCFI4:
 246              		.cfi_def_cfa_offset 24
 247 0004 00AF     		add	r7, sp, #0
 248              	.LCFI5:
 249              		.cfi_def_cfa_register 7
 250 0006 F860     		str	r0, [r7, #12]
 251 0008 B960     		str	r1, [r7, #8]
 252 000a 7A60     		str	r2, [r7, #4]
 135:.\cli.c       ****     if ((r < 2) || (r > 36))
 253              		.loc 1 135 0
 254 000c 7B68     		ldr	r3, [r7, #4]
 255 000e 012B     		cmp	r3, #1
 256 0010 02DD     		ble	.L5
 257              		.loc 1 135 0 is_stmt 0 discriminator 1
 258 0012 7B68     		ldr	r3, [r7, #4]
 259 0014 242B     		cmp	r3, #36
 260 0016 02DD     		ble	.L6
 261              	.L5:
 136:.\cli.c       ****         r = 10;
 262              		.loc 1 136 0 is_stmt 1
 263 0018 4FF00A03 		mov	r3, #10
 264 001c 7B60     		str	r3, [r7, #4]
 265              	.L6:
 137:.\cli.c       ****     if (i < 0) {
 266              		.loc 1 137 0
 267 001e FB68     		ldr	r3, [r7, #12]
 268 0020 002B     		cmp	r3, #0
 269 0022 14DA     		bge	.L7
 138:.\cli.c       ****         *a = '-';
 270              		.loc 1 138 0
 271 0024 BB68     		ldr	r3, [r7, #8]
 272 0026 4FF02D02 		mov	r2, #45
 273 002a 1A70     		strb	r2, [r3, #0]
 139:.\cli.c       ****         *i2a(-(unsigned)i, a + 1, r) = 0;
 274              		.loc 1 139 0
 275 002c FB68     		ldr	r3, [r7, #12]
ARM GAS  C:\Users\csap2972\AppData\Local\Temp\cclUBZwy.s 			page 9


 276 002e C3F10001 		rsb	r1, r3, #0
 277 0032 BB68     		ldr	r3, [r7, #8]
 278 0034 03F10102 		add	r2, r3, #1
 279 0038 7B68     		ldr	r3, [r7, #4]
 280 003a 0846     		mov	r0, r1
 281 003c 1146     		mov	r1, r2
 282 003e 1A46     		mov	r2, r3
 283 0040 FFF7FEFF 		bl	i2a
 284 0044 0346     		mov	r3, r0
 285 0046 4FF00002 		mov	r2, #0
 286 004a 1A70     		strb	r2, [r3, #0]
 287 004c 0AE0     		b	.L8
 288              	.L7:
 140:.\cli.c       ****     } else
 141:.\cli.c       ****         *i2a(i, a, r) = 0;
 289              		.loc 1 141 0
 290 004e FA68     		ldr	r2, [r7, #12]
 291 0050 7B68     		ldr	r3, [r7, #4]
 292 0052 1046     		mov	r0, r2
 293 0054 B968     		ldr	r1, [r7, #8]
 294 0056 1A46     		mov	r2, r3
 295 0058 FFF7FEFF 		bl	i2a
 296 005c 0346     		mov	r3, r0
 297 005e 4FF00002 		mov	r2, #0
 298 0062 1A70     		strb	r2, [r3, #0]
 299              	.L8:
 142:.\cli.c       ****     return a;
 300              		.loc 1 142 0
 301 0064 BB68     		ldr	r3, [r7, #8]
 143:.\cli.c       **** }
 302              		.loc 1 143 0
 303 0066 1846     		mov	r0, r3
 304 0068 07F11007 		add	r7, r7, #16
 305 006c BD46     		mov	sp, r7
 306 006e 80BD     		pop	{r7, pc}
 307              		.cfi_endproc
 308              	.LFE57:
 309              		.size	itoa, .-itoa
 310              		.global	__aeabi_fmul
 311              		.global	__aeabi_i2f
 312              		.global	__aeabi_fadd
 313              		.global	__aeabi_fdiv
 314              		.section	.text._atof,"ax",%progbits
 315              		.align	2
 316              		.thumb
 317              		.thumb_func
 318              		.type	_atof, %function
 319              	_atof:
 320              	.LFB58:
 144:.\cli.c       **** 
 145:.\cli.c       **** #endif
 146:.\cli.c       **** 
 147:.\cli.c       **** ////////////////////////////////////////////////////////////////////////////////
 148:.\cli.c       **** // String to Float Conversion
 149:.\cli.c       **** ///////////////////////////////////////////////////////////////////////////////
 150:.\cli.c       **** // Simple and fast atof (ascii to float) function.
 151:.\cli.c       **** //
ARM GAS  C:\Users\csap2972\AppData\Local\Temp\cclUBZwy.s 			page 10


 152:.\cli.c       **** // - Executes about 5x faster than standard MSCRT library atof().
 153:.\cli.c       **** // - An attractive alternative if the number of calls is in the millions.
 154:.\cli.c       **** // - Assumes input is a proper integer, fraction, or scientific format.
 155:.\cli.c       **** // - Matches library atof() to 15 digits (except at extreme exponents).
 156:.\cli.c       **** // - Follows atof() precedent of essentially no error checking.
 157:.\cli.c       **** //
 158:.\cli.c       **** // 09-May-2009 Tom Van Baak (tvb) www.LeapSecond.com
 159:.\cli.c       **** //
 160:.\cli.c       **** #define white_space(c) ((c) == ' ' || (c) == '\t')
 161:.\cli.c       **** #define valid_digit(c) ((c) >= '0' && (c) <= '9')
 162:.\cli.c       **** static float _atof(const char *p)
 163:.\cli.c       **** {
 321              		.loc 1 163 0
 322              		.cfi_startproc
 323              		@ args = 0, pretend = 0, frame = 32
 324              		@ frame_needed = 1, uses_anonymous_args = 0
 325 0000 90B5     		push	{r4, r7, lr}
 326              	.LCFI6:
 327              		.cfi_def_cfa_offset 12
 328              		.cfi_offset 4, -12
 329              		.cfi_offset 7, -8
 330              		.cfi_offset 14, -4
 331 0002 89B0     		sub	sp, sp, #36
 332              	.LCFI7:
 333              		.cfi_def_cfa_offset 48
 334 0004 00AF     		add	r7, sp, #0
 335              	.LCFI8:
 336              		.cfi_def_cfa_register 7
 337 0006 7860     		str	r0, [r7, #4]
 164:.\cli.c       ****     int frac = 0;
 338              		.loc 1 164 0
 339 0008 4FF00003 		mov	r3, #0
 340 000c FB61     		str	r3, [r7, #28]
 165:.\cli.c       ****     float sign, value, scale;
 166:.\cli.c       **** 
 167:.\cli.c       ****     // Skip leading white space, if any.
 168:.\cli.c       ****     while (white_space(*p) ) {
 341              		.loc 1 168 0
 342 000e 03E0     		b	.L11
 343              	.L12:
 169:.\cli.c       ****         p += 1;
 344              		.loc 1 169 0
 345 0010 7B68     		ldr	r3, [r7, #4]
 346 0012 03F10103 		add	r3, r3, #1
 347 0016 7B60     		str	r3, [r7, #4]
 348              	.L11:
 168:.\cli.c       ****     while (white_space(*p) ) {
 349              		.loc 1 168 0 discriminator 1
 350 0018 7B68     		ldr	r3, [r7, #4]
 351 001a 1B78     		ldrb	r3, [r3, #0]	@ zero_extendqisi2
 352 001c 202B     		cmp	r3, #32
 353 001e F7D0     		beq	.L12
 168:.\cli.c       ****     while (white_space(*p) ) {
 354              		.loc 1 168 0 is_stmt 0 discriminator 2
 355 0020 7B68     		ldr	r3, [r7, #4]
 356 0022 1B78     		ldrb	r3, [r3, #0]	@ zero_extendqisi2
 357 0024 092B     		cmp	r3, #9
ARM GAS  C:\Users\csap2972\AppData\Local\Temp\cclUBZwy.s 			page 11


 358 0026 F3D0     		beq	.L12
 170:.\cli.c       ****     }
 171:.\cli.c       **** 
 172:.\cli.c       ****     // Get sign, if any.
 173:.\cli.c       ****     sign = 1.0f;
 359              		.loc 1 173 0 is_stmt 1
 360 0028 4FF07E53 		mov	r3, #1065353216
 361 002c BB61     		str	r3, [r7, #24]	@ float
 174:.\cli.c       ****     if (*p == '-') {
 362              		.loc 1 174 0
 363 002e 7B68     		ldr	r3, [r7, #4]
 364 0030 1B78     		ldrb	r3, [r3, #0]	@ zero_extendqisi2
 365 0032 2D2B     		cmp	r3, #45
 366 0034 09D1     		bne	.L13
 175:.\cli.c       ****         sign = -1.0f;
 367              		.loc 1 175 0
 368 0036 4FF00003 		mov	r3, #0
 369 003a CBF68073 		movt	r3, 49024
 370 003e BB61     		str	r3, [r7, #24]	@ float
 176:.\cli.c       ****         p += 1;
 371              		.loc 1 176 0
 372 0040 7B68     		ldr	r3, [r7, #4]
 373 0042 03F10103 		add	r3, r3, #1
 374 0046 7B60     		str	r3, [r7, #4]
 375 0048 07E0     		b	.L14
 376              	.L13:
 177:.\cli.c       **** 
 178:.\cli.c       ****     } else if (*p == '+') {
 377              		.loc 1 178 0
 378 004a 7B68     		ldr	r3, [r7, #4]
 379 004c 1B78     		ldrb	r3, [r3, #0]	@ zero_extendqisi2
 380 004e 2B2B     		cmp	r3, #43
 381 0050 03D1     		bne	.L14
 179:.\cli.c       ****         p += 1;
 382              		.loc 1 179 0
 383 0052 7B68     		ldr	r3, [r7, #4]
 384 0054 03F10103 		add	r3, r3, #1
 385 0058 7B60     		str	r3, [r7, #4]
 386              	.L14:
 180:.\cli.c       ****     }
 181:.\cli.c       **** 
 182:.\cli.c       ****     // Get digits before decimal point or exponent, if any.
 183:.\cli.c       ****     value = 0.0f;
 387              		.loc 1 183 0
 388 005a 4FF00003 		mov	r3, #0
 389 005e 7B61     		str	r3, [r7, #20]	@ float
 184:.\cli.c       ****     while (valid_digit(*p)) {
 390              		.loc 1 184 0
 391 0060 1AE0     		b	.L15
 392              	.L17:
 185:.\cli.c       ****         value = value * 10.0f + (*p - '0');
 393              		.loc 1 185 0
 394 0062 7869     		ldr	r0, [r7, #20]	@ float
 395 0064 4FF00001 		mov	r1, #0
 396 0068 C4F22011 		movt	r1, 16672
 397 006c FFF7FEFF 		bl	__aeabi_fmul
 398 0070 0346     		mov	r3, r0
ARM GAS  C:\Users\csap2972\AppData\Local\Temp\cclUBZwy.s 			page 12


 399 0072 1C46     		mov	r4, r3
 400 0074 7B68     		ldr	r3, [r7, #4]
 401 0076 1B78     		ldrb	r3, [r3, #0]	@ zero_extendqisi2
 402 0078 A3F13003 		sub	r3, r3, #48
 403 007c 1846     		mov	r0, r3
 404 007e FFF7FEFF 		bl	__aeabi_i2f
 405 0082 0346     		mov	r3, r0
 406 0084 2046     		mov	r0, r4
 407 0086 1946     		mov	r1, r3
 408 0088 FFF7FEFF 		bl	__aeabi_fadd
 409 008c 0346     		mov	r3, r0
 410 008e 7B61     		str	r3, [r7, #20]	@ float
 186:.\cli.c       ****         p += 1;
 411              		.loc 1 186 0
 412 0090 7B68     		ldr	r3, [r7, #4]
 413 0092 03F10103 		add	r3, r3, #1
 414 0096 7B60     		str	r3, [r7, #4]
 415              	.L15:
 184:.\cli.c       ****     while (valid_digit(*p)) {
 416              		.loc 1 184 0 discriminator 1
 417 0098 7B68     		ldr	r3, [r7, #4]
 418 009a 1B78     		ldrb	r3, [r3, #0]	@ zero_extendqisi2
 419 009c 2F2B     		cmp	r3, #47
 420 009e 03D9     		bls	.L16
 184:.\cli.c       ****     while (valid_digit(*p)) {
 421              		.loc 1 184 0 is_stmt 0 discriminator 2
 422 00a0 7B68     		ldr	r3, [r7, #4]
 423 00a2 1B78     		ldrb	r3, [r3, #0]	@ zero_extendqisi2
 424 00a4 392B     		cmp	r3, #57
 425 00a6 DCD9     		bls	.L17
 426              	.L16:
 187:.\cli.c       ****     }
 188:.\cli.c       **** 
 189:.\cli.c       ****     // Get digits after decimal point, if any.
 190:.\cli.c       ****     if (*p == '.') {
 427              		.loc 1 190 0 is_stmt 1
 428 00a8 7B68     		ldr	r3, [r7, #4]
 429 00aa 1B78     		ldrb	r3, [r3, #0]	@ zero_extendqisi2
 430 00ac 2E2B     		cmp	r3, #46
 431 00ae 31D1     		bne	.L18
 432              	.LBB2:
 191:.\cli.c       ****         float pow10 = 10.0f;
 433              		.loc 1 191 0
 434 00b0 4FF00003 		mov	r3, #0
 435 00b4 C4F22013 		movt	r3, 16672
 436 00b8 FB60     		str	r3, [r7, #12]	@ float
 192:.\cli.c       ****         p += 1;
 437              		.loc 1 192 0
 438 00ba 7B68     		ldr	r3, [r7, #4]
 439 00bc 03F10103 		add	r3, r3, #1
 440 00c0 7B60     		str	r3, [r7, #4]
 193:.\cli.c       **** 
 194:.\cli.c       ****         while (valid_digit(*p)) {
 441              		.loc 1 194 0
 442 00c2 1FE0     		b	.L19
 443              	.L20:
 195:.\cli.c       ****             value += (*p - '0') / pow10;
ARM GAS  C:\Users\csap2972\AppData\Local\Temp\cclUBZwy.s 			page 13


 444              		.loc 1 195 0
 445 00c4 7B68     		ldr	r3, [r7, #4]
 446 00c6 1B78     		ldrb	r3, [r3, #0]	@ zero_extendqisi2
 447 00c8 A3F13003 		sub	r3, r3, #48
 448 00cc 1846     		mov	r0, r3
 449 00ce FFF7FEFF 		bl	__aeabi_i2f
 450 00d2 0346     		mov	r3, r0
 451 00d4 1846     		mov	r0, r3
 452 00d6 F968     		ldr	r1, [r7, #12]	@ float
 453 00d8 FFF7FEFF 		bl	__aeabi_fdiv
 454 00dc 0346     		mov	r3, r0
 455 00de 7869     		ldr	r0, [r7, #20]	@ float
 456 00e0 1946     		mov	r1, r3
 457 00e2 FFF7FEFF 		bl	__aeabi_fadd
 458 00e6 0346     		mov	r3, r0
 459 00e8 7B61     		str	r3, [r7, #20]	@ float
 196:.\cli.c       ****             pow10 *= 10.0f;
 460              		.loc 1 196 0
 461 00ea F868     		ldr	r0, [r7, #12]	@ float
 462 00ec 4FF00001 		mov	r1, #0
 463 00f0 C4F22011 		movt	r1, 16672
 464 00f4 FFF7FEFF 		bl	__aeabi_fmul
 465 00f8 0346     		mov	r3, r0
 466 00fa FB60     		str	r3, [r7, #12]	@ float
 197:.\cli.c       ****             p += 1;
 467              		.loc 1 197 0
 468 00fc 7B68     		ldr	r3, [r7, #4]
 469 00fe 03F10103 		add	r3, r3, #1
 470 0102 7B60     		str	r3, [r7, #4]
 471              	.L19:
 194:.\cli.c       ****         while (valid_digit(*p)) {
 472              		.loc 1 194 0 discriminator 1
 473 0104 7B68     		ldr	r3, [r7, #4]
 474 0106 1B78     		ldrb	r3, [r3, #0]	@ zero_extendqisi2
 475 0108 2F2B     		cmp	r3, #47
 476 010a 03D9     		bls	.L18
 194:.\cli.c       ****         while (valid_digit(*p)) {
 477              		.loc 1 194 0 is_stmt 0 discriminator 2
 478 010c 7B68     		ldr	r3, [r7, #4]
 479 010e 1B78     		ldrb	r3, [r3, #0]	@ zero_extendqisi2
 480 0110 392B     		cmp	r3, #57
 481 0112 D7D9     		bls	.L20
 482              	.L18:
 483              	.LBE2:
 198:.\cli.c       ****         }
 199:.\cli.c       ****     }
 200:.\cli.c       **** 
 201:.\cli.c       ****     // Handle exponent, if any.
 202:.\cli.c       ****     scale = 1.0f;
 484              		.loc 1 202 0 is_stmt 1
 485 0114 4FF07E53 		mov	r3, #1065353216
 486 0118 3B61     		str	r3, [r7, #16]	@ float
 203:.\cli.c       ****     if ((*p == 'e') || (*p == 'E')) {
 487              		.loc 1 203 0
 488 011a 7B68     		ldr	r3, [r7, #4]
 489 011c 1B78     		ldrb	r3, [r3, #0]	@ zero_extendqisi2
 490 011e 652B     		cmp	r3, #101
ARM GAS  C:\Users\csap2972\AppData\Local\Temp\cclUBZwy.s 			page 14


 491 0120 03D0     		beq	.L21
 492              		.loc 1 203 0 is_stmt 0 discriminator 1
 493 0122 7B68     		ldr	r3, [r7, #4]
 494 0124 1B78     		ldrb	r3, [r3, #0]	@ zero_extendqisi2
 495 0126 452B     		cmp	r3, #69
 496 0128 61D1     		bne	.L22
 497              	.L21:
 498              	.LBB3:
 204:.\cli.c       ****         unsigned int expon;
 205:.\cli.c       ****         p += 1;
 499              		.loc 1 205 0 is_stmt 1
 500 012a 7B68     		ldr	r3, [r7, #4]
 501 012c 03F10103 		add	r3, r3, #1
 502 0130 7B60     		str	r3, [r7, #4]
 206:.\cli.c       **** 
 207:.\cli.c       ****         // Get sign of exponent, if any.
 208:.\cli.c       ****         frac = 0;
 503              		.loc 1 208 0
 504 0132 4FF00003 		mov	r3, #0
 505 0136 FB61     		str	r3, [r7, #28]
 209:.\cli.c       ****         if (*p == '-') {
 506              		.loc 1 209 0
 507 0138 7B68     		ldr	r3, [r7, #4]
 508 013a 1B78     		ldrb	r3, [r3, #0]	@ zero_extendqisi2
 509 013c 2D2B     		cmp	r3, #45
 510 013e 07D1     		bne	.L23
 210:.\cli.c       ****             frac = 1;
 511              		.loc 1 210 0
 512 0140 4FF00103 		mov	r3, #1
 513 0144 FB61     		str	r3, [r7, #28]
 211:.\cli.c       ****             p += 1;
 514              		.loc 1 211 0
 515 0146 7B68     		ldr	r3, [r7, #4]
 516 0148 03F10103 		add	r3, r3, #1
 517 014c 7B60     		str	r3, [r7, #4]
 518 014e 07E0     		b	.L24
 519              	.L23:
 212:.\cli.c       **** 
 213:.\cli.c       ****         } else if (*p == '+') {
 520              		.loc 1 213 0
 521 0150 7B68     		ldr	r3, [r7, #4]
 522 0152 1B78     		ldrb	r3, [r3, #0]	@ zero_extendqisi2
 523 0154 2B2B     		cmp	r3, #43
 524 0156 03D1     		bne	.L24
 214:.\cli.c       ****             p += 1;
 525              		.loc 1 214 0
 526 0158 7B68     		ldr	r3, [r7, #4]
 527 015a 03F10103 		add	r3, r3, #1
 528 015e 7B60     		str	r3, [r7, #4]
 529              	.L24:
 215:.\cli.c       ****         }
 216:.\cli.c       **** 
 217:.\cli.c       ****         // Get digits of exponent, if any.
 218:.\cli.c       ****         expon = 0;
 530              		.loc 1 218 0
 531 0160 4FF00003 		mov	r3, #0
 532 0164 BB60     		str	r3, [r7, #8]
ARM GAS  C:\Users\csap2972\AppData\Local\Temp\cclUBZwy.s 			page 15


 219:.\cli.c       ****         while (valid_digit(*p)) {
 533              		.loc 1 219 0
 534 0166 11E0     		b	.L25
 535              	.L27:
 220:.\cli.c       ****             expon = expon * 10 + (*p - '0');
 536              		.loc 1 220 0
 537 0168 BA68     		ldr	r2, [r7, #8]
 538 016a 1346     		mov	r3, r2
 539 016c 4FEA8303 		lsl	r3, r3, #2
 540 0170 9B18     		adds	r3, r3, r2
 541 0172 4FEA4303 		lsl	r3, r3, #1
 542 0176 1A46     		mov	r2, r3
 543 0178 7B68     		ldr	r3, [r7, #4]
 544 017a 1B78     		ldrb	r3, [r3, #0]	@ zero_extendqisi2
 545 017c D318     		adds	r3, r2, r3
 546 017e A3F13003 		sub	r3, r3, #48
 547 0182 BB60     		str	r3, [r7, #8]
 221:.\cli.c       ****             p += 1;
 548              		.loc 1 221 0
 549 0184 7B68     		ldr	r3, [r7, #4]
 550 0186 03F10103 		add	r3, r3, #1
 551 018a 7B60     		str	r3, [r7, #4]
 552              	.L25:
 219:.\cli.c       ****         while (valid_digit(*p)) {
 553              		.loc 1 219 0 discriminator 1
 554 018c 7B68     		ldr	r3, [r7, #4]
 555 018e 1B78     		ldrb	r3, [r3, #0]	@ zero_extendqisi2
 556 0190 2F2B     		cmp	r3, #47
 557 0192 03D9     		bls	.L26
 219:.\cli.c       ****         while (valid_digit(*p)) {
 558              		.loc 1 219 0 is_stmt 0 discriminator 2
 559 0194 7B68     		ldr	r3, [r7, #4]
 560 0196 1B78     		ldrb	r3, [r3, #0]	@ zero_extendqisi2
 561 0198 392B     		cmp	r3, #57
 562 019a E5D9     		bls	.L27
 563              	.L26:
 222:.\cli.c       ****         }
 223:.\cli.c       ****         if (expon > 308) 
 564              		.loc 1 223 0 is_stmt 1
 565 019c BB68     		ldr	r3, [r7, #8]
 566 019e B3F59A7F 		cmp	r3, #308
 567 01a2 10D9     		bls	.L29
 224:.\cli.c       ****             expon = 308;
 568              		.loc 1 224 0
 569 01a4 4FF49A73 		mov	r3, #308
 570 01a8 BB60     		str	r3, [r7, #8]
 225:.\cli.c       **** 
 226:.\cli.c       ****         // Calculate scaling factor.
 227:.\cli.c       ****         // while (expon >= 50) { scale *= 1E50f; expon -= 50; }
 228:.\cli.c       ****         while (expon >=  8) { scale *= 1E8f;  expon -=  8; }
 571              		.loc 1 228 0
 572 01aa 0CE0     		b	.L29
 573              	.L30:
 574              		.loc 1 228 0 is_stmt 0 discriminator 2
 575 01ac 3869     		ldr	r0, [r7, #16]	@ float
 576 01ae 4BF62041 		movw	r1, #48160
 577 01b2 C4F6BE41 		movt	r1, 19646
ARM GAS  C:\Users\csap2972\AppData\Local\Temp\cclUBZwy.s 			page 16


 578 01b6 FFF7FEFF 		bl	__aeabi_fmul
 579 01ba 0346     		mov	r3, r0
 580 01bc 3B61     		str	r3, [r7, #16]	@ float
 581 01be BB68     		ldr	r3, [r7, #8]
 582 01c0 A3F10803 		sub	r3, r3, #8
 583 01c4 BB60     		str	r3, [r7, #8]
 584              	.L29:
 585              		.loc 1 228 0 discriminator 1
 586 01c6 BB68     		ldr	r3, [r7, #8]
 587 01c8 072B     		cmp	r3, #7
 588 01ca EFD8     		bhi	.L30
 229:.\cli.c       ****         while (expon >   0) { scale *= 10.0f; expon -=  1; }
 589              		.loc 1 229 0 is_stmt 1
 590 01cc 0CE0     		b	.L31
 591              	.L32:
 592              		.loc 1 229 0 is_stmt 0 discriminator 2
 593 01ce 3869     		ldr	r0, [r7, #16]	@ float
 594 01d0 4FF00001 		mov	r1, #0
 595 01d4 C4F22011 		movt	r1, 16672
 596 01d8 FFF7FEFF 		bl	__aeabi_fmul
 597 01dc 0346     		mov	r3, r0
 598 01de 3B61     		str	r3, [r7, #16]	@ float
 599 01e0 BB68     		ldr	r3, [r7, #8]
 600 01e2 03F1FF33 		add	r3, r3, #-1
 601 01e6 BB60     		str	r3, [r7, #8]
 602              	.L31:
 603              		.loc 1 229 0 discriminator 1
 604 01e8 BB68     		ldr	r3, [r7, #8]
 605 01ea 002B     		cmp	r3, #0
 606 01ec EFD1     		bne	.L32
 607              	.L22:
 608              	.LBE3:
 230:.\cli.c       ****     }
 231:.\cli.c       **** 
 232:.\cli.c       ****     // Return signed and scaled floating point result.
 233:.\cli.c       ****     return sign * (frac ? (value / scale) : (value * scale));
 609              		.loc 1 233 0 is_stmt 1
 610 01ee FB69     		ldr	r3, [r7, #28]
 611 01f0 002B     		cmp	r3, #0
 612 01f2 05D0     		beq	.L33
 613              		.loc 1 233 0 is_stmt 0 discriminator 1
 614 01f4 7869     		ldr	r0, [r7, #20]	@ float
 615 01f6 3969     		ldr	r1, [r7, #16]	@ float
 616 01f8 FFF7FEFF 		bl	__aeabi_fdiv
 617 01fc 0346     		mov	r3, r0
 618 01fe 04E0     		b	.L34
 619              	.L33:
 620              		.loc 1 233 0 discriminator 2
 621 0200 7869     		ldr	r0, [r7, #20]	@ float
 622 0202 3969     		ldr	r1, [r7, #16]	@ float
 623 0204 FFF7FEFF 		bl	__aeabi_fmul
 624 0208 0346     		mov	r3, r0
 625              	.L34:
 626              		.loc 1 233 0 discriminator 3
 627 020a 1846     		mov	r0, r3
 628 020c B969     		ldr	r1, [r7, #24]	@ float
 629 020e FFF7FEFF 		bl	__aeabi_fmul
ARM GAS  C:\Users\csap2972\AppData\Local\Temp\cclUBZwy.s 			page 17


 630 0212 0346     		mov	r3, r0
 234:.\cli.c       **** }
 631              		.loc 1 234 0 is_stmt 1 discriminator 3
 632 0214 1846     		mov	r0, r3
 633 0216 07F12407 		add	r7, r7, #36
 634 021a BD46     		mov	sp, r7
 635 021c 90BD     		pop	{r4, r7, pc}
 636              		.cfi_endproc
 637              	.LFE58:
 638              		.size	_atof, .-_atof
 639 021e 00BF     		.section	.rodata
 640 01fd 000000   		.align	2
 641              	.LC20:
 642 0200 2E00     		.ascii	".\000"
 643              		.global	__aeabi_fcmpgt
 644              		.global	__aeabi_fsub
 645              		.global	__aeabi_f2iz
 646              		.section	.text.ftoa,"ax",%progbits
 647              		.align	2
 648              		.thumb
 649              		.thumb_func
 650              		.type	ftoa, %function
 651              	ftoa:
 652              	.LFB59:
 235:.\cli.c       **** 
 236:.\cli.c       **** ///////////////////////////////////////////////////////////////////////////////
 237:.\cli.c       **** // FTOA
 238:.\cli.c       **** ///////////////////////////////////////////////////////////////////////////////
 239:.\cli.c       **** static char *ftoa(float x, char *floatString)
 240:.\cli.c       **** {
 653              		.loc 1 240 0
 654              		.cfi_startproc
 655              		@ args = 0, pretend = 0, frame = 48
 656              		@ frame_needed = 1, uses_anonymous_args = 0
 657 0000 80B5     		push	{r7, lr}
 658              	.LCFI9:
 659              		.cfi_def_cfa_offset 8
 660              		.cfi_offset 7, -8
 661              		.cfi_offset 14, -4
 662 0002 8CB0     		sub	sp, sp, #48
 663              	.LCFI10:
 664              		.cfi_def_cfa_offset 56
 665 0004 00AF     		add	r7, sp, #0
 666              	.LCFI11:
 667              		.cfi_def_cfa_register 7
 668 0006 7860     		str	r0, [r7, #4]	@ float
 669 0008 3960     		str	r1, [r7, #0]
 241:.\cli.c       ****     int32_t value;
 242:.\cli.c       ****     char intString1[12];
 243:.\cli.c       ****     char intString2[12] = { 0, };
 670              		.loc 1 243 0
 671 000a 07F10C03 		add	r3, r7, #12
 672 000e 4FF00002 		mov	r2, #0
 673 0012 1A60     		str	r2, [r3, #0]
 674 0014 03F10403 		add	r3, r3, #4
 675 0018 4FF00002 		mov	r2, #0
 676 001c 1A60     		str	r2, [r3, #0]
ARM GAS  C:\Users\csap2972\AppData\Local\Temp\cclUBZwy.s 			page 18


 677 001e 03F10403 		add	r3, r3, #4
 678 0022 4FF00002 		mov	r2, #0
 679 0026 1A60     		str	r2, [r3, #0]
 680 0028 03F10403 		add	r3, r3, #4
 244:.\cli.c       ****     char *decimalPoint = ".";
 681              		.loc 1 244 0
 682 002c 40F20003 		movw	r3, #:lower16:.LC20
 683 0030 C0F20003 		movt	r3, #:upper16:.LC20
 684 0034 FB62     		str	r3, [r7, #44]
 245:.\cli.c       ****     uint8_t dpLocation;
 246:.\cli.c       **** 
 247:.\cli.c       ****     if (x > 0)                  // Rounding for x.xxx display format
 685              		.loc 1 247 0
 686 0036 7868     		ldr	r0, [r7, #4]	@ float
 687 0038 4FF00001 		mov	r1, #0
 688 003c FFF7FEFF 		bl	__aeabi_fcmpgt
 689 0040 0346     		mov	r3, r0
 690 0042 002B     		cmp	r3, #0
 691 0044 09D0     		beq	.L48
 692              	.L47:
 248:.\cli.c       ****         x += 0.0005f;
 693              		.loc 1 248 0
 694 0046 7868     		ldr	r0, [r7, #4]	@ float
 695 0048 41F26F21 		movw	r1, #4719
 696 004c C3F60321 		movt	r1, 14851
 697 0050 FFF7FEFF 		bl	__aeabi_fadd
 698 0054 0346     		mov	r3, r0
 699 0056 7B60     		str	r3, [r7, #4]	@ float
 700 0058 08E0     		b	.L39
 701              	.L48:
 249:.\cli.c       ****     else
 250:.\cli.c       ****         x -= 0.0005f;
 702              		.loc 1 250 0
 703 005a 7868     		ldr	r0, [r7, #4]	@ float
 704 005c 41F26F21 		movw	r1, #4719
 705 0060 C3F60321 		movt	r1, 14851
 706 0064 FFF7FEFF 		bl	__aeabi_fsub
 707 0068 0346     		mov	r3, r0
 708 006a 7B60     		str	r3, [r7, #4]	@ float
 709              	.L39:
 251:.\cli.c       **** 
 252:.\cli.c       ****     value = (int32_t) (x * 1000.0f);    // Convert float * 1000 to an integer
 710              		.loc 1 252 0
 711 006c 7868     		ldr	r0, [r7, #4]	@ float
 712 006e 4FF00001 		mov	r1, #0
 713 0072 C4F27A41 		movt	r1, 17530
 714 0076 FFF7FEFF 		bl	__aeabi_fmul
 715 007a 0346     		mov	r3, r0
 716 007c 1846     		mov	r0, r3
 717 007e FFF7FEFF 		bl	__aeabi_f2iz
 718 0082 0346     		mov	r3, r0
 719 0084 BB62     		str	r3, [r7, #40]
 253:.\cli.c       **** 
 254:.\cli.c       ****     itoa(ABS(value), intString1, 10);   // Create string from abs of integer value
 720              		.loc 1 254 0
 721 0086 BB6A     		ldr	r3, [r7, #40]
 722 0088 83EAE372 		eor	r2, r3, r3, asr #31
ARM GAS  C:\Users\csap2972\AppData\Local\Temp\cclUBZwy.s 			page 19


 723 008c A2EBE372 		sub	r2, r2, r3, asr #31
 724 0090 07F11803 		add	r3, r7, #24
 725 0094 1046     		mov	r0, r2
 726 0096 1946     		mov	r1, r3
 727 0098 4FF00A02 		mov	r2, #10
 728 009c FFF7FEFF 		bl	itoa
 255:.\cli.c       **** 
 256:.\cli.c       ****     if (value >= 0)
 729              		.loc 1 256 0
 730 00a0 BB6A     		ldr	r3, [r7, #40]
 731 00a2 002B     		cmp	r3, #0
 732 00a4 03DB     		blt	.L40
 257:.\cli.c       ****         intString2[0] = ' ';    // Positive number, add a pad space
 733              		.loc 1 257 0
 734 00a6 4FF02003 		mov	r3, #32
 735 00aa 3B73     		strb	r3, [r7, #12]
 736 00ac 02E0     		b	.L41
 737              	.L40:
 258:.\cli.c       ****     else
 259:.\cli.c       ****         intString2[0] = '-';    // Negative number, add a negative sign
 738              		.loc 1 259 0
 739 00ae 4FF02D03 		mov	r3, #45
 740 00b2 3B73     		strb	r3, [r7, #12]
 741              	.L41:
 260:.\cli.c       **** 
 261:.\cli.c       ****     if (strlen(intString1) == 1) {
 742              		.loc 1 261 0
 743 00b4 07F11803 		add	r3, r7, #24
 744 00b8 1846     		mov	r0, r3
 745 00ba FFF7FEFF 		bl	strlen
 746 00be 0346     		mov	r3, r0
 747 00c0 012B     		cmp	r3, #1
 748 00c2 11D1     		bne	.L42
 262:.\cli.c       ****         intString2[1] = '0';
 749              		.loc 1 262 0
 750 00c4 4FF03003 		mov	r3, #48
 751 00c8 7B73     		strb	r3, [r7, #13]
 263:.\cli.c       ****         intString2[2] = '0';
 752              		.loc 1 263 0
 753 00ca 4FF03003 		mov	r3, #48
 754 00ce BB73     		strb	r3, [r7, #14]
 264:.\cli.c       ****         intString2[3] = '0';
 755              		.loc 1 264 0
 756 00d0 4FF03003 		mov	r3, #48
 757 00d4 FB73     		strb	r3, [r7, #15]
 265:.\cli.c       ****         strcat(intString2, intString1);
 758              		.loc 1 265 0
 759 00d6 07F10C02 		add	r2, r7, #12
 760 00da 07F11803 		add	r3, r7, #24
 761 00de 1046     		mov	r0, r2
 762 00e0 1946     		mov	r1, r3
 763 00e2 FFF7FEFF 		bl	strcat
 764 00e6 32E0     		b	.L43
 765              	.L42:
 266:.\cli.c       ****     } else if (strlen(intString1) == 2) {
 766              		.loc 1 266 0
 767 00e8 07F11803 		add	r3, r7, #24
ARM GAS  C:\Users\csap2972\AppData\Local\Temp\cclUBZwy.s 			page 20


 768 00ec 1846     		mov	r0, r3
 769 00ee FFF7FEFF 		bl	strlen
 770 00f2 0346     		mov	r3, r0
 771 00f4 022B     		cmp	r3, #2
 772 00f6 0ED1     		bne	.L44
 267:.\cli.c       ****         intString2[1] = '0';
 773              		.loc 1 267 0
 774 00f8 4FF03003 		mov	r3, #48
 775 00fc 7B73     		strb	r3, [r7, #13]
 268:.\cli.c       ****         intString2[2] = '0';
 776              		.loc 1 268 0
 777 00fe 4FF03003 		mov	r3, #48
 778 0102 BB73     		strb	r3, [r7, #14]
 269:.\cli.c       ****         strcat(intString2, intString1);
 779              		.loc 1 269 0
 780 0104 07F10C02 		add	r2, r7, #12
 781 0108 07F11803 		add	r3, r7, #24
 782 010c 1046     		mov	r0, r2
 783 010e 1946     		mov	r1, r3
 784 0110 FFF7FEFF 		bl	strcat
 785 0114 1BE0     		b	.L43
 786              	.L44:
 270:.\cli.c       ****     } else if (strlen(intString1) == 3) {
 787              		.loc 1 270 0
 788 0116 07F11803 		add	r3, r7, #24
 789 011a 1846     		mov	r0, r3
 790 011c FFF7FEFF 		bl	strlen
 791 0120 0346     		mov	r3, r0
 792 0122 032B     		cmp	r3, #3
 793 0124 0BD1     		bne	.L45
 271:.\cli.c       ****         intString2[1] = '0';
 794              		.loc 1 271 0
 795 0126 4FF03003 		mov	r3, #48
 796 012a 7B73     		strb	r3, [r7, #13]
 272:.\cli.c       ****         strcat(intString2, intString1);
 797              		.loc 1 272 0
 798 012c 07F10C02 		add	r2, r7, #12
 799 0130 07F11803 		add	r3, r7, #24
 800 0134 1046     		mov	r0, r2
 801 0136 1946     		mov	r1, r3
 802 0138 FFF7FEFF 		bl	strcat
 803 013c 07E0     		b	.L43
 804              	.L45:
 273:.\cli.c       ****     } else {
 274:.\cli.c       ****         strcat(intString2, intString1);
 805              		.loc 1 274 0
 806 013e 07F10C02 		add	r2, r7, #12
 807 0142 07F11803 		add	r3, r7, #24
 808 0146 1046     		mov	r0, r2
 809 0148 1946     		mov	r1, r3
 810 014a FFF7FEFF 		bl	strcat
 811              	.L43:
 275:.\cli.c       ****     }
 276:.\cli.c       **** 
 277:.\cli.c       ****     dpLocation = strlen(intString2) - 3;
 812              		.loc 1 277 0
 813 014e 07F10C03 		add	r3, r7, #12
ARM GAS  C:\Users\csap2972\AppData\Local\Temp\cclUBZwy.s 			page 21


 814 0152 1846     		mov	r0, r3
 815 0154 FFF7FEFF 		bl	strlen
 816 0158 0346     		mov	r3, r0
 817 015a DBB2     		uxtb	r3, r3
 818 015c A3F10303 		sub	r3, r3, #3
 819 0160 87F82730 		strb	r3, [r7, #39]
 278:.\cli.c       **** 
 279:.\cli.c       ****     strncpy(floatString, intString2, dpLocation);
 820              		.loc 1 279 0
 821 0164 97F82730 		ldrb	r3, [r7, #39]	@ zero_extendqisi2
 822 0168 07F10C02 		add	r2, r7, #12
 823 016c 3868     		ldr	r0, [r7, #0]
 824 016e 1146     		mov	r1, r2
 825 0170 1A46     		mov	r2, r3
 826 0172 FFF7FEFF 		bl	strncpy
 280:.\cli.c       ****     floatString[dpLocation] = '\0';
 827              		.loc 1 280 0
 828 0176 97F82730 		ldrb	r3, [r7, #39]	@ zero_extendqisi2
 829 017a 3A68     		ldr	r2, [r7, #0]
 830 017c D318     		adds	r3, r2, r3
 831 017e 4FF00002 		mov	r2, #0
 832 0182 1A70     		strb	r2, [r3, #0]
 281:.\cli.c       ****     strcat(floatString, decimalPoint);
 833              		.loc 1 281 0
 834 0184 3868     		ldr	r0, [r7, #0]
 835 0186 F96A     		ldr	r1, [r7, #44]
 836 0188 FFF7FEFF 		bl	strcat
 282:.\cli.c       ****     strcat(floatString, intString2 + dpLocation);
 837              		.loc 1 282 0
 838 018c 97F82730 		ldrb	r3, [r7, #39]	@ zero_extendqisi2
 839 0190 07F10C02 		add	r2, r7, #12
 840 0194 D318     		adds	r3, r2, r3
 841 0196 3868     		ldr	r0, [r7, #0]
 842 0198 1946     		mov	r1, r3
 843 019a FFF7FEFF 		bl	strcat
 283:.\cli.c       **** 
 284:.\cli.c       ****     return floatString;
 844              		.loc 1 284 0
 845 019e 3B68     		ldr	r3, [r7, #0]
 285:.\cli.c       **** }
 846              		.loc 1 285 0
 847 01a0 1846     		mov	r0, r3
 848 01a2 07F13007 		add	r7, r7, #48
 849 01a6 BD46     		mov	sp, r7
 850 01a8 80BD     		pop	{r7, pc}
 851              		.cfi_endproc
 852              	.LFE59:
 853              		.size	ftoa, .-ftoa
 854 01aa 00BF     		.section	.text.n_pow,"ax",%progbits
 855              		.align	2
 856              		.global	n_pow
 857              		.thumb
 858              		.thumb_func
 859              		.type	n_pow, %function
 860              	n_pow:
 861              	.LFB60:
 286:.\cli.c       **** 
ARM GAS  C:\Users\csap2972\AppData\Local\Temp\cclUBZwy.s 			page 22


 287:.\cli.c       **** int n_pow(int a, int e)
 288:.\cli.c       **** {
 862              		.loc 1 288 0
 863              		.cfi_startproc
 864              		@ args = 0, pretend = 0, frame = 8
 865              		@ frame_needed = 1, uses_anonymous_args = 0
 866              		@ link register save eliminated.
 867 0000 80B4     		push	{r7}
 868              	.LCFI12:
 869              		.cfi_def_cfa_offset 4
 870              		.cfi_offset 7, -4
 871 0002 83B0     		sub	sp, sp, #12
 872              	.LCFI13:
 873              		.cfi_def_cfa_offset 16
 874 0004 00AF     		add	r7, sp, #0
 875              	.LCFI14:
 876              		.cfi_def_cfa_register 7
 877 0006 7860     		str	r0, [r7, #4]
 878 0008 3960     		str	r1, [r7, #0]
 289:.\cli.c       ****     while(e > 1)
 879              		.loc 1 289 0
 880 000a 08E0     		b	.L50
 881              	.L51:
 290:.\cli.c       ****     {
 291:.\cli.c       ****         a *= a;
 882              		.loc 1 291 0
 883 000c 7B68     		ldr	r3, [r7, #4]
 884 000e 7A68     		ldr	r2, [r7, #4]
 885 0010 02FB03F3 		mul	r3, r2, r3
 886 0014 7B60     		str	r3, [r7, #4]
 292:.\cli.c       ****         e--;
 887              		.loc 1 292 0
 888 0016 3B68     		ldr	r3, [r7, #0]
 889 0018 03F1FF33 		add	r3, r3, #-1
 890 001c 3B60     		str	r3, [r7, #0]
 891              	.L50:
 289:.\cli.c       ****     while(e > 1)
 892              		.loc 1 289 0 discriminator 1
 893 001e 3B68     		ldr	r3, [r7, #0]
 894 0020 012B     		cmp	r3, #1
 895 0022 F3DC     		bgt	.L51
 293:.\cli.c       ****     }
 294:.\cli.c       ****     return a;
 896              		.loc 1 294 0
 897 0024 7B68     		ldr	r3, [r7, #4]
 295:.\cli.c       **** }
 898              		.loc 1 295 0
 899 0026 1846     		mov	r0, r3
 900 0028 07F10C07 		add	r7, r7, #12
 901 002c BD46     		mov	sp, r7
 902 002e 80BC     		pop	{r7}
 903 0030 7047     		bx	lr
 904              		.cfi_endproc
 905              	.LFE60:
 906              		.size	n_pow, .-n_pow
 907 0032 00BF     		.section	.rodata
 908 0202 0000     		.align	2
ARM GAS  C:\Users\csap2972\AppData\Local\Temp\cclUBZwy.s 			page 23


 909              	.LC21:
 910 0204 0D0A2320 		.ascii	"\015\012# \000"
 910      00
 911              		.section	.text.cliPrompt,"ax",%progbits
 912              		.align	2
 913              		.thumb
 914              		.thumb_func
 915              		.type	cliPrompt, %function
 916              	cliPrompt:
 917              	.LFB61:
 296:.\cli.c       **** 
 297:.\cli.c       **** static void cliPrompt(void)
 298:.\cli.c       **** {
 918              		.loc 1 298 0
 919              		.cfi_startproc
 920              		@ args = 0, pretend = 0, frame = 0
 921              		@ frame_needed = 1, uses_anonymous_args = 0
 922 0000 80B5     		push	{r7, lr}
 923              	.LCFI15:
 924              		.cfi_def_cfa_offset 8
 925              		.cfi_offset 7, -8
 926              		.cfi_offset 14, -4
 927 0002 00AF     		add	r7, sp, #0
 928              	.LCFI16:
 929              		.cfi_def_cfa_register 7
 299:.\cli.c       ****     cliPrint("\r\n# ");
 930              		.loc 1 299 0
 931 0004 40F20000 		movw	r0, #:lower16:.LC21
 932 0008 C0F20000 		movt	r0, #:upper16:.LC21
 933 000c FFF7FEFF 		bl	cliPrint
 300:.\cli.c       **** }
 934              		.loc 1 300 0
 935 0010 80BD     		pop	{r7, pc}
 936              		.cfi_endproc
 937              	.LFE61:
 938              		.size	cliPrompt, .-cliPrompt
 939 0012 00BF     		.section	.text.cliCompare,"ax",%progbits
 940              		.align	2
 941              		.thumb
 942              		.thumb_func
 943              		.type	cliCompare, %function
 944              	cliCompare:
 945              	.LFB62:
 301:.\cli.c       **** 
 302:.\cli.c       **** static int cliCompare(const void *a, const void *b)
 303:.\cli.c       **** {
 946              		.loc 1 303 0
 947              		.cfi_startproc
 948              		@ args = 0, pretend = 0, frame = 16
 949              		@ frame_needed = 1, uses_anonymous_args = 0
 950 0000 B0B5     		push	{r4, r5, r7, lr}
 951              	.LCFI17:
 952              		.cfi_def_cfa_offset 16
 953              		.cfi_offset 4, -16
 954              		.cfi_offset 5, -12
 955              		.cfi_offset 7, -8
 956              		.cfi_offset 14, -4
ARM GAS  C:\Users\csap2972\AppData\Local\Temp\cclUBZwy.s 			page 24


 957 0002 84B0     		sub	sp, sp, #16
 958              	.LCFI18:
 959              		.cfi_def_cfa_offset 32
 960 0004 00AF     		add	r7, sp, #0
 961              	.LCFI19:
 962              		.cfi_def_cfa_register 7
 963 0006 7860     		str	r0, [r7, #4]
 964 0008 3960     		str	r1, [r7, #0]
 304:.\cli.c       ****     const clicmd_t *ca = a, *cb = b;
 965              		.loc 1 304 0
 966 000a 7B68     		ldr	r3, [r7, #4]
 967 000c FB60     		str	r3, [r7, #12]
 968 000e 3B68     		ldr	r3, [r7, #0]
 969 0010 BB60     		str	r3, [r7, #8]
 305:.\cli.c       ****     return strncasecmp(ca->name, cb->name, strlen(cb->name));
 970              		.loc 1 305 0
 971 0012 FB68     		ldr	r3, [r7, #12]
 972 0014 1D68     		ldr	r5, [r3, #0]
 973 0016 BB68     		ldr	r3, [r7, #8]
 974 0018 1C68     		ldr	r4, [r3, #0]
 975 001a BB68     		ldr	r3, [r7, #8]
 976 001c 1B68     		ldr	r3, [r3, #0]
 977 001e 1846     		mov	r0, r3
 978 0020 FFF7FEFF 		bl	strlen
 979 0024 0346     		mov	r3, r0
 980 0026 2846     		mov	r0, r5
 981 0028 2146     		mov	r1, r4
 982 002a 1A46     		mov	r2, r3
 983 002c FFF7FEFF 		bl	strncasecmp
 984 0030 0346     		mov	r3, r0
 306:.\cli.c       **** }
 985              		.loc 1 306 0
 986 0032 1846     		mov	r0, r3
 987 0034 07F11007 		add	r7, r7, #16
 988 0038 BD46     		mov	sp, r7
 989 003a B0BD     		pop	{r4, r5, r7, pc}
 990              		.cfi_endproc
 991              	.LFE62:
 992              		.size	cliCompare, .-cliCompare
 993              		.section	.rodata
 994 0209 000000   		.align	2
 995              	.LC22:
 996 020c 52657365 		.ascii	"Resetting to defaults...\015\012\000"
 996      7474696E 
 996      6720746F 
 996      20646566 
 996      61756C74 
 997              		.section	.text.cliDefaults,"ax",%progbits
 998              		.align	2
 999              		.thumb
 1000              		.thumb_func
 1001              		.type	cliDefaults, %function
 1002              	cliDefaults:
 1003              	.LFB63:
 307:.\cli.c       **** 
 308:.\cli.c       **** static void cliDefaults(char *cmdline)
 309:.\cli.c       **** {
ARM GAS  C:\Users\csap2972\AppData\Local\Temp\cclUBZwy.s 			page 25


 1004              		.loc 1 309 0
 1005              		.cfi_startproc
 1006              		@ args = 0, pretend = 0, frame = 8
 1007              		@ frame_needed = 1, uses_anonymous_args = 0
 1008 0000 80B5     		push	{r7, lr}
 1009              	.LCFI20:
 1010              		.cfi_def_cfa_offset 8
 1011              		.cfi_offset 7, -8
 1012              		.cfi_offset 14, -4
 1013 0002 82B0     		sub	sp, sp, #8
 1014              	.LCFI21:
 1015              		.cfi_def_cfa_offset 16
 1016 0004 00AF     		add	r7, sp, #0
 1017              	.LCFI22:
 1018              		.cfi_def_cfa_register 7
 1019 0006 7860     		str	r0, [r7, #4]
 310:.\cli.c       ****     cliPrint("Resetting to defaults...\r\n");
 1020              		.loc 1 310 0
 1021 0008 40F20000 		movw	r0, #:lower16:.LC22
 1022 000c C0F20000 		movt	r0, #:upper16:.LC22
 1023 0010 FFF7FEFF 		bl	cliPrint
 311:.\cli.c       **** 
 312:.\cli.c       **** }
 1024              		.loc 1 312 0
 1025 0014 07F10807 		add	r7, r7, #8
 1026 0018 BD46     		mov	sp, r7
 1027 001a 80BD     		pop	{r7, pc}
 1028              		.cfi_endproc
 1029              	.LFE63:
 1030              		.size	cliDefaults, .-cliDefaults
 1031              		.section	.rodata
 1032 0227 00       		.align	2
 1033              	.LC23:
 1034 0228 0D0A4C65 		.ascii	"\015\012Leaving CLI mode...\015\012\000"
 1034      6176696E 
 1034      6720434C 
 1034      49206D6F 
 1034      64652E2E 
 1035              		.section	.text.cliExit,"ax",%progbits
 1036              		.align	2
 1037              		.thumb
 1038              		.thumb_func
 1039              		.type	cliExit, %function
 1040              	cliExit:
 1041              	.LFB64:
 313:.\cli.c       **** 
 314:.\cli.c       **** static void cliExit(char *cmdline)
 315:.\cli.c       **** {
 1042              		.loc 1 315 0
 1043              		.cfi_startproc
 1044              		@ args = 0, pretend = 0, frame = 8
 1045              		@ frame_needed = 1, uses_anonymous_args = 0
 1046 0000 80B5     		push	{r7, lr}
 1047              	.LCFI23:
 1048              		.cfi_def_cfa_offset 8
 1049              		.cfi_offset 7, -8
 1050              		.cfi_offset 14, -4
ARM GAS  C:\Users\csap2972\AppData\Local\Temp\cclUBZwy.s 			page 26


 1051 0002 82B0     		sub	sp, sp, #8
 1052              	.LCFI24:
 1053              		.cfi_def_cfa_offset 16
 1054 0004 00AF     		add	r7, sp, #0
 1055              	.LCFI25:
 1056              		.cfi_def_cfa_register 7
 1057 0006 7860     		str	r0, [r7, #4]
 316:.\cli.c       ****     cliPrint("\r\nLeaving CLI mode...\r\n");
 1058              		.loc 1 316 0
 1059 0008 40F20000 		movw	r0, #:lower16:.LC23
 1060 000c C0F20000 		movt	r0, #:upper16:.LC23
 1061 0010 FFF7FEFF 		bl	cliPrint
 317:.\cli.c       ****     *cliBuffer = '\0';
 1062              		.loc 1 317 0
 1063 0014 40F20003 		movw	r3, #:lower16:cliBuffer
 1064 0018 C0F20003 		movt	r3, #:upper16:cliBuffer
 1065 001c 4FF00002 		mov	r2, #0
 1066 0020 1A70     		strb	r2, [r3, #0]
 318:.\cli.c       ****     bufferIndex = 0;
 1067              		.loc 1 318 0
 1068 0022 40F20003 		movw	r3, #:lower16:bufferIndex
 1069 0026 C0F20003 		movt	r3, #:upper16:bufferIndex
 1070 002a 4FF00002 		mov	r2, #0
 1071 002e 1A60     		str	r2, [r3, #0]
 319:.\cli.c       ****     cliMode = 0;
 1072              		.loc 1 319 0
 1073 0030 40F20003 		movw	r3, #:lower16:cliMode
 1074 0034 C0F20003 		movt	r3, #:upper16:cliMode
 1075 0038 4FF00002 		mov	r2, #0
 1076 003c 1A70     		strb	r2, [r3, #0]
 320:.\cli.c       **** }
 1077              		.loc 1 320 0
 1078 003e 07F10807 		add	r7, r7, #8
 1079 0042 BD46     		mov	sp, r7
 1080 0044 80BD     		pop	{r7, pc}
 1081              		.cfi_endproc
 1082              	.LFE64:
 1083              		.size	cliExit, .-cliExit
 1084 0046 00BF     		.section	.rodata
 1085              		.align	2
 1086              	.LC24:
 1087 0240 41766169 		.ascii	"Available commands:\015\012\000"
 1087      6C61626C 
 1087      6520636F 
 1087      6D6D616E 
 1087      64733A0D 
 1088 0256 0000     		.align	2
 1089              	.LC25:
 1090 0258 25730925 		.ascii	"%s\011%s\015\012\000"
 1090      730D0A00 
 1091              		.section	.text.cliHelp,"ax",%progbits
 1092              		.align	2
 1093              		.thumb
 1094              		.thumb_func
 1095              		.type	cliHelp, %function
 1096              	cliHelp:
 1097              	.LFB65:
ARM GAS  C:\Users\csap2972\AppData\Local\Temp\cclUBZwy.s 			page 27


 321:.\cli.c       **** 
 322:.\cli.c       **** static void cliHelp(char *cmdline)
 323:.\cli.c       **** {
 1098              		.loc 1 323 0
 1099              		.cfi_startproc
 1100              		@ args = 0, pretend = 0, frame = 80
 1101              		@ frame_needed = 1, uses_anonymous_args = 0
 1102 0000 90B5     		push	{r4, r7, lr}
 1103              	.LCFI26:
 1104              		.cfi_def_cfa_offset 12
 1105              		.cfi_offset 4, -12
 1106              		.cfi_offset 7, -8
 1107              		.cfi_offset 14, -4
 1108 0002 95B0     		sub	sp, sp, #84
 1109              	.LCFI27:
 1110              		.cfi_def_cfa_offset 96
 1111 0004 00AF     		add	r7, sp, #0
 1112              	.LCFI28:
 1113              		.cfi_def_cfa_register 7
 1114 0006 7860     		str	r0, [r7, #4]
 324:.\cli.c       ****     uint32_t i = 0;
 1115              		.loc 1 324 0
 1116 0008 4FF00003 		mov	r3, #0
 1117 000c FB64     		str	r3, [r7, #76]
 325:.\cli.c       **** 	char buffer_temp[64];
 326:.\cli.c       **** 
 327:.\cli.c       ****     cliPrint("Available commands:\r\n");
 1118              		.loc 1 327 0
 1119 000e 40F20000 		movw	r0, #:lower16:.LC24
 1120 0012 C0F20000 		movt	r0, #:upper16:.LC24
 1121 0016 FFF7FEFF 		bl	cliPrint
 328:.\cli.c       ****     for (i = 0; i < CMD_COUNT; i++) {
 1122              		.loc 1 328 0
 1123 001a 4FF00003 		mov	r3, #0
 1124 001e FB64     		str	r3, [r7, #76]
 1125 0020 2EE0     		b	.L59
 1126              	.L60:
 329:.\cli.c       ****         sprintf(buffer_temp, "%s\t%s\r\n", cmdTable[i].name, cmdTable[i].param);
 1127              		.loc 1 329 0 discriminator 2
 1128 0022 40F20002 		movw	r2, #:lower16:cmdTable
 1129 0026 C0F20002 		movt	r2, #:upper16:cmdTable
 1130 002a F96C     		ldr	r1, [r7, #76]
 1131 002c 0B46     		mov	r3, r1
 1132 002e 4FEA4303 		lsl	r3, r3, #1
 1133 0032 5B18     		adds	r3, r3, r1
 1134 0034 4FEA8303 		lsl	r3, r3, #2
 1135 0038 D318     		adds	r3, r2, r3
 1136 003a 1C68     		ldr	r4, [r3, #0]
 1137 003c 40F20002 		movw	r2, #:lower16:cmdTable
 1138 0040 C0F20002 		movt	r2, #:upper16:cmdTable
 1139 0044 F96C     		ldr	r1, [r7, #76]
 1140 0046 0B46     		mov	r3, r1
 1141 0048 4FEA4303 		lsl	r3, r3, #1
 1142 004c 5B18     		adds	r3, r3, r1
 1143 004e 4FEA8303 		lsl	r3, r3, #2
 1144 0052 D318     		adds	r3, r2, r3
 1145 0054 03F10403 		add	r3, r3, #4
ARM GAS  C:\Users\csap2972\AppData\Local\Temp\cclUBZwy.s 			page 28


 1146 0058 1B68     		ldr	r3, [r3, #0]
 1147 005a 07F10C02 		add	r2, r7, #12
 1148 005e 1046     		mov	r0, r2
 1149 0060 40F20001 		movw	r1, #:lower16:.LC25
 1150 0064 C0F20001 		movt	r1, #:upper16:.LC25
 1151 0068 2246     		mov	r2, r4
 1152 006a FFF7FEFF 		bl	sprintf
 330:.\cli.c       **** 		cliPrint(buffer_temp);
 1153              		.loc 1 330 0 discriminator 2
 1154 006e 07F10C03 		add	r3, r7, #12
 1155 0072 1846     		mov	r0, r3
 1156 0074 FFF7FEFF 		bl	cliPrint
 328:.\cli.c       ****     for (i = 0; i < CMD_COUNT; i++) {
 1157              		.loc 1 328 0 discriminator 2
 1158 0078 FB6C     		ldr	r3, [r7, #76]
 1159 007a 03F10103 		add	r3, r3, #1
 1160 007e FB64     		str	r3, [r7, #76]
 1161              	.L59:
 328:.\cli.c       ****     for (i = 0; i < CMD_COUNT; i++) {
 1162              		.loc 1 328 0 is_stmt 0 discriminator 1
 1163 0080 FB6C     		ldr	r3, [r7, #76]
 1164 0082 052B     		cmp	r3, #5
 1165 0084 CDD9     		bls	.L60
 331:.\cli.c       ****     }
 332:.\cli.c       **** }
 1166              		.loc 1 332 0 is_stmt 1
 1167 0086 07F15407 		add	r7, r7, #84
 1168 008a BD46     		mov	sp, r7
 1169 008c 90BD     		pop	{r4, r7, pc}
 1170              		.cfi_endproc
 1171              	.LFE65:
 1172              		.size	cliHelp, .-cliHelp
 1173 008e 00BF     		.section	.rodata
 1174              		.align	2
 1175              	.LC26:
 1176 0260 73657474 		.ascii	"settings saved\000"
 1176      696E6773 
 1176      20736176 
 1176      656400
 1177 026f 00       		.align	2
 1178              	.LC27:
 1179 0270 6661696C 		.ascii	"failed\000"
 1179      656400
 1180              		.section	.text.cliSave,"ax",%progbits
 1181              		.align	2
 1182              		.thumb
 1183              		.thumb_func
 1184              		.type	cliSave, %function
 1185              	cliSave:
 1186              	.LFB66:
 333:.\cli.c       **** 
 334:.\cli.c       **** static void cliSave(char *cmdline)
 335:.\cli.c       **** {
 1187              		.loc 1 335 0
 1188              		.cfi_startproc
 1189              		@ args = 0, pretend = 0, frame = 8
 1190              		@ frame_needed = 1, uses_anonymous_args = 0
ARM GAS  C:\Users\csap2972\AppData\Local\Temp\cclUBZwy.s 			page 29


 1191 0000 80B5     		push	{r7, lr}
 1192              	.LCFI29:
 1193              		.cfi_def_cfa_offset 8
 1194              		.cfi_offset 7, -8
 1195              		.cfi_offset 14, -4
 1196 0002 82B0     		sub	sp, sp, #8
 1197              	.LCFI30:
 1198              		.cfi_def_cfa_offset 16
 1199 0004 00AF     		add	r7, sp, #0
 1200              	.LCFI31:
 1201              		.cfi_def_cfa_register 7
 1202 0006 7860     		str	r0, [r7, #4]
 336:.\cli.c       ****  // todo save parameters
 337:.\cli.c       ****     if(save_settings()) cliPrint("settings saved");
 1203              		.loc 1 337 0
 1204 0008 FFF7FEFF 		bl	save_settings
 1205 000c 0346     		mov	r3, r0
 1206 000e 002B     		cmp	r3, #0
 1207 0010 06D0     		beq	.L62
 1208              		.loc 1 337 0 is_stmt 0 discriminator 1
 1209 0012 40F20000 		movw	r0, #:lower16:.LC26
 1210 0016 C0F20000 		movt	r0, #:upper16:.LC26
 1211 001a FFF7FEFF 		bl	cliPrint
 1212 001e 05E0     		b	.L61
 1213              	.L62:
 338:.\cli.c       ****     else cliPrint("failed");
 1214              		.loc 1 338 0 is_stmt 1
 1215 0020 40F20000 		movw	r0, #:lower16:.LC27
 1216 0024 C0F20000 		movt	r0, #:upper16:.LC27
 1217 0028 FFF7FEFF 		bl	cliPrint
 1218              	.L61:
 339:.\cli.c       **** }
 1219              		.loc 1 339 0
 1220 002c 07F10807 		add	r7, r7, #8
 1221 0030 BD46     		mov	sp, r7
 1222 0032 80BD     		pop	{r7, pc}
 1223              		.cfi_endproc
 1224              	.LFE66:
 1225              		.size	cliSave, .-cliSave
 1226              		.section	.text.cliPrint,"ax",%progbits
 1227              		.align	2
 1228              		.thumb
 1229              		.thumb_func
 1230              		.type	cliPrint, %function
 1231              	cliPrint:
 1232              	.LFB67:
 340:.\cli.c       **** 
 341:.\cli.c       **** static void cliPrint(const char *str)
 342:.\cli.c       **** {
 1233              		.loc 1 342 0
 1234              		.cfi_startproc
 1235              		@ args = 0, pretend = 0, frame = 8
 1236              		@ frame_needed = 1, uses_anonymous_args = 0
 1237 0000 80B5     		push	{r7, lr}
 1238              	.LCFI32:
 1239              		.cfi_def_cfa_offset 8
 1240              		.cfi_offset 7, -8
ARM GAS  C:\Users\csap2972\AppData\Local\Temp\cclUBZwy.s 			page 30


 1241              		.cfi_offset 14, -4
 1242 0002 82B0     		sub	sp, sp, #8
 1243              	.LCFI33:
 1244              		.cfi_def_cfa_offset 16
 1245 0004 00AF     		add	r7, sp, #0
 1246              	.LCFI34:
 1247              		.cfi_def_cfa_register 7
 1248 0006 7860     		str	r0, [r7, #4]
 343:.\cli.c       **** 	while(!USBUART_1_CDCIsReady());
 1249              		.loc 1 343 0
 1250 0008 00BF     		nop
 1251              	.L65:
 1252              		.loc 1 343 0 is_stmt 0 discriminator 1
 1253 000a FFF7FEFF 		bl	USBUART_1_CDCIsReady
 1254 000e 0346     		mov	r3, r0
 1255 0010 002B     		cmp	r3, #0
 1256 0012 FAD0     		beq	.L65
 344:.\cli.c       **** 	USBUART_1_PutString(str);   
 1257              		.loc 1 344 0 is_stmt 1
 1258 0014 7868     		ldr	r0, [r7, #4]
 1259 0016 FFF7FEFF 		bl	USBUART_1_PutString
 345:.\cli.c       **** }
 1260              		.loc 1 345 0
 1261 001a 07F10807 		add	r7, r7, #8
 1262 001e BD46     		mov	sp, r7
 1263 0020 80BD     		pop	{r7, pc}
 1264              		.cfi_endproc
 1265              	.LFE67:
 1266              		.size	cliPrint, .-cliPrint
 1267 0022 00BF     		.section	.text.cliWrite,"ax",%progbits
 1268              		.align	2
 1269              		.thumb
 1270              		.thumb_func
 1271              		.type	cliWrite, %function
 1272              	cliWrite:
 1273              	.LFB68:
 346:.\cli.c       **** 
 347:.\cli.c       **** static void cliWrite(uint8_t ch)
 348:.\cli.c       **** {
 1274              		.loc 1 348 0
 1275              		.cfi_startproc
 1276              		@ args = 0, pretend = 0, frame = 8
 1277              		@ frame_needed = 1, uses_anonymous_args = 0
 1278 0000 80B5     		push	{r7, lr}
 1279              	.LCFI35:
 1280              		.cfi_def_cfa_offset 8
 1281              		.cfi_offset 7, -8
 1282              		.cfi_offset 14, -4
 1283 0002 82B0     		sub	sp, sp, #8
 1284              	.LCFI36:
 1285              		.cfi_def_cfa_offset 16
 1286 0004 00AF     		add	r7, sp, #0
 1287              	.LCFI37:
 1288              		.cfi_def_cfa_register 7
 1289 0006 0346     		mov	r3, r0
 1290 0008 FB71     		strb	r3, [r7, #7]
 349:.\cli.c       **** 	while(!USBUART_1_CDCIsReady());
ARM GAS  C:\Users\csap2972\AppData\Local\Temp\cclUBZwy.s 			page 31


 1291              		.loc 1 349 0
 1292 000a 00BF     		nop
 1293              	.L67:
 1294              		.loc 1 349 0 is_stmt 0 discriminator 1
 1295 000c FFF7FEFF 		bl	USBUART_1_CDCIsReady
 1296 0010 0346     		mov	r3, r0
 1297 0012 002B     		cmp	r3, #0
 1298 0014 FAD0     		beq	.L67
 350:.\cli.c       ****     USBUART_1_PutChar(ch);
 1299              		.loc 1 350 0 is_stmt 1
 1300 0016 FB79     		ldrb	r3, [r7, #7]	@ zero_extendqisi2
 1301 0018 1846     		mov	r0, r3
 1302 001a FFF7FEFF 		bl	USBUART_1_PutChar
 351:.\cli.c       **** }
 1303              		.loc 1 351 0
 1304 001e 07F10807 		add	r7, r7, #8
 1305 0022 BD46     		mov	sp, r7
 1306 0024 80BD     		pop	{r7, pc}
 1307              		.cfi_endproc
 1308              	.LFE68:
 1309              		.size	cliWrite, .-cliWrite
 1310 0026 00BF     		.section	.rodata
 1311 0277 00       		.align	2
 1312              	.LC28:
 1313 0278 20257300 		.ascii	" %s\000"
 1314              		.align	2
 1315              	.LC29:
 1316 027c 256400   		.ascii	"%d\000"
 1317 027f 00       		.align	2
 1318              	.LC30:
 1319 0280 20256420 		.ascii	" %d %d\000"
 1319      256400
 1320              		.section	.text.cliPrintVar,"ax",%progbits
 1321              		.align	2
 1322              		.thumb
 1323              		.thumb_func
 1324              		.type	cliPrintVar, %function
 1325              	cliPrintVar:
 1326              	.LFB69:
 352:.\cli.c       **** 
 353:.\cli.c       **** static void cliPrintVar(const clivalue_t *var, uint32_t full)
 354:.\cli.c       **** {
 1327              		.loc 1 354 0
 1328              		.cfi_startproc
 1329              		@ args = 0, pretend = 0, frame = 96
 1330              		@ frame_needed = 1, uses_anonymous_args = 0
 1331 0000 90B5     		push	{r4, r7, lr}
 1332              	.LCFI38:
 1333              		.cfi_def_cfa_offset 12
 1334              		.cfi_offset 4, -12
 1335              		.cfi_offset 7, -8
 1336              		.cfi_offset 14, -4
 1337 0002 99B0     		sub	sp, sp, #100
 1338              	.LCFI39:
 1339              		.cfi_def_cfa_offset 112
 1340 0004 00AF     		add	r7, sp, #0
 1341              	.LCFI40:
ARM GAS  C:\Users\csap2972\AppData\Local\Temp\cclUBZwy.s 			page 32


 1342              		.cfi_def_cfa_register 7
 1343 0006 7860     		str	r0, [r7, #4]
 1344 0008 3960     		str	r1, [r7, #0]
 355:.\cli.c       ****     int32_t value = 0;
 1345              		.loc 1 355 0
 1346 000a 4FF00003 		mov	r3, #0
 1347 000e FB65     		str	r3, [r7, #92]
 356:.\cli.c       ****     float fvalue = 0;
 1348              		.loc 1 356 0
 1349 0010 4FF00003 		mov	r3, #0
 1350 0014 BB65     		str	r3, [r7, #88]	@ float
 357:.\cli.c       **** 	char buffer_temp[64];
 358:.\cli.c       ****     char buf[16];
 359:.\cli.c       **** 
 360:.\cli.c       ****     switch (var->type) {
 1351              		.loc 1 360 0
 1352 0016 7B68     		ldr	r3, [r7, #4]
 1353 0018 1B79     		ldrb	r3, [r3, #4]	@ zero_extendqisi2
 1354 001a 0E2B     		cmp	r3, #14
 1355 001c 00F2F880 		bhi	.L69
 1356 0020 01A2     		adr	r2, .L77
 1357 0022 52F823F0 		ldr	pc, [r2, r3, lsl #2]
 1358 0026 00BF     		.align	2
 1359              	.L77:
 1360 0028 65000000 		.word	.L70+1
 1361 002c 6F000000 		.word	.L71+1
 1362 0030 7B000000 		.word	.L72+1
 1363 0034 85000000 		.word	.L73+1
 1364 0038 91000000 		.word	.L74+1
 1365 003c 9B000000 		.word	.L75+1
 1366 0040 11020000 		.word	.L69+1
 1367 0044 11020000 		.word	.L69+1
 1368 0048 11020000 		.word	.L69+1
 1369 004c 11020000 		.word	.L69+1
 1370 0050 11020000 		.word	.L69+1
 1371 0054 3F010000 		.word	.L76+1
 1372 0058 3F010000 		.word	.L76+1
 1373 005c 3F010000 		.word	.L76+1
 1374 0060 3F010000 		.word	.L76+1
 1375              	.L70:
 361:.\cli.c       ****         case VAR_UINT8:
 362:.\cli.c       ****             value = *(uint8_t *)var->ptr;
 1376              		.loc 1 362 0
 1377 0064 7B68     		ldr	r3, [r7, #4]
 1378 0066 9B68     		ldr	r3, [r3, #8]
 1379 0068 1B78     		ldrb	r3, [r3, #0]	@ zero_extendqisi2
 1380 006a FB65     		str	r3, [r7, #92]
 363:.\cli.c       ****             break;
 1381              		.loc 1 363 0
 1382 006c D0E0     		b	.L69
 1383              	.L71:
 364:.\cli.c       **** 
 365:.\cli.c       ****         case VAR_INT8:
 366:.\cli.c       ****             value = *(int8_t *)var->ptr;
 1384              		.loc 1 366 0
 1385 006e 7B68     		ldr	r3, [r7, #4]
 1386 0070 9B68     		ldr	r3, [r3, #8]
ARM GAS  C:\Users\csap2972\AppData\Local\Temp\cclUBZwy.s 			page 33


 1387 0072 1B78     		ldrb	r3, [r3, #0]	@ zero_extendqisi2
 1388 0074 5BB2     		sxtb	r3, r3
 1389 0076 FB65     		str	r3, [r7, #92]
 367:.\cli.c       ****             break;
 1390              		.loc 1 367 0
 1391 0078 CAE0     		b	.L69
 1392              	.L72:
 368:.\cli.c       **** 
 369:.\cli.c       ****         case VAR_UINT16:
 370:.\cli.c       ****             value = *(uint16_t *)var->ptr;
 1393              		.loc 1 370 0
 1394 007a 7B68     		ldr	r3, [r7, #4]
 1395 007c 9B68     		ldr	r3, [r3, #8]
 1396 007e 1B88     		ldrh	r3, [r3, #0]
 1397 0080 FB65     		str	r3, [r7, #92]
 371:.\cli.c       ****             break;
 1398              		.loc 1 371 0
 1399 0082 C5E0     		b	.L69
 1400              	.L73:
 372:.\cli.c       **** 
 373:.\cli.c       ****         case VAR_INT16:
 374:.\cli.c       ****             value = *(int16_t *)var->ptr;
 1401              		.loc 1 374 0
 1402 0084 7B68     		ldr	r3, [r7, #4]
 1403 0086 9B68     		ldr	r3, [r3, #8]
 1404 0088 1B88     		ldrh	r3, [r3, #0]
 1405 008a 1BB2     		sxth	r3, r3
 1406 008c FB65     		str	r3, [r7, #92]
 375:.\cli.c       ****             break;
 1407              		.loc 1 375 0
 1408 008e BFE0     		b	.L69
 1409              	.L74:
 376:.\cli.c       **** 
 377:.\cli.c       ****         case VAR_UINT32:
 378:.\cli.c       ****             value = *(uint32_t *)var->ptr;
 1410              		.loc 1 378 0
 1411 0090 7B68     		ldr	r3, [r7, #4]
 1412 0092 9B68     		ldr	r3, [r3, #8]
 1413 0094 1B68     		ldr	r3, [r3, #0]
 1414 0096 FB65     		str	r3, [r7, #92]
 379:.\cli.c       ****             break;
 1415              		.loc 1 379 0
 1416 0098 BAE0     		b	.L69
 1417              	.L75:
 380:.\cli.c       **** 
 381:.\cli.c       ****         case VAR_FLOAT:
 382:.\cli.c       ****             sprintf(buffer_temp, "%s", ftoa(*(float *)var->ptr, buf));
 1418              		.loc 1 382 0
 1419 009a 7B68     		ldr	r3, [r7, #4]
 1420 009c 9B68     		ldr	r3, [r3, #8]
 1421 009e 1A68     		ldr	r2, [r3, #0]	@ float
 1422 00a0 07F10803 		add	r3, r7, #8
 1423 00a4 1046     		mov	r0, r2
 1424 00a6 1946     		mov	r1, r3
 1425 00a8 FFF7FEFF 		bl	ftoa
 1426 00ac 0346     		mov	r3, r0
 1427 00ae 07F11802 		add	r2, r7, #24
ARM GAS  C:\Users\csap2972\AppData\Local\Temp\cclUBZwy.s 			page 34


 1428 00b2 1046     		mov	r0, r2
 1429 00b4 1946     		mov	r1, r3
 1430 00b6 FFF7FEFF 		bl	strcpy
 383:.\cli.c       **** 			cliPrint(buffer_temp);
 1431              		.loc 1 383 0
 1432 00ba 07F11803 		add	r3, r7, #24
 1433 00be 1846     		mov	r0, r3
 1434 00c0 FFF7FEFF 		bl	cliPrint
 384:.\cli.c       ****             if (full) {
 1435              		.loc 1 384 0
 1436 00c4 3B68     		ldr	r3, [r7, #0]
 1437 00c6 002B     		cmp	r3, #0
 1438 00c8 00F0C680 		beq	.L68
 385:.\cli.c       ****                 sprintf(buffer_temp, " %s", ftoa((float)var->min, buf));
 1439              		.loc 1 385 0
 1440 00cc 7B68     		ldr	r3, [r7, #4]
 1441 00ce DB68     		ldr	r3, [r3, #12]
 1442 00d0 1846     		mov	r0, r3
 1443 00d2 FFF7FEFF 		bl	__aeabi_i2f
 1444 00d6 0246     		mov	r2, r0
 1445 00d8 07F10803 		add	r3, r7, #8
 1446 00dc 1046     		mov	r0, r2
 1447 00de 1946     		mov	r1, r3
 1448 00e0 FFF7FEFF 		bl	ftoa
 1449 00e4 0346     		mov	r3, r0
 1450 00e6 07F11802 		add	r2, r7, #24
 1451 00ea 1046     		mov	r0, r2
 1452 00ec 40F20001 		movw	r1, #:lower16:.LC28
 1453 00f0 C0F20001 		movt	r1, #:upper16:.LC28
 1454 00f4 1A46     		mov	r2, r3
 1455 00f6 FFF7FEFF 		bl	sprintf
 386:.\cli.c       **** 				cliPrint(buffer_temp);
 1456              		.loc 1 386 0
 1457 00fa 07F11803 		add	r3, r7, #24
 1458 00fe 1846     		mov	r0, r3
 1459 0100 FFF7FEFF 		bl	cliPrint
 387:.\cli.c       ****                 sprintf(buffer_temp, " %s", ftoa((float)var->max, buf));
 1460              		.loc 1 387 0
 1461 0104 7B68     		ldr	r3, [r7, #4]
 1462 0106 1B69     		ldr	r3, [r3, #16]
 1463 0108 1846     		mov	r0, r3
 1464 010a FFF7FEFF 		bl	__aeabi_i2f
 1465 010e 0246     		mov	r2, r0
 1466 0110 07F10803 		add	r3, r7, #8
 1467 0114 1046     		mov	r0, r2
 1468 0116 1946     		mov	r1, r3
 1469 0118 FFF7FEFF 		bl	ftoa
 1470 011c 0346     		mov	r3, r0
 1471 011e 07F11802 		add	r2, r7, #24
 1472 0122 1046     		mov	r0, r2
 1473 0124 40F20001 		movw	r1, #:lower16:.LC28
 1474 0128 C0F20001 		movt	r1, #:upper16:.LC28
 1475 012c 1A46     		mov	r2, r3
 1476 012e FFF7FEFF 		bl	sprintf
 388:.\cli.c       **** 				cliPrint(buffer_temp);
 1477              		.loc 1 388 0
 1478 0132 07F11803 		add	r3, r7, #24
ARM GAS  C:\Users\csap2972\AppData\Local\Temp\cclUBZwy.s 			page 35


 1479 0136 1846     		mov	r0, r3
 1480 0138 FFF7FEFF 		bl	cliPrint
 1481 013c 8CE0     		b	.L68
 1482              	.L76:
 389:.\cli.c       ****             }
 390:.\cli.c       ****             return; // return from case for float only
 391:.\cli.c       ****             
 392:.\cli.c       ****         case VAR_INT1DECIMALS:
 393:.\cli.c       ****         case VAR_INT2DECIMALS:
 394:.\cli.c       ****         case VAR_INT3DECIMALS:
 395:.\cli.c       ****         case VAR_INT4DECIMALS:
 396:.\cli.c       ****             fvalue = (float)(*(int *)var->ptr) / (float)n_pow(10,var->type - 10);
 1483              		.loc 1 396 0
 1484 013e 7B68     		ldr	r3, [r7, #4]
 1485 0140 9B68     		ldr	r3, [r3, #8]
 1486 0142 1B68     		ldr	r3, [r3, #0]
 1487 0144 1846     		mov	r0, r3
 1488 0146 FFF7FEFF 		bl	__aeabi_i2f
 1489 014a 0446     		mov	r4, r0
 1490 014c 7B68     		ldr	r3, [r7, #4]
 1491 014e 1B79     		ldrb	r3, [r3, #4]	@ zero_extendqisi2
 1492 0150 A3F10A03 		sub	r3, r3, #10
 1493 0154 4FF00A00 		mov	r0, #10
 1494 0158 1946     		mov	r1, r3
 1495 015a FFF7FEFF 		bl	n_pow
 1496 015e 0346     		mov	r3, r0
 1497 0160 1846     		mov	r0, r3
 1498 0162 FFF7FEFF 		bl	__aeabi_i2f
 1499 0166 0346     		mov	r3, r0
 1500 0168 2046     		mov	r0, r4
 1501 016a 1946     		mov	r1, r3
 1502 016c FFF7FEFF 		bl	__aeabi_fdiv
 1503 0170 0346     		mov	r3, r0
 1504 0172 BB65     		str	r3, [r7, #88]	@ float
 397:.\cli.c       ****             sprintf(buffer_temp, "%s", ftoa(fvalue, buf));
 1505              		.loc 1 397 0
 1506 0174 07F10803 		add	r3, r7, #8
 1507 0178 B86D     		ldr	r0, [r7, #88]	@ float
 1508 017a 1946     		mov	r1, r3
 1509 017c FFF7FEFF 		bl	ftoa
 1510 0180 0346     		mov	r3, r0
 1511 0182 07F11802 		add	r2, r7, #24
 1512 0186 1046     		mov	r0, r2
 1513 0188 1946     		mov	r1, r3
 1514 018a FFF7FEFF 		bl	strcpy
 398:.\cli.c       **** 			cliPrint(buffer_temp);
 1515              		.loc 1 398 0
 1516 018e 07F11803 		add	r3, r7, #24
 1517 0192 1846     		mov	r0, r3
 1518 0194 FFF7FEFF 		bl	cliPrint
 399:.\cli.c       ****             if (full) {
 1519              		.loc 1 399 0
 1520 0198 3B68     		ldr	r3, [r7, #0]
 1521 019a 002B     		cmp	r3, #0
 1522 019c 5CD0     		beq	.L68
 400:.\cli.c       ****                 sprintf(buffer_temp, " %s", ftoa((float)var->min, buf));
 1523              		.loc 1 400 0
ARM GAS  C:\Users\csap2972\AppData\Local\Temp\cclUBZwy.s 			page 36


 1524 019e 7B68     		ldr	r3, [r7, #4]
 1525 01a0 DB68     		ldr	r3, [r3, #12]
 1526 01a2 1846     		mov	r0, r3
 1527 01a4 FFF7FEFF 		bl	__aeabi_i2f
 1528 01a8 0246     		mov	r2, r0
 1529 01aa 07F10803 		add	r3, r7, #8
 1530 01ae 1046     		mov	r0, r2
 1531 01b0 1946     		mov	r1, r3
 1532 01b2 FFF7FEFF 		bl	ftoa
 1533 01b6 0346     		mov	r3, r0
 1534 01b8 07F11802 		add	r2, r7, #24
 1535 01bc 1046     		mov	r0, r2
 1536 01be 40F20001 		movw	r1, #:lower16:.LC28
 1537 01c2 C0F20001 		movt	r1, #:upper16:.LC28
 1538 01c6 1A46     		mov	r2, r3
 1539 01c8 FFF7FEFF 		bl	sprintf
 401:.\cli.c       **** 				cliPrint(buffer_temp);
 1540              		.loc 1 401 0
 1541 01cc 07F11803 		add	r3, r7, #24
 1542 01d0 1846     		mov	r0, r3
 1543 01d2 FFF7FEFF 		bl	cliPrint
 402:.\cli.c       ****                 sprintf(buffer_temp, " %s", ftoa((float)var->max, buf));
 1544              		.loc 1 402 0
 1545 01d6 7B68     		ldr	r3, [r7, #4]
 1546 01d8 1B69     		ldr	r3, [r3, #16]
 1547 01da 1846     		mov	r0, r3
 1548 01dc FFF7FEFF 		bl	__aeabi_i2f
 1549 01e0 0246     		mov	r2, r0
 1550 01e2 07F10803 		add	r3, r7, #8
 1551 01e6 1046     		mov	r0, r2
 1552 01e8 1946     		mov	r1, r3
 1553 01ea FFF7FEFF 		bl	ftoa
 1554 01ee 0346     		mov	r3, r0
 1555 01f0 07F11802 		add	r2, r7, #24
 1556 01f4 1046     		mov	r0, r2
 1557 01f6 40F20001 		movw	r1, #:lower16:.LC28
 1558 01fa C0F20001 		movt	r1, #:upper16:.LC28
 1559 01fe 1A46     		mov	r2, r3
 1560 0200 FFF7FEFF 		bl	sprintf
 403:.\cli.c       **** 				cliPrint(buffer_temp);
 1561              		.loc 1 403 0
 1562 0204 07F11803 		add	r3, r7, #24
 1563 0208 1846     		mov	r0, r3
 1564 020a FFF7FEFF 		bl	cliPrint
 1565 020e 23E0     		b	.L68
 1566              	.L69:
 404:.\cli.c       ****             }
 405:.\cli.c       ****             return; // return from case for float only
 406:.\cli.c       ****         
 407:.\cli.c       ****     }
 408:.\cli.c       ****     sprintf(buffer_temp, "%d", (int)value);
 1567              		.loc 1 408 0
 1568 0210 07F11803 		add	r3, r7, #24
 1569 0214 1846     		mov	r0, r3
 1570 0216 40F20001 		movw	r1, #:lower16:.LC29
 1571 021a C0F20001 		movt	r1, #:upper16:.LC29
 1572 021e FA6D     		ldr	r2, [r7, #92]
ARM GAS  C:\Users\csap2972\AppData\Local\Temp\cclUBZwy.s 			page 37


 1573 0220 FFF7FEFF 		bl	sprintf
 409:.\cli.c       **** 	cliPrint(buffer_temp);
 1574              		.loc 1 409 0
 1575 0224 07F11803 		add	r3, r7, #24
 1576 0228 1846     		mov	r0, r3
 1577 022a FFF7FEFF 		bl	cliPrint
 410:.\cli.c       ****     if (full) {
 1578              		.loc 1 410 0
 1579 022e 3B68     		ldr	r3, [r7, #0]
 1580 0230 002B     		cmp	r3, #0
 1581 0232 11D0     		beq	.L68
 411:.\cli.c       ****         sprintf(buffer_temp, " %d %d", (int)var->min, (int)var->max);
 1582              		.loc 1 411 0
 1583 0234 7B68     		ldr	r3, [r7, #4]
 1584 0236 DA68     		ldr	r2, [r3, #12]
 1585 0238 7B68     		ldr	r3, [r7, #4]
 1586 023a 1B69     		ldr	r3, [r3, #16]
 1587 023c 07F11801 		add	r1, r7, #24
 1588 0240 0846     		mov	r0, r1
 1589 0242 40F20001 		movw	r1, #:lower16:.LC30
 1590 0246 C0F20001 		movt	r1, #:upper16:.LC30
 1591 024a FFF7FEFF 		bl	sprintf
 412:.\cli.c       **** 		cliPrint(buffer_temp);
 1592              		.loc 1 412 0
 1593 024e 07F11803 		add	r3, r7, #24
 1594 0252 1846     		mov	r0, r3
 1595 0254 FFF7FEFF 		bl	cliPrint
 1596              	.L68:
 413:.\cli.c       ****     }
 414:.\cli.c       **** }
 1597              		.loc 1 414 0
 1598 0258 07F16407 		add	r7, r7, #100
 1599 025c BD46     		mov	sp, r7
 1600 025e 90BD     		pop	{r4, r7, pc}
 1601              		.cfi_endproc
 1602              	.LFE69:
 1603              		.size	cliPrintVar, .-cliPrintVar
 1604              		.section	.text.cliSetVar,"ax",%progbits
 1605              		.align	2
 1606              		.thumb
 1607              		.thumb_func
 1608              		.type	cliSetVar, %function
 1609              	cliSetVar:
 1610              	.LFB70:
 415:.\cli.c       **** 
 416:.\cli.c       **** static void cliSetVar(const clivalue_t *var, const int_float_value_t value)
 417:.\cli.c       **** {
 1611              		.loc 1 417 0
 1612              		.cfi_startproc
 1613              		@ args = 0, pretend = 0, frame = 8
 1614              		@ frame_needed = 1, uses_anonymous_args = 0
 1615 0000 B0B5     		push	{r4, r5, r7, lr}
 1616              	.LCFI41:
 1617              		.cfi_def_cfa_offset 16
 1618              		.cfi_offset 4, -16
 1619              		.cfi_offset 5, -12
 1620              		.cfi_offset 7, -8
ARM GAS  C:\Users\csap2972\AppData\Local\Temp\cclUBZwy.s 			page 38


 1621              		.cfi_offset 14, -4
 1622 0002 82B0     		sub	sp, sp, #8
 1623              	.LCFI42:
 1624              		.cfi_def_cfa_offset 24
 1625 0004 00AF     		add	r7, sp, #0
 1626              	.LCFI43:
 1627              		.cfi_def_cfa_register 7
 1628 0006 7860     		str	r0, [r7, #4]
 1629 0008 3960     		str	r1, [r7, #0]
 418:.\cli.c       ****     switch (var->type) {
 1630              		.loc 1 418 0
 1631 000a 7B68     		ldr	r3, [r7, #4]
 1632 000c 1B79     		ldrb	r3, [r3, #4]	@ zero_extendqisi2
 1633 000e 0E2B     		cmp	r3, #14
 1634 0010 52D8     		bhi	.L81
 1635 0012 01A2     		adr	r2, .L88
 1636 0014 52F823F0 		ldr	pc, [r2, r3, lsl #2]
 1637              		.align	2
 1638              	.L88:
 1639 0018 55000000 		.word	.L83+1
 1640 001c 55000000 		.word	.L83+1
 1641 0020 61000000 		.word	.L84+1
 1642 0024 61000000 		.word	.L84+1
 1643 0028 6D000000 		.word	.L85+1
 1644 002c 77000000 		.word	.L86+1
 1645 0030 B9000000 		.word	.L81+1
 1646 0034 B9000000 		.word	.L81+1
 1647 0038 B9000000 		.word	.L81+1
 1648 003c B9000000 		.word	.L81+1
 1649 0040 B9000000 		.word	.L81+1
 1650 0044 81000000 		.word	.L87+1
 1651 0048 81000000 		.word	.L87+1
 1652 004c 81000000 		.word	.L87+1
 1653 0050 81000000 		.word	.L87+1
 1654              	.L83:
 419:.\cli.c       ****         case VAR_UINT8:
 420:.\cli.c       ****         case VAR_INT8:
 421:.\cli.c       ****             *(char *)var->ptr = (char)value.int_value;
 1655              		.loc 1 421 0
 1656 0054 7B68     		ldr	r3, [r7, #4]
 1657 0056 9B68     		ldr	r3, [r3, #8]
 1658 0058 3A68     		ldr	r2, [r7, #0]
 1659 005a D2B2     		uxtb	r2, r2
 1660 005c 1A70     		strb	r2, [r3, #0]
 422:.\cli.c       ****             break;
 1661              		.loc 1 422 0
 1662 005e 2BE0     		b	.L81
 1663              	.L84:
 423:.\cli.c       **** 
 424:.\cli.c       ****         case VAR_UINT16:
 425:.\cli.c       ****         case VAR_INT16:
 426:.\cli.c       ****             *(short *)var->ptr = (short)value.int_value;
 1664              		.loc 1 426 0
 1665 0060 7B68     		ldr	r3, [r7, #4]
 1666 0062 9B68     		ldr	r3, [r3, #8]
 1667 0064 3A68     		ldr	r2, [r7, #0]
 1668 0066 92B2     		uxth	r2, r2
ARM GAS  C:\Users\csap2972\AppData\Local\Temp\cclUBZwy.s 			page 39


 1669 0068 1A80     		strh	r2, [r3, #0]	@ movhi
 427:.\cli.c       ****             break;
 1670              		.loc 1 427 0
 1671 006a 25E0     		b	.L81
 1672              	.L85:
 428:.\cli.c       **** 
 429:.\cli.c       ****         case VAR_UINT32:
 430:.\cli.c       ****             *(int *)var->ptr = (int)value.int_value;
 1673              		.loc 1 430 0
 1674 006c 7B68     		ldr	r3, [r7, #4]
 1675 006e 9B68     		ldr	r3, [r3, #8]
 1676 0070 3A68     		ldr	r2, [r7, #0]
 1677 0072 1A60     		str	r2, [r3, #0]
 431:.\cli.c       ****             break;
 1678              		.loc 1 431 0
 1679 0074 20E0     		b	.L81
 1680              	.L86:
 432:.\cli.c       **** 
 433:.\cli.c       ****         case VAR_FLOAT:
 434:.\cli.c       ****             *(float *)var->ptr = (float)value.float_value;
 1681              		.loc 1 434 0
 1682 0076 7B68     		ldr	r3, [r7, #4]
 1683 0078 9B68     		ldr	r3, [r3, #8]
 1684 007a 3A68     		ldr	r2, [r7, #0]	@ float
 1685 007c 1A60     		str	r2, [r3, #0]	@ float
 435:.\cli.c       ****             break;
 1686              		.loc 1 435 0
 1687 007e 1BE0     		b	.L81
 1688              	.L87:
 436:.\cli.c       ****         
 437:.\cli.c       ****         case VAR_INT1DECIMALS:
 438:.\cli.c       ****         case VAR_INT2DECIMALS:
 439:.\cli.c       ****         case VAR_INT3DECIMALS:
 440:.\cli.c       ****         case VAR_INT4DECIMALS:
 441:.\cli.c       ****             *(int *)var->ptr = lrintf((float)value.float_value * n_pow(10,var->type - 10));
 1689              		.loc 1 441 0
 1690 0080 7B68     		ldr	r3, [r7, #4]
 1691 0082 9C68     		ldr	r4, [r3, #8]
 1692 0084 3D68     		ldr	r5, [r7, #0]	@ float
 1693 0086 7B68     		ldr	r3, [r7, #4]
 1694 0088 1B79     		ldrb	r3, [r3, #4]	@ zero_extendqisi2
 1695 008a A3F10A03 		sub	r3, r3, #10
 1696 008e 4FF00A00 		mov	r0, #10
 1697 0092 1946     		mov	r1, r3
 1698 0094 FFF7FEFF 		bl	n_pow
 1699 0098 0346     		mov	r3, r0
 1700 009a 1846     		mov	r0, r3
 1701 009c FFF7FEFF 		bl	__aeabi_i2f
 1702 00a0 0346     		mov	r3, r0
 1703 00a2 2846     		mov	r0, r5
 1704 00a4 1946     		mov	r1, r3
 1705 00a6 FFF7FEFF 		bl	__aeabi_fmul
 1706 00aa 0346     		mov	r3, r0
 1707 00ac 1846     		mov	r0, r3
 1708 00ae FFF7FEFF 		bl	lrintf
 1709 00b2 0346     		mov	r3, r0
 1710 00b4 2360     		str	r3, [r4, #0]
ARM GAS  C:\Users\csap2972\AppData\Local\Temp\cclUBZwy.s 			page 40


 442:.\cli.c       ****             break;
 1711              		.loc 1 442 0
 1712 00b6 00BF     		nop
 1713              	.L81:
 443:.\cli.c       ****     }
 444:.\cli.c       **** }
 1714              		.loc 1 444 0
 1715 00b8 07F10807 		add	r7, r7, #8
 1716 00bc BD46     		mov	sp, r7
 1717 00be B0BD     		pop	{r4, r5, r7, pc}
 1718              		.cfi_endproc
 1719              	.LFE70:
 1720              		.size	cliSetVar, .-cliSetVar
 1721              		.section	.rodata
 1722 0287 00       		.align	2
 1723              	.LC31:
 1724 0288 43757272 		.ascii	"Current settings: \015\012\000"
 1724      656E7420 
 1724      73657474 
 1724      696E6773 
 1724      3A200D0A 
 1725 029d 000000   		.align	2
 1726              	.LC32:
 1727 02a0 2573203D 		.ascii	"%s = \000"
 1727      2000
 1728 02a6 0000     		.align	2
 1729              	.LC33:
 1730 02a8 0D0A00   		.ascii	"\015\012\000"
 1731              		.global	__aeabi_fcmple
 1732              		.global	__aeabi_fcmpge
 1733 02ab 00       		.align	2
 1734              	.LC34:
 1735 02ac 25732073 		.ascii	"%s set to \000"
 1735      65742074 
 1735      6F2000
 1736 02b7 00       		.align	2
 1737              	.LC35:
 1738 02b8 4552523A 		.ascii	"ERR: Value assignment out of range\015\012\000"
 1738      2056616C 
 1738      75652061 
 1738      73736967 
 1738      6E6D656E 
 1739 02dd 000000   		.align	2
 1740              	.LC36:
 1741 02e0 4552523A 		.ascii	"ERR: Unknown variable name\015\012\000"
 1741      20556E6B 
 1741      6E6F776E 
 1741      20766172 
 1741      6961626C 
 1742              		.section	.text.cliSet,"ax",%progbits
 1743              		.align	2
 1744              		.thumb
 1745              		.thumb_func
 1746              		.type	cliSet, %function
 1747              	cliSet:
 1748              	.LFB71:
 445:.\cli.c       **** 
ARM GAS  C:\Users\csap2972\AppData\Local\Temp\cclUBZwy.s 			page 41


 446:.\cli.c       **** static void cliSet(char *cmdline)
 447:.\cli.c       **** {
 1749              		.loc 1 447 0
 1750              		.cfi_startproc
 1751              		@ args = 0, pretend = 0, frame = 104
 1752              		@ frame_needed = 1, uses_anonymous_args = 0
 1753 0000 90B5     		push	{r4, r7, lr}
 1754              	.LCFI44:
 1755              		.cfi_def_cfa_offset 12
 1756              		.cfi_offset 4, -12
 1757              		.cfi_offset 7, -8
 1758              		.cfi_offset 14, -4
 1759 0002 9BB0     		sub	sp, sp, #108
 1760              	.LCFI45:
 1761              		.cfi_def_cfa_offset 120
 1762 0004 00AF     		add	r7, sp, #0
 1763              	.LCFI46:
 1764              		.cfi_def_cfa_register 7
 1765 0006 7860     		str	r0, [r7, #4]
 448:.\cli.c       ****     uint32_t i;
 449:.\cli.c       ****     uint32_t len;
 450:.\cli.c       ****     const clivalue_t *val;
 451:.\cli.c       ****     float temp;
 452:.\cli.c       ****     char *eqptr = NULL;
 1766              		.loc 1 452 0
 1767 0008 4FF00003 		mov	r3, #0
 1768 000c 3B66     		str	r3, [r7, #96]
 453:.\cli.c       ****     int32_t value = 0;
 1769              		.loc 1 453 0
 1770 000e 4FF00003 		mov	r3, #0
 1771 0012 FB65     		str	r3, [r7, #92]
 454:.\cli.c       ****     float valuef = 0;
 1772              		.loc 1 454 0
 1773 0014 4FF00003 		mov	r3, #0
 1774 0018 BB65     		str	r3, [r7, #88]	@ float
 455:.\cli.c       **** 	char buffer_temp[64];
 456:.\cli.c       **** 
 457:.\cli.c       ****     len = strlen(cmdline);
 1775              		.loc 1 457 0
 1776 001a 7868     		ldr	r0, [r7, #4]
 1777 001c FFF7FEFF 		bl	strlen
 1778 0020 7865     		str	r0, [r7, #84]
 458:.\cli.c       **** 
 459:.\cli.c       ****     if (len == 0 || (len == 1 && cmdline[0] == '*')) {
 1779              		.loc 1 459 0
 1780 0022 7B6D     		ldr	r3, [r7, #84]
 1781 0024 002B     		cmp	r3, #0
 1782 0026 06D0     		beq	.L90
 1783              		.loc 1 459 0 is_stmt 0 discriminator 1
 1784 0028 7B6D     		ldr	r3, [r7, #84]
 1785 002a 012B     		cmp	r3, #1
 1786 002c 48D1     		bne	.L91
 1787 002e 7B68     		ldr	r3, [r7, #4]
 1788 0030 1B78     		ldrb	r3, [r3, #0]	@ zero_extendqisi2
 1789 0032 2A2B     		cmp	r3, #42
 1790 0034 44D1     		bne	.L91
 1791              	.L90:
ARM GAS  C:\Users\csap2972\AppData\Local\Temp\cclUBZwy.s 			page 42


 460:.\cli.c       ****         cliPrint("Current settings: \r\n");
 1792              		.loc 1 460 0 is_stmt 1
 1793 0036 40F20000 		movw	r0, #:lower16:.LC31
 1794 003a C0F20000 		movt	r0, #:upper16:.LC31
 1795 003e FFF7FEFF 		bl	cliPrint
 461:.\cli.c       ****         for (i = 0; i < VALUE_COUNT; i++) {
 1796              		.loc 1 461 0
 1797 0042 4FF00003 		mov	r3, #0
 1798 0046 7B66     		str	r3, [r7, #100]
 1799 0048 36E0     		b	.L92
 1800              	.L93:
 462:.\cli.c       ****             val = &valueTable[i];
 1801              		.loc 1 462 0 discriminator 2
 1802 004a 7A6E     		ldr	r2, [r7, #100]
 1803 004c 1346     		mov	r3, r2
 1804 004e 4FEA8303 		lsl	r3, r3, #2
 1805 0052 9B18     		adds	r3, r3, r2
 1806 0054 4FEA8303 		lsl	r3, r3, #2
 1807 0058 40F20002 		movw	r2, #:lower16:valueTable
 1808 005c C0F20002 		movt	r2, #:upper16:valueTable
 1809 0060 9B18     		adds	r3, r3, r2
 1810 0062 3B65     		str	r3, [r7, #80]
 463:.\cli.c       ****             sprintf(buffer_temp, "%s = ", valueTable[i].name);
 1811              		.loc 1 463 0 discriminator 2
 1812 0064 40F20002 		movw	r2, #:lower16:valueTable
 1813 0068 C0F20002 		movt	r2, #:upper16:valueTable
 1814 006c 796E     		ldr	r1, [r7, #100]
 1815 006e 0B46     		mov	r3, r1
 1816 0070 4FEA8303 		lsl	r3, r3, #2
 1817 0074 5B18     		adds	r3, r3, r1
 1818 0076 4FEA8303 		lsl	r3, r3, #2
 1819 007a D318     		adds	r3, r2, r3
 1820 007c 1B68     		ldr	r3, [r3, #0]
 1821 007e 07F10C02 		add	r2, r7, #12
 1822 0082 1046     		mov	r0, r2
 1823 0084 40F20001 		movw	r1, #:lower16:.LC32
 1824 0088 C0F20001 		movt	r1, #:upper16:.LC32
 1825 008c 1A46     		mov	r2, r3
 1826 008e FFF7FEFF 		bl	sprintf
 464:.\cli.c       **** 			cliPrint(buffer_temp);
 1827              		.loc 1 464 0 discriminator 2
 1828 0092 07F10C03 		add	r3, r7, #12
 1829 0096 1846     		mov	r0, r3
 1830 0098 FFF7FEFF 		bl	cliPrint
 465:.\cli.c       ****             cliPrintVar(val, len); // when len is 1 (when * is passed as argument), it will print m
 1831              		.loc 1 465 0 discriminator 2
 1832 009c 386D     		ldr	r0, [r7, #80]
 1833 009e 796D     		ldr	r1, [r7, #84]
 1834 00a0 FFF7FEFF 		bl	cliPrintVar
 466:.\cli.c       ****             cliPrint("\r\n");
 1835              		.loc 1 466 0 discriminator 2
 1836 00a4 40F20000 		movw	r0, #:lower16:.LC33
 1837 00a8 C0F20000 		movt	r0, #:upper16:.LC33
 1838 00ac FFF7FEFF 		bl	cliPrint
 461:.\cli.c       ****         for (i = 0; i < VALUE_COUNT; i++) {
 1839              		.loc 1 461 0 discriminator 2
 1840 00b0 7B6E     		ldr	r3, [r7, #100]
ARM GAS  C:\Users\csap2972\AppData\Local\Temp\cclUBZwy.s 			page 43


 1841 00b2 03F10103 		add	r3, r3, #1
 1842 00b6 7B66     		str	r3, [r7, #100]
 1843              	.L92:
 461:.\cli.c       ****         for (i = 0; i < VALUE_COUNT; i++) {
 1844              		.loc 1 461 0 is_stmt 0 discriminator 1
 1845 00b8 7B6E     		ldr	r3, [r7, #100]
 1846 00ba 072B     		cmp	r3, #7
 1847 00bc C5D9     		bls	.L93
 459:.\cli.c       ****     if (len == 0 || (len == 1 && cmdline[0] == '*')) {
 1848              		.loc 1 459 0 is_stmt 1
 1849 00be 56E1     		b	.L89
 1850              	.L91:
 467:.\cli.c       ****         }
 468:.\cli.c       ****     } else if ((eqptr = strstr(cmdline, "=")) != NULL) {
 1851              		.loc 1 468 0
 1852 00c0 7868     		ldr	r0, [r7, #4]
 1853 00c2 4FF03D01 		mov	r1, #61
 1854 00c6 FFF7FEFF 		bl	strchr
 1855 00ca 3866     		str	r0, [r7, #96]
 1856 00cc 3B6E     		ldr	r3, [r7, #96]
 1857 00ce 002B     		cmp	r3, #0
 1858 00d0 00F0FA80 		beq	.L95
 469:.\cli.c       ****         // has equal, set var
 470:.\cli.c       ****         eqptr++;
 1859              		.loc 1 470 0
 1860 00d4 3B6E     		ldr	r3, [r7, #96]
 1861 00d6 03F10103 		add	r3, r3, #1
 1862 00da 3B66     		str	r3, [r7, #96]
 471:.\cli.c       ****         len--;
 1863              		.loc 1 471 0
 1864 00dc 7B6D     		ldr	r3, [r7, #84]
 1865 00de 03F1FF33 		add	r3, r3, #-1
 1866 00e2 7B65     		str	r3, [r7, #84]
 472:.\cli.c       ****         value = atoi(eqptr);
 1867              		.loc 1 472 0
 1868 00e4 386E     		ldr	r0, [r7, #96]
 1869 00e6 FFF7FEFF 		bl	atoi
 1870 00ea F865     		str	r0, [r7, #92]
 473:.\cli.c       ****         valuef = _atof(eqptr);
 1871              		.loc 1 473 0
 1872 00ec 386E     		ldr	r0, [r7, #96]
 1873 00ee FFF7FEFF 		bl	_atof
 1874 00f2 B865     		str	r0, [r7, #88]	@ float
 474:.\cli.c       ****         for (i = 0; i < VALUE_COUNT; i++) {
 1875              		.loc 1 474 0
 1876 00f4 4FF00003 		mov	r3, #0
 1877 00f8 7B66     		str	r3, [r7, #100]
 1878 00fa DAE0     		b	.L96
 1879              	.L106:
 475:.\cli.c       ****             val = &valueTable[i];
 1880              		.loc 1 475 0
 1881 00fc 7A6E     		ldr	r2, [r7, #100]
 1882 00fe 1346     		mov	r3, r2
 1883 0100 4FEA8303 		lsl	r3, r3, #2
 1884 0104 9B18     		adds	r3, r3, r2
 1885 0106 4FEA8303 		lsl	r3, r3, #2
 1886 010a 40F20002 		movw	r2, #:lower16:valueTable
ARM GAS  C:\Users\csap2972\AppData\Local\Temp\cclUBZwy.s 			page 44


 1887 010e C0F20002 		movt	r2, #:upper16:valueTable
 1888 0112 9B18     		adds	r3, r3, r2
 1889 0114 3B65     		str	r3, [r7, #80]
 476:.\cli.c       ****             if (strncasecmp(cmdline, valueTable[i].name, strlen(valueTable[i].name)) == 0) {
 1890              		.loc 1 476 0
 1891 0116 40F20002 		movw	r2, #:lower16:valueTable
 1892 011a C0F20002 		movt	r2, #:upper16:valueTable
 1893 011e 796E     		ldr	r1, [r7, #100]
 1894 0120 0B46     		mov	r3, r1
 1895 0122 4FEA8303 		lsl	r3, r3, #2
 1896 0126 5B18     		adds	r3, r3, r1
 1897 0128 4FEA8303 		lsl	r3, r3, #2
 1898 012c D318     		adds	r3, r2, r3
 1899 012e 1C68     		ldr	r4, [r3, #0]
 1900 0130 40F20002 		movw	r2, #:lower16:valueTable
 1901 0134 C0F20002 		movt	r2, #:upper16:valueTable
 1902 0138 796E     		ldr	r1, [r7, #100]
 1903 013a 0B46     		mov	r3, r1
 1904 013c 4FEA8303 		lsl	r3, r3, #2
 1905 0140 5B18     		adds	r3, r3, r1
 1906 0142 4FEA8303 		lsl	r3, r3, #2
 1907 0146 D318     		adds	r3, r2, r3
 1908 0148 1B68     		ldr	r3, [r3, #0]
 1909 014a 1846     		mov	r0, r3
 1910 014c FFF7FEFF 		bl	strlen
 1911 0150 0346     		mov	r3, r0
 1912 0152 7868     		ldr	r0, [r7, #4]
 1913 0154 2146     		mov	r1, r4
 1914 0156 1A46     		mov	r2, r3
 1915 0158 FFF7FEFF 		bl	strncasecmp
 1916 015c 0346     		mov	r3, r0
 1917 015e 002B     		cmp	r3, #0
 1918 0160 40F0A380 		bne	.L97
 477:.\cli.c       ****                 if (valuef >= (float)valueTable[i].min && valuef <= (float)valueTable[i].max) { // 
 1919              		.loc 1 477 0
 1920 0164 40F20002 		movw	r2, #:lower16:valueTable
 1921 0168 C0F20002 		movt	r2, #:upper16:valueTable
 1922 016c 796E     		ldr	r1, [r7, #100]
 1923 016e 0B46     		mov	r3, r1
 1924 0170 4FEA8303 		lsl	r3, r3, #2
 1925 0174 5B18     		adds	r3, r3, r1
 1926 0176 4FEA8303 		lsl	r3, r3, #2
 1927 017a D318     		adds	r3, r2, r3
 1928 017c 03F10C03 		add	r3, r3, #12
 1929 0180 1B68     		ldr	r3, [r3, #0]
 1930 0182 1846     		mov	r0, r3
 1931 0184 FFF7FEFF 		bl	__aeabi_i2f
 1932 0188 0346     		mov	r3, r0
 1933 018a 1846     		mov	r0, r3
 1934 018c B96D     		ldr	r1, [r7, #88]	@ float
 1935 018e FFF7FEFF 		bl	__aeabi_fcmple
 1936 0192 0346     		mov	r3, r0
 1937 0194 002B     		cmp	r3, #0
 1938 0196 00F08180 		beq	.L98
 1939              	.L110:
 1940              		.loc 1 477 0 is_stmt 0 discriminator 1
 1941 019a 40F20002 		movw	r2, #:lower16:valueTable
ARM GAS  C:\Users\csap2972\AppData\Local\Temp\cclUBZwy.s 			page 45


 1942 019e C0F20002 		movt	r2, #:upper16:valueTable
 1943 01a2 796E     		ldr	r1, [r7, #100]
 1944 01a4 0B46     		mov	r3, r1
 1945 01a6 4FEA8303 		lsl	r3, r3, #2
 1946 01aa 5B18     		adds	r3, r3, r1
 1947 01ac 4FEA8303 		lsl	r3, r3, #2
 1948 01b0 D318     		adds	r3, r2, r3
 1949 01b2 03F11003 		add	r3, r3, #16
 1950 01b6 1B68     		ldr	r3, [r3, #0]
 1951 01b8 1846     		mov	r0, r3
 1952 01ba FFF7FEFF 		bl	__aeabi_i2f
 1953 01be 0346     		mov	r3, r0
 1954 01c0 1846     		mov	r0, r3
 1955 01c2 B96D     		ldr	r1, [r7, #88]	@ float
 1956 01c4 FFF7FEFF 		bl	__aeabi_fcmpge
 1957 01c8 0346     		mov	r3, r0
 1958 01ca 002B     		cmp	r3, #0
 1959 01cc 66D0     		beq	.L98
 1960              	.L111:
 1961              	.LBB4:
 478:.\cli.c       ****                     int_float_value_t tmp;
 479:.\cli.c       ****                     if (valueTable[i].type == VAR_FLOAT || ((valueTable[i].type >= VAR_INT1DECIMALS
 1962              		.loc 1 479 0 is_stmt 1
 1963 01ce 40F20002 		movw	r2, #:lower16:valueTable
 1964 01d2 C0F20002 		movt	r2, #:upper16:valueTable
 1965 01d6 796E     		ldr	r1, [r7, #100]
 1966 01d8 0B46     		mov	r3, r1
 1967 01da 4FEA8303 		lsl	r3, r3, #2
 1968 01de 5B18     		adds	r3, r3, r1
 1969 01e0 4FEA8303 		lsl	r3, r3, #2
 1970 01e4 D318     		adds	r3, r2, r3
 1971 01e6 1B79     		ldrb	r3, [r3, #4]	@ zero_extendqisi2
 1972 01e8 052B     		cmp	r3, #5
 1973 01ea 1DD0     		beq	.L101
 1974              		.loc 1 479 0 is_stmt 0 discriminator 1
 1975 01ec 40F20002 		movw	r2, #:lower16:valueTable
 1976 01f0 C0F20002 		movt	r2, #:upper16:valueTable
 1977 01f4 796E     		ldr	r1, [r7, #100]
 1978 01f6 0B46     		mov	r3, r1
 1979 01f8 4FEA8303 		lsl	r3, r3, #2
 1980 01fc 5B18     		adds	r3, r3, r1
 1981 01fe 4FEA8303 		lsl	r3, r3, #2
 1982 0202 D318     		adds	r3, r2, r3
 1983 0204 1B79     		ldrb	r3, [r3, #4]	@ zero_extendqisi2
 1984 0206 0A2B     		cmp	r3, #10
 1985 0208 11D9     		bls	.L102
 1986 020a 40F20002 		movw	r2, #:lower16:valueTable
 1987 020e C0F20002 		movt	r2, #:upper16:valueTable
 1988 0212 796E     		ldr	r1, [r7, #100]
 1989 0214 0B46     		mov	r3, r1
 1990 0216 4FEA8303 		lsl	r3, r3, #2
 1991 021a 5B18     		adds	r3, r3, r1
 1992 021c 4FEA8303 		lsl	r3, r3, #2
 1993 0220 D318     		adds	r3, r2, r3
 1994 0222 1B79     		ldrb	r3, [r3, #4]	@ zero_extendqisi2
 1995 0224 0E2B     		cmp	r3, #14
 1996 0226 02D8     		bhi	.L102
ARM GAS  C:\Users\csap2972\AppData\Local\Temp\cclUBZwy.s 			page 46


 1997              	.L101:
 480:.\cli.c       ****                         tmp.float_value = valuef;
 1998              		.loc 1 480 0 is_stmt 1
 1999 0228 BB6D     		ldr	r3, [r7, #88]	@ float
 2000 022a BB60     		str	r3, [r7, #8]	@ float
 2001 022c 01E0     		b	.L103
 2002              	.L102:
 481:.\cli.c       ****                     else
 482:.\cli.c       ****                         tmp.int_value = value;
 2003              		.loc 1 482 0
 2004 022e FB6D     		ldr	r3, [r7, #92]
 2005 0230 BB60     		str	r3, [r7, #8]
 2006              	.L103:
 483:.\cli.c       ****                     cliSetVar(val, tmp);
 2007              		.loc 1 483 0
 2008 0232 386D     		ldr	r0, [r7, #80]
 2009 0234 B968     		ldr	r1, [r7, #8]
 2010 0236 FFF7FEFF 		bl	cliSetVar
 484:.\cli.c       ****                     temp = *(int *)val->ptr;
 2011              		.loc 1 484 0
 2012 023a 3B6D     		ldr	r3, [r7, #80]
 2013 023c 9B68     		ldr	r3, [r3, #8]
 2014 023e 1B68     		ldr	r3, [r3, #0]
 2015 0240 1846     		mov	r0, r3
 2016 0242 FFF7FEFF 		bl	__aeabi_i2f
 2017 0246 0346     		mov	r3, r0
 2018 0248 FB64     		str	r3, [r7, #76]	@ float
 485:.\cli.c       ****                     temp++;
 2019              		.loc 1 485 0
 2020 024a F86C     		ldr	r0, [r7, #76]	@ float
 2021 024c 4FF07E51 		mov	r1, #1065353216
 2022 0250 FFF7FEFF 		bl	__aeabi_fadd
 2023 0254 0346     		mov	r3, r0
 2024 0256 FB64     		str	r3, [r7, #76]	@ float
 486:.\cli.c       ****                     sprintf(buffer_temp, "%s set to ", valueTable[i].name);
 2025              		.loc 1 486 0
 2026 0258 40F20002 		movw	r2, #:lower16:valueTable
 2027 025c C0F20002 		movt	r2, #:upper16:valueTable
 2028 0260 796E     		ldr	r1, [r7, #100]
 2029 0262 0B46     		mov	r3, r1
 2030 0264 4FEA8303 		lsl	r3, r3, #2
 2031 0268 5B18     		adds	r3, r3, r1
 2032 026a 4FEA8303 		lsl	r3, r3, #2
 2033 026e D318     		adds	r3, r2, r3
 2034 0270 1B68     		ldr	r3, [r3, #0]
 2035 0272 07F10C02 		add	r2, r7, #12
 2036 0276 1046     		mov	r0, r2
 2037 0278 40F20001 		movw	r1, #:lower16:.LC34
 2038 027c C0F20001 		movt	r1, #:upper16:.LC34
 2039 0280 1A46     		mov	r2, r3
 2040 0282 FFF7FEFF 		bl	sprintf
 487:.\cli.c       **** 					cliPrint(buffer_temp);
 2041              		.loc 1 487 0
 2042 0286 07F10C03 		add	r3, r7, #12
 2043 028a 1846     		mov	r0, r3
 2044 028c FFF7FEFF 		bl	cliPrint
 488:.\cli.c       ****                     cliPrintVar(val, 0);
ARM GAS  C:\Users\csap2972\AppData\Local\Temp\cclUBZwy.s 			page 47


 2045              		.loc 1 488 0
 2046 0290 386D     		ldr	r0, [r7, #80]
 2047 0292 4FF00001 		mov	r1, #0
 2048 0296 FFF7FEFF 		bl	cliPrintVar
 2049              	.LBE4:
 477:.\cli.c       ****                 if (valuef >= (float)valueTable[i].min && valuef <= (float)valueTable[i].max) { // 
 2050              		.loc 1 477 0
 2051 029a 68E0     		b	.L89
 2052              	.L98:
 489:.\cli.c       ****                 } else {
 490:.\cli.c       ****                     cliPrint("ERR: Value assignment out of range\r\n");
 2053              		.loc 1 490 0
 2054 029c 40F20000 		movw	r0, #:lower16:.LC35
 2055 02a0 C0F20000 		movt	r0, #:upper16:.LC35
 2056 02a4 FFF7FEFF 		bl	cliPrint
 2057 02a8 61E0     		b	.L89
 2058              	.L97:
 474:.\cli.c       ****         for (i = 0; i < VALUE_COUNT; i++) {
 2059              		.loc 1 474 0
 2060 02aa 7B6E     		ldr	r3, [r7, #100]
 2061 02ac 03F10103 		add	r3, r3, #1
 2062 02b0 7B66     		str	r3, [r7, #100]
 2063              	.L96:
 474:.\cli.c       ****         for (i = 0; i < VALUE_COUNT; i++) {
 2064              		.loc 1 474 0 is_stmt 0 discriminator 1
 2065 02b2 7B6E     		ldr	r3, [r7, #100]
 2066 02b4 072B     		cmp	r3, #7
 2067 02b6 7FF621AF 		bls	.L106
 491:.\cli.c       ****                 }
 492:.\cli.c       ****                 return;
 493:.\cli.c       ****             }
 494:.\cli.c       ****         }
 495:.\cli.c       ****         cliPrint("ERR: Unknown variable name\r\n");
 2068              		.loc 1 495 0 is_stmt 1
 2069 02ba 40F20000 		movw	r0, #:lower16:.LC36
 2070 02be C0F20000 		movt	r0, #:upper16:.LC36
 2071 02c2 FFF7FEFF 		bl	cliPrint
 2072 02c6 52E0     		b	.L89
 2073              	.L95:
 496:.\cli.c       ****     } else {
 497:.\cli.c       ****         // no equals, check for matching variables.
 498:.\cli.c       ****         for (i = 0; i < VALUE_COUNT; i++) {
 2074              		.loc 1 498 0
 2075 02c8 4FF00003 		mov	r3, #0
 2076 02cc 7B66     		str	r3, [r7, #100]
 2077 02ce 4BE0     		b	.L107
 2078              	.L109:
 499:.\cli.c       ****             if (strstr(valueTable[i].name, cmdline)) {
 2079              		.loc 1 499 0
 2080 02d0 40F20002 		movw	r2, #:lower16:valueTable
 2081 02d4 C0F20002 		movt	r2, #:upper16:valueTable
 2082 02d8 796E     		ldr	r1, [r7, #100]
 2083 02da 0B46     		mov	r3, r1
 2084 02dc 4FEA8303 		lsl	r3, r3, #2
 2085 02e0 5B18     		adds	r3, r3, r1
 2086 02e2 4FEA8303 		lsl	r3, r3, #2
 2087 02e6 D318     		adds	r3, r2, r3
ARM GAS  C:\Users\csap2972\AppData\Local\Temp\cclUBZwy.s 			page 48


 2088 02e8 1B68     		ldr	r3, [r3, #0]
 2089 02ea 1846     		mov	r0, r3
 2090 02ec 7968     		ldr	r1, [r7, #4]
 2091 02ee FFF7FEFF 		bl	strstr
 2092 02f2 0346     		mov	r3, r0
 2093 02f4 002B     		cmp	r3, #0
 2094 02f6 33D0     		beq	.L108
 500:.\cli.c       ****                 val = &valueTable[i];
 2095              		.loc 1 500 0
 2096 02f8 7A6E     		ldr	r2, [r7, #100]
 2097 02fa 1346     		mov	r3, r2
 2098 02fc 4FEA8303 		lsl	r3, r3, #2
 2099 0300 9B18     		adds	r3, r3, r2
 2100 0302 4FEA8303 		lsl	r3, r3, #2
 2101 0306 40F20002 		movw	r2, #:lower16:valueTable
 2102 030a C0F20002 		movt	r2, #:upper16:valueTable
 2103 030e 9B18     		adds	r3, r3, r2
 2104 0310 3B65     		str	r3, [r7, #80]
 501:.\cli.c       ****                 sprintf(buffer_temp, "%s = ", valueTable[i].name);
 2105              		.loc 1 501 0
 2106 0312 40F20002 		movw	r2, #:lower16:valueTable
 2107 0316 C0F20002 		movt	r2, #:upper16:valueTable
 2108 031a 796E     		ldr	r1, [r7, #100]
 2109 031c 0B46     		mov	r3, r1
 2110 031e 4FEA8303 		lsl	r3, r3, #2
 2111 0322 5B18     		adds	r3, r3, r1
 2112 0324 4FEA8303 		lsl	r3, r3, #2
 2113 0328 D318     		adds	r3, r2, r3
 2114 032a 1B68     		ldr	r3, [r3, #0]
 2115 032c 07F10C02 		add	r2, r7, #12
 2116 0330 1046     		mov	r0, r2
 2117 0332 40F20001 		movw	r1, #:lower16:.LC32
 2118 0336 C0F20001 		movt	r1, #:upper16:.LC32
 2119 033a 1A46     		mov	r2, r3
 2120 033c FFF7FEFF 		bl	sprintf
 502:.\cli.c       **** 				cliPrint(buffer_temp);
 2121              		.loc 1 502 0
 2122 0340 07F10C03 		add	r3, r7, #12
 2123 0344 1846     		mov	r0, r3
 2124 0346 FFF7FEFF 		bl	cliPrint
 503:.\cli.c       ****                 cliPrintVar(val, 0);
 2125              		.loc 1 503 0
 2126 034a 386D     		ldr	r0, [r7, #80]
 2127 034c 4FF00001 		mov	r1, #0
 2128 0350 FFF7FEFF 		bl	cliPrintVar
 504:.\cli.c       ****                 cliPrint("\r\n");
 2129              		.loc 1 504 0
 2130 0354 40F20000 		movw	r0, #:lower16:.LC33
 2131 0358 C0F20000 		movt	r0, #:upper16:.LC33
 2132 035c FFF7FEFF 		bl	cliPrint
 2133              	.L108:
 498:.\cli.c       ****         for (i = 0; i < VALUE_COUNT; i++) {
 2134              		.loc 1 498 0
 2135 0360 7B6E     		ldr	r3, [r7, #100]
 2136 0362 03F10103 		add	r3, r3, #1
 2137 0366 7B66     		str	r3, [r7, #100]
 2138              	.L107:
ARM GAS  C:\Users\csap2972\AppData\Local\Temp\cclUBZwy.s 			page 49


 498:.\cli.c       ****         for (i = 0; i < VALUE_COUNT; i++) {
 2139              		.loc 1 498 0 is_stmt 0 discriminator 1
 2140 0368 7B6E     		ldr	r3, [r7, #100]
 2141 036a 072B     		cmp	r3, #7
 2142 036c B0D9     		bls	.L109
 2143              	.L89:
 505:.\cli.c       ****             }
 506:.\cli.c       ****         }
 507:.\cli.c       ****     }
 508:.\cli.c       **** }
 2144              		.loc 1 508 0 is_stmt 1
 2145 036e 07F16C07 		add	r7, r7, #108
 2146 0372 BD46     		mov	sp, r7
 2147 0374 90BD     		pop	{r4, r7, pc}
 2148              		.cfi_endproc
 2149              	.LFE71:
 2150              		.size	cliSet, .-cliSet
 2151 0376 00BF     		.section	.rodata
 2152 02fd 000000   		.align	2
 2153              	.LC37:
 2154 0300 54656D70 		.ascii	"Temperature: \000"
 2154      65726174 
 2154      7572653A 
 2154      2000
 2155 030e 0000     		.align	2
 2156              	.LC38:
 2157 0310 0D0A5365 		.ascii	"\015\012Setpoint: \000"
 2157      74706F69 
 2157      6E743A20 
 2157      00
 2158 031d 000000   		.align	2
 2159              	.LC39:
 2160 0320 0D0A4661 		.ascii	"\015\012Faults: \000"
 2160      756C7473 
 2160      3A2000
 2161 032b 00       		.align	2
 2162              	.LC40:
 2163 032c 25640D0A 		.ascii	"%d\015\012\000"
 2163      00
 2164 0331 000000   		.align	2
 2165              	.LC41:
 2166 0334 492D7465 		.ascii	"I-term: %d\015\012\000"
 2166      726D3A20 
 2166      25640D0A 
 2166      00
 2167 0341 000000   		.align	2
 2168              	.LC42:
 2169 0344 77696E64 		.ascii	"windup: %d\015\012\000"
 2169      75703A20 
 2169      25640D0A 
 2169      00
 2170 0351 000000   		.align	2
 2171              	.LC43:
 2172 0354 44414320 		.ascii	"DAC Offset: %d\000"
 2172      4F666673 
 2172      65743A20 
 2172      256400
ARM GAS  C:\Users\csap2972\AppData\Local\Temp\cclUBZwy.s 			page 50


 2173              		.section	.text.cliStatus,"ax",%progbits
 2174              		.align	2
 2175              		.thumb
 2176              		.thumb_func
 2177              		.type	cliStatus, %function
 2178              	cliStatus:
 2179              	.LFB72:
 509:.\cli.c       **** 
 510:.\cli.c       **** static void cliStatus(char *cmdline)
 511:.\cli.c       **** {
 2180              		.loc 1 511 0
 2181              		.cfi_startproc
 2182              		@ args = 0, pretend = 0, frame = 80
 2183              		@ frame_needed = 1, uses_anonymous_args = 0
 2184 0000 80B5     		push	{r7, lr}
 2185              	.LCFI47:
 2186              		.cfi_def_cfa_offset 8
 2187              		.cfi_offset 7, -8
 2188              		.cfi_offset 14, -4
 2189 0002 94B0     		sub	sp, sp, #80
 2190              	.LCFI48:
 2191              		.cfi_def_cfa_offset 88
 2192 0004 00AF     		add	r7, sp, #0
 2193              	.LCFI49:
 2194              		.cfi_def_cfa_register 7
 2195 0006 7860     		str	r0, [r7, #4]
 512:.\cli.c       **** 	char buf[8];
 513:.\cli.c       **** 	char buffer_temp[64];
 514:.\cli.c       **** 	cliPrint("Temperature: ");
 2196              		.loc 1 514 0
 2197 0008 40F20000 		movw	r0, #:lower16:.LC37
 2198 000c C0F20000 		movt	r0, #:upper16:.LC37
 2199 0010 FFF7FEFF 		bl	cliPrint
 515:.\cli.c       **** 	cliPrint(ftoa(Temperature, buf));
 2200              		.loc 1 515 0
 2201 0014 40F20003 		movw	r3, #:lower16:Temperature
 2202 0018 C0F20003 		movt	r3, #:upper16:Temperature
 2203 001c 1A68     		ldr	r2, [r3, #0]	@ float
 2204 001e 07F14803 		add	r3, r7, #72
 2205 0022 1046     		mov	r0, r2
 2206 0024 1946     		mov	r1, r3
 2207 0026 FFF7FEFF 		bl	ftoa
 2208 002a 0346     		mov	r3, r0
 2209 002c 1846     		mov	r0, r3
 2210 002e FFF7FEFF 		bl	cliPrint
 516:.\cli.c       ****     cliPrint("\r\nSetpoint: ");
 2211              		.loc 1 516 0
 2212 0032 40F20000 		movw	r0, #:lower16:.LC38
 2213 0036 C0F20000 		movt	r0, #:upper16:.LC38
 2214 003a FFF7FEFF 		bl	cliPrint
 517:.\cli.c       ****     cliPrint(ftoa((float)setpoint/100.0f,buf));
 2215              		.loc 1 517 0
 2216 003e 40F20003 		movw	r3, #:lower16:setpoint
 2217 0042 C0F20003 		movt	r3, #:upper16:setpoint
 2218 0046 1B68     		ldr	r3, [r3, #0]
 2219 0048 1846     		mov	r0, r3
 2220 004a FFF7FEFF 		bl	__aeabi_i2f
ARM GAS  C:\Users\csap2972\AppData\Local\Temp\cclUBZwy.s 			page 51


 2221 004e 0346     		mov	r3, r0
 2222 0050 1846     		mov	r0, r3
 2223 0052 4FF00001 		mov	r1, #0
 2224 0056 C4F2C821 		movt	r1, 17096
 2225 005a FFF7FEFF 		bl	__aeabi_fdiv
 2226 005e 0346     		mov	r3, r0
 2227 0060 1A46     		mov	r2, r3
 2228 0062 07F14803 		add	r3, r7, #72
 2229 0066 1046     		mov	r0, r2
 2230 0068 1946     		mov	r1, r3
 2231 006a FFF7FEFF 		bl	ftoa
 2232 006e 0346     		mov	r3, r0
 2233 0070 1846     		mov	r0, r3
 2234 0072 FFF7FEFF 		bl	cliPrint
 518:.\cli.c       **** 	cliPrint("\r\nFaults: ");
 2235              		.loc 1 518 0
 2236 0076 40F20000 		movw	r0, #:lower16:.LC39
 2237 007a C0F20000 		movt	r0, #:upper16:.LC39
 2238 007e FFF7FEFF 		bl	cliPrint
 519:.\cli.c       **** 	sprintf(buffer_temp, "%d\r\n",(unsigned int)eventcounter);
 2239              		.loc 1 519 0
 2240 0082 40F20003 		movw	r3, #:lower16:eventcounter
 2241 0086 C0F20003 		movt	r3, #:upper16:eventcounter
 2242 008a 1B68     		ldr	r3, [r3, #0]
 2243 008c 07F10802 		add	r2, r7, #8
 2244 0090 1046     		mov	r0, r2
 2245 0092 40F20001 		movw	r1, #:lower16:.LC40
 2246 0096 C0F20001 		movt	r1, #:upper16:.LC40
 2247 009a 1A46     		mov	r2, r3
 2248 009c FFF7FEFF 		bl	sprintf
 520:.\cli.c       **** 	cliPrint(buffer_temp);
 2249              		.loc 1 520 0
 2250 00a0 07F10803 		add	r3, r7, #8
 2251 00a4 1846     		mov	r0, r3
 2252 00a6 FFF7FEFF 		bl	cliPrint
 521:.\cli.c       ****     sprintf(buffer_temp, "I-term: %d\r\n",(int)pid1.Iterm);
 2253              		.loc 1 521 0
 2254 00aa 40F20003 		movw	r3, #:lower16:pid1
 2255 00ae C0F20003 		movt	r3, #:upper16:pid1
 2256 00b2 DB68     		ldr	r3, [r3, #12]
 2257 00b4 07F10802 		add	r2, r7, #8
 2258 00b8 1046     		mov	r0, r2
 2259 00ba 40F20001 		movw	r1, #:lower16:.LC41
 2260 00be C0F20001 		movt	r1, #:upper16:.LC41
 2261 00c2 1A46     		mov	r2, r3
 2262 00c4 FFF7FEFF 		bl	sprintf
 522:.\cli.c       ****     cliPrint(buffer_temp);
 2263              		.loc 1 522 0
 2264 00c8 07F10803 		add	r3, r7, #8
 2265 00cc 1846     		mov	r0, r3
 2266 00ce FFF7FEFF 		bl	cliPrint
 523:.\cli.c       ****     sprintf(buffer_temp, "windup: %d\r\n",(int)pid1.windup);
 2267              		.loc 1 523 0
 2268 00d2 40F20003 		movw	r3, #:lower16:pid1
 2269 00d6 C0F20003 		movt	r3, #:upper16:pid1
 2270 00da 5B69     		ldr	r3, [r3, #20]
 2271 00dc 07F10802 		add	r2, r7, #8
ARM GAS  C:\Users\csap2972\AppData\Local\Temp\cclUBZwy.s 			page 52


 2272 00e0 1046     		mov	r0, r2
 2273 00e2 40F20001 		movw	r1, #:lower16:.LC42
 2274 00e6 C0F20001 		movt	r1, #:upper16:.LC42
 2275 00ea 1A46     		mov	r2, r3
 2276 00ec FFF7FEFF 		bl	sprintf
 524:.\cli.c       ****     cliPrint(buffer_temp);
 2277              		.loc 1 524 0
 2278 00f0 07F10803 		add	r3, r7, #8
 2279 00f4 1846     		mov	r0, r3
 2280 00f6 FFF7FEFF 		bl	cliPrint
 525:.\cli.c       ****     sprintf(buffer_temp, "DAC Offset: %d",(int)dac_offset);
 2281              		.loc 1 525 0
 2282 00fa 40F20003 		movw	r3, #:lower16:dac_offset
 2283 00fe C0F20003 		movt	r3, #:upper16:dac_offset
 2284 0102 1B78     		ldrb	r3, [r3, #0]	@ zero_extendqisi2
 2285 0104 07F10802 		add	r2, r7, #8
 2286 0108 1046     		mov	r0, r2
 2287 010a 40F20001 		movw	r1, #:lower16:.LC43
 2288 010e C0F20001 		movt	r1, #:upper16:.LC43
 2289 0112 1A46     		mov	r2, r3
 2290 0114 FFF7FEFF 		bl	sprintf
 526:.\cli.c       ****     cliPrint(buffer_temp);
 2291              		.loc 1 526 0
 2292 0118 07F10803 		add	r3, r7, #8
 2293 011c 1846     		mov	r0, r3
 2294 011e FFF7FEFF 		bl	cliPrint
 527:.\cli.c       **** }
 2295              		.loc 1 527 0
 2296 0122 07F15007 		add	r7, r7, #80
 2297 0126 BD46     		mov	sp, r7
 2298 0128 80BD     		pop	{r7, pc}
 2299              		.cfi_endproc
 2300              	.LFE72:
 2301              		.size	cliStatus, .-cliStatus
 2302 012a 00BF     		.section	.rodata
 2303 0363 00       		.align	2
 2304              	.LC44:
 2305 0364 0D0A456E 		.ascii	"\015\012Entering CLI Mode, type 'exit' to return, o"
 2305      74657269 
 2305      6E672043 
 2305      4C49204D 
 2305      6F64652C 
 2306 0391 72202768 		.ascii	"r 'help'\015\012\000"
 2306      656C7027 
 2306      0D0A00
 2307              		.align	2
 2308              	.LC45:
 2309 039c 0D1B5B4B 		.ascii	"\015\033[K\000"
 2309      00
 2310 03a1 000000   		.align	2
 2311              	.LC46:
 2312 03a4 1B5B324A 		.ascii	"\033[2J\033[1;1H\000"
 2312      1B5B313B 
 2312      314800
 2313 03af 00       		.align	2
 2314              	.LC47:
 2315 03b0 4552523A 		.ascii	"ERR: Unknown command, try 'help'\000"
ARM GAS  C:\Users\csap2972\AppData\Local\Temp\cclUBZwy.s 			page 53


 2315      20556E6B 
 2315      6E6F776E 
 2315      20636F6D 
 2315      6D616E64 
 2316 03d1 000000   		.align	2
 2317              	.LC48:
 2318 03d4 08200800 		.ascii	"\010 \010\000"
 2319              		.section	.text.cliProcess,"ax",%progbits
 2320              		.align	2
 2321              		.global	cliProcess
 2322              		.thumb
 2323              		.thumb_func
 2324              		.type	cliProcess, %function
 2325              	cliProcess:
 2326              	.LFB73:
 528:.\cli.c       **** 
 529:.\cli.c       **** void cliProcess(void)
 530:.\cli.c       **** {
 2327              		.loc 1 530 0
 2328              		.cfi_startproc
 2329              		@ args = 0, pretend = 0, frame = 112
 2330              		@ frame_needed = 1, uses_anonymous_args = 0
 2331 0000 90B5     		push	{r4, r7, lr}
 2332              	.LCFI50:
 2333              		.cfi_def_cfa_offset 12
 2334              		.cfi_offset 4, -12
 2335              		.cfi_offset 7, -8
 2336              		.cfi_offset 14, -4
 2337 0002 9FB0     		sub	sp, sp, #124
 2338              	.LCFI51:
 2339              		.cfi_def_cfa_offset 136
 2340 0004 02AF     		add	r7, sp, #8
 2341              	.LCFI52:
 2342              		.cfi_def_cfa 7, 128
 531:.\cli.c       **** 	int count, i;
 532:.\cli.c       **** 	uint8_t buffer[64];
 533:.\cli.c       **** 	
 534:.\cli.c       ****     if (!cliMode) {
 2343              		.loc 1 534 0
 2344 0006 40F20003 		movw	r3, #:lower16:cliMode
 2345 000a C0F20003 		movt	r3, #:upper16:cliMode
 2346 000e 1B78     		ldrb	r3, [r3, #0]	@ zero_extendqisi2
 2347 0010 002B     		cmp	r3, #0
 2348 0012 0ED1     		bne	.L114
 535:.\cli.c       ****         cliMode = 1;
 2349              		.loc 1 535 0
 2350 0014 40F20003 		movw	r3, #:lower16:cliMode
 2351 0018 C0F20003 		movt	r3, #:upper16:cliMode
 2352 001c 4FF00102 		mov	r2, #1
 2353 0020 1A70     		strb	r2, [r3, #0]
 536:.\cli.c       ****         cliPrint("\r\nEntering CLI Mode, type 'exit' to return, or 'help'\r\n");
 2354              		.loc 1 536 0
 2355 0022 40F20000 		movw	r0, #:lower16:.LC44
 2356 0026 C0F20000 		movt	r0, #:upper16:.LC44
 2357 002a FFF7FEFF 		bl	cliPrint
 537:.\cli.c       ****         cliPrompt();
 2358              		.loc 1 537 0
ARM GAS  C:\Users\csap2972\AppData\Local\Temp\cclUBZwy.s 			page 54


 2359 002e FFF7FEFF 		bl	cliPrompt
 2360              	.L114:
 538:.\cli.c       ****     }
 539:.\cli.c       **** 	
 540:.\cli.c       **** 	count = USBUART_1_GetCount();
 2361              		.loc 1 540 0
 2362 0032 FFF7FEFF 		bl	USBUART_1_GetCount
 2363 0036 0346     		mov	r3, r0
 2364 0038 BB65     		str	r3, [r7, #88]
 541:.\cli.c       **** 	if(count)
 2365              		.loc 1 541 0
 2366 003a BB6D     		ldr	r3, [r7, #88]
 2367 003c 002B     		cmp	r3, #0
 2368 003e 00F00082 		beq	.L113
 542:.\cli.c       **** 	USBUART_1_GetAll(buffer);
 2369              		.loc 1 542 0
 2370 0042 07F11003 		add	r3, r7, #16
 2371 0046 1846     		mov	r0, r3
 2372 0048 FFF7FEFF 		bl	USBUART_1_GetAll
 543:.\cli.c       **** 	else return;
 544:.\cli.c       **** 		
 545:.\cli.c       **** 	for(i=0; i<count;i++)
 2373              		.loc 1 545 0
 2374 004c 4FF00003 		mov	r3, #0
 2375 0050 FB66     		str	r3, [r7, #108]
 2376 0052 F1E1     		b	.L116
 2377              	.L144:
 2378              	.LBB5:
 546:.\cli.c       **** 	{	
 547:.\cli.c       ****         uint8_t c = buffer[i];
 2379              		.loc 1 547 0
 2380 0054 07F11002 		add	r2, r7, #16
 2381 0058 FB6E     		ldr	r3, [r7, #108]
 2382 005a D318     		adds	r3, r2, r3
 2383 005c 1B78     		ldrb	r3, [r3, #0]
 2384 005e 87F85730 		strb	r3, [r7, #87]
 548:.\cli.c       ****         if (c == '\t' || c == '?') {
 2385              		.loc 1 548 0
 2386 0062 97F85730 		ldrb	r3, [r7, #87]	@ zero_extendqisi2
 2387 0066 092B     		cmp	r3, #9
 2388 0068 04D0     		beq	.L117
 2389              		.loc 1 548 0 is_stmt 0 discriminator 1
 2390 006a 97F85730 		ldrb	r3, [r7, #87]	@ zero_extendqisi2
 2391 006e 3F2B     		cmp	r3, #63
 2392 0070 40F0EA80 		bne	.L118
 2393              	.L117:
 2394              	.LBB6:
 549:.\cli.c       ****             // do tab completion
 550:.\cli.c       ****             const clicmd_t *cmd, *pstart = NULL, *pend = NULL;
 2395              		.loc 1 550 0 is_stmt 1
 2396 0074 4FF00003 		mov	r3, #0
 2397 0078 7B66     		str	r3, [r7, #100]
 2398 007a 4FF00003 		mov	r3, #0
 2399 007e 3B66     		str	r3, [r7, #96]
 551:.\cli.c       ****             int i = bufferIndex;
 2400              		.loc 1 551 0
 2401 0080 40F20003 		movw	r3, #:lower16:bufferIndex
ARM GAS  C:\Users\csap2972\AppData\Local\Temp\cclUBZwy.s 			page 55


 2402 0084 C0F20003 		movt	r3, #:upper16:bufferIndex
 2403 0088 1B68     		ldr	r3, [r3, #0]
 2404 008a FB65     		str	r3, [r7, #92]
 552:.\cli.c       ****             for (cmd = cmdTable; cmd < cmdTable + CMD_COUNT; cmd++) {
 2405              		.loc 1 552 0
 2406 008c 40F20003 		movw	r3, #:lower16:cmdTable
 2407 0090 C0F20003 		movt	r3, #:upper16:cmdTable
 2408 0094 BB66     		str	r3, [r7, #104]
 2409 0096 25E0     		b	.L119
 2410              	.L123:
 553:.\cli.c       ****                 if (bufferIndex && (strncasecmp(cliBuffer, cmd->name, bufferIndex) != 0))
 2411              		.loc 1 553 0
 2412 0098 40F20003 		movw	r3, #:lower16:bufferIndex
 2413 009c C0F20003 		movt	r3, #:upper16:bufferIndex
 2414 00a0 1B68     		ldr	r3, [r3, #0]
 2415 00a2 002B     		cmp	r3, #0
 2416 00a4 11D0     		beq	.L120
 2417              		.loc 1 553 0 is_stmt 0 discriminator 1
 2418 00a6 BB6E     		ldr	r3, [r7, #104]
 2419 00a8 1A68     		ldr	r2, [r3, #0]
 2420 00aa 40F20003 		movw	r3, #:lower16:bufferIndex
 2421 00ae C0F20003 		movt	r3, #:upper16:bufferIndex
 2422 00b2 1B68     		ldr	r3, [r3, #0]
 2423 00b4 40F20000 		movw	r0, #:lower16:cliBuffer
 2424 00b8 C0F20000 		movt	r0, #:upper16:cliBuffer
 2425 00bc 1146     		mov	r1, r2
 2426 00be 1A46     		mov	r2, r3
 2427 00c0 FFF7FEFF 		bl	strncasecmp
 2428 00c4 0346     		mov	r3, r0
 2429 00c6 002B     		cmp	r3, #0
 2430 00c8 07D1     		bne	.L146
 2431              	.L120:
 554:.\cli.c       ****                     continue;
 555:.\cli.c       ****                 if (!pstart)
 2432              		.loc 1 555 0 is_stmt 1
 2433 00ca 7B6E     		ldr	r3, [r7, #100]
 2434 00cc 002B     		cmp	r3, #0
 2435 00ce 01D1     		bne	.L122
 556:.\cli.c       ****                     pstart = cmd;
 2436              		.loc 1 556 0
 2437 00d0 BB6E     		ldr	r3, [r7, #104]
 2438 00d2 7B66     		str	r3, [r7, #100]
 2439              	.L122:
 557:.\cli.c       ****                 pend = cmd;
 2440              		.loc 1 557 0
 2441 00d4 BB6E     		ldr	r3, [r7, #104]
 2442 00d6 3B66     		str	r3, [r7, #96]
 2443 00d8 00E0     		b	.L121
 2444              	.L146:
 554:.\cli.c       ****                     continue;
 2445              		.loc 1 554 0
 2446 00da 00BF     		nop
 2447              	.L121:
 552:.\cli.c       ****             for (cmd = cmdTable; cmd < cmdTable + CMD_COUNT; cmd++) {
 2448              		.loc 1 552 0
 2449 00dc BB6E     		ldr	r3, [r7, #104]
 2450 00de 03F10C03 		add	r3, r3, #12
ARM GAS  C:\Users\csap2972\AppData\Local\Temp\cclUBZwy.s 			page 56


 2451 00e2 BB66     		str	r3, [r7, #104]
 2452              	.L119:
 552:.\cli.c       ****             for (cmd = cmdTable; cmd < cmdTable + CMD_COUNT; cmd++) {
 2453              		.loc 1 552 0 is_stmt 0 discriminator 1
 2454 00e4 BA6E     		ldr	r2, [r7, #104]
 2455 00e6 B74B     		ldr	r3, .L150
 2456 00e8 9A42     		cmp	r2, r3
 2457 00ea D5D3     		bcc	.L123
 558:.\cli.c       ****             }
 559:.\cli.c       ****             if (pstart) {    /* Buffer matches one or more commands */
 2458              		.loc 1 559 0 is_stmt 1
 2459 00ec 7B6E     		ldr	r3, [r7, #100]
 2460 00ee 002B     		cmp	r3, #0
 2461 00f0 66D0     		beq	.L124
 2462              	.L127:
 560:.\cli.c       ****                 for (; ; bufferIndex++) {
 561:.\cli.c       ****                     if (pstart->name[bufferIndex] != pend->name[bufferIndex])
 2463              		.loc 1 561 0
 2464 00f2 7B6E     		ldr	r3, [r7, #100]
 2465 00f4 1A68     		ldr	r2, [r3, #0]
 2466 00f6 40F20003 		movw	r3, #:lower16:bufferIndex
 2467 00fa C0F20003 		movt	r3, #:upper16:bufferIndex
 2468 00fe 1B68     		ldr	r3, [r3, #0]
 2469 0100 D318     		adds	r3, r2, r3
 2470 0102 1A78     		ldrb	r2, [r3, #0]	@ zero_extendqisi2
 2471 0104 3B6E     		ldr	r3, [r7, #96]
 2472 0106 1968     		ldr	r1, [r3, #0]
 2473 0108 40F20003 		movw	r3, #:lower16:bufferIndex
 2474 010c C0F20003 		movt	r3, #:upper16:bufferIndex
 2475 0110 1B68     		ldr	r3, [r3, #0]
 2476 0112 CB18     		adds	r3, r1, r3
 2477 0114 1B78     		ldrb	r3, [r3, #0]	@ zero_extendqisi2
 2478 0116 9A42     		cmp	r2, r3
 2479 0118 51D1     		bne	.L147
 2480              	.L125:
 562:.\cli.c       ****                         break;
 563:.\cli.c       ****                     if (!pstart->name[bufferIndex] && bufferIndex < sizeof(cliBuffer) - 2) {
 2481              		.loc 1 563 0
 2482 011a 7B6E     		ldr	r3, [r7, #100]
 2483 011c 1A68     		ldr	r2, [r3, #0]
 2484 011e 40F20003 		movw	r3, #:lower16:bufferIndex
 2485 0122 C0F20003 		movt	r3, #:upper16:bufferIndex
 2486 0126 1B68     		ldr	r3, [r3, #0]
 2487 0128 D318     		adds	r3, r2, r3
 2488 012a 1B78     		ldrb	r3, [r3, #0]	@ zero_extendqisi2
 2489 012c 002B     		cmp	r3, #0
 2490 012e 26D1     		bne	.L126
 2491              		.loc 1 563 0 is_stmt 0 discriminator 1
 2492 0130 40F20003 		movw	r3, #:lower16:bufferIndex
 2493 0134 C0F20003 		movt	r3, #:upper16:bufferIndex
 2494 0138 1B68     		ldr	r3, [r3, #0]
 2495 013a 2D2B     		cmp	r3, #45
 2496 013c 1FD8     		bhi	.L126
 564:.\cli.c       ****                         /* Unambiguous -- append a space */
 565:.\cli.c       ****                         cliBuffer[bufferIndex++] = ' ';
 2497              		.loc 1 565 0 is_stmt 1
 2498 013e 40F20003 		movw	r3, #:lower16:bufferIndex
ARM GAS  C:\Users\csap2972\AppData\Local\Temp\cclUBZwy.s 			page 57


 2499 0142 C0F20003 		movt	r3, #:upper16:bufferIndex
 2500 0146 1A68     		ldr	r2, [r3, #0]
 2501 0148 40F20003 		movw	r3, #:lower16:cliBuffer
 2502 014c C0F20003 		movt	r3, #:upper16:cliBuffer
 2503 0150 4FF02001 		mov	r1, #32
 2504 0154 9954     		strb	r1, [r3, r2]
 2505 0156 02F10102 		add	r2, r2, #1
 2506 015a 40F20003 		movw	r3, #:lower16:bufferIndex
 2507 015e C0F20003 		movt	r3, #:upper16:bufferIndex
 2508 0162 1A60     		str	r2, [r3, #0]
 566:.\cli.c       ****                         cliBuffer[bufferIndex] = '\0';
 2509              		.loc 1 566 0
 2510 0164 40F20003 		movw	r3, #:lower16:bufferIndex
 2511 0168 C0F20003 		movt	r3, #:upper16:bufferIndex
 2512 016c 1A68     		ldr	r2, [r3, #0]
 2513 016e 40F20003 		movw	r3, #:lower16:cliBuffer
 2514 0172 C0F20003 		movt	r3, #:upper16:cliBuffer
 2515 0176 4FF00001 		mov	r1, #0
 2516 017a 9954     		strb	r1, [r3, r2]
 567:.\cli.c       ****                         break;
 2517              		.loc 1 567 0
 2518 017c 20E0     		b	.L124
 2519              	.L126:
 568:.\cli.c       ****                     }
 569:.\cli.c       ****                     cliBuffer[bufferIndex] = pstart->name[bufferIndex];
 2520              		.loc 1 569 0
 2521 017e 40F20003 		movw	r3, #:lower16:bufferIndex
 2522 0182 C0F20003 		movt	r3, #:upper16:bufferIndex
 2523 0186 1A68     		ldr	r2, [r3, #0]
 2524 0188 7B6E     		ldr	r3, [r7, #100]
 2525 018a 1968     		ldr	r1, [r3, #0]
 2526 018c 40F20003 		movw	r3, #:lower16:bufferIndex
 2527 0190 C0F20003 		movt	r3, #:upper16:bufferIndex
 2528 0194 1B68     		ldr	r3, [r3, #0]
 2529 0196 CB18     		adds	r3, r1, r3
 2530 0198 1978     		ldrb	r1, [r3, #0]	@ zero_extendqisi2
 2531 019a 40F20003 		movw	r3, #:lower16:cliBuffer
 2532 019e C0F20003 		movt	r3, #:upper16:cliBuffer
 2533 01a2 9954     		strb	r1, [r3, r2]
 560:.\cli.c       ****                 for (; ; bufferIndex++) {
 2534              		.loc 1 560 0
 2535 01a4 40F20003 		movw	r3, #:lower16:bufferIndex
 2536 01a8 C0F20003 		movt	r3, #:upper16:bufferIndex
 2537 01ac 1B68     		ldr	r3, [r3, #0]
 2538 01ae 03F10102 		add	r2, r3, #1
 2539 01b2 40F20003 		movw	r3, #:lower16:bufferIndex
 2540 01b6 C0F20003 		movt	r3, #:upper16:bufferIndex
 2541 01ba 1A60     		str	r2, [r3, #0]
 570:.\cli.c       ****                 }
 2542              		.loc 1 570 0
 2543 01bc 99E7     		b	.L127
 2544              	.L147:
 562:.\cli.c       ****                         break;
 2545              		.loc 1 562 0
 2546 01be 00BF     		nop
 2547              	.L124:
 571:.\cli.c       ****             }
ARM GAS  C:\Users\csap2972\AppData\Local\Temp\cclUBZwy.s 			page 58


 572:.\cli.c       ****             if (!bufferIndex || pstart != pend) {
 2548              		.loc 1 572 0
 2549 01c0 40F20003 		movw	r3, #:lower16:bufferIndex
 2550 01c4 C0F20003 		movt	r3, #:upper16:bufferIndex
 2551 01c8 1B68     		ldr	r3, [r3, #0]
 2552 01ca 002B     		cmp	r3, #0
 2553 01cc 03D0     		beq	.L128
 2554              		.loc 1 572 0 is_stmt 0 discriminator 1
 2555 01ce 7A6E     		ldr	r2, [r7, #100]
 2556 01d0 3B6E     		ldr	r3, [r7, #96]
 2557 01d2 9A42     		cmp	r2, r3
 2558 01d4 2ED0     		beq	.L148
 2559              	.L128:
 573:.\cli.c       ****                 /* Print list of ambiguous matches */
 574:.\cli.c       ****                 cliPrint("\r\033[K");
 2560              		.loc 1 574 0 is_stmt 1
 2561 01d6 40F20000 		movw	r0, #:lower16:.LC45
 2562 01da C0F20000 		movt	r0, #:upper16:.LC45
 2563 01de FFF7FEFF 		bl	cliPrint
 575:.\cli.c       ****                 for (cmd = pstart; cmd <= pend; cmd++) {
 2564              		.loc 1 575 0
 2565 01e2 7B6E     		ldr	r3, [r7, #100]
 2566 01e4 BB66     		str	r3, [r7, #104]
 2567 01e6 0CE0     		b	.L130
 2568              	.L131:
 576:.\cli.c       ****                     cliPrint(cmd->name);
 2569              		.loc 1 576 0 discriminator 2
 2570 01e8 BB6E     		ldr	r3, [r7, #104]
 2571 01ea 1B68     		ldr	r3, [r3, #0]
 2572 01ec 1846     		mov	r0, r3
 2573 01ee FFF7FEFF 		bl	cliPrint
 577:.\cli.c       ****                     cliWrite('\t');
 2574              		.loc 1 577 0 discriminator 2
 2575 01f2 4FF00900 		mov	r0, #9
 2576 01f6 FFF7FEFF 		bl	cliWrite
 575:.\cli.c       ****                 for (cmd = pstart; cmd <= pend; cmd++) {
 2577              		.loc 1 575 0 discriminator 2
 2578 01fa BB6E     		ldr	r3, [r7, #104]
 2579 01fc 03F10C03 		add	r3, r3, #12
 2580 0200 BB66     		str	r3, [r7, #104]
 2581              	.L130:
 575:.\cli.c       ****                 for (cmd = pstart; cmd <= pend; cmd++) {
 2582              		.loc 1 575 0 is_stmt 0 discriminator 1
 2583 0202 BA6E     		ldr	r2, [r7, #104]
 2584 0204 3B6E     		ldr	r3, [r7, #96]
 2585 0206 9A42     		cmp	r2, r3
 2586 0208 EED9     		bls	.L131
 578:.\cli.c       ****                 }
 579:.\cli.c       ****                 cliPrompt();
 2587              		.loc 1 579 0 is_stmt 1
 2588 020a FFF7FEFF 		bl	cliPrompt
 580:.\cli.c       ****                 i = 0;    /* Redraw prompt */
 2589              		.loc 1 580 0
 2590 020e 4FF00003 		mov	r3, #0
 2591 0212 FB65     		str	r3, [r7, #92]
 581:.\cli.c       ****             }
 582:.\cli.c       ****             for (; i < bufferIndex; i++)
ARM GAS  C:\Users\csap2972\AppData\Local\Temp\cclUBZwy.s 			page 59


 2592              		.loc 1 582 0
 2593 0214 0EE0     		b	.L148
 2594              	.L133:
 583:.\cli.c       ****                 cliWrite(cliBuffer[i]);
 2595              		.loc 1 583 0 discriminator 2
 2596 0216 40F20003 		movw	r3, #:lower16:cliBuffer
 2597 021a C0F20003 		movt	r3, #:upper16:cliBuffer
 2598 021e FA6D     		ldr	r2, [r7, #92]
 2599 0220 9B18     		adds	r3, r3, r2
 2600 0222 1B78     		ldrb	r3, [r3, #0]	@ zero_extendqisi2
 2601 0224 1846     		mov	r0, r3
 2602 0226 FFF7FEFF 		bl	cliWrite
 582:.\cli.c       ****             for (; i < bufferIndex; i++)
 2603              		.loc 1 582 0 discriminator 2
 2604 022a FB6D     		ldr	r3, [r7, #92]
 2605 022c 03F10103 		add	r3, r3, #1
 2606 0230 FB65     		str	r3, [r7, #92]
 2607 0232 00E0     		b	.L132
 2608              	.L148:
 582:.\cli.c       ****             for (; i < bufferIndex; i++)
 2609              		.loc 1 582 0 is_stmt 0
 2610 0234 00BF     		nop
 2611              	.L132:
 582:.\cli.c       ****             for (; i < bufferIndex; i++)
 2612              		.loc 1 582 0 discriminator 1
 2613 0236 FA6D     		ldr	r2, [r7, #92]
 2614 0238 40F20003 		movw	r3, #:lower16:bufferIndex
 2615 023c C0F20003 		movt	r3, #:upper16:bufferIndex
 2616 0240 1B68     		ldr	r3, [r3, #0]
 2617 0242 9A42     		cmp	r2, r3
 2618 0244 E7D3     		bcc	.L133
 2619              	.LBE6:
 548:.\cli.c       ****         if (c == '\t' || c == '?') {
 2620              		.loc 1 548 0 is_stmt 1
 2621 0246 F3E0     		b	.L134
 2622              	.L118:
 584:.\cli.c       ****         } else if (!bufferIndex && c == 4) {
 2623              		.loc 1 584 0
 2624 0248 40F20003 		movw	r3, #:lower16:bufferIndex
 2625 024c C0F20003 		movt	r3, #:upper16:bufferIndex
 2626 0250 1B68     		ldr	r3, [r3, #0]
 2627 0252 002B     		cmp	r3, #0
 2628 0254 0AD1     		bne	.L135
 2629              		.loc 1 584 0 is_stmt 0 discriminator 1
 2630 0256 97F85730 		ldrb	r3, [r7, #87]	@ zero_extendqisi2
 2631 025a 042B     		cmp	r3, #4
 2632 025c 06D1     		bne	.L135
 585:.\cli.c       ****             cliExit(cliBuffer);
 2633              		.loc 1 585 0 is_stmt 1
 2634 025e 40F20000 		movw	r0, #:lower16:cliBuffer
 2635 0262 C0F20000 		movt	r0, #:upper16:cliBuffer
 2636 0266 FFF7FEFF 		bl	cliExit
 2637 026a EAE0     		b	.L113
 2638              	.L135:
 586:.\cli.c       ****             return;
 587:.\cli.c       ****         } else if (c == 12) {
 2639              		.loc 1 587 0
ARM GAS  C:\Users\csap2972\AppData\Local\Temp\cclUBZwy.s 			page 60


 2640 026c 97F85730 		ldrb	r3, [r7, #87]	@ zero_extendqisi2
 2641 0270 0C2B     		cmp	r3, #12
 2642 0272 08D1     		bne	.L136
 588:.\cli.c       ****             // clear screen
 589:.\cli.c       ****             cliPrint("\033[2J\033[1;1H");
 2643              		.loc 1 589 0
 2644 0274 40F20000 		movw	r0, #:lower16:.LC46
 2645 0278 C0F20000 		movt	r0, #:upper16:.LC46
 2646 027c FFF7FEFF 		bl	cliPrint
 590:.\cli.c       ****             cliPrompt();
 2647              		.loc 1 590 0
 2648 0280 FFF7FEFF 		bl	cliPrompt
 2649 0284 D4E0     		b	.L134
 2650              	.L136:
 591:.\cli.c       ****         } else if (bufferIndex && (c == '\n' || c == '\r')) {
 2651              		.loc 1 591 0
 2652 0286 40F20003 		movw	r3, #:lower16:bufferIndex
 2653 028a C0F20003 		movt	r3, #:upper16:bufferIndex
 2654 028e 1B68     		ldr	r3, [r3, #0]
 2655 0290 002B     		cmp	r3, #0
 2656 0292 6DD0     		beq	.L137
 2657              		.loc 1 591 0 is_stmt 0 discriminator 1
 2658 0294 97F85730 		ldrb	r3, [r7, #87]	@ zero_extendqisi2
 2659 0298 0A2B     		cmp	r3, #10
 2660 029a 03D0     		beq	.L138
 2661 029c 97F85730 		ldrb	r3, [r7, #87]	@ zero_extendqisi2
 2662 02a0 0D2B     		cmp	r3, #13
 2663 02a2 65D1     		bne	.L137
 2664              	.L138:
 2665              	.LBB7:
 592:.\cli.c       ****             // enter pressed
 593:.\cli.c       ****             clicmd_t *cmd = NULL;
 2666              		.loc 1 593 0 is_stmt 1
 2667 02a4 4FF00003 		mov	r3, #0
 2668 02a8 3B65     		str	r3, [r7, #80]
 594:.\cli.c       ****             clicmd_t target;
 595:.\cli.c       ****             cliPrint("\r\n");
 2669              		.loc 1 595 0
 2670 02aa 40F20000 		movw	r0, #:lower16:.LC33
 2671 02ae C0F20000 		movt	r0, #:upper16:.LC33
 2672 02b2 FFF7FEFF 		bl	cliPrint
 596:.\cli.c       ****             cliBuffer[bufferIndex] = 0; // null terminate
 2673              		.loc 1 596 0
 2674 02b6 40F20003 		movw	r3, #:lower16:bufferIndex
 2675 02ba C0F20003 		movt	r3, #:upper16:bufferIndex
 2676 02be 1A68     		ldr	r2, [r3, #0]
 2677 02c0 40F20003 		movw	r3, #:lower16:cliBuffer
 2678 02c4 C0F20003 		movt	r3, #:upper16:cliBuffer
 2679 02c8 4FF00001 		mov	r1, #0
 2680 02cc 9954     		strb	r1, [r3, r2]
 597:.\cli.c       **** 
 598:.\cli.c       ****             target.name = cliBuffer;
 2681              		.loc 1 598 0
 2682 02ce 40F20003 		movw	r3, #:lower16:cliBuffer
 2683 02d2 C0F20003 		movt	r3, #:upper16:cliBuffer
 2684 02d6 7B60     		str	r3, [r7, #4]
 599:.\cli.c       ****             target.param = NULL;
ARM GAS  C:\Users\csap2972\AppData\Local\Temp\cclUBZwy.s 			page 61


 2685              		.loc 1 599 0
 2686 02d8 4FF00003 		mov	r3, #0
 2687 02dc BB60     		str	r3, [r7, #8]
 600:.\cli.c       **** 
 601:.\cli.c       ****             cmd = bsearch(&target, cmdTable, CMD_COUNT, sizeof cmdTable[0], cliCompare);
 2688              		.loc 1 601 0
 2689 02de 07F10402 		add	r2, r7, #4
 2690 02e2 40F20003 		movw	r3, #:lower16:cliCompare
 2691 02e6 C0F20003 		movt	r3, #:upper16:cliCompare
 2692 02ea 0093     		str	r3, [sp, #0]
 2693 02ec 1046     		mov	r0, r2
 2694 02ee 40F20001 		movw	r1, #:lower16:cmdTable
 2695 02f2 C0F20001 		movt	r1, #:upper16:cmdTable
 2696 02f6 4FF00602 		mov	r2, #6
 2697 02fa 4FF00C03 		mov	r3, #12
 2698 02fe FFF7FEFF 		bl	bsearch
 2699 0302 3865     		str	r0, [r7, #80]
 602:.\cli.c       ****             if (cmd)
 2700              		.loc 1 602 0
 2701 0304 3B6D     		ldr	r3, [r7, #80]
 2702 0306 002B     		cmp	r3, #0
 2703 0308 11D0     		beq	.L139
 603:.\cli.c       ****                 cmd->func(cliBuffer + strlen(cmd->name) + 1);
 2704              		.loc 1 603 0
 2705 030a 3B6D     		ldr	r3, [r7, #80]
 2706 030c 9C68     		ldr	r4, [r3, #8]
 2707 030e 3B6D     		ldr	r3, [r7, #80]
 2708 0310 1B68     		ldr	r3, [r3, #0]
 2709 0312 1846     		mov	r0, r3
 2710 0314 FFF7FEFF 		bl	strlen
 2711 0318 0346     		mov	r3, r0
 2712 031a 03F10102 		add	r2, r3, #1
 2713 031e 40F20003 		movw	r3, #:lower16:cliBuffer
 2714 0322 C0F20003 		movt	r3, #:upper16:cliBuffer
 2715 0326 D318     		adds	r3, r2, r3
 2716 0328 1846     		mov	r0, r3
 2717 032a A047     		blx	r4
 2718 032c 05E0     		b	.L140
 2719              	.L139:
 604:.\cli.c       ****             else
 605:.\cli.c       ****                 cliPrint("ERR: Unknown command, try 'help'");
 2720              		.loc 1 605 0
 2721 032e 40F20000 		movw	r0, #:lower16:.LC47
 2722 0332 C0F20000 		movt	r0, #:upper16:.LC47
 2723 0336 FFF7FEFF 		bl	cliPrint
 2724              	.L140:
 606:.\cli.c       **** 
 607:.\cli.c       ****             memset(cliBuffer, 0, sizeof(cliBuffer));
 2725              		.loc 1 607 0
 2726 033a 40F20000 		movw	r0, #:lower16:cliBuffer
 2727 033e C0F20000 		movt	r0, #:upper16:cliBuffer
 2728 0342 4FF00001 		mov	r1, #0
 2729 0346 4FF03002 		mov	r2, #48
 2730 034a FFF7FEFF 		bl	memset
 608:.\cli.c       ****             bufferIndex = 0;
 2731              		.loc 1 608 0
 2732 034e 40F20003 		movw	r3, #:lower16:bufferIndex
ARM GAS  C:\Users\csap2972\AppData\Local\Temp\cclUBZwy.s 			page 62


 2733 0352 C0F20003 		movt	r3, #:upper16:bufferIndex
 2734 0356 4FF00002 		mov	r2, #0
 2735 035a 1A60     		str	r2, [r3, #0]
 609:.\cli.c       **** 
 610:.\cli.c       ****             // 'exit' will reset this flag, so we don't need to print prompt again
 611:.\cli.c       ****             if (!cliMode)
 2736              		.loc 1 611 0
 2737 035c 40F20003 		movw	r3, #:lower16:cliMode
 2738 0360 C0F20003 		movt	r3, #:upper16:cliMode
 2739 0364 1B78     		ldrb	r3, [r3, #0]	@ zero_extendqisi2
 2740 0366 002B     		cmp	r3, #0
 2741 0368 6BD0     		beq	.L113
 612:.\cli.c       ****                 return;
 613:.\cli.c       ****             cliPrompt();
 2742              		.loc 1 613 0
 2743 036a FFF7FEFF 		bl	cliPrompt
 2744              	.LBE7:
 591:.\cli.c       ****         } else if (bufferIndex && (c == '\n' || c == '\r')) {
 2745              		.loc 1 591 0
 2746 036e 5FE0     		b	.L134
 2747              	.L137:
 614:.\cli.c       ****         } else if (c == 127) {
 2748              		.loc 1 614 0
 2749 0370 97F85730 		ldrb	r3, [r7, #87]	@ zero_extendqisi2
 2750 0374 7F2B     		cmp	r3, #127
 2751 0376 27D1     		bne	.L142
 615:.\cli.c       ****             // backspace
 616:.\cli.c       ****             if (bufferIndex) {
 2752              		.loc 1 616 0
 2753 0378 40F20003 		movw	r3, #:lower16:bufferIndex
 2754 037c C0F20003 		movt	r3, #:upper16:bufferIndex
 2755 0380 1B68     		ldr	r3, [r3, #0]
 2756 0382 002B     		cmp	r3, #0
 2757 0384 54D0     		beq	.L134
 617:.\cli.c       ****                 cliBuffer[--bufferIndex] = 0;
 2758              		.loc 1 617 0
 2759 0386 40F20003 		movw	r3, #:lower16:bufferIndex
 2760 038a C0F20003 		movt	r3, #:upper16:bufferIndex
 2761 038e 1B68     		ldr	r3, [r3, #0]
 2762 0390 03F1FF32 		add	r2, r3, #-1
 2763 0394 40F20003 		movw	r3, #:lower16:bufferIndex
 2764 0398 C0F20003 		movt	r3, #:upper16:bufferIndex
 2765 039c 1A60     		str	r2, [r3, #0]
 2766 039e 40F20003 		movw	r3, #:lower16:bufferIndex
 2767 03a2 C0F20003 		movt	r3, #:upper16:bufferIndex
 2768 03a6 1A68     		ldr	r2, [r3, #0]
 2769 03a8 40F20003 		movw	r3, #:lower16:cliBuffer
 2770 03ac C0F20003 		movt	r3, #:upper16:cliBuffer
 2771 03b0 4FF00001 		mov	r1, #0
 2772 03b4 9954     		strb	r1, [r3, r2]
 618:.\cli.c       ****                 cliPrint("\010 \010");
 2773              		.loc 1 618 0
 2774 03b6 40F20000 		movw	r0, #:lower16:.LC48
 2775 03ba C0F20000 		movt	r0, #:upper16:.LC48
 2776 03be FFF7FEFF 		bl	cliPrint
 2777 03c2 35E0     		b	.L134
 2778              	.L151:
ARM GAS  C:\Users\csap2972\AppData\Local\Temp\cclUBZwy.s 			page 63


 2779              		.align	2
 2780              	.L150:
 2781 03c4 48000000 		.word	cmdTable+72
 2782              	.L142:
 619:.\cli.c       ****             }
 620:.\cli.c       ****         } else if (bufferIndex < sizeof(cliBuffer) && c >= 32 && c <= 126) {
 2783              		.loc 1 620 0
 2784 03c8 40F20003 		movw	r3, #:lower16:bufferIndex
 2785 03cc C0F20003 		movt	r3, #:upper16:bufferIndex
 2786 03d0 1B68     		ldr	r3, [r3, #0]
 2787 03d2 2F2B     		cmp	r3, #47
 2788 03d4 2CD8     		bhi	.L134
 2789              		.loc 1 620 0 is_stmt 0 discriminator 1
 2790 03d6 97F85730 		ldrb	r3, [r7, #87]	@ zero_extendqisi2
 2791 03da 1F2B     		cmp	r3, #31
 2792 03dc 28D9     		bls	.L134
 2793 03de 97F85730 		ldrb	r3, [r7, #87]	@ zero_extendqisi2
 2794 03e2 7E2B     		cmp	r3, #126
 2795 03e4 24D8     		bhi	.L134
 621:.\cli.c       ****             if (!bufferIndex && c == 32)
 2796              		.loc 1 621 0 is_stmt 1
 2797 03e6 40F20003 		movw	r3, #:lower16:bufferIndex
 2798 03ea C0F20003 		movt	r3, #:upper16:bufferIndex
 2799 03ee 1B68     		ldr	r3, [r3, #0]
 2800 03f0 002B     		cmp	r3, #0
 2801 03f2 03D1     		bne	.L143
 2802              		.loc 1 621 0 is_stmt 0 discriminator 1
 2803 03f4 97F85730 		ldrb	r3, [r7, #87]	@ zero_extendqisi2
 2804 03f8 202B     		cmp	r3, #32
 2805 03fa 18D0     		beq	.L149
 2806              	.L143:
 622:.\cli.c       **** 				continue;
 623:.\cli.c       ****             cliBuffer[bufferIndex++] = c;
 2807              		.loc 1 623 0 is_stmt 1
 2808 03fc 40F20003 		movw	r3, #:lower16:bufferIndex
 2809 0400 C0F20003 		movt	r3, #:upper16:bufferIndex
 2810 0404 1A68     		ldr	r2, [r3, #0]
 2811 0406 40F20003 		movw	r3, #:lower16:cliBuffer
 2812 040a C0F20003 		movt	r3, #:upper16:cliBuffer
 2813 040e 97F85710 		ldrb	r1, [r7, #87]
 2814 0412 9954     		strb	r1, [r3, r2]
 2815 0414 02F10102 		add	r2, r2, #1
 2816 0418 40F20003 		movw	r3, #:lower16:bufferIndex
 2817 041c C0F20003 		movt	r3, #:upper16:bufferIndex
 2818 0420 1A60     		str	r2, [r3, #0]
 624:.\cli.c       ****             cliWrite(c);
 2819              		.loc 1 624 0
 2820 0422 97F85730 		ldrb	r3, [r7, #87]	@ zero_extendqisi2
 2821 0426 1846     		mov	r0, r3
 2822 0428 FFF7FEFF 		bl	cliWrite
 2823 042c 00E0     		b	.L134
 2824              	.L149:
 622:.\cli.c       **** 				continue;
 2825              		.loc 1 622 0
 2826 042e 00BF     		nop
 2827              	.L134:
 2828              	.LBE5:
ARM GAS  C:\Users\csap2972\AppData\Local\Temp\cclUBZwy.s 			page 64


 545:.\cli.c       **** 	for(i=0; i<count;i++)
 2829              		.loc 1 545 0
 2830 0430 FB6E     		ldr	r3, [r7, #108]
 2831 0432 03F10103 		add	r3, r3, #1
 2832 0436 FB66     		str	r3, [r7, #108]
 2833              	.L116:
 545:.\cli.c       **** 	for(i=0; i<count;i++)
 2834              		.loc 1 545 0 is_stmt 0 discriminator 1
 2835 0438 FA6E     		ldr	r2, [r7, #108]
 2836 043a BB6D     		ldr	r3, [r7, #88]
 2837 043c 9A42     		cmp	r2, r3
 2838 043e FFF609AE 		blt	.L144
 2839              	.L113:
 625:.\cli.c       ****         }
 626:.\cli.c       **** 	}
 627:.\cli.c       **** }
 2840              		.loc 1 627 0 is_stmt 1
 2841 0442 07F17407 		add	r7, r7, #116
 2842 0446 BD46     		mov	sp, r7
 2843 0448 90BD     		pop	{r4, r7, pc}
 2844              		.cfi_endproc
 2845              	.LFE73:
 2846              		.size	cliProcess, .-cliProcess
 2847 044a 00BF     		.text
 2848              	.Letext0:
 2849              		.file 2 "c:\\program files (x86)\\cypress\\psoc creator\\3.0\\psoc creator\\import\\gnu_cs\\arm\\4
 2850              		.file 3 ".\\pid.h"
 2851              		.file 4 "./Generated_Source/PSoC5/core_cm3.h"