ARM GAS  C:\Users\csap2972\AppData\Local\Temp\ccgsHrFA.s 			page 1


   1              		.syntax unified
   2              		.cpu cortex-m3
   3              		.fpu softvfp
   4              		.eabi_attribute 20, 1
   5              		.eabi_attribute 21, 1
   6              		.eabi_attribute 23, 3
   7              		.eabi_attribute 24, 1
   8              		.eabi_attribute 25, 1
   9              		.eabi_attribute 26, 1
  10              		.eabi_attribute 30, 6
  11              		.eabi_attribute 34, 1
  12              		.eabi_attribute 18, 4
  13              		.thumb
  14              		.file	"eeprom.c"
  15              		.text
  16              	.Ltext0:
  17              		.cfi_sections	.debug_frame
  18              		.section	.text.erase_eeprom,"ax",%progbits
  19              		.align	2
  20              		.global	erase_eeprom
  21              		.thumb
  22              		.thumb_func
  23              		.type	erase_eeprom, %function
  24              	erase_eeprom:
  25              	.LFB0:
  26              		.file 1 ".\\eeprom.c"
   1:.\eeprom.c    **** /* ========================================
   2:.\eeprom.c    ****  *
   3:.\eeprom.c    ****  * Copyright YOUR COMPANY, THE YEAR
   4:.\eeprom.c    ****  * All Rights Reserved
   5:.\eeprom.c    ****  * UNPUBLISHED, LICENSED SOFTWARE.
   6:.\eeprom.c    ****  *
   7:.\eeprom.c    ****  * CONFIDENTIAL AND PROPRIETARY INFORMATION
   8:.\eeprom.c    ****  * WHICH IS THE PROPERTY OF your company.
   9:.\eeprom.c    ****  *
  10:.\eeprom.c    ****  * ========================================
  11:.\eeprom.c    **** */
  12:.\eeprom.c    **** #include "EEPROM_1.h"
  13:.\eeprom.c    **** #include "pid.h"
  14:.\eeprom.c    **** 
  15:.\eeprom.c    **** // global data to save
  16:.\eeprom.c    **** extern pid pid1;
  17:.\eeprom.c    **** extern int setpoint;
  18:.\eeprom.c    **** extern uint32_t eventcounter;
  19:.\eeprom.c    **** extern int deltaTms;
  20:.\eeprom.c    **** extern uint8_t dac_offset;
  21:.\eeprom.c    **** 
  22:.\eeprom.c    **** 
  23:.\eeprom.c    **** typedef union saveDataUnion // union zum umwandeln der Variablen in ein byte array
  24:.\eeprom.c    **** {
  25:.\eeprom.c    ****     struct{pid pidx; int setPoint; int deltaTms; uint8_t offset;} structData;
  26:.\eeprom.c    ****     uint8_t Data[sizeof(pid) + sizeof(int) * 2 + sizeof(uint8_t)];
  27:.\eeprom.c    **** } saveDataUnion;
  28:.\eeprom.c    **** 
  29:.\eeprom.c    **** int erase_eeprom(void) // eeprom löschen
  30:.\eeprom.c    **** {
  27              		.loc 1 30 0
ARM GAS  C:\Users\csap2972\AppData\Local\Temp\ccgsHrFA.s 			page 2


  28              		.cfi_startproc
  29              		@ args = 0, pretend = 0, frame = 16
  30              		@ frame_needed = 1, uses_anonymous_args = 0
  31 0000 80B5     		push	{r7, lr}
  32              	.LCFI0:
  33              		.cfi_def_cfa_offset 8
  34              		.cfi_offset 7, -8
  35              		.cfi_offset 14, -4
  36 0002 84B0     		sub	sp, sp, #16
  37              	.LCFI1:
  38              		.cfi_def_cfa_offset 24
  39 0004 00AF     		add	r7, sp, #0
  40              	.LCFI2:
  41              		.cfi_def_cfa_register 7
  31:.\eeprom.c    ****     unsigned int Index;
  32:.\eeprom.c    ****     cystatus eraseStatus;
  33:.\eeprom.c    ****     reg8 * RegPointer;
  34:.\eeprom.c    ****     
  35:.\eeprom.c    ****     for(Index = 0u; Index < CY_EEPROM_NUMBER_ARRAYS; Index++)
  42              		.loc 1 35 0
  43 0006 4FF00003 		mov	r3, #0
  44 000a FB60     		str	r3, [r7, #12]
  45 000c 09E0     		b	.L2
  46              	.L3:
  36:.\eeprom.c    ****     {
  37:.\eeprom.c    ****         eraseStatus = EEPROM_1_EraseSector(Index);
  47              		.loc 1 37 0 discriminator 2
  48 000e FB68     		ldr	r3, [r7, #12]
  49 0010 DBB2     		uxtb	r3, r3
  50 0012 1846     		mov	r0, r3
  51 0014 FFF7FEFF 		bl	EEPROM_1_EraseSector
  52 0018 B860     		str	r0, [r7, #8]
  35:.\eeprom.c    ****     for(Index = 0u; Index < CY_EEPROM_NUMBER_ARRAYS; Index++)
  53              		.loc 1 35 0 discriminator 2
  54 001a FB68     		ldr	r3, [r7, #12]
  55 001c 03F10103 		add	r3, r3, #1
  56 0020 FB60     		str	r3, [r7, #12]
  57              	.L2:
  35:.\eeprom.c    ****     for(Index = 0u; Index < CY_EEPROM_NUMBER_ARRAYS; Index++)
  58              		.loc 1 35 0 is_stmt 0 discriminator 1
  59 0022 FB68     		ldr	r3, [r7, #12]
  60 0024 012B     		cmp	r3, #1
  61 0026 F2D9     		bls	.L3
  38:.\eeprom.c    ****     }
  39:.\eeprom.c    ****     if(eraseStatus != CYRET_SUCCESS)
  62              		.loc 1 39 0 is_stmt 1
  63 0028 BB68     		ldr	r3, [r7, #8]
  64 002a 002B     		cmp	r3, #0
  65 002c 02D0     		beq	.L4
  40:.\eeprom.c    ****         return 0;
  66              		.loc 1 40 0
  67 002e 4FF00003 		mov	r3, #0
  68 0032 1DE0     		b	.L5
  69              	.L4:
  41:.\eeprom.c    ****     
  42:.\eeprom.c    ****     RegPointer = (reg8 *)CYDEV_EE_BASE;
  70              		.loc 1 42 0
ARM GAS  C:\Users\csap2972\AppData\Local\Temp\ccgsHrFA.s 			page 3


  71 0034 4FF40043 		mov	r3, #32768
  72 0038 C4F20003 		movt	r3, 16384
  73 003c 7B60     		str	r3, [r7, #4]
  43:.\eeprom.c    ****     
  44:.\eeprom.c    ****     for(Index = 0; Index < EEPROM_1_EEPROM_SIZE; Index++)
  74              		.loc 1 44 0
  75 003e 4FF00003 		mov	r3, #0
  76 0042 FB60     		str	r3, [r7, #12]
  77 0044 0DE0     		b	.L6
  78              	.L8:
  45:.\eeprom.c    ****     {
  46:.\eeprom.c    ****         if(RegPointer[Index] != 0u)
  79              		.loc 1 46 0
  80 0046 7A68     		ldr	r2, [r7, #4]
  81 0048 FB68     		ldr	r3, [r7, #12]
  82 004a D318     		adds	r3, r2, r3
  83 004c 1B78     		ldrb	r3, [r3, #0]
  84 004e DBB2     		uxtb	r3, r3
  85 0050 002B     		cmp	r3, #0
  86 0052 02D0     		beq	.L7
  47:.\eeprom.c    ****         {
  48:.\eeprom.c    ****             return 0;
  87              		.loc 1 48 0
  88 0054 4FF00003 		mov	r3, #0
  89 0058 0AE0     		b	.L5
  90              	.L7:
  44:.\eeprom.c    ****     for(Index = 0; Index < EEPROM_1_EEPROM_SIZE; Index++)
  91              		.loc 1 44 0
  92 005a FB68     		ldr	r3, [r7, #12]
  93 005c 03F10103 		add	r3, r3, #1
  94 0060 FB60     		str	r3, [r7, #12]
  95              	.L6:
  44:.\eeprom.c    ****     for(Index = 0; Index < EEPROM_1_EEPROM_SIZE; Index++)
  96              		.loc 1 44 0 is_stmt 0 discriminator 1
  97 0062 FA68     		ldr	r2, [r7, #12]
  98 0064 40F2FF73 		movw	r3, #2047
  99 0068 9A42     		cmp	r2, r3
 100 006a ECD9     		bls	.L8
  49:.\eeprom.c    ****         }
  50:.\eeprom.c    ****     }
  51:.\eeprom.c    ****     return 1;
 101              		.loc 1 51 0 is_stmt 1
 102 006c 4FF00103 		mov	r3, #1
 103              	.L5:
  52:.\eeprom.c    **** }
 104              		.loc 1 52 0
 105 0070 1846     		mov	r0, r3
 106 0072 07F11007 		add	r7, r7, #16
 107 0076 BD46     		mov	sp, r7
 108 0078 80BD     		pop	{r7, pc}
 109              		.cfi_endproc
 110              	.LFE0:
 111              		.size	erase_eeprom, .-erase_eeprom
 112 007a 00BF     		.section	.text.save_settings,"ax",%progbits
 113              		.align	2
 114              		.global	save_settings
 115              		.thumb
ARM GAS  C:\Users\csap2972\AppData\Local\Temp\ccgsHrFA.s 			page 4


 116              		.thumb_func
 117              		.type	save_settings, %function
 118              	save_settings:
 119              	.LFB1:
  53:.\eeprom.c    **** 
  54:.\eeprom.c    **** int save_settings(void) // speichern der Variablen
  55:.\eeprom.c    **** {
 120              		.loc 1 55 0
 121              		.cfi_startproc
 122              		@ args = 0, pretend = 0, frame = 64
 123              		@ frame_needed = 1, uses_anonymous_args = 0
 124 0000 B0B5     		push	{r4, r5, r7, lr}
 125              	.LCFI3:
 126              		.cfi_def_cfa_offset 16
 127              		.cfi_offset 4, -16
 128              		.cfi_offset 5, -12
 129              		.cfi_offset 7, -8
 130              		.cfi_offset 14, -4
 131 0002 90B0     		sub	sp, sp, #64
 132              	.LCFI4:
 133              		.cfi_def_cfa_offset 80
 134 0004 00AF     		add	r7, sp, #0
 135              	.LCFI5:
 136              		.cfi_def_cfa_register 7
  56:.\eeprom.c    ****     reg8 * RegPointer;
  57:.\eeprom.c    ****     saveDataUnion globalData;
  58:.\eeprom.c    ****     unsigned int byteswritten=0;
 137              		.loc 1 58 0
 138 0006 4FF00003 		mov	r3, #0
 139 000a FB63     		str	r3, [r7, #60]
  59:.\eeprom.c    ****     unsigned int x,y;
  60:.\eeprom.c    ****     unsigned int Index;
  61:.\eeprom.c    ****     
  62:.\eeprom.c    **** 	// Variablen in Zwischenspeicher schreiben
  63:.\eeprom.c    ****     memcpy(&globalData.structData.pidx,&pid1,sizeof(pid));
 140              		.loc 1 63 0
 141 000c 40F20003 		movw	r3, #:lower16:pid1
 142 0010 C0F20003 		movt	r3, #:upper16:pid1
 143 0014 07F10404 		add	r4, r7, #4
 144 0018 1D46     		mov	r5, r3
 145 001a 0FCD     		ldmia	r5!, {r0, r1, r2, r3}
 146 001c 0FC4     		stmia	r4!, {r0, r1, r2, r3}
 147 001e 95E80700 		ldmia	r5, {r0, r1, r2}
 148 0022 84E80700 		stmia	r4, {r0, r1, r2}
  64:.\eeprom.c    ****     globalData.structData.setPoint = setpoint;
 149              		.loc 1 64 0
 150 0026 40F20003 		movw	r3, #:lower16:setpoint
 151 002a C0F20003 		movt	r3, #:upper16:setpoint
 152 002e 1B68     		ldr	r3, [r3, #0]
 153 0030 3B62     		str	r3, [r7, #32]
  65:.\eeprom.c    ****     globalData.structData.deltaTms = deltaTms;
 154              		.loc 1 65 0
 155 0032 40F20003 		movw	r3, #:lower16:deltaTms
 156 0036 C0F20003 		movt	r3, #:upper16:deltaTms
 157 003a 1B68     		ldr	r3, [r3, #0]
 158 003c 7B62     		str	r3, [r7, #36]
  66:.\eeprom.c    **** 	globalData.structData.offset = dac_offset;
ARM GAS  C:\Users\csap2972\AppData\Local\Temp\ccgsHrFA.s 			page 5


 159              		.loc 1 66 0
 160 003e 40F20003 		movw	r3, #:lower16:dac_offset
 161 0042 C0F20003 		movt	r3, #:upper16:dac_offset
 162 0046 1B78     		ldrb	r3, [r3, #0]	@ zero_extendqisi2
 163 0048 87F82830 		strb	r3, [r7, #40]
  67:.\eeprom.c    **** 
  68:.\eeprom.c    ****     // Variablen byteweise in den EEPROM schreiben
  69:.\eeprom.c    ****     for(x = 0; x <= (sizeof(globalData) / SIZEOF_EEPROM_ROW); x++) 
 164              		.loc 1 69 0
 165 004c 4FF00003 		mov	r3, #0
 166 0050 BB63     		str	r3, [r7, #56]
 167 0052 25E0     		b	.L10
 168              	.L15:
  70:.\eeprom.c    ****     {
  71:.\eeprom.c    ****         for(y=0; y < SIZEOF_EEPROM_ROW; y++)
 169              		.loc 1 71 0
 170 0054 4FF00003 		mov	r3, #0
 171 0058 7B63     		str	r3, [r7, #52]
 172 005a 18E0     		b	.L11
 173              	.L14:
  72:.\eeprom.c    ****         {
  73:.\eeprom.c    ****             EEPROM_1_ByteWrite(globalData.Data[byteswritten], x, y);
 174              		.loc 1 73 0
 175 005c 07F10402 		add	r2, r7, #4
 176 0060 FB6B     		ldr	r3, [r7, #60]
 177 0062 D318     		adds	r3, r2, r3
 178 0064 1978     		ldrb	r1, [r3, #0]	@ zero_extendqisi2
 179 0066 BB6B     		ldr	r3, [r7, #56]
 180 0068 DAB2     		uxtb	r2, r3
 181 006a 7B6B     		ldr	r3, [r7, #52]
 182 006c DBB2     		uxtb	r3, r3
 183 006e 0846     		mov	r0, r1
 184 0070 1146     		mov	r1, r2
 185 0072 1A46     		mov	r2, r3
 186 0074 FFF7FEFF 		bl	EEPROM_1_ByteWrite
  74:.\eeprom.c    ****             byteswritten++;
 187              		.loc 1 74 0
 188 0078 FB6B     		ldr	r3, [r7, #60]
 189 007a 03F10103 		add	r3, r3, #1
 190 007e FB63     		str	r3, [r7, #60]
  75:.\eeprom.c    ****             if(byteswritten >= sizeof(globalData))
 191              		.loc 1 75 0
 192 0080 FB6B     		ldr	r3, [r7, #60]
 193 0082 272B     		cmp	r3, #39
 194 0084 07D8     		bhi	.L21
 195              	.L12:
  71:.\eeprom.c    ****         for(y=0; y < SIZEOF_EEPROM_ROW; y++)
 196              		.loc 1 71 0
 197 0086 7B6B     		ldr	r3, [r7, #52]
 198 0088 03F10103 		add	r3, r3, #1
 199 008c 7B63     		str	r3, [r7, #52]
 200              	.L11:
  71:.\eeprom.c    ****         for(y=0; y < SIZEOF_EEPROM_ROW; y++)
 201              		.loc 1 71 0 is_stmt 0 discriminator 1
 202 008e 7B6B     		ldr	r3, [r7, #52]
 203 0090 0F2B     		cmp	r3, #15
 204 0092 E3D9     		bls	.L14
ARM GAS  C:\Users\csap2972\AppData\Local\Temp\ccgsHrFA.s 			page 6


 205 0094 00E0     		b	.L13
 206              	.L21:
  76:.\eeprom.c    ****                 break;
 207              		.loc 1 76 0 is_stmt 1
 208 0096 00BF     		nop
 209              	.L13:
  69:.\eeprom.c    ****     for(x = 0; x <= (sizeof(globalData) / SIZEOF_EEPROM_ROW); x++) 
 210              		.loc 1 69 0
 211 0098 BB6B     		ldr	r3, [r7, #56]
 212 009a 03F10103 		add	r3, r3, #1
 213 009e BB63     		str	r3, [r7, #56]
 214              	.L10:
  69:.\eeprom.c    ****     for(x = 0; x <= (sizeof(globalData) / SIZEOF_EEPROM_ROW); x++) 
 215              		.loc 1 69 0 is_stmt 0 discriminator 1
 216 00a0 BB6B     		ldr	r3, [r7, #56]
 217 00a2 022B     		cmp	r3, #2
 218 00a4 D6D9     		bls	.L15
  77:.\eeprom.c    ****         }
  78:.\eeprom.c    ****     }
  79:.\eeprom.c    ****     
  80:.\eeprom.c    **** 	// die geschriebenen Daten überprüfen
  81:.\eeprom.c    ****     RegPointer = (reg8 *) CYDEV_EE_BASE;
 219              		.loc 1 81 0 is_stmt 1
 220 00a6 4FF40043 		mov	r3, #32768
 221 00aa C4F20003 		movt	r3, 16384
 222 00ae FB62     		str	r3, [r7, #44]
  82:.\eeprom.c    ****     for(Index = 0; Index < sizeof(globalData); Index++)
 223              		.loc 1 82 0
 224 00b0 4FF00003 		mov	r3, #0
 225 00b4 3B63     		str	r3, [r7, #48]
 226 00b6 12E0     		b	.L16
 227              	.L19:
  83:.\eeprom.c    ****     {
  84:.\eeprom.c    ****         if(globalData.Data[Index] != RegPointer[Index])
 228              		.loc 1 84 0
 229 00b8 07F10402 		add	r2, r7, #4
 230 00bc 3B6B     		ldr	r3, [r7, #48]
 231 00be D318     		adds	r3, r2, r3
 232 00c0 1A78     		ldrb	r2, [r3, #0]	@ zero_extendqisi2
 233 00c2 F96A     		ldr	r1, [r7, #44]
 234 00c4 3B6B     		ldr	r3, [r7, #48]
 235 00c6 CB18     		adds	r3, r1, r3
 236 00c8 1B78     		ldrb	r3, [r3, #0]
 237 00ca DBB2     		uxtb	r3, r3
 238 00cc 9A42     		cmp	r2, r3
 239 00ce 02D0     		beq	.L17
  85:.\eeprom.c    ****             return 0;
 240              		.loc 1 85 0
 241 00d0 4FF00003 		mov	r3, #0
 242 00d4 08E0     		b	.L20
 243              	.L17:
  82:.\eeprom.c    ****     for(Index = 0; Index < sizeof(globalData); Index++)
 244              		.loc 1 82 0
 245 00d6 3B6B     		ldr	r3, [r7, #48]
 246 00d8 03F10103 		add	r3, r3, #1
 247 00dc 3B63     		str	r3, [r7, #48]
 248              	.L16:
ARM GAS  C:\Users\csap2972\AppData\Local\Temp\ccgsHrFA.s 			page 7


  82:.\eeprom.c    ****     for(Index = 0; Index < sizeof(globalData); Index++)
 249              		.loc 1 82 0 is_stmt 0 discriminator 1
 250 00de 3B6B     		ldr	r3, [r7, #48]
 251 00e0 272B     		cmp	r3, #39
 252 00e2 E9D9     		bls	.L19
  86:.\eeprom.c    ****     }
  87:.\eeprom.c    ****     
  88:.\eeprom.c    ****     return 1;   
 253              		.loc 1 88 0 is_stmt 1
 254 00e4 4FF00103 		mov	r3, #1
 255              	.L20:
  89:.\eeprom.c    **** }
 256              		.loc 1 89 0
 257 00e8 1846     		mov	r0, r3
 258 00ea 07F14007 		add	r7, r7, #64
 259 00ee BD46     		mov	sp, r7
 260 00f0 B0BD     		pop	{r4, r5, r7, pc}
 261              		.cfi_endproc
 262              	.LFE1:
 263              		.size	save_settings, .-save_settings
 264 00f2 00BF     		.section	.text.read_settings,"ax",%progbits
 265              		.align	2
 266              		.global	read_settings
 267              		.thumb
 268              		.thumb_func
 269              		.type	read_settings, %function
 270              	read_settings:
 271              	.LFB2:
  90:.\eeprom.c    **** 
  91:.\eeprom.c    **** void read_settings(void)
  92:.\eeprom.c    **** {
 272              		.loc 1 92 0
 273              		.cfi_startproc
 274              		@ args = 0, pretend = 0, frame = 48
 275              		@ frame_needed = 1, uses_anonymous_args = 0
 276              		@ link register save eliminated.
 277 0000 B0B4     		push	{r4, r5, r7}
 278              	.LCFI6:
 279              		.cfi_def_cfa_offset 12
 280              		.cfi_offset 4, -12
 281              		.cfi_offset 5, -8
 282              		.cfi_offset 7, -4
 283 0002 8DB0     		sub	sp, sp, #52
 284              	.LCFI7:
 285              		.cfi_def_cfa_offset 64
 286 0004 00AF     		add	r7, sp, #0
 287              	.LCFI8:
 288              		.cfi_def_cfa_register 7
  93:.\eeprom.c    ****     reg8 * RegPointer;
  94:.\eeprom.c    ****     saveDataUnion globalData;
  95:.\eeprom.c    ****     unsigned int Index;
  96:.\eeprom.c    ****     
  97:.\eeprom.c    **** 	// EEPROM byteweise lesen
  98:.\eeprom.c    ****     RegPointer = (reg8 *) CYDEV_EE_BASE;
 289              		.loc 1 98 0
 290 0006 4FF40043 		mov	r3, #32768
 291 000a C4F20003 		movt	r3, 16384
ARM GAS  C:\Users\csap2972\AppData\Local\Temp\ccgsHrFA.s 			page 8


 292 000e BB62     		str	r3, [r7, #40]
  99:.\eeprom.c    ****     for(Index = 0; Index < sizeof(globalData); Index++)
 293              		.loc 1 99 0
 294 0010 4FF00003 		mov	r3, #0
 295 0014 FB62     		str	r3, [r7, #44]
 296 0016 0CE0     		b	.L23
 297              	.L24:
 100:.\eeprom.c    ****     {
 101:.\eeprom.c    ****         globalData.Data[Index] = RegPointer[Index];
 298              		.loc 1 101 0 discriminator 2
 299 0018 BA6A     		ldr	r2, [r7, #40]
 300 001a FB6A     		ldr	r3, [r7, #44]
 301 001c D318     		adds	r3, r2, r3
 302 001e 1B78     		ldrb	r3, [r3, #0]
 303 0020 DAB2     		uxtb	r2, r3
 304 0022 3946     		mov	r1, r7
 305 0024 FB6A     		ldr	r3, [r7, #44]
 306 0026 CB18     		adds	r3, r1, r3
 307 0028 1A70     		strb	r2, [r3, #0]
  99:.\eeprom.c    ****     for(Index = 0; Index < sizeof(globalData); Index++)
 308              		.loc 1 99 0 discriminator 2
 309 002a FB6A     		ldr	r3, [r7, #44]
 310 002c 03F10103 		add	r3, r3, #1
 311 0030 FB62     		str	r3, [r7, #44]
 312              	.L23:
  99:.\eeprom.c    ****     for(Index = 0; Index < sizeof(globalData); Index++)
 313              		.loc 1 99 0 is_stmt 0 discriminator 1
 314 0032 FB6A     		ldr	r3, [r7, #44]
 315 0034 272B     		cmp	r3, #39
 316 0036 EFD9     		bls	.L24
 102:.\eeprom.c    ****     }
 103:.\eeprom.c    **** 	
 104:.\eeprom.c    **** 	// globale Variablen setzen 
 105:.\eeprom.c    ****     memcpy(&pid1, &globalData.structData.pidx, sizeof(pid));
 317              		.loc 1 105 0 is_stmt 1
 318 0038 40F20003 		movw	r3, #:lower16:pid1
 319 003c C0F20003 		movt	r3, #:upper16:pid1
 320 0040 1C46     		mov	r4, r3
 321 0042 3D46     		mov	r5, r7
 322 0044 0FCD     		ldmia	r5!, {r0, r1, r2, r3}
 323 0046 0FC4     		stmia	r4!, {r0, r1, r2, r3}
 324 0048 95E80700 		ldmia	r5, {r0, r1, r2}
 325 004c 84E80700 		stmia	r4, {r0, r1, r2}
 106:.\eeprom.c    ****     setpoint = globalData.structData.setPoint;  
 326              		.loc 1 106 0
 327 0050 FA69     		ldr	r2, [r7, #28]
 328 0052 40F20003 		movw	r3, #:lower16:setpoint
 329 0056 C0F20003 		movt	r3, #:upper16:setpoint
 330 005a 1A60     		str	r2, [r3, #0]
 107:.\eeprom.c    ****     deltaTms = globalData.structData.deltaTms;
 331              		.loc 1 107 0
 332 005c 3A6A     		ldr	r2, [r7, #32]
 333 005e 40F20003 		movw	r3, #:lower16:deltaTms
 334 0062 C0F20003 		movt	r3, #:upper16:deltaTms
 335 0066 1A60     		str	r2, [r3, #0]
 108:.\eeprom.c    **** 	dac_offset = globalData.structData.offset;
 336              		.loc 1 108 0
ARM GAS  C:\Users\csap2972\AppData\Local\Temp\ccgsHrFA.s 			page 9


 337 0068 97F82420 		ldrb	r2, [r7, #36]	@ zero_extendqisi2
 338 006c 40F20003 		movw	r3, #:lower16:dac_offset
 339 0070 C0F20003 		movt	r3, #:upper16:dac_offset
 340 0074 1A70     		strb	r2, [r3, #0]
 109:.\eeprom.c    **** }
 341              		.loc 1 109 0
 342 0076 07F13407 		add	r7, r7, #52
 343 007a BD46     		mov	sp, r7
 344 007c B0BC     		pop	{r4, r5, r7}
 345 007e 7047     		bx	lr
 346              		.cfi_endproc
 347              	.LFE2:
 348              		.size	read_settings, .-read_settings
 349              		.text
 350              	.Letext0:
 351              		.file 2 "c:\\program files (x86)\\cypress\\psoc creator\\3.0\\psoc creator\\import\\gnu_cs\\arm\\4
 352              		.file 3 "./Generated_Source/PSoC5/cytypes.h"
 353              		.file 4 ".\\pid.h"