ARM GAS  C:\Users\csap2972\AppData\Local\Temp\ccTzskbk.s 			page 1


   1              		.syntax unified
   2              		.cpu cortex-m3
   3              		.fpu softvfp
   4              		.eabi_attribute 20, 1
   5              		.eabi_attribute 21, 1
   6              		.eabi_attribute 23, 3
   7              		.eabi_attribute 24, 1
   8              		.eabi_attribute 25, 1
   9              		.eabi_attribute 26, 1
  10              		.eabi_attribute 30, 6
  11              		.eabi_attribute 34, 1
  12              		.eabi_attribute 18, 4
  13              		.thumb
  14              		.file	"PGA_1.c"
  15              		.text
  16              	.Ltext0:
  17              		.cfi_sections	.debug_frame
  18              		.global	PGA_1_initVar
  19              		.bss
  20              		.type	PGA_1_initVar, %object
  21              		.size	PGA_1_initVar, 1
  22              	PGA_1_initVar:
  23 0000 00       		.space	1
  24              		.section	.text.PGA_1_Init,"ax",%progbits
  25              		.align	2
  26              		.global	PGA_1_Init
  27              		.thumb
  28              		.thumb_func
  29              		.type	PGA_1_Init, %function
  30              	PGA_1_Init:
  31              	.LFB0:
  32              		.file 1 ".\\Generated_Source\\PSoC5\\PGA_1.c"
   1:.\Generated_Source\PSoC5/PGA_1.c **** /*******************************************************************************
   2:.\Generated_Source\PSoC5/PGA_1.c **** * File Name: PGA_1.c  
   3:.\Generated_Source\PSoC5/PGA_1.c **** * Version 2.0
   4:.\Generated_Source\PSoC5/PGA_1.c **** *
   5:.\Generated_Source\PSoC5/PGA_1.c **** * Description:
   6:.\Generated_Source\PSoC5/PGA_1.c **** *  This file provides the source code to the API for the PGA 
   7:.\Generated_Source\PSoC5/PGA_1.c **** *  User Module.
   8:.\Generated_Source\PSoC5/PGA_1.c **** *
   9:.\Generated_Source\PSoC5/PGA_1.c **** * Note:
  10:.\Generated_Source\PSoC5/PGA_1.c **** *
  11:.\Generated_Source\PSoC5/PGA_1.c **** ********************************************************************************
  12:.\Generated_Source\PSoC5/PGA_1.c **** * Copyright 2008-2012, Cypress Semiconductor Corporation.  All rights reserved.
  13:.\Generated_Source\PSoC5/PGA_1.c **** * You may use this file only in accordance with the license, terms, conditions, 
  14:.\Generated_Source\PSoC5/PGA_1.c **** * disclaimers, and limitations in the end user license agreement accompanying 
  15:.\Generated_Source\PSoC5/PGA_1.c **** * the software package with which this file was provided.
  16:.\Generated_Source\PSoC5/PGA_1.c **** *******************************************************************************/
  17:.\Generated_Source\PSoC5/PGA_1.c **** 
  18:.\Generated_Source\PSoC5/PGA_1.c **** #include "PGA_1.h"
  19:.\Generated_Source\PSoC5/PGA_1.c **** 
  20:.\Generated_Source\PSoC5/PGA_1.c **** #if (!CY_PSOC5A)
  21:.\Generated_Source\PSoC5/PGA_1.c ****     #if (CYDEV_VARIABLE_VDDA == 1u)
  22:.\Generated_Source\PSoC5/PGA_1.c ****         #include "CyScBoostClk.h"
  23:.\Generated_Source\PSoC5/PGA_1.c ****     #endif /* (CYDEV_VARIABLE_VDDA == 1u) */
  24:.\Generated_Source\PSoC5/PGA_1.c **** #endif /* (!CY_PSOC5A) */
  25:.\Generated_Source\PSoC5/PGA_1.c **** 
ARM GAS  C:\Users\csap2972\AppData\Local\Temp\ccTzskbk.s 			page 2


  26:.\Generated_Source\PSoC5/PGA_1.c **** #if (CY_PSOC5A)
  27:.\Generated_Source\PSoC5/PGA_1.c ****     static PGA_1_BACKUP_STRUCT  PGA_1_P5backup;
  28:.\Generated_Source\PSoC5/PGA_1.c **** #endif /* (CY_ PSOC5A) */
  29:.\Generated_Source\PSoC5/PGA_1.c **** 
  30:.\Generated_Source\PSoC5/PGA_1.c **** uint8 PGA_1_initVar = 0u;
  31:.\Generated_Source\PSoC5/PGA_1.c **** 
  32:.\Generated_Source\PSoC5/PGA_1.c **** 
  33:.\Generated_Source\PSoC5/PGA_1.c **** /*******************************************************************************   
  34:.\Generated_Source\PSoC5/PGA_1.c **** * Function Name: PGA_1_Init
  35:.\Generated_Source\PSoC5/PGA_1.c **** ********************************************************************************
  36:.\Generated_Source\PSoC5/PGA_1.c **** *
  37:.\Generated_Source\PSoC5/PGA_1.c **** * Summary:
  38:.\Generated_Source\PSoC5/PGA_1.c **** *  Initialize component's parameters to the parameters set by user in the 
  39:.\Generated_Source\PSoC5/PGA_1.c **** *  customizer of the component placed onto schematic. Usually called in 
  40:.\Generated_Source\PSoC5/PGA_1.c **** *  PGA_1_Start().
  41:.\Generated_Source\PSoC5/PGA_1.c **** *
  42:.\Generated_Source\PSoC5/PGA_1.c **** * Parameters:
  43:.\Generated_Source\PSoC5/PGA_1.c **** *  void
  44:.\Generated_Source\PSoC5/PGA_1.c **** *
  45:.\Generated_Source\PSoC5/PGA_1.c **** * Return:
  46:.\Generated_Source\PSoC5/PGA_1.c **** *  void
  47:.\Generated_Source\PSoC5/PGA_1.c **** *
  48:.\Generated_Source\PSoC5/PGA_1.c **** *******************************************************************************/
  49:.\Generated_Source\PSoC5/PGA_1.c **** void PGA_1_Init(void) 
  50:.\Generated_Source\PSoC5/PGA_1.c **** {
  33              		.loc 1 50 0
  34              		.cfi_startproc
  35              		@ args = 0, pretend = 0, frame = 0
  36              		@ frame_needed = 1, uses_anonymous_args = 0
  37 0000 80B5     		push	{r7, lr}
  38              	.LCFI0:
  39              		.cfi_def_cfa_offset 8
  40              		.cfi_offset 7, -8
  41              		.cfi_offset 14, -4
  42 0002 00AF     		add	r7, sp, #0
  43              	.LCFI1:
  44              		.cfi_def_cfa_register 7
  51:.\Generated_Source\PSoC5/PGA_1.c ****     /* Set PGA mode */
  52:.\Generated_Source\PSoC5/PGA_1.c ****     PGA_1_CR0_REG = PGA_1_MODE_PGA;      
  45              		.loc 1 52 0
  46 0004 45F60C03 		movw	r3, #22540
  47 0008 C4F20003 		movt	r3, 16384
  48 000c 4FF00C02 		mov	r2, #12
  49 0010 1A70     		strb	r2, [r3, #0]
  53:.\Generated_Source\PSoC5/PGA_1.c ****     /* Set non-inverting PGA mode and reference mode */
  54:.\Generated_Source\PSoC5/PGA_1.c ****     PGA_1_CR1_REG |= PGA_1_PGA_NINV;  
  50              		.loc 1 54 0
  51 0012 45F60D03 		movw	r3, #22541
  52 0016 C4F20003 		movt	r3, 16384
  53 001a 45F60D02 		movw	r2, #22541
  54 001e C4F20002 		movt	r2, 16384
  55 0022 1278     		ldrb	r2, [r2, #0]
  56 0024 D2B2     		uxtb	r2, r2
  57 0026 42F02002 		orr	r2, r2, #32
  58 002a D2B2     		uxtb	r2, r2
  59 002c 1A70     		strb	r2, [r3, #0]
  55:.\Generated_Source\PSoC5/PGA_1.c ****     /* Set default gain and ref mode */
ARM GAS  C:\Users\csap2972\AppData\Local\Temp\ccTzskbk.s 			page 3


  56:.\Generated_Source\PSoC5/PGA_1.c ****     PGA_1_CR2_REG = PGA_1_VREF_MODE;
  60              		.loc 1 56 0
  61 002e 45F60E03 		movw	r3, #22542
  62 0032 C4F20003 		movt	r3, 16384
  63 0036 4FF08002 		mov	r2, #128
  64 003a 1A70     		strb	r2, [r3, #0]
  57:.\Generated_Source\PSoC5/PGA_1.c ****     /* Set gain and compensation */
  58:.\Generated_Source\PSoC5/PGA_1.c ****     PGA_1_SetGain(PGA_1_DEFAULT_GAIN);
  65              		.loc 1 58 0
  66 003c 4FF00000 		mov	r0, #0
  67 0040 FFF7FEFF 		bl	PGA_1_SetGain
  59:.\Generated_Source\PSoC5/PGA_1.c ****     /* Set power */
  60:.\Generated_Source\PSoC5/PGA_1.c ****     PGA_1_SetPower(PGA_1_DEFAULT_POWER);
  68              		.loc 1 60 0
  69 0044 4FF00300 		mov	r0, #3
  70 0048 FFF7FEFF 		bl	PGA_1_SetPower
  61:.\Generated_Source\PSoC5/PGA_1.c **** }
  71              		.loc 1 61 0
  72 004c 80BD     		pop	{r7, pc}
  73              		.cfi_endproc
  74              	.LFE0:
  75              		.size	PGA_1_Init, .-PGA_1_Init
  76 004e 00BF     		.section	.text.PGA_1_Enable,"ax",%progbits
  77              		.align	2
  78              		.global	PGA_1_Enable
  79              		.thumb
  80              		.thumb_func
  81              		.type	PGA_1_Enable, %function
  82              	PGA_1_Enable:
  83              	.LFB1:
  62:.\Generated_Source\PSoC5/PGA_1.c **** 
  63:.\Generated_Source\PSoC5/PGA_1.c **** 
  64:.\Generated_Source\PSoC5/PGA_1.c **** /*******************************************************************************   
  65:.\Generated_Source\PSoC5/PGA_1.c **** * Function Name: PGA_1_Enable
  66:.\Generated_Source\PSoC5/PGA_1.c **** ********************************************************************************
  67:.\Generated_Source\PSoC5/PGA_1.c **** *
  68:.\Generated_Source\PSoC5/PGA_1.c **** * Summary:
  69:.\Generated_Source\PSoC5/PGA_1.c **** *  Enables the PGA block operation.
  70:.\Generated_Source\PSoC5/PGA_1.c **** *
  71:.\Generated_Source\PSoC5/PGA_1.c **** * Parameters:
  72:.\Generated_Source\PSoC5/PGA_1.c **** *  void
  73:.\Generated_Source\PSoC5/PGA_1.c **** *
  74:.\Generated_Source\PSoC5/PGA_1.c **** * Return:
  75:.\Generated_Source\PSoC5/PGA_1.c **** *  void
  76:.\Generated_Source\PSoC5/PGA_1.c **** *
  77:.\Generated_Source\PSoC5/PGA_1.c **** *******************************************************************************/
  78:.\Generated_Source\PSoC5/PGA_1.c **** void PGA_1_Enable(void) 
  79:.\Generated_Source\PSoC5/PGA_1.c **** {
  84              		.loc 1 79 0
  85              		.cfi_startproc
  86              		@ args = 0, pretend = 0, frame = 0
  87              		@ frame_needed = 1, uses_anonymous_args = 0
  88              		@ link register save eliminated.
  89 0000 80B4     		push	{r7}
  90              	.LCFI2:
  91              		.cfi_def_cfa_offset 4
  92              		.cfi_offset 7, -4
ARM GAS  C:\Users\csap2972\AppData\Local\Temp\ccTzskbk.s 			page 4


  93 0002 00AF     		add	r7, sp, #0
  94              	.LCFI3:
  95              		.cfi_def_cfa_register 7
  80:.\Generated_Source\PSoC5/PGA_1.c ****     /* This is to restore the value of register CR1 and CR2 which is saved 
  81:.\Generated_Source\PSoC5/PGA_1.c ****       in prior to the modifications in stop() API */
  82:.\Generated_Source\PSoC5/PGA_1.c ****     #if (CY_PSOC5A)
  83:.\Generated_Source\PSoC5/PGA_1.c ****         if(PGA_1_P5backup.enableState == 1u)
  84:.\Generated_Source\PSoC5/PGA_1.c ****         {
  85:.\Generated_Source\PSoC5/PGA_1.c ****             PGA_1_CR1_REG = PGA_1_P5backup.scCR1Reg;
  86:.\Generated_Source\PSoC5/PGA_1.c ****             PGA_1_CR2_REG = PGA_1_P5backup.scCR2Reg;
  87:.\Generated_Source\PSoC5/PGA_1.c ****             PGA_1_P5backup.enableState = 0u;
  88:.\Generated_Source\PSoC5/PGA_1.c ****         }
  89:.\Generated_Source\PSoC5/PGA_1.c ****     #endif /* CY_PSOC5A */   
  90:.\Generated_Source\PSoC5/PGA_1.c **** 
  91:.\Generated_Source\PSoC5/PGA_1.c ****     /* Enable power to the Amp in Active mode*/
  92:.\Generated_Source\PSoC5/PGA_1.c ****     PGA_1_PM_ACT_CFG_REG |= PGA_1_ACT_PWR_EN;
  96              		.loc 1 92 0
  97 0004 44F2A933 		movw	r3, #17321
  98 0008 C4F20003 		movt	r3, 16384
  99 000c 44F2A932 		movw	r2, #17321
 100 0010 C4F20002 		movt	r2, 16384
 101 0014 1278     		ldrb	r2, [r2, #0]
 102 0016 D2B2     		uxtb	r2, r2
 103 0018 42F00802 		orr	r2, r2, #8
 104 001c D2B2     		uxtb	r2, r2
 105 001e 1A70     		strb	r2, [r3, #0]
  93:.\Generated_Source\PSoC5/PGA_1.c **** 
  94:.\Generated_Source\PSoC5/PGA_1.c ****     /* Enable power to the Amp in Alternative Active mode*/
  95:.\Generated_Source\PSoC5/PGA_1.c ****     PGA_1_PM_STBY_CFG_REG |= PGA_1_STBY_PWR_EN;
 106              		.loc 1 95 0
 107 0020 44F2B933 		movw	r3, #17337
 108 0024 C4F20003 		movt	r3, 16384
 109 0028 44F2B932 		movw	r2, #17337
 110 002c C4F20002 		movt	r2, 16384
 111 0030 1278     		ldrb	r2, [r2, #0]
 112 0032 D2B2     		uxtb	r2, r2
 113 0034 42F00802 		orr	r2, r2, #8
 114 0038 D2B2     		uxtb	r2, r2
 115 003a 1A70     		strb	r2, [r3, #0]
  96:.\Generated_Source\PSoC5/PGA_1.c ****     
  97:.\Generated_Source\PSoC5/PGA_1.c ****     PGA_1_PUMP_CR1_REG |= PGA_1_PUMP_CR1_SC_CLKSEL;
 116              		.loc 1 97 0
 117 003c 45F67703 		movw	r3, #22647
 118 0040 C4F20003 		movt	r3, 16384
 119 0044 45F67702 		movw	r2, #22647
 120 0048 C4F20002 		movt	r2, 16384
 121 004c 1278     		ldrb	r2, [r2, #0]
 122 004e D2B2     		uxtb	r2, r2
 123 0050 62F07F02 		orn	r2, r2, #127
 124 0054 D2B2     		uxtb	r2, r2
 125 0056 1A70     		strb	r2, [r3, #0]
  98:.\Generated_Source\PSoC5/PGA_1.c ****     
  99:.\Generated_Source\PSoC5/PGA_1.c ****     #if (!CY_PSOC5A)
 100:.\Generated_Source\PSoC5/PGA_1.c ****         #if (CYDEV_VARIABLE_VDDA == 1u)
 101:.\Generated_Source\PSoC5/PGA_1.c ****             if(CyScPumpEnabled == 1u)
 102:.\Generated_Source\PSoC5/PGA_1.c ****             {
 103:.\Generated_Source\PSoC5/PGA_1.c ****                 PGA_1_BSTCLK_REG &= (uint8)(~PGA_1_BST_CLK_INDEX_MASK);
ARM GAS  C:\Users\csap2972\AppData\Local\Temp\ccTzskbk.s 			page 5


 104:.\Generated_Source\PSoC5/PGA_1.c ****                 PGA_1_BSTCLK_REG |= PGA_1_BST_CLK_EN | CyScBoostClk__INDEX;
 105:.\Generated_Source\PSoC5/PGA_1.c ****                 PGA_1_SC_MISC_REG |= PGA_1_PUMP_FORCE;
 106:.\Generated_Source\PSoC5/PGA_1.c ****                 CyScBoostClk_Start();
 107:.\Generated_Source\PSoC5/PGA_1.c ****             }
 108:.\Generated_Source\PSoC5/PGA_1.c ****             else
 109:.\Generated_Source\PSoC5/PGA_1.c ****             {
 110:.\Generated_Source\PSoC5/PGA_1.c ****                 PGA_1_BSTCLK_REG &= (uint8)(~PGA_1_BST_CLK_EN);
 111:.\Generated_Source\PSoC5/PGA_1.c ****                 PGA_1_SC_MISC_REG &= (uint8)(~PGA_1_PUMP_FORCE);
 112:.\Generated_Source\PSoC5/PGA_1.c ****             }
 113:.\Generated_Source\PSoC5/PGA_1.c ****         #endif /* (CYDEV_VARIABLE_VDDA == 1u) */
 114:.\Generated_Source\PSoC5/PGA_1.c ****     #endif /* (!CY_PSOC5A) */
 115:.\Generated_Source\PSoC5/PGA_1.c **** }
 126              		.loc 1 115 0
 127 0058 BD46     		mov	sp, r7
 128 005a 80BC     		pop	{r7}
 129 005c 7047     		bx	lr
 130              		.cfi_endproc
 131              	.LFE1:
 132              		.size	PGA_1_Enable, .-PGA_1_Enable
 133 005e 00BF     		.section	.text.PGA_1_Start,"ax",%progbits
 134              		.align	2
 135              		.global	PGA_1_Start
 136              		.thumb
 137              		.thumb_func
 138              		.type	PGA_1_Start, %function
 139              	PGA_1_Start:
 140              	.LFB2:
 116:.\Generated_Source\PSoC5/PGA_1.c **** 
 117:.\Generated_Source\PSoC5/PGA_1.c **** 
 118:.\Generated_Source\PSoC5/PGA_1.c **** /*******************************************************************************
 119:.\Generated_Source\PSoC5/PGA_1.c **** * Function Name: PGA_1_Start
 120:.\Generated_Source\PSoC5/PGA_1.c **** ********************************************************************************
 121:.\Generated_Source\PSoC5/PGA_1.c **** *
 122:.\Generated_Source\PSoC5/PGA_1.c **** * Summary:
 123:.\Generated_Source\PSoC5/PGA_1.c **** *  The start function initializes the PGA with the default values and sets
 124:.\Generated_Source\PSoC5/PGA_1.c **** *  the power to the given level. A power level of 0, is same as executing
 125:.\Generated_Source\PSoC5/PGA_1.c **** *  the stop function.
 126:.\Generated_Source\PSoC5/PGA_1.c **** *
 127:.\Generated_Source\PSoC5/PGA_1.c **** * Parameters:
 128:.\Generated_Source\PSoC5/PGA_1.c **** *  void
 129:.\Generated_Source\PSoC5/PGA_1.c **** *
 130:.\Generated_Source\PSoC5/PGA_1.c **** * Return:
 131:.\Generated_Source\PSoC5/PGA_1.c **** *  void
 132:.\Generated_Source\PSoC5/PGA_1.c **** *
 133:.\Generated_Source\PSoC5/PGA_1.c **** *******************************************************************************/
 134:.\Generated_Source\PSoC5/PGA_1.c **** void PGA_1_Start(void) 
 135:.\Generated_Source\PSoC5/PGA_1.c **** {
 141              		.loc 1 135 0
 142              		.cfi_startproc
 143              		@ args = 0, pretend = 0, frame = 0
 144              		@ frame_needed = 1, uses_anonymous_args = 0
 145 0000 80B5     		push	{r7, lr}
 146              	.LCFI4:
 147              		.cfi_def_cfa_offset 8
 148              		.cfi_offset 7, -8
 149              		.cfi_offset 14, -4
 150 0002 00AF     		add	r7, sp, #0
ARM GAS  C:\Users\csap2972\AppData\Local\Temp\ccTzskbk.s 			page 6


 151              	.LCFI5:
 152              		.cfi_def_cfa_register 7
 136:.\Generated_Source\PSoC5/PGA_1.c **** 
 137:.\Generated_Source\PSoC5/PGA_1.c ****     /* This is to restore the value of register CR1 and CR2 which is saved 
 138:.\Generated_Source\PSoC5/PGA_1.c ****       in prior to the modification in stop() API */
 139:.\Generated_Source\PSoC5/PGA_1.c **** 
 140:.\Generated_Source\PSoC5/PGA_1.c ****     if(PGA_1_initVar == 0u)
 153              		.loc 1 140 0
 154 0004 40F20003 		movw	r3, #:lower16:PGA_1_initVar
 155 0008 C0F20003 		movt	r3, #:upper16:PGA_1_initVar
 156 000c 1B78     		ldrb	r3, [r3, #0]	@ zero_extendqisi2
 157 000e 002B     		cmp	r3, #0
 158 0010 08D1     		bne	.L4
 141:.\Generated_Source\PSoC5/PGA_1.c ****     {
 142:.\Generated_Source\PSoC5/PGA_1.c ****         PGA_1_Init();
 159              		.loc 1 142 0
 160 0012 FFF7FEFF 		bl	PGA_1_Init
 143:.\Generated_Source\PSoC5/PGA_1.c ****         PGA_1_initVar = 1u;
 161              		.loc 1 143 0
 162 0016 40F20003 		movw	r3, #:lower16:PGA_1_initVar
 163 001a C0F20003 		movt	r3, #:upper16:PGA_1_initVar
 164 001e 4FF00102 		mov	r2, #1
 165 0022 1A70     		strb	r2, [r3, #0]
 166              	.L4:
 144:.\Generated_Source\PSoC5/PGA_1.c ****     }
 145:.\Generated_Source\PSoC5/PGA_1.c **** 
 146:.\Generated_Source\PSoC5/PGA_1.c ****     PGA_1_Enable();
 167              		.loc 1 146 0
 168 0024 FFF7FEFF 		bl	PGA_1_Enable
 147:.\Generated_Source\PSoC5/PGA_1.c **** }
 169              		.loc 1 147 0
 170 0028 80BD     		pop	{r7, pc}
 171              		.cfi_endproc
 172              	.LFE2:
 173              		.size	PGA_1_Start, .-PGA_1_Start
 174 002a 00BF     		.section	.text.PGA_1_Stop,"ax",%progbits
 175              		.align	2
 176              		.global	PGA_1_Stop
 177              		.thumb
 178              		.thumb_func
 179              		.type	PGA_1_Stop, %function
 180              	PGA_1_Stop:
 181              	.LFB3:
 148:.\Generated_Source\PSoC5/PGA_1.c **** 
 149:.\Generated_Source\PSoC5/PGA_1.c **** 
 150:.\Generated_Source\PSoC5/PGA_1.c **** /*******************************************************************************
 151:.\Generated_Source\PSoC5/PGA_1.c **** * Function Name: PGA_1_Stop
 152:.\Generated_Source\PSoC5/PGA_1.c **** ********************************************************************************
 153:.\Generated_Source\PSoC5/PGA_1.c **** *
 154:.\Generated_Source\PSoC5/PGA_1.c **** * Summary:
 155:.\Generated_Source\PSoC5/PGA_1.c **** *  Powers down amplifier to lowest power state.
 156:.\Generated_Source\PSoC5/PGA_1.c **** *
 157:.\Generated_Source\PSoC5/PGA_1.c **** * Parameters:
 158:.\Generated_Source\PSoC5/PGA_1.c **** *  void
 159:.\Generated_Source\PSoC5/PGA_1.c **** *
 160:.\Generated_Source\PSoC5/PGA_1.c **** * Return:
 161:.\Generated_Source\PSoC5/PGA_1.c **** *  void
ARM GAS  C:\Users\csap2972\AppData\Local\Temp\ccTzskbk.s 			page 7


 162:.\Generated_Source\PSoC5/PGA_1.c **** *
 163:.\Generated_Source\PSoC5/PGA_1.c **** *******************************************************************************/
 164:.\Generated_Source\PSoC5/PGA_1.c **** void PGA_1_Stop(void) 
 165:.\Generated_Source\PSoC5/PGA_1.c **** { 
 182              		.loc 1 165 0
 183              		.cfi_startproc
 184              		@ args = 0, pretend = 0, frame = 0
 185              		@ frame_needed = 1, uses_anonymous_args = 0
 186              		@ link register save eliminated.
 187 0000 80B4     		push	{r7}
 188              	.LCFI6:
 189              		.cfi_def_cfa_offset 4
 190              		.cfi_offset 7, -4
 191 0002 00AF     		add	r7, sp, #0
 192              	.LCFI7:
 193              		.cfi_def_cfa_register 7
 166:.\Generated_Source\PSoC5/PGA_1.c ****     /* Disble power to the Amp in Active mode template */
 167:.\Generated_Source\PSoC5/PGA_1.c ****     PGA_1_PM_ACT_CFG_REG &= (uint8)(~PGA_1_ACT_PWR_EN);
 194              		.loc 1 167 0
 195 0004 44F2A933 		movw	r3, #17321
 196 0008 C4F20003 		movt	r3, 16384
 197 000c 44F2A932 		movw	r2, #17321
 198 0010 C4F20002 		movt	r2, 16384
 199 0014 1278     		ldrb	r2, [r2, #0]
 200 0016 D2B2     		uxtb	r2, r2
 201 0018 22F00802 		bic	r2, r2, #8
 202 001c D2B2     		uxtb	r2, r2
 203 001e 1A70     		strb	r2, [r3, #0]
 168:.\Generated_Source\PSoC5/PGA_1.c **** 
 169:.\Generated_Source\PSoC5/PGA_1.c ****     /* Disble power to the Amp in Alternative Active mode template */
 170:.\Generated_Source\PSoC5/PGA_1.c ****     PGA_1_PM_STBY_CFG_REG &= (uint8)(~PGA_1_STBY_PWR_EN);
 204              		.loc 1 170 0
 205 0020 44F2B933 		movw	r3, #17337
 206 0024 C4F20003 		movt	r3, 16384
 207 0028 44F2B932 		movw	r2, #17337
 208 002c C4F20002 		movt	r2, 16384
 209 0030 1278     		ldrb	r2, [r2, #0]
 210 0032 D2B2     		uxtb	r2, r2
 211 0034 22F00802 		bic	r2, r2, #8
 212 0038 D2B2     		uxtb	r2, r2
 213 003a 1A70     		strb	r2, [r3, #0]
 171:.\Generated_Source\PSoC5/PGA_1.c **** 
 172:.\Generated_Source\PSoC5/PGA_1.c ****     #if (!CY_PSOC5A)
 173:.\Generated_Source\PSoC5/PGA_1.c ****         #if (CYDEV_VARIABLE_VDDA == 1u)
 174:.\Generated_Source\PSoC5/PGA_1.c ****             PGA_1_BSTCLK_REG &= (uint8)(~PGA_1_BST_CLK_EN);
 175:.\Generated_Source\PSoC5/PGA_1.c ****             /* Disable pumps only if there aren't any SC block in use */
 176:.\Generated_Source\PSoC5/PGA_1.c ****             if ((PGA_1_PM_ACT_CFG_REG & PGA_1_PM_ACT_CFG_MASK) == 0u)
 177:.\Generated_Source\PSoC5/PGA_1.c ****             {
 178:.\Generated_Source\PSoC5/PGA_1.c ****                 PGA_1_SC_MISC_REG &= (uint8)(~PGA_1_PUMP_FORCE);
 179:.\Generated_Source\PSoC5/PGA_1.c ****                 PGA_1_PUMP_CR1_REG &= (uint8)(~PGA_1_PUMP_CR1_SC_CLKSEL);
 180:.\Generated_Source\PSoC5/PGA_1.c ****                 CyScBoostClk_Stop();
 181:.\Generated_Source\PSoC5/PGA_1.c ****             }
 182:.\Generated_Source\PSoC5/PGA_1.c ****         #endif /* CYDEV_VARIABLE_VDDA == 1u */
 183:.\Generated_Source\PSoC5/PGA_1.c ****     #endif /* (CY_PSOC3 || CY_PSOC5LP) */
 184:.\Generated_Source\PSoC5/PGA_1.c **** 
 185:.\Generated_Source\PSoC5/PGA_1.c ****     /* This sets PGA in zero current mode and output routes are valid */
 186:.\Generated_Source\PSoC5/PGA_1.c ****     #if (CY_PSOC5A)
ARM GAS  C:\Users\csap2972\AppData\Local\Temp\ccTzskbk.s 			page 8


 187:.\Generated_Source\PSoC5/PGA_1.c ****         PGA_1_P5backup.scCR1Reg = PGA_1_CR1_REG;
 188:.\Generated_Source\PSoC5/PGA_1.c ****         PGA_1_P5backup.scCR2Reg = PGA_1_CR2_REG;
 189:.\Generated_Source\PSoC5/PGA_1.c ****         PGA_1_CR1_REG = 0x00u;
 190:.\Generated_Source\PSoC5/PGA_1.c ****         PGA_1_CR2_REG = 0x00u;
 191:.\Generated_Source\PSoC5/PGA_1.c ****         PGA_1_P5backup.enableState = 1u;
 192:.\Generated_Source\PSoC5/PGA_1.c ****     #endif /* CY_PSOC5A */
 193:.\Generated_Source\PSoC5/PGA_1.c **** }
 214              		.loc 1 193 0
 215 003c BD46     		mov	sp, r7
 216 003e 80BC     		pop	{r7}
 217 0040 7047     		bx	lr
 218              		.cfi_endproc
 219              	.LFE3:
 220              		.size	PGA_1_Stop, .-PGA_1_Stop
 221 0042 00BF     		.section	.text.PGA_1_SetPower,"ax",%progbits
 222              		.align	2
 223              		.global	PGA_1_SetPower
 224              		.thumb
 225              		.thumb_func
 226              		.type	PGA_1_SetPower, %function
 227              	PGA_1_SetPower:
 228              	.LFB4:
 194:.\Generated_Source\PSoC5/PGA_1.c **** 
 195:.\Generated_Source\PSoC5/PGA_1.c **** 
 196:.\Generated_Source\PSoC5/PGA_1.c **** /*******************************************************************************
 197:.\Generated_Source\PSoC5/PGA_1.c **** * Function Name: PGA_1_SetPower
 198:.\Generated_Source\PSoC5/PGA_1.c **** ********************************************************************************
 199:.\Generated_Source\PSoC5/PGA_1.c **** *
 200:.\Generated_Source\PSoC5/PGA_1.c **** * Summary:
 201:.\Generated_Source\PSoC5/PGA_1.c **** *  Set the power of the PGA.
 202:.\Generated_Source\PSoC5/PGA_1.c **** *
 203:.\Generated_Source\PSoC5/PGA_1.c **** * Parameters:
 204:.\Generated_Source\PSoC5/PGA_1.c **** *  power: Sets power level between (0) and (3) high power
 205:.\Generated_Source\PSoC5/PGA_1.c **** *
 206:.\Generated_Source\PSoC5/PGA_1.c **** * Return:
 207:.\Generated_Source\PSoC5/PGA_1.c **** *  void
 208:.\Generated_Source\PSoC5/PGA_1.c **** *
 209:.\Generated_Source\PSoC5/PGA_1.c **** *******************************************************************************/
 210:.\Generated_Source\PSoC5/PGA_1.c **** void PGA_1_SetPower(uint8 power) 
 211:.\Generated_Source\PSoC5/PGA_1.c **** {
 229              		.loc 1 211 0
 230              		.cfi_startproc
 231              		@ args = 0, pretend = 0, frame = 16
 232              		@ frame_needed = 1, uses_anonymous_args = 0
 233              		@ link register save eliminated.
 234 0000 80B4     		push	{r7}
 235              	.LCFI8:
 236              		.cfi_def_cfa_offset 4
 237              		.cfi_offset 7, -4
 238 0002 85B0     		sub	sp, sp, #20
 239              	.LCFI9:
 240              		.cfi_def_cfa_offset 24
 241 0004 00AF     		add	r7, sp, #0
 242              	.LCFI10:
 243              		.cfi_def_cfa_register 7
 244 0006 0346     		mov	r3, r0
 245 0008 FB71     		strb	r3, [r7, #7]
ARM GAS  C:\Users\csap2972\AppData\Local\Temp\ccTzskbk.s 			page 9


 212:.\Generated_Source\PSoC5/PGA_1.c ****     uint8 tmpCR;
 213:.\Generated_Source\PSoC5/PGA_1.c **** 
 214:.\Generated_Source\PSoC5/PGA_1.c ****     tmpCR = PGA_1_CR1_REG & (uint8)(~PGA_1_DRIVE_MASK);
 246              		.loc 1 214 0
 247 000a 45F60D03 		movw	r3, #22541
 248 000e C4F20003 		movt	r3, 16384
 249 0012 1B78     		ldrb	r3, [r3, #0]
 250 0014 DBB2     		uxtb	r3, r3
 251 0016 23F00303 		bic	r3, r3, #3
 252 001a FB73     		strb	r3, [r7, #15]
 215:.\Generated_Source\PSoC5/PGA_1.c ****     tmpCR |= (power & PGA_1_DRIVE_MASK);
 253              		.loc 1 215 0
 254 001c FB79     		ldrb	r3, [r7, #7]
 255 001e 03F00303 		and	r3, r3, #3
 256 0022 DAB2     		uxtb	r2, r3
 257 0024 FB7B     		ldrb	r3, [r7, #15]
 258 0026 1343     		orrs	r3, r3, r2
 259 0028 FB73     		strb	r3, [r7, #15]
 216:.\Generated_Source\PSoC5/PGA_1.c ****     PGA_1_CR1_REG = tmpCR;  
 260              		.loc 1 216 0
 261 002a 45F60D03 		movw	r3, #22541
 262 002e C4F20003 		movt	r3, 16384
 263 0032 FA7B     		ldrb	r2, [r7, #15]
 264 0034 1A70     		strb	r2, [r3, #0]
 217:.\Generated_Source\PSoC5/PGA_1.c **** }
 265              		.loc 1 217 0
 266 0036 07F11407 		add	r7, r7, #20
 267 003a BD46     		mov	sp, r7
 268 003c 80BC     		pop	{r7}
 269 003e 7047     		bx	lr
 270              		.cfi_endproc
 271              	.LFE4:
 272              		.size	PGA_1_SetPower, .-PGA_1_SetPower
 273              		.section	.rodata
 274              		.align	2
 275              	.LC0:
 276 0000 01       		.byte	1
 277 0001 11       		.byte	17
 278 0002 21       		.byte	33
 279 0003 31       		.byte	49
 280 0004 41       		.byte	65
 281 0005 61       		.byte	97
 282 0006 53       		.byte	83
 283 0007 63       		.byte	99
 284 0008 73       		.byte	115
 285 0009 000000   		.align	2
 286              	.LC1:
 287 000c 08       		.byte	8
 288 000d 09       		.byte	9
 289 000e 01       		.byte	1
 290 000f 01       		.byte	1
 291 0010 05       		.byte	5
 292 0011 07       		.byte	7
 293 0012 07       		.byte	7
 294 0013 04       		.byte	4
 295 0014 04       		.byte	4
 296 0015 000000   		.section	.text.PGA_1_SetGain,"ax",%progbits
ARM GAS  C:\Users\csap2972\AppData\Local\Temp\ccTzskbk.s 			page 10


 297              		.align	2
 298              		.global	PGA_1_SetGain
 299              		.thumb
 300              		.thumb_func
 301              		.type	PGA_1_SetGain, %function
 302              	PGA_1_SetGain:
 303              	.LFB5:
 218:.\Generated_Source\PSoC5/PGA_1.c **** 
 219:.\Generated_Source\PSoC5/PGA_1.c **** 
 220:.\Generated_Source\PSoC5/PGA_1.c **** /*******************************************************************************
 221:.\Generated_Source\PSoC5/PGA_1.c **** * Function Name: PGA_1_SetGain
 222:.\Generated_Source\PSoC5/PGA_1.c **** ********************************************************************************
 223:.\Generated_Source\PSoC5/PGA_1.c **** *
 224:.\Generated_Source\PSoC5/PGA_1.c **** * Summary:
 225:.\Generated_Source\PSoC5/PGA_1.c **** *  This function sets values of the input and feedback resistors to set a 
 226:.\Generated_Source\PSoC5/PGA_1.c **** *  specific gain of the amplifier.
 227:.\Generated_Source\PSoC5/PGA_1.c **** *
 228:.\Generated_Source\PSoC5/PGA_1.c **** * Parameters:
 229:.\Generated_Source\PSoC5/PGA_1.c **** *  gain: Gain value of PGA (See header file for gain values.)
 230:.\Generated_Source\PSoC5/PGA_1.c **** *
 231:.\Generated_Source\PSoC5/PGA_1.c **** * Return:
 232:.\Generated_Source\PSoC5/PGA_1.c **** *  void 
 233:.\Generated_Source\PSoC5/PGA_1.c **** *
 234:.\Generated_Source\PSoC5/PGA_1.c **** *******************************************************************************/
 235:.\Generated_Source\PSoC5/PGA_1.c **** void PGA_1_SetGain(uint8 gain) 
 236:.\Generated_Source\PSoC5/PGA_1.c **** {
 304              		.loc 1 236 0
 305              		.cfi_startproc
 306              		@ args = 0, pretend = 0, frame = 32
 307              		@ frame_needed = 1, uses_anonymous_args = 0
 308              		@ link register save eliminated.
 309 0000 80B4     		push	{r7}
 310              	.LCFI11:
 311              		.cfi_def_cfa_offset 4
 312              		.cfi_offset 7, -4
 313 0002 89B0     		sub	sp, sp, #36
 314              	.LCFI12:
 315              		.cfi_def_cfa_offset 40
 316 0004 00AF     		add	r7, sp, #0
 317              	.LCFI13:
 318              		.cfi_def_cfa_register 7
 319 0006 0346     		mov	r3, r0
 320 0008 FB71     		strb	r3, [r7, #7]
 237:.\Generated_Source\PSoC5/PGA_1.c ****     /* Constant array for gain settings */
 238:.\Generated_Source\PSoC5/PGA_1.c ****     const uint8 PGA_1_GainArray[9] = { 
 321              		.loc 1 238 0
 322 000a 40F20002 		movw	r2, #:lower16:.LC0
 323 000e C0F20002 		movt	r2, #:upper16:.LC0
 324 0012 07F11403 		add	r3, r7, #20
 325 0016 1068     		ldr	r0, [r2, #0]	@ unaligned
 326 0018 5168     		ldr	r1, [r2, #4]	@ unaligned
 327 001a 03C3     		stmia	r3!, {r0, r1}
 328 001c 127A     		ldrb	r2, [r2, #8]
 329 001e 1A70     		strb	r2, [r3, #0]
 239:.\Generated_Source\PSoC5/PGA_1.c ****         (PGA_1_RVAL_0K   | PGA_1_R20_40B_40K | PGA_1_BIAS_LOW), /* G=1  */
 240:.\Generated_Source\PSoC5/PGA_1.c ****         (PGA_1_RVAL_40K  | PGA_1_R20_40B_40K | PGA_1_BIAS_LOW), /* G=2  */
 241:.\Generated_Source\PSoC5/PGA_1.c ****         (PGA_1_RVAL_120K | PGA_1_R20_40B_40K | PGA_1_BIAS_LOW), /* G=4  */
ARM GAS  C:\Users\csap2972\AppData\Local\Temp\ccTzskbk.s 			page 11


 242:.\Generated_Source\PSoC5/PGA_1.c ****         (PGA_1_RVAL_280K | PGA_1_R20_40B_40K | PGA_1_BIAS_LOW), /* G=8  */
 243:.\Generated_Source\PSoC5/PGA_1.c ****         (PGA_1_RVAL_600K | PGA_1_R20_40B_40K | PGA_1_BIAS_LOW), /* G=16 */
 244:.\Generated_Source\PSoC5/PGA_1.c ****         (PGA_1_RVAL_460K | PGA_1_R20_40B_40K | PGA_1_BIAS_LOW), /* G=24, Sets Rin as 20k */
 245:.\Generated_Source\PSoC5/PGA_1.c ****         (PGA_1_RVAL_620K | PGA_1_R20_40B_20K | PGA_1_BIAS_LOW), /* G=32 */
 246:.\Generated_Source\PSoC5/PGA_1.c ****         (PGA_1_RVAL_470K | PGA_1_R20_40B_20K | PGA_1_BIAS_LOW), /* G=48, Sets Rin as 10k */
 247:.\Generated_Source\PSoC5/PGA_1.c ****         (PGA_1_RVAL_490K | PGA_1_R20_40B_20K | PGA_1_BIAS_LOW)  /* G=50, Sets Rin as 10k */
 248:.\Generated_Source\PSoC5/PGA_1.c ****     };
 249:.\Generated_Source\PSoC5/PGA_1.c ****     
 250:.\Generated_Source\PSoC5/PGA_1.c ****     /* Constant array for gain compenstion settings */
 251:.\Generated_Source\PSoC5/PGA_1.c ****     const uint8 PGA_1_GainComp[9] = { 
 330              		.loc 1 251 0
 331 0020 40F20002 		movw	r2, #:lower16:.LC1
 332 0024 C0F20002 		movt	r2, #:upper16:.LC1
 333 0028 07F10803 		add	r3, r7, #8
 334 002c 1068     		ldr	r0, [r2, #0]	@ unaligned
 335 002e 5168     		ldr	r1, [r2, #4]	@ unaligned
 336 0030 03C3     		stmia	r3!, {r0, r1}
 337 0032 127A     		ldrb	r2, [r2, #8]
 338 0034 1A70     		strb	r2, [r3, #0]
 252:.\Generated_Source\PSoC5/PGA_1.c ****         ( PGA_1_COMP_4P35PF  | (uint8)( PGA_1_REDC_00 >> 2 )), /* G=1  */
 253:.\Generated_Source\PSoC5/PGA_1.c ****         ( PGA_1_COMP_4P35PF  | (uint8)( PGA_1_REDC_01 >> 2 )), /* G=2  */
 254:.\Generated_Source\PSoC5/PGA_1.c ****         ( PGA_1_COMP_3P0PF   | (uint8)( PGA_1_REDC_01 >> 2 )), /* G=4  */
 255:.\Generated_Source\PSoC5/PGA_1.c ****         ( PGA_1_COMP_3P0PF   | (uint8)( PGA_1_REDC_01 >> 2 )), /* G=8  */
 256:.\Generated_Source\PSoC5/PGA_1.c ****         ( PGA_1_COMP_3P6PF   | (uint8)( PGA_1_REDC_01 >> 2 )), /* G=16 */
 257:.\Generated_Source\PSoC5/PGA_1.c ****         ( PGA_1_COMP_3P6PF   | (uint8)( PGA_1_REDC_11 >> 2 )), /* G=24 */
 258:.\Generated_Source\PSoC5/PGA_1.c ****         ( PGA_1_COMP_3P6PF   | (uint8)( PGA_1_REDC_11 >> 2 )), /* G=32 */
 259:.\Generated_Source\PSoC5/PGA_1.c ****         ( PGA_1_COMP_3P6PF   | (uint8)( PGA_1_REDC_00 >> 2 )), /* G=48 */
 260:.\Generated_Source\PSoC5/PGA_1.c ****         ( PGA_1_COMP_3P6PF   | (uint8)( PGA_1_REDC_00 >> 2 ))  /* G=50 */
 261:.\Generated_Source\PSoC5/PGA_1.c ****     };
 262:.\Generated_Source\PSoC5/PGA_1.c ****     
 263:.\Generated_Source\PSoC5/PGA_1.c ****     /* Only set new gain if it is a valid gain */
 264:.\Generated_Source\PSoC5/PGA_1.c ****     if( gain <= PGA_1_GAIN_MAX)
 339              		.loc 1 264 0
 340 0036 FB79     		ldrb	r3, [r7, #7]	@ zero_extendqisi2
 341 0038 082B     		cmp	r3, #8
 342 003a 52D8     		bhi	.L7
 265:.\Generated_Source\PSoC5/PGA_1.c ****     {
 266:.\Generated_Source\PSoC5/PGA_1.c ****         /* Clear resistors, redc, and bias */
 267:.\Generated_Source\PSoC5/PGA_1.c ****         PGA_1_CR2_REG &= (uint8)(~(PGA_1_RVAL_MASK | PGA_1_R20_40B_MASK | 
 343              		.loc 1 267 0
 344 003c 45F60E03 		movw	r3, #22542
 345 0040 C4F20003 		movt	r3, 16384
 346 0044 45F60E02 		movw	r2, #22542
 347 0048 C4F20002 		movt	r2, 16384
 348 004c 1278     		ldrb	r2, [r2, #0]
 349 004e D2B2     		uxtb	r2, r2
 350 0050 22F07F02 		bic	r2, r2, #127
 351 0054 D2B2     		uxtb	r2, r2
 352 0056 1A70     		strb	r2, [r3, #0]
 268:.\Generated_Source\PSoC5/PGA_1.c ****                                 PGA_1_REDC_MASK | PGA_1_BIAS_MASK ));
 269:.\Generated_Source\PSoC5/PGA_1.c **** 
 270:.\Generated_Source\PSoC5/PGA_1.c ****         /* Set gain value resistors, redc comp, and bias */
 271:.\Generated_Source\PSoC5/PGA_1.c ****         PGA_1_CR2_REG |= (PGA_1_GainArray[gain] |
 353              		.loc 1 271 0
 354 0058 45F60E03 		movw	r3, #22542
 355 005c C4F20003 		movt	r3, 16384
 356 0060 45F60E02 		movw	r2, #22542
ARM GAS  C:\Users\csap2972\AppData\Local\Temp\ccTzskbk.s 			page 12


 357 0064 C4F20002 		movt	r2, 16384
 358 0068 1278     		ldrb	r2, [r2, #0]
 359 006a D1B2     		uxtb	r1, r2
 360 006c FA79     		ldrb	r2, [r7, #7]	@ zero_extendqisi2
 361 006e 07F12000 		add	r0, r7, #32
 362 0072 8218     		adds	r2, r0, r2
 363 0074 12F80C0C 		ldrb	r0, [r2, #-12]	@ zero_extendqisi2
 272:.\Generated_Source\PSoC5/PGA_1.c ****                                 ((uint8)(PGA_1_GainComp[gain] << 2 ) & PGA_1_REDC_MASK));
 364              		.loc 1 272 0
 365 0078 FA79     		ldrb	r2, [r7, #7]	@ zero_extendqisi2
 366 007a 07F1200C 		add	ip, r7, #32
 367 007e 6244     		add	r2, ip, r2
 368 0080 12F8182C 		ldrb	r2, [r2, #-24]	@ zero_extendqisi2
 369 0084 4FEA8202 		lsl	r2, r2, #2
 370 0088 D2B2     		uxtb	r2, r2
 271:.\Generated_Source\PSoC5/PGA_1.c ****         PGA_1_CR2_REG |= (PGA_1_GainArray[gain] |
 371              		.loc 1 271 0
 372 008a 02F00C02 		and	r2, r2, #12
 373 008e D2B2     		uxtb	r2, r2
 374 0090 0243     		orrs	r2, r2, r0
 375 0092 D2B2     		uxtb	r2, r2
 376 0094 0A43     		orrs	r2, r2, r1
 377 0096 D2B2     		uxtb	r2, r2
 378 0098 1A70     		strb	r2, [r3, #0]
 273:.\Generated_Source\PSoC5/PGA_1.c **** 
 274:.\Generated_Source\PSoC5/PGA_1.c ****         /* Clear sc_comp  */
 275:.\Generated_Source\PSoC5/PGA_1.c ****         PGA_1_CR1_REG &= (uint8)(~PGA_1_COMP_MASK);
 379              		.loc 1 275 0
 380 009a 45F60D03 		movw	r3, #22541
 381 009e C4F20003 		movt	r3, 16384
 382 00a2 45F60D02 		movw	r2, #22541
 383 00a6 C4F20002 		movt	r2, 16384
 384 00aa 1278     		ldrb	r2, [r2, #0]
 385 00ac D2B2     		uxtb	r2, r2
 386 00ae 22F00C02 		bic	r2, r2, #12
 387 00b2 D2B2     		uxtb	r2, r2
 388 00b4 1A70     		strb	r2, [r3, #0]
 276:.\Generated_Source\PSoC5/PGA_1.c ****         /* Set sc_comp  */
 277:.\Generated_Source\PSoC5/PGA_1.c ****         PGA_1_CR1_REG |= ( PGA_1_GainComp[gain] | PGA_1_COMP_MASK );
 389              		.loc 1 277 0
 390 00b6 45F60D03 		movw	r3, #22541
 391 00ba C4F20003 		movt	r3, 16384
 392 00be 45F60D02 		movw	r2, #22541
 393 00c2 C4F20002 		movt	r2, 16384
 394 00c6 1278     		ldrb	r2, [r2, #0]
 395 00c8 D1B2     		uxtb	r1, r2
 396 00ca FA79     		ldrb	r2, [r7, #7]	@ zero_extendqisi2
 397 00cc 07F12000 		add	r0, r7, #32
 398 00d0 8218     		adds	r2, r0, r2
 399 00d2 12F8182C 		ldrb	r2, [r2, #-24]	@ zero_extendqisi2
 400 00d6 0A43     		orrs	r2, r2, r1
 401 00d8 D2B2     		uxtb	r2, r2
 402 00da 42F00C02 		orr	r2, r2, #12
 403 00de D2B2     		uxtb	r2, r2
 404 00e0 1A70     		strb	r2, [r3, #0]
 405              	.L7:
 278:.\Generated_Source\PSoC5/PGA_1.c ****     }
ARM GAS  C:\Users\csap2972\AppData\Local\Temp\ccTzskbk.s 			page 13


 279:.\Generated_Source\PSoC5/PGA_1.c **** }
 406              		.loc 1 279 0
 407 00e2 07F12407 		add	r7, r7, #36
 408 00e6 BD46     		mov	sp, r7
 409 00e8 80BC     		pop	{r7}
 410 00ea 7047     		bx	lr
 411              		.cfi_endproc
 412              	.LFE5:
 413              		.size	PGA_1_SetGain, .-PGA_1_SetGain
 414              		.text
 415              	.Letext0:
 416              		.file 2 ".\\Generated_Source\\PSoC5\\cytypes.h"