ARM GAS  C:\Users\csap2972\AppData\Local\Temp\cczOJLrN.s 			page 1


   1              		.syntax unified
   2              		.cpu cortex-m3
   3              		.fpu softvfp
   4              		.eabi_attribute 20, 1
   5              		.eabi_attribute 21, 1
   6              		.eabi_attribute 23, 3
   7              		.eabi_attribute 24, 1
   8              		.eabi_attribute 25, 1
   9              		.eabi_attribute 26, 1
  10              		.eabi_attribute 30, 6
  11              		.eabi_attribute 18, 4
  12              		.thumb
  13              		.file	"ADC_DelSig_AMux.c"
  20 0000 AD000000 		.text
  20      02006800 
  20      00000201 
  20      FB0E0D00 
  20      01010101 
  21              	.Ltext0:
  22              		.cfi_sections	.debug_frame
  23              		.global	ADC_DelSig_AMux_lastChannel
  24              		.data
  25              		.type	ADC_DelSig_AMux_lastChannel, %object
  26              		.size	ADC_DelSig_AMux_lastChannel, 1
  27              	ADC_DelSig_AMux_lastChannel:
  28 0000 FF       		.byte	-1
  29              		.section	.text.ADC_DelSig_AMux_Start,"ax",%progbits
  30              		.align	2
  31              		.global	ADC_DelSig_AMux_Start
  32              		.thumb
  33              		.thumb_func
  34              		.type	ADC_DelSig_AMux_Start, %function
  35              	ADC_DelSig_AMux_Start:
  36              	.LFB0:
  37              		.file 1 ".\\Generated_Source\\PSoC5\\ADC_DelSig_AMux.c"
   1:.\Generated_Source\PSoC5/ADC_DelSig_AMux.c **** /*******************************************************************************
   2:.\Generated_Source\PSoC5/ADC_DelSig_AMux.c **** * File Name: ADC_DelSig_AMux.c
   3:.\Generated_Source\PSoC5/ADC_DelSig_AMux.c **** * Version 1.60
   4:.\Generated_Source\PSoC5/ADC_DelSig_AMux.c **** *
   5:.\Generated_Source\PSoC5/ADC_DelSig_AMux.c **** *  Description:
   6:.\Generated_Source\PSoC5/ADC_DelSig_AMux.c **** *    This file contains all functions required for the analog multiplexer
   7:.\Generated_Source\PSoC5/ADC_DelSig_AMux.c **** *    AMux User Module.
   8:.\Generated_Source\PSoC5/ADC_DelSig_AMux.c **** *
   9:.\Generated_Source\PSoC5/ADC_DelSig_AMux.c **** *   Note:
  10:.\Generated_Source\PSoC5/ADC_DelSig_AMux.c **** *
  11:.\Generated_Source\PSoC5/ADC_DelSig_AMux.c **** *******************************************************************************
  12:.\Generated_Source\PSoC5/ADC_DelSig_AMux.c **** * Copyright 2008-2010, Cypress Semiconductor Corporation.  All rights reserved.
  13:.\Generated_Source\PSoC5/ADC_DelSig_AMux.c **** * You may use this file only in accordance with the license, terms, conditions, 
  14:.\Generated_Source\PSoC5/ADC_DelSig_AMux.c **** * disclaimers, and limitations in the end user license agreement accompanying 
  15:.\Generated_Source\PSoC5/ADC_DelSig_AMux.c **** * the software package with which this file was provided.
  16:.\Generated_Source\PSoC5/ADC_DelSig_AMux.c **** ********************************************************************************/
ARM GAS  C:\Users\csap2972\AppData\Local\Temp\cczOJLrN.s 			page 2


  17:.\Generated_Source\PSoC5/ADC_DelSig_AMux.c **** 
  18:.\Generated_Source\PSoC5/ADC_DelSig_AMux.c **** #include "ADC_DelSig_AMux.h"
  19:.\Generated_Source\PSoC5/ADC_DelSig_AMux.c **** 
  20:.\Generated_Source\PSoC5/ADC_DelSig_AMux.c **** uint8 ADC_DelSig_AMux_lastChannel = ADC_DelSig_AMux_NULL_CHANNEL;
  21:.\Generated_Source\PSoC5/ADC_DelSig_AMux.c **** 
  22:.\Generated_Source\PSoC5/ADC_DelSig_AMux.c **** 
  23:.\Generated_Source\PSoC5/ADC_DelSig_AMux.c **** /*******************************************************************************
  24:.\Generated_Source\PSoC5/ADC_DelSig_AMux.c **** * Function Name: ADC_DelSig_AMux_Start
  25:.\Generated_Source\PSoC5/ADC_DelSig_AMux.c **** ********************************************************************************
  26:.\Generated_Source\PSoC5/ADC_DelSig_AMux.c **** * Summary:
  27:.\Generated_Source\PSoC5/ADC_DelSig_AMux.c **** *  Disconnect all channels.
  28:.\Generated_Source\PSoC5/ADC_DelSig_AMux.c **** *
  29:.\Generated_Source\PSoC5/ADC_DelSig_AMux.c **** * Parameters:
  30:.\Generated_Source\PSoC5/ADC_DelSig_AMux.c **** *  void
  31:.\Generated_Source\PSoC5/ADC_DelSig_AMux.c **** *
  32:.\Generated_Source\PSoC5/ADC_DelSig_AMux.c **** * Return:
  33:.\Generated_Source\PSoC5/ADC_DelSig_AMux.c **** *  void
  34:.\Generated_Source\PSoC5/ADC_DelSig_AMux.c **** *
  35:.\Generated_Source\PSoC5/ADC_DelSig_AMux.c **** *******************************************************************************/
  36:.\Generated_Source\PSoC5/ADC_DelSig_AMux.c **** void ADC_DelSig_AMux_Start(void)
  37:.\Generated_Source\PSoC5/ADC_DelSig_AMux.c **** {
  38              		.loc 1 37 0
  39              		.cfi_startproc
  40              		@ args = 0, pretend = 0, frame = 8
  41              		@ frame_needed = 1, uses_anonymous_args = 0
  42 0000 80B5     		push	{r7, lr}
  43              	.LCFI0:
  44              		.cfi_def_cfa_offset 8
  45 0002 82B0     		sub	sp, sp, #8
  46              	.LCFI1:
  47              		.cfi_def_cfa_offset 16
  48 0004 00AF     		add	r7, sp, #0
  49              		.cfi_offset 14, -4
  50              		.cfi_offset 7, -8
  51              	.LCFI2:
  52              		.cfi_def_cfa_register 7
  38:.\Generated_Source\PSoC5/ADC_DelSig_AMux.c ****     uint8 chan;
  39:.\Generated_Source\PSoC5/ADC_DelSig_AMux.c **** 
  40:.\Generated_Source\PSoC5/ADC_DelSig_AMux.c ****     for(chan = 0; chan < ADC_DelSig_AMux_CHANNELS ; chan++)
  53              		.loc 1 40 0
  54 0006 4FF00003 		mov	r3, #0
  55 000a FB71     		strb	r3, [r7, #7]
  56 000c 07E0     		b	.L2
  57              	.L3:
  41:.\Generated_Source\PSoC5/ADC_DelSig_AMux.c ****     {
  42:.\Generated_Source\PSoC5/ADC_DelSig_AMux.c **** #if(ADC_DelSig_AMux_MUXTYPE == ADC_DelSig_AMux_MUX_SINGLE)
  43:.\Generated_Source\PSoC5/ADC_DelSig_AMux.c ****         ADC_DelSig_AMux_Unset(chan);
  58              		.loc 1 43 0
  59 000e FB79     		ldrb	r3, [r7, #7]	@ zero_extendqisi2
  60 0010 1846     		mov	r0, r3
  61 0012 FFF7FEFF 		bl	ADC_DelSig_AMux_Unset
  62              		.loc 1 40 0
  63 0016 FB79     		ldrb	r3, [r7, #7]
  64 0018 03F10103 		add	r3, r3, #1
  65 001c FB71     		strb	r3, [r7, #7]
  66              	.L2:
  67 001e FB79     		ldrb	r3, [r7, #7]	@ zero_extendqisi2
ARM GAS  C:\Users\csap2972\AppData\Local\Temp\cczOJLrN.s 			page 3


  68 0020 012B     		cmp	r3, #1
  69 0022 F4D9     		bls	.L3
  44:.\Generated_Source\PSoC5/ADC_DelSig_AMux.c **** #else
  45:.\Generated_Source\PSoC5/ADC_DelSig_AMux.c ****         ADC_DelSig_AMux_CYAMUXSIDE_A_Unset(chan);
  46:.\Generated_Source\PSoC5/ADC_DelSig_AMux.c ****         ADC_DelSig_AMux_CYAMUXSIDE_B_Unset(chan);
  47:.\Generated_Source\PSoC5/ADC_DelSig_AMux.c **** #endif
  48:.\Generated_Source\PSoC5/ADC_DelSig_AMux.c ****     }
  49:.\Generated_Source\PSoC5/ADC_DelSig_AMux.c **** 
  50:.\Generated_Source\PSoC5/ADC_DelSig_AMux.c **** 	ADC_DelSig_AMux_lastChannel = ADC_DelSig_AMux_NULL_CHANNEL;
  70              		.loc 1 50 0
  71 0024 40F20003 		movw	r3, #:lower16:ADC_DelSig_AMux_lastChannel
  72 0028 C0F20003 		movt	r3, #:upper16:ADC_DelSig_AMux_lastChannel
  73 002c 4FF0FF32 		mov	r2, #-1
  74 0030 1A70     		strb	r2, [r3, #0]
  51:.\Generated_Source\PSoC5/ADC_DelSig_AMux.c **** }
  75              		.loc 1 51 0
  76 0032 07F10807 		add	r7, r7, #8
  77 0036 BD46     		mov	sp, r7
  78 0038 80BD     		pop	{r7, pc}
  79              		.cfi_endproc
  80              	.LFE0:
  81              		.size	ADC_DelSig_AMux_Start, .-ADC_DelSig_AMux_Start
  82 003a 00BF     		.section	.text.ADC_DelSig_AMux_Select,"ax",%progbits
  83              		.align	2
  84              		.global	ADC_DelSig_AMux_Select
  85              		.thumb
  86              		.thumb_func
  87              		.type	ADC_DelSig_AMux_Select, %function
  88              	ADC_DelSig_AMux_Select:
  89              	.LFB1:
  52:.\Generated_Source\PSoC5/ADC_DelSig_AMux.c **** 
  53:.\Generated_Source\PSoC5/ADC_DelSig_AMux.c **** 
  54:.\Generated_Source\PSoC5/ADC_DelSig_AMux.c **** #if(!ADC_DelSig_AMux_ATMOSTONE)
  55:.\Generated_Source\PSoC5/ADC_DelSig_AMux.c **** /*******************************************************************************
  56:.\Generated_Source\PSoC5/ADC_DelSig_AMux.c **** * Function Name: ADC_DelSig_AMux_Select
  57:.\Generated_Source\PSoC5/ADC_DelSig_AMux.c **** ********************************************************************************
  58:.\Generated_Source\PSoC5/ADC_DelSig_AMux.c **** * Summary:
  59:.\Generated_Source\PSoC5/ADC_DelSig_AMux.c **** *  This functions first disconnects all channels then connects the given
  60:.\Generated_Source\PSoC5/ADC_DelSig_AMux.c **** *  channel.
  61:.\Generated_Source\PSoC5/ADC_DelSig_AMux.c **** *
  62:.\Generated_Source\PSoC5/ADC_DelSig_AMux.c **** * Parameters:
  63:.\Generated_Source\PSoC5/ADC_DelSig_AMux.c **** *  channel:  The channel to connect to the common terminal.
  64:.\Generated_Source\PSoC5/ADC_DelSig_AMux.c **** *
  65:.\Generated_Source\PSoC5/ADC_DelSig_AMux.c **** * Return:
  66:.\Generated_Source\PSoC5/ADC_DelSig_AMux.c **** *  void
  67:.\Generated_Source\PSoC5/ADC_DelSig_AMux.c **** *
  68:.\Generated_Source\PSoC5/ADC_DelSig_AMux.c **** *******************************************************************************/
  69:.\Generated_Source\PSoC5/ADC_DelSig_AMux.c **** void ADC_DelSig_AMux_Select(uint8 channel) 
  70:.\Generated_Source\PSoC5/ADC_DelSig_AMux.c **** {
  90              		.loc 1 70 0
  91              		.cfi_startproc
  92              		@ args = 0, pretend = 0, frame = 8
  93              		@ frame_needed = 1, uses_anonymous_args = 0
  94 0000 80B5     		push	{r7, lr}
  95              	.LCFI3:
  96              		.cfi_def_cfa_offset 8
  97 0002 82B0     		sub	sp, sp, #8
ARM GAS  C:\Users\csap2972\AppData\Local\Temp\cczOJLrN.s 			page 4


  98              	.LCFI4:
  99              		.cfi_def_cfa_offset 16
 100 0004 00AF     		add	r7, sp, #0
 101              		.cfi_offset 14, -4
 102              		.cfi_offset 7, -8
 103              	.LCFI5:
 104              		.cfi_def_cfa_register 7
 105 0006 0346     		mov	r3, r0
 106 0008 FB71     		strb	r3, [r7, #7]
  71:.\Generated_Source\PSoC5/ADC_DelSig_AMux.c ****     ADC_DelSig_AMux_DisconnectAll();        /* Disconnect all previous connections */
 107              		.loc 1 71 0
 108 000a FFF7FEFF 		bl	ADC_DelSig_AMux_Start
  72:.\Generated_Source\PSoC5/ADC_DelSig_AMux.c ****     ADC_DelSig_AMux_Connect(channel);       /* Make the given selection */
 109              		.loc 1 72 0
 110 000e FB79     		ldrb	r3, [r7, #7]	@ zero_extendqisi2
 111 0010 1846     		mov	r0, r3
 112 0012 FFF7FEFF 		bl	ADC_DelSig_AMux_Set
  73:.\Generated_Source\PSoC5/ADC_DelSig_AMux.c ****     ADC_DelSig_AMux_lastChannel = channel;  /* Update last channel */
 113              		.loc 1 73 0
 114 0016 40F20003 		movw	r3, #:lower16:ADC_DelSig_AMux_lastChannel
 115 001a C0F20003 		movt	r3, #:upper16:ADC_DelSig_AMux_lastChannel
 116 001e FA79     		ldrb	r2, [r7, #7]
 117 0020 1A70     		strb	r2, [r3, #0]
  74:.\Generated_Source\PSoC5/ADC_DelSig_AMux.c **** }
 118              		.loc 1 74 0
 119 0022 07F10807 		add	r7, r7, #8
 120 0026 BD46     		mov	sp, r7
 121 0028 80BD     		pop	{r7, pc}
 122              		.cfi_endproc
 123              	.LFE1:
 124              		.size	ADC_DelSig_AMux_Select, .-ADC_DelSig_AMux_Select
 125 002a 00BF     		.section	.text.ADC_DelSig_AMux_FastSelect,"ax",%progbits
 126              		.align	2
 127              		.global	ADC_DelSig_AMux_FastSelect
 128              		.thumb
 129              		.thumb_func
 130              		.type	ADC_DelSig_AMux_FastSelect, %function
 131              	ADC_DelSig_AMux_FastSelect:
 132              	.LFB2:
  75:.\Generated_Source\PSoC5/ADC_DelSig_AMux.c **** #endif
  76:.\Generated_Source\PSoC5/ADC_DelSig_AMux.c **** 
  77:.\Generated_Source\PSoC5/ADC_DelSig_AMux.c **** 
  78:.\Generated_Source\PSoC5/ADC_DelSig_AMux.c **** /*******************************************************************************
  79:.\Generated_Source\PSoC5/ADC_DelSig_AMux.c **** * Function Name: ADC_DelSig_AMux_FastSelect
  80:.\Generated_Source\PSoC5/ADC_DelSig_AMux.c **** ********************************************************************************
  81:.\Generated_Source\PSoC5/ADC_DelSig_AMux.c **** * Summary:
  82:.\Generated_Source\PSoC5/ADC_DelSig_AMux.c **** *  This function first disconnects the last connection made with FastSelect or
  83:.\Generated_Source\PSoC5/ADC_DelSig_AMux.c **** *  Select, then connects the given channel. The FastSelect function is similar
  84:.\Generated_Source\PSoC5/ADC_DelSig_AMux.c **** *  to the Select function, except it is faster since it only disconnects the
  85:.\Generated_Source\PSoC5/ADC_DelSig_AMux.c **** *  last channel selected rather than all channels.
  86:.\Generated_Source\PSoC5/ADC_DelSig_AMux.c **** *
  87:.\Generated_Source\PSoC5/ADC_DelSig_AMux.c **** * Parameters:
  88:.\Generated_Source\PSoC5/ADC_DelSig_AMux.c **** *  channel:  The channel to connect to the common terminal.
  89:.\Generated_Source\PSoC5/ADC_DelSig_AMux.c **** *
  90:.\Generated_Source\PSoC5/ADC_DelSig_AMux.c **** * Return:
  91:.\Generated_Source\PSoC5/ADC_DelSig_AMux.c **** *  void
  92:.\Generated_Source\PSoC5/ADC_DelSig_AMux.c **** *
ARM GAS  C:\Users\csap2972\AppData\Local\Temp\cczOJLrN.s 			page 5


  93:.\Generated_Source\PSoC5/ADC_DelSig_AMux.c **** *******************************************************************************/
  94:.\Generated_Source\PSoC5/ADC_DelSig_AMux.c **** void ADC_DelSig_AMux_FastSelect(uint8 channel) 
  95:.\Generated_Source\PSoC5/ADC_DelSig_AMux.c **** {
 133              		.loc 1 95 0
 134              		.cfi_startproc
 135              		@ args = 0, pretend = 0, frame = 8
 136              		@ frame_needed = 1, uses_anonymous_args = 0
 137 0000 80B5     		push	{r7, lr}
 138              	.LCFI6:
 139              		.cfi_def_cfa_offset 8
 140 0002 82B0     		sub	sp, sp, #8
 141              	.LCFI7:
 142              		.cfi_def_cfa_offset 16
 143 0004 00AF     		add	r7, sp, #0
 144              		.cfi_offset 14, -4
 145              		.cfi_offset 7, -8
 146              	.LCFI8:
 147              		.cfi_def_cfa_register 7
 148 0006 0346     		mov	r3, r0
 149 0008 FB71     		strb	r3, [r7, #7]
  96:.\Generated_Source\PSoC5/ADC_DelSig_AMux.c ****     /* Disconnect the last valid channel */
  97:.\Generated_Source\PSoC5/ADC_DelSig_AMux.c ****     if( ADC_DelSig_AMux_lastChannel != ADC_DelSig_AMux_NULL_CHANNEL)
 150              		.loc 1 97 0
 151 000a 40F20003 		movw	r3, #:lower16:ADC_DelSig_AMux_lastChannel
 152 000e C0F20003 		movt	r3, #:upper16:ADC_DelSig_AMux_lastChannel
 153 0012 1B78     		ldrb	r3, [r3, #0]	@ zero_extendqisi2
 154 0014 FF2B     		cmp	r3, #255
 155 0016 07D0     		beq	.L8
  98:.\Generated_Source\PSoC5/ADC_DelSig_AMux.c ****     {
  99:.\Generated_Source\PSoC5/ADC_DelSig_AMux.c ****         ADC_DelSig_AMux_Disconnect(ADC_DelSig_AMux_lastChannel);
 156              		.loc 1 99 0
 157 0018 40F20003 		movw	r3, #:lower16:ADC_DelSig_AMux_lastChannel
 158 001c C0F20003 		movt	r3, #:upper16:ADC_DelSig_AMux_lastChannel
 159 0020 1B78     		ldrb	r3, [r3, #0]	@ zero_extendqisi2
 160 0022 1846     		mov	r0, r3
 161 0024 FFF7FEFF 		bl	ADC_DelSig_AMux_Unset
 162              	.L8:
 100:.\Generated_Source\PSoC5/ADC_DelSig_AMux.c ****     }
 101:.\Generated_Source\PSoC5/ADC_DelSig_AMux.c **** 
 102:.\Generated_Source\PSoC5/ADC_DelSig_AMux.c ****     /* Make the new channel connection */
 103:.\Generated_Source\PSoC5/ADC_DelSig_AMux.c **** #if(ADC_DelSig_AMux_MUXTYPE == ADC_DelSig_AMux_MUX_SINGLE)
 104:.\Generated_Source\PSoC5/ADC_DelSig_AMux.c ****     ADC_DelSig_AMux_Set(channel);
 163              		.loc 1 104 0
 164 0028 FB79     		ldrb	r3, [r7, #7]	@ zero_extendqisi2
 165 002a 1846     		mov	r0, r3
 166 002c FFF7FEFF 		bl	ADC_DelSig_AMux_Set
 105:.\Generated_Source\PSoC5/ADC_DelSig_AMux.c **** #else
 106:.\Generated_Source\PSoC5/ADC_DelSig_AMux.c ****     ADC_DelSig_AMux_CYAMUXSIDE_A_Set(channel);
 107:.\Generated_Source\PSoC5/ADC_DelSig_AMux.c ****     ADC_DelSig_AMux_CYAMUXSIDE_B_Set(channel);
 108:.\Generated_Source\PSoC5/ADC_DelSig_AMux.c **** #endif
 109:.\Generated_Source\PSoC5/ADC_DelSig_AMux.c **** 
 110:.\Generated_Source\PSoC5/ADC_DelSig_AMux.c **** 
 111:.\Generated_Source\PSoC5/ADC_DelSig_AMux.c **** 	ADC_DelSig_AMux_lastChannel = channel;   /* Update last channel */
 167              		.loc 1 111 0
 168 0030 40F20003 		movw	r3, #:lower16:ADC_DelSig_AMux_lastChannel
 169 0034 C0F20003 		movt	r3, #:upper16:ADC_DelSig_AMux_lastChannel
 170 0038 FA79     		ldrb	r2, [r7, #7]
ARM GAS  C:\Users\csap2972\AppData\Local\Temp\cczOJLrN.s 			page 6


 171 003a 1A70     		strb	r2, [r3, #0]
 112:.\Generated_Source\PSoC5/ADC_DelSig_AMux.c **** }
 172              		.loc 1 112 0
 173 003c 07F10807 		add	r7, r7, #8
 174 0040 BD46     		mov	sp, r7
 175 0042 80BD     		pop	{r7, pc}
 176              		.cfi_endproc
 177              	.LFE2:
 178              		.size	ADC_DelSig_AMux_FastSelect, .-ADC_DelSig_AMux_FastSelect
 179              		.text
 180              	.Letext0: