ARM GAS  C:\Users\csap2972\AppData\Local\Temp\ccpAHOnc.s 			page 1


   1              		.syntax unified
   2              		.cpu cortex-m3
   3              		.fpu softvfp
   4              		.eabi_attribute 20, 1
   5              		.eabi_attribute 21, 1
   6              		.eabi_attribute 23, 3
   7              		.eabi_attribute 24, 1
   8              		.eabi_attribute 25, 1
   9              		.eabi_attribute 26, 1
  10              		.eabi_attribute 30, 6
  11              		.eabi_attribute 18, 4
  12              		.thumb
  13              		.file	"ADC_DelSig_theACLK.c"
  20 0000 A0010000 		.text
  20      02006A00 
  20      00000201 
  20      FB0E0D00 
  20      01010101 
  21              	.Ltext0:
  22              		.cfi_sections	.debug_frame
  23              		.section	.text.ADC_DelSig_theACLK_Start,"ax",%progbits
  24              		.align	2
  25              		.global	ADC_DelSig_theACLK_Start
  26              		.thumb
  27              		.thumb_func
  28              		.type	ADC_DelSig_theACLK_Start, %function
  29              	ADC_DelSig_theACLK_Start:
  30              	.LFB0:
  31              		.file 1 ".\\Generated_Source\\PSoC5\\ADC_DelSig_theACLK.c"
   1:.\Generated_Source\PSoC5/ADC_DelSig_theACLK.c **** /*******************************************************************************
   2:.\Generated_Source\PSoC5/ADC_DelSig_theACLK.c **** * File Name: ADC_DelSig_theACLK.c
   3:.\Generated_Source\PSoC5/ADC_DelSig_theACLK.c **** * Version 1.70
   4:.\Generated_Source\PSoC5/ADC_DelSig_theACLK.c **** *
   5:.\Generated_Source\PSoC5/ADC_DelSig_theACLK.c **** *  Description:
   6:.\Generated_Source\PSoC5/ADC_DelSig_theACLK.c **** *   This file provides the source code to the API for the clock component.
   7:.\Generated_Source\PSoC5/ADC_DelSig_theACLK.c **** *
   8:.\Generated_Source\PSoC5/ADC_DelSig_theACLK.c **** *  Note:
   9:.\Generated_Source\PSoC5/ADC_DelSig_theACLK.c **** *
  10:.\Generated_Source\PSoC5/ADC_DelSig_theACLK.c **** ********************************************************************************
  11:.\Generated_Source\PSoC5/ADC_DelSig_theACLK.c **** * Copyright 2008-2010, Cypress Semiconductor Corporation.  All rights reserved.
  12:.\Generated_Source\PSoC5/ADC_DelSig_theACLK.c **** * You may use this file only in accordance with the license, terms, conditions, 
  13:.\Generated_Source\PSoC5/ADC_DelSig_theACLK.c **** * disclaimers, and limitations in the end user license agreement accompanying 
  14:.\Generated_Source\PSoC5/ADC_DelSig_theACLK.c **** * the software package with which this file was provided.
  15:.\Generated_Source\PSoC5/ADC_DelSig_theACLK.c **** ********************************************************************************/
  16:.\Generated_Source\PSoC5/ADC_DelSig_theACLK.c **** 
  17:.\Generated_Source\PSoC5/ADC_DelSig_theACLK.c **** #include <cydevice_trm.h>
  18:.\Generated_Source\PSoC5/ADC_DelSig_theACLK.c **** #include "ADC_DelSig_theACLK.h"
  19:.\Generated_Source\PSoC5/ADC_DelSig_theACLK.c **** 
  20:.\Generated_Source\PSoC5/ADC_DelSig_theACLK.c **** /* Clock Distribution registers. */
  21:.\Generated_Source\PSoC5/ADC_DelSig_theACLK.c **** #define CLK_DIST_LD              (* (reg8 *) CYREG_CLKDIST_LD)
  22:.\Generated_Source\PSoC5/ADC_DelSig_theACLK.c **** #define CLK_DIST_BCFG2           (* (reg8 *) CYREG_CLKDIST_BCFG2)
ARM GAS  C:\Users\csap2972\AppData\Local\Temp\ccpAHOnc.s 			page 2


  23:.\Generated_Source\PSoC5/ADC_DelSig_theACLK.c **** #define BCFG2_MASK               (0x80u)
  24:.\Generated_Source\PSoC5/ADC_DelSig_theACLK.c **** #define CLK_DIST_DMASK           (* (reg8 *) CYREG_CLKDIST_DMASK)
  25:.\Generated_Source\PSoC5/ADC_DelSig_theACLK.c **** #define CLK_DIST_AMASK           (* (reg8 *) CYREG_CLKDIST_AMASK)
  26:.\Generated_Source\PSoC5/ADC_DelSig_theACLK.c **** 
  27:.\Generated_Source\PSoC5/ADC_DelSig_theACLK.c **** #define HAS_CLKDIST_LD_DISABLE   (CY_PSOC3 || CY_PSOC5LP)
  28:.\Generated_Source\PSoC5/ADC_DelSig_theACLK.c **** 
  29:.\Generated_Source\PSoC5/ADC_DelSig_theACLK.c **** 
  30:.\Generated_Source\PSoC5/ADC_DelSig_theACLK.c **** /*******************************************************************************
  31:.\Generated_Source\PSoC5/ADC_DelSig_theACLK.c **** * Function Name: ADC_DelSig_theACLK_Start
  32:.\Generated_Source\PSoC5/ADC_DelSig_theACLK.c **** ********************************************************************************
  33:.\Generated_Source\PSoC5/ADC_DelSig_theACLK.c **** * Summary:
  34:.\Generated_Source\PSoC5/ADC_DelSig_theACLK.c **** *  Starts the clock. Note that on startup, clocks may be already running if the
  35:.\Generated_Source\PSoC5/ADC_DelSig_theACLK.c **** *  "Start on Reset" option is enabled in the DWR.
  36:.\Generated_Source\PSoC5/ADC_DelSig_theACLK.c **** *
  37:.\Generated_Source\PSoC5/ADC_DelSig_theACLK.c **** * Parameters:
  38:.\Generated_Source\PSoC5/ADC_DelSig_theACLK.c **** *  void
  39:.\Generated_Source\PSoC5/ADC_DelSig_theACLK.c **** *
  40:.\Generated_Source\PSoC5/ADC_DelSig_theACLK.c **** * Returns:
  41:.\Generated_Source\PSoC5/ADC_DelSig_theACLK.c **** *  void
  42:.\Generated_Source\PSoC5/ADC_DelSig_theACLK.c **** *
  43:.\Generated_Source\PSoC5/ADC_DelSig_theACLK.c **** *******************************************************************************/
  44:.\Generated_Source\PSoC5/ADC_DelSig_theACLK.c **** void ADC_DelSig_theACLK_Start(void) 
  45:.\Generated_Source\PSoC5/ADC_DelSig_theACLK.c **** {
  32              		.loc 1 45 0
  33              		.cfi_startproc
  34              		@ args = 0, pretend = 0, frame = 0
  35              		@ frame_needed = 1, uses_anonymous_args = 0
  36              		@ link register save eliminated.
  37 0000 80B4     		push	{r7}
  38              	.LCFI0:
  39              		.cfi_def_cfa_offset 4
  40 0002 00AF     		add	r7, sp, #0
  41              		.cfi_offset 7, -4
  42              	.LCFI1:
  43              		.cfi_def_cfa_register 7
  46:.\Generated_Source\PSoC5/ADC_DelSig_theACLK.c ****     /* Set the bit to enable the clock. */
  47:.\Generated_Source\PSoC5/ADC_DelSig_theACLK.c ****     ADC_DelSig_theACLK_CLKEN |= ADC_DelSig_theACLK_CLKEN_MASK;
  44              		.loc 1 47 0
  45 0004 44F2A133 		movw	r3, #:lower16:1073759137
  46 0008 C4F20003 		movt	r3, #:upper16:1073759137
  47 000c 44F2A132 		movw	r2, #:lower16:1073759137
  48 0010 C4F20002 		movt	r2, #:upper16:1073759137
  49 0014 1278     		ldrb	r2, [r2, #0]
  50 0016 D2B2     		uxtb	r2, r2
  51 0018 42F00202 		orr	r2, r2, #2
  52 001c D2B2     		uxtb	r2, r2
  53 001e 1A70     		strb	r2, [r3, #0]
  48:.\Generated_Source\PSoC5/ADC_DelSig_theACLK.c **** }
  54              		.loc 1 48 0
  55 0020 BD46     		mov	sp, r7
  56 0022 80BC     		pop	{r7}
  57 0024 7047     		bx	lr
  58              		.cfi_endproc
  59              	.LFE0:
  60              		.size	ADC_DelSig_theACLK_Start, .-ADC_DelSig_theACLK_Start
  61 0026 00BF     		.section	.text.ADC_DelSig_theACLK_Stop,"ax",%progbits
  62              		.align	2
ARM GAS  C:\Users\csap2972\AppData\Local\Temp\ccpAHOnc.s 			page 3


  63              		.global	ADC_DelSig_theACLK_Stop
  64              		.thumb
  65              		.thumb_func
  66              		.type	ADC_DelSig_theACLK_Stop, %function
  67              	ADC_DelSig_theACLK_Stop:
  68              	.LFB1:
  49:.\Generated_Source\PSoC5/ADC_DelSig_theACLK.c **** 
  50:.\Generated_Source\PSoC5/ADC_DelSig_theACLK.c **** 
  51:.\Generated_Source\PSoC5/ADC_DelSig_theACLK.c **** /*******************************************************************************
  52:.\Generated_Source\PSoC5/ADC_DelSig_theACLK.c **** * Function Name: ADC_DelSig_theACLK_Stop
  53:.\Generated_Source\PSoC5/ADC_DelSig_theACLK.c **** ********************************************************************************
  54:.\Generated_Source\PSoC5/ADC_DelSig_theACLK.c **** * Summary:
  55:.\Generated_Source\PSoC5/ADC_DelSig_theACLK.c **** *  Stops the clock and returns immediately. This API does not require the
  56:.\Generated_Source\PSoC5/ADC_DelSig_theACLK.c **** *  source clock to be running but may return before the hardware is actually
  57:.\Generated_Source\PSoC5/ADC_DelSig_theACLK.c **** *  disabled. If the settings of the clock are changed after calling this
  58:.\Generated_Source\PSoC5/ADC_DelSig_theACLK.c **** *  function, the clock may glitch when it is started. To avoid the clock
  59:.\Generated_Source\PSoC5/ADC_DelSig_theACLK.c **** *  glitch, use the StopBlock function.
  60:.\Generated_Source\PSoC5/ADC_DelSig_theACLK.c **** *
  61:.\Generated_Source\PSoC5/ADC_DelSig_theACLK.c **** * Parameters:
  62:.\Generated_Source\PSoC5/ADC_DelSig_theACLK.c **** *  void
  63:.\Generated_Source\PSoC5/ADC_DelSig_theACLK.c **** *
  64:.\Generated_Source\PSoC5/ADC_DelSig_theACLK.c **** * Returns:
  65:.\Generated_Source\PSoC5/ADC_DelSig_theACLK.c **** *  void
  66:.\Generated_Source\PSoC5/ADC_DelSig_theACLK.c **** *
  67:.\Generated_Source\PSoC5/ADC_DelSig_theACLK.c **** *******************************************************************************/
  68:.\Generated_Source\PSoC5/ADC_DelSig_theACLK.c **** void ADC_DelSig_theACLK_Stop(void) 
  69:.\Generated_Source\PSoC5/ADC_DelSig_theACLK.c **** {
  69              		.loc 1 69 0
  70              		.cfi_startproc
  71              		@ args = 0, pretend = 0, frame = 0
  72              		@ frame_needed = 1, uses_anonymous_args = 0
  73              		@ link register save eliminated.
  74 0000 80B4     		push	{r7}
  75              	.LCFI2:
  76              		.cfi_def_cfa_offset 4
  77 0002 00AF     		add	r7, sp, #0
  78              		.cfi_offset 7, -4
  79              	.LCFI3:
  80              		.cfi_def_cfa_register 7
  70:.\Generated_Source\PSoC5/ADC_DelSig_theACLK.c ****     /* Clear the bit to disable the clock. */
  71:.\Generated_Source\PSoC5/ADC_DelSig_theACLK.c ****     ADC_DelSig_theACLK_CLKEN &= ~ADC_DelSig_theACLK_CLKEN_MASK;
  81              		.loc 1 71 0
  82 0004 44F2A133 		movw	r3, #:lower16:1073759137
  83 0008 C4F20003 		movt	r3, #:upper16:1073759137
  84 000c 44F2A132 		movw	r2, #:lower16:1073759137
  85 0010 C4F20002 		movt	r2, #:upper16:1073759137
  86 0014 1278     		ldrb	r2, [r2, #0]
  87 0016 D2B2     		uxtb	r2, r2
  88 0018 02F0FD02 		and	r2, r2, #253
  89 001c 1A70     		strb	r2, [r3, #0]
  72:.\Generated_Source\PSoC5/ADC_DelSig_theACLK.c **** }
  90              		.loc 1 72 0
  91 001e BD46     		mov	sp, r7
  92 0020 80BC     		pop	{r7}
  93 0022 7047     		bx	lr
  94              		.cfi_endproc
  95              	.LFE1:
ARM GAS  C:\Users\csap2972\AppData\Local\Temp\ccpAHOnc.s 			page 4


  96              		.size	ADC_DelSig_theACLK_Stop, .-ADC_DelSig_theACLK_Stop
  97              		.section	.text.ADC_DelSig_theACLK_StopBlock,"ax",%progbits
  98              		.align	2
  99              		.global	ADC_DelSig_theACLK_StopBlock
 100              		.thumb
 101              		.thumb_func
 102              		.type	ADC_DelSig_theACLK_StopBlock, %function
 103              	ADC_DelSig_theACLK_StopBlock:
 104              	.LFB2:
  73:.\Generated_Source\PSoC5/ADC_DelSig_theACLK.c **** 
  74:.\Generated_Source\PSoC5/ADC_DelSig_theACLK.c **** 
  75:.\Generated_Source\PSoC5/ADC_DelSig_theACLK.c **** #if(CY_PSOC3 || CY_PSOC5LP)
  76:.\Generated_Source\PSoC5/ADC_DelSig_theACLK.c **** /*******************************************************************************
  77:.\Generated_Source\PSoC5/ADC_DelSig_theACLK.c **** * Function Name: ADC_DelSig_theACLK_StopBlock
  78:.\Generated_Source\PSoC5/ADC_DelSig_theACLK.c **** ********************************************************************************
  79:.\Generated_Source\PSoC5/ADC_DelSig_theACLK.c **** * Summary:
  80:.\Generated_Source\PSoC5/ADC_DelSig_theACLK.c **** *  Stops the clock and waits for the hardware to actually be disabled before
  81:.\Generated_Source\PSoC5/ADC_DelSig_theACLK.c **** *  returning. This ensures that the clock is never truncated (high part of the
  82:.\Generated_Source\PSoC5/ADC_DelSig_theACLK.c **** *  cycle will terminate before the clock is disabled and the API returns).
  83:.\Generated_Source\PSoC5/ADC_DelSig_theACLK.c **** *  Note that the source clock must be running or this API will never return as
  84:.\Generated_Source\PSoC5/ADC_DelSig_theACLK.c **** *  a stopped clock cannot be disabled.
  85:.\Generated_Source\PSoC5/ADC_DelSig_theACLK.c **** *
  86:.\Generated_Source\PSoC5/ADC_DelSig_theACLK.c **** * Parameters:
  87:.\Generated_Source\PSoC5/ADC_DelSig_theACLK.c **** *  void
  88:.\Generated_Source\PSoC5/ADC_DelSig_theACLK.c **** *
  89:.\Generated_Source\PSoC5/ADC_DelSig_theACLK.c **** * Returns:
  90:.\Generated_Source\PSoC5/ADC_DelSig_theACLK.c **** *  void
  91:.\Generated_Source\PSoC5/ADC_DelSig_theACLK.c **** *
  92:.\Generated_Source\PSoC5/ADC_DelSig_theACLK.c **** *******************************************************************************/
  93:.\Generated_Source\PSoC5/ADC_DelSig_theACLK.c **** void ADC_DelSig_theACLK_StopBlock(void) 
  94:.\Generated_Source\PSoC5/ADC_DelSig_theACLK.c **** {
 105              		.loc 1 94 0
 106              		.cfi_startproc
 107              		@ args = 0, pretend = 0, frame = 8
 108              		@ frame_needed = 1, uses_anonymous_args = 0
 109              		@ link register save eliminated.
 110 0000 80B4     		push	{r7}
 111              	.LCFI4:
 112              		.cfi_def_cfa_offset 4
 113 0002 83B0     		sub	sp, sp, #12
 114              	.LCFI5:
 115              		.cfi_def_cfa_offset 16
 116 0004 00AF     		add	r7, sp, #0
 117              		.cfi_offset 7, -4
 118              	.LCFI6:
 119              		.cfi_def_cfa_register 7
  95:.\Generated_Source\PSoC5/ADC_DelSig_theACLK.c ****     if (ADC_DelSig_theACLK_CLKEN & ADC_DelSig_theACLK_CLKEN_MASK)
 120              		.loc 1 95 0
 121 0006 44F2A133 		movw	r3, #:lower16:1073759137
 122 000a C4F20003 		movt	r3, #:upper16:1073759137
 123 000e 1B78     		ldrb	r3, [r3, #0]
 124 0010 DBB2     		uxtb	r3, r3
 125 0012 03F00203 		and	r3, r3, #2
 126 0016 002B     		cmp	r3, #0
 127 0018 59D0     		beq	.L8
 128              	.LBB2:
  96:.\Generated_Source\PSoC5/ADC_DelSig_theACLK.c ****     {
ARM GAS  C:\Users\csap2972\AppData\Local\Temp\ccpAHOnc.s 			page 5


  97:.\Generated_Source\PSoC5/ADC_DelSig_theACLK.c **** #if HAS_CLKDIST_LD_DISABLE
  98:.\Generated_Source\PSoC5/ADC_DelSig_theACLK.c ****         uint16 oldDivider;
  99:.\Generated_Source\PSoC5/ADC_DelSig_theACLK.c **** 
 100:.\Generated_Source\PSoC5/ADC_DelSig_theACLK.c ****         CLK_DIST_LD = 0;
 129              		.loc 1 100 0
 130 001a 44F20103 		movw	r3, #:lower16:1073758209
 131 001e C4F20003 		movt	r3, #:upper16:1073758209
 132 0022 4FF00002 		mov	r2, #0
 133 0026 1A70     		strb	r2, [r3, #0]
 101:.\Generated_Source\PSoC5/ADC_DelSig_theACLK.c **** 
 102:.\Generated_Source\PSoC5/ADC_DelSig_theACLK.c ****         /* Clear all the mask bits except ours. */
 103:.\Generated_Source\PSoC5/ADC_DelSig_theACLK.c **** #if defined(ADC_DelSig_theACLK__CFG3)
 104:.\Generated_Source\PSoC5/ADC_DelSig_theACLK.c ****         CLK_DIST_AMASK = ADC_DelSig_theACLK_CLKEN_MASK;
 134              		.loc 1 104 0
 135 0028 44F21403 		movw	r3, #:lower16:1073758228
 136 002c C4F20003 		movt	r3, #:upper16:1073758228
 137 0030 4FF00202 		mov	r2, #2
 138 0034 1A70     		strb	r2, [r3, #0]
 105:.\Generated_Source\PSoC5/ADC_DelSig_theACLK.c ****         CLK_DIST_DMASK = 0x00u;
 139              		.loc 1 105 0
 140 0036 44F21003 		movw	r3, #:lower16:1073758224
 141 003a C4F20003 		movt	r3, #:upper16:1073758224
 142 003e 4FF00002 		mov	r2, #0
 143 0042 1A70     		strb	r2, [r3, #0]
 106:.\Generated_Source\PSoC5/ADC_DelSig_theACLK.c **** #else
 107:.\Generated_Source\PSoC5/ADC_DelSig_theACLK.c ****         CLK_DIST_DMASK = ADC_DelSig_theACLK_CLKEN_MASK;
 108:.\Generated_Source\PSoC5/ADC_DelSig_theACLK.c ****         CLK_DIST_AMASK = 0x00u;
 109:.\Generated_Source\PSoC5/ADC_DelSig_theACLK.c **** #endif
 110:.\Generated_Source\PSoC5/ADC_DelSig_theACLK.c **** 
 111:.\Generated_Source\PSoC5/ADC_DelSig_theACLK.c ****         /* Clear mask of bus clock. */
 112:.\Generated_Source\PSoC5/ADC_DelSig_theACLK.c ****         CLK_DIST_BCFG2 &= ~BCFG2_MASK;
 144              		.loc 1 112 0
 145 0044 44F20803 		movw	r3, #:lower16:1073758216
 146 0048 C4F20003 		movt	r3, #:upper16:1073758216
 147 004c 44F20802 		movw	r2, #:lower16:1073758216
 148 0050 C4F20002 		movt	r2, #:upper16:1073758216
 149 0054 1278     		ldrb	r2, [r2, #0]
 150 0056 D2B2     		uxtb	r2, r2
 151 0058 02F07F02 		and	r2, r2, #127
 152 005c 1A70     		strb	r2, [r3, #0]
 113:.\Generated_Source\PSoC5/ADC_DelSig_theACLK.c **** 
 114:.\Generated_Source\PSoC5/ADC_DelSig_theACLK.c ****         oldDivider = CY_GET_REG16(ADC_DelSig_theACLK_DIV_PTR);
 153              		.loc 1 114 0
 154 005e 44F20413 		movw	r3, #:lower16:1073758468
 155 0062 C4F20003 		movt	r3, #:upper16:1073758468
 156 0066 1B88     		ldrh	r3, [r3, #0]	@ movhi
 157 0068 FB80     		strh	r3, [r7, #6]	@ movhi
 115:.\Generated_Source\PSoC5/ADC_DelSig_theACLK.c ****         CY_SET_REG16(CYREG_CLKDIST_WRK0, oldDivider);
 158              		.loc 1 115 0
 159 006a 44F20203 		movw	r3, #:lower16:1073758210
 160 006e C4F20003 		movt	r3, #:upper16:1073758210
 161 0072 FA88     		ldrh	r2, [r7, #6]	@ movhi
 162 0074 1A80     		strh	r2, [r3, #0]	@ movhi
 116:.\Generated_Source\PSoC5/ADC_DelSig_theACLK.c ****         CLK_DIST_LD = CYCLK_LD_DISABLE | CYCLK_LD_SYNC_EN | CYCLK_LD_LOAD;
 163              		.loc 1 116 0
 164 0076 44F20103 		movw	r3, #:lower16:1073758209
 165 007a C4F20003 		movt	r3, #:upper16:1073758209
ARM GAS  C:\Users\csap2972\AppData\Local\Temp\ccpAHOnc.s 			page 6


 166 007e 4FF00702 		mov	r2, #7
 167 0082 1A70     		strb	r2, [r3, #0]
 168              	.L7:
 117:.\Generated_Source\PSoC5/ADC_DelSig_theACLK.c **** 
 118:.\Generated_Source\PSoC5/ADC_DelSig_theACLK.c ****         /* Wait for clock to be disabled */
 119:.\Generated_Source\PSoC5/ADC_DelSig_theACLK.c ****         while (CLK_DIST_LD & CYCLK_LD_LOAD) { }
 169              		.loc 1 119 0
 170 0084 44F20103 		movw	r3, #:lower16:1073758209
 171 0088 C4F20003 		movt	r3, #:upper16:1073758209
 172 008c 1B78     		ldrb	r3, [r3, #0]
 173 008e DBB2     		uxtb	r3, r3
 174 0090 03F00103 		and	r3, r3, #1
 175 0094 DBB2     		uxtb	r3, r3
 176 0096 002B     		cmp	r3, #0
 177 0098 F4D1     		bne	.L7
 120:.\Generated_Source\PSoC5/ADC_DelSig_theACLK.c **** #endif
 121:.\Generated_Source\PSoC5/ADC_DelSig_theACLK.c **** 
 122:.\Generated_Source\PSoC5/ADC_DelSig_theACLK.c ****         /* Clear the bit to disable the clock. */
 123:.\Generated_Source\PSoC5/ADC_DelSig_theACLK.c ****         ADC_DelSig_theACLK_CLKEN &= ~ADC_DelSig_theACLK_CLKEN_MASK;
 178              		.loc 1 123 0
 179 009a 44F2A133 		movw	r3, #:lower16:1073759137
 180 009e C4F20003 		movt	r3, #:upper16:1073759137
 181 00a2 44F2A132 		movw	r2, #:lower16:1073759137
 182 00a6 C4F20002 		movt	r2, #:upper16:1073759137
 183 00aa 1278     		ldrb	r2, [r2, #0]
 184 00ac D2B2     		uxtb	r2, r2
 185 00ae 02F0FD02 		and	r2, r2, #253
 186 00b2 1A70     		strb	r2, [r3, #0]
 124:.\Generated_Source\PSoC5/ADC_DelSig_theACLK.c **** 
 125:.\Generated_Source\PSoC5/ADC_DelSig_theACLK.c **** #if HAS_CLKDIST_LD_DISABLE
 126:.\Generated_Source\PSoC5/ADC_DelSig_theACLK.c ****         /* Clear the disable bit */
 127:.\Generated_Source\PSoC5/ADC_DelSig_theACLK.c ****         CLK_DIST_LD = 0x00u;
 187              		.loc 1 127 0
 188 00b4 44F20103 		movw	r3, #:lower16:1073758209
 189 00b8 C4F20003 		movt	r3, #:upper16:1073758209
 190 00bc 4FF00002 		mov	r2, #0
 191 00c0 1A70     		strb	r2, [r3, #0]
 128:.\Generated_Source\PSoC5/ADC_DelSig_theACLK.c ****         CY_SET_REG16(ADC_DelSig_theACLK_DIV_PTR, oldDivider);
 192              		.loc 1 128 0
 193 00c2 44F20413 		movw	r3, #:lower16:1073758468
 194 00c6 C4F20003 		movt	r3, #:upper16:1073758468
 195 00ca FA88     		ldrh	r2, [r7, #6]	@ movhi
 196 00cc 1A80     		strh	r2, [r3, #0]	@ movhi
 197              	.L8:
 198              	.LBE2:
 129:.\Generated_Source\PSoC5/ADC_DelSig_theACLK.c **** #endif
 130:.\Generated_Source\PSoC5/ADC_DelSig_theACLK.c ****     }
 131:.\Generated_Source\PSoC5/ADC_DelSig_theACLK.c **** }
 199              		.loc 1 131 0
 200 00ce 07F10C07 		add	r7, r7, #12
 201 00d2 BD46     		mov	sp, r7
 202 00d4 80BC     		pop	{r7}
 203 00d6 7047     		bx	lr
 204              		.cfi_endproc
 205              	.LFE2:
 206              		.size	ADC_DelSig_theACLK_StopBlock, .-ADC_DelSig_theACLK_StopBlock
 207              		.section	.text.ADC_DelSig_theACLK_StandbyPower,"ax",%progbits
ARM GAS  C:\Users\csap2972\AppData\Local\Temp\ccpAHOnc.s 			page 7


 208              		.align	2
 209              		.global	ADC_DelSig_theACLK_StandbyPower
 210              		.thumb
 211              		.thumb_func
 212              		.type	ADC_DelSig_theACLK_StandbyPower, %function
 213              	ADC_DelSig_theACLK_StandbyPower:
 214              	.LFB3:
 132:.\Generated_Source\PSoC5/ADC_DelSig_theACLK.c **** #endif
 133:.\Generated_Source\PSoC5/ADC_DelSig_theACLK.c **** 
 134:.\Generated_Source\PSoC5/ADC_DelSig_theACLK.c **** /*******************************************************************************
 135:.\Generated_Source\PSoC5/ADC_DelSig_theACLK.c **** * Function Name: ADC_DelSig_theACLK_StandbyPower
 136:.\Generated_Source\PSoC5/ADC_DelSig_theACLK.c **** ********************************************************************************
 137:.\Generated_Source\PSoC5/ADC_DelSig_theACLK.c **** * Summary:
 138:.\Generated_Source\PSoC5/ADC_DelSig_theACLK.c **** *  Sets whether the clock is active in standby mode.
 139:.\Generated_Source\PSoC5/ADC_DelSig_theACLK.c **** *
 140:.\Generated_Source\PSoC5/ADC_DelSig_theACLK.c **** * Parameters:
 141:.\Generated_Source\PSoC5/ADC_DelSig_theACLK.c **** *  state:  0 to disable clock during standby, nonzero to enable.
 142:.\Generated_Source\PSoC5/ADC_DelSig_theACLK.c **** *
 143:.\Generated_Source\PSoC5/ADC_DelSig_theACLK.c **** * Returns:
 144:.\Generated_Source\PSoC5/ADC_DelSig_theACLK.c **** *  void
 145:.\Generated_Source\PSoC5/ADC_DelSig_theACLK.c **** *
 146:.\Generated_Source\PSoC5/ADC_DelSig_theACLK.c **** *******************************************************************************/
 147:.\Generated_Source\PSoC5/ADC_DelSig_theACLK.c **** void ADC_DelSig_theACLK_StandbyPower(uint8 state) 
 148:.\Generated_Source\PSoC5/ADC_DelSig_theACLK.c **** {
 215              		.loc 1 148 0
 216              		.cfi_startproc
 217              		@ args = 0, pretend = 0, frame = 8
 218              		@ frame_needed = 1, uses_anonymous_args = 0
 219              		@ link register save eliminated.
 220 0000 80B4     		push	{r7}
 221              	.LCFI7:
 222              		.cfi_def_cfa_offset 4
 223 0002 83B0     		sub	sp, sp, #12
 224              	.LCFI8:
 225              		.cfi_def_cfa_offset 16
 226 0004 00AF     		add	r7, sp, #0
 227              		.cfi_offset 7, -4
 228              	.LCFI9:
 229              		.cfi_def_cfa_register 7
 230 0006 0346     		mov	r3, r0
 231 0008 FB71     		strb	r3, [r7, #7]
 149:.\Generated_Source\PSoC5/ADC_DelSig_theACLK.c ****     if(state == 0)
 232              		.loc 1 149 0
 233 000a FB79     		ldrb	r3, [r7, #7]	@ zero_extendqisi2
 234 000c 002B     		cmp	r3, #0
 235 000e 0DD1     		bne	.L10
 150:.\Generated_Source\PSoC5/ADC_DelSig_theACLK.c ****     {
 151:.\Generated_Source\PSoC5/ADC_DelSig_theACLK.c ****         ADC_DelSig_theACLK_CLKSTBY &= ~ADC_DelSig_theACLK_CLKSTBY_MASK;
 236              		.loc 1 151 0
 237 0010 44F2B133 		movw	r3, #:lower16:1073759153
 238 0014 C4F20003 		movt	r3, #:upper16:1073759153
 239 0018 44F2B132 		movw	r2, #:lower16:1073759153
 240 001c C4F20002 		movt	r2, #:upper16:1073759153
 241 0020 1278     		ldrb	r2, [r2, #0]
 242 0022 D2B2     		uxtb	r2, r2
 243 0024 02F0FD02 		and	r2, r2, #253
 244 0028 1A70     		strb	r2, [r3, #0]
ARM GAS  C:\Users\csap2972\AppData\Local\Temp\ccpAHOnc.s 			page 8


 245 002a 0DE0     		b	.L12
 246              	.L10:
 152:.\Generated_Source\PSoC5/ADC_DelSig_theACLK.c ****     }
 153:.\Generated_Source\PSoC5/ADC_DelSig_theACLK.c ****     else
 154:.\Generated_Source\PSoC5/ADC_DelSig_theACLK.c ****     {
 155:.\Generated_Source\PSoC5/ADC_DelSig_theACLK.c ****         ADC_DelSig_theACLK_CLKSTBY |= ADC_DelSig_theACLK_CLKSTBY_MASK;
 247              		.loc 1 155 0
 248 002c 44F2B133 		movw	r3, #:lower16:1073759153
 249 0030 C4F20003 		movt	r3, #:upper16:1073759153
 250 0034 44F2B132 		movw	r2, #:lower16:1073759153
 251 0038 C4F20002 		movt	r2, #:upper16:1073759153
 252 003c 1278     		ldrb	r2, [r2, #0]
 253 003e D2B2     		uxtb	r2, r2
 254 0040 42F00202 		orr	r2, r2, #2
 255 0044 D2B2     		uxtb	r2, r2
 256 0046 1A70     		strb	r2, [r3, #0]
 257              	.L12:
 156:.\Generated_Source\PSoC5/ADC_DelSig_theACLK.c ****     }
 157:.\Generated_Source\PSoC5/ADC_DelSig_theACLK.c **** }
 258              		.loc 1 157 0
 259 0048 07F10C07 		add	r7, r7, #12
 260 004c BD46     		mov	sp, r7
 261 004e 80BC     		pop	{r7}
 262 0050 7047     		bx	lr
 263              		.cfi_endproc
 264              	.LFE3:
 265              		.size	ADC_DelSig_theACLK_StandbyPower, .-ADC_DelSig_theACLK_StandbyPower
 266 0052 00BF     		.section	.text.ADC_DelSig_theACLK_SetDividerRegister,"ax",%progbits
 267              		.align	2
 268              		.global	ADC_DelSig_theACLK_SetDividerRegister
 269              		.thumb
 270              		.thumb_func
 271              		.type	ADC_DelSig_theACLK_SetDividerRegister, %function
 272              	ADC_DelSig_theACLK_SetDividerRegister:
 273              	.LFB4:
 158:.\Generated_Source\PSoC5/ADC_DelSig_theACLK.c **** 
 159:.\Generated_Source\PSoC5/ADC_DelSig_theACLK.c **** 
 160:.\Generated_Source\PSoC5/ADC_DelSig_theACLK.c **** /*******************************************************************************
 161:.\Generated_Source\PSoC5/ADC_DelSig_theACLK.c **** * Function Name: ADC_DelSig_theACLK_SetDividerRegister
 162:.\Generated_Source\PSoC5/ADC_DelSig_theACLK.c **** ********************************************************************************
 163:.\Generated_Source\PSoC5/ADC_DelSig_theACLK.c **** * Summary:
 164:.\Generated_Source\PSoC5/ADC_DelSig_theACLK.c **** *  Modifies the clock divider and, thus, the frequency. When the clock divider
 165:.\Generated_Source\PSoC5/ADC_DelSig_theACLK.c **** *  register is set to zero or changed from zero, the clock will be temporarily
 166:.\Generated_Source\PSoC5/ADC_DelSig_theACLK.c **** *  disabled in order to change the SSS mode bit. If the clock is enabled when
 167:.\Generated_Source\PSoC5/ADC_DelSig_theACLK.c **** *  SetDividerRegister is called, then the source clock must be running.
 168:.\Generated_Source\PSoC5/ADC_DelSig_theACLK.c **** *
 169:.\Generated_Source\PSoC5/ADC_DelSig_theACLK.c **** * Parameters:
 170:.\Generated_Source\PSoC5/ADC_DelSig_theACLK.c **** *  clkDivider:  Divider register value (0-65,535). This value is NOT the
 171:.\Generated_Source\PSoC5/ADC_DelSig_theACLK.c **** *    divider; the clock hardware divides by clkDivider plus one. For example,
 172:.\Generated_Source\PSoC5/ADC_DelSig_theACLK.c **** *    to divide the clock by 2, this parameter should be set to 1.
 173:.\Generated_Source\PSoC5/ADC_DelSig_theACLK.c **** *  restart:  If nonzero, restarts the clock divider: the current clock cycle
 174:.\Generated_Source\PSoC5/ADC_DelSig_theACLK.c **** *   will be truncated and the new divide value will take effect immediately. If
 175:.\Generated_Source\PSoC5/ADC_DelSig_theACLK.c **** *   zero, the new divide value will take effect at the end of the current clock
 176:.\Generated_Source\PSoC5/ADC_DelSig_theACLK.c **** *   cycle.
 177:.\Generated_Source\PSoC5/ADC_DelSig_theACLK.c **** *
 178:.\Generated_Source\PSoC5/ADC_DelSig_theACLK.c **** * Returns:
 179:.\Generated_Source\PSoC5/ADC_DelSig_theACLK.c **** *  void
ARM GAS  C:\Users\csap2972\AppData\Local\Temp\ccpAHOnc.s 			page 9


 180:.\Generated_Source\PSoC5/ADC_DelSig_theACLK.c **** *
 181:.\Generated_Source\PSoC5/ADC_DelSig_theACLK.c **** *******************************************************************************/
 182:.\Generated_Source\PSoC5/ADC_DelSig_theACLK.c **** void ADC_DelSig_theACLK_SetDividerRegister(uint16 clkDivider, uint8 restart) 
 183:.\Generated_Source\PSoC5/ADC_DelSig_theACLK.c **** {
 274              		.loc 1 183 0
 275              		.cfi_startproc
 276              		@ args = 0, pretend = 0, frame = 16
 277              		@ frame_needed = 1, uses_anonymous_args = 0
 278 0000 80B5     		push	{r7, lr}
 279              	.LCFI10:
 280              		.cfi_def_cfa_offset 8
 281 0002 84B0     		sub	sp, sp, #16
 282              	.LCFI11:
 283              		.cfi_def_cfa_offset 24
 284 0004 00AF     		add	r7, sp, #0
 285              		.cfi_offset 14, -4
 286              		.cfi_offset 7, -8
 287              	.LCFI12:
 288              		.cfi_def_cfa_register 7
 289 0006 0246     		mov	r2, r0
 290 0008 0B46     		mov	r3, r1
 291 000a FA80     		strh	r2, [r7, #6]	@ movhi
 292 000c 7B71     		strb	r3, [r7, #5]
 184:.\Generated_Source\PSoC5/ADC_DelSig_theACLK.c ****     uint8 enabled;
 185:.\Generated_Source\PSoC5/ADC_DelSig_theACLK.c **** 
 186:.\Generated_Source\PSoC5/ADC_DelSig_theACLK.c ****     uint8 currSrc = ADC_DelSig_theACLK_GetSourceRegister();
 293              		.loc 1 186 0
 294 000e FFF7FEFF 		bl	ADC_DelSig_theACLK_GetSourceRegister
 295 0012 0346     		mov	r3, r0
 296 0014 7B73     		strb	r3, [r7, #13]
 187:.\Generated_Source\PSoC5/ADC_DelSig_theACLK.c ****     uint16 oldDivider = ADC_DelSig_theACLK_GetDividerRegister();
 297              		.loc 1 187 0
 298 0016 FFF7FEFF 		bl	ADC_DelSig_theACLK_GetDividerRegister
 299 001a 0346     		mov	r3, r0
 300 001c FB81     		strh	r3, [r7, #14]	@ movhi
 188:.\Generated_Source\PSoC5/ADC_DelSig_theACLK.c **** 
 189:.\Generated_Source\PSoC5/ADC_DelSig_theACLK.c ****     if (clkDivider != oldDivider)
 301              		.loc 1 189 0
 302 001e FA88     		ldrh	r2, [r7, #6]
 303 0020 FB89     		ldrh	r3, [r7, #14]
 304 0022 9A42     		cmp	r2, r3
 305 0024 00F0D180 		beq	.L26
 190:.\Generated_Source\PSoC5/ADC_DelSig_theACLK.c ****     {
 191:.\Generated_Source\PSoC5/ADC_DelSig_theACLK.c ****         enabled = ADC_DelSig_theACLK_CLKEN & ADC_DelSig_theACLK_CLKEN_MASK;
 306              		.loc 1 191 0
 307 0028 44F2A133 		movw	r3, #:lower16:1073759137
 308 002c C4F20003 		movt	r3, #:upper16:1073759137
 309 0030 1B78     		ldrb	r3, [r3, #0]
 310 0032 DBB2     		uxtb	r3, r3
 311 0034 03F00203 		and	r3, r3, #2
 312 0038 3B73     		strb	r3, [r7, #12]
 192:.\Generated_Source\PSoC5/ADC_DelSig_theACLK.c **** 
 193:.\Generated_Source\PSoC5/ADC_DelSig_theACLK.c ****         if (currSrc == CYCLK_SRC_SEL_CLK_SYNC_D && (oldDivider == 0 || clkDivider == 0))
 313              		.loc 1 193 0
 314 003a 7B7B     		ldrb	r3, [r7, #13]	@ zero_extendqisi2
 315 003c 002B     		cmp	r3, #0
 316 003e 35D1     		bne	.L15
ARM GAS  C:\Users\csap2972\AppData\Local\Temp\ccpAHOnc.s 			page 10


 317 0040 FB89     		ldrh	r3, [r7, #14]
 318 0042 002B     		cmp	r3, #0
 319 0044 02D0     		beq	.L16
 320 0046 FB88     		ldrh	r3, [r7, #6]
 321 0048 002B     		cmp	r3, #0
 322 004a 2FD1     		bne	.L15
 323              	.L16:
 194:.\Generated_Source\PSoC5/ADC_DelSig_theACLK.c ****         {
 195:.\Generated_Source\PSoC5/ADC_DelSig_theACLK.c ****             /* Moving to/from SSS requires correct ordering to prevent halting the clock    */
 196:.\Generated_Source\PSoC5/ADC_DelSig_theACLK.c ****             if (oldDivider == 0 && clkDivider != 0)
 324              		.loc 1 196 0
 325 004c FB89     		ldrh	r3, [r7, #14]
 326 004e 002B     		cmp	r3, #0
 327 0050 17D1     		bne	.L17
 328 0052 FB88     		ldrh	r3, [r7, #6]
 329 0054 002B     		cmp	r3, #0
 330 0056 14D0     		beq	.L17
 197:.\Generated_Source\PSoC5/ADC_DelSig_theACLK.c ****             {
 198:.\Generated_Source\PSoC5/ADC_DelSig_theACLK.c ****                 /* Moving away from SSS, set the divider first so when SSS is cleared we    */
 199:.\Generated_Source\PSoC5/ADC_DelSig_theACLK.c ****                 /* don't halt the clock.  Using the shadow load isn't required as the       */
 200:.\Generated_Source\PSoC5/ADC_DelSig_theACLK.c ****                 /* divider is ignored while SSS is set.                                     */
 201:.\Generated_Source\PSoC5/ADC_DelSig_theACLK.c ****                 CY_SET_REG16(ADC_DelSig_theACLK_DIV_PTR, clkDivider);
 331              		.loc 1 201 0
 332 0058 44F20413 		movw	r3, #:lower16:1073758468
 333 005c C4F20003 		movt	r3, #:upper16:1073758468
 334 0060 FA88     		ldrh	r2, [r7, #6]	@ movhi
 335 0062 1A80     		strh	r2, [r3, #0]	@ movhi
 202:.\Generated_Source\PSoC5/ADC_DelSig_theACLK.c ****                 ADC_DelSig_theACLK_MOD_SRC &= ~CYCLK_SSS;
 336              		.loc 1 202 0
 337 0064 44F20613 		movw	r3, #:lower16:1073758470
 338 0068 C4F20003 		movt	r3, #:upper16:1073758470
 339 006c 44F20612 		movw	r2, #:lower16:1073758470
 340 0070 C4F20002 		movt	r2, #:upper16:1073758470
 341 0074 1278     		ldrb	r2, [r2, #0]
 342 0076 D2B2     		uxtb	r2, r2
 343 0078 02F0BF02 		and	r2, r2, #191
 344 007c 1A70     		strb	r2, [r3, #0]
 345              		.loc 1 196 0
 346 007e 00BF     		nop
 347              		.loc 1 193 0
 348 0080 A3E0     		b	.L26
 349              	.L17:
 203:.\Generated_Source\PSoC5/ADC_DelSig_theACLK.c ****             }
 204:.\Generated_Source\PSoC5/ADC_DelSig_theACLK.c ****             else
 205:.\Generated_Source\PSoC5/ADC_DelSig_theACLK.c ****             {
 206:.\Generated_Source\PSoC5/ADC_DelSig_theACLK.c ****                 /* Moving to SSS, set SSS which then ignores the divider and we can set     */
 207:.\Generated_Source\PSoC5/ADC_DelSig_theACLK.c ****                 /* it without bothering with the shadow load.                               */
 208:.\Generated_Source\PSoC5/ADC_DelSig_theACLK.c ****                 ADC_DelSig_theACLK_MOD_SRC |= CYCLK_SSS;
 350              		.loc 1 208 0
 351 0082 44F20613 		movw	r3, #:lower16:1073758470
 352 0086 C4F20003 		movt	r3, #:upper16:1073758470
 353 008a 44F20612 		movw	r2, #:lower16:1073758470
 354 008e C4F20002 		movt	r2, #:upper16:1073758470
 355 0092 1278     		ldrb	r2, [r2, #0]
 356 0094 D2B2     		uxtb	r2, r2
 357 0096 42F04002 		orr	r2, r2, #64
 358 009a D2B2     		uxtb	r2, r2
ARM GAS  C:\Users\csap2972\AppData\Local\Temp\ccpAHOnc.s 			page 11


 359 009c 1A70     		strb	r2, [r3, #0]
 209:.\Generated_Source\PSoC5/ADC_DelSig_theACLK.c ****                 CY_SET_REG16(ADC_DelSig_theACLK_DIV_PTR, clkDivider);
 360              		.loc 1 209 0
 361 009e 44F20413 		movw	r3, #:lower16:1073758468
 362 00a2 C4F20003 		movt	r3, #:upper16:1073758468
 363 00a6 FA88     		ldrh	r2, [r7, #6]	@ movhi
 364 00a8 1A80     		strh	r2, [r3, #0]	@ movhi
 365              		.loc 1 193 0
 366 00aa 8EE0     		b	.L26
 367              	.L15:
 210:.\Generated_Source\PSoC5/ADC_DelSig_theACLK.c ****             }
 211:.\Generated_Source\PSoC5/ADC_DelSig_theACLK.c ****         }
 212:.\Generated_Source\PSoC5/ADC_DelSig_theACLK.c ****         else
 213:.\Generated_Source\PSoC5/ADC_DelSig_theACLK.c ****         {
 214:.\Generated_Source\PSoC5/ADC_DelSig_theACLK.c ****             if (enabled)
 368              		.loc 1 214 0
 369 00ac 3B7B     		ldrb	r3, [r7, #12]	@ zero_extendqisi2
 370 00ae 002B     		cmp	r3, #0
 371 00b0 4DD0     		beq	.L19
 215:.\Generated_Source\PSoC5/ADC_DelSig_theACLK.c ****             {
 216:.\Generated_Source\PSoC5/ADC_DelSig_theACLK.c ****                 CLK_DIST_LD = 0x00u;
 372              		.loc 1 216 0
 373 00b2 44F20103 		movw	r3, #:lower16:1073758209
 374 00b6 C4F20003 		movt	r3, #:upper16:1073758209
 375 00ba 4FF00002 		mov	r2, #0
 376 00be 1A70     		strb	r2, [r3, #0]
 217:.\Generated_Source\PSoC5/ADC_DelSig_theACLK.c **** 
 218:.\Generated_Source\PSoC5/ADC_DelSig_theACLK.c ****                 /* Clear all the mask bits except ours. */
 219:.\Generated_Source\PSoC5/ADC_DelSig_theACLK.c **** #if defined(ADC_DelSig_theACLK__CFG3)
 220:.\Generated_Source\PSoC5/ADC_DelSig_theACLK.c ****                 CLK_DIST_AMASK = ADC_DelSig_theACLK_CLKEN_MASK;
 377              		.loc 1 220 0
 378 00c0 44F21403 		movw	r3, #:lower16:1073758228
 379 00c4 C4F20003 		movt	r3, #:upper16:1073758228
 380 00c8 4FF00202 		mov	r2, #2
 381 00cc 1A70     		strb	r2, [r3, #0]
 221:.\Generated_Source\PSoC5/ADC_DelSig_theACLK.c ****                 CLK_DIST_DMASK = 0x00u;
 382              		.loc 1 221 0
 383 00ce 44F21003 		movw	r3, #:lower16:1073758224
 384 00d2 C4F20003 		movt	r3, #:upper16:1073758224
 385 00d6 4FF00002 		mov	r2, #0
 386 00da 1A70     		strb	r2, [r3, #0]
 222:.\Generated_Source\PSoC5/ADC_DelSig_theACLK.c **** #else
 223:.\Generated_Source\PSoC5/ADC_DelSig_theACLK.c ****                 CLK_DIST_DMASK = ADC_DelSig_theACLK_CLKEN_MASK;
 224:.\Generated_Source\PSoC5/ADC_DelSig_theACLK.c ****                 CLK_DIST_AMASK = 0x00u;
 225:.\Generated_Source\PSoC5/ADC_DelSig_theACLK.c **** #endif
 226:.\Generated_Source\PSoC5/ADC_DelSig_theACLK.c ****                 /* Clear mask of bus clock. */
 227:.\Generated_Source\PSoC5/ADC_DelSig_theACLK.c ****                 CLK_DIST_BCFG2 &= ~BCFG2_MASK;
 387              		.loc 1 227 0
 388 00dc 44F20803 		movw	r3, #:lower16:1073758216
 389 00e0 C4F20003 		movt	r3, #:upper16:1073758216
 390 00e4 44F20802 		movw	r2, #:lower16:1073758216
 391 00e8 C4F20002 		movt	r2, #:upper16:1073758216
 392 00ec 1278     		ldrb	r2, [r2, #0]
 393 00ee D2B2     		uxtb	r2, r2
 394 00f0 02F07F02 		and	r2, r2, #127
 395 00f4 1A70     		strb	r2, [r3, #0]
 228:.\Generated_Source\PSoC5/ADC_DelSig_theACLK.c **** 
ARM GAS  C:\Users\csap2972\AppData\Local\Temp\ccpAHOnc.s 			page 12


 229:.\Generated_Source\PSoC5/ADC_DelSig_theACLK.c **** #if HAS_CLKDIST_LD_DISABLE
 230:.\Generated_Source\PSoC5/ADC_DelSig_theACLK.c ****                 CY_SET_REG16(CYREG_CLKDIST_WRK0, oldDivider);
 396              		.loc 1 230 0
 397 00f6 44F20203 		movw	r3, #:lower16:1073758210
 398 00fa C4F20003 		movt	r3, #:upper16:1073758210
 399 00fe FA89     		ldrh	r2, [r7, #14]	@ movhi
 400 0100 1A80     		strh	r2, [r3, #0]	@ movhi
 231:.\Generated_Source\PSoC5/ADC_DelSig_theACLK.c ****                 CLK_DIST_LD = CYCLK_LD_DISABLE|CYCLK_LD_SYNC_EN|CYCLK_LD_LOAD;
 401              		.loc 1 231 0
 402 0102 44F20103 		movw	r3, #:lower16:1073758209
 403 0106 C4F20003 		movt	r3, #:upper16:1073758209
 404 010a 4FF00702 		mov	r2, #7
 405 010e 1A70     		strb	r2, [r3, #0]
 406              	.L20:
 232:.\Generated_Source\PSoC5/ADC_DelSig_theACLK.c **** 
 233:.\Generated_Source\PSoC5/ADC_DelSig_theACLK.c ****                 /* Wait for clock to be disabled */
 234:.\Generated_Source\PSoC5/ADC_DelSig_theACLK.c ****                 while (CLK_DIST_LD & CYCLK_LD_LOAD) { }
 407              		.loc 1 234 0
 408 0110 44F20103 		movw	r3, #:lower16:1073758209
 409 0114 C4F20003 		movt	r3, #:upper16:1073758209
 410 0118 1B78     		ldrb	r3, [r3, #0]
 411 011a DBB2     		uxtb	r3, r3
 412 011c 03F00103 		and	r3, r3, #1
 413 0120 DBB2     		uxtb	r3, r3
 414 0122 002B     		cmp	r3, #0
 415 0124 F4D1     		bne	.L20
 235:.\Generated_Source\PSoC5/ADC_DelSig_theACLK.c **** #endif
 236:.\Generated_Source\PSoC5/ADC_DelSig_theACLK.c **** 
 237:.\Generated_Source\PSoC5/ADC_DelSig_theACLK.c ****                 ADC_DelSig_theACLK_CLKEN &= ~ADC_DelSig_theACLK_CLKEN_MASK;
 416              		.loc 1 237 0
 417 0126 44F2A133 		movw	r3, #:lower16:1073759137
 418 012a C4F20003 		movt	r3, #:upper16:1073759137
 419 012e 44F2A132 		movw	r2, #:lower16:1073759137
 420 0132 C4F20002 		movt	r2, #:upper16:1073759137
 421 0136 1278     		ldrb	r2, [r2, #0]
 422 0138 D2B2     		uxtb	r2, r2
 423 013a 02F0FD02 		and	r2, r2, #253
 424 013e 1A70     		strb	r2, [r3, #0]
 238:.\Generated_Source\PSoC5/ADC_DelSig_theACLK.c **** 
 239:.\Generated_Source\PSoC5/ADC_DelSig_theACLK.c **** #if HAS_CLKDIST_LD_DISABLE
 240:.\Generated_Source\PSoC5/ADC_DelSig_theACLK.c ****                 /* Clear the disable bit */
 241:.\Generated_Source\PSoC5/ADC_DelSig_theACLK.c ****                 CLK_DIST_LD = 0x00u;
 425              		.loc 1 241 0
 426 0140 44F20103 		movw	r3, #:lower16:1073758209
 427 0144 C4F20003 		movt	r3, #:upper16:1073758209
 428 0148 4FF00002 		mov	r2, #0
 429 014c 1A70     		strb	r2, [r3, #0]
 430              	.L19:
 242:.\Generated_Source\PSoC5/ADC_DelSig_theACLK.c **** #endif
 243:.\Generated_Source\PSoC5/ADC_DelSig_theACLK.c ****             }
 244:.\Generated_Source\PSoC5/ADC_DelSig_theACLK.c **** 
 245:.\Generated_Source\PSoC5/ADC_DelSig_theACLK.c ****             /* Load divide value. */
 246:.\Generated_Source\PSoC5/ADC_DelSig_theACLK.c ****             if (ADC_DelSig_theACLK_CLKEN & ADC_DelSig_theACLK_CLKEN_MASK)
 431              		.loc 1 246 0
 432 014e 44F2A133 		movw	r3, #:lower16:1073759137
 433 0152 C4F20003 		movt	r3, #:upper16:1073759137
 434 0156 1B78     		ldrb	r3, [r3, #0]
ARM GAS  C:\Users\csap2972\AppData\Local\Temp\ccpAHOnc.s 			page 13


 435 0158 DBB2     		uxtb	r3, r3
 436 015a 03F00203 		and	r3, r3, #2
 437 015e 002B     		cmp	r3, #0
 438 0160 1ED0     		beq	.L21
 247:.\Generated_Source\PSoC5/ADC_DelSig_theACLK.c ****             {
 248:.\Generated_Source\PSoC5/ADC_DelSig_theACLK.c ****                 /* If the clock is still enabled, use the shadow registers */
 249:.\Generated_Source\PSoC5/ADC_DelSig_theACLK.c ****                 CY_SET_REG16(CYREG_CLKDIST_WRK0, clkDivider);
 439              		.loc 1 249 0
 440 0162 44F20203 		movw	r3, #:lower16:1073758210
 441 0166 C4F20003 		movt	r3, #:upper16:1073758210
 442 016a FA88     		ldrh	r2, [r7, #6]	@ movhi
 443 016c 1A80     		strh	r2, [r3, #0]	@ movhi
 250:.\Generated_Source\PSoC5/ADC_DelSig_theACLK.c **** 
 251:.\Generated_Source\PSoC5/ADC_DelSig_theACLK.c ****                 CLK_DIST_LD = (CYCLK_LD_LOAD | (restart ? CYCLK_LD_SYNC_EN : 0x00u));
 444              		.loc 1 251 0
 445 016e 44F20103 		movw	r3, #:lower16:1073758209
 446 0172 C4F20003 		movt	r3, #:upper16:1073758209
 447 0176 7A79     		ldrb	r2, [r7, #5]	@ zero_extendqisi2
 448 0178 002A     		cmp	r2, #0
 449 017a 02D0     		beq	.L22
 450 017c 4FF00302 		mov	r2, #3
 451 0180 01E0     		b	.L23
 452              	.L22:
 453 0182 4FF00102 		mov	r2, #1
 454              	.L23:
 455 0186 1A70     		strb	r2, [r3, #0]
 456              	.L24:
 252:.\Generated_Source\PSoC5/ADC_DelSig_theACLK.c ****                 while (CLK_DIST_LD & CYCLK_LD_LOAD) { }
 457              		.loc 1 252 0
 458 0188 44F20103 		movw	r3, #:lower16:1073758209
 459 018c C4F20003 		movt	r3, #:upper16:1073758209
 460 0190 1B78     		ldrb	r3, [r3, #0]
 461 0192 DBB2     		uxtb	r3, r3
 462 0194 03F00103 		and	r3, r3, #1
 463 0198 DBB2     		uxtb	r3, r3
 464 019a 002B     		cmp	r3, #0
 465 019c F4D1     		bne	.L24
 466 019e 05E0     		b	.L25
 467              	.L21:
 253:.\Generated_Source\PSoC5/ADC_DelSig_theACLK.c ****             }
 254:.\Generated_Source\PSoC5/ADC_DelSig_theACLK.c ****             else
 255:.\Generated_Source\PSoC5/ADC_DelSig_theACLK.c ****             {
 256:.\Generated_Source\PSoC5/ADC_DelSig_theACLK.c ****                 /* If the clock is disabled, set the divider directly */
 257:.\Generated_Source\PSoC5/ADC_DelSig_theACLK.c ****                 CY_SET_REG16(ADC_DelSig_theACLK_DIV_PTR, clkDivider);
 468              		.loc 1 257 0
 469 01a0 44F20413 		movw	r3, #:lower16:1073758468
 470 01a4 C4F20003 		movt	r3, #:upper16:1073758468
 471 01a8 FA88     		ldrh	r2, [r7, #6]	@ movhi
 472 01aa 1A80     		strh	r2, [r3, #0]	@ movhi
 473              	.L25:
 258:.\Generated_Source\PSoC5/ADC_DelSig_theACLK.c ****             }
 259:.\Generated_Source\PSoC5/ADC_DelSig_theACLK.c **** 
 260:.\Generated_Source\PSoC5/ADC_DelSig_theACLK.c ****             ADC_DelSig_theACLK_CLKEN |= enabled;
 474              		.loc 1 260 0
 475 01ac 44F2A133 		movw	r3, #:lower16:1073759137
 476 01b0 C4F20003 		movt	r3, #:upper16:1073759137
 477 01b4 44F2A132 		movw	r2, #:lower16:1073759137
ARM GAS  C:\Users\csap2972\AppData\Local\Temp\ccpAHOnc.s 			page 14


 478 01b8 C4F20002 		movt	r2, #:upper16:1073759137
 479 01bc 1278     		ldrb	r2, [r2, #0]
 480 01be D1B2     		uxtb	r1, r2
 481 01c0 3A7B     		ldrb	r2, [r7, #12]
 482 01c2 41EA0202 		orr	r2, r1, r2
 483 01c6 D2B2     		uxtb	r2, r2
 484 01c8 1A70     		strb	r2, [r3, #0]
 485              	.L26:
 261:.\Generated_Source\PSoC5/ADC_DelSig_theACLK.c ****         }
 262:.\Generated_Source\PSoC5/ADC_DelSig_theACLK.c ****     }
 263:.\Generated_Source\PSoC5/ADC_DelSig_theACLK.c **** }
 486              		.loc 1 263 0
 487 01ca 07F11007 		add	r7, r7, #16
 488 01ce BD46     		mov	sp, r7
 489 01d0 80BD     		pop	{r7, pc}
 490              		.cfi_endproc
 491              	.LFE4:
 492              		.size	ADC_DelSig_theACLK_SetDividerRegister, .-ADC_DelSig_theACLK_SetDividerRegister
 493 01d2 00BF     		.section	.text.ADC_DelSig_theACLK_GetDividerRegister,"ax",%progbits
 494              		.align	2
 495              		.global	ADC_DelSig_theACLK_GetDividerRegister
 496              		.thumb
 497              		.thumb_func
 498              		.type	ADC_DelSig_theACLK_GetDividerRegister, %function
 499              	ADC_DelSig_theACLK_GetDividerRegister:
 500              	.LFB5:
 264:.\Generated_Source\PSoC5/ADC_DelSig_theACLK.c **** 
 265:.\Generated_Source\PSoC5/ADC_DelSig_theACLK.c **** 
 266:.\Generated_Source\PSoC5/ADC_DelSig_theACLK.c **** /*******************************************************************************
 267:.\Generated_Source\PSoC5/ADC_DelSig_theACLK.c **** * Function Name: ADC_DelSig_theACLK_GetDividerRegister
 268:.\Generated_Source\PSoC5/ADC_DelSig_theACLK.c **** ********************************************************************************
 269:.\Generated_Source\PSoC5/ADC_DelSig_theACLK.c **** * Summary:
 270:.\Generated_Source\PSoC5/ADC_DelSig_theACLK.c **** *  Gets the clock divider register value.
 271:.\Generated_Source\PSoC5/ADC_DelSig_theACLK.c **** *
 272:.\Generated_Source\PSoC5/ADC_DelSig_theACLK.c **** * Parameters:
 273:.\Generated_Source\PSoC5/ADC_DelSig_theACLK.c **** *  void
 274:.\Generated_Source\PSoC5/ADC_DelSig_theACLK.c **** *
 275:.\Generated_Source\PSoC5/ADC_DelSig_theACLK.c **** * Returns:
 276:.\Generated_Source\PSoC5/ADC_DelSig_theACLK.c **** *  Divide value of the clock minus 1. For example, if the clock is set to
 277:.\Generated_Source\PSoC5/ADC_DelSig_theACLK.c **** *  divide by 2, the return value will be 1.
 278:.\Generated_Source\PSoC5/ADC_DelSig_theACLK.c **** *
 279:.\Generated_Source\PSoC5/ADC_DelSig_theACLK.c **** *******************************************************************************/
 280:.\Generated_Source\PSoC5/ADC_DelSig_theACLK.c **** uint16 ADC_DelSig_theACLK_GetDividerRegister(void) 
 281:.\Generated_Source\PSoC5/ADC_DelSig_theACLK.c **** {
 501              		.loc 1 281 0
 502              		.cfi_startproc
 503              		@ args = 0, pretend = 0, frame = 0
 504              		@ frame_needed = 1, uses_anonymous_args = 0
 505              		@ link register save eliminated.
 506 0000 80B4     		push	{r7}
 507              	.LCFI13:
 508              		.cfi_def_cfa_offset 4
 509 0002 00AF     		add	r7, sp, #0
 510              		.cfi_offset 7, -4
 511              	.LCFI14:
 512              		.cfi_def_cfa_register 7
 282:.\Generated_Source\PSoC5/ADC_DelSig_theACLK.c ****     return CY_GET_REG16(ADC_DelSig_theACLK_DIV_PTR);
ARM GAS  C:\Users\csap2972\AppData\Local\Temp\ccpAHOnc.s 			page 15


 513              		.loc 1 282 0
 514 0004 44F20413 		movw	r3, #:lower16:1073758468
 515 0008 C4F20003 		movt	r3, #:upper16:1073758468
 516 000c 1B88     		ldrh	r3, [r3, #0]	@ movhi
 517 000e 9BB2     		uxth	r3, r3
 283:.\Generated_Source\PSoC5/ADC_DelSig_theACLK.c **** }
 518              		.loc 1 283 0
 519 0010 1846     		mov	r0, r3
 520 0012 BD46     		mov	sp, r7
 521 0014 80BC     		pop	{r7}
 522 0016 7047     		bx	lr
 523              		.cfi_endproc
 524              	.LFE5:
 525              		.size	ADC_DelSig_theACLK_GetDividerRegister, .-ADC_DelSig_theACLK_GetDividerRegister
 526              		.section	.text.ADC_DelSig_theACLK_SetModeRegister,"ax",%progbits
 527              		.align	2
 528              		.global	ADC_DelSig_theACLK_SetModeRegister
 529              		.thumb
 530              		.thumb_func
 531              		.type	ADC_DelSig_theACLK_SetModeRegister, %function
 532              	ADC_DelSig_theACLK_SetModeRegister:
 533              	.LFB6:
 284:.\Generated_Source\PSoC5/ADC_DelSig_theACLK.c **** 
 285:.\Generated_Source\PSoC5/ADC_DelSig_theACLK.c **** 
 286:.\Generated_Source\PSoC5/ADC_DelSig_theACLK.c **** /*******************************************************************************
 287:.\Generated_Source\PSoC5/ADC_DelSig_theACLK.c **** * Function Name: ADC_DelSig_theACLK_SetModeRegister
 288:.\Generated_Source\PSoC5/ADC_DelSig_theACLK.c **** ********************************************************************************
 289:.\Generated_Source\PSoC5/ADC_DelSig_theACLK.c **** * Summary:
 290:.\Generated_Source\PSoC5/ADC_DelSig_theACLK.c **** *  Sets flags that control the operating mode of the clock. This function only
 291:.\Generated_Source\PSoC5/ADC_DelSig_theACLK.c **** *  changes flags from 0 to 1; flags that are already 1 will remain unchanged.
 292:.\Generated_Source\PSoC5/ADC_DelSig_theACLK.c **** *  To clear flags, use the ClearModeRegister function. The clock must be
 293:.\Generated_Source\PSoC5/ADC_DelSig_theACLK.c **** *  disabled before changing the mode.
 294:.\Generated_Source\PSoC5/ADC_DelSig_theACLK.c **** *
 295:.\Generated_Source\PSoC5/ADC_DelSig_theACLK.c **** * Parameters:
 296:.\Generated_Source\PSoC5/ADC_DelSig_theACLK.c **** *  clkMode: Bit mask containing the bits to set. For PSoC 3 and PSoC 5,
 297:.\Generated_Source\PSoC5/ADC_DelSig_theACLK.c **** *   clkMode should be a set of the following optional bits or'ed together.
 298:.\Generated_Source\PSoC5/ADC_DelSig_theACLK.c **** *   - CYCLK_EARLY Enable early phase mode. Rising edge of output clock will
 299:.\Generated_Source\PSoC5/ADC_DelSig_theACLK.c **** *                 occur when the divider count reaches half of the divide
 300:.\Generated_Source\PSoC5/ADC_DelSig_theACLK.c **** *                 value.
 301:.\Generated_Source\PSoC5/ADC_DelSig_theACLK.c **** *   - CYCLK_DUTY  Enable 50% duty cycle output. When enabled, the output clock
 302:.\Generated_Source\PSoC5/ADC_DelSig_theACLK.c **** *                 is asserted for approximately half of its period. When
 303:.\Generated_Source\PSoC5/ADC_DelSig_theACLK.c **** *                 disabled, the output clock is asserted for one period of the
 304:.\Generated_Source\PSoC5/ADC_DelSig_theACLK.c **** *                 source clock.
 305:.\Generated_Source\PSoC5/ADC_DelSig_theACLK.c **** *   - CYCLK_SYNC  Enable output synchronization to master clock. This should
 306:.\Generated_Source\PSoC5/ADC_DelSig_theACLK.c **** *                 be enabled for all synchronous clocks.
 307:.\Generated_Source\PSoC5/ADC_DelSig_theACLK.c **** *   See the Technical Reference Manual for details about setting the mode of
 308:.\Generated_Source\PSoC5/ADC_DelSig_theACLK.c **** *   the clock. Specifically, see the CLKDIST.DCFG.CFG2 register.
 309:.\Generated_Source\PSoC5/ADC_DelSig_theACLK.c **** *
 310:.\Generated_Source\PSoC5/ADC_DelSig_theACLK.c **** * Returns:
 311:.\Generated_Source\PSoC5/ADC_DelSig_theACLK.c **** *  void
 312:.\Generated_Source\PSoC5/ADC_DelSig_theACLK.c **** *
 313:.\Generated_Source\PSoC5/ADC_DelSig_theACLK.c **** *******************************************************************************/
 314:.\Generated_Source\PSoC5/ADC_DelSig_theACLK.c **** void ADC_DelSig_theACLK_SetModeRegister(uint8 clkMode) 
 315:.\Generated_Source\PSoC5/ADC_DelSig_theACLK.c **** {
 534              		.loc 1 315 0
 535              		.cfi_startproc
 536              		@ args = 0, pretend = 0, frame = 8
ARM GAS  C:\Users\csap2972\AppData\Local\Temp\ccpAHOnc.s 			page 16


 537              		@ frame_needed = 1, uses_anonymous_args = 0
 538              		@ link register save eliminated.
 539 0000 80B4     		push	{r7}
 540              	.LCFI15:
 541              		.cfi_def_cfa_offset 4
 542 0002 83B0     		sub	sp, sp, #12
 543              	.LCFI16:
 544              		.cfi_def_cfa_offset 16
 545 0004 00AF     		add	r7, sp, #0
 546              		.cfi_offset 7, -4
 547              	.LCFI17:
 548              		.cfi_def_cfa_register 7
 549 0006 0346     		mov	r3, r0
 550 0008 FB71     		strb	r3, [r7, #7]
 316:.\Generated_Source\PSoC5/ADC_DelSig_theACLK.c ****     ADC_DelSig_theACLK_MOD_SRC |= clkMode & ADC_DelSig_theACLK_MODE_MASK;
 551              		.loc 1 316 0
 552 000a 44F20613 		movw	r3, #:lower16:1073758470
 553 000e C4F20003 		movt	r3, #:upper16:1073758470
 554 0012 44F20612 		movw	r2, #:lower16:1073758470
 555 0016 C4F20002 		movt	r2, #:upper16:1073758470
 556 001a 1278     		ldrb	r2, [r2, #0]
 557 001c D1B2     		uxtb	r1, r2
 558 001e FA79     		ldrb	r2, [r7, #7]	@ zero_extendqisi2
 559 0020 02F0F802 		and	r2, r2, #248
 560 0024 41EA0202 		orr	r2, r1, r2
 561 0028 D2B2     		uxtb	r2, r2
 562 002a 1A70     		strb	r2, [r3, #0]
 317:.\Generated_Source\PSoC5/ADC_DelSig_theACLK.c **** }
 563              		.loc 1 317 0
 564 002c 07F10C07 		add	r7, r7, #12
 565 0030 BD46     		mov	sp, r7
 566 0032 80BC     		pop	{r7}
 567 0034 7047     		bx	lr
 568              		.cfi_endproc
 569              	.LFE6:
 570              		.size	ADC_DelSig_theACLK_SetModeRegister, .-ADC_DelSig_theACLK_SetModeRegister
 571 0036 00BF     		.section	.text.ADC_DelSig_theACLK_ClearModeRegister,"ax",%progbits
 572              		.align	2
 573              		.global	ADC_DelSig_theACLK_ClearModeRegister
 574              		.thumb
 575              		.thumb_func
 576              		.type	ADC_DelSig_theACLK_ClearModeRegister, %function
 577              	ADC_DelSig_theACLK_ClearModeRegister:
 578              	.LFB7:
 318:.\Generated_Source\PSoC5/ADC_DelSig_theACLK.c **** 
 319:.\Generated_Source\PSoC5/ADC_DelSig_theACLK.c **** 
 320:.\Generated_Source\PSoC5/ADC_DelSig_theACLK.c **** /*******************************************************************************
 321:.\Generated_Source\PSoC5/ADC_DelSig_theACLK.c **** * Function Name: ADC_DelSig_theACLK_ClearModeRegister
 322:.\Generated_Source\PSoC5/ADC_DelSig_theACLK.c **** ********************************************************************************
 323:.\Generated_Source\PSoC5/ADC_DelSig_theACLK.c **** * Summary:
 324:.\Generated_Source\PSoC5/ADC_DelSig_theACLK.c **** *  Clears flags that control the operating mode of the clock. This function
 325:.\Generated_Source\PSoC5/ADC_DelSig_theACLK.c **** *  only changes flags from 1 to 0; flags that are already 0 will remain
 326:.\Generated_Source\PSoC5/ADC_DelSig_theACLK.c **** *  unchanged. To set flags, use the SetModeRegister function. The clock must be
 327:.\Generated_Source\PSoC5/ADC_DelSig_theACLK.c **** *  disabled before changing the mode.
 328:.\Generated_Source\PSoC5/ADC_DelSig_theACLK.c **** *
 329:.\Generated_Source\PSoC5/ADC_DelSig_theACLK.c **** * Parameters:
 330:.\Generated_Source\PSoC5/ADC_DelSig_theACLK.c **** *  clkMode: Bit mask containing the bits to clear. For PSoC 3 and PSoC 5,
ARM GAS  C:\Users\csap2972\AppData\Local\Temp\ccpAHOnc.s 			page 17


 331:.\Generated_Source\PSoC5/ADC_DelSig_theACLK.c **** *   clkMode should be a set of the following optional bits or'ed together.
 332:.\Generated_Source\PSoC5/ADC_DelSig_theACLK.c **** *   - CYCLK_EARLY Enable early phase mode. Rising edge of output clock will
 333:.\Generated_Source\PSoC5/ADC_DelSig_theACLK.c **** *                 occur when the divider count reaches half of the divide
 334:.\Generated_Source\PSoC5/ADC_DelSig_theACLK.c **** *                 value.
 335:.\Generated_Source\PSoC5/ADC_DelSig_theACLK.c **** *   - CYCLK_DUTY  Enable 50% duty cycle output. When enabled, the output clock
 336:.\Generated_Source\PSoC5/ADC_DelSig_theACLK.c **** *                 is asserted for approximately half of its period. When
 337:.\Generated_Source\PSoC5/ADC_DelSig_theACLK.c **** *                 disabled, the output clock is asserted for one period of the
 338:.\Generated_Source\PSoC5/ADC_DelSig_theACLK.c **** *                 source clock.
 339:.\Generated_Source\PSoC5/ADC_DelSig_theACLK.c **** *   - CYCLK_SYNC  Enable output synchronization to master clock. This should
 340:.\Generated_Source\PSoC5/ADC_DelSig_theACLK.c **** *                 be enabled for all synchronous clocks.
 341:.\Generated_Source\PSoC5/ADC_DelSig_theACLK.c **** *   See the Technical Reference Manual for details about setting the mode of
 342:.\Generated_Source\PSoC5/ADC_DelSig_theACLK.c **** *   the clock. Specifically, see the CLKDIST.DCFG.CFG2 register.
 343:.\Generated_Source\PSoC5/ADC_DelSig_theACLK.c **** *
 344:.\Generated_Source\PSoC5/ADC_DelSig_theACLK.c **** * Returns:
 345:.\Generated_Source\PSoC5/ADC_DelSig_theACLK.c **** *  void
 346:.\Generated_Source\PSoC5/ADC_DelSig_theACLK.c **** *
 347:.\Generated_Source\PSoC5/ADC_DelSig_theACLK.c **** *******************************************************************************/
 348:.\Generated_Source\PSoC5/ADC_DelSig_theACLK.c **** void ADC_DelSig_theACLK_ClearModeRegister(uint8 clkMode) 
 349:.\Generated_Source\PSoC5/ADC_DelSig_theACLK.c **** {
 579              		.loc 1 349 0
 580              		.cfi_startproc
 581              		@ args = 0, pretend = 0, frame = 8
 582              		@ frame_needed = 1, uses_anonymous_args = 0
 583              		@ link register save eliminated.
 584 0000 80B4     		push	{r7}
 585              	.LCFI18:
 586              		.cfi_def_cfa_offset 4
 587 0002 83B0     		sub	sp, sp, #12
 588              	.LCFI19:
 589              		.cfi_def_cfa_offset 16
 590 0004 00AF     		add	r7, sp, #0
 591              		.cfi_offset 7, -4
 592              	.LCFI20:
 593              		.cfi_def_cfa_register 7
 594 0006 0346     		mov	r3, r0
 595 0008 FB71     		strb	r3, [r7, #7]
 350:.\Generated_Source\PSoC5/ADC_DelSig_theACLK.c ****     ADC_DelSig_theACLK_MOD_SRC &= ~clkMode | ~ADC_DelSig_theACLK_MODE_MASK;
 596              		.loc 1 350 0
 597 000a 44F20613 		movw	r3, #:lower16:1073758470
 598 000e C4F20003 		movt	r3, #:upper16:1073758470
 599 0012 44F20612 		movw	r2, #:lower16:1073758470
 600 0016 C4F20002 		movt	r2, #:upper16:1073758470
 601 001a 1278     		ldrb	r2, [r2, #0]
 602 001c D1B2     		uxtb	r1, r2
 603 001e FA79     		ldrb	r2, [r7, #7]
 604 0020 6FEA0202 		mvn	r2, r2
 605 0024 D2B2     		uxtb	r2, r2
 606 0026 42F00702 		orr	r2, r2, #7
 607 002a D2B2     		uxtb	r2, r2
 608 002c 01EA0202 		and	r2, r1, r2
 609 0030 D2B2     		uxtb	r2, r2
 610 0032 1A70     		strb	r2, [r3, #0]
 351:.\Generated_Source\PSoC5/ADC_DelSig_theACLK.c **** }
 611              		.loc 1 351 0
 612 0034 07F10C07 		add	r7, r7, #12
 613 0038 BD46     		mov	sp, r7
 614 003a 80BC     		pop	{r7}
ARM GAS  C:\Users\csap2972\AppData\Local\Temp\ccpAHOnc.s 			page 18


 615 003c 7047     		bx	lr
 616              		.cfi_endproc
 617              	.LFE7:
 618              		.size	ADC_DelSig_theACLK_ClearModeRegister, .-ADC_DelSig_theACLK_ClearModeRegister
 619 003e 00BF     		.section	.text.ADC_DelSig_theACLK_GetModeRegister,"ax",%progbits
 620              		.align	2
 621              		.global	ADC_DelSig_theACLK_GetModeRegister
 622              		.thumb
 623              		.thumb_func
 624              		.type	ADC_DelSig_theACLK_GetModeRegister, %function
 625              	ADC_DelSig_theACLK_GetModeRegister:
 626              	.LFB8:
 352:.\Generated_Source\PSoC5/ADC_DelSig_theACLK.c **** 
 353:.\Generated_Source\PSoC5/ADC_DelSig_theACLK.c **** 
 354:.\Generated_Source\PSoC5/ADC_DelSig_theACLK.c **** /*******************************************************************************
 355:.\Generated_Source\PSoC5/ADC_DelSig_theACLK.c **** * Function Name: ADC_DelSig_theACLK_GetModeRegister
 356:.\Generated_Source\PSoC5/ADC_DelSig_theACLK.c **** ********************************************************************************
 357:.\Generated_Source\PSoC5/ADC_DelSig_theACLK.c **** * Summary:
 358:.\Generated_Source\PSoC5/ADC_DelSig_theACLK.c **** *  Gets the clock mode register value.
 359:.\Generated_Source\PSoC5/ADC_DelSig_theACLK.c **** *
 360:.\Generated_Source\PSoC5/ADC_DelSig_theACLK.c **** * Parameters:
 361:.\Generated_Source\PSoC5/ADC_DelSig_theACLK.c **** *  void
 362:.\Generated_Source\PSoC5/ADC_DelSig_theACLK.c **** *
 363:.\Generated_Source\PSoC5/ADC_DelSig_theACLK.c **** * Returns:
 364:.\Generated_Source\PSoC5/ADC_DelSig_theACLK.c **** *  Bit mask representing the enabled mode bits. See the SetModeRegister and
 365:.\Generated_Source\PSoC5/ADC_DelSig_theACLK.c **** *  ClearModeRegister descriptions for details about the mode bits.
 366:.\Generated_Source\PSoC5/ADC_DelSig_theACLK.c **** *
 367:.\Generated_Source\PSoC5/ADC_DelSig_theACLK.c **** *******************************************************************************/
 368:.\Generated_Source\PSoC5/ADC_DelSig_theACLK.c **** uint8 ADC_DelSig_theACLK_GetModeRegister(void) 
 369:.\Generated_Source\PSoC5/ADC_DelSig_theACLK.c **** {
 627              		.loc 1 369 0
 628              		.cfi_startproc
 629              		@ args = 0, pretend = 0, frame = 0
 630              		@ frame_needed = 1, uses_anonymous_args = 0
 631              		@ link register save eliminated.
 632 0000 80B4     		push	{r7}
 633              	.LCFI21:
 634              		.cfi_def_cfa_offset 4
 635 0002 00AF     		add	r7, sp, #0
 636              		.cfi_offset 7, -4
 637              	.LCFI22:
 638              		.cfi_def_cfa_register 7
 370:.\Generated_Source\PSoC5/ADC_DelSig_theACLK.c ****     return ADC_DelSig_theACLK_MOD_SRC & ADC_DelSig_theACLK_MODE_MASK;
 639              		.loc 1 370 0
 640 0004 44F20613 		movw	r3, #:lower16:1073758470
 641 0008 C4F20003 		movt	r3, #:upper16:1073758470
 642 000c 1B78     		ldrb	r3, [r3, #0]
 643 000e DBB2     		uxtb	r3, r3
 644 0010 03F0F803 		and	r3, r3, #248
 371:.\Generated_Source\PSoC5/ADC_DelSig_theACLK.c **** }
 645              		.loc 1 371 0
 646 0014 1846     		mov	r0, r3
 647 0016 BD46     		mov	sp, r7
 648 0018 80BC     		pop	{r7}
 649 001a 7047     		bx	lr
 650              		.cfi_endproc
 651              	.LFE8:
ARM GAS  C:\Users\csap2972\AppData\Local\Temp\ccpAHOnc.s 			page 19


 652              		.size	ADC_DelSig_theACLK_GetModeRegister, .-ADC_DelSig_theACLK_GetModeRegister
 653              		.section	.text.ADC_DelSig_theACLK_SetSourceRegister,"ax",%progbits
 654              		.align	2
 655              		.global	ADC_DelSig_theACLK_SetSourceRegister
 656              		.thumb
 657              		.thumb_func
 658              		.type	ADC_DelSig_theACLK_SetSourceRegister, %function
 659              	ADC_DelSig_theACLK_SetSourceRegister:
 660              	.LFB9:
 372:.\Generated_Source\PSoC5/ADC_DelSig_theACLK.c **** 
 373:.\Generated_Source\PSoC5/ADC_DelSig_theACLK.c **** 
 374:.\Generated_Source\PSoC5/ADC_DelSig_theACLK.c **** /*******************************************************************************
 375:.\Generated_Source\PSoC5/ADC_DelSig_theACLK.c **** * Function Name: ADC_DelSig_theACLK_SetSourceRegister
 376:.\Generated_Source\PSoC5/ADC_DelSig_theACLK.c **** ********************************************************************************
 377:.\Generated_Source\PSoC5/ADC_DelSig_theACLK.c **** * Summary:
 378:.\Generated_Source\PSoC5/ADC_DelSig_theACLK.c **** *  Sets the input source of the clock. The clock must be disabled before
 379:.\Generated_Source\PSoC5/ADC_DelSig_theACLK.c **** *  changing the source. The old and new clock sources must be running.
 380:.\Generated_Source\PSoC5/ADC_DelSig_theACLK.c **** *
 381:.\Generated_Source\PSoC5/ADC_DelSig_theACLK.c **** * Parameters:
 382:.\Generated_Source\PSoC5/ADC_DelSig_theACLK.c **** *  clkSource:  For PSoC 3 and PSoC 5 devices, clkSource should be one of the
 383:.\Generated_Source\PSoC5/ADC_DelSig_theACLK.c **** *   following input sources:
 384:.\Generated_Source\PSoC5/ADC_DelSig_theACLK.c **** *   - CYCLK_SRC_SEL_SYNC_DIG
 385:.\Generated_Source\PSoC5/ADC_DelSig_theACLK.c **** *   - CYCLK_SRC_SEL_IMO
 386:.\Generated_Source\PSoC5/ADC_DelSig_theACLK.c **** *   - CYCLK_SRC_SEL_XTALM
 387:.\Generated_Source\PSoC5/ADC_DelSig_theACLK.c **** *   - CYCLK_SRC_SEL_ILO
 388:.\Generated_Source\PSoC5/ADC_DelSig_theACLK.c **** *   - CYCLK_SRC_SEL_PLL
 389:.\Generated_Source\PSoC5/ADC_DelSig_theACLK.c **** *   - CYCLK_SRC_SEL_XTALK
 390:.\Generated_Source\PSoC5/ADC_DelSig_theACLK.c **** *   - CYCLK_SRC_SEL_DSI_G
 391:.\Generated_Source\PSoC5/ADC_DelSig_theACLK.c **** *   - CYCLK_SRC_SEL_DSI_D/CYCLK_SRC_SEL_DSI_A
 392:.\Generated_Source\PSoC5/ADC_DelSig_theACLK.c **** *   See the Technical Reference Manual for details on clock sources.
 393:.\Generated_Source\PSoC5/ADC_DelSig_theACLK.c **** *
 394:.\Generated_Source\PSoC5/ADC_DelSig_theACLK.c **** * Returns:
 395:.\Generated_Source\PSoC5/ADC_DelSig_theACLK.c **** *  void
 396:.\Generated_Source\PSoC5/ADC_DelSig_theACLK.c **** *
 397:.\Generated_Source\PSoC5/ADC_DelSig_theACLK.c **** *******************************************************************************/
 398:.\Generated_Source\PSoC5/ADC_DelSig_theACLK.c **** void ADC_DelSig_theACLK_SetSourceRegister(uint8 clkSource) 
 399:.\Generated_Source\PSoC5/ADC_DelSig_theACLK.c **** {
 661              		.loc 1 399 0
 662              		.cfi_startproc
 663              		@ args = 0, pretend = 0, frame = 16
 664              		@ frame_needed = 1, uses_anonymous_args = 0
 665 0000 80B5     		push	{r7, lr}
 666              	.LCFI23:
 667              		.cfi_def_cfa_offset 8
 668 0002 84B0     		sub	sp, sp, #16
 669              	.LCFI24:
 670              		.cfi_def_cfa_offset 24
 671 0004 00AF     		add	r7, sp, #0
 672              		.cfi_offset 14, -4
 673              		.cfi_offset 7, -8
 674              	.LCFI25:
 675              		.cfi_def_cfa_register 7
 676 0006 0346     		mov	r3, r0
 677 0008 FB71     		strb	r3, [r7, #7]
 400:.\Generated_Source\PSoC5/ADC_DelSig_theACLK.c ****     uint16 currDiv = ADC_DelSig_theACLK_GetDividerRegister();
 678              		.loc 1 400 0
 679 000a FFF7FEFF 		bl	ADC_DelSig_theACLK_GetDividerRegister
ARM GAS  C:\Users\csap2972\AppData\Local\Temp\ccpAHOnc.s 			page 20


 680 000e 0346     		mov	r3, r0
 681 0010 BB81     		strh	r3, [r7, #12]	@ movhi
 401:.\Generated_Source\PSoC5/ADC_DelSig_theACLK.c ****     uint8 oldSrc = ADC_DelSig_theACLK_GetSourceRegister();
 682              		.loc 1 401 0
 683 0012 FFF7FEFF 		bl	ADC_DelSig_theACLK_GetSourceRegister
 684 0016 0346     		mov	r3, r0
 685 0018 FB73     		strb	r3, [r7, #15]
 402:.\Generated_Source\PSoC5/ADC_DelSig_theACLK.c **** 
 403:.\Generated_Source\PSoC5/ADC_DelSig_theACLK.c ****     if (oldSrc != CYCLK_SRC_SEL_CLK_SYNC_D && clkSource == CYCLK_SRC_SEL_CLK_SYNC_D && currDiv == 0
 686              		.loc 1 403 0
 687 001a FB7B     		ldrb	r3, [r7, #15]	@ zero_extendqisi2
 688 001c 002B     		cmp	r3, #0
 689 001e 25D0     		beq	.L36
 690 0020 FB79     		ldrb	r3, [r7, #7]	@ zero_extendqisi2
 691 0022 002B     		cmp	r3, #0
 692 0024 22D1     		bne	.L36
 693 0026 BB89     		ldrh	r3, [r7, #12]
 694 0028 002B     		cmp	r3, #0
 695 002a 1FD1     		bne	.L36
 404:.\Generated_Source\PSoC5/ADC_DelSig_theACLK.c ****     {
 405:.\Generated_Source\PSoC5/ADC_DelSig_theACLK.c ****         /* Switching to Master and divider is 1, set SSS, which will output master, */
 406:.\Generated_Source\PSoC5/ADC_DelSig_theACLK.c ****         /* then set the source so we are consistent.                                */
 407:.\Generated_Source\PSoC5/ADC_DelSig_theACLK.c ****         ADC_DelSig_theACLK_MOD_SRC |= CYCLK_SSS;
 696              		.loc 1 407 0
 697 002c 44F20613 		movw	r3, #:lower16:1073758470
 698 0030 C4F20003 		movt	r3, #:upper16:1073758470
 699 0034 44F20612 		movw	r2, #:lower16:1073758470
 700 0038 C4F20002 		movt	r2, #:upper16:1073758470
 701 003c 1278     		ldrb	r2, [r2, #0]
 702 003e D2B2     		uxtb	r2, r2
 703 0040 42F04002 		orr	r2, r2, #64
 704 0044 D2B2     		uxtb	r2, r2
 705 0046 1A70     		strb	r2, [r3, #0]
 408:.\Generated_Source\PSoC5/ADC_DelSig_theACLK.c ****         ADC_DelSig_theACLK_MOD_SRC =
 706              		.loc 1 408 0
 707 0048 44F20613 		movw	r3, #:lower16:1073758470
 708 004c C4F20003 		movt	r3, #:upper16:1073758470
 409:.\Generated_Source\PSoC5/ADC_DelSig_theACLK.c ****             (ADC_DelSig_theACLK_MOD_SRC & ~ADC_DelSig_theACLK_SRC_SEL_MSK) | clkSource;
 709              		.loc 1 409 0
 710 0050 44F20612 		movw	r2, #:lower16:1073758470
 711 0054 C4F20002 		movt	r2, #:upper16:1073758470
 712 0058 1278     		ldrb	r2, [r2, #0]
 713 005a D2B2     		uxtb	r2, r2
 714              		.loc 1 408 0
 715 005c 02F0F802 		and	r2, r2, #248
 716 0060 F979     		ldrb	r1, [r7, #7]
 717 0062 42EA0102 		orr	r2, r2, r1
 718 0066 D2B2     		uxtb	r2, r2
 719 0068 1A70     		strb	r2, [r3, #0]
 720              		.loc 1 403 0
 721 006a 38E0     		b	.L39
 722              	.L36:
 410:.\Generated_Source\PSoC5/ADC_DelSig_theACLK.c ****     }
 411:.\Generated_Source\PSoC5/ADC_DelSig_theACLK.c ****     else if (oldSrc == CYCLK_SRC_SEL_CLK_SYNC_D && clkSource != CYCLK_SRC_SEL_CLK_SYNC_D && currDiv
 723              		.loc 1 411 0
 724 006c FB7B     		ldrb	r3, [r7, #15]	@ zero_extendqisi2
 725 006e 002B     		cmp	r3, #0
ARM GAS  C:\Users\csap2972\AppData\Local\Temp\ccpAHOnc.s 			page 21


 726 0070 24D1     		bne	.L38
 727 0072 FB79     		ldrb	r3, [r7, #7]	@ zero_extendqisi2
 728 0074 002B     		cmp	r3, #0
 729 0076 21D0     		beq	.L38
 730 0078 BB89     		ldrh	r3, [r7, #12]
 731 007a 002B     		cmp	r3, #0
 732 007c 1ED1     		bne	.L38
 412:.\Generated_Source\PSoC5/ADC_DelSig_theACLK.c ****     {
 413:.\Generated_Source\PSoC5/ADC_DelSig_theACLK.c ****         /* Switching from Master to not and divider is 1, set source, so we don't   */
 414:.\Generated_Source\PSoC5/ADC_DelSig_theACLK.c ****         /* lock when we clear SSS.                                                  */
 415:.\Generated_Source\PSoC5/ADC_DelSig_theACLK.c ****         ADC_DelSig_theACLK_MOD_SRC =
 733              		.loc 1 415 0
 734 007e 44F20613 		movw	r3, #:lower16:1073758470
 735 0082 C4F20003 		movt	r3, #:upper16:1073758470
 416:.\Generated_Source\PSoC5/ADC_DelSig_theACLK.c ****             (ADC_DelSig_theACLK_MOD_SRC & ~ADC_DelSig_theACLK_SRC_SEL_MSK) | clkSource;
 736              		.loc 1 416 0
 737 0086 44F20612 		movw	r2, #:lower16:1073758470
 738 008a C4F20002 		movt	r2, #:upper16:1073758470
 739 008e 1278     		ldrb	r2, [r2, #0]
 740 0090 D2B2     		uxtb	r2, r2
 741              		.loc 1 415 0
 742 0092 02F0F802 		and	r2, r2, #248
 743 0096 F979     		ldrb	r1, [r7, #7]
 744 0098 42EA0102 		orr	r2, r2, r1
 745 009c D2B2     		uxtb	r2, r2
 746 009e 1A70     		strb	r2, [r3, #0]
 417:.\Generated_Source\PSoC5/ADC_DelSig_theACLK.c ****         ADC_DelSig_theACLK_MOD_SRC &= ~CYCLK_SSS;
 747              		.loc 1 417 0
 748 00a0 44F20613 		movw	r3, #:lower16:1073758470
 749 00a4 C4F20003 		movt	r3, #:upper16:1073758470
 750 00a8 44F20612 		movw	r2, #:lower16:1073758470
 751 00ac C4F20002 		movt	r2, #:upper16:1073758470
 752 00b0 1278     		ldrb	r2, [r2, #0]
 753 00b2 D2B2     		uxtb	r2, r2
 754 00b4 02F0BF02 		and	r2, r2, #191
 755 00b8 1A70     		strb	r2, [r3, #0]
 756              		.loc 1 411 0
 757 00ba 10E0     		b	.L39
 758              	.L38:
 418:.\Generated_Source\PSoC5/ADC_DelSig_theACLK.c ****     }
 419:.\Generated_Source\PSoC5/ADC_DelSig_theACLK.c ****     else
 420:.\Generated_Source\PSoC5/ADC_DelSig_theACLK.c ****     {
 421:.\Generated_Source\PSoC5/ADC_DelSig_theACLK.c ****         ADC_DelSig_theACLK_MOD_SRC =
 759              		.loc 1 421 0
 760 00bc 44F20613 		movw	r3, #:lower16:1073758470
 761 00c0 C4F20003 		movt	r3, #:upper16:1073758470
 422:.\Generated_Source\PSoC5/ADC_DelSig_theACLK.c ****             (ADC_DelSig_theACLK_MOD_SRC & ~ADC_DelSig_theACLK_SRC_SEL_MSK) | clkSource;
 762              		.loc 1 422 0
 763 00c4 44F20612 		movw	r2, #:lower16:1073758470
 764 00c8 C4F20002 		movt	r2, #:upper16:1073758470
 765 00cc 1278     		ldrb	r2, [r2, #0]
 766 00ce D2B2     		uxtb	r2, r2
 767              		.loc 1 421 0
 768 00d0 02F0F802 		and	r2, r2, #248
 769 00d4 F979     		ldrb	r1, [r7, #7]
 770 00d6 42EA0102 		orr	r2, r2, r1
 771 00da D2B2     		uxtb	r2, r2
ARM GAS  C:\Users\csap2972\AppData\Local\Temp\ccpAHOnc.s 			page 22


 772 00dc 1A70     		strb	r2, [r3, #0]
 773              	.L39:
 423:.\Generated_Source\PSoC5/ADC_DelSig_theACLK.c ****     }
 424:.\Generated_Source\PSoC5/ADC_DelSig_theACLK.c **** }
 774              		.loc 1 424 0
 775 00de 07F11007 		add	r7, r7, #16
 776 00e2 BD46     		mov	sp, r7
 777 00e4 80BD     		pop	{r7, pc}
 778              		.cfi_endproc
 779              	.LFE9:
 780              		.size	ADC_DelSig_theACLK_SetSourceRegister, .-ADC_DelSig_theACLK_SetSourceRegister
 781 00e6 00BF     		.section	.text.ADC_DelSig_theACLK_GetSourceRegister,"ax",%progbits
 782              		.align	2
 783              		.global	ADC_DelSig_theACLK_GetSourceRegister
 784              		.thumb
 785              		.thumb_func
 786              		.type	ADC_DelSig_theACLK_GetSourceRegister, %function
 787              	ADC_DelSig_theACLK_GetSourceRegister:
 788              	.LFB10:
 425:.\Generated_Source\PSoC5/ADC_DelSig_theACLK.c **** 
 426:.\Generated_Source\PSoC5/ADC_DelSig_theACLK.c **** 
 427:.\Generated_Source\PSoC5/ADC_DelSig_theACLK.c **** /*******************************************************************************
 428:.\Generated_Source\PSoC5/ADC_DelSig_theACLK.c **** * Function Name: ADC_DelSig_theACLK_GetSourceRegister
 429:.\Generated_Source\PSoC5/ADC_DelSig_theACLK.c **** ********************************************************************************
 430:.\Generated_Source\PSoC5/ADC_DelSig_theACLK.c **** * Summary:
 431:.\Generated_Source\PSoC5/ADC_DelSig_theACLK.c **** *  Gets the input source of the clock.
 432:.\Generated_Source\PSoC5/ADC_DelSig_theACLK.c **** *
 433:.\Generated_Source\PSoC5/ADC_DelSig_theACLK.c **** * Parameters:
 434:.\Generated_Source\PSoC5/ADC_DelSig_theACLK.c **** *  void
 435:.\Generated_Source\PSoC5/ADC_DelSig_theACLK.c **** *
 436:.\Generated_Source\PSoC5/ADC_DelSig_theACLK.c **** * Returns:
 437:.\Generated_Source\PSoC5/ADC_DelSig_theACLK.c **** *  The input source of the clock. See SetSourceRegister for details.
 438:.\Generated_Source\PSoC5/ADC_DelSig_theACLK.c **** *
 439:.\Generated_Source\PSoC5/ADC_DelSig_theACLK.c **** *******************************************************************************/
 440:.\Generated_Source\PSoC5/ADC_DelSig_theACLK.c **** uint8 ADC_DelSig_theACLK_GetSourceRegister(void) 
 441:.\Generated_Source\PSoC5/ADC_DelSig_theACLK.c **** {
 789              		.loc 1 441 0
 790              		.cfi_startproc
 791              		@ args = 0, pretend = 0, frame = 0
 792              		@ frame_needed = 1, uses_anonymous_args = 0
 793              		@ link register save eliminated.
 794 0000 80B4     		push	{r7}
 795              	.LCFI26:
 796              		.cfi_def_cfa_offset 4
 797 0002 00AF     		add	r7, sp, #0
 798              		.cfi_offset 7, -4
 799              	.LCFI27:
 800              		.cfi_def_cfa_register 7
 442:.\Generated_Source\PSoC5/ADC_DelSig_theACLK.c ****     return ADC_DelSig_theACLK_MOD_SRC & ADC_DelSig_theACLK_SRC_SEL_MSK;
 801              		.loc 1 442 0
 802 0004 44F20613 		movw	r3, #:lower16:1073758470
 803 0008 C4F20003 		movt	r3, #:upper16:1073758470
 804 000c 1B78     		ldrb	r3, [r3, #0]
 805 000e DBB2     		uxtb	r3, r3
 806 0010 03F00703 		and	r3, r3, #7
 443:.\Generated_Source\PSoC5/ADC_DelSig_theACLK.c **** }
 807              		.loc 1 443 0
ARM GAS  C:\Users\csap2972\AppData\Local\Temp\ccpAHOnc.s 			page 23


 808 0014 1846     		mov	r0, r3
 809 0016 BD46     		mov	sp, r7
 810 0018 80BC     		pop	{r7}
 811 001a 7047     		bx	lr
 812              		.cfi_endproc
 813              	.LFE10:
 814              		.size	ADC_DelSig_theACLK_GetSourceRegister, .-ADC_DelSig_theACLK_GetSourceRegister
 815              		.section	.text.ADC_DelSig_theACLK_SetPhaseRegister,"ax",%progbits
 816              		.align	2
 817              		.global	ADC_DelSig_theACLK_SetPhaseRegister
 818              		.thumb
 819              		.thumb_func
 820              		.type	ADC_DelSig_theACLK_SetPhaseRegister, %function
 821              	ADC_DelSig_theACLK_SetPhaseRegister:
 822              	.LFB11:
 444:.\Generated_Source\PSoC5/ADC_DelSig_theACLK.c **** 
 445:.\Generated_Source\PSoC5/ADC_DelSig_theACLK.c **** 
 446:.\Generated_Source\PSoC5/ADC_DelSig_theACLK.c **** #if defined(ADC_DelSig_theACLK__CFG3)
 447:.\Generated_Source\PSoC5/ADC_DelSig_theACLK.c **** 
 448:.\Generated_Source\PSoC5/ADC_DelSig_theACLK.c **** 
 449:.\Generated_Source\PSoC5/ADC_DelSig_theACLK.c **** /*******************************************************************************
 450:.\Generated_Source\PSoC5/ADC_DelSig_theACLK.c **** * Function Name: ADC_DelSig_theACLK_SetPhaseRegister
 451:.\Generated_Source\PSoC5/ADC_DelSig_theACLK.c **** ********************************************************************************
 452:.\Generated_Source\PSoC5/ADC_DelSig_theACLK.c **** * Summary:
 453:.\Generated_Source\PSoC5/ADC_DelSig_theACLK.c **** *  Sets the phase delay of the analog clock. This function is only available
 454:.\Generated_Source\PSoC5/ADC_DelSig_theACLK.c **** *  for analog clocks. The clock must be disabled before changing the phase
 455:.\Generated_Source\PSoC5/ADC_DelSig_theACLK.c **** *  delay to avoid glitches.
 456:.\Generated_Source\PSoC5/ADC_DelSig_theACLK.c **** *
 457:.\Generated_Source\PSoC5/ADC_DelSig_theACLK.c **** *
 458:.\Generated_Source\PSoC5/ADC_DelSig_theACLK.c **** * Parameters:
 459:.\Generated_Source\PSoC5/ADC_DelSig_theACLK.c **** *  clkPhase: Amount to delay the phase of the clock, in 1.0ns increments.
 460:.\Generated_Source\PSoC5/ADC_DelSig_theACLK.c **** *   clkPhase must be from 1 to 11 inclusive. Other values, including 0,
 461:.\Generated_Source\PSoC5/ADC_DelSig_theACLK.c **** *   disable the clock. clkPhase = 1 produces a 0ns delay and clkPhase = 11 
 462:.\Generated_Source\PSoC5/ADC_DelSig_theACLK.c **** *   produces a 10ns delay.
 463:.\Generated_Source\PSoC5/ADC_DelSig_theACLK.c **** *
 464:.\Generated_Source\PSoC5/ADC_DelSig_theACLK.c **** * Returns:
 465:.\Generated_Source\PSoC5/ADC_DelSig_theACLK.c **** *  void
 466:.\Generated_Source\PSoC5/ADC_DelSig_theACLK.c **** *
 467:.\Generated_Source\PSoC5/ADC_DelSig_theACLK.c **** *******************************************************************************/
 468:.\Generated_Source\PSoC5/ADC_DelSig_theACLK.c **** void ADC_DelSig_theACLK_SetPhaseRegister(uint8 clkPhase) 
 469:.\Generated_Source\PSoC5/ADC_DelSig_theACLK.c **** {
 823              		.loc 1 469 0
 824              		.cfi_startproc
 825              		@ args = 0, pretend = 0, frame = 8
 826              		@ frame_needed = 1, uses_anonymous_args = 0
 827              		@ link register save eliminated.
 828 0000 80B4     		push	{r7}
 829              	.LCFI28:
 830              		.cfi_def_cfa_offset 4
 831 0002 83B0     		sub	sp, sp, #12
 832              	.LCFI29:
 833              		.cfi_def_cfa_offset 16
 834 0004 00AF     		add	r7, sp, #0
 835              		.cfi_offset 7, -4
 836              	.LCFI30:
 837              		.cfi_def_cfa_register 7
 838 0006 0346     		mov	r3, r0
ARM GAS  C:\Users\csap2972\AppData\Local\Temp\ccpAHOnc.s 			page 24


 839 0008 FB71     		strb	r3, [r7, #7]
 470:.\Generated_Source\PSoC5/ADC_DelSig_theACLK.c ****     ADC_DelSig_theACLK_PHASE = clkPhase & ADC_DelSig_theACLK_PHASE_MASK;
 840              		.loc 1 470 0
 841 000a 44F20713 		movw	r3, #:lower16:1073758471
 842 000e C4F20003 		movt	r3, #:upper16:1073758471
 843 0012 FA79     		ldrb	r2, [r7, #7]	@ zero_extendqisi2
 844 0014 02F00F02 		and	r2, r2, #15
 845 0018 1A70     		strb	r2, [r3, #0]
 471:.\Generated_Source\PSoC5/ADC_DelSig_theACLK.c **** }
 846              		.loc 1 471 0
 847 001a 07F10C07 		add	r7, r7, #12
 848 001e BD46     		mov	sp, r7
 849 0020 80BC     		pop	{r7}
 850 0022 7047     		bx	lr
 851              		.cfi_endproc
 852              	.LFE11:
 853              		.size	ADC_DelSig_theACLK_SetPhaseRegister, .-ADC_DelSig_theACLK_SetPhaseRegister
 854              		.section	.text.ADC_DelSig_theACLK_GetPhaseRegister,"ax",%progbits
 855              		.align	2
 856              		.global	ADC_DelSig_theACLK_GetPhaseRegister
 857              		.thumb
 858              		.thumb_func
 859              		.type	ADC_DelSig_theACLK_GetPhaseRegister, %function
 860              	ADC_DelSig_theACLK_GetPhaseRegister:
 861              	.LFB12:
 472:.\Generated_Source\PSoC5/ADC_DelSig_theACLK.c **** 
 473:.\Generated_Source\PSoC5/ADC_DelSig_theACLK.c **** 
 474:.\Generated_Source\PSoC5/ADC_DelSig_theACLK.c **** /*******************************************************************************
 475:.\Generated_Source\PSoC5/ADC_DelSig_theACLK.c **** * Function Name: ADC_DelSig_theACLK_GetPhase
 476:.\Generated_Source\PSoC5/ADC_DelSig_theACLK.c **** ********************************************************************************
 477:.\Generated_Source\PSoC5/ADC_DelSig_theACLK.c **** * Summary:
 478:.\Generated_Source\PSoC5/ADC_DelSig_theACLK.c **** *  Gets the phase delay of the analog clock. This function is only available
 479:.\Generated_Source\PSoC5/ADC_DelSig_theACLK.c **** *  for analog clocks.
 480:.\Generated_Source\PSoC5/ADC_DelSig_theACLK.c **** *
 481:.\Generated_Source\PSoC5/ADC_DelSig_theACLK.c **** * Parameters:
 482:.\Generated_Source\PSoC5/ADC_DelSig_theACLK.c **** *  void
 483:.\Generated_Source\PSoC5/ADC_DelSig_theACLK.c **** *
 484:.\Generated_Source\PSoC5/ADC_DelSig_theACLK.c **** * Returns:
 485:.\Generated_Source\PSoC5/ADC_DelSig_theACLK.c **** *  Phase of the analog clock. See SetPhaseRegister for details.
 486:.\Generated_Source\PSoC5/ADC_DelSig_theACLK.c **** *
 487:.\Generated_Source\PSoC5/ADC_DelSig_theACLK.c **** *******************************************************************************/
 488:.\Generated_Source\PSoC5/ADC_DelSig_theACLK.c **** uint8 ADC_DelSig_theACLK_GetPhaseRegister(void) 
 489:.\Generated_Source\PSoC5/ADC_DelSig_theACLK.c **** {
 862              		.loc 1 489 0
 863              		.cfi_startproc
 864              		@ args = 0, pretend = 0, frame = 0
 865              		@ frame_needed = 1, uses_anonymous_args = 0
 866              		@ link register save eliminated.
 867 0000 80B4     		push	{r7}
 868              	.LCFI31:
 869              		.cfi_def_cfa_offset 4
 870 0002 00AF     		add	r7, sp, #0
 871              		.cfi_offset 7, -4
 872              	.LCFI32:
 873              		.cfi_def_cfa_register 7
 490:.\Generated_Source\PSoC5/ADC_DelSig_theACLK.c ****     return ADC_DelSig_theACLK_PHASE & ADC_DelSig_theACLK_PHASE_MASK;
 874              		.loc 1 490 0
ARM GAS  C:\Users\csap2972\AppData\Local\Temp\ccpAHOnc.s 			page 25


 875 0004 44F20713 		movw	r3, #:lower16:1073758471
 876 0008 C4F20003 		movt	r3, #:upper16:1073758471
 877 000c 1B78     		ldrb	r3, [r3, #0]
 878 000e DBB2     		uxtb	r3, r3
 879 0010 03F00F03 		and	r3, r3, #15
 491:.\Generated_Source\PSoC5/ADC_DelSig_theACLK.c **** }
 880              		.loc 1 491 0
 881 0014 1846     		mov	r0, r3
 882 0016 BD46     		mov	sp, r7
 883 0018 80BC     		pop	{r7}
 884 001a 7047     		bx	lr
 885              		.cfi_endproc
 886              	.LFE12:
 887              		.size	ADC_DelSig_theACLK_GetPhaseRegister, .-ADC_DelSig_theACLK_GetPhaseRegister
 888              		.text
 889              	.Letext0: