ARM GAS  C:\Users\csap2972\AppData\Local\Temp\ccqkrDsk.s 			page 1


   1              		.syntax unified
   2              		.cpu cortex-m3
   3              		.fpu softvfp
   4              		.eabi_attribute 20, 1
   5              		.eabi_attribute 21, 1
   6              		.eabi_attribute 23, 3
   7              		.eabi_attribute 24, 1
   8              		.eabi_attribute 25, 1
   9              		.eabi_attribute 26, 1
  10              		.eabi_attribute 30, 6
  11              		.eabi_attribute 18, 4
  12              		.thumb
  13              		.file	"ADC_DelSig_PM.c"
  20 0000 D0000000 		.text
  20      02007600 
  20      00000201 
  20      FB0E0D00 
  20      01010101 
  21              	.Ltext0:
  22              		.cfi_sections	.debug_frame
  23              		.data
  24              		.align	2
  25              		.type	ADC_DelSig_backup, %object
  26              		.size	ADC_DelSig_backup, 2
  27              	ADC_DelSig_backup:
  28 0000 00       		.byte	0
  29 0001 38       		.byte	56
  30 0002 0000     		.section	.text.ADC_DelSig_SaveConfig,"ax",%progbits
  31              		.align	2
  32              		.global	ADC_DelSig_SaveConfig
  33              		.thumb
  34              		.thumb_func
  35              		.type	ADC_DelSig_SaveConfig, %function
  36              	ADC_DelSig_SaveConfig:
  37              	.LFB0:
  38              		.file 1 ".\\Generated_Source\\PSoC5\\ADC_DelSig_PM.c"
   1:.\Generated_Source\PSoC5/ADC_DelSig_PM.c **** /*******************************************************************************
   2:.\Generated_Source\PSoC5/ADC_DelSig_PM.c **** * File Name: ADC_DelSig_PM.c  
   3:.\Generated_Source\PSoC5/ADC_DelSig_PM.c **** * Version 2.30
   4:.\Generated_Source\PSoC5/ADC_DelSig_PM.c **** *
   5:.\Generated_Source\PSoC5/ADC_DelSig_PM.c **** * Description:
   6:.\Generated_Source\PSoC5/ADC_DelSig_PM.c **** *  This file provides the power manager source code to the API for the 
   7:.\Generated_Source\PSoC5/ADC_DelSig_PM.c **** *  Delta-Sigma ADC Component.
   8:.\Generated_Source\PSoC5/ADC_DelSig_PM.c **** *
   9:.\Generated_Source\PSoC5/ADC_DelSig_PM.c **** * Note:
  10:.\Generated_Source\PSoC5/ADC_DelSig_PM.c **** *
  11:.\Generated_Source\PSoC5/ADC_DelSig_PM.c **** *******************************************************************************
  12:.\Generated_Source\PSoC5/ADC_DelSig_PM.c **** * Copyright 2008-2012, Cypress Semiconductor Corporation.  All rights reserved.
  13:.\Generated_Source\PSoC5/ADC_DelSig_PM.c **** * You may use this file only in accordance with the license, terms, conditions, 
  14:.\Generated_Source\PSoC5/ADC_DelSig_PM.c **** * disclaimers, and limitations in the end user license agreement accompanying 
  15:.\Generated_Source\PSoC5/ADC_DelSig_PM.c **** * the software package with which this file was provided.
ARM GAS  C:\Users\csap2972\AppData\Local\Temp\ccqkrDsk.s 			page 2


  16:.\Generated_Source\PSoC5/ADC_DelSig_PM.c **** ********************************************************************************/
  17:.\Generated_Source\PSoC5/ADC_DelSig_PM.c **** 
  18:.\Generated_Source\PSoC5/ADC_DelSig_PM.c **** #include "ADC_DelSig.h"
  19:.\Generated_Source\PSoC5/ADC_DelSig_PM.c **** 
  20:.\Generated_Source\PSoC5/ADC_DelSig_PM.c **** static ADC_DelSig_BACKUP_STRUCT ADC_DelSig_backup = 
  21:.\Generated_Source\PSoC5/ADC_DelSig_PM.c **** {
  22:.\Generated_Source\PSoC5/ADC_DelSig_PM.c ****     ADC_DelSig_DISABLED,
  23:.\Generated_Source\PSoC5/ADC_DelSig_PM.c ****     ADC_DelSig_CFG1_DEC_CR
  24:.\Generated_Source\PSoC5/ADC_DelSig_PM.c **** };
  25:.\Generated_Source\PSoC5/ADC_DelSig_PM.c **** 
  26:.\Generated_Source\PSoC5/ADC_DelSig_PM.c **** 
  27:.\Generated_Source\PSoC5/ADC_DelSig_PM.c **** /*******************************************************************************  
  28:.\Generated_Source\PSoC5/ADC_DelSig_PM.c **** * Function Name: ADC_DelSig_SaveConfig
  29:.\Generated_Source\PSoC5/ADC_DelSig_PM.c **** ********************************************************************************
  30:.\Generated_Source\PSoC5/ADC_DelSig_PM.c **** *
  31:.\Generated_Source\PSoC5/ADC_DelSig_PM.c **** * Summary:
  32:.\Generated_Source\PSoC5/ADC_DelSig_PM.c **** *  Save the register configuration which are not retention.
  33:.\Generated_Source\PSoC5/ADC_DelSig_PM.c **** * 
  34:.\Generated_Source\PSoC5/ADC_DelSig_PM.c **** * Parameters:
  35:.\Generated_Source\PSoC5/ADC_DelSig_PM.c **** *  void
  36:.\Generated_Source\PSoC5/ADC_DelSig_PM.c **** * 
  37:.\Generated_Source\PSoC5/ADC_DelSig_PM.c **** * Return:
  38:.\Generated_Source\PSoC5/ADC_DelSig_PM.c **** *  void
  39:.\Generated_Source\PSoC5/ADC_DelSig_PM.c **** *
  40:.\Generated_Source\PSoC5/ADC_DelSig_PM.c **** * Global variables:
  41:.\Generated_Source\PSoC5/ADC_DelSig_PM.c **** *  ADC_DelSig_backup:  This global structure variable is used to store 
  42:.\Generated_Source\PSoC5/ADC_DelSig_PM.c **** *  configuration registers which are non retention whenever user wants to go 
  43:.\Generated_Source\PSoC5/ADC_DelSig_PM.c **** *  sleep mode by calling Sleep() API.
  44:.\Generated_Source\PSoC5/ADC_DelSig_PM.c **** *
  45:.\Generated_Source\PSoC5/ADC_DelSig_PM.c **** *******************************************************************************/
  46:.\Generated_Source\PSoC5/ADC_DelSig_PM.c **** void ADC_DelSig_SaveConfig(void) 
  47:.\Generated_Source\PSoC5/ADC_DelSig_PM.c **** {
  39              		.loc 1 47 0
  40              		.cfi_startproc
  41              		@ args = 0, pretend = 0, frame = 0
  42              		@ frame_needed = 1, uses_anonymous_args = 0
  43              		@ link register save eliminated.
  44 0000 80B4     		push	{r7}
  45              	.LCFI0:
  46              		.cfi_def_cfa_offset 4
  47 0002 00AF     		add	r7, sp, #0
  48              		.cfi_offset 7, -4
  49              	.LCFI1:
  50              		.cfi_def_cfa_register 7
  48:.\Generated_Source\PSoC5/ADC_DelSig_PM.c ****     ADC_DelSig_backup.deccr = ADC_DelSig_DEC_CR_REG;
  51              		.loc 1 48 0
  52 0004 44F60063 		movw	r3, #:lower16:1073761792
  53 0008 C4F20003 		movt	r3, #:upper16:1073761792
  54 000c 1B78     		ldrb	r3, [r3, #0]
  55 000e DAB2     		uxtb	r2, r3
  56 0010 40F20003 		movw	r3, #:lower16:ADC_DelSig_backup
  57 0014 C0F20003 		movt	r3, #:upper16:ADC_DelSig_backup
  58 0018 5A70     		strb	r2, [r3, #1]
  49:.\Generated_Source\PSoC5/ADC_DelSig_PM.c **** }
  59              		.loc 1 49 0
  60 001a BD46     		mov	sp, r7
  61 001c 80BC     		pop	{r7}
ARM GAS  C:\Users\csap2972\AppData\Local\Temp\ccqkrDsk.s 			page 3


  62 001e 7047     		bx	lr
  63              		.cfi_endproc
  64              	.LFE0:
  65              		.size	ADC_DelSig_SaveConfig, .-ADC_DelSig_SaveConfig
  66              		.section	.text.ADC_DelSig_RestoreConfig,"ax",%progbits
  67              		.align	2
  68              		.global	ADC_DelSig_RestoreConfig
  69              		.thumb
  70              		.thumb_func
  71              		.type	ADC_DelSig_RestoreConfig, %function
  72              	ADC_DelSig_RestoreConfig:
  73              	.LFB1:
  50:.\Generated_Source\PSoC5/ADC_DelSig_PM.c **** 
  51:.\Generated_Source\PSoC5/ADC_DelSig_PM.c **** 
  52:.\Generated_Source\PSoC5/ADC_DelSig_PM.c **** /*******************************************************************************  
  53:.\Generated_Source\PSoC5/ADC_DelSig_PM.c **** * Function Name: ADC_DelSig_RestoreConfig
  54:.\Generated_Source\PSoC5/ADC_DelSig_PM.c **** ********************************************************************************
  55:.\Generated_Source\PSoC5/ADC_DelSig_PM.c **** *
  56:.\Generated_Source\PSoC5/ADC_DelSig_PM.c **** * Summary:
  57:.\Generated_Source\PSoC5/ADC_DelSig_PM.c **** *  Restore the register configurations which are not retention.
  58:.\Generated_Source\PSoC5/ADC_DelSig_PM.c **** * 
  59:.\Generated_Source\PSoC5/ADC_DelSig_PM.c **** * Parameters:
  60:.\Generated_Source\PSoC5/ADC_DelSig_PM.c **** *  void
  61:.\Generated_Source\PSoC5/ADC_DelSig_PM.c **** * 
  62:.\Generated_Source\PSoC5/ADC_DelSig_PM.c **** * Return:
  63:.\Generated_Source\PSoC5/ADC_DelSig_PM.c **** *  void
  64:.\Generated_Source\PSoC5/ADC_DelSig_PM.c **** *
  65:.\Generated_Source\PSoC5/ADC_DelSig_PM.c **** * Global variables:
  66:.\Generated_Source\PSoC5/ADC_DelSig_PM.c **** *  ADC_DelSig_backup:  This global structure variable is used to restore 
  67:.\Generated_Source\PSoC5/ADC_DelSig_PM.c **** *  configuration registers which are non retention whenever user wants to switch 
  68:.\Generated_Source\PSoC5/ADC_DelSig_PM.c **** *  to active power mode by calling Wakeup() API.
  69:.\Generated_Source\PSoC5/ADC_DelSig_PM.c **** *
  70:.\Generated_Source\PSoC5/ADC_DelSig_PM.c **** *******************************************************************************/
  71:.\Generated_Source\PSoC5/ADC_DelSig_PM.c **** void ADC_DelSig_RestoreConfig(void) 
  72:.\Generated_Source\PSoC5/ADC_DelSig_PM.c **** {
  74              		.loc 1 72 0
  75              		.cfi_startproc
  76              		@ args = 0, pretend = 0, frame = 0
  77              		@ frame_needed = 1, uses_anonymous_args = 0
  78              		@ link register save eliminated.
  79 0000 80B4     		push	{r7}
  80              	.LCFI2:
  81              		.cfi_def_cfa_offset 4
  82 0002 00AF     		add	r7, sp, #0
  83              		.cfi_offset 7, -4
  84              	.LCFI3:
  85              		.cfi_def_cfa_register 7
  73:.\Generated_Source\PSoC5/ADC_DelSig_PM.c ****     ADC_DelSig_DEC_CR_REG = ADC_DelSig_backup.deccr;
  86              		.loc 1 73 0
  87 0004 44F60063 		movw	r3, #:lower16:1073761792
  88 0008 C4F20003 		movt	r3, #:upper16:1073761792
  89 000c 40F20002 		movw	r2, #:lower16:ADC_DelSig_backup
  90 0010 C0F20002 		movt	r2, #:upper16:ADC_DelSig_backup
  91 0014 5278     		ldrb	r2, [r2, #1]	@ zero_extendqisi2
  92 0016 1A70     		strb	r2, [r3, #0]
  74:.\Generated_Source\PSoC5/ADC_DelSig_PM.c **** }
  93              		.loc 1 74 0
ARM GAS  C:\Users\csap2972\AppData\Local\Temp\ccqkrDsk.s 			page 4


  94 0018 BD46     		mov	sp, r7
  95 001a 80BC     		pop	{r7}
  96 001c 7047     		bx	lr
  97              		.cfi_endproc
  98              	.LFE1:
  99              		.size	ADC_DelSig_RestoreConfig, .-ADC_DelSig_RestoreConfig
 100 001e 00BF     		.section	.text.ADC_DelSig_Sleep,"ax",%progbits
 101              		.align	2
 102              		.global	ADC_DelSig_Sleep
 103              		.thumb
 104              		.thumb_func
 105              		.type	ADC_DelSig_Sleep, %function
 106              	ADC_DelSig_Sleep:
 107              	.LFB2:
  75:.\Generated_Source\PSoC5/ADC_DelSig_PM.c **** 
  76:.\Generated_Source\PSoC5/ADC_DelSig_PM.c **** 
  77:.\Generated_Source\PSoC5/ADC_DelSig_PM.c **** /******************************************************************************* 
  78:.\Generated_Source\PSoC5/ADC_DelSig_PM.c **** * Function Name: ADC_DelSig_Sleep
  79:.\Generated_Source\PSoC5/ADC_DelSig_PM.c **** ********************************************************************************
  80:.\Generated_Source\PSoC5/ADC_DelSig_PM.c **** *
  81:.\Generated_Source\PSoC5/ADC_DelSig_PM.c **** * Summary:
  82:.\Generated_Source\PSoC5/ADC_DelSig_PM.c **** *  Stops the operation of the block and saves the user configuration. 
  83:.\Generated_Source\PSoC5/ADC_DelSig_PM.c **** *  
  84:.\Generated_Source\PSoC5/ADC_DelSig_PM.c **** * Parameters:  
  85:.\Generated_Source\PSoC5/ADC_DelSig_PM.c **** *  void
  86:.\Generated_Source\PSoC5/ADC_DelSig_PM.c **** *
  87:.\Generated_Source\PSoC5/ADC_DelSig_PM.c **** * Return: 
  88:.\Generated_Source\PSoC5/ADC_DelSig_PM.c **** *  void
  89:.\Generated_Source\PSoC5/ADC_DelSig_PM.c **** *
  90:.\Generated_Source\PSoC5/ADC_DelSig_PM.c **** * Global variables:
  91:.\Generated_Source\PSoC5/ADC_DelSig_PM.c **** *  ADC_DelSig_backup:  The structure field 'enableState' is modified 
  92:.\Generated_Source\PSoC5/ADC_DelSig_PM.c **** *  depending on the enable state of the block before entering to sleep mode.
  93:.\Generated_Source\PSoC5/ADC_DelSig_PM.c **** *
  94:.\Generated_Source\PSoC5/ADC_DelSig_PM.c **** *******************************************************************************/
  95:.\Generated_Source\PSoC5/ADC_DelSig_PM.c **** void ADC_DelSig_Sleep(void) 
  96:.\Generated_Source\PSoC5/ADC_DelSig_PM.c **** {
 108              		.loc 1 96 0
 109              		.cfi_startproc
 110              		@ args = 0, pretend = 0, frame = 0
 111              		@ frame_needed = 1, uses_anonymous_args = 0
 112 0000 80B5     		push	{r7, lr}
 113              	.LCFI4:
 114              		.cfi_def_cfa_offset 8
 115 0002 00AF     		add	r7, sp, #0
 116              		.cfi_offset 14, -4
 117              		.cfi_offset 7, -8
 118              	.LCFI5:
 119              		.cfi_def_cfa_register 7
  97:.\Generated_Source\PSoC5/ADC_DelSig_PM.c ****     /* Save ADC enable state */
  98:.\Generated_Source\PSoC5/ADC_DelSig_PM.c ****     if((ADC_DelSig_ACT_PWR_DEC_EN == (ADC_DelSig_PWRMGR_DEC_REG & ADC_DelSig_ACT_PWR_DEC_EN)) &&
 120              		.loc 1 98 0
 121 0004 44F2AA33 		movw	r3, #:lower16:1073759146
 122 0008 C4F20003 		movt	r3, #:upper16:1073759146
 123 000c 1B78     		ldrb	r3, [r3, #0]
 124 000e DBB2     		uxtb	r3, r3
 125 0010 03F00103 		and	r3, r3, #1
 126 0014 DBB2     		uxtb	r3, r3
ARM GAS  C:\Users\csap2972\AppData\Local\Temp\ccqkrDsk.s 			page 5


 127 0016 002B     		cmp	r3, #0
 128 0018 11D0     		beq	.L6
  99:.\Generated_Source\PSoC5/ADC_DelSig_PM.c ****        (ADC_DelSig_ACT_PWR_DSM_EN == (ADC_DelSig_PWRMGR_DSM_REG & ADC_DelSig_ACT_PWR_DSM_EN)))
 129              		.loc 1 99 0
 130 001a 44F2AA33 		movw	r3, #:lower16:1073759146
 131 001e C4F20003 		movt	r3, #:upper16:1073759146
 132 0022 1B78     		ldrb	r3, [r3, #0]
 133 0024 DBB2     		uxtb	r3, r3
 134 0026 03F01003 		and	r3, r3, #16
 135              		.loc 1 98 0
 136 002a 002B     		cmp	r3, #0
 137 002c 07D0     		beq	.L6
 100:.\Generated_Source\PSoC5/ADC_DelSig_PM.c ****     {
 101:.\Generated_Source\PSoC5/ADC_DelSig_PM.c ****         /* Component is enabled */
 102:.\Generated_Source\PSoC5/ADC_DelSig_PM.c ****         ADC_DelSig_backup.enableState = ADC_DelSig_ENABLED;
 138              		.loc 1 102 0
 139 002e 40F20003 		movw	r3, #:lower16:ADC_DelSig_backup
 140 0032 C0F20003 		movt	r3, #:upper16:ADC_DelSig_backup
 141 0036 4FF00102 		mov	r2, #1
 142 003a 1A70     		strb	r2, [r3, #0]
 143              		.loc 1 98 0
 144 003c 06E0     		b	.L7
 145              	.L6:
 103:.\Generated_Source\PSoC5/ADC_DelSig_PM.c ****     }
 104:.\Generated_Source\PSoC5/ADC_DelSig_PM.c ****     else
 105:.\Generated_Source\PSoC5/ADC_DelSig_PM.c ****     {
 106:.\Generated_Source\PSoC5/ADC_DelSig_PM.c ****         /* Component is disabled */
 107:.\Generated_Source\PSoC5/ADC_DelSig_PM.c ****         ADC_DelSig_backup.enableState = ADC_DelSig_DISABLED;
 146              		.loc 1 107 0
 147 003e 40F20003 		movw	r3, #:lower16:ADC_DelSig_backup
 148 0042 C0F20003 		movt	r3, #:upper16:ADC_DelSig_backup
 149 0046 4FF00002 		mov	r2, #0
 150 004a 1A70     		strb	r2, [r3, #0]
 151              	.L7:
 108:.\Generated_Source\PSoC5/ADC_DelSig_PM.c ****     }
 109:.\Generated_Source\PSoC5/ADC_DelSig_PM.c **** 
 110:.\Generated_Source\PSoC5/ADC_DelSig_PM.c ****     /* Stop the configuration */
 111:.\Generated_Source\PSoC5/ADC_DelSig_PM.c ****     ADC_DelSig_Stop();
 152              		.loc 1 111 0
 153 004c FFF7FEFF 		bl	ADC_DelSig_Stop
 112:.\Generated_Source\PSoC5/ADC_DelSig_PM.c **** 
 113:.\Generated_Source\PSoC5/ADC_DelSig_PM.c ****     /* Save the user configuration */
 114:.\Generated_Source\PSoC5/ADC_DelSig_PM.c ****     ADC_DelSig_SaveConfig();
 154              		.loc 1 114 0
 155 0050 FFF7FEFF 		bl	ADC_DelSig_SaveConfig
 115:.\Generated_Source\PSoC5/ADC_DelSig_PM.c **** }
 156              		.loc 1 115 0
 157 0054 80BD     		pop	{r7, pc}
 158              		.cfi_endproc
 159              	.LFE2:
 160              		.size	ADC_DelSig_Sleep, .-ADC_DelSig_Sleep
 161 0056 00BF     		.section	.text.ADC_DelSig_Wakeup,"ax",%progbits
 162              		.align	2
 163              		.global	ADC_DelSig_Wakeup
 164              		.thumb
 165              		.thumb_func
 166              		.type	ADC_DelSig_Wakeup, %function
ARM GAS  C:\Users\csap2972\AppData\Local\Temp\ccqkrDsk.s 			page 6


 167              	ADC_DelSig_Wakeup:
 168              	.LFB3:
 116:.\Generated_Source\PSoC5/ADC_DelSig_PM.c **** 
 117:.\Generated_Source\PSoC5/ADC_DelSig_PM.c **** 
 118:.\Generated_Source\PSoC5/ADC_DelSig_PM.c **** /******************************************************************************* 
 119:.\Generated_Source\PSoC5/ADC_DelSig_PM.c **** * Function Name: ADC_DelSig_Wakeup
 120:.\Generated_Source\PSoC5/ADC_DelSig_PM.c **** ********************************************************************************
 121:.\Generated_Source\PSoC5/ADC_DelSig_PM.c **** *
 122:.\Generated_Source\PSoC5/ADC_DelSig_PM.c **** * Summary:
 123:.\Generated_Source\PSoC5/ADC_DelSig_PM.c **** *  Restores the user configuration and enables the power to the block.
 124:.\Generated_Source\PSoC5/ADC_DelSig_PM.c **** *  
 125:.\Generated_Source\PSoC5/ADC_DelSig_PM.c **** * Parameters:  
 126:.\Generated_Source\PSoC5/ADC_DelSig_PM.c **** *  void
 127:.\Generated_Source\PSoC5/ADC_DelSig_PM.c **** *
 128:.\Generated_Source\PSoC5/ADC_DelSig_PM.c **** * Return: 
 129:.\Generated_Source\PSoC5/ADC_DelSig_PM.c **** *  void
 130:.\Generated_Source\PSoC5/ADC_DelSig_PM.c **** *
 131:.\Generated_Source\PSoC5/ADC_DelSig_PM.c **** * Global variables:
 132:.\Generated_Source\PSoC5/ADC_DelSig_PM.c **** *  ADC_DelSig_backup:  The structure field 'enableState' is used to 
 133:.\Generated_Source\PSoC5/ADC_DelSig_PM.c **** *  restore the enable state of block after wakeup from sleep mode.
 134:.\Generated_Source\PSoC5/ADC_DelSig_PM.c **** *
 135:.\Generated_Source\PSoC5/ADC_DelSig_PM.c **** *******************************************************************************/
 136:.\Generated_Source\PSoC5/ADC_DelSig_PM.c **** void ADC_DelSig_Wakeup(void) 
 137:.\Generated_Source\PSoC5/ADC_DelSig_PM.c **** {
 169              		.loc 1 137 0
 170              		.cfi_startproc
 171              		@ args = 0, pretend = 0, frame = 0
 172              		@ frame_needed = 1, uses_anonymous_args = 0
 173 0000 80B5     		push	{r7, lr}
 174              	.LCFI6:
 175              		.cfi_def_cfa_offset 8
 176 0002 00AF     		add	r7, sp, #0
 177              		.cfi_offset 14, -4
 178              		.cfi_offset 7, -8
 179              	.LCFI7:
 180              		.cfi_def_cfa_register 7
 138:.\Generated_Source\PSoC5/ADC_DelSig_PM.c ****     /* Restore the configuration */
 139:.\Generated_Source\PSoC5/ADC_DelSig_PM.c ****     ADC_DelSig_RestoreConfig();
 181              		.loc 1 139 0
 182 0004 FFF7FEFF 		bl	ADC_DelSig_RestoreConfig
 140:.\Generated_Source\PSoC5/ADC_DelSig_PM.c **** 
 141:.\Generated_Source\PSoC5/ADC_DelSig_PM.c ****     /* Enable's the component operation */
 142:.\Generated_Source\PSoC5/ADC_DelSig_PM.c ****     if(ADC_DelSig_backup.enableState == ADC_DelSig_ENABLED)
 183              		.loc 1 142 0
 184 0008 40F20003 		movw	r3, #:lower16:ADC_DelSig_backup
 185 000c C0F20003 		movt	r3, #:upper16:ADC_DelSig_backup
 186 0010 1B78     		ldrb	r3, [r3, #0]	@ zero_extendqisi2
 187 0012 012B     		cmp	r3, #1
 188 0014 0DD1     		bne	.L11
 143:.\Generated_Source\PSoC5/ADC_DelSig_PM.c ****     {
 144:.\Generated_Source\PSoC5/ADC_DelSig_PM.c ****         ADC_DelSig_Enable();
 189              		.loc 1 144 0
 190 0016 FFF7FEFF 		bl	ADC_DelSig_Enable
 145:.\Generated_Source\PSoC5/ADC_DelSig_PM.c **** 
 146:.\Generated_Source\PSoC5/ADC_DelSig_PM.c ****         /* Start the conversion only if conversion is not triggered by the hardware */
 147:.\Generated_Source\PSoC5/ADC_DelSig_PM.c ****         if(!(ADC_DelSig_DEC_CR_REG & ADC_DelSig_DEC_XSTART_EN))
 191              		.loc 1 147 0
ARM GAS  C:\Users\csap2972\AppData\Local\Temp\ccqkrDsk.s 			page 7


 192 001a 44F60063 		movw	r3, #:lower16:1073761792
 193 001e C4F20003 		movt	r3, #:upper16:1073761792
 194 0022 1B78     		ldrb	r3, [r3, #0]
 195 0024 DBB2     		uxtb	r3, r3
 196 0026 03F00203 		and	r3, r3, #2
 197 002a 002B     		cmp	r3, #0
 198 002c 01D1     		bne	.L11
 148:.\Generated_Source\PSoC5/ADC_DelSig_PM.c ****         {
 149:.\Generated_Source\PSoC5/ADC_DelSig_PM.c ****             ADC_DelSig_StartConvert();
 199              		.loc 1 149 0
 200 002e FFF7FEFF 		bl	ADC_DelSig_StartConvert
 201              	.L11:
 150:.\Generated_Source\PSoC5/ADC_DelSig_PM.c ****         }
 151:.\Generated_Source\PSoC5/ADC_DelSig_PM.c **** 
 152:.\Generated_Source\PSoC5/ADC_DelSig_PM.c ****     } /* Do nothing if component was disable before */
 153:.\Generated_Source\PSoC5/ADC_DelSig_PM.c **** }
 202              		.loc 1 153 0
 203 0032 80BD     		pop	{r7, pc}
 204              		.cfi_endproc
 205              	.LFE3:
 206              		.size	ADC_DelSig_Wakeup, .-ADC_DelSig_Wakeup
 207              		.text
 208              	.Letext0: