ARM GAS  C:\Users\csap2972\AppData\Local\Temp\ccYNK1mP.s 			page 1


   1              		.syntax unified
   2              		.cpu cortex-m3
   3              		.fpu softvfp
   4              		.eabi_attribute 20, 1
   5              		.eabi_attribute 21, 1
   6              		.eabi_attribute 23, 3
   7              		.eabi_attribute 24, 1
   8              		.eabi_attribute 25, 1
   9              		.eabi_attribute 26, 1
  10              		.eabi_attribute 30, 6
  11              		.eabi_attribute 18, 4
  12              		.thumb
  13              		.file	"cyfitter_cfg.c"
  14              		.section	.debug_abbrev,"",%progbits
  15              	.Ldebug_abbrev0:
  16              		.section	.debug_info,"",%progbits
  17              	.Ldebug_info0:
  18              		.section	.debug_line,"",%progbits
  19              	.Ldebug_line0:
  20 0000 6E010000 		.text
  20      02007000 
  20      00000201 
  20      FB0E0D00 
  20      01010101 
  21              	.Ltext0:
  22              		.cfi_sections	.debug_frame
  23              		.section	.text.CyClockStartupError,"ax",%progbits
  24              		.align	2
  25              		.thumb
  26              		.thumb_func
  27              		.type	CyClockStartupError, %function
  28              	CyClockStartupError:
  29              	.LFB0:
  30              		.file 1 ".\\Generated_Source\\PSoC5\\cyfitter_cfg.c"
   1:.\Generated_Source\PSoC5/cyfitter_cfg.c **** /*******************************************************************************
   2:.\Generated_Source\PSoC5/cyfitter_cfg.c **** * FILENAME: cyfitter_cfg.c
   3:.\Generated_Source\PSoC5/cyfitter_cfg.c **** * PSoC Creator 2.1 SP1
   4:.\Generated_Source\PSoC5/cyfitter_cfg.c **** *
   5:.\Generated_Source\PSoC5/cyfitter_cfg.c **** * Description:
   6:.\Generated_Source\PSoC5/cyfitter_cfg.c **** * This file is automatically generated by PSoC Creator with device 
   7:.\Generated_Source\PSoC5/cyfitter_cfg.c **** * initialization code.  Except for the user defined sections in
   8:.\Generated_Source\PSoC5/cyfitter_cfg.c **** * CyClockStartupError(), this file should not be modified.
   9:.\Generated_Source\PSoC5/cyfitter_cfg.c **** *
  10:.\Generated_Source\PSoC5/cyfitter_cfg.c **** ********************************************************************************
  11:.\Generated_Source\PSoC5/cyfitter_cfg.c **** * Copyright 2012, Cypress Semiconductor Corporation.  All rights reserved.
  12:.\Generated_Source\PSoC5/cyfitter_cfg.c **** * You may use this file only in accordance with the license, terms, conditions, 
  13:.\Generated_Source\PSoC5/cyfitter_cfg.c **** * disclaimers, and limitations in the end user license agreement accompanying 
  14:.\Generated_Source\PSoC5/cyfitter_cfg.c **** * the software package with which this file was provided.
  15:.\Generated_Source\PSoC5/cyfitter_cfg.c **** ********************************************************************************/
  16:.\Generated_Source\PSoC5/cyfitter_cfg.c **** 
  17:.\Generated_Source\PSoC5/cyfitter_cfg.c **** #include <string.h>
  18:.\Generated_Source\PSoC5/cyfitter_cfg.c **** #include <cytypes.h>
  19:.\Generated_Source\PSoC5/cyfitter_cfg.c **** #include <cydevice_trm.h>
  20:.\Generated_Source\PSoC5/cyfitter_cfg.c **** #include <cyfitter.h>
  21:.\Generated_Source\PSoC5/cyfitter_cfg.c **** #include <CyLib.h>
  22:.\Generated_Source\PSoC5/cyfitter_cfg.c **** #include <CyDmac.h>
  23:.\Generated_Source\PSoC5/cyfitter_cfg.c **** #include <cyfitter_cfg.h>
ARM GAS  C:\Users\csap2972\AppData\Local\Temp\ccYNK1mP.s 			page 2


  24:.\Generated_Source\PSoC5/cyfitter_cfg.c **** 
  25:.\Generated_Source\PSoC5/cyfitter_cfg.c **** /* Clock startup error codes                                                   */
  26:.\Generated_Source\PSoC5/cyfitter_cfg.c **** #define CYCLOCKSTART_NO_ERROR    0
  27:.\Generated_Source\PSoC5/cyfitter_cfg.c **** #define CYCLOCKSTART_XTAL_ERROR  1
  28:.\Generated_Source\PSoC5/cyfitter_cfg.c **** #define CYCLOCKSTART_32KHZ_ERROR 2
  29:.\Generated_Source\PSoC5/cyfitter_cfg.c **** #define CYCLOCKSTART_PLL_ERROR   3
  30:.\Generated_Source\PSoC5/cyfitter_cfg.c **** 
  31:.\Generated_Source\PSoC5/cyfitter_cfg.c **** /*******************************************************************************
  32:.\Generated_Source\PSoC5/cyfitter_cfg.c **** * Function Name: CyClockStartupError
  33:.\Generated_Source\PSoC5/cyfitter_cfg.c **** ********************************************************************************
  34:.\Generated_Source\PSoC5/cyfitter_cfg.c **** * Summary:
  35:.\Generated_Source\PSoC5/cyfitter_cfg.c **** *  If an error is encountered during clock configuration (crystal startup error,
  36:.\Generated_Source\PSoC5/cyfitter_cfg.c **** *  PLL lock error, etc) the system will end up here.  Unless reimplemented by 
  37:.\Generated_Source\PSoC5/cyfitter_cfg.c **** *  the customer, an infinite loop will be encountered.
  38:.\Generated_Source\PSoC5/cyfitter_cfg.c **** *
  39:.\Generated_Source\PSoC5/cyfitter_cfg.c **** * Parameters:  
  40:.\Generated_Source\PSoC5/cyfitter_cfg.c **** *   void
  41:.\Generated_Source\PSoC5/cyfitter_cfg.c **** *
  42:.\Generated_Source\PSoC5/cyfitter_cfg.c **** * Return:
  43:.\Generated_Source\PSoC5/cyfitter_cfg.c **** *   void
  44:.\Generated_Source\PSoC5/cyfitter_cfg.c **** *
  45:.\Generated_Source\PSoC5/cyfitter_cfg.c **** *******************************************************************************/
  46:.\Generated_Source\PSoC5/cyfitter_cfg.c **** #if defined(__GNUC__) || defined(__ARMCC_VERSION)
  47:.\Generated_Source\PSoC5/cyfitter_cfg.c **** __attribute__ ((unused))
  48:.\Generated_Source\PSoC5/cyfitter_cfg.c **** #endif
  49:.\Generated_Source\PSoC5/cyfitter_cfg.c **** static void CyClockStartupError(uint8 errorCode)
  50:.\Generated_Source\PSoC5/cyfitter_cfg.c **** {
  31              		.loc 1 50 0
  32              		.cfi_startproc
  33              		@ args = 0, pretend = 0, frame = 8
  34              		@ frame_needed = 1, uses_anonymous_args = 0
  35              		@ link register save eliminated.
  36 0000 80B4     		push	{r7}
  37              	.LCFI0:
  38              		.cfi_def_cfa_offset 4
  39 0002 83B0     		sub	sp, sp, #12
  40              	.LCFI1:
  41              		.cfi_def_cfa_offset 16
  42 0004 00AF     		add	r7, sp, #0
  43              		.cfi_offset 7, -4
  44              	.LCFI2:
  45              		.cfi_def_cfa_register 7
  46 0006 0346     		mov	r3, r0
  47 0008 FB71     		strb	r3, [r7, #7]
  48              	.L2:
  51:.\Generated_Source\PSoC5/cyfitter_cfg.c ****     /* To remove the compiler warning if errorCode not used.                */
  52:.\Generated_Source\PSoC5/cyfitter_cfg.c ****     errorCode = errorCode;
  53:.\Generated_Source\PSoC5/cyfitter_cfg.c **** 
  54:.\Generated_Source\PSoC5/cyfitter_cfg.c ****     /* `#START CyClockStartupError` */
  55:.\Generated_Source\PSoC5/cyfitter_cfg.c **** 
  56:.\Generated_Source\PSoC5/cyfitter_cfg.c ****     /* If we have a clock startup error (bad MHz crystal, PLL lock, etc)    */
  57:.\Generated_Source\PSoC5/cyfitter_cfg.c ****     /* we will end up here to allow the customer to implement something to  */
  58:.\Generated_Source\PSoC5/cyfitter_cfg.c ****     /* deal with the clock condition.                                       */
  59:.\Generated_Source\PSoC5/cyfitter_cfg.c **** 
  60:.\Generated_Source\PSoC5/cyfitter_cfg.c ****     /* `#END` */
  61:.\Generated_Source\PSoC5/cyfitter_cfg.c **** 
  62:.\Generated_Source\PSoC5/cyfitter_cfg.c ****     /* If nothing else, stop here since the clocks have not started         */
ARM GAS  C:\Users\csap2972\AppData\Local\Temp\ccYNK1mP.s 			page 3


  63:.\Generated_Source\PSoC5/cyfitter_cfg.c ****     /* correctly.                                                           */
  64:.\Generated_Source\PSoC5/cyfitter_cfg.c ****     while(1) {}
  49              		.loc 1 64 0
  50 000a FEE7     		b	.L2
  51              		.cfi_endproc
  52              	.LFE0:
  53              		.size	CyClockStartupError, .-CyClockStartupError
  54              		.section	.dma_init,"a",%progbits
  55              		.align	2
  56              		.type	CH1_ADDR_DATA0, %object
  57              		.size	CH1_ADDR_DATA0, 8
  58              	CH1_ADDR_DATA0:
  59 0000 01       		.byte	1
  60 0001 00       		.byte	0
  61 0002 00       		.byte	0
  62 0003 00       		.byte	0
  63 0004 00       		.byte	0
  64 0005 20       		.byte	32
  65 0006 00       		.byte	0
  66 0007 40       		.byte	64
  67              		.align	2
  68              		.type	CH2_ADDR_DATA0, %object
  69              		.size	CH2_ADDR_DATA0, 8
  70              	CH2_ADDR_DATA0:
  71 0008 01       		.byte	1
  72 0009 00       		.byte	0
  73 000a 00       		.byte	0
  74 000b 00       		.byte	0
  75 000c 00       		.byte	0
  76 000d 20       		.byte	32
  77 000e 01       		.byte	1
  78 000f 40       		.byte	64
  79              		.align	2
  80              		.type	CH5_ADDR_DATA0, %object
  81              		.size	CH5_ADDR_DATA0, 8
  82              	CH5_ADDR_DATA0:
  83 0010 01       		.byte	1
  84 0011 00       		.byte	0
  85 0012 00       		.byte	0
  86 0013 00       		.byte	0
  87 0014 00       		.byte	0
  88 0015 48       		.byte	72
  89 0016 00       		.byte	0
  90 0017 40       		.byte	64
  91              		.align	2
  92              		.type	CH6_ADDR_DATA0, %object
  93              		.size	CH6_ADDR_DATA0, 8
  94              	CH6_ADDR_DATA0:
  95 0018 01       		.byte	1
  96 0019 00       		.byte	0
  97 001a 00       		.byte	0
  98 001b 00       		.byte	0
  99 001c 00       		.byte	0
 100 001d 48       		.byte	72
 101 001e 01       		.byte	1
 102 001f 40       		.byte	64
 103              		.align	2
ARM GAS  C:\Users\csap2972\AppData\Local\Temp\ccYNK1mP.s 			page 4


 104              		.type	DMA_TD_START_CMD, %object
 105              		.size	DMA_TD_START_CMD, 5
 106              	DMA_TD_START_CMD:
 107 0020 01       		.byte	1
 108 0021 00       		.byte	0
 109 0022 00       		.byte	0
 110 0023 00       		.byte	0
 111 0024 01       		.byte	1
 112              		.bss
 113              		.align	3
 114              	DMA_ZERO_VAL:
 115 0000 00000000 		.space	4
 116 0004 00000000 		.section	.dma_init
 117 0025 000000   		.align	2
 118              		.type	CFG_TD_LIST0, %object
 119              		.size	CFG_TD_LIST0, 520
 120              	CFG_TD_LIST0:
 121 0028 0800     		.short	8
 122 002a 02       		.byte	2
 123 002b 23       		.byte	35
 124 002c 0000     		.short	0
 125 002e 0876     		.short	30216
 126 0030 0800     		.short	8
 127 0032 03       		.byte	3
 128 0033 23       		.byte	35
 129 0034 0000     		.short	0
 130 0036 1076     		.short	30224
 131 0038 0800     		.short	8
 132 003a 04       		.byte	4
 133 003b 23       		.byte	35
 134 003c 0000     		.short	0
 135 003e 2876     		.short	30248
 136 0040 0800     		.short	8
 137 0042 05       		.byte	5
 138 0043 23       		.byte	35
 139 0044 0000     		.short	0
 140 0046 3076     		.short	30256
 141 0048 0500     		.short	5
 142 004a 06       		.byte	6
 143 004b 23       		.byte	35
 144 004c 0000     		.short	0
 145 004e 2070     		.short	28704
 146 0050 0500     		.short	5
 147 0052 07       		.byte	7
 148 0053 23       		.byte	35
 149 0054 0000     		.short	0
 150 0056 3070     		.short	28720
 151 0058 0500     		.short	5
 152 005a 08       		.byte	8
 153 005b 23       		.byte	35
 154 005c 0000     		.short	0
 155 005e 6070     		.short	28768
 156 0060 0500     		.short	5
 157 0062 FE       		.byte	-2
 158 0063 23       		.byte	35
 159 0064 0000     		.short	0
 160 0066 7070     		.short	28784
ARM GAS  C:\Users\csap2972\AppData\Local\Temp\ccYNK1mP.s 			page 5


 161 0068 2000     		.short	32
 162 006a 0A       		.byte	10
 163 006b 22       		.byte	34
 164 006c 0000     		.short	0
 165 006e 0051     		.short	20736
 166 0070 1000     		.short	16
 167 0072 0B       		.byte	11
 168 0073 22       		.byte	34
 169 0074 0000     		.short	0
 170 0076 3051     		.short	20784
 171 0078 2000     		.short	32
 172 007a 0C       		.byte	12
 173 007b 22       		.byte	34
 174 007c 0000     		.short	0
 175 007e 5051     		.short	20816
 176 0080 1000     		.short	16
 177 0082 0D       		.byte	13
 178 0083 22       		.byte	34
 179 0084 0000     		.short	0
 180 0086 C051     		.short	20928
 181 0088 1000     		.short	16
 182 008a FE       		.byte	-2
 183 008b 22       		.byte	34
 184 008c 0000     		.short	0
 185 008e F051     		.short	20976
 186 0090 8000     		.short	128
 187 0092 0F       		.byte	15
 188 0093 22       		.byte	34
 189 0094 0000     		.short	0
 190 0096 0000     		.short	0
 191 0098 8001     		.short	384
 192 009a 10       		.byte	16
 193 009b 22       		.byte	34
 194 009c 0000     		.short	0
 195 009e 0002     		.short	512
 196 00a0 8001     		.short	384
 197 00a2 11       		.byte	17
 198 00a3 22       		.byte	34
 199 00a4 0000     		.short	0
 200 00a6 0004     		.short	1024
 201 00a8 8001     		.short	384
 202 00aa 12       		.byte	18
 203 00ab 22       		.byte	34
 204 00ac 0000     		.short	0
 205 00ae 0006     		.short	1536
 206 00b0 8001     		.short	384
 207 00b2 13       		.byte	19
 208 00b3 22       		.byte	34
 209 00b4 0000     		.short	0
 210 00b6 0008     		.short	2048
 211 00b8 8001     		.short	384
 212 00ba 14       		.byte	20
 213 00bb 22       		.byte	34
 214 00bc 0000     		.short	0
 215 00be 000A     		.short	2560
 216 00c0 8001     		.short	384
 217 00c2 15       		.byte	21
ARM GAS  C:\Users\csap2972\AppData\Local\Temp\ccYNK1mP.s 			page 6


 218 00c3 22       		.byte	34
 219 00c4 0000     		.short	0
 220 00c6 000C     		.short	3072
 221 00c8 0002     		.short	512
 222 00ca 16       		.byte	22
 223 00cb 22       		.byte	34
 224 00cc 0000     		.short	0
 225 00ce 000E     		.short	3584
 226 00d0 8001     		.short	384
 227 00d2 17       		.byte	23
 228 00d3 22       		.byte	34
 229 00d4 0000     		.short	0
 230 00d6 0014     		.short	5120
 231 00d8 8001     		.short	384
 232 00da 18       		.byte	24
 233 00db 22       		.byte	34
 234 00dc 0000     		.short	0
 235 00de 0016     		.short	5632
 236 00e0 8001     		.short	384
 237 00e2 19       		.byte	25
 238 00e3 22       		.byte	34
 239 00e4 0000     		.short	0
 240 00e6 0018     		.short	6144
 241 00e8 8001     		.short	384
 242 00ea 1A       		.byte	26
 243 00eb 22       		.byte	34
 244 00ec 0000     		.short	0
 245 00ee 001A     		.short	6656
 246 00f0 8000     		.short	128
 247 00f2 1B       		.byte	27
 248 00f3 22       		.byte	34
 249 00f4 0000     		.short	0
 250 00f6 0041     		.short	16640
 251 00f8 0002     		.short	512
 252 00fa 1C       		.byte	28
 253 00fb 22       		.byte	34
 254 00fc 0000     		.short	0
 255 00fe 0042     		.short	16896
 256 0100 8000     		.short	128
 257 0102 1D       		.byte	29
 258 0103 22       		.byte	34
 259 0104 0000     		.short	0
 260 0106 0049     		.short	18688
 261 0108 8000     		.short	128
 262 010a 1E       		.byte	30
 263 010b 22       		.byte	34
 264 010c 0000     		.short	0
 265 010e 004C     		.short	19456
 266 0110 8000     		.short	128
 267 0112 1F       		.byte	31
 268 0113 22       		.byte	34
 269 0114 0000     		.short	0
 270 0116 004D     		.short	19712
 271 0118 1000     		.short	16
 272 011a FE       		.byte	-2
 273 011b 22       		.byte	34
 274 011c 0000     		.short	0
ARM GAS  C:\Users\csap2972\AppData\Local\Temp\ccYNK1mP.s 			page 7


 275 011e 1050     		.short	20496
 276 0120 0800     		.short	8
 277 0122 21       		.byte	33
 278 0123 23       		.byte	35
 279 0124 0000     		.short	0
 280 0126 C85A     		.short	23240
 281 0128 0800     		.short	8
 282 012a 22       		.byte	34
 283 012b 23       		.byte	35
 284 012c 0000     		.short	0
 285 012e D05A     		.short	23248
 286 0130 0800     		.short	8
 287 0132 FE       		.byte	-2
 288 0133 23       		.byte	35
 289 0134 0000     		.short	0
 290 0136 005B     		.short	23296
 291 0138 0800     		.short	8
 292 013a 24       		.byte	36
 293 013b 23       		.byte	35
 294 013c 0000     		.short	0
 295 013e 0051     		.short	20736
 296 0140 8000     		.short	128
 297 0142 25       		.byte	37
 298 0143 23       		.byte	35
 299 0144 0000     		.short	0
 300 0146 8000     		.short	128
 301 0148 8000     		.short	128
 302 014a 26       		.byte	38
 303 014b 23       		.byte	35
 304 014c 0000     		.short	0
 305 014e 804D     		.short	19840
 306 0150 8000     		.short	128
 307 0152 27       		.byte	39
 308 0153 23       		.byte	35
 309 0154 0000     		.short	0
 310 0156 804C     		.short	19584
 311 0158 8000     		.short	128
 312 015a 28       		.byte	40
 313 015b 23       		.byte	35
 314 015c 0000     		.short	0
 315 015e 0047     		.short	18176
 316 0160 8000     		.short	128
 317 0162 29       		.byte	41
 318 0163 23       		.byte	35
 319 0164 0000     		.short	0
 320 0166 8047     		.short	18304
 321 0168 8000     		.short	128
 322 016a 2A       		.byte	42
 323 016b 23       		.byte	35
 324 016c 0000     		.short	0
 325 016e 0046     		.short	17920
 326 0170 8000     		.short	128
 327 0172 2B       		.byte	43
 328 0173 23       		.byte	35
 329 0174 0000     		.short	0
 330 0176 8046     		.short	18048
 331 0178 8000     		.short	128
ARM GAS  C:\Users\csap2972\AppData\Local\Temp\ccYNK1mP.s 			page 8


 332 017a 2C       		.byte	44
 333 017b 23       		.byte	35
 334 017c 0000     		.short	0
 335 017e 0045     		.short	17664
 336 0180 8000     		.short	128
 337 0182 2D       		.byte	45
 338 0183 23       		.byte	35
 339 0184 0000     		.short	0
 340 0186 8045     		.short	17792
 341 0188 8000     		.short	128
 342 018a 2E       		.byte	46
 343 018b 23       		.byte	35
 344 018c 0000     		.short	0
 345 018e 0044     		.short	17408
 346 0190 8000     		.short	128
 347 0192 2F       		.byte	47
 348 0193 23       		.byte	35
 349 0194 0000     		.short	0
 350 0196 8044     		.short	17536
 351 0198 8000     		.short	128
 352 019a 30       		.byte	48
 353 019b 23       		.byte	35
 354 019c 0000     		.short	0
 355 019e 801B     		.short	7040
 356 01a0 8000     		.short	128
 357 01a2 31       		.byte	49
 358 01a3 23       		.byte	35
 359 01a4 0000     		.short	0
 360 01a6 8015     		.short	5504
 361 01a8 8000     		.short	128
 362 01aa 32       		.byte	50
 363 01ab 23       		.byte	35
 364 01ac 0000     		.short	0
 365 01ae 8019     		.short	6528
 366 01b0 8000     		.short	128
 367 01b2 33       		.byte	51
 368 01b3 23       		.byte	35
 369 01b4 0000     		.short	0
 370 01b6 8017     		.short	6016
 371 01b8 8000     		.short	128
 372 01ba 34       		.byte	52
 373 01bb 23       		.byte	35
 374 01bc 0000     		.short	0
 375 01be 8009     		.short	2432
 376 01c0 8000     		.short	128
 377 01c2 35       		.byte	53
 378 01c3 23       		.byte	35
 379 01c4 0000     		.short	0
 380 01c6 8007     		.short	1920
 381 01c8 8000     		.short	128
 382 01ca 36       		.byte	54
 383 01cb 23       		.byte	35
 384 01cc 0000     		.short	0
 385 01ce 800B     		.short	2944
 386 01d0 8000     		.short	128
 387 01d2 37       		.byte	55
 388 01d3 23       		.byte	35
ARM GAS  C:\Users\csap2972\AppData\Local\Temp\ccYNK1mP.s 			page 9


 389 01d4 0000     		.short	0
 390 01d6 8005     		.short	1408
 391 01d8 8000     		.short	128
 392 01da 38       		.byte	56
 393 01db 23       		.byte	35
 394 01dc 0000     		.short	0
 395 01de 800D     		.short	3456
 396 01e0 8000     		.short	128
 397 01e2 39       		.byte	57
 398 01e3 23       		.byte	35
 399 01e4 0000     		.short	0
 400 01e6 8003     		.short	896
 401 01e8 8000     		.short	128
 402 01ea 3A       		.byte	58
 403 01eb 23       		.byte	35
 404 01ec 0000     		.short	0
 405 01ee 0001     		.short	256
 406 01f0 8000     		.short	128
 407 01f2 3B       		.byte	59
 408 01f3 23       		.byte	35
 409 01f4 0000     		.short	0
 410 01f6 8001     		.short	384
 411 01f8 8000     		.short	128
 412 01fa 3C       		.byte	60
 413 01fb 23       		.byte	35
 414 01fc 0000     		.short	0
 415 01fe 8049     		.short	18816
 416 0200 8000     		.short	128
 417 0202 3D       		.byte	61
 418 0203 23       		.byte	35
 419 0204 0000     		.short	0
 420 0206 0048     		.short	18432
 421 0208 8000     		.short	128
 422 020a 3E       		.byte	62
 423 020b 23       		.byte	35
 424 020c 0000     		.short	0
 425 020e 8048     		.short	18560
 426 0210 8000     		.short	128
 427 0212 3F       		.byte	63
 428 0213 23       		.byte	35
 429 0214 0000     		.short	0
 430 0216 8041     		.short	16768
 431 0218 8000     		.short	128
 432 021a 40       		.byte	64
 433 021b 23       		.byte	35
 434 021c 0000     		.short	0
 435 021e 0040     		.short	16384
 436 0220 8000     		.short	128
 437 0222 41       		.byte	65
 438 0223 23       		.byte	35
 439 0224 0000     		.short	0
 440 0226 8040     		.short	16512
 441 0228 1000     		.short	16
 442 022a FE       		.byte	-2
 443 022b 23       		.byte	35
 444 022c 0000     		.short	0
 445 022e 0050     		.short	20480
ARM GAS  C:\Users\csap2972\AppData\Local\Temp\ccYNK1mP.s 			page 10


 446              		.section	.rodata
 447              		.align	2
 448              		.type	CFG_TD_ADDR0, %object
 449              		.size	CFG_TD_ADDR0, 260
 450              	CFG_TD_ADDR0:
 451 0000 00000000 		.word	CH1_ADDR_DATA0
 452 0004 08000000 		.word	CH2_ADDR_DATA0
 453 0008 10000000 		.word	CH5_ADDR_DATA0
 454 000c 18000000 		.word	CH6_ADDR_DATA0
 455 0010 20000000 		.word	DMA_TD_START_CMD
 456 0014 20000000 		.word	DMA_TD_START_CMD
 457 0018 20000000 		.word	DMA_TD_START_CMD
 458 001c 20000000 		.word	DMA_TD_START_CMD
 459 0020 00000000 		.word	DMA_ZERO_VAL
 460 0024 00000000 		.word	DMA_ZERO_VAL
 461 0028 00000000 		.word	DMA_ZERO_VAL
 462 002c 00000000 		.word	DMA_ZERO_VAL
 463 0030 00000000 		.word	DMA_ZERO_VAL
 464 0034 00000000 		.word	DMA_ZERO_VAL
 465 0038 00000000 		.word	DMA_ZERO_VAL
 466 003c 00000000 		.word	DMA_ZERO_VAL
 467 0040 00000000 		.word	DMA_ZERO_VAL
 468 0044 00000000 		.word	DMA_ZERO_VAL
 469 0048 00000000 		.word	DMA_ZERO_VAL
 470 004c 00000000 		.word	DMA_ZERO_VAL
 471 0050 00000000 		.word	DMA_ZERO_VAL
 472 0054 00000000 		.word	DMA_ZERO_VAL
 473 0058 00000000 		.word	DMA_ZERO_VAL
 474 005c 00000000 		.word	DMA_ZERO_VAL
 475 0060 00000000 		.word	DMA_ZERO_VAL
 476 0064 00000000 		.word	DMA_ZERO_VAL
 477 0068 00000000 		.word	DMA_ZERO_VAL
 478 006c 00000000 		.word	DMA_ZERO_VAL
 479 0070 00000000 		.word	DMA_ZERO_VAL
 480 0074 00000000 		.word	DMA_ZERO_VAL
 481 0078 00000000 		.word	DMA_ZERO_VAL
 482 007c 08000048 		.word	1207959560
 483 0080 10000048 		.word	1207959568
 484 0084 18000048 		.word	1207959576
 485 0088 00000048 		.word	1207959552
 486 008c 20000048 		.word	1207959584
 487 0090 A0000048 		.word	1207959712
 488 0094 20010048 		.word	1207959840
 489 0098 A0010048 		.word	1207959968
 490 009c 20020048 		.word	1207960096
 491 00a0 A0020048 		.word	1207960224
 492 00a4 20030048 		.word	1207960352
 493 00a8 A0030048 		.word	1207960480
 494 00ac 20040048 		.word	1207960608
 495 00b0 A0040048 		.word	1207960736
 496 00b4 20050048 		.word	1207960864
 497 00b8 A0050048 		.word	1207960992
 498 00bc 20060048 		.word	1207961120
 499 00c0 A0060048 		.word	1207961248
 500 00c4 20070048 		.word	1207961376
 501 00c8 A0070048 		.word	1207961504
 502 00cc 20080048 		.word	1207961632
ARM GAS  C:\Users\csap2972\AppData\Local\Temp\ccYNK1mP.s 			page 11


 503 00d0 A0080048 		.word	1207961760
 504 00d4 20090048 		.word	1207961888
 505 00d8 A0090048 		.word	1207962016
 506 00dc 200A0048 		.word	1207962144
 507 00e0 A00A0048 		.word	1207962272
 508 00e4 200B0048 		.word	1207962400
 509 00e8 A00B0048 		.word	1207962528
 510 00ec 200C0048 		.word	1207962656
 511 00f0 A00C0048 		.word	1207962784
 512 00f4 200D0048 		.word	1207962912
 513 00f8 A00D0048 		.word	1207963040
 514 00fc 200E0048 		.word	1207963168
 515 0100 A00E0048 		.word	1207963296
 516              		.section	.text.cfg_dma_init,"ax",%progbits
 517              		.align	2
 518              		.thumb
 519              		.thumb_func
 520              		.type	cfg_dma_init, %function
 521              	cfg_dma_init:
 522              	.LFB1:
  65:.\Generated_Source\PSoC5/cyfitter_cfg.c **** }
  66:.\Generated_Source\PSoC5/cyfitter_cfg.c **** 
  67:.\Generated_Source\PSoC5/cyfitter_cfg.c **** 
  68:.\Generated_Source\PSoC5/cyfitter_cfg.c **** #undef CYCODE
  69:.\Generated_Source\PSoC5/cyfitter_cfg.c **** #undef CYDATA
  70:.\Generated_Source\PSoC5/cyfitter_cfg.c **** #undef CYXDATA
  71:.\Generated_Source\PSoC5/cyfitter_cfg.c **** #undef CYFAR
  72:.\Generated_Source\PSoC5/cyfitter_cfg.c **** #if defined(__GNUC__) || defined(__ARMCC_VERSION)
  73:.\Generated_Source\PSoC5/cyfitter_cfg.c **** 	#define CYCODE
  74:.\Generated_Source\PSoC5/cyfitter_cfg.c **** 	#define CYDATA
  75:.\Generated_Source\PSoC5/cyfitter_cfg.c **** 	#define CYXDATA
  76:.\Generated_Source\PSoC5/cyfitter_cfg.c **** 	#define CYFAR
  77:.\Generated_Source\PSoC5/cyfitter_cfg.c **** 
  78:.\Generated_Source\PSoC5/cyfitter_cfg.c **** 	#define CYPACKED __attribute__ ((packed))
  79:.\Generated_Source\PSoC5/cyfitter_cfg.c **** 	#define CYALIGNED __attribute__ ((aligned))
  80:.\Generated_Source\PSoC5/cyfitter_cfg.c **** 	
  81:.\Generated_Source\PSoC5/cyfitter_cfg.c ****     #if CYDEV_CONFIGURATION_DMA
  82:.\Generated_Source\PSoC5/cyfitter_cfg.c ****         #define DMAINITSEC __attribute__ ((section (".dma_init")))
  83:.\Generated_Source\PSoC5/cyfitter_cfg.c ****     #else
  84:.\Generated_Source\PSoC5/cyfitter_cfg.c ****         #define DMAINITSEC
  85:.\Generated_Source\PSoC5/cyfitter_cfg.c ****     #endif
  86:.\Generated_Source\PSoC5/cyfitter_cfg.c **** 
  87:.\Generated_Source\PSoC5/cyfitter_cfg.c **** 	#if defined(__ARMCC_VERSION)
  88:.\Generated_Source\PSoC5/cyfitter_cfg.c **** 		#define CY_CFG_MEMORY_BARRIER() __memory_changed()
  89:.\Generated_Source\PSoC5/cyfitter_cfg.c **** 	#else
  90:.\Generated_Source\PSoC5/cyfitter_cfg.c **** 		#define CY_CFG_MEMORY_BARRIER() __sync_synchronize()
  91:.\Generated_Source\PSoC5/cyfitter_cfg.c **** 	#endif
  92:.\Generated_Source\PSoC5/cyfitter_cfg.c **** 	
  93:.\Generated_Source\PSoC5/cyfitter_cfg.c **** 	
  94:.\Generated_Source\PSoC5/cyfitter_cfg.c **** 	#define CYMEMZERO(a,c) memset((a),0,(c))
  95:.\Generated_Source\PSoC5/cyfitter_cfg.c **** 	#define CYCONFIGCPY(d,s,c) memcpy((d),(s),(c))
  96:.\Generated_Source\PSoC5/cyfitter_cfg.c **** 	#define CYCONFIGCPYCODE(d,s,c) memcpy((d),(s),(c))
  97:.\Generated_Source\PSoC5/cyfitter_cfg.c **** #else
  98:.\Generated_Source\PSoC5/cyfitter_cfg.c **** 	#error Unsupported toolchain
  99:.\Generated_Source\PSoC5/cyfitter_cfg.c **** #endif
 100:.\Generated_Source\PSoC5/cyfitter_cfg.c **** 
 101:.\Generated_Source\PSoC5/cyfitter_cfg.c **** /* Defines the layout and meaning of each entry in the cfg_memset_list used for clearing registers 
ARM GAS  C:\Users\csap2972\AppData\Local\Temp\ccYNK1mP.s 			page 12


 102:.\Generated_Source\PSoC5/cyfitter_cfg.c **** typedef struct {
 103:.\Generated_Source\PSoC5/cyfitter_cfg.c **** 	void CYFAR *address;
 104:.\Generated_Source\PSoC5/cyfitter_cfg.c **** 	uint16 size;
 105:.\Generated_Source\PSoC5/cyfitter_cfg.c **** } CYPACKED cfg_memset_t;
 106:.\Generated_Source\PSoC5/cyfitter_cfg.c **** 
 107:.\Generated_Source\PSoC5/cyfitter_cfg.c **** /* Defines the layout and meaning of each entry in the cfg_memcpy_list used for initializing regist
 108:.\Generated_Source\PSoC5/cyfitter_cfg.c **** typedef struct {
 109:.\Generated_Source\PSoC5/cyfitter_cfg.c **** 	void CYFAR *dest;
 110:.\Generated_Source\PSoC5/cyfitter_cfg.c **** 	const void CYFAR *src;
 111:.\Generated_Source\PSoC5/cyfitter_cfg.c **** 	uint16 size;
 112:.\Generated_Source\PSoC5/cyfitter_cfg.c **** } CYPACKED cfg_memcpy_t;
 113:.\Generated_Source\PSoC5/cyfitter_cfg.c **** 
 114:.\Generated_Source\PSoC5/cyfitter_cfg.c **** /* TD structure for little-endian systems. Does not require endian swap */
 115:.\Generated_Source\PSoC5/cyfitter_cfg.c **** struct td_t {
 116:.\Generated_Source\PSoC5/cyfitter_cfg.c **** 	uint16 size;
 117:.\Generated_Source\PSoC5/cyfitter_cfg.c **** 	uint8 next_td_ptr;
 118:.\Generated_Source\PSoC5/cyfitter_cfg.c **** 	uint8 flags;
 119:.\Generated_Source\PSoC5/cyfitter_cfg.c **** 	uint16 src;
 120:.\Generated_Source\PSoC5/cyfitter_cfg.c **** 	uint16 dest;
 121:.\Generated_Source\PSoC5/cyfitter_cfg.c **** } CYPACKED;
 122:.\Generated_Source\PSoC5/cyfitter_cfg.c **** 
 123:.\Generated_Source\PSoC5/cyfitter_cfg.c **** /* IDMUX_IRQ Address: CYREG_IDMUX_IRQ_CTL0 Size (bytes): 8 */
 124:.\Generated_Source\PSoC5/cyfitter_cfg.c **** #define BS_IDMUX_IRQ_VAL ((const uint8 CYFAR *)0x48000000)
 125:.\Generated_Source\PSoC5/cyfitter_cfg.c **** 
 126:.\Generated_Source\PSoC5/cyfitter_cfg.c **** /* CMP1 Address: CYREG_CMP1_SW0 Size (bytes): 8 */
 127:.\Generated_Source\PSoC5/cyfitter_cfg.c **** #define BS_CMP1_VAL ((const uint8 CYFAR *)0x48000008)
 128:.\Generated_Source\PSoC5/cyfitter_cfg.c **** 
 129:.\Generated_Source\PSoC5/cyfitter_cfg.c **** /* CMP2 Address: CYREG_CMP2_SW0 Size (bytes): 8 */
 130:.\Generated_Source\PSoC5/cyfitter_cfg.c **** #define BS_CMP2_VAL ((const uint8 CYFAR *)0x48000010)
 131:.\Generated_Source\PSoC5/cyfitter_cfg.c **** 
 132:.\Generated_Source\PSoC5/cyfitter_cfg.c **** /* DSM0 Address: CYREG_DSM0_SW0 Size (bytes): 8 */
 133:.\Generated_Source\PSoC5/cyfitter_cfg.c **** #define BS_DSM0_VAL ((const uint8 CYFAR *)0x48000018)
 134:.\Generated_Source\PSoC5/cyfitter_cfg.c **** 
 135:.\Generated_Source\PSoC5/cyfitter_cfg.c **** /* UDB_1_5_1_CONFIG Address: CYDEV_UCFG_B0_P0_U1_BASE Size (bytes): 128 */
 136:.\Generated_Source\PSoC5/cyfitter_cfg.c **** #define BS_UDB_1_5_1_CONFIG_VAL ((const uint8 CYFAR *)0x48000020)
 137:.\Generated_Source\PSoC5/cyfitter_cfg.c **** 
 138:.\Generated_Source\PSoC5/cyfitter_cfg.c **** /* DSI0_0_HV_ROUTING Address: CYDEV_UCFG_DSI13_BASE + 0x00000080 Size (bytes): 128 */
 139:.\Generated_Source\PSoC5/cyfitter_cfg.c **** #define BS_DSI0_0_HV_ROUTING_VAL ((const uint8 CYFAR *)0x480000A0)
 140:.\Generated_Source\PSoC5/cyfitter_cfg.c **** 
 141:.\Generated_Source\PSoC5/cyfitter_cfg.c **** /* DSI0_1_HV_ROUTING Address: CYDEV_UCFG_DSI12_BASE + 0x00000080 Size (bytes): 128 */
 142:.\Generated_Source\PSoC5/cyfitter_cfg.c **** #define BS_DSI0_1_HV_ROUTING_VAL ((const uint8 CYFAR *)0x48000120)
 143:.\Generated_Source\PSoC5/cyfitter_cfg.c **** 
 144:.\Generated_Source\PSoC5/cyfitter_cfg.c **** /* DSISWITCH_0_2 Address: CYDEV_UCFG_DSI7_BASE Size (bytes): 128 */
 145:.\Generated_Source\PSoC5/cyfitter_cfg.c **** #define BS_DSISWITCH_0_2_VAL ((const uint8 CYFAR *)0x480001A0)
 146:.\Generated_Source\PSoC5/cyfitter_cfg.c **** 
 147:.\Generated_Source\PSoC5/cyfitter_cfg.c **** /* DSI0_2_HV_ROUTING Address: CYDEV_UCFG_DSI7_BASE + 0x00000080 Size (bytes): 128 */
 148:.\Generated_Source\PSoC5/cyfitter_cfg.c **** #define BS_DSI0_2_HV_ROUTING_VAL ((const uint8 CYFAR *)0x48000220)
 149:.\Generated_Source\PSoC5/cyfitter_cfg.c **** 
 150:.\Generated_Source\PSoC5/cyfitter_cfg.c **** /* DSISWITCH_0_3 Address: CYDEV_UCFG_DSI6_BASE Size (bytes): 128 */
 151:.\Generated_Source\PSoC5/cyfitter_cfg.c **** #define BS_DSISWITCH_0_3_VAL ((const uint8 CYFAR *)0x480002A0)
 152:.\Generated_Source\PSoC5/cyfitter_cfg.c **** 
 153:.\Generated_Source\PSoC5/cyfitter_cfg.c **** /* DSI0_3_HV_ROUTING Address: CYDEV_UCFG_DSI6_BASE + 0x00000080 Size (bytes): 128 */
 154:.\Generated_Source\PSoC5/cyfitter_cfg.c **** #define BS_DSI0_3_HV_ROUTING_VAL ((const uint8 CYFAR *)0x48000320)
 155:.\Generated_Source\PSoC5/cyfitter_cfg.c **** 
 156:.\Generated_Source\PSoC5/cyfitter_cfg.c **** /* DSISWITCH_0_4 Address: CYDEV_UCFG_DSI5_BASE Size (bytes): 128 */
 157:.\Generated_Source\PSoC5/cyfitter_cfg.c **** #define BS_DSISWITCH_0_4_VAL ((const uint8 CYFAR *)0x480003A0)
 158:.\Generated_Source\PSoC5/cyfitter_cfg.c **** 
ARM GAS  C:\Users\csap2972\AppData\Local\Temp\ccYNK1mP.s 			page 13


 159:.\Generated_Source\PSoC5/cyfitter_cfg.c **** /* DSI0_4_HV_ROUTING Address: CYDEV_UCFG_DSI5_BASE + 0x00000080 Size (bytes): 128 */
 160:.\Generated_Source\PSoC5/cyfitter_cfg.c **** #define BS_DSI0_4_HV_ROUTING_VAL ((const uint8 CYFAR *)0x48000420)
 161:.\Generated_Source\PSoC5/cyfitter_cfg.c **** 
 162:.\Generated_Source\PSoC5/cyfitter_cfg.c **** /* DSISWITCH_0_5 Address: CYDEV_UCFG_DSI4_BASE Size (bytes): 128 */
 163:.\Generated_Source\PSoC5/cyfitter_cfg.c **** #define BS_DSISWITCH_0_5_VAL ((const uint8 CYFAR *)0x480004A0)
 164:.\Generated_Source\PSoC5/cyfitter_cfg.c **** 
 165:.\Generated_Source\PSoC5/cyfitter_cfg.c **** /* DSI0_5_HV_ROUTING Address: CYDEV_UCFG_DSI4_BASE + 0x00000080 Size (bytes): 128 */
 166:.\Generated_Source\PSoC5/cyfitter_cfg.c **** #define BS_DSI0_5_HV_ROUTING_VAL ((const uint8 CYFAR *)0x48000520)
 167:.\Generated_Source\PSoC5/cyfitter_cfg.c **** 
 168:.\Generated_Source\PSoC5/cyfitter_cfg.c **** /* UDB_1_0_HV_ROUTING Address: CYDEV_UCFG_B1_P5_ROUTE_BASE + 0x00000080 Size (bytes): 128 */
 169:.\Generated_Source\PSoC5/cyfitter_cfg.c **** #define BS_UDB_1_0_HV_ROUTING_VAL ((const uint8 CYFAR *)0x480005A0)
 170:.\Generated_Source\PSoC5/cyfitter_cfg.c **** 
 171:.\Generated_Source\PSoC5/cyfitter_cfg.c **** /* UDB_2_0_HV_ROUTING Address: CYDEV_UCFG_B1_P2_ROUTE_BASE + 0x00000080 Size (bytes): 128 */
 172:.\Generated_Source\PSoC5/cyfitter_cfg.c **** #define BS_UDB_2_0_HV_ROUTING_VAL ((const uint8 CYFAR *)0x48000620)
 173:.\Generated_Source\PSoC5/cyfitter_cfg.c **** 
 174:.\Generated_Source\PSoC5/cyfitter_cfg.c **** /* UDB_1_1_HV_ROUTING Address: CYDEV_UCFG_B1_P4_ROUTE_BASE + 0x00000080 Size (bytes): 128 */
 175:.\Generated_Source\PSoC5/cyfitter_cfg.c **** #define BS_UDB_1_1_HV_ROUTING_VAL ((const uint8 CYFAR *)0x480006A0)
 176:.\Generated_Source\PSoC5/cyfitter_cfg.c **** 
 177:.\Generated_Source\PSoC5/cyfitter_cfg.c **** /* UDB_2_1_HV_ROUTING Address: CYDEV_UCFG_B1_P3_ROUTE_BASE + 0x00000080 Size (bytes): 128 */
 178:.\Generated_Source\PSoC5/cyfitter_cfg.c **** #define BS_UDB_2_1_HV_ROUTING_VAL ((const uint8 CYFAR *)0x48000720)
 179:.\Generated_Source\PSoC5/cyfitter_cfg.c **** 
 180:.\Generated_Source\PSoC5/cyfitter_cfg.c **** /* UDB_1_2_HV_ROUTING Address: CYDEV_UCFG_B0_P4_ROUTE_BASE + 0x00000080 Size (bytes): 128 */
 181:.\Generated_Source\PSoC5/cyfitter_cfg.c **** #define BS_UDB_1_2_HV_ROUTING_VAL ((const uint8 CYFAR *)0x480007A0)
 182:.\Generated_Source\PSoC5/cyfitter_cfg.c **** 
 183:.\Generated_Source\PSoC5/cyfitter_cfg.c **** /* UDB_2_2_HV_ROUTING Address: CYDEV_UCFG_B0_P3_ROUTE_BASE + 0x00000080 Size (bytes): 128 */
 184:.\Generated_Source\PSoC5/cyfitter_cfg.c **** #define BS_UDB_2_2_HV_ROUTING_VAL ((const uint8 CYFAR *)0x48000820)
 185:.\Generated_Source\PSoC5/cyfitter_cfg.c **** 
 186:.\Generated_Source\PSoC5/cyfitter_cfg.c **** /* UDB_1_3_HV_ROUTING Address: CYDEV_UCFG_B0_P5_ROUTE_BASE + 0x00000080 Size (bytes): 128 */
 187:.\Generated_Source\PSoC5/cyfitter_cfg.c **** #define BS_UDB_1_3_HV_ROUTING_VAL ((const uint8 CYFAR *)0x480008A0)
 188:.\Generated_Source\PSoC5/cyfitter_cfg.c **** 
 189:.\Generated_Source\PSoC5/cyfitter_cfg.c **** /* UDB_2_3_HV_ROUTING Address: CYDEV_UCFG_B0_P2_ROUTE_BASE + 0x00000080 Size (bytes): 128 */
 190:.\Generated_Source\PSoC5/cyfitter_cfg.c **** #define BS_UDB_2_3_HV_ROUTING_VAL ((const uint8 CYFAR *)0x48000920)
 191:.\Generated_Source\PSoC5/cyfitter_cfg.c **** 
 192:.\Generated_Source\PSoC5/cyfitter_cfg.c **** /* UDB_1_4_HV_ROUTING Address: CYDEV_UCFG_B0_P6_ROUTE_BASE + 0x00000080 Size (bytes): 128 */
 193:.\Generated_Source\PSoC5/cyfitter_cfg.c **** #define BS_UDB_1_4_HV_ROUTING_VAL ((const uint8 CYFAR *)0x480009A0)
 194:.\Generated_Source\PSoC5/cyfitter_cfg.c **** 
 195:.\Generated_Source\PSoC5/cyfitter_cfg.c **** /* UDB_2_4_HV_ROUTING Address: CYDEV_UCFG_B0_P1_ROUTE_BASE + 0x00000080 Size (bytes): 128 */
 196:.\Generated_Source\PSoC5/cyfitter_cfg.c **** #define BS_UDB_2_4_HV_ROUTING_VAL ((const uint8 CYFAR *)0x48000A20)
 197:.\Generated_Source\PSoC5/cyfitter_cfg.c **** 
 198:.\Generated_Source\PSoC5/cyfitter_cfg.c **** /* UDBSWITCH_1_5 Address: CYDEV_UCFG_B0_P0_ROUTE_BASE Size (bytes): 128 */
 199:.\Generated_Source\PSoC5/cyfitter_cfg.c **** #define BS_UDBSWITCH_1_5_VAL ((const uint8 CYFAR *)0x48000AA0)
 200:.\Generated_Source\PSoC5/cyfitter_cfg.c **** 
 201:.\Generated_Source\PSoC5/cyfitter_cfg.c **** /* UDB_2_5_HV_ROUTING Address: CYDEV_UCFG_B0_P0_ROUTE_BASE + 0x00000080 Size (bytes): 128 */
 202:.\Generated_Source\PSoC5/cyfitter_cfg.c **** #define BS_UDB_2_5_HV_ROUTING_VAL ((const uint8 CYFAR *)0x48000B20)
 203:.\Generated_Source\PSoC5/cyfitter_cfg.c **** 
 204:.\Generated_Source\PSoC5/cyfitter_cfg.c **** /* DSI3_0_HV_ROUTING Address: CYDEV_UCFG_DSI9_BASE + 0x00000080 Size (bytes): 128 */
 205:.\Generated_Source\PSoC5/cyfitter_cfg.c **** #define BS_DSI3_0_HV_ROUTING_VAL ((const uint8 CYFAR *)0x48000BA0)
 206:.\Generated_Source\PSoC5/cyfitter_cfg.c **** 
 207:.\Generated_Source\PSoC5/cyfitter_cfg.c **** /* DSISWITCH_1_1 Address: CYDEV_UCFG_DSI8_BASE Size (bytes): 128 */
 208:.\Generated_Source\PSoC5/cyfitter_cfg.c **** #define BS_DSISWITCH_1_1_VAL ((const uint8 CYFAR *)0x48000C20)
 209:.\Generated_Source\PSoC5/cyfitter_cfg.c **** 
 210:.\Generated_Source\PSoC5/cyfitter_cfg.c **** /* DSI3_1_HV_ROUTING Address: CYDEV_UCFG_DSI8_BASE + 0x00000080 Size (bytes): 128 */
 211:.\Generated_Source\PSoC5/cyfitter_cfg.c **** #define BS_DSI3_1_HV_ROUTING_VAL ((const uint8 CYFAR *)0x48000CA0)
 212:.\Generated_Source\PSoC5/cyfitter_cfg.c **** 
 213:.\Generated_Source\PSoC5/cyfitter_cfg.c **** /* DSI3_4_HV_ROUTING Address: CYDEV_UCFG_DSI1_BASE + 0x00000080 Size (bytes): 128 */
 214:.\Generated_Source\PSoC5/cyfitter_cfg.c **** #define BS_DSI3_4_HV_ROUTING_VAL ((const uint8 CYFAR *)0x48000D20)
 215:.\Generated_Source\PSoC5/cyfitter_cfg.c **** 
ARM GAS  C:\Users\csap2972\AppData\Local\Temp\ccYNK1mP.s 			page 14


 216:.\Generated_Source\PSoC5/cyfitter_cfg.c **** /* DSISWITCH_1_5 Address: CYDEV_UCFG_DSI0_BASE Size (bytes): 128 */
 217:.\Generated_Source\PSoC5/cyfitter_cfg.c **** #define BS_DSISWITCH_1_5_VAL ((const uint8 CYFAR *)0x48000DA0)
 218:.\Generated_Source\PSoC5/cyfitter_cfg.c **** 
 219:.\Generated_Source\PSoC5/cyfitter_cfg.c **** /* DSI3_5_HV_ROUTING Address: CYDEV_UCFG_DSI0_BASE + 0x00000080 Size (bytes): 128 */
 220:.\Generated_Source\PSoC5/cyfitter_cfg.c **** #define BS_DSI3_5_HV_ROUTING_VAL ((const uint8 CYFAR *)0x48000E20)
 221:.\Generated_Source\PSoC5/cyfitter_cfg.c **** 
 222:.\Generated_Source\PSoC5/cyfitter_cfg.c **** /* UCFG_BCTL0 Address: CYREG_BCTL0_MDCLK_EN Size (bytes): 16 */
 223:.\Generated_Source\PSoC5/cyfitter_cfg.c **** #define BS_UCFG_BCTL0_VAL ((const uint8 CYFAR *)0x48000EA0)
 224:.\Generated_Source\PSoC5/cyfitter_cfg.c **** 
 225:.\Generated_Source\PSoC5/cyfitter_cfg.c **** /* IOPINS0_2 Address: CYREG_PRT2_DM0 Size (bytes): 8 */
 226:.\Generated_Source\PSoC5/cyfitter_cfg.c **** #define BS_IOPINS0_2_VAL ((const uint8 CYFAR *)0x48000EB0)
 227:.\Generated_Source\PSoC5/cyfitter_cfg.c **** 
 228:.\Generated_Source\PSoC5/cyfitter_cfg.c **** /* IOPINS0_4 Address: CYREG_PRT4_DM0 Size (bytes): 8 */
 229:.\Generated_Source\PSoC5/cyfitter_cfg.c **** #define BS_IOPINS0_4_VAL ((const uint8 CYFAR *)0x48000EB8)
 230:.\Generated_Source\PSoC5/cyfitter_cfg.c **** 
 231:.\Generated_Source\PSoC5/cyfitter_cfg.c **** /* CYDEV_CLKDIST_ACFG0_CFG0 Address: CYREG_CLKDIST_ACFG0_CFG0 Size (bytes): 8 */
 232:.\Generated_Source\PSoC5/cyfitter_cfg.c **** #define BS_CYDEV_CLKDIST_ACFG0_CFG0_VAL ((const uint8 CYFAR *)0x48000EC0)
 233:.\Generated_Source\PSoC5/cyfitter_cfg.c **** 
 234:.\Generated_Source\PSoC5/cyfitter_cfg.c **** 
 235:.\Generated_Source\PSoC5/cyfitter_cfg.c **** /* PHUB_CH1_CFGMEM_CFG0/1 initialization data */
 236:.\Generated_Source\PSoC5/cyfitter_cfg.c **** static const uint8 CYCODE CH1_ADDR_DATA0[] DMAINITSEC = { 0x01, 0x00, 0x00, 0x00, 0x00, 0x20, 0x00,
 237:.\Generated_Source\PSoC5/cyfitter_cfg.c **** 
 238:.\Generated_Source\PSoC5/cyfitter_cfg.c **** /* PHUB_CH2_CFGMEM_CFG0/1 initialization data */
 239:.\Generated_Source\PSoC5/cyfitter_cfg.c **** static const uint8 CYCODE CH2_ADDR_DATA0[] DMAINITSEC = { 0x01, 0x00, 0x00, 0x00, 0x00, 0x20, 0x01,
 240:.\Generated_Source\PSoC5/cyfitter_cfg.c **** 
 241:.\Generated_Source\PSoC5/cyfitter_cfg.c **** /* PHUB_CH5_CFGMEM_CFG0/1 initialization data */
 242:.\Generated_Source\PSoC5/cyfitter_cfg.c **** static const uint8 CYCODE CH5_ADDR_DATA0[] DMAINITSEC = { 0x01, 0x00, 0x00, 0x00, 0x00, 0x48, 0x00,
 243:.\Generated_Source\PSoC5/cyfitter_cfg.c **** 
 244:.\Generated_Source\PSoC5/cyfitter_cfg.c **** /* PHUB_CH6_CFGMEM_CFG0/1 initialization data */
 245:.\Generated_Source\PSoC5/cyfitter_cfg.c **** static const uint8 CYCODE CH6_ADDR_DATA0[] DMAINITSEC = { 0x01, 0x00, 0x00, 0x00, 0x00, 0x48, 0x01,
 246:.\Generated_Source\PSoC5/cyfitter_cfg.c **** 
 247:.\Generated_Source\PSoC5/cyfitter_cfg.c **** /* Initialization data for each DMA channel's TD registers */
 248:.\Generated_Source\PSoC5/cyfitter_cfg.c **** static const uint8 CYCODE DMA_TD_START_CMD[] DMAINITSEC = { 0x01, 0x00, 0x00, 0x00, 0x01 };
 249:.\Generated_Source\PSoC5/cyfitter_cfg.c **** 
 250:.\Generated_Source\PSoC5/cyfitter_cfg.c **** static uint32 CYXDATA DMA_ZERO_VAL CYALIGNED;
 251:.\Generated_Source\PSoC5/cyfitter_cfg.c **** 
 252:.\Generated_Source\PSoC5/cyfitter_cfg.c **** /* This table holds all of the initialization data necessary for the DMA
 253:.\Generated_Source\PSoC5/cyfitter_cfg.c ****    process to transfer data from the source location to the destination. */
 254:.\Generated_Source\PSoC5/cyfitter_cfg.c **** /* Source addresses can be relocated, but only when in 32bit addresses.
 255:.\Generated_Source\PSoC5/cyfitter_cfg.c ****    Because the standard TD table only has 16bit addresses, we generate a
 256:.\Generated_Source\PSoC5/cyfitter_cfg.c ****    seperate CFG_TD_ADDR table for the source addresses that supports 32bit
 257:.\Generated_Source\PSoC5/cyfitter_cfg.c ****    addresses. */
 258:.\Generated_Source\PSoC5/cyfitter_cfg.c **** static const struct td_t CYCODE CFG_TD_LIST0[] DMAINITSEC = {
 259:.\Generated_Source\PSoC5/cyfitter_cfg.c **** /* Size, Next, Flags, Source, Destination */
 260:.\Generated_Source\PSoC5/cyfitter_cfg.c **** 	{ 8, 0x02, 0x23, (uint16)(0), (uint16)(CYREG_PHUB_CFGMEM1_CFG0) },	/* TD 1 */
 261:.\Generated_Source\PSoC5/cyfitter_cfg.c **** 	{ 8, 0x03, 0x23, (uint16)(0), (uint16)(CYREG_PHUB_CFGMEM2_CFG0) },	/* TD 2 */
 262:.\Generated_Source\PSoC5/cyfitter_cfg.c **** 	{ 8, 0x04, 0x23, (uint16)(0), (uint16)(CYREG_PHUB_CFGMEM5_CFG0) },	/* TD 3 */
 263:.\Generated_Source\PSoC5/cyfitter_cfg.c **** 	{ 8, 0x05, 0x23, (uint16)(0), (uint16)(CYREG_PHUB_CFGMEM6_CFG0) },	/* TD 4 */
 264:.\Generated_Source\PSoC5/cyfitter_cfg.c **** 	{ 5, 0x06, 0x23, (uint16)(0), (uint16)(CYREG_PHUB_CH1_BASIC_CFG) },	/* TD 5 */
 265:.\Generated_Source\PSoC5/cyfitter_cfg.c **** 	{ 5, 0x07, 0x23, (uint16)(0), (uint16)(CYREG_PHUB_CH2_BASIC_CFG) },	/* TD 6 */
 266:.\Generated_Source\PSoC5/cyfitter_cfg.c **** 	{ 5, 0x08, 0x23, (uint16)(0), (uint16)(CYREG_PHUB_CH5_BASIC_CFG) },	/* TD 7 */
 267:.\Generated_Source\PSoC5/cyfitter_cfg.c **** 	{ 5, 0xFE, 0x23, (uint16)(0), (uint16)(CYREG_PHUB_CH6_BASIC_CFG) },	/* TD 8 */
 268:.\Generated_Source\PSoC5/cyfitter_cfg.c **** 	{ 32, 0x0A, 0x22, (uint16)(0), (uint16)(CYREG_PRT0_DR) },	/* TD 9 */
 269:.\Generated_Source\PSoC5/cyfitter_cfg.c **** 	{ 16, 0x0B, 0x22, (uint16)(0), (uint16)(CYREG_PRT3_DR) },	/* TD 10 */
 270:.\Generated_Source\PSoC5/cyfitter_cfg.c **** 	{ 32, 0x0C, 0x22, (uint16)(0), (uint16)(CYREG_PRT5_DR) },	/* TD 11 */
 271:.\Generated_Source\PSoC5/cyfitter_cfg.c **** 	{ 16, 0x0D, 0x22, (uint16)(0), (uint16)(CYREG_PRT12_DR) },	/* TD 12 */
 272:.\Generated_Source\PSoC5/cyfitter_cfg.c **** 	{ 16, 0xFE, 0x22, (uint16)(0), (uint16)(CYREG_PRT15_DR) },	/* TD 13 */
ARM GAS  C:\Users\csap2972\AppData\Local\Temp\ccYNK1mP.s 			page 15


 273:.\Generated_Source\PSoC5/cyfitter_cfg.c **** 	{ 128, 0x0F, 0x22, (uint16)(0), (uint16)(CYDEV_UCFG_B0_P0_U0_BASE) },	/* TD 14 */
 274:.\Generated_Source\PSoC5/cyfitter_cfg.c **** 	{ 384, 0x10, 0x22, (uint16)(0), (uint16)(CYDEV_UCFG_B0_P1_U0_BASE) },	/* TD 15 */
 275:.\Generated_Source\PSoC5/cyfitter_cfg.c **** 	{ 384, 0x11, 0x22, (uint16)(0), (uint16)(CYDEV_UCFG_B0_P2_U0_BASE) },	/* TD 16 */
 276:.\Generated_Source\PSoC5/cyfitter_cfg.c **** 	{ 384, 0x12, 0x22, (uint16)(0), (uint16)(CYDEV_UCFG_B0_P3_U0_BASE) },	/* TD 17 */
 277:.\Generated_Source\PSoC5/cyfitter_cfg.c **** 	{ 384, 0x13, 0x22, (uint16)(0), (uint16)(CYDEV_UCFG_B0_P4_U0_BASE) },	/* TD 18 */
 278:.\Generated_Source\PSoC5/cyfitter_cfg.c **** 	{ 384, 0x14, 0x22, (uint16)(0), (uint16)(CYDEV_UCFG_B0_P5_U0_BASE) },	/* TD 19 */
 279:.\Generated_Source\PSoC5/cyfitter_cfg.c **** 	{ 384, 0x15, 0x22, (uint16)(0), (uint16)(CYDEV_UCFG_B0_P6_U0_BASE) },	/* TD 20 */
 280:.\Generated_Source\PSoC5/cyfitter_cfg.c **** 	{ 512, 0x16, 0x22, (uint16)(0), (uint16)(CYDEV_UCFG_B0_P7_U0_BASE) },	/* TD 21 */
 281:.\Generated_Source\PSoC5/cyfitter_cfg.c **** 	{ 384, 0x17, 0x22, (uint16)(0), (uint16)(CYDEV_UCFG_B1_P2_U0_BASE) },	/* TD 22 */
 282:.\Generated_Source\PSoC5/cyfitter_cfg.c **** 	{ 384, 0x18, 0x22, (uint16)(0), (uint16)(CYDEV_UCFG_B1_P3_U0_BASE) },	/* TD 23 */
 283:.\Generated_Source\PSoC5/cyfitter_cfg.c **** 	{ 384, 0x19, 0x22, (uint16)(0), (uint16)(CYDEV_UCFG_B1_P4_U0_BASE) },	/* TD 24 */
 284:.\Generated_Source\PSoC5/cyfitter_cfg.c **** 	{ 384, 0x1A, 0x22, (uint16)(0), (uint16)(CYDEV_UCFG_B1_P5_U0_BASE) },	/* TD 25 */
 285:.\Generated_Source\PSoC5/cyfitter_cfg.c **** 	{ 128, 0x1B, 0x22, (uint16)(0), (uint16)(CYDEV_UCFG_DSI1_BASE) },	/* TD 26 */
 286:.\Generated_Source\PSoC5/cyfitter_cfg.c **** 	{ 512, 0x1C, 0x22, (uint16)(0), (uint16)(CYDEV_UCFG_DSI2_BASE) },	/* TD 27 */
 287:.\Generated_Source\PSoC5/cyfitter_cfg.c **** 	{ 128, 0x1D, 0x22, (uint16)(0), (uint16)(CYDEV_UCFG_DSI9_BASE) },	/* TD 28 */
 288:.\Generated_Source\PSoC5/cyfitter_cfg.c **** 	{ 128, 0x1E, 0x22, (uint16)(0), (uint16)(CYDEV_UCFG_DSI12_BASE) },	/* TD 29 */
 289:.\Generated_Source\PSoC5/cyfitter_cfg.c **** 	{ 128, 0x1F, 0x22, (uint16)(0), (uint16)(CYDEV_UCFG_DSI13_BASE) },	/* TD 30 */
 290:.\Generated_Source\PSoC5/cyfitter_cfg.c **** 	{ 16, 0xFE, 0x22, (uint16)(0), (uint16)(CYREG_BCTL1_MDCLK_EN) },	/* TD 31 */
 291:.\Generated_Source\PSoC5/cyfitter_cfg.c **** 	{ 8, 0x21, 0x23, (uint16)(0), (uint16)(CYREG_CMP1_SW0) },	/* TD 32 */
 292:.\Generated_Source\PSoC5/cyfitter_cfg.c **** 	{ 8, 0x22, 0x23, (uint16)(0), (uint16)(CYREG_CMP2_SW0) },	/* TD 33 */
 293:.\Generated_Source\PSoC5/cyfitter_cfg.c **** 	{ 8, 0xFE, 0x23, (uint16)(0), (uint16)(CYREG_DSM0_SW0) },	/* TD 34 */
 294:.\Generated_Source\PSoC5/cyfitter_cfg.c **** 	{ 8, 0x24, 0x23, (uint16)(0), (uint16)(CYREG_IDMUX_IRQ_CTL0) },	/* TD 35 */
 295:.\Generated_Source\PSoC5/cyfitter_cfg.c **** 	{ 128, 0x25, 0x23, (uint16)(0), (uint16)(CYDEV_UCFG_B0_P0_U1_BASE) },	/* TD 36 */
 296:.\Generated_Source\PSoC5/cyfitter_cfg.c **** 	{ 128, 0x26, 0x23, (uint16)(0), (uint16)(CYDEV_UCFG_DSI13_BASE + 0x00000080) },	/* TD 37 */
 297:.\Generated_Source\PSoC5/cyfitter_cfg.c **** 	{ 128, 0x27, 0x23, (uint16)(0), (uint16)(CYDEV_UCFG_DSI12_BASE + 0x00000080) },	/* TD 38 */
 298:.\Generated_Source\PSoC5/cyfitter_cfg.c **** 	{ 128, 0x28, 0x23, (uint16)(0), (uint16)(CYDEV_UCFG_DSI7_BASE) },	/* TD 39 */
 299:.\Generated_Source\PSoC5/cyfitter_cfg.c **** 	{ 128, 0x29, 0x23, (uint16)(0), (uint16)(CYDEV_UCFG_DSI7_BASE + 0x00000080) },	/* TD 40 */
 300:.\Generated_Source\PSoC5/cyfitter_cfg.c **** 	{ 128, 0x2A, 0x23, (uint16)(0), (uint16)(CYDEV_UCFG_DSI6_BASE) },	/* TD 41 */
 301:.\Generated_Source\PSoC5/cyfitter_cfg.c **** 	{ 128, 0x2B, 0x23, (uint16)(0), (uint16)(CYDEV_UCFG_DSI6_BASE + 0x00000080) },	/* TD 42 */
 302:.\Generated_Source\PSoC5/cyfitter_cfg.c **** 	{ 128, 0x2C, 0x23, (uint16)(0), (uint16)(CYDEV_UCFG_DSI5_BASE) },	/* TD 43 */
 303:.\Generated_Source\PSoC5/cyfitter_cfg.c **** 	{ 128, 0x2D, 0x23, (uint16)(0), (uint16)(CYDEV_UCFG_DSI5_BASE + 0x00000080) },	/* TD 44 */
 304:.\Generated_Source\PSoC5/cyfitter_cfg.c **** 	{ 128, 0x2E, 0x23, (uint16)(0), (uint16)(CYDEV_UCFG_DSI4_BASE) },	/* TD 45 */
 305:.\Generated_Source\PSoC5/cyfitter_cfg.c **** 	{ 128, 0x2F, 0x23, (uint16)(0), (uint16)(CYDEV_UCFG_DSI4_BASE + 0x00000080) },	/* TD 46 */
 306:.\Generated_Source\PSoC5/cyfitter_cfg.c **** 	{ 128, 0x30, 0x23, (uint16)(0), (uint16)(CYDEV_UCFG_B1_P5_ROUTE_BASE + 0x00000080) },	/* TD 47 */
 307:.\Generated_Source\PSoC5/cyfitter_cfg.c **** 	{ 128, 0x31, 0x23, (uint16)(0), (uint16)(CYDEV_UCFG_B1_P2_ROUTE_BASE + 0x00000080) },	/* TD 48 */
 308:.\Generated_Source\PSoC5/cyfitter_cfg.c **** 	{ 128, 0x32, 0x23, (uint16)(0), (uint16)(CYDEV_UCFG_B1_P4_ROUTE_BASE + 0x00000080) },	/* TD 49 */
 309:.\Generated_Source\PSoC5/cyfitter_cfg.c **** 	{ 128, 0x33, 0x23, (uint16)(0), (uint16)(CYDEV_UCFG_B1_P3_ROUTE_BASE + 0x00000080) },	/* TD 50 */
 310:.\Generated_Source\PSoC5/cyfitter_cfg.c **** 	{ 128, 0x34, 0x23, (uint16)(0), (uint16)(CYDEV_UCFG_B0_P4_ROUTE_BASE + 0x00000080) },	/* TD 51 */
 311:.\Generated_Source\PSoC5/cyfitter_cfg.c **** 	{ 128, 0x35, 0x23, (uint16)(0), (uint16)(CYDEV_UCFG_B0_P3_ROUTE_BASE + 0x00000080) },	/* TD 52 */
 312:.\Generated_Source\PSoC5/cyfitter_cfg.c **** 	{ 128, 0x36, 0x23, (uint16)(0), (uint16)(CYDEV_UCFG_B0_P5_ROUTE_BASE + 0x00000080) },	/* TD 53 */
 313:.\Generated_Source\PSoC5/cyfitter_cfg.c **** 	{ 128, 0x37, 0x23, (uint16)(0), (uint16)(CYDEV_UCFG_B0_P2_ROUTE_BASE + 0x00000080) },	/* TD 54 */
 314:.\Generated_Source\PSoC5/cyfitter_cfg.c **** 	{ 128, 0x38, 0x23, (uint16)(0), (uint16)(CYDEV_UCFG_B0_P6_ROUTE_BASE + 0x00000080) },	/* TD 55 */
 315:.\Generated_Source\PSoC5/cyfitter_cfg.c **** 	{ 128, 0x39, 0x23, (uint16)(0), (uint16)(CYDEV_UCFG_B0_P1_ROUTE_BASE + 0x00000080) },	/* TD 56 */
 316:.\Generated_Source\PSoC5/cyfitter_cfg.c **** 	{ 128, 0x3A, 0x23, (uint16)(0), (uint16)(CYDEV_UCFG_B0_P0_ROUTE_BASE) },	/* TD 57 */
 317:.\Generated_Source\PSoC5/cyfitter_cfg.c **** 	{ 128, 0x3B, 0x23, (uint16)(0), (uint16)(CYDEV_UCFG_B0_P0_ROUTE_BASE + 0x00000080) },	/* TD 58 */
 318:.\Generated_Source\PSoC5/cyfitter_cfg.c **** 	{ 128, 0x3C, 0x23, (uint16)(0), (uint16)(CYDEV_UCFG_DSI9_BASE + 0x00000080) },	/* TD 59 */
 319:.\Generated_Source\PSoC5/cyfitter_cfg.c **** 	{ 128, 0x3D, 0x23, (uint16)(0), (uint16)(CYDEV_UCFG_DSI8_BASE) },	/* TD 60 */
 320:.\Generated_Source\PSoC5/cyfitter_cfg.c **** 	{ 128, 0x3E, 0x23, (uint16)(0), (uint16)(CYDEV_UCFG_DSI8_BASE + 0x00000080) },	/* TD 61 */
 321:.\Generated_Source\PSoC5/cyfitter_cfg.c **** 	{ 128, 0x3F, 0x23, (uint16)(0), (uint16)(CYDEV_UCFG_DSI1_BASE + 0x00000080) },	/* TD 62 */
 322:.\Generated_Source\PSoC5/cyfitter_cfg.c **** 	{ 128, 0x40, 0x23, (uint16)(0), (uint16)(CYDEV_UCFG_DSI0_BASE) },	/* TD 63 */
 323:.\Generated_Source\PSoC5/cyfitter_cfg.c **** 	{ 128, 0x41, 0x23, (uint16)(0), (uint16)(CYDEV_UCFG_DSI0_BASE + 0x00000080) },	/* TD 64 */
 324:.\Generated_Source\PSoC5/cyfitter_cfg.c **** 	{ 16, 0xFE, 0x23, (uint16)(0), (uint16)(CYREG_BCTL0_MDCLK_EN) },	/* TD 65 */
 325:.\Generated_Source\PSoC5/cyfitter_cfg.c **** };
 326:.\Generated_Source\PSoC5/cyfitter_cfg.c **** /* Source addresses can be relocated, but only when in 32bit addresses.
 327:.\Generated_Source\PSoC5/cyfitter_cfg.c ****    Because the standard TD table only has 16bit addresses, we generate a
 328:.\Generated_Source\PSoC5/cyfitter_cfg.c ****    seperate table for the source addresses that does use 32bit addresses. This
 329:.\Generated_Source\PSoC5/cyfitter_cfg.c ****    table will be remerged with the corresponding CFG_TD_LIST table during
ARM GAS  C:\Users\csap2972\AppData\Local\Temp\ccYNK1mP.s 			page 16


 330:.\Generated_Source\PSoC5/cyfitter_cfg.c ****    initialization. */
 331:.\Generated_Source\PSoC5/cyfitter_cfg.c **** static const void * const CFG_TD_ADDR0[] = {
 332:.\Generated_Source\PSoC5/cyfitter_cfg.c **** 	(const void *)(&CH1_ADDR_DATA0),	/* TD 1 */
 333:.\Generated_Source\PSoC5/cyfitter_cfg.c **** 	(const void *)(&CH2_ADDR_DATA0),	/* TD 2 */
 334:.\Generated_Source\PSoC5/cyfitter_cfg.c **** 	(const void *)(&CH5_ADDR_DATA0),	/* TD 3 */
 335:.\Generated_Source\PSoC5/cyfitter_cfg.c **** 	(const void *)(&CH6_ADDR_DATA0),	/* TD 4 */
 336:.\Generated_Source\PSoC5/cyfitter_cfg.c **** 	(const void *)(&DMA_TD_START_CMD),	/* TD 5 */
 337:.\Generated_Source\PSoC5/cyfitter_cfg.c **** 	(const void *)(&DMA_TD_START_CMD),	/* TD 6 */
 338:.\Generated_Source\PSoC5/cyfitter_cfg.c **** 	(const void *)(&DMA_TD_START_CMD),	/* TD 7 */
 339:.\Generated_Source\PSoC5/cyfitter_cfg.c **** 	(const void *)(&DMA_TD_START_CMD),	/* TD 8 */
 340:.\Generated_Source\PSoC5/cyfitter_cfg.c **** 	(const void *)(&DMA_ZERO_VAL),	/* TD 9 */
 341:.\Generated_Source\PSoC5/cyfitter_cfg.c **** 	(const void *)(&DMA_ZERO_VAL),	/* TD 10 */
 342:.\Generated_Source\PSoC5/cyfitter_cfg.c **** 	(const void *)(&DMA_ZERO_VAL),	/* TD 11 */
 343:.\Generated_Source\PSoC5/cyfitter_cfg.c **** 	(const void *)(&DMA_ZERO_VAL),	/* TD 12 */
 344:.\Generated_Source\PSoC5/cyfitter_cfg.c **** 	(const void *)(&DMA_ZERO_VAL),	/* TD 13 */
 345:.\Generated_Source\PSoC5/cyfitter_cfg.c **** 	(const void *)(&DMA_ZERO_VAL),	/* TD 14 */
 346:.\Generated_Source\PSoC5/cyfitter_cfg.c **** 	(const void *)(&DMA_ZERO_VAL),	/* TD 15 */
 347:.\Generated_Source\PSoC5/cyfitter_cfg.c **** 	(const void *)(&DMA_ZERO_VAL),	/* TD 16 */
 348:.\Generated_Source\PSoC5/cyfitter_cfg.c **** 	(const void *)(&DMA_ZERO_VAL),	/* TD 17 */
 349:.\Generated_Source\PSoC5/cyfitter_cfg.c **** 	(const void *)(&DMA_ZERO_VAL),	/* TD 18 */
 350:.\Generated_Source\PSoC5/cyfitter_cfg.c **** 	(const void *)(&DMA_ZERO_VAL),	/* TD 19 */
 351:.\Generated_Source\PSoC5/cyfitter_cfg.c **** 	(const void *)(&DMA_ZERO_VAL),	/* TD 20 */
 352:.\Generated_Source\PSoC5/cyfitter_cfg.c **** 	(const void *)(&DMA_ZERO_VAL),	/* TD 21 */
 353:.\Generated_Source\PSoC5/cyfitter_cfg.c **** 	(const void *)(&DMA_ZERO_VAL),	/* TD 22 */
 354:.\Generated_Source\PSoC5/cyfitter_cfg.c **** 	(const void *)(&DMA_ZERO_VAL),	/* TD 23 */
 355:.\Generated_Source\PSoC5/cyfitter_cfg.c **** 	(const void *)(&DMA_ZERO_VAL),	/* TD 24 */
 356:.\Generated_Source\PSoC5/cyfitter_cfg.c **** 	(const void *)(&DMA_ZERO_VAL),	/* TD 25 */
 357:.\Generated_Source\PSoC5/cyfitter_cfg.c **** 	(const void *)(&DMA_ZERO_VAL),	/* TD 26 */
 358:.\Generated_Source\PSoC5/cyfitter_cfg.c **** 	(const void *)(&DMA_ZERO_VAL),	/* TD 27 */
 359:.\Generated_Source\PSoC5/cyfitter_cfg.c **** 	(const void *)(&DMA_ZERO_VAL),	/* TD 28 */
 360:.\Generated_Source\PSoC5/cyfitter_cfg.c **** 	(const void *)(&DMA_ZERO_VAL),	/* TD 29 */
 361:.\Generated_Source\PSoC5/cyfitter_cfg.c **** 	(const void *)(&DMA_ZERO_VAL),	/* TD 30 */
 362:.\Generated_Source\PSoC5/cyfitter_cfg.c **** 	(const void *)(&DMA_ZERO_VAL),	/* TD 31 */
 363:.\Generated_Source\PSoC5/cyfitter_cfg.c **** 	(const void *)(BS_CMP1_VAL),	/* TD 32 */
 364:.\Generated_Source\PSoC5/cyfitter_cfg.c **** 	(const void *)(BS_CMP2_VAL),	/* TD 33 */
 365:.\Generated_Source\PSoC5/cyfitter_cfg.c **** 	(const void *)(BS_DSM0_VAL),	/* TD 34 */
 366:.\Generated_Source\PSoC5/cyfitter_cfg.c **** 	(const void *)(BS_IDMUX_IRQ_VAL),	/* TD 35 */
 367:.\Generated_Source\PSoC5/cyfitter_cfg.c **** 	(const void *)(BS_UDB_1_5_1_CONFIG_VAL),	/* TD 36 */
 368:.\Generated_Source\PSoC5/cyfitter_cfg.c **** 	(const void *)(BS_DSI0_0_HV_ROUTING_VAL),	/* TD 37 */
 369:.\Generated_Source\PSoC5/cyfitter_cfg.c **** 	(const void *)(BS_DSI0_1_HV_ROUTING_VAL),	/* TD 38 */
 370:.\Generated_Source\PSoC5/cyfitter_cfg.c **** 	(const void *)(BS_DSISWITCH_0_2_VAL),	/* TD 39 */
 371:.\Generated_Source\PSoC5/cyfitter_cfg.c **** 	(const void *)(BS_DSI0_2_HV_ROUTING_VAL),	/* TD 40 */
 372:.\Generated_Source\PSoC5/cyfitter_cfg.c **** 	(const void *)(BS_DSISWITCH_0_3_VAL),	/* TD 41 */
 373:.\Generated_Source\PSoC5/cyfitter_cfg.c **** 	(const void *)(BS_DSI0_3_HV_ROUTING_VAL),	/* TD 42 */
 374:.\Generated_Source\PSoC5/cyfitter_cfg.c **** 	(const void *)(BS_DSISWITCH_0_4_VAL),	/* TD 43 */
 375:.\Generated_Source\PSoC5/cyfitter_cfg.c **** 	(const void *)(BS_DSI0_4_HV_ROUTING_VAL),	/* TD 44 */
 376:.\Generated_Source\PSoC5/cyfitter_cfg.c **** 	(const void *)(BS_DSISWITCH_0_5_VAL),	/* TD 45 */
 377:.\Generated_Source\PSoC5/cyfitter_cfg.c **** 	(const void *)(BS_DSI0_5_HV_ROUTING_VAL),	/* TD 46 */
 378:.\Generated_Source\PSoC5/cyfitter_cfg.c **** 	(const void *)(BS_UDB_1_0_HV_ROUTING_VAL),	/* TD 47 */
 379:.\Generated_Source\PSoC5/cyfitter_cfg.c **** 	(const void *)(BS_UDB_2_0_HV_ROUTING_VAL),	/* TD 48 */
 380:.\Generated_Source\PSoC5/cyfitter_cfg.c **** 	(const void *)(BS_UDB_1_1_HV_ROUTING_VAL),	/* TD 49 */
 381:.\Generated_Source\PSoC5/cyfitter_cfg.c **** 	(const void *)(BS_UDB_2_1_HV_ROUTING_VAL),	/* TD 50 */
 382:.\Generated_Source\PSoC5/cyfitter_cfg.c **** 	(const void *)(BS_UDB_1_2_HV_ROUTING_VAL),	/* TD 51 */
 383:.\Generated_Source\PSoC5/cyfitter_cfg.c **** 	(const void *)(BS_UDB_2_2_HV_ROUTING_VAL),	/* TD 52 */
 384:.\Generated_Source\PSoC5/cyfitter_cfg.c **** 	(const void *)(BS_UDB_1_3_HV_ROUTING_VAL),	/* TD 53 */
 385:.\Generated_Source\PSoC5/cyfitter_cfg.c **** 	(const void *)(BS_UDB_2_3_HV_ROUTING_VAL),	/* TD 54 */
 386:.\Generated_Source\PSoC5/cyfitter_cfg.c **** 	(const void *)(BS_UDB_1_4_HV_ROUTING_VAL),	/* TD 55 */
ARM GAS  C:\Users\csap2972\AppData\Local\Temp\ccYNK1mP.s 			page 17


 387:.\Generated_Source\PSoC5/cyfitter_cfg.c **** 	(const void *)(BS_UDB_2_4_HV_ROUTING_VAL),	/* TD 56 */
 388:.\Generated_Source\PSoC5/cyfitter_cfg.c **** 	(const void *)(BS_UDBSWITCH_1_5_VAL),	/* TD 57 */
 389:.\Generated_Source\PSoC5/cyfitter_cfg.c **** 	(const void *)(BS_UDB_2_5_HV_ROUTING_VAL),	/* TD 58 */
 390:.\Generated_Source\PSoC5/cyfitter_cfg.c **** 	(const void *)(BS_DSI3_0_HV_ROUTING_VAL),	/* TD 59 */
 391:.\Generated_Source\PSoC5/cyfitter_cfg.c **** 	(const void *)(BS_DSISWITCH_1_1_VAL),	/* TD 60 */
 392:.\Generated_Source\PSoC5/cyfitter_cfg.c **** 	(const void *)(BS_DSI3_1_HV_ROUTING_VAL),	/* TD 61 */
 393:.\Generated_Source\PSoC5/cyfitter_cfg.c **** 	(const void *)(BS_DSI3_4_HV_ROUTING_VAL),	/* TD 62 */
 394:.\Generated_Source\PSoC5/cyfitter_cfg.c **** 	(const void *)(BS_DSISWITCH_1_5_VAL),	/* TD 63 */
 395:.\Generated_Source\PSoC5/cyfitter_cfg.c **** 	(const void *)(BS_DSI3_5_HV_ROUTING_VAL),	/* TD 64 */
 396:.\Generated_Source\PSoC5/cyfitter_cfg.c **** 	(const void *)(BS_UCFG_BCTL0_VAL),	/* TD 65 */
 397:.\Generated_Source\PSoC5/cyfitter_cfg.c **** };
 398:.\Generated_Source\PSoC5/cyfitter_cfg.c **** /*******************************************************************************
 399:.\Generated_Source\PSoC5/cyfitter_cfg.c **** * Function Name: cfg_dma_init
 400:.\Generated_Source\PSoC5/cyfitter_cfg.c **** ********************************************************************************
 401:.\Generated_Source\PSoC5/cyfitter_cfg.c **** * Summary:
 402:.\Generated_Source\PSoC5/cyfitter_cfg.c **** *  This function is used to copy device configuration data from constant values
 403:.\Generated_Source\PSoC5/cyfitter_cfg.c **** *  stored in memory into the proper chip configuration registers using DMA.  It
 404:.\Generated_Source\PSoC5/cyfitter_cfg.c **** *  pulls data out of the CFG_TD_LISTs to know exactly how/what to configure.
 405:.\Generated_Source\PSoC5/cyfitter_cfg.c **** *
 406:.\Generated_Source\PSoC5/cyfitter_cfg.c **** * Parameters:  
 407:.\Generated_Source\PSoC5/cyfitter_cfg.c **** *   void
 408:.\Generated_Source\PSoC5/cyfitter_cfg.c **** *
 409:.\Generated_Source\PSoC5/cyfitter_cfg.c **** * Return:
 410:.\Generated_Source\PSoC5/cyfitter_cfg.c **** *   void
 411:.\Generated_Source\PSoC5/cyfitter_cfg.c **** *
 412:.\Generated_Source\PSoC5/cyfitter_cfg.c **** *******************************************************************************/
 413:.\Generated_Source\PSoC5/cyfitter_cfg.c **** static void cfg_dma_init(void)
 414:.\Generated_Source\PSoC5/cyfitter_cfg.c **** {
 523              		.loc 1 414 0
 524              		.cfi_startproc
 525              		@ args = 0, pretend = 0, frame = 8
 526              		@ frame_needed = 1, uses_anonymous_args = 0
 527              		@ link register save eliminated.
 528 0000 80B4     		push	{r7}
 529              	.LCFI3:
 530              		.cfi_def_cfa_offset 4
 531 0002 83B0     		sub	sp, sp, #12
 532              	.LCFI4:
 533              		.cfi_def_cfa_offset 16
 534 0004 00AF     		add	r7, sp, #0
 535              		.cfi_offset 7, -4
 536              	.LCFI5:
 537              		.cfi_def_cfa_register 7
 415:.\Generated_Source\PSoC5/cyfitter_cfg.c **** 	int i;
 416:.\Generated_Source\PSoC5/cyfitter_cfg.c **** 
 417:.\Generated_Source\PSoC5/cyfitter_cfg.c **** 	DMA_ZERO_VAL = 0u;
 538              		.loc 1 417 0
 539 0006 40F20003 		movw	r3, #:lower16:DMA_ZERO_VAL
 540 000a C0F20003 		movt	r3, #:upper16:DMA_ZERO_VAL
 541 000e 4FF00002 		mov	r2, #0
 542 0012 1A60     		str	r2, [r3, #0]
 418:.\Generated_Source\PSoC5/cyfitter_cfg.c **** 	DMAC_CFGMEM[0].CFG0[0] = 0x10;		/* set burstcount */
 543              		.loc 1 418 0
 544 0014 47F20063 		movw	r3, #:lower16:1073772032
 545 0018 C4F20003 		movt	r3, #:upper16:1073772032
 546 001c 4FF01002 		mov	r2, #16
 547 0020 1A70     		strb	r2, [r3, #0]
ARM GAS  C:\Users\csap2972\AppData\Local\Temp\ccYNK1mP.s 			page 18


 419:.\Generated_Source\PSoC5/cyfitter_cfg.c **** 	DMAC_CH[0].basic_cfg[0] = 0x01u;	/* enable channel0 */
 548              		.loc 1 419 0
 549 0022 47F21003 		movw	r3, #:lower16:1073770512
 550 0026 C4F20003 		movt	r3, #:upper16:1073770512
 551 002a 4FF00102 		mov	r2, #1
 552 002e 1A70     		strb	r2, [r3, #0]
 420:.\Generated_Source\PSoC5/cyfitter_cfg.c **** 	DMAC_CH[0].basic_status[1] = 0;		/* set channel0's first td to 0 */
 553              		.loc 1 420 0
 554 0030 47F21003 		movw	r3, #:lower16:1073770512
 555 0034 C4F20003 		movt	r3, #:upper16:1073770512
 556 0038 4FF00002 		mov	r2, #0
 557 003c 5A72     		strb	r2, [r3, #9]
 421:.\Generated_Source\PSoC5/cyfitter_cfg.c **** 	
 422:.\Generated_Source\PSoC5/cyfitter_cfg.c **** 	DMAC_TDMEM[0].TD0[2] = 0x01;		/* set td0's next td to 1 */
 558              		.loc 1 422 0
 559 003e 47F60003 		movw	r3, #:lower16:1073772544
 560 0042 C4F20003 		movt	r3, #:upper16:1073772544
 561 0046 4FF00102 		mov	r2, #1
 562 004a 9A70     		strb	r2, [r3, #2]
 423:.\Generated_Source\PSoC5/cyfitter_cfg.c **** 	DMAC_TDMEM[0].TD0[3] = 0x03;		/* set td0's flags */
 563              		.loc 1 423 0
 564 004c 47F60003 		movw	r3, #:lower16:1073772544
 565 0050 C4F20003 		movt	r3, #:upper16:1073772544
 566 0054 4FF00302 		mov	r2, #3
 567 0058 DA70     		strb	r2, [r3, #3]
 424:.\Generated_Source\PSoC5/cyfitter_cfg.c **** 	CY_SET_REG16((reg16 *) &DMAC_TDMEM[0].TD0[0], 65*8);					/* set td0's size */
 568              		.loc 1 424 0
 569 005a 47F60003 		movw	r3, #:lower16:1073772544
 570 005e C4F20003 		movt	r3, #:upper16:1073772544
 571 0062 4FF40272 		mov	r2, #520
 572 0066 1A80     		strh	r2, [r3, #0]	@ movhi
 425:.\Generated_Source\PSoC5/cyfitter_cfg.c **** 	CY_SET_REG16((reg16 *) &DMAC_TDMEM[0].TD1[0], (uint16)(uint32)CFG_TD_LIST0);	/* set td0's src addr
 573              		.loc 1 425 0
 574 0068 47F60403 		movw	r3, #:lower16:1073772548
 575 006c C4F20003 		movt	r3, #:upper16:1073772548
 576 0070 40F20002 		movw	r2, #:lower16:CFG_TD_LIST0
 577 0074 C0F20002 		movt	r2, #:upper16:CFG_TD_LIST0
 578 0078 92B2     		uxth	r2, r2
 579 007a 1A80     		strh	r2, [r3, #0]	@ movhi
 426:.\Generated_Source\PSoC5/cyfitter_cfg.c **** 	CY_SET_REG16((reg16 *) &DMAC_TDMEM[0].TD1[2], CYDEV_PHUB_TDMEM1_BASE);	/* set td0's dst addr */
 580              		.loc 1 426 0
 581 007c 47F60603 		movw	r3, #:lower16:1073772550
 582 0080 C4F20003 		movt	r3, #:upper16:1073772550
 583 0084 47F60802 		movw	r2, #30728
 584 0088 1A80     		strh	r2, [r3, #0]	@ movhi
 427:.\Generated_Source\PSoC5/cyfitter_cfg.c **** 	CY_SET_REG16((reg16 *) &DMAC_CFGMEM[0].CFG1[0], (uint16)(CYDEV_FLASH_BASE >> 16));				/* set ch0's
 585              		.loc 1 427 0
 586 008a 47F20463 		movw	r3, #:lower16:1073772036
 587 008e C4F20003 		movt	r3, #:upper16:1073772036
 588 0092 4FF00002 		mov	r2, #0
 589 0096 1A80     		strh	r2, [r3, #0]	@ movhi
 428:.\Generated_Source\PSoC5/cyfitter_cfg.c **** 	CY_SET_REG16((reg16 *) &DMAC_CFGMEM[0].CFG1[2], (uint16)(CYDEV_PHUB_TDMEM1_BASE >> 16));				/* set
 590              		.loc 1 428 0
 591 0098 47F20663 		movw	r3, #:lower16:1073772038
 592 009c C4F20003 		movt	r3, #:upper16:1073772038
 593 00a0 4FF48042 		mov	r2, #16384
 594 00a4 1A80     		strh	r2, [r3, #0]	@ movhi
ARM GAS  C:\Users\csap2972\AppData\Local\Temp\ccYNK1mP.s 			page 19


 429:.\Generated_Source\PSoC5/cyfitter_cfg.c **** 	DMAC_CH[1].basic_status[1] = 0x09; /* First TD = 9 */
 595              		.loc 1 429 0
 596 00a6 47F22003 		movw	r3, #:lower16:1073770528
 597 00aa C4F20003 		movt	r3, #:upper16:1073770528
 598 00ae 4FF00902 		mov	r2, #9
 599 00b2 5A72     		strb	r2, [r3, #9]
 430:.\Generated_Source\PSoC5/cyfitter_cfg.c **** 	DMAC_CH[2].basic_status[1] = 0x0E; /* First TD = 14 */
 600              		.loc 1 430 0
 601 00b4 47F23003 		movw	r3, #:lower16:1073770544
 602 00b8 C4F20003 		movt	r3, #:upper16:1073770544
 603 00bc 4FF00E02 		mov	r2, #14
 604 00c0 5A72     		strb	r2, [r3, #9]
 431:.\Generated_Source\PSoC5/cyfitter_cfg.c **** 	DMAC_CH[5].basic_status[1] = 0x20; /* First TD = 32 */
 605              		.loc 1 431 0
 606 00c2 47F26003 		movw	r3, #:lower16:1073770592
 607 00c6 C4F20003 		movt	r3, #:upper16:1073770592
 608 00ca 4FF02002 		mov	r2, #32
 609 00ce 5A72     		strb	r2, [r3, #9]
 432:.\Generated_Source\PSoC5/cyfitter_cfg.c **** 	DMAC_CH[6].basic_status[1] = 0x23; /* First TD = 35 */
 610              		.loc 1 432 0
 611 00d0 47F27003 		movw	r3, #:lower16:1073770608
 612 00d4 C4F20003 		movt	r3, #:upper16:1073770608
 613 00d8 4FF02302 		mov	r2, #35
 614 00dc 5A72     		strb	r2, [r3, #9]
 433:.\Generated_Source\PSoC5/cyfitter_cfg.c **** 
 434:.\Generated_Source\PSoC5/cyfitter_cfg.c **** 	CY_CFG_MEMORY_BARRIER();
 615              		.loc 1 434 0
 435:.\Generated_Source\PSoC5/cyfitter_cfg.c **** 	DMAC_CH[0].action[0] = CPU_REQ;    /* initiate the DMA transfer */
 616              		.loc 1 435 0
 617 00de 47F21003 		movw	r3, #:lower16:1073770512
 618 00e2 C4F20003 		movt	r3, #:upper16:1073770512
 619 00e6 4FF00102 		mov	r2, #1
 620 00ea 1A71     		strb	r2, [r3, #4]
 436:.\Generated_Source\PSoC5/cyfitter_cfg.c **** 	CY_CFG_MEMORY_BARRIER();
 621              		.loc 1 436 0
 622              	.L5:
 437:.\Generated_Source\PSoC5/cyfitter_cfg.c **** 
 438:.\Generated_Source\PSoC5/cyfitter_cfg.c **** 	/* Wait for TDs to be copied into TDMEM */
 439:.\Generated_Source\PSoC5/cyfitter_cfg.c **** 	while ((*(volatile uint16 *)(DMAC_TDMEM[0].TD0))) {}
 623              		.loc 1 439 0
 624 00ec 47F60003 		movw	r3, #:lower16:1073772544
 625 00f0 C4F20003 		movt	r3, #:upper16:1073772544
 626 00f4 1B88     		ldrh	r3, [r3, #0]	@ movhi
 627 00f6 9BB2     		uxth	r3, r3
 628 00f8 002B     		cmp	r3, #0
 629 00fa F7D1     		bne	.L5
 440:.\Generated_Source\PSoC5/cyfitter_cfg.c **** 
 441:.\Generated_Source\PSoC5/cyfitter_cfg.c **** 	/* Recombine TD source table (CFG_TD_ADDR) with full TD table (CFG_TD_LIST) */
 442:.\Generated_Source\PSoC5/cyfitter_cfg.c **** 	for (i = 0; i < 65; i++)
 630              		.loc 1 442 0
 631 00fc 4FF00003 		mov	r3, #0
 632 0100 3B60     		str	r3, [r7, #0]
 633 0102 18E0     		b	.L6
 634              	.L7:
 635              	.LBB2:
 443:.\Generated_Source\PSoC5/cyfitter_cfg.c **** 	{
 444:.\Generated_Source\PSoC5/cyfitter_cfg.c **** 		volatile uint8 *srcAddrPtr = &DMAC_TDMEM[i+1].TD1[0];
ARM GAS  C:\Users\csap2972\AppData\Local\Temp\ccYNK1mP.s 			page 20


 636              		.loc 1 444 0
 637 0104 3B68     		ldr	r3, [r7, #0]
 638 0106 4FEAC302 		lsl	r2, r3, #3
 639 010a 47F60803 		movw	r3, #:lower16:1073772552
 640 010e C4F20003 		movt	r3, #:upper16:1073772552
 641 0112 1344     		add	r3, r2, r3
 642 0114 03F10403 		add	r3, r3, #4
 643 0118 7B60     		str	r3, [r7, #4]
 445:.\Generated_Source\PSoC5/cyfitter_cfg.c **** 		CY_SET_REG16(srcAddrPtr, (uint16)(uint32)CFG_TD_ADDR0[i]);
 644              		.loc 1 445 0
 645 011a 7A68     		ldr	r2, [r7, #4]
 646 011c 3968     		ldr	r1, [r7, #0]
 647 011e 40F20003 		movw	r3, #:lower16:CFG_TD_ADDR0
 648 0122 C0F20003 		movt	r3, #:upper16:CFG_TD_ADDR0
 649 0126 53F82130 		ldr	r3, [r3, r1, lsl #2]
 650 012a 9BB2     		uxth	r3, r3
 651 012c 1380     		strh	r3, [r2, #0]	@ movhi
 652              	.LBE2:
 653              		.loc 1 442 0
 654 012e 3B68     		ldr	r3, [r7, #0]
 655 0130 03F10103 		add	r3, r3, #1
 656 0134 3B60     		str	r3, [r7, #0]
 657              	.L6:
 658 0136 3B68     		ldr	r3, [r7, #0]
 659 0138 402B     		cmp	r3, #64
 660 013a E3DD     		ble	.L7
 446:.\Generated_Source\PSoC5/cyfitter_cfg.c **** 	}
 447:.\Generated_Source\PSoC5/cyfitter_cfg.c **** 
 448:.\Generated_Source\PSoC5/cyfitter_cfg.c **** 	CY_CFG_MEMORY_BARRIER();
 661              		.loc 1 448 0
 449:.\Generated_Source\PSoC5/cyfitter_cfg.c **** 	DMAC_CH[0].action[0] = CPU_REQ;    /* initiate the DMA transfer */
 662              		.loc 1 449 0
 663 013c 47F21003 		movw	r3, #:lower16:1073770512
 664 0140 C4F20003 		movt	r3, #:upper16:1073770512
 665 0144 4FF00102 		mov	r2, #1
 666 0148 1A71     		strb	r2, [r3, #4]
 450:.\Generated_Source\PSoC5/cyfitter_cfg.c **** 	CY_CFG_MEMORY_BARRIER();
 667              		.loc 1 450 0
 668              	.L8:
 451:.\Generated_Source\PSoC5/cyfitter_cfg.c **** 
 452:.\Generated_Source\PSoC5/cyfitter_cfg.c **** 	/* Wait for all DMA transfers to complete */
 453:.\Generated_Source\PSoC5/cyfitter_cfg.c **** 	while((CY_GET_REG8(CYREG_PHUB_CH0_BASIC_STATUS) & 0x01u)){}
 669              		.loc 1 453 0
 670 014a 47F21803 		movw	r3, #:lower16:1073770520
 671 014e C4F20003 		movt	r3, #:upper16:1073770520
 672 0152 1B78     		ldrb	r3, [r3, #0]
 673 0154 DBB2     		uxtb	r3, r3
 674 0156 03F00103 		and	r3, r3, #1
 675 015a DBB2     		uxtb	r3, r3
 676 015c 002B     		cmp	r3, #0
 677 015e F4D1     		bne	.L8
 678              	.L9:
 454:.\Generated_Source\PSoC5/cyfitter_cfg.c **** 	while((CY_GET_REG8(CYREG_PHUB_CH1_BASIC_STATUS) & 0x01u)){}
 679              		.loc 1 454 0
 680 0160 47F22803 		movw	r3, #:lower16:1073770536
 681 0164 C4F20003 		movt	r3, #:upper16:1073770536
 682 0168 1B78     		ldrb	r3, [r3, #0]
ARM GAS  C:\Users\csap2972\AppData\Local\Temp\ccYNK1mP.s 			page 21


 683 016a DBB2     		uxtb	r3, r3
 684 016c 03F00103 		and	r3, r3, #1
 685 0170 DBB2     		uxtb	r3, r3
 686 0172 002B     		cmp	r3, #0
 687 0174 F4D1     		bne	.L9
 688              	.L10:
 455:.\Generated_Source\PSoC5/cyfitter_cfg.c **** 	while((CY_GET_REG8(CYREG_PHUB_CH2_BASIC_STATUS) & 0x01u)){}
 689              		.loc 1 455 0
 690 0176 47F23803 		movw	r3, #:lower16:1073770552
 691 017a C4F20003 		movt	r3, #:upper16:1073770552
 692 017e 1B78     		ldrb	r3, [r3, #0]
 693 0180 DBB2     		uxtb	r3, r3
 694 0182 03F00103 		and	r3, r3, #1
 695 0186 DBB2     		uxtb	r3, r3
 696 0188 002B     		cmp	r3, #0
 697 018a F4D1     		bne	.L10
 698              	.L11:
 456:.\Generated_Source\PSoC5/cyfitter_cfg.c **** 	while((CY_GET_REG8(CYREG_PHUB_CH5_BASIC_STATUS) & 0x01u)){}
 699              		.loc 1 456 0
 700 018c 47F26803 		movw	r3, #:lower16:1073770600
 701 0190 C4F20003 		movt	r3, #:upper16:1073770600
 702 0194 1B78     		ldrb	r3, [r3, #0]
 703 0196 DBB2     		uxtb	r3, r3
 704 0198 03F00103 		and	r3, r3, #1
 705 019c DBB2     		uxtb	r3, r3
 706 019e 002B     		cmp	r3, #0
 707 01a0 F4D1     		bne	.L11
 708              	.L12:
 457:.\Generated_Source\PSoC5/cyfitter_cfg.c **** 	while((CY_GET_REG8(CYREG_PHUB_CH6_BASIC_STATUS) & 0x01u)){}
 709              		.loc 1 457 0
 710 01a2 47F27803 		movw	r3, #:lower16:1073770616
 711 01a6 C4F20003 		movt	r3, #:upper16:1073770616
 712 01aa 1B78     		ldrb	r3, [r3, #0]
 713 01ac DBB2     		uxtb	r3, r3
 714 01ae 03F00103 		and	r3, r3, #1
 715 01b2 DBB2     		uxtb	r3, r3
 716 01b4 002B     		cmp	r3, #0
 717 01b6 F4D1     		bne	.L12
 458:.\Generated_Source\PSoC5/cyfitter_cfg.c **** 
 459:.\Generated_Source\PSoC5/cyfitter_cfg.c **** 
 460:.\Generated_Source\PSoC5/cyfitter_cfg.c **** }
 718              		.loc 1 460 0
 719 01b8 07F10C07 		add	r7, r7, #12
 720 01bc BD46     		mov	sp, r7
 721 01be 80BC     		pop	{r7}
 722 01c0 7047     		bx	lr
 723              		.cfi_endproc
 724              	.LFE1:
 725              		.size	cfg_dma_init, .-cfg_dma_init
 726 01c2 00BF     		.section	.text.ClockSetup,"ax",%progbits
 727              		.align	2
 728              		.thumb
 729              		.thumb_func
 730              		.type	ClockSetup, %function
 731              	ClockSetup:
 732              	.LFB2:
 461:.\Generated_Source\PSoC5/cyfitter_cfg.c **** /*******************************************************************************
ARM GAS  C:\Users\csap2972\AppData\Local\Temp\ccYNK1mP.s 			page 22


 462:.\Generated_Source\PSoC5/cyfitter_cfg.c **** * Function Name: ClockSetup
 463:.\Generated_Source\PSoC5/cyfitter_cfg.c **** ********************************************************************************
 464:.\Generated_Source\PSoC5/cyfitter_cfg.c **** *
 465:.\Generated_Source\PSoC5/cyfitter_cfg.c **** * Summary:
 466:.\Generated_Source\PSoC5/cyfitter_cfg.c **** *  Performs the initialization of all of the clocks in the device based on the
 467:.\Generated_Source\PSoC5/cyfitter_cfg.c **** *  settings in the Clock tab of the DWR.  This includes enabling the requested
 468:.\Generated_Source\PSoC5/cyfitter_cfg.c **** *  clocks and setting the necessary dividers to produce the desired frequency. 
 469:.\Generated_Source\PSoC5/cyfitter_cfg.c **** *
 470:.\Generated_Source\PSoC5/cyfitter_cfg.c **** * Parameters:
 471:.\Generated_Source\PSoC5/cyfitter_cfg.c **** *  void
 472:.\Generated_Source\PSoC5/cyfitter_cfg.c **** *
 473:.\Generated_Source\PSoC5/cyfitter_cfg.c **** * Return:
 474:.\Generated_Source\PSoC5/cyfitter_cfg.c **** *  void
 475:.\Generated_Source\PSoC5/cyfitter_cfg.c **** *
 476:.\Generated_Source\PSoC5/cyfitter_cfg.c **** *******************************************************************************/
 477:.\Generated_Source\PSoC5/cyfitter_cfg.c **** static void ClockSetup(void)
 478:.\Generated_Source\PSoC5/cyfitter_cfg.c **** {
 733              		.loc 1 478 0
 734              		.cfi_startproc
 735              		@ args = 0, pretend = 0, frame = 16
 736              		@ frame_needed = 1, uses_anonymous_args = 0
 737 0000 80B5     		push	{r7, lr}
 738              	.LCFI6:
 739              		.cfi_def_cfa_offset 8
 740 0002 84B0     		sub	sp, sp, #16
 741              	.LCFI7:
 742              		.cfi_def_cfa_offset 24
 743 0004 00AF     		add	r7, sp, #0
 744              		.cfi_offset 14, -4
 745              		.cfi_offset 7, -8
 746              	.LCFI8:
 747              		.cfi_def_cfa_register 7
 479:.\Generated_Source\PSoC5/cyfitter_cfg.c **** 	reg32  timeout;
 480:.\Generated_Source\PSoC5/cyfitter_cfg.c **** 	reg32* timeout_p = &timeout;
 748              		.loc 1 480 0
 749 0006 07F10803 		add	r3, r7, #8
 750 000a FB60     		str	r3, [r7, #12]
 481:.\Generated_Source\PSoC5/cyfitter_cfg.c **** 	reg8   pllLock;
 482:.\Generated_Source\PSoC5/cyfitter_cfg.c **** 
 483:.\Generated_Source\PSoC5/cyfitter_cfg.c **** 
 484:.\Generated_Source\PSoC5/cyfitter_cfg.c **** 	/* Configure Digital Clocks based on settings from Clock DWR */
 485:.\Generated_Source\PSoC5/cyfitter_cfg.c **** 	CY_SET_XTND_REG24((void CYFAR *)(CYREG_CLKDIST_DCFG0_CFG0), 0x580000);
 751              		.loc 1 485 0
 752 000c 44F28000 		movw	r0, #:lower16:1073758336
 753 0010 C4F20000 		movt	r0, #:upper16:1073758336
 754 0014 4FF4B001 		mov	r1, #5767168
 755 0018 FFF7FEFF 		bl	CySetReg24
 486:.\Generated_Source\PSoC5/cyfitter_cfg.c **** 	CY_SET_XTND_REG24((void CYFAR *)(CYREG_CLKDIST_DCFG1_CFG0), 0x180009);
 756              		.loc 1 486 0
 757 001c 44F28400 		movw	r0, #:lower16:1073758340
 758 0020 C4F20000 		movt	r0, #:upper16:1073758340
 759 0024 40F20901 		movw	r1, #:lower16:1572873
 760 0028 C0F21801 		movt	r1, #:upper16:1572873
 761 002c FFF7FEFF 		bl	CySetReg24
 487:.\Generated_Source\PSoC5/cyfitter_cfg.c **** 
 488:.\Generated_Source\PSoC5/cyfitter_cfg.c **** 	/* Configure Analog Clocks based on settings from Clock DWR */
 489:.\Generated_Source\PSoC5/cyfitter_cfg.c **** 	CYCONFIGCPY((void CYFAR *)(CYREG_CLKDIST_ACFG0_CFG0), (void CYFAR *)(BS_CYDEV_CLKDIST_ACFG0_CFG0_V
ARM GAS  C:\Users\csap2972\AppData\Local\Temp\ccYNK1mP.s 			page 23


 762              		.loc 1 489 0
 763 0030 44F20010 		movw	r0, #:lower16:1073758464
 764 0034 C4F20000 		movt	r0, #:upper16:1073758464
 765 0038 40F6C061 		movw	r1, #:lower16:1207963328
 766 003c C4F60001 		movt	r1, #:upper16:1207963328
 767 0040 4FF00802 		mov	r2, #8
 768 0044 FFF7FEFF 		bl	memcpy
 490:.\Generated_Source\PSoC5/cyfitter_cfg.c **** 
 491:.\Generated_Source\PSoC5/cyfitter_cfg.c **** 	/* Configure ILO based on settings from Clock DWR */
 492:.\Generated_Source\PSoC5/cyfitter_cfg.c **** 	CY_SET_XTND_REG8((void CYFAR *)(CYREG_SLOWCLK_ILO_CR0), 0x02);
 769              		.loc 1 492 0
 770 0048 44F20033 		movw	r3, #:lower16:1073758976
 771 004c C4F20003 		movt	r3, #:upper16:1073758976
 772 0050 4FF00202 		mov	r2, #2
 773 0054 1A70     		strb	r2, [r3, #0]
 493:.\Generated_Source\PSoC5/cyfitter_cfg.c **** 	CY_SET_XTND_REG8((void CYFAR *)(CYREG_CLKDIST_CR), 0x08);
 774              		.loc 1 493 0
 775 0056 44F20003 		movw	r3, #:lower16:1073758208
 776 005a C4F20003 		movt	r3, #:upper16:1073758208
 777 005e 4FF00802 		mov	r2, #8
 778 0062 1A70     		strb	r2, [r3, #0]
 494:.\Generated_Source\PSoC5/cyfitter_cfg.c **** 
 495:.\Generated_Source\PSoC5/cyfitter_cfg.c **** 	/* Configure XTAL based on settings from Clock DWR */
 496:.\Generated_Source\PSoC5/cyfitter_cfg.c **** 	CY_SET_XTND_REG16((void CYFAR *)(CYREG_FASTCLK_XMHZ_CFG0), 0x3316);
 779              		.loc 1 496 0
 780 0064 44F21223 		movw	r3, #:lower16:1073758738
 781 0068 C4F20003 		movt	r3, #:upper16:1073758738
 782 006c 43F21632 		movw	r2, #13078
 783 0070 1A80     		strh	r2, [r3, #0]	@ movhi
 497:.\Generated_Source\PSoC5/cyfitter_cfg.c **** 	CY_SET_XTND_REG8((void CYFAR *)(CYREG_FASTCLK_XMHZ_CSR), 0x01);
 784              		.loc 1 497 0
 785 0072 44F21023 		movw	r3, #:lower16:1073758736
 786 0076 C4F20003 		movt	r3, #:upper16:1073758736
 787 007a 4FF00102 		mov	r2, #1
 788 007e 1A70     		strb	r2, [r3, #0]
 498:.\Generated_Source\PSoC5/cyfitter_cfg.c **** 	/* Wait up to 130000us for the XTAL to lock */
 499:.\Generated_Source\PSoC5/cyfitter_cfg.c **** 	CY_GET_XTND_REG8(CYREG_FASTCLK_XMHZ_CSR);
 789              		.loc 1 499 0
 790 0080 44F21023 		movw	r3, #:lower16:1073758736
 791 0084 C4F20003 		movt	r3, #:upper16:1073758736
 792 0088 1B78     		ldrb	r3, [r3, #0]
 500:.\Generated_Source\PSoC5/cyfitter_cfg.c **** 	for (timeout = 130000 / 10; *timeout_p && (CY_GET_XTND_REG8(CYREG_FASTCLK_XMHZ_CSR) & 0x80u); time
 793              		.loc 1 500 0
 794 008a 43F2C823 		movw	r3, #13000
 795 008e BB60     		str	r3, [r7, #8]
 796 0090 07E0     		b	.L15
 797              	.L17:
 501:.\Generated_Source\PSoC5/cyfitter_cfg.c **** 		
 502:.\Generated_Source\PSoC5/cyfitter_cfg.c **** 		CyDelayCycles(10 * 12); /* Delay 10us based on 12MHz clock */
 798              		.loc 1 502 0
 799 0092 4FF07800 		mov	r0, #120
 800 0096 FFF7FEFF 		bl	CyDelayCycles
 801              		.loc 1 500 0
 802 009a BB68     		ldr	r3, [r7, #8]
 803 009c 03F1FF33 		add	r3, r3, #-1
 804 00a0 BB60     		str	r3, [r7, #8]
 805              	.L15:
ARM GAS  C:\Users\csap2972\AppData\Local\Temp\ccYNK1mP.s 			page 24


 806 00a2 FB68     		ldr	r3, [r7, #12]
 807 00a4 1B68     		ldr	r3, [r3, #0]
 808 00a6 002B     		cmp	r3, #0
 809 00a8 08D0     		beq	.L16
 810 00aa 44F21023 		movw	r3, #:lower16:1073758736
 811 00ae C4F20003 		movt	r3, #:upper16:1073758736
 812 00b2 1B78     		ldrb	r3, [r3, #0]
 813 00b4 DBB2     		uxtb	r3, r3
 814 00b6 5BB2     		sxtb	r3, r3
 815 00b8 002B     		cmp	r3, #0
 816 00ba EADB     		blt	.L17
 817              	.L16:
 503:.\Generated_Source\PSoC5/cyfitter_cfg.c **** 	}
 504:.\Generated_Source\PSoC5/cyfitter_cfg.c **** 	if (*timeout_p == 0)
 818              		.loc 1 504 0
 819 00bc FB68     		ldr	r3, [r7, #12]
 820 00be 1B68     		ldr	r3, [r3, #0]
 821 00c0 002B     		cmp	r3, #0
 822 00c2 03D1     		bne	.L18
 505:.\Generated_Source\PSoC5/cyfitter_cfg.c **** 		CyClockStartupError(CYCLOCKSTART_XTAL_ERROR);
 823              		.loc 1 505 0
 824 00c4 4FF00100 		mov	r0, #1
 825 00c8 FFF7FEFF 		bl	CyClockStartupError
 826              	.L18:
 506:.\Generated_Source\PSoC5/cyfitter_cfg.c **** 	CY_SET_XTND_REG8((void CYFAR *)(CYREG_CLKDIST_CR), 0x48);
 827              		.loc 1 506 0
 828 00cc 44F20003 		movw	r3, #:lower16:1073758208
 829 00d0 C4F20003 		movt	r3, #:upper16:1073758208
 830 00d4 4FF04802 		mov	r2, #72
 831 00d8 1A70     		strb	r2, [r3, #0]
 507:.\Generated_Source\PSoC5/cyfitter_cfg.c **** 
 508:.\Generated_Source\PSoC5/cyfitter_cfg.c **** 	/* Configure IMO based on settings from Clock DWR */
 509:.\Generated_Source\PSoC5/cyfitter_cfg.c **** 	CY_SET_XTND_REG8((void CYFAR *)(CYREG_FASTCLK_IMO_CR), 0x20);
 832              		.loc 1 509 0
 833 00da 44F20023 		movw	r3, #:lower16:1073758720
 834 00de C4F20003 		movt	r3, #:upper16:1073758720
 835 00e2 4FF02002 		mov	r2, #32
 836 00e6 1A70     		strb	r2, [r3, #0]
 510:.\Generated_Source\PSoC5/cyfitter_cfg.c **** 
 511:.\Generated_Source\PSoC5/cyfitter_cfg.c **** 	/* Configure PLL based on settings from Clock DWR */
 512:.\Generated_Source\PSoC5/cyfitter_cfg.c **** 	CY_SET_XTND_REG16((void CYFAR *)(CYREG_FASTCLK_PLL_P), 0x0818);
 837              		.loc 1 512 0
 838 00e8 44F22223 		movw	r3, #:lower16:1073758754
 839 00ec C4F20003 		movt	r3, #:upper16:1073758754
 840 00f0 40F61802 		movw	r2, #2072
 841 00f4 1A80     		strh	r2, [r3, #0]	@ movhi
 513:.\Generated_Source\PSoC5/cyfitter_cfg.c **** 	CY_SET_XTND_REG16((void CYFAR *)(CYREG_FASTCLK_PLL_CFG0), 0x1051);
 842              		.loc 1 513 0
 843 00f6 44F22023 		movw	r3, #:lower16:1073758752
 844 00fa C4F20003 		movt	r3, #:upper16:1073758752
 845 00fe 41F25102 		movw	r2, #4177
 846 0102 1A80     		strh	r2, [r3, #0]	@ movhi
 514:.\Generated_Source\PSoC5/cyfitter_cfg.c **** 	/* Wait up to 250us for the PLL to lock */
 515:.\Generated_Source\PSoC5/cyfitter_cfg.c **** 	pllLock = 0;
 847              		.loc 1 515 0
 848 0104 4FF00003 		mov	r3, #0
 849 0108 FB71     		strb	r3, [r7, #7]
ARM GAS  C:\Users\csap2972\AppData\Local\Temp\ccYNK1mP.s 			page 25


 516:.\Generated_Source\PSoC5/cyfitter_cfg.c **** 	for (timeout = 250 / 10; *timeout_p && (pllLock != 0x03u); timeout--) { 
 850              		.loc 1 516 0
 851 010a 4FF01903 		mov	r3, #25
 852 010e BB60     		str	r3, [r7, #8]
 853 0110 1AE0     		b	.L19
 854              	.L21:
 517:.\Generated_Source\PSoC5/cyfitter_cfg.c **** 		pllLock = 0x03u & ((pllLock << 1) | ((CY_GET_XTND_REG8(CYREG_FASTCLK_PLL_SR) & 0x01u) >> 0));
 855              		.loc 1 517 0
 856 0112 FB79     		ldrb	r3, [r7, #7]
 857 0114 DBB2     		uxtb	r3, r3
 858 0116 4FEA4303 		lsl	r3, r3, #1
 859 011a DAB2     		uxtb	r2, r3
 860 011c 44F22523 		movw	r3, #:lower16:1073758757
 861 0120 C4F20003 		movt	r3, #:upper16:1073758757
 862 0124 1B78     		ldrb	r3, [r3, #0]
 863 0126 DBB2     		uxtb	r3, r3
 864 0128 03F00103 		and	r3, r3, #1
 865 012c 42EA0303 		orr	r3, r2, r3
 866 0130 DBB2     		uxtb	r3, r3
 867 0132 03F00303 		and	r3, r3, #3
 868 0136 FB71     		strb	r3, [r7, #7]
 518:.\Generated_Source\PSoC5/cyfitter_cfg.c **** 		CyDelayCycles(10 * 12); /* Delay 10us based on 12MHz clock */
 869              		.loc 1 518 0
 870 0138 4FF07800 		mov	r0, #120
 871 013c FFF7FEFF 		bl	CyDelayCycles
 872              		.loc 1 516 0
 873 0140 BB68     		ldr	r3, [r7, #8]
 874 0142 03F1FF33 		add	r3, r3, #-1
 875 0146 BB60     		str	r3, [r7, #8]
 876              	.L19:
 877 0148 FB68     		ldr	r3, [r7, #12]
 878 014a 1B68     		ldr	r3, [r3, #0]
 879 014c 002B     		cmp	r3, #0
 880 014e 03D0     		beq	.L20
 881 0150 FB79     		ldrb	r3, [r7, #7]
 882 0152 DBB2     		uxtb	r3, r3
 883 0154 032B     		cmp	r3, #3
 884 0156 DCD1     		bne	.L21
 885              	.L20:
 519:.\Generated_Source\PSoC5/cyfitter_cfg.c **** 	}
 520:.\Generated_Source\PSoC5/cyfitter_cfg.c **** 
 521:.\Generated_Source\PSoC5/cyfitter_cfg.c **** 	/* Configure Bus/Master Clock based on settings from Clock DWR */
 522:.\Generated_Source\PSoC5/cyfitter_cfg.c **** 	CY_SET_XTND_REG16((void CYFAR *)(CYREG_CLKDIST_MSTR0), 0x0100);
 886              		.loc 1 522 0
 887 0158 44F20403 		movw	r3, #:lower16:1073758212
 888 015c C4F20003 		movt	r3, #:upper16:1073758212
 889 0160 4FF48072 		mov	r2, #256
 890 0164 1A80     		strh	r2, [r3, #0]	@ movhi
 523:.\Generated_Source\PSoC5/cyfitter_cfg.c **** 	CY_SET_XTND_REG8((void CYFAR *)(CYREG_CLKDIST_MSTR0), 0x07);
 891              		.loc 1 523 0
 892 0166 44F20403 		movw	r3, #:lower16:1073758212
 893 016a C4F20003 		movt	r3, #:upper16:1073758212
 894 016e 4FF00702 		mov	r2, #7
 895 0172 1A70     		strb	r2, [r3, #0]
 524:.\Generated_Source\PSoC5/cyfitter_cfg.c **** 	CY_SET_XTND_REG8((void CYFAR *)(CYREG_CLKDIST_BCFG0), 0x00);
 896              		.loc 1 524 0
 897 0174 44F20603 		movw	r3, #:lower16:1073758214
ARM GAS  C:\Users\csap2972\AppData\Local\Temp\ccYNK1mP.s 			page 26


 898 0178 C4F20003 		movt	r3, #:upper16:1073758214
 899 017c 4FF00002 		mov	r2, #0
 900 0180 1A70     		strb	r2, [r3, #0]
 525:.\Generated_Source\PSoC5/cyfitter_cfg.c **** 	CY_SET_XTND_REG8((void CYFAR *)(CYREG_CLKDIST_BCFG2), 0x48);
 901              		.loc 1 525 0
 902 0182 44F20803 		movw	r3, #:lower16:1073758216
 903 0186 C4F20003 		movt	r3, #:upper16:1073758216
 904 018a 4FF04802 		mov	r2, #72
 905 018e 1A70     		strb	r2, [r3, #0]
 526:.\Generated_Source\PSoC5/cyfitter_cfg.c **** 	CY_SET_XTND_REG8((void CYFAR *)(CYREG_CLKDIST_MSTR0), 0x00);
 906              		.loc 1 526 0
 907 0190 44F20403 		movw	r3, #:lower16:1073758212
 908 0194 C4F20003 		movt	r3, #:upper16:1073758212
 909 0198 4FF00002 		mov	r2, #0
 910 019c 1A70     		strb	r2, [r3, #0]
 527:.\Generated_Source\PSoC5/cyfitter_cfg.c **** 	CY_SET_XTND_REG8((void CYFAR *)(CYREG_CLKDIST_LD), 0x02);
 911              		.loc 1 527 0
 912 019e 44F20103 		movw	r3, #:lower16:1073758209
 913 01a2 C4F20003 		movt	r3, #:upper16:1073758209
 914 01a6 4FF00202 		mov	r2, #2
 915 01aa 1A70     		strb	r2, [r3, #0]
 528:.\Generated_Source\PSoC5/cyfitter_cfg.c **** 	CY_SET_XTND_REG8((void CYFAR *)(CYREG_CLKDIST_DLY1), 0x04);
 916              		.loc 1 528 0
 917 01ac 44F20B03 		movw	r3, #:lower16:1073758219
 918 01b0 C4F20003 		movt	r3, #:upper16:1073758219
 919 01b4 4FF00402 		mov	r2, #4
 920 01b8 1A70     		strb	r2, [r3, #0]
 529:.\Generated_Source\PSoC5/cyfitter_cfg.c **** 
 530:.\Generated_Source\PSoC5/cyfitter_cfg.c **** 	CY_SET_XTND_REG8((void CYFAR *)(CYREG_PM_ACT_CFG2), ((CY_GET_XTND_REG8(CYREG_PM_ACT_CFG2) | 0x03))
 921              		.loc 1 530 0
 922 01ba 44F2A233 		movw	r3, #:lower16:1073759138
 923 01be C4F20003 		movt	r3, #:upper16:1073759138
 924 01c2 44F2A232 		movw	r2, #:lower16:1073759138
 925 01c6 C4F20002 		movt	r2, #:upper16:1073759138
 926 01ca 1278     		ldrb	r2, [r2, #0]
 927 01cc D2B2     		uxtb	r2, r2
 928 01ce 42F00302 		orr	r2, r2, #3
 929 01d2 D2B2     		uxtb	r2, r2
 930 01d4 1A70     		strb	r2, [r3, #0]
 531:.\Generated_Source\PSoC5/cyfitter_cfg.c **** 	CY_SET_XTND_REG8((void CYFAR *)(CYREG_PM_ACT_CFG1), ((CY_GET_XTND_REG8(CYREG_PM_ACT_CFG1) | 0x03))
 931              		.loc 1 531 0
 932 01d6 44F2A133 		movw	r3, #:lower16:1073759137
 933 01da C4F20003 		movt	r3, #:upper16:1073759137
 934 01de 44F2A132 		movw	r2, #:lower16:1073759137
 935 01e2 C4F20002 		movt	r2, #:upper16:1073759137
 936 01e6 1278     		ldrb	r2, [r2, #0]
 937 01e8 D2B2     		uxtb	r2, r2
 938 01ea 42F00302 		orr	r2, r2, #3
 939 01ee D2B2     		uxtb	r2, r2
 940 01f0 1A70     		strb	r2, [r3, #0]
 532:.\Generated_Source\PSoC5/cyfitter_cfg.c **** 	CY_SET_XTND_REG8((void CYFAR *)(CYREG_PM_ACT_CFG0), ((CY_GET_XTND_REG8(CYREG_PM_ACT_CFG0) | 0x80))
 941              		.loc 1 532 0
 942 01f2 44F2A033 		movw	r3, #:lower16:1073759136
 943 01f6 C4F20003 		movt	r3, #:upper16:1073759136
 944 01fa 44F2A032 		movw	r2, #:lower16:1073759136
 945 01fe C4F20002 		movt	r2, #:upper16:1073759136
 946 0202 1278     		ldrb	r2, [r2, #0]
ARM GAS  C:\Users\csap2972\AppData\Local\Temp\ccYNK1mP.s 			page 27


 947 0204 D2B2     		uxtb	r2, r2
 948 0206 6FEA4262 		mvn	r2, r2, lsl #25
 949 020a 6FEA5262 		mvn	r2, r2, lsr #25
 950 020e D2B2     		uxtb	r2, r2
 951 0210 1A70     		strb	r2, [r3, #0]
 533:.\Generated_Source\PSoC5/cyfitter_cfg.c **** }
 952              		.loc 1 533 0
 953 0212 07F11007 		add	r7, r7, #16
 954 0216 BD46     		mov	sp, r7
 955 0218 80BD     		pop	{r7, pc}
 956              		.cfi_endproc
 957              	.LFE2:
 958              		.size	ClockSetup, .-ClockSetup
 959 021a 00BF     		.section	.text.AnalogSetDefault,"ax",%progbits
 960              		.align	2
 961              		.global	AnalogSetDefault
 962              		.thumb
 963              		.thumb_func
 964              		.type	AnalogSetDefault, %function
 965              	AnalogSetDefault:
 966              	.LFB3:
 534:.\Generated_Source\PSoC5/cyfitter_cfg.c **** 
 535:.\Generated_Source\PSoC5/cyfitter_cfg.c **** 
 536:.\Generated_Source\PSoC5/cyfitter_cfg.c **** /* Analog API Functions */
 537:.\Generated_Source\PSoC5/cyfitter_cfg.c **** 
 538:.\Generated_Source\PSoC5/cyfitter_cfg.c **** /*******************************************************************************
 539:.\Generated_Source\PSoC5/cyfitter_cfg.c **** * Function Name: AnalogSetDefault
 540:.\Generated_Source\PSoC5/cyfitter_cfg.c **** ********************************************************************************
 541:.\Generated_Source\PSoC5/cyfitter_cfg.c **** *
 542:.\Generated_Source\PSoC5/cyfitter_cfg.c **** * Summary:
 543:.\Generated_Source\PSoC5/cyfitter_cfg.c **** *  Sets up the analog portions of the chip to default values based on chip
 544:.\Generated_Source\PSoC5/cyfitter_cfg.c **** *  configuration options from the project.
 545:.\Generated_Source\PSoC5/cyfitter_cfg.c **** *
 546:.\Generated_Source\PSoC5/cyfitter_cfg.c **** * Parameters:
 547:.\Generated_Source\PSoC5/cyfitter_cfg.c **** *  void
 548:.\Generated_Source\PSoC5/cyfitter_cfg.c **** *
 549:.\Generated_Source\PSoC5/cyfitter_cfg.c **** * Return:
 550:.\Generated_Source\PSoC5/cyfitter_cfg.c **** *  void
 551:.\Generated_Source\PSoC5/cyfitter_cfg.c **** *
 552:.\Generated_Source\PSoC5/cyfitter_cfg.c **** *******************************************************************************/
 553:.\Generated_Source\PSoC5/cyfitter_cfg.c **** void AnalogSetDefault(void)
 554:.\Generated_Source\PSoC5/cyfitter_cfg.c **** {
 967              		.loc 1 554 0
 968              		.cfi_startproc
 969              		@ args = 0, pretend = 0, frame = 8
 970              		@ frame_needed = 1, uses_anonymous_args = 0
 971              		@ link register save eliminated.
 972 0000 80B4     		push	{r7}
 973              	.LCFI9:
 974              		.cfi_def_cfa_offset 4
 975 0002 83B0     		sub	sp, sp, #12
 976              	.LCFI10:
 977              		.cfi_def_cfa_offset 16
 978 0004 00AF     		add	r7, sp, #0
 979              		.cfi_offset 7, -4
 980              	.LCFI11:
 981              		.cfi_def_cfa_register 7
ARM GAS  C:\Users\csap2972\AppData\Local\Temp\ccYNK1mP.s 			page 28


 555:.\Generated_Source\PSoC5/cyfitter_cfg.c **** 	uint8 bg_xover_inl_trim = CY_GET_XTND_REG8(CYREG_FLSHID_MFG_CFG_BG_XOVER_INL_TRIM + 1u);
 982              		.loc 1 555 0
 983 0006 40F2CF13 		movw	r3, #:lower16:1224737231
 984 000a C4F60013 		movt	r3, #:upper16:1224737231
 985 000e 1B78     		ldrb	r3, [r3, #0]
 986 0010 FB71     		strb	r3, [r7, #7]
 556:.\Generated_Source\PSoC5/cyfitter_cfg.c **** 	CY_SET_XTND_REG8(CYREG_BG_DFT0, bg_xover_inl_trim & 0x07u);
 987              		.loc 1 556 0
 988 0012 45F66E03 		movw	r3, #:lower16:1073764462
 989 0016 C4F20003 		movt	r3, #:upper16:1073764462
 990 001a FA79     		ldrb	r2, [r7, #7]	@ zero_extendqisi2
 991 001c 02F00702 		and	r2, r2, #7
 992 0020 1A70     		strb	r2, [r3, #0]
 557:.\Generated_Source\PSoC5/cyfitter_cfg.c **** 	CY_SET_XTND_REG8(CYREG_BG_DFT1, (bg_xover_inl_trim >> 4) & 0x0Fu);
 993              		.loc 1 557 0
 994 0022 45F66F03 		movw	r3, #:lower16:1073764463
 995 0026 C4F20003 		movt	r3, #:upper16:1073764463
 996 002a FA79     		ldrb	r2, [r7, #7]	@ zero_extendqisi2
 997 002c 4FEA1212 		lsr	r2, r2, #4
 998 0030 D2B2     		uxtb	r2, r2
 999 0032 1A70     		strb	r2, [r3, #0]
 558:.\Generated_Source\PSoC5/cyfitter_cfg.c **** 	CY_SET_XTND_REG16(CYREG_PRT4_AMUX, 0x0F20);
 1000              		.loc 1 558 0
 1001 0034 45F24C13 		movw	r3, #:lower16:1073762636
 1002 0038 C4F20003 		movt	r3, #:upper16:1073762636
 1003 003c 4FF47262 		mov	r2, #3872
 1004 0040 1A80     		strh	r2, [r3, #0]	@ movhi
 559:.\Generated_Source\PSoC5/cyfitter_cfg.c **** 	CY_SET_XTND_REG8(CYREG_DAC1_SW0, 0x02);
 1005              		.loc 1 559 0
 1006 0042 45F68823 		movw	r3, #:lower16:1073765000
 1007 0046 C4F20003 		movt	r3, #:upper16:1073765000
 1008 004a 4FF00202 		mov	r2, #2
 1009 004e 1A70     		strb	r2, [r3, #0]
 560:.\Generated_Source\PSoC5/cyfitter_cfg.c **** 	CY_SET_XTND_REG8(CYREG_DAC1_SW3, 0x01);
 1010              		.loc 1 560 0
 1011 0050 45F68B23 		movw	r3, #:lower16:1073765003
 1012 0054 C4F20003 		movt	r3, #:upper16:1073765003
 1013 0058 4FF00102 		mov	r2, #1
 1014 005c 1A70     		strb	r2, [r3, #0]
 561:.\Generated_Source\PSoC5/cyfitter_cfg.c **** 	CY_SET_XTND_REG16(CYREG_CMP1_SW3, 0x4008);
 1015              		.loc 1 561 0
 1016 005e 45F6CB23 		movw	r3, #:lower16:1073765067
 1017 0062 C4F20003 		movt	r3, #:upper16:1073765067
 1018 0066 44F20802 		movw	r2, #16392
 1019 006a 1A80     		strh	r2, [r3, #0]	@ movhi
 562:.\Generated_Source\PSoC5/cyfitter_cfg.c **** 	CY_SET_XTND_REG8(CYREG_CMP2_SW0, 0x10);
 1020              		.loc 1 562 0
 1021 006c 45F6D023 		movw	r3, #:lower16:1073765072
 1022 0070 C4F20003 		movt	r3, #:upper16:1073765072
 1023 0074 4FF01002 		mov	r2, #16
 1024 0078 1A70     		strb	r2, [r3, #0]
 563:.\Generated_Source\PSoC5/cyfitter_cfg.c **** 	CY_SET_XTND_REG8(CYREG_CMP2_SW4, 0x80);
 1025              		.loc 1 563 0
 1026 007a 45F6D423 		movw	r3, #:lower16:1073765076
 1027 007e C4F20003 		movt	r3, #:upper16:1073765076
 1028 0082 6FF07F02 		mvn	r2, #127
 1029 0086 1A70     		strb	r2, [r3, #0]
ARM GAS  C:\Users\csap2972\AppData\Local\Temp\ccYNK1mP.s 			page 29


 564:.\Generated_Source\PSoC5/cyfitter_cfg.c **** 	CY_SET_XTND_REG16(CYREG_CMP3_SW3, 0x0208);
 1030              		.loc 1 564 0
 1031 0088 45F6DB23 		movw	r3, #:lower16:1073765083
 1032 008c C4F20003 		movt	r3, #:upper16:1073765083
 1033 0090 4FF40272 		mov	r2, #520
 1034 0094 1A80     		strh	r2, [r3, #0]	@ movhi
 565:.\Generated_Source\PSoC5/cyfitter_cfg.c **** 	CY_SET_XTND_REG8(CYREG_DSM0_SW0, 0x20);
 1035              		.loc 1 565 0
 1036 0096 45F60033 		movw	r3, #:lower16:1073765120
 1037 009a C4F20003 		movt	r3, #:upper16:1073765120
 1038 009e 4FF02002 		mov	r2, #32
 1039 00a2 1A70     		strb	r2, [r3, #0]
 566:.\Generated_Source\PSoC5/cyfitter_cfg.c **** 	CY_SET_XTND_REG8(CYREG_BUS_SW0, 0x40);
 1040              		.loc 1 566 0
 1041 00a4 45F65833 		movw	r3, #:lower16:1073765208
 1042 00a8 C4F20003 		movt	r3, #:upper16:1073765208
 1043 00ac 4FF04002 		mov	r2, #64
 1044 00b0 1A70     		strb	r2, [r3, #0]
 567:.\Generated_Source\PSoC5/cyfitter_cfg.c **** 	CY_SET_XTND_REG8(CYREG_BUS_SW3, 0x01);
 1045              		.loc 1 567 0
 1046 00b2 45F65B33 		movw	r3, #:lower16:1073765211
 1047 00b6 C4F20003 		movt	r3, #:upper16:1073765211
 1048 00ba 4FF00102 		mov	r2, #1
 1049 00be 1A70     		strb	r2, [r3, #0]
 568:.\Generated_Source\PSoC5/cyfitter_cfg.c **** 	CY_SET_XTND_REG8(CYREG_PUMP_CR0, 0x44);
 1050              		.loc 1 568 0
 1051 00c0 45F67603 		movw	r3, #:lower16:1073764470
 1052 00c4 C4F20003 		movt	r3, #:upper16:1073764470
 1053 00c8 4FF04402 		mov	r2, #68
 1054 00cc 1A70     		strb	r2, [r3, #0]
 569:.\Generated_Source\PSoC5/cyfitter_cfg.c **** }
 1055              		.loc 1 569 0
 1056 00ce 07F10C07 		add	r7, r7, #12
 1057 00d2 BD46     		mov	sp, r7
 1058 00d4 80BC     		pop	{r7}
 1059 00d6 7047     		bx	lr
 1060              		.cfi_endproc
 1061              	.LFE3:
 1062              		.size	AnalogSetDefault, .-AnalogSetDefault
 1063              		.section	.text.SetAnalogRoutingPumps,"ax",%progbits
 1064              		.align	2
 1065              		.global	SetAnalogRoutingPumps
 1066              		.thumb
 1067              		.thumb_func
 1068              		.type	SetAnalogRoutingPumps, %function
 1069              	SetAnalogRoutingPumps:
 1070              	.LFB4:
 570:.\Generated_Source\PSoC5/cyfitter_cfg.c **** 
 571:.\Generated_Source\PSoC5/cyfitter_cfg.c **** 
 572:.\Generated_Source\PSoC5/cyfitter_cfg.c **** /*******************************************************************************
 573:.\Generated_Source\PSoC5/cyfitter_cfg.c **** * Function Name: SetAnalogRoutingPumps
 574:.\Generated_Source\PSoC5/cyfitter_cfg.c **** ********************************************************************************
 575:.\Generated_Source\PSoC5/cyfitter_cfg.c **** *
 576:.\Generated_Source\PSoC5/cyfitter_cfg.c **** * Summary:
 577:.\Generated_Source\PSoC5/cyfitter_cfg.c **** * Enables or disables the analog pumps feeding analog routing switches.
 578:.\Generated_Source\PSoC5/cyfitter_cfg.c **** * Intended to be called at startup, based on the Vdda system configuration;
 579:.\Generated_Source\PSoC5/cyfitter_cfg.c **** * may be called during operation when the user informs us that the Vdda voltage crossed the pump th
ARM GAS  C:\Users\csap2972\AppData\Local\Temp\ccYNK1mP.s 			page 30


 580:.\Generated_Source\PSoC5/cyfitter_cfg.c **** *
 581:.\Generated_Source\PSoC5/cyfitter_cfg.c **** * Parameters:
 582:.\Generated_Source\PSoC5/cyfitter_cfg.c **** *  enabled - 1 to enable the pumps, 0 to disable the pumps
 583:.\Generated_Source\PSoC5/cyfitter_cfg.c **** *
 584:.\Generated_Source\PSoC5/cyfitter_cfg.c **** * Return:
 585:.\Generated_Source\PSoC5/cyfitter_cfg.c **** *  void
 586:.\Generated_Source\PSoC5/cyfitter_cfg.c **** *
 587:.\Generated_Source\PSoC5/cyfitter_cfg.c **** *******************************************************************************/
 588:.\Generated_Source\PSoC5/cyfitter_cfg.c **** void SetAnalogRoutingPumps(uint8 enabled)
 589:.\Generated_Source\PSoC5/cyfitter_cfg.c **** {
 1071              		.loc 1 589 0
 1072              		.cfi_startproc
 1073              		@ args = 0, pretend = 0, frame = 16
 1074              		@ frame_needed = 1, uses_anonymous_args = 0
 1075              		@ link register save eliminated.
 1076 0000 80B4     		push	{r7}
 1077              	.LCFI12:
 1078              		.cfi_def_cfa_offset 4
 1079 0002 85B0     		sub	sp, sp, #20
 1080              	.LCFI13:
 1081              		.cfi_def_cfa_offset 24
 1082 0004 00AF     		add	r7, sp, #0
 1083              		.cfi_offset 7, -4
 1084              	.LCFI14:
 1085              		.cfi_def_cfa_register 7
 1086 0006 0346     		mov	r3, r0
 1087 0008 FB71     		strb	r3, [r7, #7]
 590:.\Generated_Source\PSoC5/cyfitter_cfg.c **** 	uint8 regValue = CY_GET_XTND_REG8(CYREG_PUMP_CR0);
 1088              		.loc 1 590 0
 1089 000a 45F67603 		movw	r3, #:lower16:1073764470
 1090 000e C4F20003 		movt	r3, #:upper16:1073764470
 1091 0012 1B78     		ldrb	r3, [r3, #0]
 1092 0014 FB73     		strb	r3, [r7, #15]
 591:.\Generated_Source\PSoC5/cyfitter_cfg.c **** 	if (enabled)
 1093              		.loc 1 591 0
 1094 0016 FB79     		ldrb	r3, [r7, #7]	@ zero_extendqisi2
 1095 0018 002B     		cmp	r3, #0
 1096 001a 04D0     		beq	.L26
 592:.\Generated_Source\PSoC5/cyfitter_cfg.c **** 		regValue |= 0x22;
 1097              		.loc 1 592 0
 1098 001c FB7B     		ldrb	r3, [r7, #15]
 1099 001e 43F02203 		orr	r3, r3, #34
 1100 0022 FB73     		strb	r3, [r7, #15]
 1101 0024 03E0     		b	.L27
 1102              	.L26:
 593:.\Generated_Source\PSoC5/cyfitter_cfg.c **** 	else
 594:.\Generated_Source\PSoC5/cyfitter_cfg.c **** 		regValue &= ~0x22;
 1103              		.loc 1 594 0
 1104 0026 FB7B     		ldrb	r3, [r7, #15]
 1105 0028 23F02203 		bic	r3, r3, #34
 1106 002c FB73     		strb	r3, [r7, #15]
 1107              	.L27:
 595:.\Generated_Source\PSoC5/cyfitter_cfg.c **** 	CY_SET_XTND_REG8(CYREG_PUMP_CR0, regValue);
 1108              		.loc 1 595 0
 1109 002e 45F67603 		movw	r3, #:lower16:1073764470
 1110 0032 C4F20003 		movt	r3, #:upper16:1073764470
 1111 0036 FA7B     		ldrb	r2, [r7, #15]
ARM GAS  C:\Users\csap2972\AppData\Local\Temp\ccYNK1mP.s 			page 31


 1112 0038 1A70     		strb	r2, [r3, #0]
 596:.\Generated_Source\PSoC5/cyfitter_cfg.c **** }
 1113              		.loc 1 596 0
 1114 003a 07F11407 		add	r7, r7, #20
 1115 003e BD46     		mov	sp, r7
 1116 0040 80BC     		pop	{r7}
 1117 0042 7047     		bx	lr
 1118              		.cfi_endproc
 1119              	.LFE4:
 1120              		.size	SetAnalogRoutingPumps, .-SetAnalogRoutingPumps
 1121              		.global	ADC_DelSig_AMux__addrTable
 1122              		.section	.rodata
 1123              		.align	2
 1124              		.type	ADC_DelSig_AMux__addrTable, %object
 1125              		.size	ADC_DelSig_AMux__addrTable, 8
 1126              	ADC_DelSig_AMux__addrTable:
 1127 0104 035B0040 		.word	1073765123
 1128 0108 035B0040 		.word	1073765123
 1129              		.global	ADC_DelSig_AMux__maskTable
 1130              		.align	2
 1131              		.type	ADC_DelSig_AMux__maskTable, %object
 1132              		.size	ADC_DelSig_AMux__maskTable, 2
 1133              	ADC_DelSig_AMux__maskTable:
 1134 010c 40       		.byte	64
 1135 010d 20       		.byte	32
 1136 010e 0000     		.section	.text.ADC_DelSig_AMux_Set,"ax",%progbits
 1137              		.align	2
 1138              		.global	ADC_DelSig_AMux_Set
 1139              		.thumb
 1140              		.thumb_func
 1141              		.type	ADC_DelSig_AMux_Set, %function
 1142              	ADC_DelSig_AMux_Set:
 1143              	.LFB5:
 597:.\Generated_Source\PSoC5/cyfitter_cfg.c **** 
 598:.\Generated_Source\PSoC5/cyfitter_cfg.c **** #define CY_AMUX_UNUSED CYREG_BOOST_SR
 599:.\Generated_Source\PSoC5/cyfitter_cfg.c **** /* Table used to specify registers used to implement ADC_DelSig_AMux */
 600:.\Generated_Source\PSoC5/cyfitter_cfg.c **** uint8 CYXDATA * const CYCODE ADC_DelSig_AMux__addrTable[] = {
 601:.\Generated_Source\PSoC5/cyfitter_cfg.c **** 	(uint8 CYXDATA *)CYREG_DSM0_SW3, 
 602:.\Generated_Source\PSoC5/cyfitter_cfg.c **** 	(uint8 CYXDATA *)CYREG_DSM0_SW3, 
 603:.\Generated_Source\PSoC5/cyfitter_cfg.c **** };
 604:.\Generated_Source\PSoC5/cyfitter_cfg.c **** 
 605:.\Generated_Source\PSoC5/cyfitter_cfg.c **** /* Table used to define bit masks used to enable inputs for ADC_DelSig_AMux */
 606:.\Generated_Source\PSoC5/cyfitter_cfg.c **** const uint8 CYCODE ADC_DelSig_AMux__maskTable[] = {
 607:.\Generated_Source\PSoC5/cyfitter_cfg.c **** 	0x40, 
 608:.\Generated_Source\PSoC5/cyfitter_cfg.c **** 	0x20, 
 609:.\Generated_Source\PSoC5/cyfitter_cfg.c **** };
 610:.\Generated_Source\PSoC5/cyfitter_cfg.c **** 
 611:.\Generated_Source\PSoC5/cyfitter_cfg.c **** /*******************************************************************************
 612:.\Generated_Source\PSoC5/cyfitter_cfg.c **** * Function Name: ADC_DelSig_AMux_Set
 613:.\Generated_Source\PSoC5/cyfitter_cfg.c **** ********************************************************************************
 614:.\Generated_Source\PSoC5/cyfitter_cfg.c **** * Summary:
 615:.\Generated_Source\PSoC5/cyfitter_cfg.c **** *  This function is used to set a particular channel as active on the AMux.
 616:.\Generated_Source\PSoC5/cyfitter_cfg.c **** *
 617:.\Generated_Source\PSoC5/cyfitter_cfg.c **** * Parameters:  
 618:.\Generated_Source\PSoC5/cyfitter_cfg.c **** *   channel - The mux channel input to set as active
 619:.\Generated_Source\PSoC5/cyfitter_cfg.c **** *
 620:.\Generated_Source\PSoC5/cyfitter_cfg.c **** * Return:
ARM GAS  C:\Users\csap2972\AppData\Local\Temp\ccYNK1mP.s 			page 32


 621:.\Generated_Source\PSoC5/cyfitter_cfg.c **** *   void
 622:.\Generated_Source\PSoC5/cyfitter_cfg.c **** *
 623:.\Generated_Source\PSoC5/cyfitter_cfg.c **** *******************************************************************************/
 624:.\Generated_Source\PSoC5/cyfitter_cfg.c **** void ADC_DelSig_AMux_Set(uint8 channel)
 625:.\Generated_Source\PSoC5/cyfitter_cfg.c **** {
 1144              		.loc 1 625 0
 1145              		.cfi_startproc
 1146              		@ args = 0, pretend = 0, frame = 8
 1147              		@ frame_needed = 1, uses_anonymous_args = 0
 1148              		@ link register save eliminated.
 1149 0000 80B4     		push	{r7}
 1150              	.LCFI15:
 1151              		.cfi_def_cfa_offset 4
 1152 0002 83B0     		sub	sp, sp, #12
 1153              	.LCFI16:
 1154              		.cfi_def_cfa_offset 16
 1155 0004 00AF     		add	r7, sp, #0
 1156              		.cfi_offset 7, -4
 1157              	.LCFI17:
 1158              		.cfi_def_cfa_register 7
 1159 0006 0346     		mov	r3, r0
 1160 0008 FB71     		strb	r3, [r7, #7]
 626:.\Generated_Source\PSoC5/cyfitter_cfg.c **** 	if (channel >= 2)
 1161              		.loc 1 626 0
 1162 000a FB79     		ldrb	r3, [r7, #7]	@ zero_extendqisi2
 1163 000c 012B     		cmp	r3, #1
 1164 000e 19D8     		bhi	.L33
 1165              	.L30:
 627:.\Generated_Source\PSoC5/cyfitter_cfg.c **** 		return;
 628:.\Generated_Source\PSoC5/cyfitter_cfg.c **** 	*ADC_DelSig_AMux__addrTable[channel] |= ADC_DelSig_AMux__maskTable[channel];
 1166              		.loc 1 628 0
 1167 0010 FA79     		ldrb	r2, [r7, #7]	@ zero_extendqisi2
 1168 0012 40F20003 		movw	r3, #:lower16:ADC_DelSig_AMux__addrTable
 1169 0016 C0F20003 		movt	r3, #:upper16:ADC_DelSig_AMux__addrTable
 1170 001a 53F82220 		ldr	r2, [r3, r2, lsl #2]
 1171 001e F979     		ldrb	r1, [r7, #7]	@ zero_extendqisi2
 1172 0020 40F20003 		movw	r3, #:lower16:ADC_DelSig_AMux__addrTable
 1173 0024 C0F20003 		movt	r3, #:upper16:ADC_DelSig_AMux__addrTable
 1174 0028 53F82130 		ldr	r3, [r3, r1, lsl #2]
 1175 002c 1978     		ldrb	r1, [r3, #0]	@ zero_extendqisi2
 1176 002e F879     		ldrb	r0, [r7, #7]	@ zero_extendqisi2
 1177 0030 40F20003 		movw	r3, #:lower16:ADC_DelSig_AMux__maskTable
 1178 0034 C0F20003 		movt	r3, #:upper16:ADC_DelSig_AMux__maskTable
 1179 0038 1B5C     		ldrb	r3, [r3, r0]	@ zero_extendqisi2
 1180 003a 41EA0303 		orr	r3, r1, r3
 1181 003e DBB2     		uxtb	r3, r3
 1182 0040 1370     		strb	r3, [r2, #0]
 1183 0042 00E0     		b	.L32
 1184              	.L33:
 1185              		.loc 1 627 0
 1186 0044 00BF     		nop
 1187              	.L32:
 629:.\Generated_Source\PSoC5/cyfitter_cfg.c **** }
 1188              		.loc 1 629 0
 1189 0046 07F10C07 		add	r7, r7, #12
 1190 004a BD46     		mov	sp, r7
 1191 004c 80BC     		pop	{r7}
ARM GAS  C:\Users\csap2972\AppData\Local\Temp\ccYNK1mP.s 			page 33


 1192 004e 7047     		bx	lr
 1193              		.cfi_endproc
 1194              	.LFE5:
 1195              		.size	ADC_DelSig_AMux_Set, .-ADC_DelSig_AMux_Set
 1196              		.section	.text.ADC_DelSig_AMux_Unset,"ax",%progbits
 1197              		.align	2
 1198              		.global	ADC_DelSig_AMux_Unset
 1199              		.thumb
 1200              		.thumb_func
 1201              		.type	ADC_DelSig_AMux_Unset, %function
 1202              	ADC_DelSig_AMux_Unset:
 1203              	.LFB6:
 630:.\Generated_Source\PSoC5/cyfitter_cfg.c **** 
 631:.\Generated_Source\PSoC5/cyfitter_cfg.c **** /*******************************************************************************
 632:.\Generated_Source\PSoC5/cyfitter_cfg.c **** * Function Name: ADC_DelSig_AMux_Unset
 633:.\Generated_Source\PSoC5/cyfitter_cfg.c **** ********************************************************************************
 634:.\Generated_Source\PSoC5/cyfitter_cfg.c **** * Summary:
 635:.\Generated_Source\PSoC5/cyfitter_cfg.c **** *  This function is used to clear a particular channel from being active on the
 636:.\Generated_Source\PSoC5/cyfitter_cfg.c **** *  AMux.
 637:.\Generated_Source\PSoC5/cyfitter_cfg.c **** *
 638:.\Generated_Source\PSoC5/cyfitter_cfg.c **** * Parameters:  
 639:.\Generated_Source\PSoC5/cyfitter_cfg.c **** *   channel - The mux channel input to mark inactive
 640:.\Generated_Source\PSoC5/cyfitter_cfg.c **** *
 641:.\Generated_Source\PSoC5/cyfitter_cfg.c **** * Return:
 642:.\Generated_Source\PSoC5/cyfitter_cfg.c **** *   void
 643:.\Generated_Source\PSoC5/cyfitter_cfg.c **** *
 644:.\Generated_Source\PSoC5/cyfitter_cfg.c **** *******************************************************************************/
 645:.\Generated_Source\PSoC5/cyfitter_cfg.c **** void ADC_DelSig_AMux_Unset(uint8 channel)
 646:.\Generated_Source\PSoC5/cyfitter_cfg.c **** {
 1204              		.loc 1 646 0
 1205              		.cfi_startproc
 1206              		@ args = 0, pretend = 0, frame = 8
 1207              		@ frame_needed = 1, uses_anonymous_args = 0
 1208              		@ link register save eliminated.
 1209 0000 80B4     		push	{r7}
 1210              	.LCFI18:
 1211              		.cfi_def_cfa_offset 4
 1212 0002 83B0     		sub	sp, sp, #12
 1213              	.LCFI19:
 1214              		.cfi_def_cfa_offset 16
 1215 0004 00AF     		add	r7, sp, #0
 1216              		.cfi_offset 7, -4
 1217              	.LCFI20:
 1218              		.cfi_def_cfa_register 7
 1219 0006 0346     		mov	r3, r0
 1220 0008 FB71     		strb	r3, [r7, #7]
 647:.\Generated_Source\PSoC5/cyfitter_cfg.c **** 	if (channel >= 2)
 1221              		.loc 1 647 0
 1222 000a FB79     		ldrb	r3, [r7, #7]	@ zero_extendqisi2
 1223 000c 012B     		cmp	r3, #1
 1224 000e 1ED8     		bhi	.L38
 1225              	.L35:
 648:.\Generated_Source\PSoC5/cyfitter_cfg.c **** 		return;
 649:.\Generated_Source\PSoC5/cyfitter_cfg.c **** 	*ADC_DelSig_AMux__addrTable[channel] &= ~ADC_DelSig_AMux__maskTable[channel];
 1226              		.loc 1 649 0
 1227 0010 FA79     		ldrb	r2, [r7, #7]	@ zero_extendqisi2
 1228 0012 40F20003 		movw	r3, #:lower16:ADC_DelSig_AMux__addrTable
ARM GAS  C:\Users\csap2972\AppData\Local\Temp\ccYNK1mP.s 			page 34


 1229 0016 C0F20003 		movt	r3, #:upper16:ADC_DelSig_AMux__addrTable
 1230 001a 53F82220 		ldr	r2, [r3, r2, lsl #2]
 1231 001e F979     		ldrb	r1, [r7, #7]	@ zero_extendqisi2
 1232 0020 40F20003 		movw	r3, #:lower16:ADC_DelSig_AMux__addrTable
 1233 0024 C0F20003 		movt	r3, #:upper16:ADC_DelSig_AMux__addrTable
 1234 0028 53F82130 		ldr	r3, [r3, r1, lsl #2]
 1235 002c 1B78     		ldrb	r3, [r3, #0]	@ zero_extendqisi2
 1236 002e 1946     		mov	r1, r3
 1237 0030 F879     		ldrb	r0, [r7, #7]	@ zero_extendqisi2
 1238 0032 40F20003 		movw	r3, #:lower16:ADC_DelSig_AMux__maskTable
 1239 0036 C0F20003 		movt	r3, #:upper16:ADC_DelSig_AMux__maskTable
 1240 003a 1B5C     		ldrb	r3, [r3, r0]	@ zero_extendqisi2
 1241 003c 6FEA0303 		mvn	r3, r3
 1242 0040 DBB2     		uxtb	r3, r3
 1243 0042 01EA0303 		and	r3, r1, r3
 1244 0046 DBB2     		uxtb	r3, r3
 1245 0048 DBB2     		uxtb	r3, r3
 1246 004a 1370     		strb	r3, [r2, #0]
 1247 004c 00E0     		b	.L37
 1248              	.L38:
 1249              		.loc 1 648 0
 1250 004e 00BF     		nop
 1251              	.L37:
 650:.\Generated_Source\PSoC5/cyfitter_cfg.c **** }
 1252              		.loc 1 650 0
 1253 0050 07F10C07 		add	r7, r7, #12
 1254 0054 BD46     		mov	sp, r7
 1255 0056 80BC     		pop	{r7}
 1256 0058 7047     		bx	lr
 1257              		.cfi_endproc
 1258              	.LFE6:
 1259              		.size	ADC_DelSig_AMux_Unset, .-ADC_DelSig_AMux_Unset
 1260 005a 00BF     		.section	.text.cyfitter_cfg,"ax",%progbits
 1261              		.align	2
 1262              		.global	cyfitter_cfg
 1263              		.thumb
 1264              		.thumb_func
 1265              		.type	cyfitter_cfg, %function
 1266              	cyfitter_cfg:
 1267              	.LFB7:
 651:.\Generated_Source\PSoC5/cyfitter_cfg.c **** 
 652:.\Generated_Source\PSoC5/cyfitter_cfg.c **** 
 653:.\Generated_Source\PSoC5/cyfitter_cfg.c **** 
 654:.\Generated_Source\PSoC5/cyfitter_cfg.c **** /*******************************************************************************
 655:.\Generated_Source\PSoC5/cyfitter_cfg.c **** * Function Name: cyfitter_cfg
 656:.\Generated_Source\PSoC5/cyfitter_cfg.c **** ********************************************************************************
 657:.\Generated_Source\PSoC5/cyfitter_cfg.c **** * Summary:
 658:.\Generated_Source\PSoC5/cyfitter_cfg.c **** *  This function is called by the start-up code for the selected device. It
 659:.\Generated_Source\PSoC5/cyfitter_cfg.c **** *  performs all of the necessary device configuration based on the design
 660:.\Generated_Source\PSoC5/cyfitter_cfg.c **** *  settings.  This includes settings from the Design Wide Resources (DWR) such
 661:.\Generated_Source\PSoC5/cyfitter_cfg.c **** *  as Clocks and Pins as well as any component configuration that is necessary.
 662:.\Generated_Source\PSoC5/cyfitter_cfg.c **** *
 663:.\Generated_Source\PSoC5/cyfitter_cfg.c **** * Parameters:  
 664:.\Generated_Source\PSoC5/cyfitter_cfg.c **** *   void
 665:.\Generated_Source\PSoC5/cyfitter_cfg.c **** *
 666:.\Generated_Source\PSoC5/cyfitter_cfg.c **** * Return:
 667:.\Generated_Source\PSoC5/cyfitter_cfg.c **** *   void
ARM GAS  C:\Users\csap2972\AppData\Local\Temp\ccYNK1mP.s 			page 35


 668:.\Generated_Source\PSoC5/cyfitter_cfg.c **** *
 669:.\Generated_Source\PSoC5/cyfitter_cfg.c **** *******************************************************************************/
 670:.\Generated_Source\PSoC5/cyfitter_cfg.c **** void cyfitter_cfg(void)
 671:.\Generated_Source\PSoC5/cyfitter_cfg.c **** {
 1268              		.loc 1 671 0
 1269              		.cfi_startproc
 1270              		@ args = 0, pretend = 0, frame = 0
 1271              		@ frame_needed = 1, uses_anonymous_args = 0
 1272 0000 80B5     		push	{r7, lr}
 1273              	.LCFI21:
 1274              		.cfi_def_cfa_offset 8
 1275 0002 00AF     		add	r7, sp, #0
 1276              		.cfi_offset 14, -4
 1277              		.cfi_offset 7, -8
 1278              	.LCFI22:
 1279              		.cfi_def_cfa_register 7
 672:.\Generated_Source\PSoC5/cyfitter_cfg.c **** #ifdef CYGlobalIntDisable
 673:.\Generated_Source\PSoC5/cyfitter_cfg.c **** 	/* Disable interrupts by default. Let user enable if/when they want. */
 674:.\Generated_Source\PSoC5/cyfitter_cfg.c **** 	CYGlobalIntDisable;
 1280              		.loc 1 674 0
 1281              	@ 674 ".\Generated_Source\PSoC5\cyfitter_cfg.c" 1
 1282 0004 72B6     		CPSID   i
 1283              	@ 0 "" 2
 675:.\Generated_Source\PSoC5/cyfitter_cfg.c **** #endif
 676:.\Generated_Source\PSoC5/cyfitter_cfg.c **** 
 677:.\Generated_Source\PSoC5/cyfitter_cfg.c **** 
 678:.\Generated_Source\PSoC5/cyfitter_cfg.c **** 	/* Set Flash Cycles based on max possible frequency in case a glitch occurs during ClockSetup(). *
 679:.\Generated_Source\PSoC5/cyfitter_cfg.c **** 	CY_SET_XTND_REG8((void CYFAR *)(CYREG_CACHE_CC_CTL), ((CYDEV_INSTRUCT_CACHE_ENABLED) ? 0x01 : 0x00
 1284              		.loc 1 679 0
 1285              		.thumb
 1286 0006 44F60003 		movw	r3, #:lower16:1073760256
 1287 000a C4F20003 		movt	r3, #:upper16:1073760256
 1288 000e 4FF00102 		mov	r2, #1
 1289 0012 1A70     		strb	r2, [r3, #0]
 680:.\Generated_Source\PSoC5/cyfitter_cfg.c **** 	/* Setup clocks based on selections from Clock DWR */
 681:.\Generated_Source\PSoC5/cyfitter_cfg.c **** 	ClockSetup();
 1290              		.loc 1 681 0
 1291 0014 FFF7FEFF 		bl	ClockSetup
 682:.\Generated_Source\PSoC5/cyfitter_cfg.c **** 	/* Enable/Disable Debug functionality based on settings from System DWR */
 683:.\Generated_Source\PSoC5/cyfitter_cfg.c **** 	CY_SET_XTND_REG8(CYREG_MLOGIC_DEBUG, (CY_GET_XTND_REG8(CYREG_MLOGIC_DEBUG) | 0x04));
 1292              		.loc 1 683 0
 1293 0018 44F2E863 		movw	r3, #:lower16:1073759976
 1294 001c C4F20003 		movt	r3, #:upper16:1073759976
 1295 0020 44F2E862 		movw	r2, #:lower16:1073759976
 1296 0024 C4F20002 		movt	r2, #:upper16:1073759976
 1297 0028 1278     		ldrb	r2, [r2, #0]
 1298 002a D2B2     		uxtb	r2, r2
 1299 002c 42F00402 		orr	r2, r2, #4
 1300 0030 D2B2     		uxtb	r2, r2
 1301 0032 1A70     		strb	r2, [r3, #0]
 684:.\Generated_Source\PSoC5/cyfitter_cfg.c **** 
 685:.\Generated_Source\PSoC5/cyfitter_cfg.c **** 	{
 686:.\Generated_Source\PSoC5/cyfitter_cfg.c **** 		cfg_dma_init();
 1302              		.loc 1 686 0
 1303 0034 FFF7FEFF 		bl	cfg_dma_init
 687:.\Generated_Source\PSoC5/cyfitter_cfg.c **** 
 688:.\Generated_Source\PSoC5/cyfitter_cfg.c **** 		/* Perform normal device configuration. Order is not critical for these items. */
ARM GAS  C:\Users\csap2972\AppData\Local\Temp\ccYNK1mP.s 			page 36


 689:.\Generated_Source\PSoC5/cyfitter_cfg.c **** 		CY_SET_XTND_REG16((void CYFAR *)(CYREG_LUT1_CR), 0x0103);
 1304              		.loc 1 689 0
 1305 0038 45F64A03 		movw	r3, #:lower16:1073764426
 1306 003c C4F20003 		movt	r3, #:upper16:1073764426
 1307 0040 40F20312 		movw	r2, #259
 1308 0044 1A80     		strh	r2, [r3, #0]	@ movhi
 690:.\Generated_Source\PSoC5/cyfitter_cfg.c **** 		CY_SET_XTND_REG16((void CYFAR *)(CYREG_LUT2_CR), 0x0203);
 1309              		.loc 1 690 0
 1310 0046 45F64C03 		movw	r3, #:lower16:1073764428
 1311 004a C4F20003 		movt	r3, #:upper16:1073764428
 1312 004e 40F20322 		movw	r2, #515
 1313 0052 1A80     		strh	r2, [r3, #0]	@ movhi
 691:.\Generated_Source\PSoC5/cyfitter_cfg.c **** 		CY_SET_XTND_REG16((void CYFAR *)(CYREG_LUT3_CR), 0x0303);
 1314              		.loc 1 691 0
 1315 0054 45F64E03 		movw	r3, #:lower16:1073764430
 1316 0058 C4F20003 		movt	r3, #:upper16:1073764430
 1317 005c 40F20332 		movw	r2, #771
 1318 0060 1A80     		strh	r2, [r3, #0]	@ movhi
 692:.\Generated_Source\PSoC5/cyfitter_cfg.c **** 		CYMEMZERO((void CYFAR *)(CYREG_PHUB_CFGMEM10_CFG0), 4);
 1319              		.loc 1 692 0
 1320 0062 47F25060 		movw	r0, #:lower16:1073772112
 1321 0066 C4F20000 		movt	r0, #:upper16:1073772112
 1322 006a 4FF00001 		mov	r1, #0
 1323 006e 4FF00402 		mov	r2, #4
 1324 0072 FFF7FEFF 		bl	memset
 693:.\Generated_Source\PSoC5/cyfitter_cfg.c **** 
 694:.\Generated_Source\PSoC5/cyfitter_cfg.c **** 		/* Enable digital routing */
 695:.\Generated_Source\PSoC5/cyfitter_cfg.c **** 		CY_SET_XTND_REG8(CYREG_BCTL0_BANK_CTL, CY_GET_XTND_REG8(CYREG_BCTL0_BANK_CTL) | 0x02u);
 1325              		.loc 1 695 0
 1326 0076 45F20303 		movw	r3, #:lower16:1073827843
 1327 007a C4F20103 		movt	r3, #:upper16:1073827843
 1328 007e 45F20302 		movw	r2, #:lower16:1073827843
 1329 0082 C4F20102 		movt	r2, #:upper16:1073827843
 1330 0086 1278     		ldrb	r2, [r2, #0]
 1331 0088 D2B2     		uxtb	r2, r2
 1332 008a 42F00202 		orr	r2, r2, #2
 1333 008e D2B2     		uxtb	r2, r2
 1334 0090 1A70     		strb	r2, [r3, #0]
 696:.\Generated_Source\PSoC5/cyfitter_cfg.c **** 		CY_SET_XTND_REG8(CYREG_BCTL1_BANK_CTL, CY_GET_XTND_REG8(CYREG_BCTL1_BANK_CTL) | 0x02u);
 1335              		.loc 1 696 0
 1336 0092 45F21303 		movw	r3, #:lower16:1073827859
 1337 0096 C4F20103 		movt	r3, #:upper16:1073827859
 1338 009a 45F21302 		movw	r2, #:lower16:1073827859
 1339 009e C4F20102 		movt	r2, #:upper16:1073827859
 1340 00a2 1278     		ldrb	r2, [r2, #0]
 1341 00a4 D2B2     		uxtb	r2, r2
 1342 00a6 42F00202 		orr	r2, r2, #2
 1343 00aa D2B2     		uxtb	r2, r2
 1344 00ac 1A70     		strb	r2, [r3, #0]
 697:.\Generated_Source\PSoC5/cyfitter_cfg.c **** 
 698:.\Generated_Source\PSoC5/cyfitter_cfg.c **** 		/* Enable UDB array */
 699:.\Generated_Source\PSoC5/cyfitter_cfg.c **** 		CY_SET_XTND_REG8(CYREG_PM_ACT_CFG0, CY_GET_XTND_REG8(CYREG_PM_ACT_CFG0) | 0x40u);
 1345              		.loc 1 699 0
 1346 00ae 44F2A033 		movw	r3, #:lower16:1073759136
 1347 00b2 C4F20003 		movt	r3, #:upper16:1073759136
 1348 00b6 44F2A032 		movw	r2, #:lower16:1073759136
 1349 00ba C4F20002 		movt	r2, #:upper16:1073759136
ARM GAS  C:\Users\csap2972\AppData\Local\Temp\ccYNK1mP.s 			page 37


 1350 00be 1278     		ldrb	r2, [r2, #0]
 1351 00c0 D2B2     		uxtb	r2, r2
 1352 00c2 42F04002 		orr	r2, r2, #64
 1353 00c6 D2B2     		uxtb	r2, r2
 1354 00c8 1A70     		strb	r2, [r3, #0]
 700:.\Generated_Source\PSoC5/cyfitter_cfg.c **** 		CY_SET_XTND_REG8(CYREG_PM_AVAIL_CR2, CY_GET_XTND_REG8(CYREG_PM_AVAIL_CR2) | 0x10u);
 1355              		.loc 1 700 0
 1356 00ca 44F2C233 		movw	r3, #:lower16:1073759170
 1357 00ce C4F20003 		movt	r3, #:upper16:1073759170
 1358 00d2 44F2C232 		movw	r2, #:lower16:1073759170
 1359 00d6 C4F20002 		movt	r2, #:upper16:1073759170
 1360 00da 1278     		ldrb	r2, [r2, #0]
 1361 00dc D2B2     		uxtb	r2, r2
 1362 00de 42F01002 		orr	r2, r2, #16
 1363 00e2 D2B2     		uxtb	r2, r2
 1364 00e4 1A70     		strb	r2, [r3, #0]
 701:.\Generated_Source\PSoC5/cyfitter_cfg.c **** 	}
 702:.\Generated_Source\PSoC5/cyfitter_cfg.c **** 
 703:.\Generated_Source\PSoC5/cyfitter_cfg.c **** 	/* Perform second pass device configuration. These items must be configured in specific order afte
 704:.\Generated_Source\PSoC5/cyfitter_cfg.c **** 	CYCONFIGCPY((void CYFAR *)(CYREG_PRT2_DM0), (void CYFAR *)(BS_IOPINS0_2_VAL), 8);
 1365              		.loc 1 704 0
 1366 00e6 45F22210 		movw	r0, #:lower16:1073762594
 1367 00ea C4F20000 		movt	r0, #:upper16:1073762594
 1368 00ee 40F6B061 		movw	r1, #:lower16:1207963312
 1369 00f2 C4F60001 		movt	r1, #:upper16:1207963312
 1370 00f6 4FF00802 		mov	r2, #8
 1371 00fa FFF7FEFF 		bl	memcpy
 705:.\Generated_Source\PSoC5/cyfitter_cfg.c **** 	CYCONFIGCPY((void CYFAR *)(CYREG_PRT4_DM0), (void CYFAR *)(BS_IOPINS0_4_VAL), 8);
 1372              		.loc 1 705 0
 1373 00fe 45F24210 		movw	r0, #:lower16:1073762626
 1374 0102 C4F20000 		movt	r0, #:upper16:1073762626
 1375 0106 40F6B861 		movw	r1, #:lower16:1207963320
 1376 010a C4F60001 		movt	r1, #:upper16:1207963320
 1377 010e 4FF00802 		mov	r2, #8
 1378 0112 FFF7FEFF 		bl	memcpy
 706:.\Generated_Source\PSoC5/cyfitter_cfg.c **** 
 707:.\Generated_Source\PSoC5/cyfitter_cfg.c **** 	/* Switch Boost to the precision bandgap reference from its internal reference */
 708:.\Generated_Source\PSoC5/cyfitter_cfg.c **** 	CY_SET_REG8(CYDEV_BOOST_CR2, (CY_GET_REG8(CYDEV_BOOST_CR2) | 0x08));
 1379              		.loc 1 708 0
 1380 0116 44F22233 		movw	r3, #:lower16:1073759010
 1381 011a C4F20003 		movt	r3, #:upper16:1073759010
 1382 011e 44F22232 		movw	r2, #:lower16:1073759010
 1383 0122 C4F20002 		movt	r2, #:upper16:1073759010
 1384 0126 1278     		ldrb	r2, [r2, #0]
 1385 0128 D2B2     		uxtb	r2, r2
 1386 012a 42F00802 		orr	r2, r2, #8
 1387 012e D2B2     		uxtb	r2, r2
 1388 0130 1A70     		strb	r2, [r3, #0]
 709:.\Generated_Source\PSoC5/cyfitter_cfg.c **** 
 710:.\Generated_Source\PSoC5/cyfitter_cfg.c **** 	/* Perform basic analog initialization to defaults */
 711:.\Generated_Source\PSoC5/cyfitter_cfg.c **** 	AnalogSetDefault();
 1389              		.loc 1 711 0
 1390 0132 FFF7FEFF 		bl	AnalogSetDefault
 712:.\Generated_Source\PSoC5/cyfitter_cfg.c **** 
 713:.\Generated_Source\PSoC5/cyfitter_cfg.c **** 	/* Configure alternate active mode */
 714:.\Generated_Source\PSoC5/cyfitter_cfg.c **** 	CYCONFIGCPY((void CYFAR *)CYDEV_PM_STBY_BASE, (void CYFAR *)CYDEV_PM_ACT_BASE, 14);
 1391              		.loc 1 714 0
ARM GAS  C:\Users\csap2972\AppData\Local\Temp\ccYNK1mP.s 			page 38


 1392 0136 44F2B030 		movw	r0, #:lower16:1073759152
 1393 013a C4F20000 		movt	r0, #:upper16:1073759152
 1394 013e 44F2A031 		movw	r1, #:lower16:1073759136
 1395 0142 C4F20001 		movt	r1, #:upper16:1073759136
 1396 0146 4FF00E02 		mov	r2, #14
 1397 014a FFF7FEFF 		bl	memcpy
 715:.\Generated_Source\PSoC5/cyfitter_cfg.c **** }
 1398              		.loc 1 715 0
 1399 014e 80BD     		pop	{r7, pc}
 1400              		.cfi_endproc
 1401              	.LFE7:
 1402              		.size	cyfitter_cfg, .-cyfitter_cfg
 1403              		.text
 1404              	.Letext0:
 1405              		.section	.debug_loc,"",%progbits
 1406              	.Ldebug_loc0:
 1407              	.LLST0:
 1408 0000 00000000 		.4byte	.LFB0
 1409 0004 02000000 		.4byte	.LCFI0
 1410 0008 0100     		.2byte	0x1
 1411 000a 5D       		.byte	0x5d
 1412 000b 02000000 		.4byte	.LCFI0
 1413 000f 04000000 		.4byte	.LCFI1
 1414 0013 0200     		.2byte	0x2
 1415 0015 7D       		.byte	0x7d
 1416 0016 04       		.sleb128 4
 1417 0017 04000000 		.4byte	.LCFI1
 1418 001b 06000000 		.4byte	.LCFI2
 1419 001f 0200     		.2byte	0x2
 1420 0021 7D       		.byte	0x7d
 1421 0022 10       		.sleb128 16
 1422 0023 06000000 		.4byte	.LCFI2
 1423 0027 0C000000 		.4byte	.LFE0
 1424 002b 0200     		.2byte	0x2
 1425 002d 77       		.byte	0x77
 1426 002e 10       		.sleb128 16
 1427 002f 00000000 		.4byte	0x0
 1428 0033 00000000 		.4byte	0x0
 1429              	.LLST1:
 1430 0037 00000000 		.4byte	.LFB1
 1431 003b 02000000 		.4byte	.LCFI3
 1432 003f 0100     		.2byte	0x1
 1433 0041 5D       		.byte	0x5d
 1434 0042 02000000 		.4byte	.LCFI3
 1435 0046 04000000 		.4byte	.LCFI4
 1436 004a 0200     		.2byte	0x2
 1437 004c 7D       		.byte	0x7d
 1438 004d 04       		.sleb128 4
 1439 004e 04000000 		.4byte	.LCFI4
 1440 0052 06000000 		.4byte	.LCFI5
 1441 0056 0200     		.2byte	0x2
 1442 0058 7D       		.byte	0x7d
 1443 0059 10       		.sleb128 16
 1444 005a 06000000 		.4byte	.LCFI5
 1445 005e C2010000 		.4byte	.LFE1
 1446 0062 0200     		.2byte	0x2
 1447 0064 77       		.byte	0x77
ARM GAS  C:\Users\csap2972\AppData\Local\Temp\ccYNK1mP.s 			page 39


 1448 0065 10       		.sleb128 16
 1449 0066 00000000 		.4byte	0x0
 1450 006a 00000000 		.4byte	0x0
 1451              	.LLST2:
 1452 006e 00000000 		.4byte	.LFB2
 1453 0072 02000000 		.4byte	.LCFI6
 1454 0076 0100     		.2byte	0x1
 1455 0078 5D       		.byte	0x5d
 1456 0079 02000000 		.4byte	.LCFI6
 1457 007d 04000000 		.4byte	.LCFI7
 1458 0081 0200     		.2byte	0x2
 1459 0083 7D       		.byte	0x7d
 1460 0084 08       		.sleb128 8
 1461 0085 04000000 		.4byte	.LCFI7
 1462 0089 06000000 		.4byte	.LCFI8
 1463 008d 0200     		.2byte	0x2
 1464 008f 7D       		.byte	0x7d
 1465 0090 18       		.sleb128 24
 1466 0091 06000000 		.4byte	.LCFI8
 1467 0095 1A020000 		.4byte	.LFE2
 1468 0099 0200     		.2byte	0x2
 1469 009b 77       		.byte	0x77
 1470 009c 18       		.sleb128 24
 1471 009d 00000000 		.4byte	0x0
 1472 00a1 00000000 		.4byte	0x0
 1473              	.LLST3:
 1474 00a5 00000000 		.4byte	.LFB3
 1475 00a9 02000000 		.4byte	.LCFI9
 1476 00ad 0100     		.2byte	0x1
 1477 00af 5D       		.byte	0x5d
 1478 00b0 02000000 		.4byte	.LCFI9
 1479 00b4 04000000 		.4byte	.LCFI10
 1480 00b8 0200     		.2byte	0x2
 1481 00ba 7D       		.byte	0x7d
 1482 00bb 04       		.sleb128 4
 1483 00bc 04000000 		.4byte	.LCFI10
 1484 00c0 06000000 		.4byte	.LCFI11
 1485 00c4 0200     		.2byte	0x2
 1486 00c6 7D       		.byte	0x7d
 1487 00c7 10       		.sleb128 16
 1488 00c8 06000000 		.4byte	.LCFI11
 1489 00cc D8000000 		.4byte	.LFE3
 1490 00d0 0200     		.2byte	0x2
 1491 00d2 77       		.byte	0x77
 1492 00d3 10       		.sleb128 16
 1493 00d4 00000000 		.4byte	0x0
 1494 00d8 00000000 		.4byte	0x0
 1495              	.LLST4:
 1496 00dc 00000000 		.4byte	.LFB4
 1497 00e0 02000000 		.4byte	.LCFI12
 1498 00e4 0100     		.2byte	0x1
 1499 00e6 5D       		.byte	0x5d
 1500 00e7 02000000 		.4byte	.LCFI12
 1501 00eb 04000000 		.4byte	.LCFI13
 1502 00ef 0200     		.2byte	0x2
 1503 00f1 7D       		.byte	0x7d
 1504 00f2 04       		.sleb128 4
ARM GAS  C:\Users\csap2972\AppData\Local\Temp\ccYNK1mP.s 			page 40


 1505 00f3 04000000 		.4byte	.LCFI13
 1506 00f7 06000000 		.4byte	.LCFI14
 1507 00fb 0200     		.2byte	0x2
 1508 00fd 7D       		.byte	0x7d
 1509 00fe 18       		.sleb128 24
 1510 00ff 06000000 		.4byte	.LCFI14
 1511 0103 44000000 		.4byte	.LFE4
 1512 0107 0200     		.2byte	0x2
 1513 0109 77       		.byte	0x77
 1514 010a 18       		.sleb128 24
 1515 010b 00000000 		.4byte	0x0
 1516 010f 00000000 		.4byte	0x0
 1517              	.LLST5:
 1518 0113 00000000 		.4byte	.LFB5
 1519 0117 02000000 		.4byte	.LCFI15
 1520 011b 0100     		.2byte	0x1
 1521 011d 5D       		.byte	0x5d
 1522 011e 02000000 		.4byte	.LCFI15
 1523 0122 04000000 		.4byte	.LCFI16
 1524 0126 0200     		.2byte	0x2
 1525 0128 7D       		.byte	0x7d
 1526 0129 04       		.sleb128 4
 1527 012a 04000000 		.4byte	.LCFI16
 1528 012e 06000000 		.4byte	.LCFI17
 1529 0132 0200     		.2byte	0x2
 1530 0134 7D       		.byte	0x7d
 1531 0135 10       		.sleb128 16
 1532 0136 06000000 		.4byte	.LCFI17
 1533 013a 50000000 		.4byte	.LFE5
 1534 013e 0200     		.2byte	0x2
 1535 0140 77       		.byte	0x77
 1536 0141 10       		.sleb128 16
 1537 0142 00000000 		.4byte	0x0
 1538 0146 00000000 		.4byte	0x0
 1539              	.LLST6:
 1540 014a 00000000 		.4byte	.LFB6
 1541 014e 02000000 		.4byte	.LCFI18
 1542 0152 0100     		.2byte	0x1
 1543 0154 5D       		.byte	0x5d
 1544 0155 02000000 		.4byte	.LCFI18
 1545 0159 04000000 		.4byte	.LCFI19
 1546 015d 0200     		.2byte	0x2
 1547 015f 7D       		.byte	0x7d
 1548 0160 04       		.sleb128 4
 1549 0161 04000000 		.4byte	.LCFI19
 1550 0165 06000000 		.4byte	.LCFI20
 1551 0169 0200     		.2byte	0x2
 1552 016b 7D       		.byte	0x7d
 1553 016c 10       		.sleb128 16
 1554 016d 06000000 		.4byte	.LCFI20
 1555 0171 5A000000 		.4byte	.LFE6
 1556 0175 0200     		.2byte	0x2
 1557 0177 77       		.byte	0x77
 1558 0178 10       		.sleb128 16
 1559 0179 00000000 		.4byte	0x0
 1560 017d 00000000 		.4byte	0x0
 1561              	.LLST7:
ARM GAS  C:\Users\csap2972\AppData\Local\Temp\ccYNK1mP.s 			page 41


 1562 0181 00000000 		.4byte	.LFB7
 1563 0185 02000000 		.4byte	.LCFI21
 1564 0189 0100     		.2byte	0x1
 1565 018b 5D       		.byte	0x5d
 1566 018c 02000000 		.4byte	.LCFI21
 1567 0190 04000000 		.4byte	.LCFI22
 1568 0194 0200     		.2byte	0x2
 1569 0196 7D       		.byte	0x7d
 1570 0197 08       		.sleb128 8
 1571 0198 04000000 		.4byte	.LCFI22
 1572 019c 50010000 		.4byte	.LFE7
 1573 01a0 0200     		.2byte	0x2
 1574 01a2 77       		.byte	0x77
 1575 01a3 08       		.sleb128 8
 1576 01a4 00000000 		.4byte	0x0
 1577 01a8 00000000 		.4byte	0x0
 1578              		.file 2 "./Generated_Source/PSoC5/cytypes.h"
 1579              		.file 3 "./Generated_Source/PSoC5/CyDmac.h"
 1580              		.section	.debug_info
 1581 0000 99040000 		.4byte	0x499
 1582 0004 0200     		.2byte	0x2
 1583 0006 00000000 		.4byte	.Ldebug_abbrev0
 1584 000a 04       		.byte	0x4
 1585 000b 01       		.uleb128 0x1
 1586 000c 41020000 		.4byte	.LASF53
 1587 0010 01       		.byte	0x1
 1588 0011 95020000 		.4byte	.LASF54
 1589 0015 94000000 		.4byte	.LASF55
 1590 0019 00000000 		.4byte	0x0
 1591 001d 00000000 		.4byte	0x0
 1592 0021 00000000 		.4byte	.Ldebug_ranges0+0x0
 1593 0025 00000000 		.4byte	.Ldebug_line0
 1594 0029 02       		.uleb128 0x2
 1595 002a 01       		.byte	0x1
 1596 002b 06       		.byte	0x6
 1597 002c EE020000 		.4byte	.LASF0
 1598 0030 02       		.uleb128 0x2
 1599 0031 01       		.byte	0x1
 1600 0032 08       		.byte	0x8
 1601 0033 98010000 		.4byte	.LASF1
 1602 0037 02       		.uleb128 0x2
 1603 0038 02       		.byte	0x2
 1604 0039 05       		.byte	0x5
 1605 003a 8B020000 		.4byte	.LASF2
 1606 003e 02       		.uleb128 0x2
 1607 003f 02       		.byte	0x2
 1608 0040 07       		.byte	0x7
 1609 0041 68000000 		.4byte	.LASF3
 1610 0045 03       		.uleb128 0x3
 1611 0046 04       		.byte	0x4
 1612 0047 05       		.byte	0x5
 1613 0048 696E7400 		.ascii	"int\000"
 1614 004c 02       		.uleb128 0x2
 1615 004d 04       		.byte	0x4
 1616 004e 07       		.byte	0x7
 1617 004f E4010000 		.4byte	.LASF4
 1618 0053 02       		.uleb128 0x2
ARM GAS  C:\Users\csap2972\AppData\Local\Temp\ccYNK1mP.s 			page 42


 1619 0054 08       		.byte	0x8
 1620 0055 05       		.byte	0x5
 1621 0056 00000000 		.4byte	.LASF5
 1622 005a 02       		.uleb128 0x2
 1623 005b 08       		.byte	0x8
 1624 005c 07       		.byte	0x7
 1625 005d 04020000 		.4byte	.LASF6
 1626 0061 02       		.uleb128 0x2
 1627 0062 04       		.byte	0x4
 1628 0063 05       		.byte	0x5
 1629 0064 BD020000 		.4byte	.LASF7
 1630 0068 04       		.uleb128 0x4
 1631 0069 04       		.byte	0x4
 1632 006a 07       		.byte	0x7
 1633 006b 02       		.uleb128 0x2
 1634 006c 04       		.byte	0x4
 1635 006d 07       		.byte	0x7
 1636 006e 34010000 		.4byte	.LASF8
 1637 0072 02       		.uleb128 0x2
 1638 0073 01       		.byte	0x1
 1639 0074 08       		.byte	0x8
 1640 0075 60020000 		.4byte	.LASF9
 1641 0079 05       		.uleb128 0x5
 1642 007a 46010000 		.4byte	.LASF10
 1643 007e 02       		.byte	0x2
 1644 007f 60       		.byte	0x60
 1645 0080 30000000 		.4byte	0x30
 1646 0084 05       		.uleb128 0x5
 1647 0085 CC010000 		.4byte	.LASF11
 1648 0089 02       		.byte	0x2
 1649 008a 61       		.byte	0x61
 1650 008b 3E000000 		.4byte	0x3e
 1651 008f 05       		.uleb128 0x5
 1652 0090 DD010000 		.4byte	.LASF12
 1653 0094 02       		.byte	0x2
 1654 0095 62       		.byte	0x62
 1655 0096 6B000000 		.4byte	0x6b
 1656 009a 06       		.uleb128 0x6
 1657 009b 79000000 		.4byte	0x79
 1658 009f 07       		.uleb128 0x7
 1659 00a0 25010000 		.4byte	.LASF17
 1660 00a4 10       		.byte	0x10
 1661 00a5 03       		.byte	0x3
 1662 00a6 45       		.byte	0x45
 1663 00a7 E4000000 		.4byte	0xe4
 1664 00ab 08       		.uleb128 0x8
 1665 00ac 7B000000 		.4byte	.LASF13
 1666 00b0 03       		.byte	0x3
 1667 00b1 46       		.byte	0x46
 1668 00b2 F4000000 		.4byte	0xf4
 1669 00b6 02       		.byte	0x2
 1670 00b7 23       		.byte	0x23
 1671 00b8 00       		.uleb128 0x0
 1672 00b9 08       		.uleb128 0x8
 1673 00ba B8010000 		.4byte	.LASF14
 1674 00be 03       		.byte	0x3
 1675 00bf 47       		.byte	0x47
ARM GAS  C:\Users\csap2972\AppData\Local\Temp\ccYNK1mP.s 			page 43


 1676 00c0 F9000000 		.4byte	0xf9
 1677 00c4 02       		.byte	0x2
 1678 00c5 23       		.byte	0x23
 1679 00c6 04       		.uleb128 0x4
 1680 00c7 08       		.uleb128 0x8
 1681 00c8 F7000000 		.4byte	.LASF15
 1682 00cc 03       		.byte	0x3
 1683 00cd 48       		.byte	0x48
 1684 00ce FE000000 		.4byte	0xfe
 1685 00d2 02       		.byte	0x2
 1686 00d3 23       		.byte	0x23
 1687 00d4 08       		.uleb128 0x8
 1688 00d5 08       		.uleb128 0x8
 1689 00d6 4F000000 		.4byte	.LASF16
 1690 00da 03       		.byte	0x3
 1691 00db 49       		.byte	0x49
 1692 00dc 03010000 		.4byte	0x103
 1693 00e0 02       		.byte	0x2
 1694 00e1 23       		.byte	0x23
 1695 00e2 0C       		.uleb128 0xc
 1696 00e3 00       		.byte	0x0
 1697 00e4 09       		.uleb128 0x9
 1698 00e5 79000000 		.4byte	0x79
 1699 00e9 F4000000 		.4byte	0xf4
 1700 00ed 0A       		.uleb128 0xa
 1701 00ee 68000000 		.4byte	0x68
 1702 00f2 03       		.byte	0x3
 1703 00f3 00       		.byte	0x0
 1704 00f4 06       		.uleb128 0x6
 1705 00f5 E4000000 		.4byte	0xe4
 1706 00f9 06       		.uleb128 0x6
 1707 00fa E4000000 		.4byte	0xe4
 1708 00fe 06       		.uleb128 0x6
 1709 00ff E4000000 		.4byte	0xe4
 1710 0103 06       		.uleb128 0x6
 1711 0104 E4000000 		.4byte	0xe4
 1712 0108 07       		.uleb128 0x7
 1713 0109 4D020000 		.4byte	.LASF18
 1714 010d 08       		.byte	0x8
 1715 010e 03       		.byte	0x3
 1716 010f 4F       		.byte	0x4f
 1717 0110 31010000 		.4byte	0x131
 1718 0114 08       		.uleb128 0x8
 1719 0115 63000000 		.4byte	.LASF19
 1720 0119 03       		.byte	0x3
 1721 011a 50       		.byte	0x50
 1722 011b 31010000 		.4byte	0x131
 1723 011f 02       		.byte	0x2
 1724 0120 23       		.byte	0x23
 1725 0121 00       		.uleb128 0x0
 1726 0122 08       		.uleb128 0x8
 1727 0123 86020000 		.4byte	.LASF20
 1728 0127 03       		.byte	0x3
 1729 0128 51       		.byte	0x51
 1730 0129 36010000 		.4byte	0x136
 1731 012d 02       		.byte	0x2
 1732 012e 23       		.byte	0x23
ARM GAS  C:\Users\csap2972\AppData\Local\Temp\ccYNK1mP.s 			page 44


 1733 012f 04       		.uleb128 0x4
 1734 0130 00       		.byte	0x0
 1735 0131 06       		.uleb128 0x6
 1736 0132 E4000000 		.4byte	0xe4
 1737 0136 06       		.uleb128 0x6
 1738 0137 E4000000 		.4byte	0xe4
 1739 013b 07       		.uleb128 0x7
 1740 013c 65020000 		.4byte	.LASF21
 1741 0140 08       		.byte	0x8
 1742 0141 03       		.byte	0x3
 1743 0142 57       		.byte	0x57
 1744 0143 64010000 		.4byte	0x164
 1745 0147 0B       		.uleb128 0xb
 1746 0148 54443000 		.ascii	"TD0\000"
 1747 014c 03       		.byte	0x3
 1748 014d 58       		.byte	0x58
 1749 014e 64010000 		.4byte	0x164
 1750 0152 02       		.byte	0x2
 1751 0153 23       		.byte	0x23
 1752 0154 00       		.uleb128 0x0
 1753 0155 0B       		.uleb128 0xb
 1754 0156 54443100 		.ascii	"TD1\000"
 1755 015a 03       		.byte	0x3
 1756 015b 59       		.byte	0x59
 1757 015c 69010000 		.4byte	0x169
 1758 0160 02       		.byte	0x2
 1759 0161 23       		.byte	0x23
 1760 0162 04       		.uleb128 0x4
 1761 0163 00       		.byte	0x0
 1762 0164 06       		.uleb128 0x6
 1763 0165 E4000000 		.4byte	0xe4
 1764 0169 06       		.uleb128 0x6
 1765 016a E4000000 		.4byte	0xe4
 1766 016e 0C       		.uleb128 0xc
 1767 016f 04       		.byte	0x4
 1768 0170 74010000 		.4byte	0x174
 1769 0174 0D       		.uleb128 0xd
 1770 0175 07       		.uleb128 0x7
 1771 0176 31020000 		.4byte	.LASF22
 1772 017a 08       		.byte	0x8
 1773 017b 01       		.byte	0x1
 1774 017c 73       		.byte	0x73
 1775 017d C8010000 		.4byte	0x1c8
 1776 0181 08       		.uleb128 0x8
 1777 0182 18010000 		.4byte	.LASF23
 1778 0186 01       		.byte	0x1
 1779 0187 74       		.byte	0x74
 1780 0188 84000000 		.4byte	0x84
 1781 018c 02       		.byte	0x2
 1782 018d 23       		.byte	0x23
 1783 018e 00       		.uleb128 0x0
 1784 018f 08       		.uleb128 0x8
 1785 0190 4C010000 		.4byte	.LASF24
 1786 0194 01       		.byte	0x1
 1787 0195 75       		.byte	0x75
 1788 0196 79000000 		.4byte	0x79
 1789 019a 02       		.byte	0x2
ARM GAS  C:\Users\csap2972\AppData\Local\Temp\ccYNK1mP.s 			page 45


 1790 019b 23       		.byte	0x23
 1791 019c 02       		.uleb128 0x2
 1792 019d 08       		.uleb128 0x8
 1793 019e F1010000 		.4byte	.LASF25
 1794 01a2 01       		.byte	0x1
 1795 01a3 76       		.byte	0x76
 1796 01a4 79000000 		.4byte	0x79
 1797 01a8 02       		.byte	0x2
 1798 01a9 23       		.byte	0x23
 1799 01aa 03       		.uleb128 0x3
 1800 01ab 0B       		.uleb128 0xb
 1801 01ac 73726300 		.ascii	"src\000"
 1802 01b0 01       		.byte	0x1
 1803 01b1 77       		.byte	0x77
 1804 01b2 84000000 		.4byte	0x84
 1805 01b6 02       		.byte	0x2
 1806 01b7 23       		.byte	0x23
 1807 01b8 04       		.uleb128 0x4
 1808 01b9 08       		.uleb128 0x8
 1809 01ba 2C020000 		.4byte	.LASF26
 1810 01be 01       		.byte	0x1
 1811 01bf 78       		.byte	0x78
 1812 01c0 84000000 		.4byte	0x84
 1813 01c4 02       		.byte	0x2
 1814 01c5 23       		.byte	0x23
 1815 01c6 06       		.uleb128 0x6
 1816 01c7 00       		.byte	0x0
 1817 01c8 0E       		.uleb128 0xe
 1818 01c9 E3000000 		.4byte	.LASF27
 1819 01cd 01       		.byte	0x1
 1820 01ce 31       		.byte	0x31
 1821 01cf 01       		.byte	0x1
 1822 01d0 00000000 		.4byte	.LFB0
 1823 01d4 0C000000 		.4byte	.LFE0
 1824 01d8 00000000 		.4byte	.LLST0
 1825 01dc EF010000 		.4byte	0x1ef
 1826 01e0 0F       		.uleb128 0xf
 1827 01e1 D3010000 		.4byte	.LASF37
 1828 01e5 01       		.byte	0x1
 1829 01e6 31       		.byte	0x31
 1830 01e7 79000000 		.4byte	0x79
 1831 01eb 02       		.byte	0x2
 1832 01ec 91       		.byte	0x91
 1833 01ed 77       		.sleb128 -9
 1834 01ee 00       		.byte	0x0
 1835 01ef 10       		.uleb128 0x10
 1836 01f0 61010000 		.4byte	.LASF28
 1837 01f4 01       		.byte	0x1
 1838 01f5 9D01     		.2byte	0x19d
 1839 01f7 01       		.byte	0x1
 1840 01f8 00000000 		.4byte	.LFB1
 1841 01fc C2010000 		.4byte	.LFE1
 1842 0200 37000000 		.4byte	.LLST1
 1843 0204 2F020000 		.4byte	0x22f
 1844 0208 11       		.uleb128 0x11
 1845 0209 6900     		.ascii	"i\000"
 1846 020b 01       		.byte	0x1
ARM GAS  C:\Users\csap2972\AppData\Local\Temp\ccYNK1mP.s 			page 46


 1847 020c 9F01     		.2byte	0x19f
 1848 020e 45000000 		.4byte	0x45
 1849 0212 02       		.byte	0x2
 1850 0213 91       		.byte	0x91
 1851 0214 70       		.sleb128 -16
 1852 0215 12       		.uleb128 0x12
 1853 0216 04010000 		.4byte	.LBB2
 1854 021a 2E010000 		.4byte	.LBE2
 1855 021e 13       		.uleb128 0x13
 1856 021f 36020000 		.4byte	.LASF29
 1857 0223 01       		.byte	0x1
 1858 0224 BC01     		.2byte	0x1bc
 1859 0226 2F020000 		.4byte	0x22f
 1860 022a 02       		.byte	0x2
 1861 022b 91       		.byte	0x91
 1862 022c 74       		.sleb128 -12
 1863 022d 00       		.byte	0x0
 1864 022e 00       		.byte	0x0
 1865 022f 0C       		.uleb128 0xc
 1866 0230 04       		.byte	0x4
 1867 0231 9A000000 		.4byte	0x9a
 1868 0235 10       		.uleb128 0x10
 1869 0236 58000000 		.4byte	.LASF30
 1870 023a 01       		.byte	0x1
 1871 023b DD01     		.2byte	0x1dd
 1872 023d 01       		.byte	0x1
 1873 023e 00000000 		.4byte	.LFB2
 1874 0242 1A020000 		.4byte	.LFE2
 1875 0246 6E000000 		.4byte	.LLST2
 1876 024a 7C020000 		.4byte	0x27c
 1877 024e 13       		.uleb128 0x13
 1878 024f B0010000 		.4byte	.LASF31
 1879 0253 01       		.byte	0x1
 1880 0254 DF01     		.2byte	0x1df
 1881 0256 7C020000 		.4byte	0x27c
 1882 025a 02       		.byte	0x2
 1883 025b 91       		.byte	0x91
 1884 025c 70       		.sleb128 -16
 1885 025d 13       		.uleb128 0x13
 1886 025e A6010000 		.4byte	.LASF32
 1887 0262 01       		.byte	0x1
 1888 0263 E001     		.2byte	0x1e0
 1889 0265 81020000 		.4byte	0x281
 1890 0269 02       		.byte	0x2
 1891 026a 91       		.byte	0x91
 1892 026b 74       		.sleb128 -12
 1893 026c 13       		.uleb128 0x13
 1894 026d FA020000 		.4byte	.LASF33
 1895 0271 01       		.byte	0x1
 1896 0272 E101     		.2byte	0x1e1
 1897 0274 87020000 		.4byte	0x287
 1898 0278 02       		.byte	0x2
 1899 0279 91       		.byte	0x91
 1900 027a 6F       		.sleb128 -17
 1901 027b 00       		.byte	0x0
 1902 027c 06       		.uleb128 0x6
 1903 027d 6B000000 		.4byte	0x6b
ARM GAS  C:\Users\csap2972\AppData\Local\Temp\ccYNK1mP.s 			page 47


 1904 0281 0C       		.uleb128 0xc
 1905 0282 04       		.byte	0x4
 1906 0283 7C020000 		.4byte	0x27c
 1907 0287 06       		.uleb128 0x6
 1908 0288 30000000 		.4byte	0x30
 1909 028c 14       		.uleb128 0x14
 1910 028d 01       		.byte	0x1
 1911 028e 16000000 		.4byte	.LASF35
 1912 0292 01       		.byte	0x1
 1913 0293 2902     		.2byte	0x229
 1914 0295 01       		.byte	0x1
 1915 0296 00000000 		.4byte	.LFB3
 1916 029a D8000000 		.4byte	.LFE3
 1917 029e A5000000 		.4byte	.LLST3
 1918 02a2 B6020000 		.4byte	0x2b6
 1919 02a6 13       		.uleb128 0x13
 1920 02a7 DC020000 		.4byte	.LASF34
 1921 02ab 01       		.byte	0x1
 1922 02ac 2B02     		.2byte	0x22b
 1923 02ae 79000000 		.4byte	0x79
 1924 02b2 02       		.byte	0x2
 1925 02b3 91       		.byte	0x91
 1926 02b4 77       		.sleb128 -9
 1927 02b5 00       		.byte	0x0
 1928 02b6 14       		.uleb128 0x14
 1929 02b7 01       		.byte	0x1
 1930 02b8 C6020000 		.4byte	.LASF36
 1931 02bc 01       		.byte	0x1
 1932 02bd 4C02     		.2byte	0x24c
 1933 02bf 01       		.byte	0x1
 1934 02c0 00000000 		.4byte	.LFB4
 1935 02c4 44000000 		.4byte	.LFE4
 1936 02c8 DC000000 		.4byte	.LLST4
 1937 02cc EF020000 		.4byte	0x2ef
 1938 02d0 15       		.uleb128 0x15
 1939 02d1 1D010000 		.4byte	.LASF38
 1940 02d5 01       		.byte	0x1
 1941 02d6 4C02     		.2byte	0x24c
 1942 02d8 79000000 		.4byte	0x79
 1943 02dc 02       		.byte	0x2
 1944 02dd 91       		.byte	0x91
 1945 02de 6F       		.sleb128 -17
 1946 02df 13       		.uleb128 0x13
 1947 02e0 58010000 		.4byte	.LASF39
 1948 02e4 01       		.byte	0x1
 1949 02e5 4E02     		.2byte	0x24e
 1950 02e7 79000000 		.4byte	0x79
 1951 02eb 02       		.byte	0x2
 1952 02ec 91       		.byte	0x91
 1953 02ed 77       		.sleb128 -9
 1954 02ee 00       		.byte	0x0
 1955 02ef 14       		.uleb128 0x14
 1956 02f0 01       		.byte	0x1
 1957 02f1 04010000 		.4byte	.LASF40
 1958 02f5 01       		.byte	0x1
 1959 02f6 7002     		.2byte	0x270
 1960 02f8 01       		.byte	0x1
ARM GAS  C:\Users\csap2972\AppData\Local\Temp\ccYNK1mP.s 			page 48


 1961 02f9 00000000 		.4byte	.LFB5
 1962 02fd 50000000 		.4byte	.LFE5
 1963 0301 13010000 		.4byte	.LLST5
 1964 0305 19030000 		.4byte	0x319
 1965 0309 15       		.uleb128 0x15
 1966 030a 0E000000 		.4byte	.LASF41
 1967 030e 01       		.byte	0x1
 1968 030f 7002     		.2byte	0x270
 1969 0311 79000000 		.4byte	0x79
 1970 0315 02       		.byte	0x2
 1971 0316 91       		.byte	0x91
 1972 0317 77       		.sleb128 -9
 1973 0318 00       		.byte	0x0
 1974 0319 14       		.uleb128 0x14
 1975 031a 01       		.byte	0x1
 1976 031b 1E030000 		.4byte	.LASF42
 1977 031f 01       		.byte	0x1
 1978 0320 8502     		.2byte	0x285
 1979 0322 01       		.byte	0x1
 1980 0323 00000000 		.4byte	.LFB6
 1981 0327 5A000000 		.4byte	.LFE6
 1982 032b 4A010000 		.4byte	.LLST6
 1983 032f 43030000 		.4byte	0x343
 1984 0333 15       		.uleb128 0x15
 1985 0334 0E000000 		.4byte	.LASF41
 1986 0338 01       		.byte	0x1
 1987 0339 8502     		.2byte	0x285
 1988 033b 79000000 		.4byte	0x79
 1989 033f 02       		.byte	0x2
 1990 0340 91       		.byte	0x91
 1991 0341 77       		.sleb128 -9
 1992 0342 00       		.byte	0x0
 1993 0343 16       		.uleb128 0x16
 1994 0344 01       		.byte	0x1
 1995 0345 F7010000 		.4byte	.LASF56
 1996 0349 01       		.byte	0x1
 1997 034a 9E02     		.2byte	0x29e
 1998 034c 01       		.byte	0x1
 1999 034d 00000000 		.4byte	.LFB7
 2000 0351 50010000 		.4byte	.LFE7
 2001 0355 81010000 		.4byte	.LLST7
 2002 0359 09       		.uleb128 0x9
 2003 035a 79000000 		.4byte	0x79
 2004 035e 69030000 		.4byte	0x369
 2005 0362 0A       		.uleb128 0xa
 2006 0363 68000000 		.4byte	0x68
 2007 0367 07       		.byte	0x7
 2008 0368 00       		.byte	0x0
 2009 0369 17       		.uleb128 0x17
 2010 036a 0F030000 		.4byte	.LASF43
 2011 036e 01       		.byte	0x1
 2012 036f EC       		.byte	0xec
 2013 0370 7A030000 		.4byte	0x37a
 2014 0374 05       		.byte	0x5
 2015 0375 03       		.byte	0x3
 2016 0376 00000000 		.4byte	CH1_ADDR_DATA0
 2017 037a 18       		.uleb128 0x18
ARM GAS  C:\Users\csap2972\AppData\Local\Temp\ccYNK1mP.s 			page 49


 2018 037b 59030000 		.4byte	0x359
 2019 037f 17       		.uleb128 0x17
 2020 0380 89010000 		.4byte	.LASF44
 2021 0384 01       		.byte	0x1
 2022 0385 EF       		.byte	0xef
 2023 0386 90030000 		.4byte	0x390
 2024 038a 05       		.byte	0x5
 2025 038b 03       		.byte	0x3
 2026 038c 08000000 		.4byte	CH2_ADDR_DATA0
 2027 0390 18       		.uleb128 0x18
 2028 0391 59030000 		.4byte	0x359
 2029 0395 17       		.uleb128 0x17
 2030 0396 77020000 		.4byte	.LASF45
 2031 039a 01       		.byte	0x1
 2032 039b F2       		.byte	0xf2
 2033 039c A6030000 		.4byte	0x3a6
 2034 03a0 05       		.byte	0x5
 2035 03a1 03       		.byte	0x3
 2036 03a2 10000000 		.4byte	CH5_ADDR_DATA0
 2037 03a6 18       		.uleb128 0x18
 2038 03a7 59030000 		.4byte	0x359
 2039 03ab 17       		.uleb128 0x17
 2040 03ac 85000000 		.4byte	.LASF46
 2041 03b0 01       		.byte	0x1
 2042 03b1 F5       		.byte	0xf5
 2043 03b2 BC030000 		.4byte	0x3bc
 2044 03b6 05       		.byte	0x5
 2045 03b7 03       		.byte	0x3
 2046 03b8 18000000 		.4byte	CH6_ADDR_DATA0
 2047 03bc 18       		.uleb128 0x18
 2048 03bd 59030000 		.4byte	0x359
 2049 03c1 09       		.uleb128 0x9
 2050 03c2 79000000 		.4byte	0x79
 2051 03c6 D1030000 		.4byte	0x3d1
 2052 03ca 0A       		.uleb128 0xa
 2053 03cb 68000000 		.4byte	0x68
 2054 03cf 04       		.byte	0x4
 2055 03d0 00       		.byte	0x0
 2056 03d1 17       		.uleb128 0x17
 2057 03d2 1B020000 		.4byte	.LASF47
 2058 03d6 01       		.byte	0x1
 2059 03d7 F8       		.byte	0xf8
 2060 03d8 E2030000 		.4byte	0x3e2
 2061 03dc 05       		.byte	0x5
 2062 03dd 03       		.byte	0x3
 2063 03de 20000000 		.4byte	DMA_TD_START_CMD
 2064 03e2 18       		.uleb128 0x18
 2065 03e3 C1030000 		.4byte	0x3c1
 2066 03e7 17       		.uleb128 0x17
 2067 03e8 BF010000 		.4byte	.LASF48
 2068 03ec 01       		.byte	0x1
 2069 03ed FA       		.byte	0xfa
 2070 03ee 8F000000 		.4byte	0x8f
 2071 03f2 05       		.byte	0x5
 2072 03f3 03       		.byte	0x3
 2073 03f4 00000000 		.4byte	DMA_ZERO_VAL
 2074 03f8 09       		.uleb128 0x9
ARM GAS  C:\Users\csap2972\AppData\Local\Temp\ccYNK1mP.s 			page 50


 2075 03f9 75010000 		.4byte	0x175
 2076 03fd 08040000 		.4byte	0x408
 2077 0401 0A       		.uleb128 0xa
 2078 0402 68000000 		.4byte	0x68
 2079 0406 40       		.byte	0x40
 2080 0407 00       		.byte	0x0
 2081 0408 13       		.uleb128 0x13
 2082 0409 02030000 		.4byte	.LASF49
 2083 040d 01       		.byte	0x1
 2084 040e 0201     		.2byte	0x102
 2085 0410 1A040000 		.4byte	0x41a
 2086 0414 05       		.byte	0x5
 2087 0415 03       		.byte	0x3
 2088 0416 28000000 		.4byte	CFG_TD_LIST0
 2089 041a 18       		.uleb128 0x18
 2090 041b F8030000 		.4byte	0x3f8
 2091 041f 09       		.uleb128 0x9
 2092 0420 6E010000 		.4byte	0x16e
 2093 0424 2F040000 		.4byte	0x42f
 2094 0428 0A       		.uleb128 0xa
 2095 0429 68000000 		.4byte	0x68
 2096 042d 40       		.byte	0x40
 2097 042e 00       		.byte	0x0
 2098 042f 13       		.uleb128 0x13
 2099 0430 42000000 		.4byte	.LASF50
 2100 0434 01       		.byte	0x1
 2101 0435 4B01     		.2byte	0x14b
 2102 0437 41040000 		.4byte	0x441
 2103 043b 05       		.byte	0x5
 2104 043c 03       		.byte	0x3
 2105 043d 00000000 		.4byte	CFG_TD_ADDR0
 2106 0441 18       		.uleb128 0x18
 2107 0442 1F040000 		.4byte	0x41f
 2108 0446 09       		.uleb128 0x9
 2109 0447 56040000 		.4byte	0x456
 2110 044b 56040000 		.4byte	0x456
 2111 044f 0A       		.uleb128 0xa
 2112 0450 68000000 		.4byte	0x68
 2113 0454 01       		.byte	0x1
 2114 0455 00       		.byte	0x0
 2115 0456 0C       		.uleb128 0xc
 2116 0457 04       		.byte	0x4
 2117 0458 79000000 		.4byte	0x79
 2118 045c 19       		.uleb128 0x19
 2119 045d 27000000 		.4byte	.LASF51
 2120 0461 01       		.byte	0x1
 2121 0462 5802     		.2byte	0x258
 2122 0464 6F040000 		.4byte	0x46f
 2123 0468 01       		.byte	0x1
 2124 0469 05       		.byte	0x5
 2125 046a 03       		.byte	0x3
 2126 046b 00000000 		.4byte	ADC_DelSig_AMux__addrTable
 2127 046f 18       		.uleb128 0x18
 2128 0470 46040000 		.4byte	0x446
 2129 0474 09       		.uleb128 0x9
 2130 0475 79000000 		.4byte	0x79
 2131 0479 84040000 		.4byte	0x484
ARM GAS  C:\Users\csap2972\AppData\Local\Temp\ccYNK1mP.s 			page 51


 2132 047d 0A       		.uleb128 0xa
 2133 047e 68000000 		.4byte	0x68
 2134 0482 01       		.byte	0x1
 2135 0483 00       		.byte	0x0
 2136 0484 19       		.uleb128 0x19
 2137 0485 6E010000 		.4byte	.LASF52
 2138 0489 01       		.byte	0x1
 2139 048a 5E02     		.2byte	0x25e
 2140 048c 97040000 		.4byte	0x497
 2141 0490 01       		.byte	0x1
 2142 0491 05       		.byte	0x5
 2143 0492 03       		.byte	0x3
 2144 0493 00000000 		.4byte	ADC_DelSig_AMux__maskTable
 2145 0497 18       		.uleb128 0x18
 2146 0498 74040000 		.4byte	0x474
 2147 049c 00       		.byte	0x0
 2148              		.section	.debug_abbrev
 2149 0000 01       		.uleb128 0x1
 2150 0001 11       		.uleb128 0x11
 2151 0002 01       		.byte	0x1
 2152 0003 25       		.uleb128 0x25
 2153 0004 0E       		.uleb128 0xe
 2154 0005 13       		.uleb128 0x13
 2155 0006 0B       		.uleb128 0xb
 2156 0007 03       		.uleb128 0x3
 2157 0008 0E       		.uleb128 0xe
 2158 0009 1B       		.uleb128 0x1b
 2159 000a 0E       		.uleb128 0xe
 2160 000b 11       		.uleb128 0x11
 2161 000c 01       		.uleb128 0x1
 2162 000d 52       		.uleb128 0x52
 2163 000e 01       		.uleb128 0x1
 2164 000f 55       		.uleb128 0x55
 2165 0010 06       		.uleb128 0x6
 2166 0011 10       		.uleb128 0x10
 2167 0012 06       		.uleb128 0x6
 2168 0013 00       		.byte	0x0
 2169 0014 00       		.byte	0x0
 2170 0015 02       		.uleb128 0x2
 2171 0016 24       		.uleb128 0x24
 2172 0017 00       		.byte	0x0
 2173 0018 0B       		.uleb128 0xb
 2174 0019 0B       		.uleb128 0xb
 2175 001a 3E       		.uleb128 0x3e
 2176 001b 0B       		.uleb128 0xb
 2177 001c 03       		.uleb128 0x3
 2178 001d 0E       		.uleb128 0xe
 2179 001e 00       		.byte	0x0
 2180 001f 00       		.byte	0x0
 2181 0020 03       		.uleb128 0x3
 2182 0021 24       		.uleb128 0x24
 2183 0022 00       		.byte	0x0
 2184 0023 0B       		.uleb128 0xb
 2185 0024 0B       		.uleb128 0xb
 2186 0025 3E       		.uleb128 0x3e
 2187 0026 0B       		.uleb128 0xb
 2188 0027 03       		.uleb128 0x3
ARM GAS  C:\Users\csap2972\AppData\Local\Temp\ccYNK1mP.s 			page 52


 2189 0028 08       		.uleb128 0x8
 2190 0029 00       		.byte	0x0
 2191 002a 00       		.byte	0x0
 2192 002b 04       		.uleb128 0x4
 2193 002c 24       		.uleb128 0x24
 2194 002d 00       		.byte	0x0
 2195 002e 0B       		.uleb128 0xb
 2196 002f 0B       		.uleb128 0xb
 2197 0030 3E       		.uleb128 0x3e
 2198 0031 0B       		.uleb128 0xb
 2199 0032 00       		.byte	0x0
 2200 0033 00       		.byte	0x0
 2201 0034 05       		.uleb128 0x5
 2202 0035 16       		.uleb128 0x16
 2203 0036 00       		.byte	0x0
 2204 0037 03       		.uleb128 0x3
 2205 0038 0E       		.uleb128 0xe
 2206 0039 3A       		.uleb128 0x3a
 2207 003a 0B       		.uleb128 0xb
 2208 003b 3B       		.uleb128 0x3b
 2209 003c 0B       		.uleb128 0xb
 2210 003d 49       		.uleb128 0x49
 2211 003e 13       		.uleb128 0x13
 2212 003f 00       		.byte	0x0
 2213 0040 00       		.byte	0x0
 2214 0041 06       		.uleb128 0x6
 2215 0042 35       		.uleb128 0x35
 2216 0043 00       		.byte	0x0
 2217 0044 49       		.uleb128 0x49
 2218 0045 13       		.uleb128 0x13
 2219 0046 00       		.byte	0x0
 2220 0047 00       		.byte	0x0
 2221 0048 07       		.uleb128 0x7
 2222 0049 13       		.uleb128 0x13
 2223 004a 01       		.byte	0x1
 2224 004b 03       		.uleb128 0x3
 2225 004c 0E       		.uleb128 0xe
 2226 004d 0B       		.uleb128 0xb
 2227 004e 0B       		.uleb128 0xb
 2228 004f 3A       		.uleb128 0x3a
 2229 0050 0B       		.uleb128 0xb
 2230 0051 3B       		.uleb128 0x3b
 2231 0052 0B       		.uleb128 0xb
 2232 0053 01       		.uleb128 0x1
 2233 0054 13       		.uleb128 0x13
 2234 0055 00       		.byte	0x0
 2235 0056 00       		.byte	0x0
 2236 0057 08       		.uleb128 0x8
 2237 0058 0D       		.uleb128 0xd
 2238 0059 00       		.byte	0x0
 2239 005a 03       		.uleb128 0x3
 2240 005b 0E       		.uleb128 0xe
 2241 005c 3A       		.uleb128 0x3a
 2242 005d 0B       		.uleb128 0xb
 2243 005e 3B       		.uleb128 0x3b
 2244 005f 0B       		.uleb128 0xb
 2245 0060 49       		.uleb128 0x49
ARM GAS  C:\Users\csap2972\AppData\Local\Temp\ccYNK1mP.s 			page 53


 2246 0061 13       		.uleb128 0x13
 2247 0062 38       		.uleb128 0x38
 2248 0063 0A       		.uleb128 0xa
 2249 0064 00       		.byte	0x0
 2250 0065 00       		.byte	0x0
 2251 0066 09       		.uleb128 0x9
 2252 0067 01       		.uleb128 0x1
 2253 0068 01       		.byte	0x1
 2254 0069 49       		.uleb128 0x49
 2255 006a 13       		.uleb128 0x13
 2256 006b 01       		.uleb128 0x1
 2257 006c 13       		.uleb128 0x13
 2258 006d 00       		.byte	0x0
 2259 006e 00       		.byte	0x0
 2260 006f 0A       		.uleb128 0xa
 2261 0070 21       		.uleb128 0x21
 2262 0071 00       		.byte	0x0
 2263 0072 49       		.uleb128 0x49
 2264 0073 13       		.uleb128 0x13
 2265 0074 2F       		.uleb128 0x2f
 2266 0075 0B       		.uleb128 0xb
 2267 0076 00       		.byte	0x0
 2268 0077 00       		.byte	0x0
 2269 0078 0B       		.uleb128 0xb
 2270 0079 0D       		.uleb128 0xd
 2271 007a 00       		.byte	0x0
 2272 007b 03       		.uleb128 0x3
 2273 007c 08       		.uleb128 0x8
 2274 007d 3A       		.uleb128 0x3a
 2275 007e 0B       		.uleb128 0xb
 2276 007f 3B       		.uleb128 0x3b
 2277 0080 0B       		.uleb128 0xb
 2278 0081 49       		.uleb128 0x49
 2279 0082 13       		.uleb128 0x13
 2280 0083 38       		.uleb128 0x38
 2281 0084 0A       		.uleb128 0xa
 2282 0085 00       		.byte	0x0
 2283 0086 00       		.byte	0x0
 2284 0087 0C       		.uleb128 0xc
 2285 0088 0F       		.uleb128 0xf
 2286 0089 00       		.byte	0x0
 2287 008a 0B       		.uleb128 0xb
 2288 008b 0B       		.uleb128 0xb
 2289 008c 49       		.uleb128 0x49
 2290 008d 13       		.uleb128 0x13
 2291 008e 00       		.byte	0x0
 2292 008f 00       		.byte	0x0
 2293 0090 0D       		.uleb128 0xd
 2294 0091 26       		.uleb128 0x26
 2295 0092 00       		.byte	0x0
 2296 0093 00       		.byte	0x0
 2297 0094 00       		.byte	0x0
 2298 0095 0E       		.uleb128 0xe
 2299 0096 2E       		.uleb128 0x2e
 2300 0097 01       		.byte	0x1
 2301 0098 03       		.uleb128 0x3
 2302 0099 0E       		.uleb128 0xe
ARM GAS  C:\Users\csap2972\AppData\Local\Temp\ccYNK1mP.s 			page 54


 2303 009a 3A       		.uleb128 0x3a
 2304 009b 0B       		.uleb128 0xb
 2305 009c 3B       		.uleb128 0x3b
 2306 009d 0B       		.uleb128 0xb
 2307 009e 27       		.uleb128 0x27
 2308 009f 0C       		.uleb128 0xc
 2309 00a0 11       		.uleb128 0x11
 2310 00a1 01       		.uleb128 0x1
 2311 00a2 12       		.uleb128 0x12
 2312 00a3 01       		.uleb128 0x1
 2313 00a4 40       		.uleb128 0x40
 2314 00a5 06       		.uleb128 0x6
 2315 00a6 01       		.uleb128 0x1
 2316 00a7 13       		.uleb128 0x13
 2317 00a8 00       		.byte	0x0
 2318 00a9 00       		.byte	0x0
 2319 00aa 0F       		.uleb128 0xf
 2320 00ab 05       		.uleb128 0x5
 2321 00ac 00       		.byte	0x0
 2322 00ad 03       		.uleb128 0x3
 2323 00ae 0E       		.uleb128 0xe
 2324 00af 3A       		.uleb128 0x3a
 2325 00b0 0B       		.uleb128 0xb
 2326 00b1 3B       		.uleb128 0x3b
 2327 00b2 0B       		.uleb128 0xb
 2328 00b3 49       		.uleb128 0x49
 2329 00b4 13       		.uleb128 0x13
 2330 00b5 02       		.uleb128 0x2
 2331 00b6 0A       		.uleb128 0xa
 2332 00b7 00       		.byte	0x0
 2333 00b8 00       		.byte	0x0
 2334 00b9 10       		.uleb128 0x10
 2335 00ba 2E       		.uleb128 0x2e
 2336 00bb 01       		.byte	0x1
 2337 00bc 03       		.uleb128 0x3
 2338 00bd 0E       		.uleb128 0xe
 2339 00be 3A       		.uleb128 0x3a
 2340 00bf 0B       		.uleb128 0xb
 2341 00c0 3B       		.uleb128 0x3b
 2342 00c1 05       		.uleb128 0x5
 2343 00c2 27       		.uleb128 0x27
 2344 00c3 0C       		.uleb128 0xc
 2345 00c4 11       		.uleb128 0x11
 2346 00c5 01       		.uleb128 0x1
 2347 00c6 12       		.uleb128 0x12
 2348 00c7 01       		.uleb128 0x1
 2349 00c8 40       		.uleb128 0x40
 2350 00c9 06       		.uleb128 0x6
 2351 00ca 01       		.uleb128 0x1
 2352 00cb 13       		.uleb128 0x13
 2353 00cc 00       		.byte	0x0
 2354 00cd 00       		.byte	0x0
 2355 00ce 11       		.uleb128 0x11
 2356 00cf 34       		.uleb128 0x34
 2357 00d0 00       		.byte	0x0
 2358 00d1 03       		.uleb128 0x3
 2359 00d2 08       		.uleb128 0x8
ARM GAS  C:\Users\csap2972\AppData\Local\Temp\ccYNK1mP.s 			page 55


 2360 00d3 3A       		.uleb128 0x3a
 2361 00d4 0B       		.uleb128 0xb
 2362 00d5 3B       		.uleb128 0x3b
 2363 00d6 05       		.uleb128 0x5
 2364 00d7 49       		.uleb128 0x49
 2365 00d8 13       		.uleb128 0x13
 2366 00d9 02       		.uleb128 0x2
 2367 00da 0A       		.uleb128 0xa
 2368 00db 00       		.byte	0x0
 2369 00dc 00       		.byte	0x0
 2370 00dd 12       		.uleb128 0x12
 2371 00de 0B       		.uleb128 0xb
 2372 00df 01       		.byte	0x1
 2373 00e0 11       		.uleb128 0x11
 2374 00e1 01       		.uleb128 0x1
 2375 00e2 12       		.uleb128 0x12
 2376 00e3 01       		.uleb128 0x1
 2377 00e4 00       		.byte	0x0
 2378 00e5 00       		.byte	0x0
 2379 00e6 13       		.uleb128 0x13
 2380 00e7 34       		.uleb128 0x34
 2381 00e8 00       		.byte	0x0
 2382 00e9 03       		.uleb128 0x3
 2383 00ea 0E       		.uleb128 0xe
 2384 00eb 3A       		.uleb128 0x3a
 2385 00ec 0B       		.uleb128 0xb
 2386 00ed 3B       		.uleb128 0x3b
 2387 00ee 05       		.uleb128 0x5
 2388 00ef 49       		.uleb128 0x49
 2389 00f0 13       		.uleb128 0x13
 2390 00f1 02       		.uleb128 0x2
 2391 00f2 0A       		.uleb128 0xa
 2392 00f3 00       		.byte	0x0
 2393 00f4 00       		.byte	0x0
 2394 00f5 14       		.uleb128 0x14
 2395 00f6 2E       		.uleb128 0x2e
 2396 00f7 01       		.byte	0x1
 2397 00f8 3F       		.uleb128 0x3f
 2398 00f9 0C       		.uleb128 0xc
 2399 00fa 03       		.uleb128 0x3
 2400 00fb 0E       		.uleb128 0xe
 2401 00fc 3A       		.uleb128 0x3a
 2402 00fd 0B       		.uleb128 0xb
 2403 00fe 3B       		.uleb128 0x3b
 2404 00ff 05       		.uleb128 0x5
 2405 0100 27       		.uleb128 0x27
 2406 0101 0C       		.uleb128 0xc
 2407 0102 11       		.uleb128 0x11
 2408 0103 01       		.uleb128 0x1
 2409 0104 12       		.uleb128 0x12
 2410 0105 01       		.uleb128 0x1
 2411 0106 40       		.uleb128 0x40
 2412 0107 06       		.uleb128 0x6
 2413 0108 01       		.uleb128 0x1
 2414 0109 13       		.uleb128 0x13
 2415 010a 00       		.byte	0x0
 2416 010b 00       		.byte	0x0
ARM GAS  C:\Users\csap2972\AppData\Local\Temp\ccYNK1mP.s 			page 56


 2417 010c 15       		.uleb128 0x15
 2418 010d 05       		.uleb128 0x5
 2419 010e 00       		.byte	0x0
 2420 010f 03       		.uleb128 0x3
 2421 0110 0E       		.uleb128 0xe
 2422 0111 3A       		.uleb128 0x3a
 2423 0112 0B       		.uleb128 0xb
 2424 0113 3B       		.uleb128 0x3b
 2425 0114 05       		.uleb128 0x5
 2426 0115 49       		.uleb128 0x49
 2427 0116 13       		.uleb128 0x13
 2428 0117 02       		.uleb128 0x2
 2429 0118 0A       		.uleb128 0xa
 2430 0119 00       		.byte	0x0
 2431 011a 00       		.byte	0x0
 2432 011b 16       		.uleb128 0x16
 2433 011c 2E       		.uleb128 0x2e
 2434 011d 00       		.byte	0x0
 2435 011e 3F       		.uleb128 0x3f
 2436 011f 0C       		.uleb128 0xc
 2437 0120 03       		.uleb128 0x3
 2438 0121 0E       		.uleb128 0xe
 2439 0122 3A       		.uleb128 0x3a
 2440 0123 0B       		.uleb128 0xb
 2441 0124 3B       		.uleb128 0x3b
 2442 0125 05       		.uleb128 0x5
 2443 0126 27       		.uleb128 0x27
 2444 0127 0C       		.uleb128 0xc
 2445 0128 11       		.uleb128 0x11
 2446 0129 01       		.uleb128 0x1
 2447 012a 12       		.uleb128 0x12
 2448 012b 01       		.uleb128 0x1
 2449 012c 40       		.uleb128 0x40
 2450 012d 06       		.uleb128 0x6
 2451 012e 00       		.byte	0x0
 2452 012f 00       		.byte	0x0
 2453 0130 17       		.uleb128 0x17
 2454 0131 34       		.uleb128 0x34
 2455 0132 00       		.byte	0x0
 2456 0133 03       		.uleb128 0x3
 2457 0134 0E       		.uleb128 0xe
 2458 0135 3A       		.uleb128 0x3a
 2459 0136 0B       		.uleb128 0xb
 2460 0137 3B       		.uleb128 0x3b
 2461 0138 0B       		.uleb128 0xb
 2462 0139 49       		.uleb128 0x49
 2463 013a 13       		.uleb128 0x13
 2464 013b 02       		.uleb128 0x2
 2465 013c 0A       		.uleb128 0xa
 2466 013d 00       		.byte	0x0
 2467 013e 00       		.byte	0x0
 2468 013f 18       		.uleb128 0x18
 2469 0140 26       		.uleb128 0x26
 2470 0141 00       		.byte	0x0
 2471 0142 49       		.uleb128 0x49
 2472 0143 13       		.uleb128 0x13
 2473 0144 00       		.byte	0x0
ARM GAS  C:\Users\csap2972\AppData\Local\Temp\ccYNK1mP.s 			page 57


 2474 0145 00       		.byte	0x0
 2475 0146 19       		.uleb128 0x19
 2476 0147 34       		.uleb128 0x34
 2477 0148 00       		.byte	0x0
 2478 0149 03       		.uleb128 0x3
 2479 014a 0E       		.uleb128 0xe
 2480 014b 3A       		.uleb128 0x3a
 2481 014c 0B       		.uleb128 0xb
 2482 014d 3B       		.uleb128 0x3b
 2483 014e 05       		.uleb128 0x5
 2484 014f 49       		.uleb128 0x49
 2485 0150 13       		.uleb128 0x13
 2486 0151 3F       		.uleb128 0x3f
 2487 0152 0C       		.uleb128 0xc
 2488 0153 02       		.uleb128 0x2
 2489 0154 0A       		.uleb128 0xa
 2490 0155 00       		.byte	0x0
 2491 0156 00       		.byte	0x0
 2492 0157 00       		.byte	0x0
 2493              		.section	.debug_pubnames,"",%progbits
 2494 0000 BE000000 		.4byte	0xbe
 2495 0004 0200     		.2byte	0x2
 2496 0006 00000000 		.4byte	.Ldebug_info0
 2497 000a 9D040000 		.4byte	0x49d
 2498 000e 8C020000 		.4byte	0x28c
 2499 0012 416E616C 		.ascii	"AnalogSetDefault\000"
 2499      6F675365 
 2499      74446566 
 2499      61756C74 
 2499      00
 2500 0023 B6020000 		.4byte	0x2b6
 2501 0027 53657441 		.ascii	"SetAnalogRoutingPumps\000"
 2501      6E616C6F 
 2501      67526F75 
 2501      74696E67 
 2501      50756D70 
 2502 003d EF020000 		.4byte	0x2ef
 2503 0041 4144435F 		.ascii	"ADC_DelSig_AMux_Set\000"
 2503      44656C53 
 2503      69675F41 
 2503      4D75785F 
 2503      53657400 
 2504 0055 19030000 		.4byte	0x319
 2505 0059 4144435F 		.ascii	"ADC_DelSig_AMux_Unset\000"
 2505      44656C53 
 2505      69675F41 
 2505      4D75785F 
 2505      556E7365 
 2506 006f 43030000 		.4byte	0x343
 2507 0073 63796669 		.ascii	"cyfitter_cfg\000"
 2507      74746572 
 2507      5F636667 
 2507      00
 2508 0080 5C040000 		.4byte	0x45c
 2509 0084 4144435F 		.ascii	"ADC_DelSig_AMux__addrTable\000"
 2509      44656C53 
 2509      69675F41 
ARM GAS  C:\Users\csap2972\AppData\Local\Temp\ccYNK1mP.s 			page 58


 2509      4D75785F 
 2509      5F616464 
 2510 009f 84040000 		.4byte	0x484
 2511 00a3 4144435F 		.ascii	"ADC_DelSig_AMux__maskTable\000"
 2511      44656C53 
 2511      69675F41 
 2511      4D75785F 
 2511      5F6D6173 
 2512 00be 00000000 		.4byte	0x0
 2513              		.section	.debug_aranges,"",%progbits
 2514 0000 54000000 		.4byte	0x54
 2515 0004 0200     		.2byte	0x2
 2516 0006 00000000 		.4byte	.Ldebug_info0
 2517 000a 04       		.byte	0x4
 2518 000b 00       		.byte	0x0
 2519 000c 0000     		.2byte	0x0
 2520 000e 0000     		.2byte	0x0
 2521 0010 00000000 		.4byte	.LFB0
 2522 0014 0C000000 		.4byte	.LFE0-.LFB0
 2523 0018 00000000 		.4byte	.LFB1
 2524 001c C2010000 		.4byte	.LFE1-.LFB1
 2525 0020 00000000 		.4byte	.LFB2
 2526 0024 1A020000 		.4byte	.LFE2-.LFB2
 2527 0028 00000000 		.4byte	.LFB3
 2528 002c D8000000 		.4byte	.LFE3-.LFB3
 2529 0030 00000000 		.4byte	.LFB4
 2530 0034 44000000 		.4byte	.LFE4-.LFB4
 2531 0038 00000000 		.4byte	.LFB5
 2532 003c 50000000 		.4byte	.LFE5-.LFB5
 2533 0040 00000000 		.4byte	.LFB6
 2534 0044 5A000000 		.4byte	.LFE6-.LFB6
 2535 0048 00000000 		.4byte	.LFB7
 2536 004c 50010000 		.4byte	.LFE7-.LFB7
 2537 0050 00000000 		.4byte	0x0
 2538 0054 00000000 		.4byte	0x0
 2539              		.section	.debug_ranges,"",%progbits
 2540              	.Ldebug_ranges0:
 2541 0000 00000000 		.4byte	.Ltext0
 2542 0004 00000000 		.4byte	.Letext0
 2543 0008 00000000 		.4byte	.LFB0
 2544 000c 0C000000 		.4byte	.LFE0
 2545 0010 00000000 		.4byte	.LFB1
 2546 0014 C2010000 		.4byte	.LFE1
 2547 0018 00000000 		.4byte	.LFB2
 2548 001c 1A020000 		.4byte	.LFE2
 2549 0020 00000000 		.4byte	.LFB3
 2550 0024 D8000000 		.4byte	.LFE3
 2551 0028 00000000 		.4byte	.LFB4
 2552 002c 44000000 		.4byte	.LFE4
 2553 0030 00000000 		.4byte	.LFB5
 2554 0034 50000000 		.4byte	.LFE5
 2555 0038 00000000 		.4byte	.LFB6
 2556 003c 5A000000 		.4byte	.LFE6
 2557 0040 00000000 		.4byte	.LFB7
 2558 0044 50010000 		.4byte	.LFE7
 2559 0048 00000000 		.4byte	0x0
 2560 004c 00000000 		.4byte	0x0
ARM GAS  C:\Users\csap2972\AppData\Local\Temp\ccYNK1mP.s 			page 59


 2561              		.section	.debug_str,"MS",%progbits,1
 2562              	.LASF5:
 2563 0000 6C6F6E67 		.ascii	"long long int\000"
 2563      206C6F6E 
 2563      6720696E 
 2563      7400
 2564              	.LASF41:
 2565 000e 6368616E 		.ascii	"channel\000"
 2565      6E656C00 
 2566              	.LASF35:
 2567 0016 416E616C 		.ascii	"AnalogSetDefault\000"
 2567      6F675365 
 2567      74446566 
 2567      61756C74 
 2567      00
 2568              	.LASF51:
 2569 0027 4144435F 		.ascii	"ADC_DelSig_AMux__addrTable\000"
 2569      44656C53 
 2569      69675F41 
 2569      4D75785F 
 2569      5F616464 
 2570              	.LASF50:
 2571 0042 4346475F 		.ascii	"CFG_TD_ADDR0\000"
 2571      54445F41 
 2571      44445230 
 2571      00
 2572              	.LASF16:
 2573 004f 72657365 		.ascii	"reserved\000"
 2573      72766564 
 2573      00
 2574              	.LASF30:
 2575 0058 436C6F63 		.ascii	"ClockSetup\000"
 2575      6B536574 
 2575      757000
 2576              	.LASF19:
 2577 0063 43464730 		.ascii	"CFG0\000"
 2577      00
 2578              	.LASF3:
 2579 0068 73686F72 		.ascii	"short unsigned int\000"
 2579      7420756E 
 2579      7369676E 
 2579      65642069 
 2579      6E7400
 2580              	.LASF13:
 2581 007b 62617369 		.ascii	"basic_cfg\000"
 2581      635F6366 
 2581      6700
 2582              	.LASF46:
 2583 0085 4348365F 		.ascii	"CH6_ADDR_DATA0\000"
 2583      41444452 
 2583      5F444154 
 2583      413000
 2584              	.LASF55:
 2585 0094 4A3A5C63 		.ascii	"J:\\c704\\C704224\\Cypress\\CY8C5868\\Laser_Schutzs"
 2585      3730345C 
 2585      43373034 
 2585      3232345C 
ARM GAS  C:\Users\csap2972\AppData\Local\Temp\ccYNK1mP.s 			page 60


 2585      43797072 
 2586 00c2 6368616C 		.ascii	"chaltung\\Design01\\Design02.cydsn\000"
 2586      74756E67 
 2586      5C446573 
 2586      69676E30 
 2586      315C4465 
 2587              	.LASF27:
 2588 00e3 4379436C 		.ascii	"CyClockStartupError\000"
 2588      6F636B53 
 2588      74617274 
 2588      75704572 
 2588      726F7200 
 2589              	.LASF15:
 2590 00f7 62617369 		.ascii	"basic_status\000"
 2590      635F7374 
 2590      61747573 
 2590      00
 2591              	.LASF40:
 2592 0104 4144435F 		.ascii	"ADC_DelSig_AMux_Set\000"
 2592      44656C53 
 2592      69675F41 
 2592      4D75785F 
 2592      53657400 
 2593              	.LASF23:
 2594 0118 73697A65 		.ascii	"size\000"
 2594      00
 2595              	.LASF38:
 2596 011d 656E6162 		.ascii	"enabled\000"
 2596      6C656400 
 2597              	.LASF17:
 2598 0125 646D6163 		.ascii	"dmac_ch_struct\000"
 2598      5F63685F 
 2598      73747275 
 2598      637400
 2599              	.LASF8:
 2600 0134 6C6F6E67 		.ascii	"long unsigned int\000"
 2600      20756E73 
 2600      69676E65 
 2600      6420696E 
 2600      7400
 2601              	.LASF10:
 2602 0146 75696E74 		.ascii	"uint8\000"
 2602      3800
 2603              	.LASF24:
 2604 014c 6E657874 		.ascii	"next_td_ptr\000"
 2604      5F74645F 
 2604      70747200 
 2605              	.LASF39:
 2606 0158 72656756 		.ascii	"regValue\000"
 2606      616C7565 
 2606      00
 2607              	.LASF28:
 2608 0161 6366675F 		.ascii	"cfg_dma_init\000"
 2608      646D615F 
 2608      696E6974 
 2608      00
 2609              	.LASF52:
ARM GAS  C:\Users\csap2972\AppData\Local\Temp\ccYNK1mP.s 			page 61


 2610 016e 4144435F 		.ascii	"ADC_DelSig_AMux__maskTable\000"
 2610      44656C53 
 2610      69675F41 
 2610      4D75785F 
 2610      5F6D6173 
 2611              	.LASF44:
 2612 0189 4348325F 		.ascii	"CH2_ADDR_DATA0\000"
 2612      41444452 
 2612      5F444154 
 2612      413000
 2613              	.LASF1:
 2614 0198 756E7369 		.ascii	"unsigned char\000"
 2614      676E6564 
 2614      20636861 
 2614      7200
 2615              	.LASF32:
 2616 01a6 74696D65 		.ascii	"timeout_p\000"
 2616      6F75745F 
 2616      7000
 2617              	.LASF31:
 2618 01b0 74696D65 		.ascii	"timeout\000"
 2618      6F757400 
 2619              	.LASF14:
 2620 01b8 61637469 		.ascii	"action\000"
 2620      6F6E00
 2621              	.LASF48:
 2622 01bf 444D415F 		.ascii	"DMA_ZERO_VAL\000"
 2622      5A45524F 
 2622      5F56414C 
 2622      00
 2623              	.LASF11:
 2624 01cc 75696E74 		.ascii	"uint16\000"
 2624      313600
 2625              	.LASF37:
 2626 01d3 6572726F 		.ascii	"errorCode\000"
 2626      72436F64 
 2626      6500
 2627              	.LASF12:
 2628 01dd 75696E74 		.ascii	"uint32\000"
 2628      333200
 2629              	.LASF4:
 2630 01e4 756E7369 		.ascii	"unsigned int\000"
 2630      676E6564 
 2630      20696E74 
 2630      00
 2631              	.LASF25:
 2632 01f1 666C6167 		.ascii	"flags\000"
 2632      7300
 2633              	.LASF56:
 2634 01f7 63796669 		.ascii	"cyfitter_cfg\000"
 2634      74746572 
 2634      5F636667 
 2634      00
 2635              	.LASF6:
 2636 0204 6C6F6E67 		.ascii	"long long unsigned int\000"
 2636      206C6F6E 
 2636      6720756E 
ARM GAS  C:\Users\csap2972\AppData\Local\Temp\ccYNK1mP.s 			page 62


 2636      7369676E 
 2636      65642069 
 2637              	.LASF47:
 2638 021b 444D415F 		.ascii	"DMA_TD_START_CMD\000"
 2638      54445F53 
 2638      54415254 
 2638      5F434D44 
 2638      00
 2639              	.LASF26:
 2640 022c 64657374 		.ascii	"dest\000"
 2640      00
 2641              	.LASF22:
 2642 0231 74645F74 		.ascii	"td_t\000"
 2642      00
 2643              	.LASF29:
 2644 0236 73726341 		.ascii	"srcAddrPtr\000"
 2644      64647250 
 2644      747200
 2645              	.LASF53:
 2646 0241 474E5520 		.ascii	"GNU C 4.4.1\000"
 2646      4320342E 
 2646      342E3100 
 2647              	.LASF18:
 2648 024d 646D6163 		.ascii	"dmac_cfgmem_struct\000"
 2648      5F636667 
 2648      6D656D5F 
 2648      73747275 
 2648      637400
 2649              	.LASF9:
 2650 0260 63686172 		.ascii	"char\000"
 2650      00
 2651              	.LASF21:
 2652 0265 646D6163 		.ascii	"dmac_tdmem_struct\000"
 2652      5F74646D 
 2652      656D5F73 
 2652      74727563 
 2652      7400
 2653              	.LASF45:
 2654 0277 4348355F 		.ascii	"CH5_ADDR_DATA0\000"
 2654      41444452 
 2654      5F444154 
 2654      413000
 2655              	.LASF20:
 2656 0286 43464731 		.ascii	"CFG1\000"
 2656      00
 2657              	.LASF2:
 2658 028b 73686F72 		.ascii	"short int\000"
 2658      7420696E 
 2658      7400
 2659              	.LASF54:
 2660 0295 2E5C4765 		.ascii	".\\Generated_Source\\PSoC5\\cyfitter_cfg.c\000"
 2660      6E657261 
 2660      7465645F 
 2660      536F7572 
 2660      63655C50 
 2661              	.LASF7:
 2662 02bd 6C6F6E67 		.ascii	"long int\000"
ARM GAS  C:\Users\csap2972\AppData\Local\Temp\ccYNK1mP.s 			page 63


 2662      20696E74 
 2662      00
 2663              	.LASF36:
 2664 02c6 53657441 		.ascii	"SetAnalogRoutingPumps\000"
 2664      6E616C6F 
 2664      67526F75 
 2664      74696E67 
 2664      50756D70 
 2665              	.LASF34:
 2666 02dc 62675F78 		.ascii	"bg_xover_inl_trim\000"
 2666      6F766572 
 2666      5F696E6C 
 2666      5F747269 
 2666      6D00
 2667              	.LASF0:
 2668 02ee 7369676E 		.ascii	"signed char\000"
 2668      65642063 
 2668      68617200 
 2669              	.LASF33:
 2670 02fa 706C6C4C 		.ascii	"pllLock\000"
 2670      6F636B00 
 2671              	.LASF49:
 2672 0302 4346475F 		.ascii	"CFG_TD_LIST0\000"
 2672      54445F4C 
 2672      49535430 
 2672      00
 2673              	.LASF43:
 2674 030f 4348315F 		.ascii	"CH1_ADDR_DATA0\000"
 2674      41444452 
 2674      5F444154 
 2674      413000
 2675              	.LASF42:
 2676 031e 4144435F 		.ascii	"ADC_DelSig_AMux_Unset\000"
 2676      44656C53 
 2676      69675F41 
 2676      4D75785F 
 2676      556E7365 
 2677              		.ident	"GCC: (Sourcery G++ Lite 2010q1-188) 4.4.1"
