ARM GAS  C:\Users\csap2972\AppData\Local\Temp\cc3BsNf5.s 			page 1


   1              		.syntax unified
   2              		.cpu cortex-m3
   3              		.fpu softvfp
   4              		.eabi_attribute 20, 1
   5              		.eabi_attribute 21, 1
   6              		.eabi_attribute 23, 3
   7              		.eabi_attribute 24, 1
   8              		.eabi_attribute 25, 1
   9              		.eabi_attribute 26, 1
  10              		.eabi_attribute 30, 6
  11              		.eabi_attribute 18, 4
  12              		.thumb
  13              		.file	"CyFlash.c"
  20 0000 8B010000 		.text
  20      02005F00 
  20      00000201 
  20      FB0E0D00 
  20      01010101 
  21              	.Ltext0:
  22              		.cfi_sections	.debug_frame
  23              		.comm	dieTemperature,2,4
  24              		.bss
  25              		.align	2
  26              	rowBuffer:
  27 0000 00000000 		.space	4
  28              		.section	.text.CyFlash_Start,"ax",%progbits
  29              		.align	2
  30              		.global	CyFlash_Start
  31              		.thumb
  32              		.thumb_func
  33              		.type	CyFlash_Start, %function
  34              	CyFlash_Start:
  35              	.LFB0:
  36              		.file 1 ".\\Generated_Source\\PSoC5\\CyFlash.c"
   1:.\Generated_Source\PSoC5/CyFlash.c **** /*******************************************************************************
   2:.\Generated_Source\PSoC5/CyFlash.c **** * File Name: CyFlash.c
   3:.\Generated_Source\PSoC5/CyFlash.c **** * Version 3.20
   4:.\Generated_Source\PSoC5/CyFlash.c **** *
   5:.\Generated_Source\PSoC5/CyFlash.c **** *  Description:
   6:.\Generated_Source\PSoC5/CyFlash.c **** *   Provides an API for the FLASH/EEPROM.
   7:.\Generated_Source\PSoC5/CyFlash.c **** *
   8:.\Generated_Source\PSoC5/CyFlash.c **** *  Note:
   9:.\Generated_Source\PSoC5/CyFlash.c **** *   This code is endian agnostic.
  10:.\Generated_Source\PSoC5/CyFlash.c **** *
  11:.\Generated_Source\PSoC5/CyFlash.c **** *  Note:
  12:.\Generated_Source\PSoC5/CyFlash.c **** *   Documentation of the API's in this file is located in the
  13:.\Generated_Source\PSoC5/CyFlash.c **** *   System Reference Guide provided with PSoC Creator.
  14:.\Generated_Source\PSoC5/CyFlash.c **** *
  15:.\Generated_Source\PSoC5/CyFlash.c **** ********************************************************************************
  16:.\Generated_Source\PSoC5/CyFlash.c **** * Copyright 2008-2012, Cypress Semiconductor Corporation. All rights reserved.
  17:.\Generated_Source\PSoC5/CyFlash.c **** * You may use this file only in accordance with the license, terms, conditions,
ARM GAS  C:\Users\csap2972\AppData\Local\Temp\cc3BsNf5.s 			page 2


  18:.\Generated_Source\PSoC5/CyFlash.c **** * disclaimers, and limitations in the end user license agreement accompanying
  19:.\Generated_Source\PSoC5/CyFlash.c **** * the software package with which this file was provided.
  20:.\Generated_Source\PSoC5/CyFlash.c **** *******************************************************************************/
  21:.\Generated_Source\PSoC5/CyFlash.c **** 
  22:.\Generated_Source\PSoC5/CyFlash.c **** #include "CyFlash.h"
  23:.\Generated_Source\PSoC5/CyFlash.c **** 
  24:.\Generated_Source\PSoC5/CyFlash.c **** 
  25:.\Generated_Source\PSoC5/CyFlash.c **** /*******************************************************************************
  26:.\Generated_Source\PSoC5/CyFlash.c **** * Holds die temperature, updated by CySetTemp(). Used for flash writting.
  27:.\Generated_Source\PSoC5/CyFlash.c **** * The first byte is the sign of the temperature (0 = negative, 1 = positive).
  28:.\Generated_Source\PSoC5/CyFlash.c **** * The second byte is the magnitude.
  29:.\Generated_Source\PSoC5/CyFlash.c **** *******************************************************************************/
  30:.\Generated_Source\PSoC5/CyFlash.c **** uint8 dieTemperature[CY_FLASH_DIE_TEMP_DATA_SIZE];
  31:.\Generated_Source\PSoC5/CyFlash.c **** 
  32:.\Generated_Source\PSoC5/CyFlash.c **** #if(CYDEV_ECC_ENABLE == 0)
  33:.\Generated_Source\PSoC5/CyFlash.c ****     static uint8 * rowBuffer = 0;
  34:.\Generated_Source\PSoC5/CyFlash.c **** #endif  /* (CYDEV_ECC_ENABLE == 0) */
  35:.\Generated_Source\PSoC5/CyFlash.c **** 
  36:.\Generated_Source\PSoC5/CyFlash.c **** 
  37:.\Generated_Source\PSoC5/CyFlash.c **** /*******************************************************************************
  38:.\Generated_Source\PSoC5/CyFlash.c **** * Function Name: CyFlash_Start
  39:.\Generated_Source\PSoC5/CyFlash.c **** ********************************************************************************
  40:.\Generated_Source\PSoC5/CyFlash.c **** *
  41:.\Generated_Source\PSoC5/CyFlash.c **** * Summary:
  42:.\Generated_Source\PSoC5/CyFlash.c **** *  Enable the EEPROM/Flash.
  43:.\Generated_Source\PSoC5/CyFlash.c **** *
  44:.\Generated_Source\PSoC5/CyFlash.c **** *  Note: For PSoC 5, this will enable both Flash and EEPROM. For PSoC 3 and
  45:.\Generated_Source\PSoC5/CyFlash.c **** *  PSOC 5LP  this will enable only Flash.
  46:.\Generated_Source\PSoC5/CyFlash.c **** *
  47:.\Generated_Source\PSoC5/CyFlash.c **** * Parameters:
  48:.\Generated_Source\PSoC5/CyFlash.c **** *  None
  49:.\Generated_Source\PSoC5/CyFlash.c **** *
  50:.\Generated_Source\PSoC5/CyFlash.c **** * Return:
  51:.\Generated_Source\PSoC5/CyFlash.c **** *  None
  52:.\Generated_Source\PSoC5/CyFlash.c **** *
  53:.\Generated_Source\PSoC5/CyFlash.c **** *******************************************************************************/
  54:.\Generated_Source\PSoC5/CyFlash.c **** void CyFlash_Start(void) 
  55:.\Generated_Source\PSoC5/CyFlash.c **** {
  37              		.loc 1 55 0
  38              		.cfi_startproc
  39              		@ args = 0, pretend = 0, frame = 0
  40              		@ frame_needed = 1, uses_anonymous_args = 0
  41 0000 80B5     		push	{r7, lr}
  42              	.LCFI0:
  43              		.cfi_def_cfa_offset 8
  44 0002 00AF     		add	r7, sp, #0
  45              		.cfi_offset 14, -4
  46              		.cfi_offset 7, -8
  47              	.LCFI1:
  48              		.cfi_def_cfa_register 7
  56:.\Generated_Source\PSoC5/CyFlash.c ****     #if(CY_PSOC5A)
  57:.\Generated_Source\PSoC5/CyFlash.c **** 
  58:.\Generated_Source\PSoC5/CyFlash.c ****         /* Active Power Mode */
  59:.\Generated_Source\PSoC5/CyFlash.c ****         *PM_ACT_EEFLASH |= PM_FLASH_EE_MASK;
  60:.\Generated_Source\PSoC5/CyFlash.c **** 
  61:.\Generated_Source\PSoC5/CyFlash.c ****         /* Standby Power Mode */
  62:.\Generated_Source\PSoC5/CyFlash.c ****         *PM_STBY_EEFLASH |= PM_FLASH_EE_MASK;
ARM GAS  C:\Users\csap2972\AppData\Local\Temp\cc3BsNf5.s 			page 3


  63:.\Generated_Source\PSoC5/CyFlash.c **** 
  64:.\Generated_Source\PSoC5/CyFlash.c ****     #endif  /* (CY_PSOC5A) */
  65:.\Generated_Source\PSoC5/CyFlash.c **** 
  66:.\Generated_Source\PSoC5/CyFlash.c ****     #if(CY_PSOC3 || CY_PSOC5LP)
  67:.\Generated_Source\PSoC5/CyFlash.c **** 
  68:.\Generated_Source\PSoC5/CyFlash.c ****         /* Active Power Mode */
  69:.\Generated_Source\PSoC5/CyFlash.c ****         *PM_ACT_FLASH_PTR |= PM_FLASH_MASK;
  49              		.loc 1 69 0
  50 0004 44F2AC33 		movw	r3, #:lower16:1073759148
  51 0008 C4F20003 		movt	r3, #:upper16:1073759148
  52 000c 44F2AC32 		movw	r2, #:lower16:1073759148
  53 0010 C4F20002 		movt	r2, #:upper16:1073759148
  54 0014 1278     		ldrb	r2, [r2, #0]
  55 0016 D2B2     		uxtb	r2, r2
  56 0018 42F00102 		orr	r2, r2, #1
  57 001c D2B2     		uxtb	r2, r2
  58 001e 1A70     		strb	r2, [r3, #0]
  70:.\Generated_Source\PSoC5/CyFlash.c **** 
  71:.\Generated_Source\PSoC5/CyFlash.c ****         /* Standby Power Mode */
  72:.\Generated_Source\PSoC5/CyFlash.c ****         *PM_STBY_FLASH_PTR |= PM_FLASH_MASK;
  59              		.loc 1 72 0
  60 0020 44F2BC33 		movw	r3, #:lower16:1073759164
  61 0024 C4F20003 		movt	r3, #:upper16:1073759164
  62 0028 44F2BC32 		movw	r2, #:lower16:1073759164
  63 002c C4F20002 		movt	r2, #:upper16:1073759164
  64 0030 1278     		ldrb	r2, [r2, #0]
  65 0032 D2B2     		uxtb	r2, r2
  66 0034 42F00102 		orr	r2, r2, #1
  67 0038 D2B2     		uxtb	r2, r2
  68 003a 1A70     		strb	r2, [r3, #0]
  73:.\Generated_Source\PSoC5/CyFlash.c **** 
  74:.\Generated_Source\PSoC5/CyFlash.c ****     #endif  /* (CY_PSOC3 || CY_PSOC5LP) */
  75:.\Generated_Source\PSoC5/CyFlash.c ****     
  76:.\Generated_Source\PSoC5/CyFlash.c ****     CyDelayUs(CY_FLASH_EE_STARTUP_DELAY);
  69              		.loc 1 76 0
  70 003c 4FF00500 		mov	r0, #5
  71 0040 FFF7FEFF 		bl	CyDelayUs
  77:.\Generated_Source\PSoC5/CyFlash.c **** }
  72              		.loc 1 77 0
  73 0044 80BD     		pop	{r7, pc}
  74              		.cfi_endproc
  75              	.LFE0:
  76              		.size	CyFlash_Start, .-CyFlash_Start
  77 0046 00BF     		.section	.text.CyFlash_Stop,"ax",%progbits
  78              		.align	2
  79              		.global	CyFlash_Stop
  80              		.thumb
  81              		.thumb_func
  82              		.type	CyFlash_Stop, %function
  83              	CyFlash_Stop:
  84              	.LFB1:
  78:.\Generated_Source\PSoC5/CyFlash.c **** 
  79:.\Generated_Source\PSoC5/CyFlash.c **** 
  80:.\Generated_Source\PSoC5/CyFlash.c **** /*******************************************************************************
  81:.\Generated_Source\PSoC5/CyFlash.c **** * Function Name: CyFlash_Stop
  82:.\Generated_Source\PSoC5/CyFlash.c **** ********************************************************************************
  83:.\Generated_Source\PSoC5/CyFlash.c **** *
ARM GAS  C:\Users\csap2972\AppData\Local\Temp\cc3BsNf5.s 			page 4


  84:.\Generated_Source\PSoC5/CyFlash.c **** * Summary:
  85:.\Generated_Source\PSoC5/CyFlash.c **** *  Disable the EEPROM/Flash.
  86:.\Generated_Source\PSoC5/CyFlash.c **** *
  87:.\Generated_Source\PSoC5/CyFlash.c **** *  Note:
  88:.\Generated_Source\PSoC5/CyFlash.c **** *  PSoC5 ES1:        disable both Flash and EEPROM.
  89:.\Generated_Source\PSoC5/CyFlash.c **** *  PSoC3 ES3/PSOC5A: disable only Flash.
  90:.\Generated_Source\PSoC5/CyFlash.c **** *
  91:.\Generated_Source\PSoC5/CyFlash.c **** * Parameters:
  92:.\Generated_Source\PSoC5/CyFlash.c **** *  None
  93:.\Generated_Source\PSoC5/CyFlash.c **** *
  94:.\Generated_Source\PSoC5/CyFlash.c **** * Return:
  95:.\Generated_Source\PSoC5/CyFlash.c **** *  None
  96:.\Generated_Source\PSoC5/CyFlash.c **** *
  97:.\Generated_Source\PSoC5/CyFlash.c **** * Side Effects:
  98:.\Generated_Source\PSoC5/CyFlash.c **** *  This setting is ignored as long as the CPU is currently running.  This will
  99:.\Generated_Source\PSoC5/CyFlash.c **** *  only take effect when the CPU is later disabled.
 100:.\Generated_Source\PSoC5/CyFlash.c **** *
 101:.\Generated_Source\PSoC5/CyFlash.c **** *******************************************************************************/
 102:.\Generated_Source\PSoC5/CyFlash.c **** void CyFlash_Stop(void) 
 103:.\Generated_Source\PSoC5/CyFlash.c **** {
  85              		.loc 1 103 0
  86              		.cfi_startproc
  87              		@ args = 0, pretend = 0, frame = 0
  88              		@ frame_needed = 1, uses_anonymous_args = 0
  89              		@ link register save eliminated.
  90 0000 80B4     		push	{r7}
  91              	.LCFI2:
  92              		.cfi_def_cfa_offset 4
  93 0002 00AF     		add	r7, sp, #0
  94              		.cfi_offset 7, -4
  95              	.LCFI3:
  96              		.cfi_def_cfa_register 7
 104:.\Generated_Source\PSoC5/CyFlash.c ****     #if (CY_PSOC5A)
 105:.\Generated_Source\PSoC5/CyFlash.c **** 
 106:.\Generated_Source\PSoC5/CyFlash.c ****         /* Active Power Mode */
 107:.\Generated_Source\PSoC5/CyFlash.c ****         *PM_ACT_EEFLASH &= ~PM_FLASH_EE_MASK;
 108:.\Generated_Source\PSoC5/CyFlash.c **** 
 109:.\Generated_Source\PSoC5/CyFlash.c ****         /* Standby Power Mode */
 110:.\Generated_Source\PSoC5/CyFlash.c ****         *PM_STBY_EEFLASH &= ~PM_FLASH_EE_MASK;
 111:.\Generated_Source\PSoC5/CyFlash.c **** 
 112:.\Generated_Source\PSoC5/CyFlash.c ****     #endif  /* (CY_PSOC5A) */
 113:.\Generated_Source\PSoC5/CyFlash.c **** 
 114:.\Generated_Source\PSoC5/CyFlash.c ****     #if (CY_PSOC3 || CY_PSOC5LP)
 115:.\Generated_Source\PSoC5/CyFlash.c **** 
 116:.\Generated_Source\PSoC5/CyFlash.c ****         /* Active Power Mode */
 117:.\Generated_Source\PSoC5/CyFlash.c ****         *PM_ACT_FLASH_PTR &= ~PM_FLASH_MASK;
  97              		.loc 1 117 0
  98 0004 44F2AC33 		movw	r3, #:lower16:1073759148
  99 0008 C4F20003 		movt	r3, #:upper16:1073759148
 100 000c 44F2AC32 		movw	r2, #:lower16:1073759148
 101 0010 C4F20002 		movt	r2, #:upper16:1073759148
 102 0014 1278     		ldrb	r2, [r2, #0]
 103 0016 D2B2     		uxtb	r2, r2
 104 0018 02F0FE02 		and	r2, r2, #254
 105 001c 1A70     		strb	r2, [r3, #0]
 118:.\Generated_Source\PSoC5/CyFlash.c **** 
 119:.\Generated_Source\PSoC5/CyFlash.c ****         /* Standby Power Mode */
ARM GAS  C:\Users\csap2972\AppData\Local\Temp\cc3BsNf5.s 			page 5


 120:.\Generated_Source\PSoC5/CyFlash.c ****         *PM_STBY_FLASH_PTR &= ~PM_FLASH_MASK;
 106              		.loc 1 120 0
 107 001e 44F2BC33 		movw	r3, #:lower16:1073759164
 108 0022 C4F20003 		movt	r3, #:upper16:1073759164
 109 0026 44F2BC32 		movw	r2, #:lower16:1073759164
 110 002a C4F20002 		movt	r2, #:upper16:1073759164
 111 002e 1278     		ldrb	r2, [r2, #0]
 112 0030 D2B2     		uxtb	r2, r2
 113 0032 02F0FE02 		and	r2, r2, #254
 114 0036 1A70     		strb	r2, [r3, #0]
 121:.\Generated_Source\PSoC5/CyFlash.c **** 
 122:.\Generated_Source\PSoC5/CyFlash.c ****     #endif  /* (CY_PSOC3 || CY_PSOC5LP) */
 123:.\Generated_Source\PSoC5/CyFlash.c **** }
 115              		.loc 1 123 0
 116 0038 BD46     		mov	sp, r7
 117 003a 80BC     		pop	{r7}
 118 003c 7047     		bx	lr
 119              		.cfi_endproc
 120              	.LFE1:
 121              		.size	CyFlash_Stop, .-CyFlash_Stop
 122 003e 00BF     		.section	.text.CySetTempInt,"ax",%progbits
 123              		.align	2
 124              		.global	CySetTempInt
 125              		.thumb
 126              		.thumb_func
 127              		.type	CySetTempInt, %function
 128              	CySetTempInt:
 129              	.LFB2:
 124:.\Generated_Source\PSoC5/CyFlash.c **** 
 125:.\Generated_Source\PSoC5/CyFlash.c **** 
 126:.\Generated_Source\PSoC5/CyFlash.c **** /*******************************************************************************
 127:.\Generated_Source\PSoC5/CyFlash.c **** * Function Name: CySetTempInt
 128:.\Generated_Source\PSoC5/CyFlash.c **** ********************************************************************************
 129:.\Generated_Source\PSoC5/CyFlash.c **** *
 130:.\Generated_Source\PSoC5/CyFlash.c **** * Summary:
 131:.\Generated_Source\PSoC5/CyFlash.c **** *  Sends a command to the SPC to read the die temperature. Sets a global value
 132:.\Generated_Source\PSoC5/CyFlash.c **** *  used by the Write functions. This function must be called once before
 133:.\Generated_Source\PSoC5/CyFlash.c **** *  executing a series of Flash writing functions.
 134:.\Generated_Source\PSoC5/CyFlash.c **** *
 135:.\Generated_Source\PSoC5/CyFlash.c **** * Parameters:
 136:.\Generated_Source\PSoC5/CyFlash.c **** *  None
 137:.\Generated_Source\PSoC5/CyFlash.c **** *
 138:.\Generated_Source\PSoC5/CyFlash.c **** * Return:
 139:.\Generated_Source\PSoC5/CyFlash.c **** *  status:
 140:.\Generated_Source\PSoC5/CyFlash.c **** *   CYRET_SUCCESS - if successful
 141:.\Generated_Source\PSoC5/CyFlash.c **** *   CYRET_LOCKED  - if Flash writing already in use
 142:.\Generated_Source\PSoC5/CyFlash.c **** *   CYRET_UNKNOWN - if there was an SPC error
 143:.\Generated_Source\PSoC5/CyFlash.c **** *
 144:.\Generated_Source\PSoC5/CyFlash.c **** *******************************************************************************/
 145:.\Generated_Source\PSoC5/CyFlash.c **** cystatus CySetTempInt(void) 
 146:.\Generated_Source\PSoC5/CyFlash.c **** {
 130              		.loc 1 146 0
 131              		.cfi_startproc
 132              		@ args = 0, pretend = 0, frame = 8
 133              		@ frame_needed = 1, uses_anonymous_args = 0
 134 0000 80B5     		push	{r7, lr}
 135              	.LCFI4:
ARM GAS  C:\Users\csap2972\AppData\Local\Temp\cc3BsNf5.s 			page 6


 136              		.cfi_def_cfa_offset 8
 137 0002 82B0     		sub	sp, sp, #8
 138              	.LCFI5:
 139              		.cfi_def_cfa_offset 16
 140 0004 00AF     		add	r7, sp, #0
 141              		.cfi_offset 14, -4
 142              		.cfi_offset 7, -8
 143              	.LCFI6:
 144              		.cfi_def_cfa_register 7
 147:.\Generated_Source\PSoC5/CyFlash.c ****     cystatus status;
 148:.\Generated_Source\PSoC5/CyFlash.c **** 
 149:.\Generated_Source\PSoC5/CyFlash.c ****     /* Make sure SPC is powered */
 150:.\Generated_Source\PSoC5/CyFlash.c ****     CySpcStart();
 145              		.loc 1 150 0
 146 0006 FFF7FEFF 		bl	CySpcStart
 151:.\Generated_Source\PSoC5/CyFlash.c **** 
 152:.\Generated_Source\PSoC5/CyFlash.c ****     /* Plan for failure. */
 153:.\Generated_Source\PSoC5/CyFlash.c ****     status = CYRET_UNKNOWN;
 147              		.loc 1 153 0
 148 000a 4FF0FF33 		mov	r3, #-1
 149 000e 7B60     		str	r3, [r7, #4]
 154:.\Generated_Source\PSoC5/CyFlash.c **** 
 155:.\Generated_Source\PSoC5/CyFlash.c ****     if(CySpcLock() == CYRET_SUCCESS)
 150              		.loc 1 155 0
 151 0010 FFF7FEFF 		bl	CySpcLock
 152 0014 0346     		mov	r3, r0
 153 0016 002B     		cmp	r3, #0
 154 0018 31D1     		bne	.L6
 156:.\Generated_Source\PSoC5/CyFlash.c ****     {
 157:.\Generated_Source\PSoC5/CyFlash.c ****         /* Write the command. */
 158:.\Generated_Source\PSoC5/CyFlash.c ****         #if(CY_PSOC5A)
 159:.\Generated_Source\PSoC5/CyFlash.c ****             if(CYRET_STARTED == CySpcGetTemp(TEMP_NUMBER_OF_SAMPLES, TEMP_TIMER_PERIOD, TEMP_CLK_DI
 160:.\Generated_Source\PSoC5/CyFlash.c ****         #else
 161:.\Generated_Source\PSoC5/CyFlash.c ****             if(CYRET_STARTED == CySpcGetTemp(TEMP_NUMBER_OF_SAMPLES))
 155              		.loc 1 161 0
 156 001a 4FF00100 		mov	r0, #1
 157 001e FFF7FEFF 		bl	CySpcGetTemp
 158 0022 0346     		mov	r3, r0
 159 0024 072B     		cmp	r3, #7
 160 0026 27D1     		bne	.L7
 161              	.L11:
 162:.\Generated_Source\PSoC5/CyFlash.c ****         #endif  /* (CY_PSOC5A) */
 163:.\Generated_Source\PSoC5/CyFlash.c ****             {
 164:.\Generated_Source\PSoC5/CyFlash.c ****                 do
 165:.\Generated_Source\PSoC5/CyFlash.c ****                 {
 166:.\Generated_Source\PSoC5/CyFlash.c ****                     if(CySpcReadData(dieTemperature, CY_FLASH_DIE_TEMP_DATA_SIZE) == CY_FLASH_DIE_T
 162              		.loc 1 166 0
 163 0028 40F20000 		movw	r0, #:lower16:dieTemperature
 164 002c C0F20000 		movt	r0, #:upper16:dieTemperature
 165 0030 4FF00201 		mov	r1, #2
 166 0034 FFF7FEFF 		bl	CySpcReadData
 167 0038 0346     		mov	r3, r0
 168 003a 022B     		cmp	r3, #2
 169 003c 12D1     		bne	.L8
 167:.\Generated_Source\PSoC5/CyFlash.c ****                     {
 168:.\Generated_Source\PSoC5/CyFlash.c ****                         status = CYRET_SUCCESS;
 170              		.loc 1 168 0
ARM GAS  C:\Users\csap2972\AppData\Local\Temp\cc3BsNf5.s 			page 7


 171 003e 4FF00003 		mov	r3, #0
 172 0042 7B60     		str	r3, [r7, #4]
 169:.\Generated_Source\PSoC5/CyFlash.c **** 
 170:.\Generated_Source\PSoC5/CyFlash.c ****                         while(CY_SPC_BUSY)
 173              		.loc 1 170 0
 174 0044 03E0     		b	.L9
 175              	.L10:
 171:.\Generated_Source\PSoC5/CyFlash.c ****                         {
 172:.\Generated_Source\PSoC5/CyFlash.c ****                             /* Spin until idle. */
 173:.\Generated_Source\PSoC5/CyFlash.c ****                             CyDelayUs(1u);
 176              		.loc 1 173 0
 177 0046 4FF00100 		mov	r0, #1
 178 004a FFF7FEFF 		bl	CyDelayUs
 179              	.L9:
 180              		.loc 1 170 0
 181 004e 44F22273 		movw	r3, #:lower16:1073760034
 182 0052 C4F20003 		movt	r3, #:upper16:1073760034
 183 0056 1B78     		ldrb	r3, [r3, #0]
 184 0058 DBB2     		uxtb	r3, r3
 185 005a 03F00203 		and	r3, r3, #2
 186 005e 002B     		cmp	r3, #0
 187 0060 F1D0     		beq	.L10
 174:.\Generated_Source\PSoC5/CyFlash.c ****                         }
 175:.\Generated_Source\PSoC5/CyFlash.c ****                         break;
 188              		.loc 1 175 0
 189 0062 09E0     		b	.L7
 190              	.L8:
 176:.\Generated_Source\PSoC5/CyFlash.c ****                     }
 177:.\Generated_Source\PSoC5/CyFlash.c **** 
 178:.\Generated_Source\PSoC5/CyFlash.c ****                 } while(CY_SPC_BUSY);
 191              		.loc 1 178 0
 192 0064 44F22273 		movw	r3, #:lower16:1073760034
 193 0068 C4F20003 		movt	r3, #:upper16:1073760034
 194 006c 1B78     		ldrb	r3, [r3, #0]
 195 006e DBB2     		uxtb	r3, r3
 196 0070 03F00203 		and	r3, r3, #2
 197 0074 002B     		cmp	r3, #0
 198 0076 D7D0     		beq	.L11
 199              	.L7:
 179:.\Generated_Source\PSoC5/CyFlash.c ****             }
 180:.\Generated_Source\PSoC5/CyFlash.c **** 
 181:.\Generated_Source\PSoC5/CyFlash.c ****             CySpcUnlock();
 200              		.loc 1 181 0
 201 0078 FFF7FEFF 		bl	CySpcUnlock
 202 007c 02E0     		b	.L12
 203              	.L6:
 182:.\Generated_Source\PSoC5/CyFlash.c ****     }
 183:.\Generated_Source\PSoC5/CyFlash.c ****     else
 184:.\Generated_Source\PSoC5/CyFlash.c ****     {
 185:.\Generated_Source\PSoC5/CyFlash.c ****         status = CYRET_LOCKED;
 204              		.loc 1 185 0
 205 007e 4FF00403 		mov	r3, #4
 206 0082 7B60     		str	r3, [r7, #4]
 207              	.L12:
 186:.\Generated_Source\PSoC5/CyFlash.c ****     }
 187:.\Generated_Source\PSoC5/CyFlash.c **** 
 188:.\Generated_Source\PSoC5/CyFlash.c ****     return (status);
ARM GAS  C:\Users\csap2972\AppData\Local\Temp\cc3BsNf5.s 			page 8


 208              		.loc 1 188 0
 209 0084 7B68     		ldr	r3, [r7, #4]
 189:.\Generated_Source\PSoC5/CyFlash.c **** }
 210              		.loc 1 189 0
 211 0086 1846     		mov	r0, r3
 212 0088 07F10807 		add	r7, r7, #8
 213 008c BD46     		mov	sp, r7
 214 008e 80BD     		pop	{r7, pc}
 215              		.cfi_endproc
 216              	.LFE2:
 217              		.size	CySetTempInt, .-CySetTempInt
 218              		.section	.text.CySetTemp,"ax",%progbits
 219              		.align	2
 220              		.global	CySetTemp
 221              		.thumb
 222              		.thumb_func
 223              		.type	CySetTemp, %function
 224              	CySetTemp:
 225              	.LFB3:
 190:.\Generated_Source\PSoC5/CyFlash.c **** 
 191:.\Generated_Source\PSoC5/CyFlash.c **** 
 192:.\Generated_Source\PSoC5/CyFlash.c **** /*******************************************************************************
 193:.\Generated_Source\PSoC5/CyFlash.c **** * Function Name: CySetTemp
 194:.\Generated_Source\PSoC5/CyFlash.c **** ********************************************************************************
 195:.\Generated_Source\PSoC5/CyFlash.c **** *
 196:.\Generated_Source\PSoC5/CyFlash.c **** * Summary:
 197:.\Generated_Source\PSoC5/CyFlash.c **** *  This is a wraparound for CySetTempInt(). It is used to return second
 198:.\Generated_Source\PSoC5/CyFlash.c **** *  successful read of temperature value.
 199:.\Generated_Source\PSoC5/CyFlash.c **** *
 200:.\Generated_Source\PSoC5/CyFlash.c **** * Parameters:
 201:.\Generated_Source\PSoC5/CyFlash.c **** *  None
 202:.\Generated_Source\PSoC5/CyFlash.c **** *
 203:.\Generated_Source\PSoC5/CyFlash.c **** * Return:
 204:.\Generated_Source\PSoC5/CyFlash.c **** *  status:
 205:.\Generated_Source\PSoC5/CyFlash.c **** *   CYRET_SUCCESS if successful.
 206:.\Generated_Source\PSoC5/CyFlash.c **** *   CYRET_LOCKED  if Flash writing already in use
 207:.\Generated_Source\PSoC5/CyFlash.c **** *   CYRET_UNKNOWN if there was an SPC error.
 208:.\Generated_Source\PSoC5/CyFlash.c **** *
 209:.\Generated_Source\PSoC5/CyFlash.c **** *  uint8 dieTemperature[2]:
 210:.\Generated_Source\PSoC5/CyFlash.c **** *   Holds die temperature for the flash writting algorithm. The first byte is
 211:.\Generated_Source\PSoC5/CyFlash.c **** *   the sign of the temperature (0 = negative, 1 = positive). The second byte is
 212:.\Generated_Source\PSoC5/CyFlash.c **** *   the magnitude.
 213:.\Generated_Source\PSoC5/CyFlash.c **** *
 214:.\Generated_Source\PSoC5/CyFlash.c **** *******************************************************************************/
 215:.\Generated_Source\PSoC5/CyFlash.c **** cystatus CySetTemp(void) 
 216:.\Generated_Source\PSoC5/CyFlash.c **** {
 226              		.loc 1 216 0
 227              		.cfi_startproc
 228              		@ args = 0, pretend = 0, frame = 8
 229              		@ frame_needed = 1, uses_anonymous_args = 0
 230 0000 80B5     		push	{r7, lr}
 231              	.LCFI7:
 232              		.cfi_def_cfa_offset 8
 233 0002 82B0     		sub	sp, sp, #8
 234              	.LCFI8:
 235              		.cfi_def_cfa_offset 16
 236 0004 00AF     		add	r7, sp, #0
ARM GAS  C:\Users\csap2972\AppData\Local\Temp\cc3BsNf5.s 			page 9


 237              		.cfi_offset 14, -4
 238              		.cfi_offset 7, -8
 239              	.LCFI9:
 240              		.cfi_def_cfa_register 7
 217:.\Generated_Source\PSoC5/CyFlash.c ****     cystatus status = CySetTempInt();
 241              		.loc 1 217 0
 242 0006 FFF7FEFF 		bl	CySetTempInt
 243 000a 0346     		mov	r3, r0
 244 000c 7B60     		str	r3, [r7, #4]
 218:.\Generated_Source\PSoC5/CyFlash.c **** 
 219:.\Generated_Source\PSoC5/CyFlash.c ****     if(status == CYRET_SUCCESS)
 245              		.loc 1 219 0
 246 000e 7B68     		ldr	r3, [r7, #4]
 247 0010 002B     		cmp	r3, #0
 248 0012 03D1     		bne	.L15
 220:.\Generated_Source\PSoC5/CyFlash.c ****     {
 221:.\Generated_Source\PSoC5/CyFlash.c ****         status = CySetTempInt();
 249              		.loc 1 221 0
 250 0014 FFF7FEFF 		bl	CySetTempInt
 251 0018 0346     		mov	r3, r0
 252 001a 7B60     		str	r3, [r7, #4]
 253              	.L15:
 222:.\Generated_Source\PSoC5/CyFlash.c ****     }
 223:.\Generated_Source\PSoC5/CyFlash.c **** 
 224:.\Generated_Source\PSoC5/CyFlash.c ****     return (status);
 254              		.loc 1 224 0
 255 001c 7B68     		ldr	r3, [r7, #4]
 225:.\Generated_Source\PSoC5/CyFlash.c **** }
 256              		.loc 1 225 0
 257 001e 1846     		mov	r0, r3
 258 0020 07F10807 		add	r7, r7, #8
 259 0024 BD46     		mov	sp, r7
 260 0026 80BD     		pop	{r7, pc}
 261              		.cfi_endproc
 262              	.LFE3:
 263              		.size	CySetTemp, .-CySetTemp
 264              		.section	.text.CySetFlashEEBuffer,"ax",%progbits
 265              		.align	2
 266              		.global	CySetFlashEEBuffer
 267              		.thumb
 268              		.thumb_func
 269              		.type	CySetFlashEEBuffer, %function
 270              	CySetFlashEEBuffer:
 271              	.LFB4:
 226:.\Generated_Source\PSoC5/CyFlash.c **** 
 227:.\Generated_Source\PSoC5/CyFlash.c **** 
 228:.\Generated_Source\PSoC5/CyFlash.c **** /*******************************************************************************
 229:.\Generated_Source\PSoC5/CyFlash.c **** * Function Name: CySetFlashEEBuffer
 230:.\Generated_Source\PSoC5/CyFlash.c **** ********************************************************************************
 231:.\Generated_Source\PSoC5/CyFlash.c **** *
 232:.\Generated_Source\PSoC5/CyFlash.c **** * Summary:
 233:.\Generated_Source\PSoC5/CyFlash.c **** *  Sets the user supplied temporary buffer to store SPC data while performing
 234:.\Generated_Source\PSoC5/CyFlash.c **** *  flash and EEPROM commands. This buffer is only necessary when Flash ECC is
 235:.\Generated_Source\PSoC5/CyFlash.c **** *  disabled.
 236:.\Generated_Source\PSoC5/CyFlash.c **** *
 237:.\Generated_Source\PSoC5/CyFlash.c **** * Parameters:
 238:.\Generated_Source\PSoC5/CyFlash.c **** *  buffer:
ARM GAS  C:\Users\csap2972\AppData\Local\Temp\cc3BsNf5.s 			page 10


 239:.\Generated_Source\PSoC5/CyFlash.c **** *   Address of block of memory to store temporary memory. The size of the block
 240:.\Generated_Source\PSoC5/CyFlash.c **** *   of memory is CYDEV_FLS_ROW_SIZE + CYDEV_ECC_ROW_SIZE.
 241:.\Generated_Source\PSoC5/CyFlash.c **** *
 242:.\Generated_Source\PSoC5/CyFlash.c **** * Return:
 243:.\Generated_Source\PSoC5/CyFlash.c **** *  status:
 244:.\Generated_Source\PSoC5/CyFlash.c **** *   CYRET_SUCCESS if successful.
 245:.\Generated_Source\PSoC5/CyFlash.c **** *   CYRET_BAD_PARAM if the buffer is NULL
 246:.\Generated_Source\PSoC5/CyFlash.c **** *
 247:.\Generated_Source\PSoC5/CyFlash.c **** *******************************************************************************/
 248:.\Generated_Source\PSoC5/CyFlash.c **** cystatus CySetFlashEEBuffer(uint8 * buffer) 
 249:.\Generated_Source\PSoC5/CyFlash.c **** {
 272              		.loc 1 249 0
 273              		.cfi_startproc
 274              		@ args = 0, pretend = 0, frame = 16
 275              		@ frame_needed = 1, uses_anonymous_args = 0
 276 0000 80B5     		push	{r7, lr}
 277              	.LCFI10:
 278              		.cfi_def_cfa_offset 8
 279 0002 84B0     		sub	sp, sp, #16
 280              	.LCFI11:
 281              		.cfi_def_cfa_offset 24
 282 0004 00AF     		add	r7, sp, #0
 283              		.cfi_offset 14, -4
 284              		.cfi_offset 7, -8
 285              	.LCFI12:
 286              		.cfi_def_cfa_register 7
 287 0006 7860     		str	r0, [r7, #4]
 250:.\Generated_Source\PSoC5/CyFlash.c ****     cystatus status = CYRET_SUCCESS;
 288              		.loc 1 250 0
 289 0008 4FF00003 		mov	r3, #0
 290 000c FB60     		str	r3, [r7, #12]
 251:.\Generated_Source\PSoC5/CyFlash.c **** 
 252:.\Generated_Source\PSoC5/CyFlash.c ****     CySpcStart();
 291              		.loc 1 252 0
 292 000e FFF7FEFF 		bl	CySpcStart
 253:.\Generated_Source\PSoC5/CyFlash.c **** 
 254:.\Generated_Source\PSoC5/CyFlash.c ****     #if(CYDEV_ECC_ENABLE == 0)
 255:.\Generated_Source\PSoC5/CyFlash.c **** 
 256:.\Generated_Source\PSoC5/CyFlash.c ****         if(NULL == buffer)
 293              		.loc 1 256 0
 294 0012 7B68     		ldr	r3, [r7, #4]
 295 0014 002B     		cmp	r3, #0
 296 0016 03D1     		bne	.L18
 257:.\Generated_Source\PSoC5/CyFlash.c ****         {
 258:.\Generated_Source\PSoC5/CyFlash.c ****             status = CYRET_BAD_PARAM;
 297              		.loc 1 258 0
 298 0018 4FF00103 		mov	r3, #1
 299 001c FB60     		str	r3, [r7, #12]
 300 001e 10E0     		b	.L19
 301              	.L18:
 259:.\Generated_Source\PSoC5/CyFlash.c ****         }
 260:.\Generated_Source\PSoC5/CyFlash.c ****         else if(CySpcLock() != CYRET_SUCCESS)
 302              		.loc 1 260 0
 303 0020 FFF7FEFF 		bl	CySpcLock
 304 0024 0346     		mov	r3, r0
 305 0026 002B     		cmp	r3, #0
 306 0028 03D0     		beq	.L20
ARM GAS  C:\Users\csap2972\AppData\Local\Temp\cc3BsNf5.s 			page 11


 261:.\Generated_Source\PSoC5/CyFlash.c ****         {
 262:.\Generated_Source\PSoC5/CyFlash.c ****             status = CYRET_LOCKED;
 307              		.loc 1 262 0
 308 002a 4FF00403 		mov	r3, #4
 309 002e FB60     		str	r3, [r7, #12]
 310 0030 07E0     		b	.L19
 311              	.L20:
 263:.\Generated_Source\PSoC5/CyFlash.c ****         }
 264:.\Generated_Source\PSoC5/CyFlash.c ****         else
 265:.\Generated_Source\PSoC5/CyFlash.c ****         {
 266:.\Generated_Source\PSoC5/CyFlash.c ****             rowBuffer = buffer;
 312              		.loc 1 266 0
 313 0032 40F20003 		movw	r3, #:lower16:rowBuffer
 314 0036 C0F20003 		movt	r3, #:upper16:rowBuffer
 315 003a 7A68     		ldr	r2, [r7, #4]
 316 003c 1A60     		str	r2, [r3, #0]
 267:.\Generated_Source\PSoC5/CyFlash.c ****             CySpcUnlock();
 317              		.loc 1 267 0
 318 003e FFF7FEFF 		bl	CySpcUnlock
 319              	.L19:
 268:.\Generated_Source\PSoC5/CyFlash.c ****         }
 269:.\Generated_Source\PSoC5/CyFlash.c **** 
 270:.\Generated_Source\PSoC5/CyFlash.c ****     #else
 271:.\Generated_Source\PSoC5/CyFlash.c **** 
 272:.\Generated_Source\PSoC5/CyFlash.c ****         /* To supress the warning */
 273:.\Generated_Source\PSoC5/CyFlash.c ****         buffer = buffer;
 274:.\Generated_Source\PSoC5/CyFlash.c **** 
 275:.\Generated_Source\PSoC5/CyFlash.c ****     #endif  /* (CYDEV_ECC_ENABLE == 0u) */
 276:.\Generated_Source\PSoC5/CyFlash.c **** 
 277:.\Generated_Source\PSoC5/CyFlash.c ****     return(status);
 320              		.loc 1 277 0
 321 0042 FB68     		ldr	r3, [r7, #12]
 278:.\Generated_Source\PSoC5/CyFlash.c **** }
 322              		.loc 1 278 0
 323 0044 1846     		mov	r0, r3
 324 0046 07F11007 		add	r7, r7, #16
 325 004a BD46     		mov	sp, r7
 326 004c 80BD     		pop	{r7, pc}
 327              		.cfi_endproc
 328              	.LFE4:
 329              		.size	CySetFlashEEBuffer, .-CySetFlashEEBuffer
 330 004e 00BF     		.section	.text.CyWriteRowData,"ax",%progbits
 331              		.align	2
 332              		.global	CyWriteRowData
 333              		.thumb
 334              		.thumb_func
 335              		.type	CyWriteRowData, %function
 336              	CyWriteRowData:
 337              	.LFB5:
 279:.\Generated_Source\PSoC5/CyFlash.c **** 
 280:.\Generated_Source\PSoC5/CyFlash.c **** 
 281:.\Generated_Source\PSoC5/CyFlash.c **** #if(CYDEV_ECC_ENABLE == 1)
 282:.\Generated_Source\PSoC5/CyFlash.c **** 
 283:.\Generated_Source\PSoC5/CyFlash.c ****     /*******************************************************************************
 284:.\Generated_Source\PSoC5/CyFlash.c ****     * Function Name: CyWriteRowData
 285:.\Generated_Source\PSoC5/CyFlash.c ****     ********************************************************************************
 286:.\Generated_Source\PSoC5/CyFlash.c ****     *
ARM GAS  C:\Users\csap2972\AppData\Local\Temp\cc3BsNf5.s 			page 12


 287:.\Generated_Source\PSoC5/CyFlash.c ****     * Summary:
 288:.\Generated_Source\PSoC5/CyFlash.c ****     *   Sends a command to the SPC to load and program a row of data in flash.
 289:.\Generated_Source\PSoC5/CyFlash.c ****     *
 290:.\Generated_Source\PSoC5/CyFlash.c ****     * Parameters:
 291:.\Generated_Source\PSoC5/CyFlash.c ****     *  arrayID:
 292:.\Generated_Source\PSoC5/CyFlash.c ****     *   ID of the array to write.
 293:.\Generated_Source\PSoC5/CyFlash.c ****     *  rowAddress:
 294:.\Generated_Source\PSoC5/CyFlash.c ****     *   rowAddress of flash row to program.
 295:.\Generated_Source\PSoC5/CyFlash.c ****     *  rowData:
 296:.\Generated_Source\PSoC5/CyFlash.c ****     *   Array of bytes to write.
 297:.\Generated_Source\PSoC5/CyFlash.c ****     *
 298:.\Generated_Source\PSoC5/CyFlash.c ****     * Return:
 299:.\Generated_Source\PSoC5/CyFlash.c ****     *  status:
 300:.\Generated_Source\PSoC5/CyFlash.c ****     *   CYRET_SUCCESS if successful.
 301:.\Generated_Source\PSoC5/CyFlash.c ****     *   CYRET_LOCKED if the SPC is already in use.
 302:.\Generated_Source\PSoC5/CyFlash.c ****     *   CYRET_CANCELED if command not accepted
 303:.\Generated_Source\PSoC5/CyFlash.c ****     *   CYRET_UNKNOWN if there was an SPC error.
 304:.\Generated_Source\PSoC5/CyFlash.c ****     *
 305:.\Generated_Source\PSoC5/CyFlash.c ****     *******************************************************************************/
 306:.\Generated_Source\PSoC5/CyFlash.c ****     cystatus CyWriteRowData(uint8 arrayId, uint16 rowAddress, uint8 * rowData) 
 307:.\Generated_Source\PSoC5/CyFlash.c ****     {
 308:.\Generated_Source\PSoC5/CyFlash.c ****         uint16 rowSize;
 309:.\Generated_Source\PSoC5/CyFlash.c ****         cystatus status;
 310:.\Generated_Source\PSoC5/CyFlash.c **** 
 311:.\Generated_Source\PSoC5/CyFlash.c ****         rowSize = (arrayId > CY_SPC_LAST_FLASH_ARRAYID) ? CYDEV_EEPROM_ROW_SIZE : CYDEV_FLS_ROW_SIZ
 312:.\Generated_Source\PSoC5/CyFlash.c ****         status = CyWriteRowFull(arrayId, rowAddress, rowData, rowSize);
 313:.\Generated_Source\PSoC5/CyFlash.c **** 
 314:.\Generated_Source\PSoC5/CyFlash.c ****         return(status);
 315:.\Generated_Source\PSoC5/CyFlash.c ****     }
 316:.\Generated_Source\PSoC5/CyFlash.c **** 
 317:.\Generated_Source\PSoC5/CyFlash.c **** #else
 318:.\Generated_Source\PSoC5/CyFlash.c **** 
 319:.\Generated_Source\PSoC5/CyFlash.c ****     /*******************************************************************************
 320:.\Generated_Source\PSoC5/CyFlash.c ****     * Function Name: CyWriteRowData
 321:.\Generated_Source\PSoC5/CyFlash.c ****     ********************************************************************************
 322:.\Generated_Source\PSoC5/CyFlash.c ****     *
 323:.\Generated_Source\PSoC5/CyFlash.c ****     * Summary:
 324:.\Generated_Source\PSoC5/CyFlash.c ****     *   Sends a command to the SPC to load and program a row of data in flash.
 325:.\Generated_Source\PSoC5/CyFlash.c ****     *
 326:.\Generated_Source\PSoC5/CyFlash.c ****     * Parameters:
 327:.\Generated_Source\PSoC5/CyFlash.c ****     *  arrayID      : ID of the array to write.
 328:.\Generated_Source\PSoC5/CyFlash.c ****     *  rowAddress   : rowAddress of flash row to program.
 329:.\Generated_Source\PSoC5/CyFlash.c ****     *  rowData      : Array of bytes to write.
 330:.\Generated_Source\PSoC5/CyFlash.c ****     *
 331:.\Generated_Source\PSoC5/CyFlash.c ****     * Return:
 332:.\Generated_Source\PSoC5/CyFlash.c ****     *  status:
 333:.\Generated_Source\PSoC5/CyFlash.c ****     *   CYRET_SUCCESS if successful.
 334:.\Generated_Source\PSoC5/CyFlash.c ****     *   CYRET_LOCKED if the SPC is already in use.
 335:.\Generated_Source\PSoC5/CyFlash.c ****     *   CYRET_CANCELED if command not accepted
 336:.\Generated_Source\PSoC5/CyFlash.c ****     *   CYRET_UNKNOWN if there was an SPC error.
 337:.\Generated_Source\PSoC5/CyFlash.c ****     *
 338:.\Generated_Source\PSoC5/CyFlash.c ****     *******************************************************************************/
 339:.\Generated_Source\PSoC5/CyFlash.c ****     cystatus CyWriteRowData(uint8 arrayId, uint16 rowAddress, uint8 * rowData) 
 340:.\Generated_Source\PSoC5/CyFlash.c ****     {
 338              		.loc 1 340 0
 339              		.cfi_startproc
 340              		@ args = 0, pretend = 0, frame = 24
ARM GAS  C:\Users\csap2972\AppData\Local\Temp\cc3BsNf5.s 			page 13


 341              		@ frame_needed = 1, uses_anonymous_args = 0
 342 0000 80B5     		push	{r7, lr}
 343              	.LCFI13:
 344              		.cfi_def_cfa_offset 8
 345 0002 86B0     		sub	sp, sp, #24
 346              	.LCFI14:
 347              		.cfi_def_cfa_offset 32
 348 0004 00AF     		add	r7, sp, #0
 349              		.cfi_offset 14, -4
 350              		.cfi_offset 7, -8
 351              	.LCFI15:
 352              		.cfi_def_cfa_register 7
 353 0006 0B46     		mov	r3, r1
 354 0008 3A60     		str	r2, [r7, #0]
 355 000a 0246     		mov	r2, r0
 356 000c FA71     		strb	r2, [r7, #7]
 357 000e BB80     		strh	r3, [r7, #4]	@ movhi
 341:.\Generated_Source\PSoC5/CyFlash.c ****         uint8 index;
 342:.\Generated_Source\PSoC5/CyFlash.c ****         uint32 offset;
 343:.\Generated_Source\PSoC5/CyFlash.c ****         uint16 rowSize;
 344:.\Generated_Source\PSoC5/CyFlash.c ****         cystatus status;
 345:.\Generated_Source\PSoC5/CyFlash.c **** 
 346:.\Generated_Source\PSoC5/CyFlash.c ****         rowSize = (arrayId > CY_SPC_LAST_FLASH_ARRAYID) ? \
 358              		.loc 1 346 0
 359 0010 FB79     		ldrb	r3, [r7, #7]	@ zero_extendqisi2
 360 0012 3F2B     		cmp	r3, #63
 361 0014 02D9     		bls	.L23
 362 0016 4FF01003 		mov	r3, #16
 363 001a 01E0     		b	.L24
 364              	.L23:
 365 001c 4FF49073 		mov	r3, #288
 366              	.L24:
 367 0020 7B82     		strh	r3, [r7, #18]	@ movhi
 347:.\Generated_Source\PSoC5/CyFlash.c ****                     CYDEV_EEPROM_ROW_SIZE : \
 348:.\Generated_Source\PSoC5/CyFlash.c ****                     (CYDEV_FLS_ROW_SIZE + CYDEV_ECC_ROW_SIZE);
 349:.\Generated_Source\PSoC5/CyFlash.c **** 
 350:.\Generated_Source\PSoC5/CyFlash.c ****         if(rowSize != CYDEV_EEPROM_ROW_SIZE)
 368              		.loc 1 350 0
 369 0022 7B8A     		ldrh	r3, [r7, #18]
 370 0024 102B     		cmp	r3, #16
 371 0026 23D0     		beq	.L25
 351:.\Generated_Source\PSoC5/CyFlash.c ****         {
 352:.\Generated_Source\PSoC5/CyFlash.c ****             /* Save the ECC area. */
 353:.\Generated_Source\PSoC5/CyFlash.c ****             offset = CYDEV_ECC_BASE + ((uint32) arrayId * CYDEV_ECC_SECTOR_SIZE) +
 372              		.loc 1 353 0
 373 0028 FB79     		ldrb	r3, [r7, #7]	@ zero_extendqisi2
 374 002a 03F51033 		add	r3, r3, #147456
 375 002e 4FEA0322 		lsl	r2, r3, #8
 376 0032 BB88     		ldrh	r3, [r7, #4]
 377 0034 1344     		add	r3, r2, r3
 378 0036 4FEA4313 		lsl	r3, r3, #5
 379 003a FB60     		str	r3, [r7, #12]
 354:.\Generated_Source\PSoC5/CyFlash.c ****                     ((uint32) rowAddress * CYDEV_ECC_ROW_SIZE);
 355:.\Generated_Source\PSoC5/CyFlash.c **** 
 356:.\Generated_Source\PSoC5/CyFlash.c ****             for (index = 0; index < CYDEV_ECC_ROW_SIZE; index++)
 380              		.loc 1 356 0
 381 003c 4FF00003 		mov	r3, #0
ARM GAS  C:\Users\csap2972\AppData\Local\Temp\cc3BsNf5.s 			page 14


 382 0040 FB72     		strb	r3, [r7, #11]
 383 0042 12E0     		b	.L26
 384              	.L27:
 357:.\Generated_Source\PSoC5/CyFlash.c ****             {
 358:.\Generated_Source\PSoC5/CyFlash.c ****                 rowBuffer[CYDEV_FLS_ROW_SIZE + index] = CY_GET_XTND_REG8((void CYFAR *)(offset + in
 385              		.loc 1 358 0
 386 0044 40F20003 		movw	r3, #:lower16:rowBuffer
 387 0048 C0F20003 		movt	r3, #:upper16:rowBuffer
 388 004c 1A68     		ldr	r2, [r3, #0]
 389 004e FB7A     		ldrb	r3, [r7, #11]	@ zero_extendqisi2
 390 0050 03F58073 		add	r3, r3, #256
 391 0054 1344     		add	r3, r2, r3
 392 0056 F97A     		ldrb	r1, [r7, #11]	@ zero_extendqisi2
 393 0058 FA68     		ldr	r2, [r7, #12]
 394 005a 0A44     		add	r2, r1, r2
 395 005c 1278     		ldrb	r2, [r2, #0]
 396 005e D2B2     		uxtb	r2, r2
 397 0060 1A70     		strb	r2, [r3, #0]
 398              		.loc 1 356 0
 399 0062 FB7A     		ldrb	r3, [r7, #11]
 400 0064 03F10103 		add	r3, r3, #1
 401 0068 FB72     		strb	r3, [r7, #11]
 402              	.L26:
 403 006a FB7A     		ldrb	r3, [r7, #11]	@ zero_extendqisi2
 404 006c 1F2B     		cmp	r3, #31
 405 006e E9D9     		bls	.L27
 406              	.L25:
 359:.\Generated_Source\PSoC5/CyFlash.c ****             }
 360:.\Generated_Source\PSoC5/CyFlash.c ****         }
 361:.\Generated_Source\PSoC5/CyFlash.c **** 
 362:.\Generated_Source\PSoC5/CyFlash.c ****         /* Copy the rowdata to the temporary buffer. */
 363:.\Generated_Source\PSoC5/CyFlash.c ****         memcpy(rowBuffer, rowData, CYDEV_FLS_ROW_SIZE);
 407              		.loc 1 363 0
 408 0070 40F20003 		movw	r3, #:lower16:rowBuffer
 409 0074 C0F20003 		movt	r3, #:upper16:rowBuffer
 410 0078 1B68     		ldr	r3, [r3, #0]
 411 007a 1846     		mov	r0, r3
 412 007c 3968     		ldr	r1, [r7, #0]
 413 007e 4FF48072 		mov	r2, #256
 414 0082 FFF7FEFF 		bl	memcpy
 364:.\Generated_Source\PSoC5/CyFlash.c **** 
 365:.\Generated_Source\PSoC5/CyFlash.c ****         status = CyWriteRowFull(arrayId, rowAddress, rowBuffer, rowSize);
 415              		.loc 1 365 0
 416 0086 40F20003 		movw	r3, #:lower16:rowBuffer
 417 008a C0F20003 		movt	r3, #:upper16:rowBuffer
 418 008e 1A68     		ldr	r2, [r3, #0]
 419 0090 F879     		ldrb	r0, [r7, #7]	@ zero_extendqisi2
 420 0092 B988     		ldrh	r1, [r7, #4]
 421 0094 7B8A     		ldrh	r3, [r7, #18]
 422 0096 FFF7FEFF 		bl	CyWriteRowFull
 423 009a 0346     		mov	r3, r0
 424 009c 7B61     		str	r3, [r7, #20]
 366:.\Generated_Source\PSoC5/CyFlash.c **** 
 367:.\Generated_Source\PSoC5/CyFlash.c ****         return(status);
 425              		.loc 1 367 0
 426 009e 7B69     		ldr	r3, [r7, #20]
 368:.\Generated_Source\PSoC5/CyFlash.c ****     }
ARM GAS  C:\Users\csap2972\AppData\Local\Temp\cc3BsNf5.s 			page 15


 427              		.loc 1 368 0
 428 00a0 1846     		mov	r0, r3
 429 00a2 07F11807 		add	r7, r7, #24
 430 00a6 BD46     		mov	sp, r7
 431 00a8 80BD     		pop	{r7, pc}
 432              		.cfi_endproc
 433              	.LFE5:
 434              		.size	CyWriteRowData, .-CyWriteRowData
 435 00aa 00BF     		.section	.text.CyWriteRowFull,"ax",%progbits
 436              		.align	2
 437              		.global	CyWriteRowFull
 438              		.thumb
 439              		.thumb_func
 440              		.type	CyWriteRowFull, %function
 441              	CyWriteRowFull:
 442              	.LFB6:
 369:.\Generated_Source\PSoC5/CyFlash.c **** 
 370:.\Generated_Source\PSoC5/CyFlash.c **** #endif /* (CYDEV_ECC_ENABLE == 0u) */
 371:.\Generated_Source\PSoC5/CyFlash.c **** 
 372:.\Generated_Source\PSoC5/CyFlash.c **** 
 373:.\Generated_Source\PSoC5/CyFlash.c **** #if ((CYDEV_ECC_ENABLE == 0u) && (CYDEV_CONFIGURATION_ECC == 0u))
 374:.\Generated_Source\PSoC5/CyFlash.c **** 
 375:.\Generated_Source\PSoC5/CyFlash.c ****     /*******************************************************************************
 376:.\Generated_Source\PSoC5/CyFlash.c ****     * Function Name: CyWriteRowConfig
 377:.\Generated_Source\PSoC5/CyFlash.c ****     ********************************************************************************
 378:.\Generated_Source\PSoC5/CyFlash.c ****     *
 379:.\Generated_Source\PSoC5/CyFlash.c ****     * Summary:
 380:.\Generated_Source\PSoC5/CyFlash.c ****     *  Sends a command to the SPC to load and program a row of config data in flash.
 381:.\Generated_Source\PSoC5/CyFlash.c ****     *  This function is only valid for Flash array IDs (not for EEPROM).
 382:.\Generated_Source\PSoC5/CyFlash.c ****     *
 383:.\Generated_Source\PSoC5/CyFlash.c ****     * Parameters:
 384:.\Generated_Source\PSoC5/CyFlash.c ****     *  arrayId:
 385:.\Generated_Source\PSoC5/CyFlash.c ****     *   ID of the array to write
 386:.\Generated_Source\PSoC5/CyFlash.c ****     *  rowAddress:
 387:.\Generated_Source\PSoC5/CyFlash.c ****     *   Address of the sector to erase.
 388:.\Generated_Source\PSoC5/CyFlash.c ****     *  rowData:
 389:.\Generated_Source\PSoC5/CyFlash.c ****     *   Array of bytes to write.
 390:.\Generated_Source\PSoC5/CyFlash.c ****     *
 391:.\Generated_Source\PSoC5/CyFlash.c ****     * Return:
 392:.\Generated_Source\PSoC5/CyFlash.c ****     *  status:
 393:.\Generated_Source\PSoC5/CyFlash.c ****     *   CYRET_SUCCESS if successful.
 394:.\Generated_Source\PSoC5/CyFlash.c ****     *   CYRET_LOCKED if the SPC is already in use.
 395:.\Generated_Source\PSoC5/CyFlash.c ****     *   CYRET_CANCELED if command not accepted
 396:.\Generated_Source\PSoC5/CyFlash.c ****     *   CYRET_UNKNOWN if there was an SPC error.
 397:.\Generated_Source\PSoC5/CyFlash.c ****     *
 398:.\Generated_Source\PSoC5/CyFlash.c ****     *******************************************************************************/
 399:.\Generated_Source\PSoC5/CyFlash.c ****     cystatus CyWriteRowConfig(uint8 arrayId, uint16 rowAddress, uint8 * rowData) 
 400:.\Generated_Source\PSoC5/CyFlash.c ****     {
 401:.\Generated_Source\PSoC5/CyFlash.c ****         uint32 offset;
 402:.\Generated_Source\PSoC5/CyFlash.c ****         uint16 index;
 403:.\Generated_Source\PSoC5/CyFlash.c ****         cystatus status;
 404:.\Generated_Source\PSoC5/CyFlash.c **** 
 405:.\Generated_Source\PSoC5/CyFlash.c ****         /* Read the existing flash data. */
 406:.\Generated_Source\PSoC5/CyFlash.c ****         offset = CYDEV_FLS_BASE + ((uint32) arrayId * CYDEV_FLS_SECTOR_SIZE) +
 407:.\Generated_Source\PSoC5/CyFlash.c ****             ((uint32) rowAddress * CYDEV_FLS_ROW_SIZE);
 408:.\Generated_Source\PSoC5/CyFlash.c **** 
 409:.\Generated_Source\PSoC5/CyFlash.c ****         for (index = 0; index < CYDEV_FLS_ROW_SIZE; index++)
ARM GAS  C:\Users\csap2972\AppData\Local\Temp\cc3BsNf5.s 			page 16


 410:.\Generated_Source\PSoC5/CyFlash.c ****         {
 411:.\Generated_Source\PSoC5/CyFlash.c ****             rowBuffer[index] = CY_GET_XTND_REG8((void CYFAR *)(offset + index));
 412:.\Generated_Source\PSoC5/CyFlash.c ****         }
 413:.\Generated_Source\PSoC5/CyFlash.c **** 
 414:.\Generated_Source\PSoC5/CyFlash.c ****         /* Copy the rowData to the temporary buffer. */
 415:.\Generated_Source\PSoC5/CyFlash.c ****         memcpy(&rowBuffer[CYDEV_FLS_ROW_SIZE], rowData, CYDEV_ECC_ROW_SIZE);
 416:.\Generated_Source\PSoC5/CyFlash.c **** 
 417:.\Generated_Source\PSoC5/CyFlash.c ****         status = CyWriteRowFull(arrayId, rowAddress, rowBuffer, CYDEV_FLS_ROW_SIZE + CYDEV_ECC_ROW_
 418:.\Generated_Source\PSoC5/CyFlash.c **** 
 419:.\Generated_Source\PSoC5/CyFlash.c ****         return (status);
 420:.\Generated_Source\PSoC5/CyFlash.c ****     }
 421:.\Generated_Source\PSoC5/CyFlash.c **** 
 422:.\Generated_Source\PSoC5/CyFlash.c **** #endif  /* ((CYDEV_ECC_ENABLE == 0u) && (CYDEV_CONFIGURATION_ECC == 0u)) */
 423:.\Generated_Source\PSoC5/CyFlash.c **** 
 424:.\Generated_Source\PSoC5/CyFlash.c **** 
 425:.\Generated_Source\PSoC5/CyFlash.c **** 
 426:.\Generated_Source\PSoC5/CyFlash.c **** /*******************************************************************************
 427:.\Generated_Source\PSoC5/CyFlash.c **** * Function Name: CyWriteRowFull
 428:.\Generated_Source\PSoC5/CyFlash.c **** ********************************************************************************
 429:.\Generated_Source\PSoC5/CyFlash.c **** * Summary:
 430:.\Generated_Source\PSoC5/CyFlash.c **** *   Sends a command to the SPC to load and program a row of data in flash.
 431:.\Generated_Source\PSoC5/CyFlash.c **** *   rowData array is expected to contain Flash and ECC data if needed.
 432:.\Generated_Source\PSoC5/CyFlash.c **** *
 433:.\Generated_Source\PSoC5/CyFlash.c **** * Parameters:
 434:.\Generated_Source\PSoC5/CyFlash.c **** *       arrayId: FLASH or EEPROM array id.
 435:.\Generated_Source\PSoC5/CyFlash.c **** *       rowData: pointer to a row of data to write.
 436:.\Generated_Source\PSoC5/CyFlash.c **** *       rowNumber: Zero based number of the row.
 437:.\Generated_Source\PSoC5/CyFlash.c **** *       rowSize: Size of the row.
 438:.\Generated_Source\PSoC5/CyFlash.c **** *
 439:.\Generated_Source\PSoC5/CyFlash.c **** * Return:
 440:.\Generated_Source\PSoC5/CyFlash.c **** *   CYRET_SUCCESS if successful.
 441:.\Generated_Source\PSoC5/CyFlash.c **** *   CYRET_LOCKED if the SPC is already in use.
 442:.\Generated_Source\PSoC5/CyFlash.c **** *   CYRET_CANCELED if command not accepted
 443:.\Generated_Source\PSoC5/CyFlash.c **** *   CYRET_UNKNOWN if there was an SPC error.
 444:.\Generated_Source\PSoC5/CyFlash.c **** *
 445:.\Generated_Source\PSoC5/CyFlash.c **** *******************************************************************************/
 446:.\Generated_Source\PSoC5/CyFlash.c **** cystatus CyWriteRowFull(uint8 arrayId, uint16 rowNumber, uint8* rowData, uint16 rowSize) \
 447:.\Generated_Source\PSoC5/CyFlash.c ****         
 448:.\Generated_Source\PSoC5/CyFlash.c **** {
 443              		.loc 1 448 0
 444              		.cfi_startproc
 445              		@ args = 0, pretend = 0, frame = 24
 446              		@ frame_needed = 1, uses_anonymous_args = 0
 447 0000 80B5     		push	{r7, lr}
 448              	.LCFI16:
 449              		.cfi_def_cfa_offset 8
 450 0002 86B0     		sub	sp, sp, #24
 451              	.LCFI17:
 452              		.cfi_def_cfa_offset 32
 453 0004 00AF     		add	r7, sp, #0
 454              		.cfi_offset 14, -4
 455              		.cfi_offset 7, -8
 456              	.LCFI18:
 457              		.cfi_def_cfa_register 7
 458 0006 BA60     		str	r2, [r7, #8]
 459 0008 0246     		mov	r2, r0
 460 000a FA73     		strb	r2, [r7, #15]
ARM GAS  C:\Users\csap2972\AppData\Local\Temp\cc3BsNf5.s 			page 17


 461 000c 0A46     		mov	r2, r1	@ movhi
 462 000e BA81     		strh	r2, [r7, #12]	@ movhi
 463 0010 FB80     		strh	r3, [r7, #6]	@ movhi
 449:.\Generated_Source\PSoC5/CyFlash.c ****     cystatus status;
 450:.\Generated_Source\PSoC5/CyFlash.c **** 
 451:.\Generated_Source\PSoC5/CyFlash.c ****     if(CySpcLock() == CYRET_SUCCESS)
 464              		.loc 1 451 0
 465 0012 FFF7FEFF 		bl	CySpcLock
 466 0016 0346     		mov	r3, r0
 467 0018 002B     		cmp	r3, #0
 468 001a 7AD1     		bne	.L30
 452:.\Generated_Source\PSoC5/CyFlash.c ****     {
 453:.\Generated_Source\PSoC5/CyFlash.c ****         /* Load row data into SPC internal latch */
 454:.\Generated_Source\PSoC5/CyFlash.c ****         status = CySpcLoadRow(arrayId, rowData, rowSize);
 469              		.loc 1 454 0
 470 001c FA7B     		ldrb	r2, [r7, #15]	@ zero_extendqisi2
 471 001e FB88     		ldrh	r3, [r7, #6]
 472 0020 1046     		mov	r0, r2
 473 0022 B968     		ldr	r1, [r7, #8]
 474 0024 1A46     		mov	r2, r3
 475 0026 FFF7FEFF 		bl	CySpcLoadRow
 476 002a 0346     		mov	r3, r0
 477 002c 7B61     		str	r3, [r7, #20]
 455:.\Generated_Source\PSoC5/CyFlash.c **** 
 456:.\Generated_Source\PSoC5/CyFlash.c ****         if(CYRET_STARTED == status)
 478              		.loc 1 456 0
 479 002e 7B69     		ldr	r3, [r7, #20]
 480 0030 072B     		cmp	r3, #7
 481 0032 6BD1     		bne	.L31
 457:.\Generated_Source\PSoC5/CyFlash.c ****         {
 458:.\Generated_Source\PSoC5/CyFlash.c ****             while(CY_SPC_BUSY)
 482              		.loc 1 458 0
 483 0034 03E0     		b	.L32
 484              	.L33:
 459:.\Generated_Source\PSoC5/CyFlash.c ****             {
 460:.\Generated_Source\PSoC5/CyFlash.c ****                 /* Wait for SPC to finish and get SPC status */
 461:.\Generated_Source\PSoC5/CyFlash.c ****                 CyDelayUs(1u);
 485              		.loc 1 461 0
 486 0036 4FF00100 		mov	r0, #1
 487 003a FFF7FEFF 		bl	CyDelayUs
 488              	.L32:
 489              		.loc 1 458 0
 490 003e 44F22273 		movw	r3, #:lower16:1073760034
 491 0042 C4F20003 		movt	r3, #:upper16:1073760034
 492 0046 1B78     		ldrb	r3, [r3, #0]
 493 0048 DBB2     		uxtb	r3, r3
 494 004a 03F00203 		and	r3, r3, #2
 495 004e 002B     		cmp	r3, #0
 496 0050 F1D0     		beq	.L33
 462:.\Generated_Source\PSoC5/CyFlash.c ****             }
 463:.\Generated_Source\PSoC5/CyFlash.c **** 
 464:.\Generated_Source\PSoC5/CyFlash.c ****             /* Hide SPC status */
 465:.\Generated_Source\PSoC5/CyFlash.c ****             if(CY_SPC_STATUS_SUCCESS == CY_SPC_READ_STATUS)
 497              		.loc 1 465 0
 498 0052 44F22273 		movw	r3, #:lower16:1073760034
 499 0056 C4F20003 		movt	r3, #:upper16:1073760034
 500 005a 1B78     		ldrb	r3, [r3, #0]
ARM GAS  C:\Users\csap2972\AppData\Local\Temp\cc3BsNf5.s 			page 18


 501 005c DBB2     		uxtb	r3, r3
 502 005e 03F00203 		and	r3, r3, #2
 503 0062 002B     		cmp	r3, #0
 504 0064 0ED0     		beq	.L34
 505 0066 44F22273 		movw	r3, #:lower16:1073760034
 506 006a C4F20003 		movt	r3, #:upper16:1073760034
 507 006e 1B78     		ldrb	r3, [r3, #0]
 508 0070 DBB2     		uxtb	r3, r3
 509 0072 4FEA9303 		lsr	r3, r3, #2
 510 0076 DBB2     		uxtb	r3, r3
 511 0078 002B     		cmp	r3, #0
 512 007a 03D1     		bne	.L34
 466:.\Generated_Source\PSoC5/CyFlash.c ****             {
 467:.\Generated_Source\PSoC5/CyFlash.c ****                 status = CYRET_SUCCESS;
 513              		.loc 1 467 0
 514 007c 4FF00003 		mov	r3, #0
 515 0080 7B61     		str	r3, [r7, #20]
 516              		.loc 1 465 0
 517 0082 02E0     		b	.L35
 518              	.L34:
 468:.\Generated_Source\PSoC5/CyFlash.c ****             }
 469:.\Generated_Source\PSoC5/CyFlash.c ****             else
 470:.\Generated_Source\PSoC5/CyFlash.c ****             {
 471:.\Generated_Source\PSoC5/CyFlash.c ****                 status = CYRET_UNKNOWN;
 519              		.loc 1 471 0
 520 0084 4FF0FF33 		mov	r3, #-1
 521 0088 7B61     		str	r3, [r7, #20]
 522              	.L35:
 472:.\Generated_Source\PSoC5/CyFlash.c ****             }
 473:.\Generated_Source\PSoC5/CyFlash.c **** 
 474:.\Generated_Source\PSoC5/CyFlash.c ****             if(CYRET_SUCCESS == status)
 523              		.loc 1 474 0
 524 008a 7B69     		ldr	r3, [r7, #20]
 525 008c 002B     		cmp	r3, #0
 526 008e 3DD1     		bne	.L31
 475:.\Generated_Source\PSoC5/CyFlash.c ****             {
 476:.\Generated_Source\PSoC5/CyFlash.c ****                 /* Erase and program flash with the data from SPC interval latch */
 477:.\Generated_Source\PSoC5/CyFlash.c ****                 status = CySpcWriteRow(arrayId, rowNumber, dieTemperature[0u], dieTemperature[1u]);
 527              		.loc 1 477 0
 528 0090 40F20003 		movw	r3, #:lower16:dieTemperature
 529 0094 C0F20003 		movt	r3, #:upper16:dieTemperature
 530 0098 1A78     		ldrb	r2, [r3, #0]	@ zero_extendqisi2
 531 009a 40F20003 		movw	r3, #:lower16:dieTemperature
 532 009e C0F20003 		movt	r3, #:upper16:dieTemperature
 533 00a2 5B78     		ldrb	r3, [r3, #1]	@ zero_extendqisi2
 534 00a4 F87B     		ldrb	r0, [r7, #15]	@ zero_extendqisi2
 535 00a6 B989     		ldrh	r1, [r7, #12]
 536 00a8 FFF7FEFF 		bl	CySpcWriteRow
 537 00ac 0346     		mov	r3, r0
 538 00ae 7B61     		str	r3, [r7, #20]
 478:.\Generated_Source\PSoC5/CyFlash.c **** 
 479:.\Generated_Source\PSoC5/CyFlash.c ****                 if(CYRET_STARTED == status)
 539              		.loc 1 479 0
 540 00b0 7B69     		ldr	r3, [r7, #20]
 541 00b2 072B     		cmp	r3, #7
 542 00b4 2AD1     		bne	.L31
 480:.\Generated_Source\PSoC5/CyFlash.c ****                 {
ARM GAS  C:\Users\csap2972\AppData\Local\Temp\cc3BsNf5.s 			page 19


 481:.\Generated_Source\PSoC5/CyFlash.c ****                     while(CY_SPC_BUSY)
 543              		.loc 1 481 0
 544 00b6 03E0     		b	.L36
 545              	.L37:
 482:.\Generated_Source\PSoC5/CyFlash.c ****                     {
 483:.\Generated_Source\PSoC5/CyFlash.c ****                         /* Wait for SPC to finish and get SPC status */
 484:.\Generated_Source\PSoC5/CyFlash.c ****                         CyDelayUs(1u);
 546              		.loc 1 484 0
 547 00b8 4FF00100 		mov	r0, #1
 548 00bc FFF7FEFF 		bl	CyDelayUs
 549              	.L36:
 550              		.loc 1 481 0
 551 00c0 44F22273 		movw	r3, #:lower16:1073760034
 552 00c4 C4F20003 		movt	r3, #:upper16:1073760034
 553 00c8 1B78     		ldrb	r3, [r3, #0]
 554 00ca DBB2     		uxtb	r3, r3
 555 00cc 03F00203 		and	r3, r3, #2
 556 00d0 002B     		cmp	r3, #0
 557 00d2 F1D0     		beq	.L37
 485:.\Generated_Source\PSoC5/CyFlash.c ****                     }
 486:.\Generated_Source\PSoC5/CyFlash.c **** 
 487:.\Generated_Source\PSoC5/CyFlash.c ****                     /* Hide SPC status */
 488:.\Generated_Source\PSoC5/CyFlash.c ****                     if(CY_SPC_STATUS_SUCCESS == CY_SPC_READ_STATUS)
 558              		.loc 1 488 0
 559 00d4 44F22273 		movw	r3, #:lower16:1073760034
 560 00d8 C4F20003 		movt	r3, #:upper16:1073760034
 561 00dc 1B78     		ldrb	r3, [r3, #0]
 562 00de DBB2     		uxtb	r3, r3
 563 00e0 03F00203 		and	r3, r3, #2
 564 00e4 002B     		cmp	r3, #0
 565 00e6 0ED0     		beq	.L38
 566 00e8 44F22273 		movw	r3, #:lower16:1073760034
 567 00ec C4F20003 		movt	r3, #:upper16:1073760034
 568 00f0 1B78     		ldrb	r3, [r3, #0]
 569 00f2 DBB2     		uxtb	r3, r3
 570 00f4 4FEA9303 		lsr	r3, r3, #2
 571 00f8 DBB2     		uxtb	r3, r3
 572 00fa 002B     		cmp	r3, #0
 573 00fc 03D1     		bne	.L38
 489:.\Generated_Source\PSoC5/CyFlash.c ****                     {
 490:.\Generated_Source\PSoC5/CyFlash.c ****                         status = CYRET_SUCCESS;
 574              		.loc 1 490 0
 575 00fe 4FF00003 		mov	r3, #0
 576 0102 7B61     		str	r3, [r7, #20]
 577              		.loc 1 488 0
 578 0104 02E0     		b	.L31
 579              	.L38:
 491:.\Generated_Source\PSoC5/CyFlash.c ****                     }
 492:.\Generated_Source\PSoC5/CyFlash.c ****                     else
 493:.\Generated_Source\PSoC5/CyFlash.c ****                     {
 494:.\Generated_Source\PSoC5/CyFlash.c ****                         status = CYRET_UNKNOWN;
 580              		.loc 1 494 0
 581 0106 4FF0FF33 		mov	r3, #-1
 582 010a 7B61     		str	r3, [r7, #20]
 583              	.L31:
 495:.\Generated_Source\PSoC5/CyFlash.c ****                     }
 496:.\Generated_Source\PSoC5/CyFlash.c ****                 }
ARM GAS  C:\Users\csap2972\AppData\Local\Temp\cc3BsNf5.s 			page 20


 497:.\Generated_Source\PSoC5/CyFlash.c ****             }
 498:.\Generated_Source\PSoC5/CyFlash.c **** 
 499:.\Generated_Source\PSoC5/CyFlash.c ****         }
 500:.\Generated_Source\PSoC5/CyFlash.c **** 
 501:.\Generated_Source\PSoC5/CyFlash.c ****         CySpcUnlock();
 584              		.loc 1 501 0
 585 010c FFF7FEFF 		bl	CySpcUnlock
 586 0110 02E0     		b	.L39
 587              	.L30:
 502:.\Generated_Source\PSoC5/CyFlash.c ****     }
 503:.\Generated_Source\PSoC5/CyFlash.c ****     else
 504:.\Generated_Source\PSoC5/CyFlash.c ****     {
 505:.\Generated_Source\PSoC5/CyFlash.c ****         status = CYRET_LOCKED;
 588              		.loc 1 505 0
 589 0112 4FF00403 		mov	r3, #4
 590 0116 7B61     		str	r3, [r7, #20]
 591              	.L39:
 506:.\Generated_Source\PSoC5/CyFlash.c ****     }
 507:.\Generated_Source\PSoC5/CyFlash.c **** 
 508:.\Generated_Source\PSoC5/CyFlash.c ****     return(status);
 592              		.loc 1 508 0
 593 0118 7B69     		ldr	r3, [r7, #20]
 509:.\Generated_Source\PSoC5/CyFlash.c **** }
 594              		.loc 1 509 0
 595 011a 1846     		mov	r0, r3
 596 011c 07F11807 		add	r7, r7, #24
 597 0120 BD46     		mov	sp, r7
 598 0122 80BD     		pop	{r7, pc}
 599              		.cfi_endproc
 600              	.LFE6:
 601              		.size	CyWriteRowFull, .-CyWriteRowFull
 602              		.section	.text.CyFlash_SetWaitCycles,"ax",%progbits
 603              		.align	2
 604              		.global	CyFlash_SetWaitCycles
 605              		.thumb
 606              		.thumb_func
 607              		.type	CyFlash_SetWaitCycles, %function
 608              	CyFlash_SetWaitCycles:
 609              	.LFB7:
 510:.\Generated_Source\PSoC5/CyFlash.c **** 
 511:.\Generated_Source\PSoC5/CyFlash.c **** 
 512:.\Generated_Source\PSoC5/CyFlash.c **** /*******************************************************************************
 513:.\Generated_Source\PSoC5/CyFlash.c **** * Function Name: CyFlash_SetWaitCycles
 514:.\Generated_Source\PSoC5/CyFlash.c **** ********************************************************************************
 515:.\Generated_Source\PSoC5/CyFlash.c **** *
 516:.\Generated_Source\PSoC5/CyFlash.c **** * Summary:
 517:.\Generated_Source\PSoC5/CyFlash.c **** *  Sets the number of clock cycles the cache will wait before it samples data
 518:.\Generated_Source\PSoC5/CyFlash.c **** *  coming back from Flash. This function must be called before increasing CPU
 519:.\Generated_Source\PSoC5/CyFlash.c **** *  clock frequency. It can optionally be called after lowering CPU clock
 520:.\Generated_Source\PSoC5/CyFlash.c **** *  frequency in order to improve CPU performance.
 521:.\Generated_Source\PSoC5/CyFlash.c **** *
 522:.\Generated_Source\PSoC5/CyFlash.c **** * Parameters:
 523:.\Generated_Source\PSoC5/CyFlash.c **** *  freq:
 524:.\Generated_Source\PSoC5/CyFlash.c **** *   Frequency of operation in Megahertz.
 525:.\Generated_Source\PSoC5/CyFlash.c **** *
 526:.\Generated_Source\PSoC5/CyFlash.c **** * Return:
 527:.\Generated_Source\PSoC5/CyFlash.c **** *  None
ARM GAS  C:\Users\csap2972\AppData\Local\Temp\cc3BsNf5.s 			page 21


 528:.\Generated_Source\PSoC5/CyFlash.c **** *
 529:.\Generated_Source\PSoC5/CyFlash.c **** *******************************************************************************/
 530:.\Generated_Source\PSoC5/CyFlash.c **** void CyFlash_SetWaitCycles(uint8 freq) 
 531:.\Generated_Source\PSoC5/CyFlash.c **** {
 610              		.loc 1 531 0
 611              		.cfi_startproc
 612              		@ args = 0, pretend = 0, frame = 8
 613              		@ frame_needed = 1, uses_anonymous_args = 0
 614              		@ link register save eliminated.
 615 0000 80B4     		push	{r7}
 616              	.LCFI19:
 617              		.cfi_def_cfa_offset 4
 618 0002 83B0     		sub	sp, sp, #12
 619              	.LCFI20:
 620              		.cfi_def_cfa_offset 16
 621 0004 00AF     		add	r7, sp, #0
 622              		.cfi_offset 7, -4
 623              	.LCFI21:
 624              		.cfi_def_cfa_register 7
 625 0006 0346     		mov	r3, r0
 626 0008 FB71     		strb	r3, [r7, #7]
 532:.\Generated_Source\PSoC5/CyFlash.c ****     /* Set Flash Cycles bit fields with frequency value */
 533:.\Generated_Source\PSoC5/CyFlash.c **** 
 534:.\Generated_Source\PSoC5/CyFlash.c ****     #if (CY_PSOC3)
 535:.\Generated_Source\PSoC5/CyFlash.c **** 
 536:.\Generated_Source\PSoC5/CyFlash.c ****         if (freq <= 22u)
 537:.\Generated_Source\PSoC5/CyFlash.c ****         {
 538:.\Generated_Source\PSoC5/CyFlash.c ****             *FLASH_CYCLES_PTR = ((*FLASH_CYCLES_PTR & ~FLASH_CYCLES_MASK) |
 539:.\Generated_Source\PSoC5/CyFlash.c ****                 (LESSER_OR_EQUAL_22MHz << FLASH_CYCLES_MASK_SHIFT));
 540:.\Generated_Source\PSoC5/CyFlash.c ****         }
 541:.\Generated_Source\PSoC5/CyFlash.c ****         else if (freq <= 44u)
 542:.\Generated_Source\PSoC5/CyFlash.c ****         {
 543:.\Generated_Source\PSoC5/CyFlash.c ****             *FLASH_CYCLES_PTR = ((*FLASH_CYCLES_PTR & ~FLASH_CYCLES_MASK) |
 544:.\Generated_Source\PSoC5/CyFlash.c ****                 (LESSER_OR_EQUAL_44MHz << FLASH_CYCLES_MASK_SHIFT));
 545:.\Generated_Source\PSoC5/CyFlash.c ****         }
 546:.\Generated_Source\PSoC5/CyFlash.c ****         else
 547:.\Generated_Source\PSoC5/CyFlash.c ****         {
 548:.\Generated_Source\PSoC5/CyFlash.c ****             *FLASH_CYCLES_PTR = ((*FLASH_CYCLES_PTR & ~FLASH_CYCLES_MASK) |
 549:.\Generated_Source\PSoC5/CyFlash.c ****                 (GREATER_44MHz << FLASH_CYCLES_MASK_SHIFT));
 550:.\Generated_Source\PSoC5/CyFlash.c ****         }
 551:.\Generated_Source\PSoC5/CyFlash.c **** 
 552:.\Generated_Source\PSoC5/CyFlash.c ****     #endif  /* (CY_PSOC3) */
 553:.\Generated_Source\PSoC5/CyFlash.c **** 
 554:.\Generated_Source\PSoC5/CyFlash.c **** 
 555:.\Generated_Source\PSoC5/CyFlash.c ****     #if (CY_PSOC5A)
 556:.\Generated_Source\PSoC5/CyFlash.c **** 
 557:.\Generated_Source\PSoC5/CyFlash.c ****         if (freq <= 16u)
 558:.\Generated_Source\PSoC5/CyFlash.c ****         {
 559:.\Generated_Source\PSoC5/CyFlash.c ****             *FLASH_CYCLES_PTR = ((*FLASH_CYCLES_PTR & ~FLASH_CYCLES_MASK) |
 560:.\Generated_Source\PSoC5/CyFlash.c ****                 (LESSER_OR_EQUAL_16MHz << FLASH_CYCLES_MASK_SHIFT));
 561:.\Generated_Source\PSoC5/CyFlash.c ****         }
 562:.\Generated_Source\PSoC5/CyFlash.c ****         else if (freq <= 33u)
 563:.\Generated_Source\PSoC5/CyFlash.c ****         {
 564:.\Generated_Source\PSoC5/CyFlash.c ****             *FLASH_CYCLES_PTR = ((*FLASH_CYCLES_PTR & ~FLASH_CYCLES_MASK) |
 565:.\Generated_Source\PSoC5/CyFlash.c ****                 (LESSER_OR_EQUAL_33MHz << FLASH_CYCLES_MASK_SHIFT));
 566:.\Generated_Source\PSoC5/CyFlash.c ****         }
 567:.\Generated_Source\PSoC5/CyFlash.c ****         else if (freq <= 50u)
ARM GAS  C:\Users\csap2972\AppData\Local\Temp\cc3BsNf5.s 			page 22


 568:.\Generated_Source\PSoC5/CyFlash.c ****         {
 569:.\Generated_Source\PSoC5/CyFlash.c ****             *FLASH_CYCLES_PTR = ((*FLASH_CYCLES_PTR & ~FLASH_CYCLES_MASK) |
 570:.\Generated_Source\PSoC5/CyFlash.c ****                 (LESSER_OR_EQUAL_50MHz << FLASH_CYCLES_MASK_SHIFT));
 571:.\Generated_Source\PSoC5/CyFlash.c ****         }
 572:.\Generated_Source\PSoC5/CyFlash.c ****         else
 573:.\Generated_Source\PSoC5/CyFlash.c ****         {
 574:.\Generated_Source\PSoC5/CyFlash.c ****             *FLASH_CYCLES_PTR = ((*FLASH_CYCLES_PTR & ~FLASH_CYCLES_MASK) |
 575:.\Generated_Source\PSoC5/CyFlash.c ****                 (GREATER_51MHz << FLASH_CYCLES_MASK_SHIFT));
 576:.\Generated_Source\PSoC5/CyFlash.c ****         }
 577:.\Generated_Source\PSoC5/CyFlash.c **** 
 578:.\Generated_Source\PSoC5/CyFlash.c ****     #endif  /* (CY_PSOC5A) */
 579:.\Generated_Source\PSoC5/CyFlash.c **** 
 580:.\Generated_Source\PSoC5/CyFlash.c **** 
 581:.\Generated_Source\PSoC5/CyFlash.c ****     #if (CY_PSOC5LP)
 582:.\Generated_Source\PSoC5/CyFlash.c **** 
 583:.\Generated_Source\PSoC5/CyFlash.c ****         if (freq <= 16u)
 627              		.loc 1 583 0
 628 000a FB79     		ldrb	r3, [r7, #7]	@ zero_extendqisi2
 629 000c 102B     		cmp	r3, #16
 630 000e 10D8     		bhi	.L42
 584:.\Generated_Source\PSoC5/CyFlash.c ****         {
 585:.\Generated_Source\PSoC5/CyFlash.c ****             *FLASH_CYCLES_PTR = ((*FLASH_CYCLES_PTR & ~FLASH_CYCLES_MASK) |
 631              		.loc 1 585 0
 632 0010 44F60003 		movw	r3, #:lower16:1073760256
 633 0014 C4F20003 		movt	r3, #:upper16:1073760256
 634 0018 44F60002 		movw	r2, #:lower16:1073760256
 635 001c C4F20002 		movt	r2, #:upper16:1073760256
 636 0020 1278     		ldrb	r2, [r2, #0]
 637 0022 D2B2     		uxtb	r2, r2
 638 0024 02F03F02 		and	r2, r2, #63
 639 0028 42F04002 		orr	r2, r2, #64
 640 002c D2B2     		uxtb	r2, r2
 641 002e 1A70     		strb	r2, [r3, #0]
 642 0030 36E0     		b	.L46
 643              	.L42:
 586:.\Generated_Source\PSoC5/CyFlash.c ****                 (LESSER_OR_EQUAL_16MHz << FLASH_CYCLES_MASK_SHIFT));
 587:.\Generated_Source\PSoC5/CyFlash.c ****         }
 588:.\Generated_Source\PSoC5/CyFlash.c ****         else if (freq <= 33u)
 644              		.loc 1 588 0
 645 0032 FB79     		ldrb	r3, [r7, #7]	@ zero_extendqisi2
 646 0034 212B     		cmp	r3, #33
 647 0036 12D8     		bhi	.L44
 589:.\Generated_Source\PSoC5/CyFlash.c ****         {
 590:.\Generated_Source\PSoC5/CyFlash.c ****             *FLASH_CYCLES_PTR = ((*FLASH_CYCLES_PTR & ~FLASH_CYCLES_MASK) |
 648              		.loc 1 590 0
 649 0038 44F60003 		movw	r3, #:lower16:1073760256
 650 003c C4F20003 		movt	r3, #:upper16:1073760256
 651 0040 44F60002 		movw	r2, #:lower16:1073760256
 652 0044 C4F20002 		movt	r2, #:upper16:1073760256
 653 0048 1278     		ldrb	r2, [r2, #0]
 654 004a D2B2     		uxtb	r2, r2
 655 004c 02F03F02 		and	r2, r2, #63
 656 0050 6FEA4262 		mvn	r2, r2, lsl #25
 657 0054 6FEA5262 		mvn	r2, r2, lsr #25
 658 0058 D2B2     		uxtb	r2, r2
 659 005a 1A70     		strb	r2, [r3, #0]
 660 005c 20E0     		b	.L46
ARM GAS  C:\Users\csap2972\AppData\Local\Temp\cc3BsNf5.s 			page 23


 661              	.L44:
 591:.\Generated_Source\PSoC5/CyFlash.c ****                 (LESSER_OR_EQUAL_33MHz << FLASH_CYCLES_MASK_SHIFT));
 592:.\Generated_Source\PSoC5/CyFlash.c ****         }
 593:.\Generated_Source\PSoC5/CyFlash.c ****         else if (freq <= 50u)
 662              		.loc 1 593 0
 663 005e FB79     		ldrb	r3, [r7, #7]	@ zero_extendqisi2
 664 0060 322B     		cmp	r3, #50
 665 0062 10D8     		bhi	.L45
 594:.\Generated_Source\PSoC5/CyFlash.c ****         {
 595:.\Generated_Source\PSoC5/CyFlash.c ****             *FLASH_CYCLES_PTR = ((*FLASH_CYCLES_PTR & ~FLASH_CYCLES_MASK) |
 666              		.loc 1 595 0
 667 0064 44F60003 		movw	r3, #:lower16:1073760256
 668 0068 C4F20003 		movt	r3, #:upper16:1073760256
 669 006c 44F60002 		movw	r2, #:lower16:1073760256
 670 0070 C4F20002 		movt	r2, #:upper16:1073760256
 671 0074 1278     		ldrb	r2, [r2, #0]
 672 0076 D2B2     		uxtb	r2, r2
 673 0078 6FEA8262 		mvn	r2, r2, lsl #26
 674 007c 6FEA9262 		mvn	r2, r2, lsr #26
 675 0080 D2B2     		uxtb	r2, r2
 676 0082 1A70     		strb	r2, [r3, #0]
 677 0084 0CE0     		b	.L46
 678              	.L45:
 596:.\Generated_Source\PSoC5/CyFlash.c ****                 (LESSER_OR_EQUAL_50MHz << FLASH_CYCLES_MASK_SHIFT));
 597:.\Generated_Source\PSoC5/CyFlash.c ****         }
 598:.\Generated_Source\PSoC5/CyFlash.c ****         else
 599:.\Generated_Source\PSoC5/CyFlash.c ****         {
 600:.\Generated_Source\PSoC5/CyFlash.c ****             *FLASH_CYCLES_PTR = ((*FLASH_CYCLES_PTR & ~FLASH_CYCLES_MASK) |
 679              		.loc 1 600 0
 680 0086 44F60003 		movw	r3, #:lower16:1073760256
 681 008a C4F20003 		movt	r3, #:upper16:1073760256
 682 008e 44F60002 		movw	r2, #:lower16:1073760256
 683 0092 C4F20002 		movt	r2, #:upper16:1073760256
 684 0096 1278     		ldrb	r2, [r2, #0]
 685 0098 D2B2     		uxtb	r2, r2
 686 009a 02F03F02 		and	r2, r2, #63
 687 009e 1A70     		strb	r2, [r3, #0]
 688              	.L46:
 601:.\Generated_Source\PSoC5/CyFlash.c ****                 (GREATER_51MHz << FLASH_CYCLES_MASK_SHIFT));
 602:.\Generated_Source\PSoC5/CyFlash.c ****         }
 603:.\Generated_Source\PSoC5/CyFlash.c **** 
 604:.\Generated_Source\PSoC5/CyFlash.c ****     #endif  /* (CY_PSOC5LP) */
 605:.\Generated_Source\PSoC5/CyFlash.c **** }
 689              		.loc 1 605 0
 690 00a0 07F10C07 		add	r7, r7, #12
 691 00a4 BD46     		mov	sp, r7
 692 00a6 80BC     		pop	{r7}
 693 00a8 7047     		bx	lr
 694              		.cfi_endproc
 695              	.LFE7:
 696              		.size	CyFlash_SetWaitCycles, .-CyFlash_SetWaitCycles
 697 00aa 00BF     		.section	.text.CyEEPROM_Start,"ax",%progbits
 698              		.align	2
 699              		.global	CyEEPROM_Start
 700              		.thumb
 701              		.thumb_func
 702              		.type	CyEEPROM_Start, %function
ARM GAS  C:\Users\csap2972\AppData\Local\Temp\cc3BsNf5.s 			page 24


 703              	CyEEPROM_Start:
 704              	.LFB8:
 606:.\Generated_Source\PSoC5/CyFlash.c **** 
 607:.\Generated_Source\PSoC5/CyFlash.c **** 
 608:.\Generated_Source\PSoC5/CyFlash.c **** #if (CY_PSOC3 || CY_PSOC5LP)
 609:.\Generated_Source\PSoC5/CyFlash.c **** 
 610:.\Generated_Source\PSoC5/CyFlash.c ****     /*******************************************************************************
 611:.\Generated_Source\PSoC5/CyFlash.c ****     * Function Name: CyEEPROM_Start
 612:.\Generated_Source\PSoC5/CyFlash.c ****     ********************************************************************************
 613:.\Generated_Source\PSoC5/CyFlash.c ****     *
 614:.\Generated_Source\PSoC5/CyFlash.c ****     * Summary:
 615:.\Generated_Source\PSoC5/CyFlash.c ****     *  Enable the EEPROM.
 616:.\Generated_Source\PSoC5/CyFlash.c ****     *
 617:.\Generated_Source\PSoC5/CyFlash.c ****     * Parameters:
 618:.\Generated_Source\PSoC5/CyFlash.c ****     *  None
 619:.\Generated_Source\PSoC5/CyFlash.c ****     *
 620:.\Generated_Source\PSoC5/CyFlash.c ****     * Return:
 621:.\Generated_Source\PSoC5/CyFlash.c ****     *  None
 622:.\Generated_Source\PSoC5/CyFlash.c ****     *
 623:.\Generated_Source\PSoC5/CyFlash.c ****     *******************************************************************************/
 624:.\Generated_Source\PSoC5/CyFlash.c ****     void CyEEPROM_Start(void) 
 625:.\Generated_Source\PSoC5/CyFlash.c ****     {
 705              		.loc 1 625 0
 706              		.cfi_startproc
 707              		@ args = 0, pretend = 0, frame = 0
 708              		@ frame_needed = 1, uses_anonymous_args = 0
 709              		@ link register save eliminated.
 710 0000 80B4     		push	{r7}
 711              	.LCFI22:
 712              		.cfi_def_cfa_offset 4
 713 0002 00AF     		add	r7, sp, #0
 714              		.cfi_offset 7, -4
 715              	.LCFI23:
 716              		.cfi_def_cfa_register 7
 626:.\Generated_Source\PSoC5/CyFlash.c ****         /* Active Power Mode */
 627:.\Generated_Source\PSoC5/CyFlash.c ****         *PM_ACT_EE_PTR |= PM_EE_MASK;
 717              		.loc 1 627 0
 718 0004 44F2AC33 		movw	r3, #:lower16:1073759148
 719 0008 C4F20003 		movt	r3, #:upper16:1073759148
 720 000c 44F2AC32 		movw	r2, #:lower16:1073759148
 721 0010 C4F20002 		movt	r2, #:upper16:1073759148
 722 0014 1278     		ldrb	r2, [r2, #0]
 723 0016 D2B2     		uxtb	r2, r2
 724 0018 42F01002 		orr	r2, r2, #16
 725 001c D2B2     		uxtb	r2, r2
 726 001e 1A70     		strb	r2, [r3, #0]
 628:.\Generated_Source\PSoC5/CyFlash.c **** 
 629:.\Generated_Source\PSoC5/CyFlash.c ****         /* Standby Power Mode */
 630:.\Generated_Source\PSoC5/CyFlash.c ****         *PM_STBY_EE_PTR |= PM_EE_MASK;
 727              		.loc 1 630 0
 728 0020 44F2BC33 		movw	r3, #:lower16:1073759164
 729 0024 C4F20003 		movt	r3, #:upper16:1073759164
 730 0028 44F2BC32 		movw	r2, #:lower16:1073759164
 731 002c C4F20002 		movt	r2, #:upper16:1073759164
 732 0030 1278     		ldrb	r2, [r2, #0]
 733 0032 D2B2     		uxtb	r2, r2
 734 0034 42F01002 		orr	r2, r2, #16
ARM GAS  C:\Users\csap2972\AppData\Local\Temp\cc3BsNf5.s 			page 25


 735 0038 D2B2     		uxtb	r2, r2
 736 003a 1A70     		strb	r2, [r3, #0]
 631:.\Generated_Source\PSoC5/CyFlash.c ****     }
 737              		.loc 1 631 0
 738 003c BD46     		mov	sp, r7
 739 003e 80BC     		pop	{r7}
 740 0040 7047     		bx	lr
 741              		.cfi_endproc
 742              	.LFE8:
 743              		.size	CyEEPROM_Start, .-CyEEPROM_Start
 744 0042 00BF     		.section	.text.CyEEPROM_Stop,"ax",%progbits
 745              		.align	2
 746              		.global	CyEEPROM_Stop
 747              		.thumb
 748              		.thumb_func
 749              		.type	CyEEPROM_Stop, %function
 750              	CyEEPROM_Stop:
 751              	.LFB9:
 632:.\Generated_Source\PSoC5/CyFlash.c **** 
 633:.\Generated_Source\PSoC5/CyFlash.c **** 
 634:.\Generated_Source\PSoC5/CyFlash.c ****     /*******************************************************************************
 635:.\Generated_Source\PSoC5/CyFlash.c ****     * Function Name: CyEEPROM_Stop
 636:.\Generated_Source\PSoC5/CyFlash.c ****     ********************************************************************************
 637:.\Generated_Source\PSoC5/CyFlash.c ****     *
 638:.\Generated_Source\PSoC5/CyFlash.c ****     * Summary:
 639:.\Generated_Source\PSoC5/CyFlash.c ****     *  Disable the EEPROM.
 640:.\Generated_Source\PSoC5/CyFlash.c ****     *
 641:.\Generated_Source\PSoC5/CyFlash.c ****     * Parameters:
 642:.\Generated_Source\PSoC5/CyFlash.c ****     *  None
 643:.\Generated_Source\PSoC5/CyFlash.c ****     *
 644:.\Generated_Source\PSoC5/CyFlash.c ****     * Return:
 645:.\Generated_Source\PSoC5/CyFlash.c ****     *  None
 646:.\Generated_Source\PSoC5/CyFlash.c ****     *
 647:.\Generated_Source\PSoC5/CyFlash.c ****     *******************************************************************************/
 648:.\Generated_Source\PSoC5/CyFlash.c ****     void CyEEPROM_Stop (void) 
 649:.\Generated_Source\PSoC5/CyFlash.c ****     {
 752              		.loc 1 649 0
 753              		.cfi_startproc
 754              		@ args = 0, pretend = 0, frame = 0
 755              		@ frame_needed = 1, uses_anonymous_args = 0
 756              		@ link register save eliminated.
 757 0000 80B4     		push	{r7}
 758              	.LCFI24:
 759              		.cfi_def_cfa_offset 4
 760 0002 00AF     		add	r7, sp, #0
 761              		.cfi_offset 7, -4
 762              	.LCFI25:
 763              		.cfi_def_cfa_register 7
 650:.\Generated_Source\PSoC5/CyFlash.c ****         /* Active Power Mode */
 651:.\Generated_Source\PSoC5/CyFlash.c ****         *PM_ACT_EE_PTR &= ~PM_EE_MASK;
 764              		.loc 1 651 0
 765 0004 44F2AC33 		movw	r3, #:lower16:1073759148
 766 0008 C4F20003 		movt	r3, #:upper16:1073759148
 767 000c 44F2AC32 		movw	r2, #:lower16:1073759148
 768 0010 C4F20002 		movt	r2, #:upper16:1073759148
 769 0014 1278     		ldrb	r2, [r2, #0]
 770 0016 D2B2     		uxtb	r2, r2
ARM GAS  C:\Users\csap2972\AppData\Local\Temp\cc3BsNf5.s 			page 26


 771 0018 02F0EF02 		and	r2, r2, #239
 772 001c 1A70     		strb	r2, [r3, #0]
 652:.\Generated_Source\PSoC5/CyFlash.c **** 
 653:.\Generated_Source\PSoC5/CyFlash.c ****         /* Standby Power Mode */
 654:.\Generated_Source\PSoC5/CyFlash.c ****         *PM_STBY_EE_PTR &= ~PM_EE_MASK;
 773              		.loc 1 654 0
 774 001e 44F2BC33 		movw	r3, #:lower16:1073759164
 775 0022 C4F20003 		movt	r3, #:upper16:1073759164
 776 0026 44F2BC32 		movw	r2, #:lower16:1073759164
 777 002a C4F20002 		movt	r2, #:upper16:1073759164
 778 002e 1278     		ldrb	r2, [r2, #0]
 779 0030 D2B2     		uxtb	r2, r2
 780 0032 02F0EF02 		and	r2, r2, #239
 781 0036 1A70     		strb	r2, [r3, #0]
 655:.\Generated_Source\PSoC5/CyFlash.c ****     }
 782              		.loc 1 655 0
 783 0038 BD46     		mov	sp, r7
 784 003a 80BC     		pop	{r7}
 785 003c 7047     		bx	lr
 786              		.cfi_endproc
 787              	.LFE9:
 788              		.size	CyEEPROM_Stop, .-CyEEPROM_Stop
 789 003e 00BF     		.section	.text.CyEEPROM_ReadReserve,"ax",%progbits
 790              		.align	2
 791              		.global	CyEEPROM_ReadReserve
 792              		.thumb
 793              		.thumb_func
 794              		.type	CyEEPROM_ReadReserve, %function
 795              	CyEEPROM_ReadReserve:
 796              	.LFB10:
 656:.\Generated_Source\PSoC5/CyFlash.c **** 
 657:.\Generated_Source\PSoC5/CyFlash.c **** #endif /* (CY_PSOC3 || CY_PSOC5LP) */
 658:.\Generated_Source\PSoC5/CyFlash.c **** 
 659:.\Generated_Source\PSoC5/CyFlash.c **** 
 660:.\Generated_Source\PSoC5/CyFlash.c **** /*******************************************************************************
 661:.\Generated_Source\PSoC5/CyFlash.c **** * Function Name: CyEEPROM_ReadReserve
 662:.\Generated_Source\PSoC5/CyFlash.c **** ********************************************************************************
 663:.\Generated_Source\PSoC5/CyFlash.c **** *
 664:.\Generated_Source\PSoC5/CyFlash.c **** * Summary:
 665:.\Generated_Source\PSoC5/CyFlash.c **** *  Request access to the EEPROM for reading and wait until access is available.
 666:.\Generated_Source\PSoC5/CyFlash.c **** *
 667:.\Generated_Source\PSoC5/CyFlash.c **** * Parameters:
 668:.\Generated_Source\PSoC5/CyFlash.c **** *  None
 669:.\Generated_Source\PSoC5/CyFlash.c **** *
 670:.\Generated_Source\PSoC5/CyFlash.c **** * Return:
 671:.\Generated_Source\PSoC5/CyFlash.c **** *  None
 672:.\Generated_Source\PSoC5/CyFlash.c **** *
 673:.\Generated_Source\PSoC5/CyFlash.c **** *******************************************************************************/
 674:.\Generated_Source\PSoC5/CyFlash.c **** void CyEEPROM_ReadReserve(void) 
 675:.\Generated_Source\PSoC5/CyFlash.c **** {
 797              		.loc 1 675 0
 798              		.cfi_startproc
 799              		@ args = 0, pretend = 0, frame = 0
 800              		@ frame_needed = 1, uses_anonymous_args = 0
 801              		@ link register save eliminated.
 802 0000 80B4     		push	{r7}
 803              	.LCFI26:
ARM GAS  C:\Users\csap2972\AppData\Local\Temp\cc3BsNf5.s 			page 27


 804              		.cfi_def_cfa_offset 4
 805 0002 00AF     		add	r7, sp, #0
 806              		.cfi_offset 7, -4
 807              	.LCFI27:
 808              		.cfi_def_cfa_register 7
 676:.\Generated_Source\PSoC5/CyFlash.c ****     /* Make a request for PHUB to have access */
 677:.\Generated_Source\PSoC5/CyFlash.c ****     *AHUB_EE_REQ_ACK_PTR |= 0x01u;
 809              		.loc 1 677 0
 810 0004 44F20273 		movw	r3, #:lower16:1073760002
 811 0008 C4F20003 		movt	r3, #:upper16:1073760002
 812 000c 44F20272 		movw	r2, #:lower16:1073760002
 813 0010 C4F20002 		movt	r2, #:upper16:1073760002
 814 0014 1278     		ldrb	r2, [r2, #0]
 815 0016 D2B2     		uxtb	r2, r2
 816 0018 42F00102 		orr	r2, r2, #1
 817 001c D2B2     		uxtb	r2, r2
 818 001e 1A70     		strb	r2, [r3, #0]
 819              	.L52:
 678:.\Generated_Source\PSoC5/CyFlash.c **** 
 679:.\Generated_Source\PSoC5/CyFlash.c ****     /* Wait for acknowledgement from PHUB */
 680:.\Generated_Source\PSoC5/CyFlash.c ****     while (!(*AHUB_EE_REQ_ACK_PTR & 0x02u));
 820              		.loc 1 680 0
 821 0020 44F20273 		movw	r3, #:lower16:1073760002
 822 0024 C4F20003 		movt	r3, #:upper16:1073760002
 823 0028 1B78     		ldrb	r3, [r3, #0]
 824 002a DBB2     		uxtb	r3, r3
 825 002c 03F00203 		and	r3, r3, #2
 826 0030 002B     		cmp	r3, #0
 827 0032 F5D0     		beq	.L52
 681:.\Generated_Source\PSoC5/CyFlash.c **** }
 828              		.loc 1 681 0
 829 0034 BD46     		mov	sp, r7
 830 0036 80BC     		pop	{r7}
 831 0038 7047     		bx	lr
 832              		.cfi_endproc
 833              	.LFE10:
 834              		.size	CyEEPROM_ReadReserve, .-CyEEPROM_ReadReserve
 835 003a 00BF     		.section	.text.CyEEPROM_ReadRelease,"ax",%progbits
 836              		.align	2
 837              		.global	CyEEPROM_ReadRelease
 838              		.thumb
 839              		.thumb_func
 840              		.type	CyEEPROM_ReadRelease, %function
 841              	CyEEPROM_ReadRelease:
 842              	.LFB11:
 682:.\Generated_Source\PSoC5/CyFlash.c **** 
 683:.\Generated_Source\PSoC5/CyFlash.c **** 
 684:.\Generated_Source\PSoC5/CyFlash.c **** /*******************************************************************************
 685:.\Generated_Source\PSoC5/CyFlash.c **** * Function Name: CyEEPROM_ReadRelease
 686:.\Generated_Source\PSoC5/CyFlash.c **** ********************************************************************************
 687:.\Generated_Source\PSoC5/CyFlash.c **** *
 688:.\Generated_Source\PSoC5/CyFlash.c **** * Summary:
 689:.\Generated_Source\PSoC5/CyFlash.c **** *  Release the read reservation of the EEPROM.
 690:.\Generated_Source\PSoC5/CyFlash.c **** *
 691:.\Generated_Source\PSoC5/CyFlash.c **** * Parameters:
 692:.\Generated_Source\PSoC5/CyFlash.c **** *  None
 693:.\Generated_Source\PSoC5/CyFlash.c **** *
ARM GAS  C:\Users\csap2972\AppData\Local\Temp\cc3BsNf5.s 			page 28


 694:.\Generated_Source\PSoC5/CyFlash.c **** * Return:
 695:.\Generated_Source\PSoC5/CyFlash.c **** *  None
 696:.\Generated_Source\PSoC5/CyFlash.c **** *
 697:.\Generated_Source\PSoC5/CyFlash.c **** *******************************************************************************/
 698:.\Generated_Source\PSoC5/CyFlash.c **** void CyEEPROM_ReadRelease(void) 
 699:.\Generated_Source\PSoC5/CyFlash.c **** {
 843              		.loc 1 699 0
 844              		.cfi_startproc
 845              		@ args = 0, pretend = 0, frame = 0
 846              		@ frame_needed = 1, uses_anonymous_args = 0
 847              		@ link register save eliminated.
 848 0000 80B4     		push	{r7}
 849              	.LCFI28:
 850              		.cfi_def_cfa_offset 4
 851 0002 00AF     		add	r7, sp, #0
 852              		.cfi_offset 7, -4
 853              	.LCFI29:
 854              		.cfi_def_cfa_register 7
 700:.\Generated_Source\PSoC5/CyFlash.c ****     *AHUB_EE_REQ_ACK_PTR |= 0x00u;
 855              		.loc 1 700 0
 856 0004 44F20273 		movw	r3, #:lower16:1073760002
 857 0008 C4F20003 		movt	r3, #:upper16:1073760002
 858 000c 44F20272 		movw	r2, #:lower16:1073760002
 859 0010 C4F20002 		movt	r2, #:upper16:1073760002
 860 0014 1278     		ldrb	r2, [r2, #0]
 861 0016 D2B2     		uxtb	r2, r2
 862 0018 1A70     		strb	r2, [r3, #0]
 701:.\Generated_Source\PSoC5/CyFlash.c **** }
 863              		.loc 1 701 0
 864 001a BD46     		mov	sp, r7
 865 001c 80BC     		pop	{r7}
 866 001e 7047     		bx	lr
 867              		.cfi_endproc
 868              	.LFE11:
 869              		.size	CyEEPROM_ReadRelease, .-CyEEPROM_ReadRelease
 870              		.text
 871              	.Letext0: