ARM GAS  C:\Users\csap2972\AppData\Local\Temp\cczsvW7p.s 			page 1


   1              		.syntax unified
   2              		.cpu cortex-m3
   3              		.fpu softvfp
   4              		.eabi_attribute 20, 1
   5              		.eabi_attribute 21, 1
   6              		.eabi_attribute 23, 3
   7              		.eabi_attribute 24, 1
   8              		.eabi_attribute 25, 1
   9              		.eabi_attribute 26, 1
  10              		.eabi_attribute 30, 6
  11              		.eabi_attribute 18, 4
  12              		.thumb
  13              		.file	"CySpc.c"
  20 0000 21020000 		.text
  20      02005E00 
  20      00000201 
  20      FB0E0D00 
  20      01010101 
  21              	.Ltext0:
  22              		.cfi_sections	.debug_frame
  23              		.global	SpcLockState
  24              		.bss
  25              		.type	SpcLockState, %object
  26              		.size	SpcLockState, 1
  27              	SpcLockState:
  28 0000 00       		.space	1
  29              		.global	spcWaitPipeBypass
  30              		.type	spcWaitPipeBypass, %object
  31              		.size	spcWaitPipeBypass, 1
  32              	spcWaitPipeBypass:
  33 0001 00       		.space	1
  34              		.section	.text.CySpcStart,"ax",%progbits
  35              		.align	2
  36              		.global	CySpcStart
  37              		.thumb
  38              		.thumb_func
  39              		.type	CySpcStart, %function
  40              	CySpcStart:
  41              	.LFB0:
  42              		.file 1 ".\\Generated_Source\\PSoC5\\CySpc.c"
   1:.\Generated_Source\PSoC5/CySpc.c **** /*******************************************************************************
   2:.\Generated_Source\PSoC5/CySpc.c **** * File Name: CySpc.c
   3:.\Generated_Source\PSoC5/CySpc.c **** * Version 3.20
   4:.\Generated_Source\PSoC5/CySpc.c **** *
   5:.\Generated_Source\PSoC5/CySpc.c **** *  Description:
   6:.\Generated_Source\PSoC5/CySpc.c **** *   Provides an API for the System Performance Component.
   7:.\Generated_Source\PSoC5/CySpc.c **** *   The SPC functions are not meant to be called directly by the user
   8:.\Generated_Source\PSoC5/CySpc.c **** *   application.
   9:.\Generated_Source\PSoC5/CySpc.c **** *
  10:.\Generated_Source\PSoC5/CySpc.c **** ********************************************************************************
  11:.\Generated_Source\PSoC5/CySpc.c **** * Copyright 2008-2012, Cypress Semiconductor Corporation.  All rights reserved.
ARM GAS  C:\Users\csap2972\AppData\Local\Temp\cczsvW7p.s 			page 2


  12:.\Generated_Source\PSoC5/CySpc.c **** * You may use this file only in accordance with the license, terms, conditions,
  13:.\Generated_Source\PSoC5/CySpc.c **** * disclaimers, and limitations in the end user license agreement accompanying
  14:.\Generated_Source\PSoC5/CySpc.c **** * the software package with which this file was provided.
  15:.\Generated_Source\PSoC5/CySpc.c **** *******************************************************************************/
  16:.\Generated_Source\PSoC5/CySpc.c **** 
  17:.\Generated_Source\PSoC5/CySpc.c **** #include "CySpc.h"
  18:.\Generated_Source\PSoC5/CySpc.c **** 
  19:.\Generated_Source\PSoC5/CySpc.c **** #define CY_SPC_KEY_ONE                      (0xB6u)
  20:.\Generated_Source\PSoC5/CySpc.c **** #define CY_SPC_KEY_TWO(x)                   ((uint8) (((uint16) 0xD3u) + ((uint16) (x))))
  21:.\Generated_Source\PSoC5/CySpc.c **** 
  22:.\Generated_Source\PSoC5/CySpc.c **** /* Command Codes */
  23:.\Generated_Source\PSoC5/CySpc.c **** #define CY_SPC_CMD_LD_BYTE                  (0x00u)
  24:.\Generated_Source\PSoC5/CySpc.c **** #define CY_SPC_CMD_LD_MULTI_BYTE            (0x01u)
  25:.\Generated_Source\PSoC5/CySpc.c **** #define CY_SPC_CMD_LD_ROW                   (0x02u)
  26:.\Generated_Source\PSoC5/CySpc.c **** #define CY_SPC_CMD_RD_BYTE                  (0x03u)
  27:.\Generated_Source\PSoC5/CySpc.c **** #define CY_SPC_CMD_RD_MULTI_BYTE            (0x04u)
  28:.\Generated_Source\PSoC5/CySpc.c **** #define CY_SPC_CMD_WR_ROW                   (0x05u)
  29:.\Generated_Source\PSoC5/CySpc.c **** #define CY_SPC_CMD_WR_USER_NVL              (0x06u)
  30:.\Generated_Source\PSoC5/CySpc.c **** #define CY_SPC_CMD_PRG_ROW                  (0x07u)
  31:.\Generated_Source\PSoC5/CySpc.c **** #define CY_SPC_CMD_ER_SECTOR                (0x08u)
  32:.\Generated_Source\PSoC5/CySpc.c **** #define CY_SPC_CMD_ER_ALL                   (0x09u)
  33:.\Generated_Source\PSoC5/CySpc.c **** #define CY_SPC_CMD_RD_HIDDEN                (0x0Au)
  34:.\Generated_Source\PSoC5/CySpc.c **** #define CY_SPC_CMD_PRG_PROTECT              (0x0Bu)
  35:.\Generated_Source\PSoC5/CySpc.c **** #define CY_SPC_CMD_CHECKSUM                 (0x0Cu)
  36:.\Generated_Source\PSoC5/CySpc.c **** #define CY_SPC_CMD_DWNLD_ALGORITHM          (0x0Du)
  37:.\Generated_Source\PSoC5/CySpc.c **** #define CY_SPC_CMD_GET_TEMP                 (0x0Eu)
  38:.\Generated_Source\PSoC5/CySpc.c **** #define CY_SPC_CMD_GET_ADC                  (0x0Fu)
  39:.\Generated_Source\PSoC5/CySpc.c **** #define CY_SPC_CMD_RD_NVL_VOLATILE          (0x10u)
  40:.\Generated_Source\PSoC5/CySpc.c **** #define CY_SPC_CMD_SETUP_TS                 (0x11u)
  41:.\Generated_Source\PSoC5/CySpc.c **** #define CY_SPC_CMD_DISABLE_TS               (0x12u)
  42:.\Generated_Source\PSoC5/CySpc.c **** #define CY_SPC_CMD_ER_ROW                   (0x13u)
  43:.\Generated_Source\PSoC5/CySpc.c **** 
  44:.\Generated_Source\PSoC5/CySpc.c **** /* Enable bit in Active and Alternate Active mode templates */
  45:.\Generated_Source\PSoC5/CySpc.c **** #define PM_SPC_PM_EN                        (0x08u)
  46:.\Generated_Source\PSoC5/CySpc.c **** 
  47:.\Generated_Source\PSoC5/CySpc.c **** #define CY_SPC_FLASH_SECTOR_ADDRES(x)       (0xFF & (x))
  48:.\Generated_Source\PSoC5/CySpc.c **** #define CY_SPC_EEPROM_SECTOR_ADDRESS(x)     (0x7F & (x))
  49:.\Generated_Source\PSoC5/CySpc.c **** 
  50:.\Generated_Source\PSoC5/CySpc.c **** /* Gate calls to the SPC. */
  51:.\Generated_Source\PSoC5/CySpc.c **** uint8 SpcLockState = CY_SPC_UNLOCKED;
  52:.\Generated_Source\PSoC5/CySpc.c **** 
  53:.\Generated_Source\PSoC5/CySpc.c **** 
  54:.\Generated_Source\PSoC5/CySpc.c **** #if(CY_PSOC5LP)
  55:.\Generated_Source\PSoC5/CySpc.c **** 
  56:.\Generated_Source\PSoC5/CySpc.c ****     /***************************************************************************
  57:.\Generated_Source\PSoC5/CySpc.c ****     * The wait-state pipeline must be enabled prior to accessing the SPC
  58:.\Generated_Source\PSoC5/CySpc.c ****     * register interface regardless of CPU frequency. The CySpcLock() saves
  59:.\Generated_Source\PSoC5/CySpc.c ****     * current wait-state pipeline state and enables it. The CySpcUnlock()
  60:.\Generated_Source\PSoC5/CySpc.c ****     * function, which must be called after SPC transaction, restores original
  61:.\Generated_Source\PSoC5/CySpc.c ****     * state.
  62:.\Generated_Source\PSoC5/CySpc.c ****     ***************************************************************************/
  63:.\Generated_Source\PSoC5/CySpc.c ****     uint8 spcWaitPipeBypass = 0u;
  64:.\Generated_Source\PSoC5/CySpc.c **** 
  65:.\Generated_Source\PSoC5/CySpc.c **** #endif  /* (CY_PSOC5LP) */
  66:.\Generated_Source\PSoC5/CySpc.c **** 
  67:.\Generated_Source\PSoC5/CySpc.c **** 
  68:.\Generated_Source\PSoC5/CySpc.c **** /*******************************************************************************
ARM GAS  C:\Users\csap2972\AppData\Local\Temp\cczsvW7p.s 			page 3


  69:.\Generated_Source\PSoC5/CySpc.c **** * Function Name: CySpcStart
  70:.\Generated_Source\PSoC5/CySpc.c **** ********************************************************************************
  71:.\Generated_Source\PSoC5/CySpc.c **** * Summary:
  72:.\Generated_Source\PSoC5/CySpc.c **** *  Starts the SPC.
  73:.\Generated_Source\PSoC5/CySpc.c **** *
  74:.\Generated_Source\PSoC5/CySpc.c **** * Parameters:
  75:.\Generated_Source\PSoC5/CySpc.c **** *  None
  76:.\Generated_Source\PSoC5/CySpc.c **** *
  77:.\Generated_Source\PSoC5/CySpc.c **** * Return:
  78:.\Generated_Source\PSoC5/CySpc.c **** *  None
  79:.\Generated_Source\PSoC5/CySpc.c **** *
  80:.\Generated_Source\PSoC5/CySpc.c **** *******************************************************************************/
  81:.\Generated_Source\PSoC5/CySpc.c **** void CySpcStart(void) 
  82:.\Generated_Source\PSoC5/CySpc.c **** {
  43              		.loc 1 82 0
  44              		.cfi_startproc
  45              		@ args = 0, pretend = 0, frame = 8
  46              		@ frame_needed = 1, uses_anonymous_args = 0
  47 0000 80B5     		push	{r7, lr}
  48              	.LCFI0:
  49              		.cfi_def_cfa_offset 8
  50 0002 82B0     		sub	sp, sp, #8
  51              	.LCFI1:
  52              		.cfi_def_cfa_offset 16
  53 0004 00AF     		add	r7, sp, #0
  54              		.cfi_offset 14, -4
  55              		.cfi_offset 7, -8
  56              	.LCFI2:
  57              		.cfi_def_cfa_register 7
  83:.\Generated_Source\PSoC5/CySpc.c ****     /* Save current global interrupt enable and disable it */
  84:.\Generated_Source\PSoC5/CySpc.c ****     uint8 interruptState = CyEnterCriticalSection();
  58              		.loc 1 84 0
  59 0006 FFF7FEFF 		bl	CyEnterCriticalSection
  60 000a 0346     		mov	r3, r0
  61 000c FB71     		strb	r3, [r7, #7]
  85:.\Generated_Source\PSoC5/CySpc.c **** 
  86:.\Generated_Source\PSoC5/CySpc.c ****     CY_SPC_PM_ACT_REG  |= PM_SPC_PM_EN;
  62              		.loc 1 86 0
  63 000e 44F2A033 		movw	r3, #:lower16:1073759136
  64 0012 C4F20003 		movt	r3, #:upper16:1073759136
  65 0016 44F2A032 		movw	r2, #:lower16:1073759136
  66 001a C4F20002 		movt	r2, #:upper16:1073759136
  67 001e 1278     		ldrb	r2, [r2, #0]
  68 0020 D2B2     		uxtb	r2, r2
  69 0022 42F00802 		orr	r2, r2, #8
  70 0026 D2B2     		uxtb	r2, r2
  71 0028 1A70     		strb	r2, [r3, #0]
  87:.\Generated_Source\PSoC5/CySpc.c ****     CY_SPC_PM_STBY_REG |= PM_SPC_PM_EN;
  72              		.loc 1 87 0
  73 002a 44F2B033 		movw	r3, #:lower16:1073759152
  74 002e C4F20003 		movt	r3, #:upper16:1073759152
  75 0032 44F2B032 		movw	r2, #:lower16:1073759152
  76 0036 C4F20002 		movt	r2, #:upper16:1073759152
  77 003a 1278     		ldrb	r2, [r2, #0]
  78 003c D2B2     		uxtb	r2, r2
  79 003e 42F00802 		orr	r2, r2, #8
  80 0042 D2B2     		uxtb	r2, r2
ARM GAS  C:\Users\csap2972\AppData\Local\Temp\cczsvW7p.s 			page 4


  81 0044 1A70     		strb	r2, [r3, #0]
  88:.\Generated_Source\PSoC5/CySpc.c **** 
  89:.\Generated_Source\PSoC5/CySpc.c ****     /* Restore global interrupt enable state */
  90:.\Generated_Source\PSoC5/CySpc.c ****     CyExitCriticalSection(interruptState);
  82              		.loc 1 90 0
  83 0046 FB79     		ldrb	r3, [r7, #7]	@ zero_extendqisi2
  84 0048 1846     		mov	r0, r3
  85 004a FFF7FEFF 		bl	CyExitCriticalSection
  91:.\Generated_Source\PSoC5/CySpc.c **** }
  86              		.loc 1 91 0
  87 004e 07F10807 		add	r7, r7, #8
  88 0052 BD46     		mov	sp, r7
  89 0054 80BD     		pop	{r7, pc}
  90              		.cfi_endproc
  91              	.LFE0:
  92              		.size	CySpcStart, .-CySpcStart
  93 0056 00BF     		.section	.text.CySpcStop,"ax",%progbits
  94              		.align	2
  95              		.global	CySpcStop
  96              		.thumb
  97              		.thumb_func
  98              		.type	CySpcStop, %function
  99              	CySpcStop:
 100              	.LFB1:
  92:.\Generated_Source\PSoC5/CySpc.c **** 
  93:.\Generated_Source\PSoC5/CySpc.c **** 
  94:.\Generated_Source\PSoC5/CySpc.c **** /*******************************************************************************
  95:.\Generated_Source\PSoC5/CySpc.c **** * Function Name: CySpcStop
  96:.\Generated_Source\PSoC5/CySpc.c **** ********************************************************************************
  97:.\Generated_Source\PSoC5/CySpc.c **** * Summary:
  98:.\Generated_Source\PSoC5/CySpc.c **** *  Stops the SPC.
  99:.\Generated_Source\PSoC5/CySpc.c **** *
 100:.\Generated_Source\PSoC5/CySpc.c **** * Parameters:
 101:.\Generated_Source\PSoC5/CySpc.c **** *  None
 102:.\Generated_Source\PSoC5/CySpc.c **** *
 103:.\Generated_Source\PSoC5/CySpc.c **** * Return:
 104:.\Generated_Source\PSoC5/CySpc.c **** *  None
 105:.\Generated_Source\PSoC5/CySpc.c **** *
 106:.\Generated_Source\PSoC5/CySpc.c **** *******************************************************************************/
 107:.\Generated_Source\PSoC5/CySpc.c **** void CySpcStop(void) 
 108:.\Generated_Source\PSoC5/CySpc.c **** {
 101              		.loc 1 108 0
 102              		.cfi_startproc
 103              		@ args = 0, pretend = 0, frame = 8
 104              		@ frame_needed = 1, uses_anonymous_args = 0
 105 0000 80B5     		push	{r7, lr}
 106              	.LCFI3:
 107              		.cfi_def_cfa_offset 8
 108 0002 82B0     		sub	sp, sp, #8
 109              	.LCFI4:
 110              		.cfi_def_cfa_offset 16
 111 0004 00AF     		add	r7, sp, #0
 112              		.cfi_offset 14, -4
 113              		.cfi_offset 7, -8
 114              	.LCFI5:
 115              		.cfi_def_cfa_register 7
 109:.\Generated_Source\PSoC5/CySpc.c ****     /* Save current global interrupt enable and disable it */
ARM GAS  C:\Users\csap2972\AppData\Local\Temp\cczsvW7p.s 			page 5


 110:.\Generated_Source\PSoC5/CySpc.c ****     uint8 interruptState = CyEnterCriticalSection();
 116              		.loc 1 110 0
 117 0006 FFF7FEFF 		bl	CyEnterCriticalSection
 118 000a 0346     		mov	r3, r0
 119 000c FB71     		strb	r3, [r7, #7]
 111:.\Generated_Source\PSoC5/CySpc.c **** 
 112:.\Generated_Source\PSoC5/CySpc.c ****     CY_SPC_PM_ACT_REG  &= ~PM_SPC_PM_EN;
 120              		.loc 1 112 0
 121 000e 44F2A033 		movw	r3, #:lower16:1073759136
 122 0012 C4F20003 		movt	r3, #:upper16:1073759136
 123 0016 44F2A032 		movw	r2, #:lower16:1073759136
 124 001a C4F20002 		movt	r2, #:upper16:1073759136
 125 001e 1278     		ldrb	r2, [r2, #0]
 126 0020 D2B2     		uxtb	r2, r2
 127 0022 02F0F702 		and	r2, r2, #247
 128 0026 1A70     		strb	r2, [r3, #0]
 113:.\Generated_Source\PSoC5/CySpc.c ****     CY_SPC_PM_STBY_REG &= ~PM_SPC_PM_EN;
 129              		.loc 1 113 0
 130 0028 44F2B033 		movw	r3, #:lower16:1073759152
 131 002c C4F20003 		movt	r3, #:upper16:1073759152
 132 0030 44F2B032 		movw	r2, #:lower16:1073759152
 133 0034 C4F20002 		movt	r2, #:upper16:1073759152
 134 0038 1278     		ldrb	r2, [r2, #0]
 135 003a D2B2     		uxtb	r2, r2
 136 003c 02F0F702 		and	r2, r2, #247
 137 0040 1A70     		strb	r2, [r3, #0]
 114:.\Generated_Source\PSoC5/CySpc.c **** 
 115:.\Generated_Source\PSoC5/CySpc.c ****     /* Restore global interrupt enable state */
 116:.\Generated_Source\PSoC5/CySpc.c ****     CyExitCriticalSection(interruptState);
 138              		.loc 1 116 0
 139 0042 FB79     		ldrb	r3, [r7, #7]	@ zero_extendqisi2
 140 0044 1846     		mov	r0, r3
 141 0046 FFF7FEFF 		bl	CyExitCriticalSection
 117:.\Generated_Source\PSoC5/CySpc.c **** }
 142              		.loc 1 117 0
 143 004a 07F10807 		add	r7, r7, #8
 144 004e BD46     		mov	sp, r7
 145 0050 80BD     		pop	{r7, pc}
 146              		.cfi_endproc
 147              	.LFE1:
 148              		.size	CySpcStop, .-CySpcStop
 149 0052 00BF     		.section	.text.CySpcReadData,"ax",%progbits
 150              		.align	2
 151              		.global	CySpcReadData
 152              		.thumb
 153              		.thumb_func
 154              		.type	CySpcReadData, %function
 155              	CySpcReadData:
 156              	.LFB2:
 118:.\Generated_Source\PSoC5/CySpc.c **** 
 119:.\Generated_Source\PSoC5/CySpc.c **** 
 120:.\Generated_Source\PSoC5/CySpc.c **** /*******************************************************************************
 121:.\Generated_Source\PSoC5/CySpc.c **** * Function Name: CySpcReadData
 122:.\Generated_Source\PSoC5/CySpc.c **** ********************************************************************************
 123:.\Generated_Source\PSoC5/CySpc.c **** * Summary:
 124:.\Generated_Source\PSoC5/CySpc.c **** *  Reads data from the SPC.
 125:.\Generated_Source\PSoC5/CySpc.c **** *
ARM GAS  C:\Users\csap2972\AppData\Local\Temp\cczsvW7p.s 			page 6


 126:.\Generated_Source\PSoC5/CySpc.c **** * Parameters:
 127:.\Generated_Source\PSoC5/CySpc.c **** *  uint8 buffer:
 128:.\Generated_Source\PSoC5/CySpc.c **** *   Address to store data read.
 129:.\Generated_Source\PSoC5/CySpc.c **** *
 130:.\Generated_Source\PSoC5/CySpc.c **** *  uint8 size:
 131:.\Generated_Source\PSoC5/CySpc.c **** *   Number of bytes to read from the SPC.
 132:.\Generated_Source\PSoC5/CySpc.c **** *
 133:.\Generated_Source\PSoC5/CySpc.c **** * Return:
 134:.\Generated_Source\PSoC5/CySpc.c **** *  uint8:
 135:.\Generated_Source\PSoC5/CySpc.c **** *   The number of bytes read from the SPC.
 136:.\Generated_Source\PSoC5/CySpc.c **** *
 137:.\Generated_Source\PSoC5/CySpc.c **** *******************************************************************************/
 138:.\Generated_Source\PSoC5/CySpc.c **** uint8 CySpcReadData(uint8 *buffer, uint8 size) 
 139:.\Generated_Source\PSoC5/CySpc.c **** {
 157              		.loc 1 139 0
 158              		.cfi_startproc
 159              		@ args = 0, pretend = 0, frame = 16
 160              		@ frame_needed = 1, uses_anonymous_args = 0
 161 0000 80B5     		push	{r7, lr}
 162              	.LCFI6:
 163              		.cfi_def_cfa_offset 8
 164 0002 84B0     		sub	sp, sp, #16
 165              	.LCFI7:
 166              		.cfi_def_cfa_offset 24
 167 0004 00AF     		add	r7, sp, #0
 168              		.cfi_offset 14, -4
 169              		.cfi_offset 7, -8
 170              	.LCFI8:
 171              		.cfi_def_cfa_register 7
 172 0006 7860     		str	r0, [r7, #4]
 173 0008 0B46     		mov	r3, r1
 174 000a FB70     		strb	r3, [r7, #3]
 140:.\Generated_Source\PSoC5/CySpc.c ****     uint8 i;
 141:.\Generated_Source\PSoC5/CySpc.c **** 
 142:.\Generated_Source\PSoC5/CySpc.c ****     for(i = 0u; i < size; i++)
 175              		.loc 1 142 0
 176 000c 4FF00003 		mov	r3, #0
 177 0010 FB73     		strb	r3, [r7, #15]
 178 0012 1DE0     		b	.L6
 179              	.L8:
 143:.\Generated_Source\PSoC5/CySpc.c ****     {
 144:.\Generated_Source\PSoC5/CySpc.c ****         while(!CY_SPC_DATA_READY)
 145:.\Generated_Source\PSoC5/CySpc.c ****         {
 146:.\Generated_Source\PSoC5/CySpc.c ****             CyDelayUs(1u);
 180              		.loc 1 146 0
 181 0014 4FF00100 		mov	r0, #1
 182 0018 FFF7FEFF 		bl	CyDelayUs
 183 001c 00E0     		b	.L7
 184              	.L11:
 185              		.loc 1 144 0
 186 001e 00BF     		nop
 187              	.L7:
 188 0020 44F22273 		movw	r3, #:lower16:1073760034
 189 0024 C4F20003 		movt	r3, #:upper16:1073760034
 190 0028 1B78     		ldrb	r3, [r3, #0]
 191 002a DBB2     		uxtb	r3, r3
 192 002c 03F00103 		and	r3, r3, #1
ARM GAS  C:\Users\csap2972\AppData\Local\Temp\cczsvW7p.s 			page 7


 193 0030 002B     		cmp	r3, #0
 194 0032 EFD0     		beq	.L8
 147:.\Generated_Source\PSoC5/CySpc.c ****         }
 148:.\Generated_Source\PSoC5/CySpc.c ****         buffer[i] = CY_SPC_CPU_DATA_REG;
 195              		.loc 1 148 0
 196 0034 FA7B     		ldrb	r2, [r7, #15]	@ zero_extendqisi2
 197 0036 7B68     		ldr	r3, [r7, #4]
 198 0038 1A44     		add	r2, r2, r3
 199 003a 44F22073 		movw	r3, #:lower16:1073760032
 200 003e C4F20003 		movt	r3, #:upper16:1073760032
 201 0042 1B78     		ldrb	r3, [r3, #0]
 202 0044 DBB2     		uxtb	r3, r3
 203 0046 1370     		strb	r3, [r2, #0]
 204              		.loc 1 142 0
 205 0048 FB7B     		ldrb	r3, [r7, #15]
 206 004a 03F10103 		add	r3, r3, #1
 207 004e FB73     		strb	r3, [r7, #15]
 208              	.L6:
 209 0050 FA7B     		ldrb	r2, [r7, #15]	@ zero_extendqisi2
 210 0052 FB78     		ldrb	r3, [r7, #3]	@ zero_extendqisi2
 211 0054 9A42     		cmp	r2, r3
 212 0056 E2D3     		bcc	.L11
 149:.\Generated_Source\PSoC5/CySpc.c ****     }
 150:.\Generated_Source\PSoC5/CySpc.c **** 
 151:.\Generated_Source\PSoC5/CySpc.c ****     return(i);
 213              		.loc 1 151 0
 214 0058 FB7B     		ldrb	r3, [r7, #15]	@ zero_extendqisi2
 152:.\Generated_Source\PSoC5/CySpc.c **** }
 215              		.loc 1 152 0
 216 005a 1846     		mov	r0, r3
 217 005c 07F11007 		add	r7, r7, #16
 218 0060 BD46     		mov	sp, r7
 219 0062 80BD     		pop	{r7, pc}
 220              		.cfi_endproc
 221              	.LFE2:
 222              		.size	CySpcReadData, .-CySpcReadData
 223              		.section	.text.CySpcLoadMultiByte,"ax",%progbits
 224              		.align	2
 225              		.global	CySpcLoadMultiByte
 226              		.thumb
 227              		.thumb_func
 228              		.type	CySpcLoadMultiByte, %function
 229              	CySpcLoadMultiByte:
 230              	.LFB3:
 153:.\Generated_Source\PSoC5/CySpc.c **** 
 154:.\Generated_Source\PSoC5/CySpc.c **** 
 155:.\Generated_Source\PSoC5/CySpc.c **** /*******************************************************************************
 156:.\Generated_Source\PSoC5/CySpc.c **** * Function Name: CySpcLoadMultiByte
 157:.\Generated_Source\PSoC5/CySpc.c **** ********************************************************************************
 158:.\Generated_Source\PSoC5/CySpc.c **** * Summary:
 159:.\Generated_Source\PSoC5/CySpc.c **** *  Loads 1 to 32 bytes of data into the row latch of a Flash/EEPROM array.
 160:.\Generated_Source\PSoC5/CySpc.c **** *
 161:.\Generated_Source\PSoC5/CySpc.c **** * Parameters:
 162:.\Generated_Source\PSoC5/CySpc.c **** *  uint8 array:
 163:.\Generated_Source\PSoC5/CySpc.c **** *   Id of the array.
 164:.\Generated_Source\PSoC5/CySpc.c **** *
 165:.\Generated_Source\PSoC5/CySpc.c **** *  uint16 address:
ARM GAS  C:\Users\csap2972\AppData\Local\Temp\cczsvW7p.s 			page 8


 166:.\Generated_Source\PSoC5/CySpc.c **** *   Flash/eeprom addrress
 167:.\Generated_Source\PSoC5/CySpc.c **** *
 168:.\Generated_Source\PSoC5/CySpc.c **** *  uint8* buffer:
 169:.\Generated_Source\PSoC5/CySpc.c **** *   Data to load to the row latch
 170:.\Generated_Source\PSoC5/CySpc.c **** *
 171:.\Generated_Source\PSoC5/CySpc.c **** *  uint16 number:
 172:.\Generated_Source\PSoC5/CySpc.c **** *   Number bytes to load.
 173:.\Generated_Source\PSoC5/CySpc.c **** *
 174:.\Generated_Source\PSoC5/CySpc.c **** * Return:
 175:.\Generated_Source\PSoC5/CySpc.c **** *  CYRET_STARTED
 176:.\Generated_Source\PSoC5/CySpc.c **** *  CYRET_CANCELED
 177:.\Generated_Source\PSoC5/CySpc.c **** *  CYRET_LOCKED
 178:.\Generated_Source\PSoC5/CySpc.c **** *  CYRET_BAD_PARAM
 179:.\Generated_Source\PSoC5/CySpc.c **** *
 180:.\Generated_Source\PSoC5/CySpc.c **** *******************************************************************************/
 181:.\Generated_Source\PSoC5/CySpc.c **** cystatus CySpcLoadMultiByte(uint8 array, uint16 address, const uint8* buffer, uint8 size) 
 182:.\Generated_Source\PSoC5/CySpc.c **** {
 231              		.loc 1 182 0
 232              		.cfi_startproc
 233              		@ args = 0, pretend = 0, frame = 24
 234              		@ frame_needed = 1, uses_anonymous_args = 0
 235              		@ link register save eliminated.
 236 0000 80B4     		push	{r7}
 237              	.LCFI9:
 238              		.cfi_def_cfa_offset 4
 239 0002 87B0     		sub	sp, sp, #28
 240              	.LCFI10:
 241              		.cfi_def_cfa_offset 32
 242 0004 00AF     		add	r7, sp, #0
 243              		.cfi_offset 7, -4
 244              	.LCFI11:
 245              		.cfi_def_cfa_register 7
 246 0006 BA60     		str	r2, [r7, #8]
 247 0008 0246     		mov	r2, r0
 248 000a FA73     		strb	r2, [r7, #15]
 249 000c 0A46     		mov	r2, r1	@ movhi
 250 000e BA81     		strh	r2, [r7, #12]	@ movhi
 251 0010 FB71     		strb	r3, [r7, #7]
 183:.\Generated_Source\PSoC5/CySpc.c ****     cystatus status = CYRET_STARTED;
 252              		.loc 1 183 0
 253 0012 4FF00703 		mov	r3, #7
 254 0016 3B61     		str	r3, [r7, #16]
 184:.\Generated_Source\PSoC5/CySpc.c ****     uint8 i;
 185:.\Generated_Source\PSoC5/CySpc.c **** 
 186:.\Generated_Source\PSoC5/CySpc.c ****     /***************************************************************************
 187:.\Generated_Source\PSoC5/CySpc.c ****     * Check if number is correct for array. Number must be less than
 188:.\Generated_Source\PSoC5/CySpc.c ****     * 32 for Flash or less than 16 for EEPROM.
 189:.\Generated_Source\PSoC5/CySpc.c ****     ***************************************************************************/
 190:.\Generated_Source\PSoC5/CySpc.c ****     if(((array < CY_SPC_LAST_FLASH_ARRAYID) && (size < 32)) ||
 255              		.loc 1 190 0
 256 0018 FB7B     		ldrb	r3, [r7, #15]	@ zero_extendqisi2
 257 001a 3E2B     		cmp	r3, #62
 258 001c 02D8     		bhi	.L13
 259 001e FB79     		ldrb	r3, [r7, #7]	@ zero_extendqisi2
 260 0020 1F2B     		cmp	r3, #31
 261 0022 05D9     		bls	.L14
 262              	.L13:
ARM GAS  C:\Users\csap2972\AppData\Local\Temp\cczsvW7p.s 			page 9


 263 0024 FB7B     		ldrb	r3, [r7, #15]	@ zero_extendqisi2
 264 0026 3F2B     		cmp	r3, #63
 265 0028 6BD9     		bls	.L15
 266 002a FB79     		ldrb	r3, [r7, #7]	@ zero_extendqisi2
 267 002c 0F2B     		cmp	r3, #15
 268 002e 68D8     		bhi	.L15
 269              	.L14:
 191:.\Generated_Source\PSoC5/CySpc.c ****        ((array > CY_SPC_LAST_FLASH_ARRAYID) && (size < 16)))
 192:.\Generated_Source\PSoC5/CySpc.c ****     {
 193:.\Generated_Source\PSoC5/CySpc.c ****         if(CY_SPC_IDLE)
 270              		.loc 1 193 0
 271 0030 44F22273 		movw	r3, #:lower16:1073760034
 272 0034 C4F20003 		movt	r3, #:upper16:1073760034
 273 0038 1B78     		ldrb	r3, [r3, #0]
 274 003a DBB2     		uxtb	r3, r3
 275 003c 03F00203 		and	r3, r3, #2
 276 0040 002B     		cmp	r3, #0
 277 0042 5AD0     		beq	.L16
 194:.\Generated_Source\PSoC5/CySpc.c ****         {
 195:.\Generated_Source\PSoC5/CySpc.c ****             CY_SPC_CPU_DATA_REG = CY_SPC_KEY_ONE;
 278              		.loc 1 195 0
 279 0044 44F22073 		movw	r3, #:lower16:1073760032
 280 0048 C4F20003 		movt	r3, #:upper16:1073760032
 281 004c 6FF04902 		mvn	r2, #73
 282 0050 1A70     		strb	r2, [r3, #0]
 196:.\Generated_Source\PSoC5/CySpc.c ****             CY_SPC_CPU_DATA_REG = CY_SPC_KEY_TWO(CY_SPC_CMD_LD_MULTI_BYTE);
 283              		.loc 1 196 0
 284 0052 44F22073 		movw	r3, #:lower16:1073760032
 285 0056 C4F20003 		movt	r3, #:upper16:1073760032
 286 005a 6FF02B02 		mvn	r2, #43
 287 005e 1A70     		strb	r2, [r3, #0]
 197:.\Generated_Source\PSoC5/CySpc.c ****             CY_SPC_CPU_DATA_REG = CY_SPC_CMD_LD_MULTI_BYTE;
 288              		.loc 1 197 0
 289 0060 44F22073 		movw	r3, #:lower16:1073760032
 290 0064 C4F20003 		movt	r3, #:upper16:1073760032
 291 0068 4FF00102 		mov	r2, #1
 292 006c 1A70     		strb	r2, [r3, #0]
 198:.\Generated_Source\PSoC5/CySpc.c **** 
 199:.\Generated_Source\PSoC5/CySpc.c ****             if(CY_SPC_BUSY)
 293              		.loc 1 199 0
 294 006e 44F22273 		movw	r3, #:lower16:1073760034
 295 0072 C4F20003 		movt	r3, #:upper16:1073760034
 296 0076 1B78     		ldrb	r3, [r3, #0]
 297 0078 DBB2     		uxtb	r3, r3
 298 007a 03F00203 		and	r3, r3, #2
 299 007e 002B     		cmp	r3, #0
 300 0080 37D1     		bne	.L17
 200:.\Generated_Source\PSoC5/CySpc.c ****             {
 201:.\Generated_Source\PSoC5/CySpc.c ****                 CY_SPC_CPU_DATA_REG = array;
 301              		.loc 1 201 0
 302 0082 44F22073 		movw	r3, #:lower16:1073760032
 303 0086 C4F20003 		movt	r3, #:upper16:1073760032
 304 008a FA7B     		ldrb	r2, [r7, #15]
 305 008c 1A70     		strb	r2, [r3, #0]
 202:.\Generated_Source\PSoC5/CySpc.c ****                 CY_SPC_CPU_DATA_REG = 1u & HI8(address);
 306              		.loc 1 202 0
 307 008e 44F22073 		movw	r3, #:lower16:1073760032
ARM GAS  C:\Users\csap2972\AppData\Local\Temp\cczsvW7p.s 			page 10


 308 0092 C4F20003 		movt	r3, #:upper16:1073760032
 309 0096 BA89     		ldrh	r2, [r7, #12]
 310 0098 4FEA1222 		lsr	r2, r2, #8
 311 009c 92B2     		uxth	r2, r2
 312 009e D2B2     		uxtb	r2, r2
 313 00a0 02F00102 		and	r2, r2, #1
 314 00a4 1A70     		strb	r2, [r3, #0]
 203:.\Generated_Source\PSoC5/CySpc.c ****                 CY_SPC_CPU_DATA_REG = LO8(address);
 315              		.loc 1 203 0
 316 00a6 44F22073 		movw	r3, #:lower16:1073760032
 317 00aa C4F20003 		movt	r3, #:upper16:1073760032
 318 00ae BA89     		ldrh	r2, [r7, #12]	@ movhi
 319 00b0 D2B2     		uxtb	r2, r2
 320 00b2 1A70     		strb	r2, [r3, #0]
 204:.\Generated_Source\PSoC5/CySpc.c ****                 CY_SPC_CPU_DATA_REG = size - 1u;
 321              		.loc 1 204 0
 322 00b4 44F22073 		movw	r3, #:lower16:1073760032
 323 00b8 C4F20003 		movt	r3, #:upper16:1073760032
 324 00bc FA79     		ldrb	r2, [r7, #7]
 325 00be 02F1FF32 		add	r2, r2, #-1
 326 00c2 D2B2     		uxtb	r2, r2
 327 00c4 1A70     		strb	r2, [r3, #0]
 205:.\Generated_Source\PSoC5/CySpc.c **** 
 206:.\Generated_Source\PSoC5/CySpc.c ****                 for(i = 0u; i < size; i++)
 328              		.loc 1 206 0
 329 00c6 4FF00003 		mov	r3, #0
 330 00ca FB75     		strb	r3, [r7, #23]
 331 00cc 0CE0     		b	.L18
 332              	.L19:
 207:.\Generated_Source\PSoC5/CySpc.c ****                 {
 208:.\Generated_Source\PSoC5/CySpc.c ****                     CY_SPC_CPU_DATA_REG = buffer[i];
 333              		.loc 1 208 0
 334 00ce 44F22073 		movw	r3, #:lower16:1073760032
 335 00d2 C4F20003 		movt	r3, #:upper16:1073760032
 336 00d6 F97D     		ldrb	r1, [r7, #23]	@ zero_extendqisi2
 337 00d8 BA68     		ldr	r2, [r7, #8]
 338 00da 0A44     		add	r2, r1, r2
 339 00dc 1278     		ldrb	r2, [r2, #0]	@ zero_extendqisi2
 340 00de 1A70     		strb	r2, [r3, #0]
 341              		.loc 1 206 0
 342 00e0 FB7D     		ldrb	r3, [r7, #23]
 343 00e2 03F10103 		add	r3, r3, #1
 344 00e6 FB75     		strb	r3, [r7, #23]
 345              	.L18:
 346 00e8 FA7D     		ldrb	r2, [r7, #23]	@ zero_extendqisi2
 347 00ea FB79     		ldrb	r3, [r7, #7]	@ zero_extendqisi2
 348 00ec 9A42     		cmp	r2, r3
 349 00ee EED3     		bcc	.L19
 350              		.loc 1 190 0
 351 00f0 0AE0     		b	.L22
 352              	.L17:
 209:.\Generated_Source\PSoC5/CySpc.c ****                 }
 210:.\Generated_Source\PSoC5/CySpc.c ****             }
 211:.\Generated_Source\PSoC5/CySpc.c ****             else
 212:.\Generated_Source\PSoC5/CySpc.c ****             {
 213:.\Generated_Source\PSoC5/CySpc.c ****                 status = CYRET_CANCELED;
 353              		.loc 1 213 0
ARM GAS  C:\Users\csap2972\AppData\Local\Temp\cczsvW7p.s 			page 11


 354 00f2 4FF00903 		mov	r3, #9
 355 00f6 3B61     		str	r3, [r7, #16]
 356              		.loc 1 190 0
 357 00f8 06E0     		b	.L22
 358              	.L16:
 214:.\Generated_Source\PSoC5/CySpc.c ****             }
 215:.\Generated_Source\PSoC5/CySpc.c ****         }
 216:.\Generated_Source\PSoC5/CySpc.c ****         else
 217:.\Generated_Source\PSoC5/CySpc.c ****         {
 218:.\Generated_Source\PSoC5/CySpc.c ****             status = CYRET_LOCKED;
 359              		.loc 1 218 0
 360 00fa 4FF00403 		mov	r3, #4
 361 00fe 3B61     		str	r3, [r7, #16]
 362              		.loc 1 190 0
 363 0100 02E0     		b	.L22
 364              	.L15:
 219:.\Generated_Source\PSoC5/CySpc.c ****         }
 220:.\Generated_Source\PSoC5/CySpc.c ****     }
 221:.\Generated_Source\PSoC5/CySpc.c ****     else
 222:.\Generated_Source\PSoC5/CySpc.c ****     {
 223:.\Generated_Source\PSoC5/CySpc.c ****         status = CYRET_BAD_PARAM;
 365              		.loc 1 223 0
 366 0102 4FF00103 		mov	r3, #1
 367 0106 3B61     		str	r3, [r7, #16]
 368              	.L22:
 224:.\Generated_Source\PSoC5/CySpc.c ****     }
 225:.\Generated_Source\PSoC5/CySpc.c **** 
 226:.\Generated_Source\PSoC5/CySpc.c ****     return(status);
 369              		.loc 1 226 0
 370 0108 3B69     		ldr	r3, [r7, #16]
 227:.\Generated_Source\PSoC5/CySpc.c **** }
 371              		.loc 1 227 0
 372 010a 1846     		mov	r0, r3
 373 010c 07F11C07 		add	r7, r7, #28
 374 0110 BD46     		mov	sp, r7
 375 0112 80BC     		pop	{r7}
 376 0114 7047     		bx	lr
 377              		.cfi_endproc
 378              	.LFE3:
 379              		.size	CySpcLoadMultiByte, .-CySpcLoadMultiByte
 380 0116 00BF     		.section	.text.CySpcLoadRow,"ax",%progbits
 381              		.align	2
 382              		.global	CySpcLoadRow
 383              		.thumb
 384              		.thumb_func
 385              		.type	CySpcLoadRow, %function
 386              	CySpcLoadRow:
 387              	.LFB4:
 228:.\Generated_Source\PSoC5/CySpc.c **** 
 229:.\Generated_Source\PSoC5/CySpc.c **** 
 230:.\Generated_Source\PSoC5/CySpc.c **** /*******************************************************************************
 231:.\Generated_Source\PSoC5/CySpc.c **** * Function Name: CySpcLoadRow
 232:.\Generated_Source\PSoC5/CySpc.c **** ********************************************************************************
 233:.\Generated_Source\PSoC5/CySpc.c **** * Summary:
 234:.\Generated_Source\PSoC5/CySpc.c **** *  Loads a row of data into the row latch of a Flash/EEPROM array.
 235:.\Generated_Source\PSoC5/CySpc.c **** *
 236:.\Generated_Source\PSoC5/CySpc.c **** * Parameters:
ARM GAS  C:\Users\csap2972\AppData\Local\Temp\cczsvW7p.s 			page 12


 237:.\Generated_Source\PSoC5/CySpc.c **** *  uint8 array:
 238:.\Generated_Source\PSoC5/CySpc.c **** *   Id of the array.
 239:.\Generated_Source\PSoC5/CySpc.c **** *
 240:.\Generated_Source\PSoC5/CySpc.c **** *  uint8* buffer:
 241:.\Generated_Source\PSoC5/CySpc.c **** *   Data to be loaded to the row latch
 242:.\Generated_Source\PSoC5/CySpc.c **** *
 243:.\Generated_Source\PSoC5/CySpc.c **** *  uint8 size:
 244:.\Generated_Source\PSoC5/CySpc.c **** *   The number of data bytes that the SPC expects to be written. Depends on the
 245:.\Generated_Source\PSoC5/CySpc.c **** *   type of the array and, if the array is Flash, whether ECC is being enabled
 246:.\Generated_Source\PSoC5/CySpc.c **** *   or not. There are following values: flash row latch size with ECC enabled,
 247:.\Generated_Source\PSoC5/CySpc.c **** *   flash row latch size with ECC disabled and EEPROM row latch size.
 248:.\Generated_Source\PSoC5/CySpc.c **** *
 249:.\Generated_Source\PSoC5/CySpc.c **** * Return:
 250:.\Generated_Source\PSoC5/CySpc.c **** *  CYRET_STARTED
 251:.\Generated_Source\PSoC5/CySpc.c **** *  CYRET_CANCELED
 252:.\Generated_Source\PSoC5/CySpc.c **** *  CYRET_LOCKED
 253:.\Generated_Source\PSoC5/CySpc.c **** *
 254:.\Generated_Source\PSoC5/CySpc.c **** *******************************************************************************/
 255:.\Generated_Source\PSoC5/CySpc.c **** cystatus CySpcLoadRow(uint8 array, const uint8* buffer, uint16 size)
 256:.\Generated_Source\PSoC5/CySpc.c **** {
 388              		.loc 1 256 0
 389              		.cfi_startproc
 390              		@ args = 0, pretend = 0, frame = 24
 391              		@ frame_needed = 1, uses_anonymous_args = 0
 392              		@ link register save eliminated.
 393 0000 80B4     		push	{r7}
 394              	.LCFI12:
 395              		.cfi_def_cfa_offset 4
 396 0002 87B0     		sub	sp, sp, #28
 397              	.LCFI13:
 398              		.cfi_def_cfa_offset 32
 399 0004 00AF     		add	r7, sp, #0
 400              		.cfi_offset 7, -4
 401              	.LCFI14:
 402              		.cfi_def_cfa_register 7
 403 0006 B960     		str	r1, [r7, #8]
 404 0008 1346     		mov	r3, r2
 405 000a 0246     		mov	r2, r0
 406 000c FA73     		strb	r2, [r7, #15]
 407 000e FB80     		strh	r3, [r7, #6]	@ movhi
 257:.\Generated_Source\PSoC5/CySpc.c ****     cystatus status = CYRET_STARTED;
 408              		.loc 1 257 0
 409 0010 4FF00703 		mov	r3, #7
 410 0014 3B61     		str	r3, [r7, #16]
 258:.\Generated_Source\PSoC5/CySpc.c ****     uint16 i;
 259:.\Generated_Source\PSoC5/CySpc.c **** 
 260:.\Generated_Source\PSoC5/CySpc.c ****     /* Make sure the SPC is ready to accept command */
 261:.\Generated_Source\PSoC5/CySpc.c ****     if(CY_SPC_IDLE)
 411              		.loc 1 261 0
 412 0016 44F22273 		movw	r3, #:lower16:1073760034
 413 001a C4F20003 		movt	r3, #:upper16:1073760034
 414 001e 1B78     		ldrb	r3, [r3, #0]
 415 0020 DBB2     		uxtb	r3, r3
 416 0022 03F00203 		and	r3, r3, #2
 417 0026 002B     		cmp	r3, #0
 418 0028 3ED0     		beq	.L25
 262:.\Generated_Source\PSoC5/CySpc.c ****     {
ARM GAS  C:\Users\csap2972\AppData\Local\Temp\cczsvW7p.s 			page 13


 263:.\Generated_Source\PSoC5/CySpc.c ****         CY_SPC_CPU_DATA_REG = CY_SPC_KEY_ONE;
 419              		.loc 1 263 0
 420 002a 44F22073 		movw	r3, #:lower16:1073760032
 421 002e C4F20003 		movt	r3, #:upper16:1073760032
 422 0032 6FF04902 		mvn	r2, #73
 423 0036 1A70     		strb	r2, [r3, #0]
 264:.\Generated_Source\PSoC5/CySpc.c ****         CY_SPC_CPU_DATA_REG = CY_SPC_KEY_TWO(CY_SPC_CMD_LD_ROW);
 424              		.loc 1 264 0
 425 0038 44F22073 		movw	r3, #:lower16:1073760032
 426 003c C4F20003 		movt	r3, #:upper16:1073760032
 427 0040 6FF02A02 		mvn	r2, #42
 428 0044 1A70     		strb	r2, [r3, #0]
 265:.\Generated_Source\PSoC5/CySpc.c ****         CY_SPC_CPU_DATA_REG = CY_SPC_CMD_LD_ROW;
 429              		.loc 1 265 0
 430 0046 44F22073 		movw	r3, #:lower16:1073760032
 431 004a C4F20003 		movt	r3, #:upper16:1073760032
 432 004e 4FF00202 		mov	r2, #2
 433 0052 1A70     		strb	r2, [r3, #0]
 266:.\Generated_Source\PSoC5/CySpc.c **** 
 267:.\Generated_Source\PSoC5/CySpc.c ****         /* Make sure the command was accepted */
 268:.\Generated_Source\PSoC5/CySpc.c ****         if(CY_SPC_BUSY)
 434              		.loc 1 268 0
 435 0054 44F22273 		movw	r3, #:lower16:1073760034
 436 0058 C4F20003 		movt	r3, #:upper16:1073760034
 437 005c 1B78     		ldrb	r3, [r3, #0]
 438 005e DBB2     		uxtb	r3, r3
 439 0060 03F00203 		and	r3, r3, #2
 440 0064 002B     		cmp	r3, #0
 441 0066 1BD1     		bne	.L26
 269:.\Generated_Source\PSoC5/CySpc.c ****         {
 270:.\Generated_Source\PSoC5/CySpc.c ****             CY_SPC_CPU_DATA_REG = array;
 442              		.loc 1 270 0
 443 0068 44F22073 		movw	r3, #:lower16:1073760032
 444 006c C4F20003 		movt	r3, #:upper16:1073760032
 445 0070 FA7B     		ldrb	r2, [r7, #15]
 446 0072 1A70     		strb	r2, [r3, #0]
 271:.\Generated_Source\PSoC5/CySpc.c **** 
 272:.\Generated_Source\PSoC5/CySpc.c ****             for(i = 0u; i < size; i++)
 447              		.loc 1 272 0
 448 0074 4FF00003 		mov	r3, #0
 449 0078 FB82     		strh	r3, [r7, #22]	@ movhi
 450 007a 0CE0     		b	.L27
 451              	.L28:
 273:.\Generated_Source\PSoC5/CySpc.c ****             {
 274:.\Generated_Source\PSoC5/CySpc.c ****                 CY_SPC_CPU_DATA_REG = buffer[i];
 452              		.loc 1 274 0
 453 007c 44F22073 		movw	r3, #:lower16:1073760032
 454 0080 C4F20003 		movt	r3, #:upper16:1073760032
 455 0084 F98A     		ldrh	r1, [r7, #22]
 456 0086 BA68     		ldr	r2, [r7, #8]
 457 0088 0A44     		add	r2, r1, r2
 458 008a 1278     		ldrb	r2, [r2, #0]	@ zero_extendqisi2
 459 008c 1A70     		strb	r2, [r3, #0]
 460              		.loc 1 272 0
 461 008e FB8A     		ldrh	r3, [r7, #22]	@ movhi
 462 0090 03F10103 		add	r3, r3, #1
 463 0094 FB82     		strh	r3, [r7, #22]	@ movhi
ARM GAS  C:\Users\csap2972\AppData\Local\Temp\cczsvW7p.s 			page 14


 464              	.L27:
 465 0096 FA8A     		ldrh	r2, [r7, #22]
 466 0098 FB88     		ldrh	r3, [r7, #6]
 467 009a 9A42     		cmp	r2, r3
 468 009c EED3     		bcc	.L28
 275:.\Generated_Source\PSoC5/CySpc.c ****             }
 276:.\Generated_Source\PSoC5/CySpc.c ****         }
 277:.\Generated_Source\PSoC5/CySpc.c ****         else
 278:.\Generated_Source\PSoC5/CySpc.c ****         {
 279:.\Generated_Source\PSoC5/CySpc.c ****             status = CYRET_CANCELED;
 469              		.loc 1 279 0
 470 009e 06E0     		b	.L30
 471              	.L26:
 472 00a0 4FF00903 		mov	r3, #9
 473 00a4 3B61     		str	r3, [r7, #16]
 474 00a6 02E0     		b	.L30
 475              	.L25:
 280:.\Generated_Source\PSoC5/CySpc.c ****         }
 281:.\Generated_Source\PSoC5/CySpc.c ****     }
 282:.\Generated_Source\PSoC5/CySpc.c ****     else
 283:.\Generated_Source\PSoC5/CySpc.c ****     {
 284:.\Generated_Source\PSoC5/CySpc.c ****         status = CYRET_LOCKED;
 476              		.loc 1 284 0
 477 00a8 4FF00403 		mov	r3, #4
 478 00ac 3B61     		str	r3, [r7, #16]
 479              	.L30:
 285:.\Generated_Source\PSoC5/CySpc.c ****     }
 286:.\Generated_Source\PSoC5/CySpc.c **** 
 287:.\Generated_Source\PSoC5/CySpc.c ****     return(status);
 480              		.loc 1 287 0
 481 00ae 3B69     		ldr	r3, [r7, #16]
 288:.\Generated_Source\PSoC5/CySpc.c **** }
 482              		.loc 1 288 0
 483 00b0 1846     		mov	r0, r3
 484 00b2 07F11C07 		add	r7, r7, #28
 485 00b6 BD46     		mov	sp, r7
 486 00b8 80BC     		pop	{r7}
 487 00ba 7047     		bx	lr
 488              		.cfi_endproc
 489              	.LFE4:
 490              		.size	CySpcLoadRow, .-CySpcLoadRow
 491              		.section	.text.CySpcReadMultiByte,"ax",%progbits
 492              		.align	2
 493              		.global	CySpcReadMultiByte
 494              		.thumb
 495              		.thumb_func
 496              		.type	CySpcReadMultiByte, %function
 497              	CySpcReadMultiByte:
 498              	.LFB5:
 289:.\Generated_Source\PSoC5/CySpc.c **** 
 290:.\Generated_Source\PSoC5/CySpc.c **** 
 291:.\Generated_Source\PSoC5/CySpc.c **** /*******************************************************************************
 292:.\Generated_Source\PSoC5/CySpc.c **** * Function Name: CySpcReadMultiByte
 293:.\Generated_Source\PSoC5/CySpc.c **** ********************************************************************************
 294:.\Generated_Source\PSoC5/CySpc.c **** * Summary:
 295:.\Generated_Source\PSoC5/CySpc.c **** *  Returns 1 to 256 bytes from user space of Flash/EEPROM. Doesn't span row
 296:.\Generated_Source\PSoC5/CySpc.c **** *  boundaries.
ARM GAS  C:\Users\csap2972\AppData\Local\Temp\cczsvW7p.s 			page 15


 297:.\Generated_Source\PSoC5/CySpc.c **** *
 298:.\Generated_Source\PSoC5/CySpc.c **** * Parameters:
 299:.\Generated_Source\PSoC5/CySpc.c **** *  uint8 array:
 300:.\Generated_Source\PSoC5/CySpc.c **** *   Id of the array.
 301:.\Generated_Source\PSoC5/CySpc.c **** *
 302:.\Generated_Source\PSoC5/CySpc.c **** *  uint8 ecc:
 303:.\Generated_Source\PSoC5/CySpc.c **** *   0x80 if reading ecc data.
 304:.\Generated_Source\PSoC5/CySpc.c **** *   0x00 if user data.
 305:.\Generated_Source\PSoC5/CySpc.c **** *
 306:.\Generated_Source\PSoC5/CySpc.c **** *  uint16 address:
 307:.\Generated_Source\PSoC5/CySpc.c **** *   Flash addrress.
 308:.\Generated_Source\PSoC5/CySpc.c **** *
 309:.\Generated_Source\PSoC5/CySpc.c **** *  uint8 size:
 310:.\Generated_Source\PSoC5/CySpc.c **** *   Number bytes to load.
 311:.\Generated_Source\PSoC5/CySpc.c **** *
 312:.\Generated_Source\PSoC5/CySpc.c **** * Return:
 313:.\Generated_Source\PSoC5/CySpc.c **** *  CYRET_STARTED
 314:.\Generated_Source\PSoC5/CySpc.c **** *  CYRET_CANCELED
 315:.\Generated_Source\PSoC5/CySpc.c **** *  CYRET_LOCKED
 316:.\Generated_Source\PSoC5/CySpc.c **** *
 317:.\Generated_Source\PSoC5/CySpc.c **** *******************************************************************************/
 318:.\Generated_Source\PSoC5/CySpc.c **** cystatus CySpcReadMultiByte(uint8 array, uint8 ecc, uint16 address, uint8 size)
 319:.\Generated_Source\PSoC5/CySpc.c **** {
 499              		.loc 1 319 0
 500              		.cfi_startproc
 501              		@ args = 0, pretend = 0, frame = 16
 502              		@ frame_needed = 1, uses_anonymous_args = 0
 503              		@ link register save eliminated.
 504 0000 80B4     		push	{r7}
 505              	.LCFI15:
 506              		.cfi_def_cfa_offset 4
 507 0002 85B0     		sub	sp, sp, #20
 508              	.LCFI16:
 509              		.cfi_def_cfa_offset 24
 510 0004 00AF     		add	r7, sp, #0
 511              		.cfi_offset 7, -4
 512              	.LCFI17:
 513              		.cfi_def_cfa_register 7
 514 0006 F871     		strb	r0, [r7, #7]
 515 0008 B971     		strb	r1, [r7, #6]
 516 000a BA80     		strh	r2, [r7, #4]	@ movhi
 517 000c FB70     		strb	r3, [r7, #3]
 320:.\Generated_Source\PSoC5/CySpc.c ****     cystatus status = CYRET_STARTED;
 518              		.loc 1 320 0
 519 000e 4FF00703 		mov	r3, #7
 520 0012 FB60     		str	r3, [r7, #12]
 321:.\Generated_Source\PSoC5/CySpc.c **** 
 322:.\Generated_Source\PSoC5/CySpc.c ****     /* Make sure the SPC is ready to accept command */
 323:.\Generated_Source\PSoC5/CySpc.c ****     if(CY_SPC_IDLE)
 521              		.loc 1 323 0
 522 0014 44F22273 		movw	r3, #:lower16:1073760034
 523 0018 C4F20003 		movt	r3, #:upper16:1073760034
 524 001c 1B78     		ldrb	r3, [r3, #0]
 525 001e DBB2     		uxtb	r3, r3
 526 0020 03F00203 		and	r3, r3, #2
 527 0024 002B     		cmp	r3, #0
 528 0026 49D0     		beq	.L33
ARM GAS  C:\Users\csap2972\AppData\Local\Temp\cczsvW7p.s 			page 16


 324:.\Generated_Source\PSoC5/CySpc.c ****     {
 325:.\Generated_Source\PSoC5/CySpc.c ****         CY_SPC_CPU_DATA_REG = CY_SPC_KEY_ONE;
 529              		.loc 1 325 0
 530 0028 44F22073 		movw	r3, #:lower16:1073760032
 531 002c C4F20003 		movt	r3, #:upper16:1073760032
 532 0030 6FF04902 		mvn	r2, #73
 533 0034 1A70     		strb	r2, [r3, #0]
 326:.\Generated_Source\PSoC5/CySpc.c ****         CY_SPC_CPU_DATA_REG = CY_SPC_KEY_TWO(CY_SPC_CMD_RD_MULTI_BYTE);
 534              		.loc 1 326 0
 535 0036 44F22073 		movw	r3, #:lower16:1073760032
 536 003a C4F20003 		movt	r3, #:upper16:1073760032
 537 003e 6FF02802 		mvn	r2, #40
 538 0042 1A70     		strb	r2, [r3, #0]
 327:.\Generated_Source\PSoC5/CySpc.c ****         CY_SPC_CPU_DATA_REG = CY_SPC_CMD_RD_MULTI_BYTE;
 539              		.loc 1 327 0
 540 0044 44F22073 		movw	r3, #:lower16:1073760032
 541 0048 C4F20003 		movt	r3, #:upper16:1073760032
 542 004c 4FF00402 		mov	r2, #4
 543 0050 1A70     		strb	r2, [r3, #0]
 328:.\Generated_Source\PSoC5/CySpc.c **** 
 329:.\Generated_Source\PSoC5/CySpc.c ****         /* Make sure the command was accepted */
 330:.\Generated_Source\PSoC5/CySpc.c ****         if(CY_SPC_BUSY)
 544              		.loc 1 330 0
 545 0052 44F22273 		movw	r3, #:lower16:1073760034
 546 0056 C4F20003 		movt	r3, #:upper16:1073760034
 547 005a 1B78     		ldrb	r3, [r3, #0]
 548 005c DBB2     		uxtb	r3, r3
 549 005e 03F00203 		and	r3, r3, #2
 550 0062 002B     		cmp	r3, #0
 551 0064 26D1     		bne	.L34
 331:.\Generated_Source\PSoC5/CySpc.c ****         {
 332:.\Generated_Source\PSoC5/CySpc.c ****             CY_SPC_CPU_DATA_REG = array;
 552              		.loc 1 332 0
 553 0066 44F22073 		movw	r3, #:lower16:1073760032
 554 006a C4F20003 		movt	r3, #:upper16:1073760032
 555 006e FA79     		ldrb	r2, [r7, #7]
 556 0070 1A70     		strb	r2, [r3, #0]
 333:.\Generated_Source\PSoC5/CySpc.c ****             CY_SPC_CPU_DATA_REG = ecc;
 557              		.loc 1 333 0
 558 0072 44F22073 		movw	r3, #:lower16:1073760032
 559 0076 C4F20003 		movt	r3, #:upper16:1073760032
 560 007a BA79     		ldrb	r2, [r7, #6]
 561 007c 1A70     		strb	r2, [r3, #0]
 334:.\Generated_Source\PSoC5/CySpc.c ****             CY_SPC_CPU_DATA_REG = HI8(address);
 562              		.loc 1 334 0
 563 007e 44F22073 		movw	r3, #:lower16:1073760032
 564 0082 C4F20003 		movt	r3, #:upper16:1073760032
 565 0086 BA88     		ldrh	r2, [r7, #4]
 566 0088 4FEA1222 		lsr	r2, r2, #8
 567 008c 92B2     		uxth	r2, r2
 568 008e D2B2     		uxtb	r2, r2
 569 0090 1A70     		strb	r2, [r3, #0]
 335:.\Generated_Source\PSoC5/CySpc.c ****             CY_SPC_CPU_DATA_REG = LO8(address);
 570              		.loc 1 335 0
 571 0092 44F22073 		movw	r3, #:lower16:1073760032
 572 0096 C4F20003 		movt	r3, #:upper16:1073760032
 573 009a BA88     		ldrh	r2, [r7, #4]	@ movhi
ARM GAS  C:\Users\csap2972\AppData\Local\Temp\cczsvW7p.s 			page 17


 574 009c D2B2     		uxtb	r2, r2
 575 009e 1A70     		strb	r2, [r3, #0]
 336:.\Generated_Source\PSoC5/CySpc.c ****             CY_SPC_CPU_DATA_REG = size - 1;
 576              		.loc 1 336 0
 577 00a0 44F22073 		movw	r3, #:lower16:1073760032
 578 00a4 C4F20003 		movt	r3, #:upper16:1073760032
 579 00a8 FA78     		ldrb	r2, [r7, #3]
 580 00aa 02F1FF32 		add	r2, r2, #-1
 581 00ae D2B2     		uxtb	r2, r2
 582 00b0 1A70     		strb	r2, [r3, #0]
 337:.\Generated_Source\PSoC5/CySpc.c ****         }
 338:.\Generated_Source\PSoC5/CySpc.c ****         else
 339:.\Generated_Source\PSoC5/CySpc.c ****         {
 340:.\Generated_Source\PSoC5/CySpc.c ****             status = CYRET_CANCELED;
 583              		.loc 1 340 0
 584 00b2 06E0     		b	.L36
 585              	.L34:
 586 00b4 4FF00903 		mov	r3, #9
 587 00b8 FB60     		str	r3, [r7, #12]
 588 00ba 02E0     		b	.L36
 589              	.L33:
 341:.\Generated_Source\PSoC5/CySpc.c ****         }
 342:.\Generated_Source\PSoC5/CySpc.c ****     }
 343:.\Generated_Source\PSoC5/CySpc.c ****     else
 344:.\Generated_Source\PSoC5/CySpc.c ****     {
 345:.\Generated_Source\PSoC5/CySpc.c ****         status = CYRET_LOCKED;
 590              		.loc 1 345 0
 591 00bc 4FF00403 		mov	r3, #4
 592 00c0 FB60     		str	r3, [r7, #12]
 593              	.L36:
 346:.\Generated_Source\PSoC5/CySpc.c ****     }
 347:.\Generated_Source\PSoC5/CySpc.c **** 
 348:.\Generated_Source\PSoC5/CySpc.c ****     return(status);
 594              		.loc 1 348 0
 595 00c2 FB68     		ldr	r3, [r7, #12]
 349:.\Generated_Source\PSoC5/CySpc.c **** }
 596              		.loc 1 349 0
 597 00c4 1846     		mov	r0, r3
 598 00c6 07F11407 		add	r7, r7, #20
 599 00ca BD46     		mov	sp, r7
 600 00cc 80BC     		pop	{r7}
 601 00ce 7047     		bx	lr
 602              		.cfi_endproc
 603              	.LFE5:
 604              		.size	CySpcReadMultiByte, .-CySpcReadMultiByte
 605              		.section	.text.CySpcWriteRow,"ax",%progbits
 606              		.align	2
 607              		.global	CySpcWriteRow
 608              		.thumb
 609              		.thumb_func
 610              		.type	CySpcWriteRow, %function
 611              	CySpcWriteRow:
 612              	.LFB6:
 350:.\Generated_Source\PSoC5/CySpc.c **** 
 351:.\Generated_Source\PSoC5/CySpc.c **** 
 352:.\Generated_Source\PSoC5/CySpc.c **** /*******************************************************************************
 353:.\Generated_Source\PSoC5/CySpc.c **** * Function Name: CySpcWriteRow
ARM GAS  C:\Users\csap2972\AppData\Local\Temp\cczsvW7p.s 			page 18


 354:.\Generated_Source\PSoC5/CySpc.c **** ********************************************************************************
 355:.\Generated_Source\PSoC5/CySpc.c **** * Summary:
 356:.\Generated_Source\PSoC5/CySpc.c **** *  Erases then programs a row in Flash/EEPROM with data in row latch.
 357:.\Generated_Source\PSoC5/CySpc.c **** *
 358:.\Generated_Source\PSoC5/CySpc.c **** * Parameters:
 359:.\Generated_Source\PSoC5/CySpc.c **** *  uint8 array:
 360:.\Generated_Source\PSoC5/CySpc.c **** *   Id of the array.
 361:.\Generated_Source\PSoC5/CySpc.c **** *
 362:.\Generated_Source\PSoC5/CySpc.c **** *  uint16 address:
 363:.\Generated_Source\PSoC5/CySpc.c **** *   flash/eeprom addrress
 364:.\Generated_Source\PSoC5/CySpc.c **** *
 365:.\Generated_Source\PSoC5/CySpc.c **** *  uint8 tempPolarity:
 366:.\Generated_Source\PSoC5/CySpc.c **** *   temperature polarity.
 367:.\Generated_Source\PSoC5/CySpc.c **** *   1: the Temp Magnitude is interpreted as a positive value
 368:.\Generated_Source\PSoC5/CySpc.c **** *   0: the Temp Magnitude is interpreted as a negative value
 369:.\Generated_Source\PSoC5/CySpc.c **** *
 370:.\Generated_Source\PSoC5/CySpc.c **** *  uint8 tempMagnitude:
 371:.\Generated_Source\PSoC5/CySpc.c **** *   temperature magnitude.
 372:.\Generated_Source\PSoC5/CySpc.c **** *
 373:.\Generated_Source\PSoC5/CySpc.c **** * Return:
 374:.\Generated_Source\PSoC5/CySpc.c **** *  CYRET_STARTED
 375:.\Generated_Source\PSoC5/CySpc.c **** *  CYRET_CANCELED
 376:.\Generated_Source\PSoC5/CySpc.c **** *  CYRET_LOCKED
 377:.\Generated_Source\PSoC5/CySpc.c **** *
 378:.\Generated_Source\PSoC5/CySpc.c **** *******************************************************************************/
 379:.\Generated_Source\PSoC5/CySpc.c **** cystatus CySpcWriteRow(uint8 array, uint16 address, uint8 tempPolarity, uint8 tempMagnitude)
 380:.\Generated_Source\PSoC5/CySpc.c **** {
 613              		.loc 1 380 0
 614              		.cfi_startproc
 615              		@ args = 0, pretend = 0, frame = 16
 616              		@ frame_needed = 1, uses_anonymous_args = 0
 617              		@ link register save eliminated.
 618 0000 80B4     		push	{r7}
 619              	.LCFI18:
 620              		.cfi_def_cfa_offset 4
 621 0002 85B0     		sub	sp, sp, #20
 622              	.LCFI19:
 623              		.cfi_def_cfa_offset 24
 624 0004 00AF     		add	r7, sp, #0
 625              		.cfi_offset 7, -4
 626              	.LCFI20:
 627              		.cfi_def_cfa_register 7
 628 0006 F871     		strb	r0, [r7, #7]
 629 0008 B980     		strh	r1, [r7, #4]	@ movhi
 630 000a FA70     		strb	r2, [r7, #3]
 631 000c BB70     		strb	r3, [r7, #2]
 381:.\Generated_Source\PSoC5/CySpc.c ****     cystatus status = CYRET_STARTED;
 632              		.loc 1 381 0
 633 000e 4FF00703 		mov	r3, #7
 634 0012 FB60     		str	r3, [r7, #12]
 382:.\Generated_Source\PSoC5/CySpc.c **** 
 383:.\Generated_Source\PSoC5/CySpc.c ****     /* Make sure the SPC is ready to accept command */
 384:.\Generated_Source\PSoC5/CySpc.c ****     if(CY_SPC_IDLE)
 635              		.loc 1 384 0
 636 0014 44F22273 		movw	r3, #:lower16:1073760034
 637 0018 C4F20003 		movt	r3, #:upper16:1073760034
 638 001c 1B78     		ldrb	r3, [r3, #0]
ARM GAS  C:\Users\csap2972\AppData\Local\Temp\cczsvW7p.s 			page 19


 639 001e DBB2     		uxtb	r3, r3
 640 0020 03F00203 		and	r3, r3, #2
 641 0024 002B     		cmp	r3, #0
 642 0026 46D0     		beq	.L39
 385:.\Generated_Source\PSoC5/CySpc.c ****     {
 386:.\Generated_Source\PSoC5/CySpc.c ****         CY_SPC_CPU_DATA_REG = CY_SPC_KEY_ONE;
 643              		.loc 1 386 0
 644 0028 44F22073 		movw	r3, #:lower16:1073760032
 645 002c C4F20003 		movt	r3, #:upper16:1073760032
 646 0030 6FF04902 		mvn	r2, #73
 647 0034 1A70     		strb	r2, [r3, #0]
 387:.\Generated_Source\PSoC5/CySpc.c ****         CY_SPC_CPU_DATA_REG = CY_SPC_KEY_TWO(CY_SPC_CMD_WR_ROW);
 648              		.loc 1 387 0
 649 0036 44F22073 		movw	r3, #:lower16:1073760032
 650 003a C4F20003 		movt	r3, #:upper16:1073760032
 651 003e 6FF02702 		mvn	r2, #39
 652 0042 1A70     		strb	r2, [r3, #0]
 388:.\Generated_Source\PSoC5/CySpc.c ****         CY_SPC_CPU_DATA_REG = CY_SPC_CMD_WR_ROW;
 653              		.loc 1 388 0
 654 0044 44F22073 		movw	r3, #:lower16:1073760032
 655 0048 C4F20003 		movt	r3, #:upper16:1073760032
 656 004c 4FF00502 		mov	r2, #5
 657 0050 1A70     		strb	r2, [r3, #0]
 389:.\Generated_Source\PSoC5/CySpc.c **** 
 390:.\Generated_Source\PSoC5/CySpc.c ****         /* Make sure the command was accepted */
 391:.\Generated_Source\PSoC5/CySpc.c ****         if(CY_SPC_BUSY)
 658              		.loc 1 391 0
 659 0052 44F22273 		movw	r3, #:lower16:1073760034
 660 0056 C4F20003 		movt	r3, #:upper16:1073760034
 661 005a 1B78     		ldrb	r3, [r3, #0]
 662 005c DBB2     		uxtb	r3, r3
 663 005e 03F00203 		and	r3, r3, #2
 664 0062 002B     		cmp	r3, #0
 665 0064 23D1     		bne	.L40
 392:.\Generated_Source\PSoC5/CySpc.c ****         {
 393:.\Generated_Source\PSoC5/CySpc.c ****             CY_SPC_CPU_DATA_REG = array;
 666              		.loc 1 393 0
 667 0066 44F22073 		movw	r3, #:lower16:1073760032
 668 006a C4F20003 		movt	r3, #:upper16:1073760032
 669 006e FA79     		ldrb	r2, [r7, #7]
 670 0070 1A70     		strb	r2, [r3, #0]
 394:.\Generated_Source\PSoC5/CySpc.c ****             CY_SPC_CPU_DATA_REG = HI8(address);
 671              		.loc 1 394 0
 672 0072 44F22073 		movw	r3, #:lower16:1073760032
 673 0076 C4F20003 		movt	r3, #:upper16:1073760032
 674 007a BA88     		ldrh	r2, [r7, #4]
 675 007c 4FEA1222 		lsr	r2, r2, #8
 676 0080 92B2     		uxth	r2, r2
 677 0082 D2B2     		uxtb	r2, r2
 678 0084 1A70     		strb	r2, [r3, #0]
 395:.\Generated_Source\PSoC5/CySpc.c ****             CY_SPC_CPU_DATA_REG = LO8(address);
 679              		.loc 1 395 0
 680 0086 44F22073 		movw	r3, #:lower16:1073760032
 681 008a C4F20003 		movt	r3, #:upper16:1073760032
 682 008e BA88     		ldrh	r2, [r7, #4]	@ movhi
 683 0090 D2B2     		uxtb	r2, r2
 684 0092 1A70     		strb	r2, [r3, #0]
ARM GAS  C:\Users\csap2972\AppData\Local\Temp\cczsvW7p.s 			page 20


 396:.\Generated_Source\PSoC5/CySpc.c ****             CY_SPC_CPU_DATA_REG = tempPolarity;
 685              		.loc 1 396 0
 686 0094 44F22073 		movw	r3, #:lower16:1073760032
 687 0098 C4F20003 		movt	r3, #:upper16:1073760032
 688 009c FA78     		ldrb	r2, [r7, #3]
 689 009e 1A70     		strb	r2, [r3, #0]
 397:.\Generated_Source\PSoC5/CySpc.c ****             CY_SPC_CPU_DATA_REG = tempMagnitude;
 690              		.loc 1 397 0
 691 00a0 44F22073 		movw	r3, #:lower16:1073760032
 692 00a4 C4F20003 		movt	r3, #:upper16:1073760032
 693 00a8 BA78     		ldrb	r2, [r7, #2]
 694 00aa 1A70     		strb	r2, [r3, #0]
 398:.\Generated_Source\PSoC5/CySpc.c ****         }
 399:.\Generated_Source\PSoC5/CySpc.c ****         else
 400:.\Generated_Source\PSoC5/CySpc.c ****         {
 401:.\Generated_Source\PSoC5/CySpc.c ****             status = CYRET_CANCELED;
 695              		.loc 1 401 0
 696 00ac 06E0     		b	.L42
 697              	.L40:
 698 00ae 4FF00903 		mov	r3, #9
 699 00b2 FB60     		str	r3, [r7, #12]
 700 00b4 02E0     		b	.L42
 701              	.L39:
 402:.\Generated_Source\PSoC5/CySpc.c ****         }
 403:.\Generated_Source\PSoC5/CySpc.c ****     }
 404:.\Generated_Source\PSoC5/CySpc.c ****     else
 405:.\Generated_Source\PSoC5/CySpc.c ****     {
 406:.\Generated_Source\PSoC5/CySpc.c ****         status = CYRET_LOCKED;
 702              		.loc 1 406 0
 703 00b6 4FF00403 		mov	r3, #4
 704 00ba FB60     		str	r3, [r7, #12]
 705              	.L42:
 407:.\Generated_Source\PSoC5/CySpc.c ****     }
 408:.\Generated_Source\PSoC5/CySpc.c **** 
 409:.\Generated_Source\PSoC5/CySpc.c ****     return(status);
 706              		.loc 1 409 0
 707 00bc FB68     		ldr	r3, [r7, #12]
 410:.\Generated_Source\PSoC5/CySpc.c **** }
 708              		.loc 1 410 0
 709 00be 1846     		mov	r0, r3
 710 00c0 07F11407 		add	r7, r7, #20
 711 00c4 BD46     		mov	sp, r7
 712 00c6 80BC     		pop	{r7}
 713 00c8 7047     		bx	lr
 714              		.cfi_endproc
 715              	.LFE6:
 716              		.size	CySpcWriteRow, .-CySpcWriteRow
 717 00ca 00BF     		.section	.text.CySpcProgramRow,"ax",%progbits
 718              		.align	2
 719              		.global	CySpcProgramRow
 720              		.thumb
 721              		.thumb_func
 722              		.type	CySpcProgramRow, %function
 723              	CySpcProgramRow:
 724              	.LFB7:
 411:.\Generated_Source\PSoC5/CySpc.c **** 
 412:.\Generated_Source\PSoC5/CySpc.c **** 
ARM GAS  C:\Users\csap2972\AppData\Local\Temp\cczsvW7p.s 			page 21


 413:.\Generated_Source\PSoC5/CySpc.c **** /*******************************************************************************
 414:.\Generated_Source\PSoC5/CySpc.c **** * Function Name: CySpcProgramRow
 415:.\Generated_Source\PSoC5/CySpc.c **** ********************************************************************************
 416:.\Generated_Source\PSoC5/CySpc.c **** * Summary:
 417:.\Generated_Source\PSoC5/CySpc.c **** *  Programs a row in Flash/EEPROM with the data in the row latch.
 418:.\Generated_Source\PSoC5/CySpc.c **** *
 419:.\Generated_Source\PSoC5/CySpc.c **** * Parameters:
 420:.\Generated_Source\PSoC5/CySpc.c **** *  uint8 array:
 421:.\Generated_Source\PSoC5/CySpc.c **** *   Id of the array.
 422:.\Generated_Source\PSoC5/CySpc.c **** *
 423:.\Generated_Source\PSoC5/CySpc.c **** *  uint16 address:
 424:.\Generated_Source\PSoC5/CySpc.c **** *   Flash/eeprom addrress
 425:.\Generated_Source\PSoC5/CySpc.c **** *
 426:.\Generated_Source\PSoC5/CySpc.c **** * Return:
 427:.\Generated_Source\PSoC5/CySpc.c **** *  CYRET_STARTED
 428:.\Generated_Source\PSoC5/CySpc.c **** *  CYRET_CANCELED
 429:.\Generated_Source\PSoC5/CySpc.c **** *  CYRET_LOCKED
 430:.\Generated_Source\PSoC5/CySpc.c **** *
 431:.\Generated_Source\PSoC5/CySpc.c **** *******************************************************************************/
 432:.\Generated_Source\PSoC5/CySpc.c **** cystatus CySpcProgramRow(uint8 array, uint16 address, uint8 tempPolarity, uint8 tempMagnitude)
 433:.\Generated_Source\PSoC5/CySpc.c **** {
 725              		.loc 1 433 0
 726              		.cfi_startproc
 727              		@ args = 0, pretend = 0, frame = 16
 728              		@ frame_needed = 1, uses_anonymous_args = 0
 729              		@ link register save eliminated.
 730 0000 80B4     		push	{r7}
 731              	.LCFI21:
 732              		.cfi_def_cfa_offset 4
 733 0002 85B0     		sub	sp, sp, #20
 734              	.LCFI22:
 735              		.cfi_def_cfa_offset 24
 736 0004 00AF     		add	r7, sp, #0
 737              		.cfi_offset 7, -4
 738              	.LCFI23:
 739              		.cfi_def_cfa_register 7
 740 0006 F871     		strb	r0, [r7, #7]
 741 0008 B980     		strh	r1, [r7, #4]	@ movhi
 742 000a FA70     		strb	r2, [r7, #3]
 743 000c BB70     		strb	r3, [r7, #2]
 434:.\Generated_Source\PSoC5/CySpc.c ****     cystatus status = CYRET_STARTED;
 744              		.loc 1 434 0
 745 000e 4FF00703 		mov	r3, #7
 746 0012 FB60     		str	r3, [r7, #12]
 435:.\Generated_Source\PSoC5/CySpc.c **** 
 436:.\Generated_Source\PSoC5/CySpc.c ****     /* Make sure the SPC is ready to accept command */
 437:.\Generated_Source\PSoC5/CySpc.c ****     if(CY_SPC_IDLE)
 747              		.loc 1 437 0
 748 0014 44F22273 		movw	r3, #:lower16:1073760034
 749 0018 C4F20003 		movt	r3, #:upper16:1073760034
 750 001c 1B78     		ldrb	r3, [r3, #0]
 751 001e DBB2     		uxtb	r3, r3
 752 0020 03F00203 		and	r3, r3, #2
 753 0024 002B     		cmp	r3, #0
 754 0026 46D0     		beq	.L45
 438:.\Generated_Source\PSoC5/CySpc.c ****     {
 439:.\Generated_Source\PSoC5/CySpc.c ****         CY_SPC_CPU_DATA_REG = CY_SPC_KEY_ONE;
ARM GAS  C:\Users\csap2972\AppData\Local\Temp\cczsvW7p.s 			page 22


 755              		.loc 1 439 0
 756 0028 44F22073 		movw	r3, #:lower16:1073760032
 757 002c C4F20003 		movt	r3, #:upper16:1073760032
 758 0030 6FF04902 		mvn	r2, #73
 759 0034 1A70     		strb	r2, [r3, #0]
 440:.\Generated_Source\PSoC5/CySpc.c ****         CY_SPC_CPU_DATA_REG = CY_SPC_KEY_TWO(CY_SPC_CMD_PRG_ROW);
 760              		.loc 1 440 0
 761 0036 44F22073 		movw	r3, #:lower16:1073760032
 762 003a C4F20003 		movt	r3, #:upper16:1073760032
 763 003e 6FF02502 		mvn	r2, #37
 764 0042 1A70     		strb	r2, [r3, #0]
 441:.\Generated_Source\PSoC5/CySpc.c ****         CY_SPC_CPU_DATA_REG = CY_SPC_CMD_PRG_ROW;
 765              		.loc 1 441 0
 766 0044 44F22073 		movw	r3, #:lower16:1073760032
 767 0048 C4F20003 		movt	r3, #:upper16:1073760032
 768 004c 4FF00702 		mov	r2, #7
 769 0050 1A70     		strb	r2, [r3, #0]
 442:.\Generated_Source\PSoC5/CySpc.c **** 
 443:.\Generated_Source\PSoC5/CySpc.c ****         /* Make sure the command was accepted */
 444:.\Generated_Source\PSoC5/CySpc.c ****         if(CY_SPC_BUSY)
 770              		.loc 1 444 0
 771 0052 44F22273 		movw	r3, #:lower16:1073760034
 772 0056 C4F20003 		movt	r3, #:upper16:1073760034
 773 005a 1B78     		ldrb	r3, [r3, #0]
 774 005c DBB2     		uxtb	r3, r3
 775 005e 03F00203 		and	r3, r3, #2
 776 0062 002B     		cmp	r3, #0
 777 0064 23D1     		bne	.L46
 445:.\Generated_Source\PSoC5/CySpc.c ****         {
 446:.\Generated_Source\PSoC5/CySpc.c ****             CY_SPC_CPU_DATA_REG = array;
 778              		.loc 1 446 0
 779 0066 44F22073 		movw	r3, #:lower16:1073760032
 780 006a C4F20003 		movt	r3, #:upper16:1073760032
 781 006e FA79     		ldrb	r2, [r7, #7]
 782 0070 1A70     		strb	r2, [r3, #0]
 447:.\Generated_Source\PSoC5/CySpc.c ****             CY_SPC_CPU_DATA_REG = HI8(address);
 783              		.loc 1 447 0
 784 0072 44F22073 		movw	r3, #:lower16:1073760032
 785 0076 C4F20003 		movt	r3, #:upper16:1073760032
 786 007a BA88     		ldrh	r2, [r7, #4]
 787 007c 4FEA1222 		lsr	r2, r2, #8
 788 0080 92B2     		uxth	r2, r2
 789 0082 D2B2     		uxtb	r2, r2
 790 0084 1A70     		strb	r2, [r3, #0]
 448:.\Generated_Source\PSoC5/CySpc.c ****             CY_SPC_CPU_DATA_REG = LO8(address);
 791              		.loc 1 448 0
 792 0086 44F22073 		movw	r3, #:lower16:1073760032
 793 008a C4F20003 		movt	r3, #:upper16:1073760032
 794 008e BA88     		ldrh	r2, [r7, #4]	@ movhi
 795 0090 D2B2     		uxtb	r2, r2
 796 0092 1A70     		strb	r2, [r3, #0]
 449:.\Generated_Source\PSoC5/CySpc.c ****             CY_SPC_CPU_DATA_REG = tempPolarity;
 797              		.loc 1 449 0
 798 0094 44F22073 		movw	r3, #:lower16:1073760032
 799 0098 C4F20003 		movt	r3, #:upper16:1073760032
 800 009c FA78     		ldrb	r2, [r7, #3]
 801 009e 1A70     		strb	r2, [r3, #0]
ARM GAS  C:\Users\csap2972\AppData\Local\Temp\cczsvW7p.s 			page 23


 450:.\Generated_Source\PSoC5/CySpc.c ****             CY_SPC_CPU_DATA_REG = tempMagnitude;
 802              		.loc 1 450 0
 803 00a0 44F22073 		movw	r3, #:lower16:1073760032
 804 00a4 C4F20003 		movt	r3, #:upper16:1073760032
 805 00a8 BA78     		ldrb	r2, [r7, #2]
 806 00aa 1A70     		strb	r2, [r3, #0]
 451:.\Generated_Source\PSoC5/CySpc.c ****         }
 452:.\Generated_Source\PSoC5/CySpc.c ****         else
 453:.\Generated_Source\PSoC5/CySpc.c ****         {
 454:.\Generated_Source\PSoC5/CySpc.c ****             status = CYRET_CANCELED;
 807              		.loc 1 454 0
 808 00ac 06E0     		b	.L48
 809              	.L46:
 810 00ae 4FF00903 		mov	r3, #9
 811 00b2 FB60     		str	r3, [r7, #12]
 812 00b4 02E0     		b	.L48
 813              	.L45:
 455:.\Generated_Source\PSoC5/CySpc.c ****         }
 456:.\Generated_Source\PSoC5/CySpc.c ****     }
 457:.\Generated_Source\PSoC5/CySpc.c ****     else
 458:.\Generated_Source\PSoC5/CySpc.c ****     {
 459:.\Generated_Source\PSoC5/CySpc.c ****         status = CYRET_LOCKED;
 814              		.loc 1 459 0
 815 00b6 4FF00403 		mov	r3, #4
 816 00ba FB60     		str	r3, [r7, #12]
 817              	.L48:
 460:.\Generated_Source\PSoC5/CySpc.c ****     }
 461:.\Generated_Source\PSoC5/CySpc.c **** 
 462:.\Generated_Source\PSoC5/CySpc.c ****     return(status);
 818              		.loc 1 462 0
 819 00bc FB68     		ldr	r3, [r7, #12]
 463:.\Generated_Source\PSoC5/CySpc.c **** }
 820              		.loc 1 463 0
 821 00be 1846     		mov	r0, r3
 822 00c0 07F11407 		add	r7, r7, #20
 823 00c4 BD46     		mov	sp, r7
 824 00c6 80BC     		pop	{r7}
 825 00c8 7047     		bx	lr
 826              		.cfi_endproc
 827              	.LFE7:
 828              		.size	CySpcProgramRow, .-CySpcProgramRow
 829 00ca 00BF     		.section	.text.CySpcEraseSector,"ax",%progbits
 830              		.align	2
 831              		.global	CySpcEraseSector
 832              		.thumb
 833              		.thumb_func
 834              		.type	CySpcEraseSector, %function
 835              	CySpcEraseSector:
 836              	.LFB8:
 464:.\Generated_Source\PSoC5/CySpc.c **** 
 465:.\Generated_Source\PSoC5/CySpc.c **** 
 466:.\Generated_Source\PSoC5/CySpc.c **** /*******************************************************************************
 467:.\Generated_Source\PSoC5/CySpc.c **** * Function Name: CySpcEraseSector
 468:.\Generated_Source\PSoC5/CySpc.c **** ********************************************************************************
 469:.\Generated_Source\PSoC5/CySpc.c **** * Summary:
 470:.\Generated_Source\PSoC5/CySpc.c **** *  Erases all data in the addressed sector (block of 64 rows).
 471:.\Generated_Source\PSoC5/CySpc.c **** *
ARM GAS  C:\Users\csap2972\AppData\Local\Temp\cczsvW7p.s 			page 24


 472:.\Generated_Source\PSoC5/CySpc.c **** * Parameters:
 473:.\Generated_Source\PSoC5/CySpc.c **** *  uint8 array:
 474:.\Generated_Source\PSoC5/CySpc.c **** *   Id of the array.
 475:.\Generated_Source\PSoC5/CySpc.c **** *
 476:.\Generated_Source\PSoC5/CySpc.c **** *  uint16 address:
 477:.\Generated_Source\PSoC5/CySpc.c **** *   Flash/eeprom addrress
 478:.\Generated_Source\PSoC5/CySpc.c **** *
 479:.\Generated_Source\PSoC5/CySpc.c **** * Return:
 480:.\Generated_Source\PSoC5/CySpc.c **** *  CYRET_STARTED
 481:.\Generated_Source\PSoC5/CySpc.c **** *  CYRET_CANCELED
 482:.\Generated_Source\PSoC5/CySpc.c **** *  CYRET_LOCKED
 483:.\Generated_Source\PSoC5/CySpc.c **** *
 484:.\Generated_Source\PSoC5/CySpc.c **** *******************************************************************************/
 485:.\Generated_Source\PSoC5/CySpc.c **** cystatus CySpcEraseSector(uint8 array, uint16 address)
 486:.\Generated_Source\PSoC5/CySpc.c **** {
 837              		.loc 1 486 0
 838              		.cfi_startproc
 839              		@ args = 0, pretend = 0, frame = 16
 840              		@ frame_needed = 1, uses_anonymous_args = 0
 841              		@ link register save eliminated.
 842 0000 80B4     		push	{r7}
 843              	.LCFI24:
 844              		.cfi_def_cfa_offset 4
 845 0002 85B0     		sub	sp, sp, #20
 846              	.LCFI25:
 847              		.cfi_def_cfa_offset 24
 848 0004 00AF     		add	r7, sp, #0
 849              		.cfi_offset 7, -4
 850              	.LCFI26:
 851              		.cfi_def_cfa_register 7
 852 0006 0246     		mov	r2, r0
 853 0008 0B46     		mov	r3, r1
 854 000a FA71     		strb	r2, [r7, #7]
 855 000c BB80     		strh	r3, [r7, #4]	@ movhi
 487:.\Generated_Source\PSoC5/CySpc.c ****     cystatus status = CYRET_STARTED;
 856              		.loc 1 487 0
 857 000e 4FF00703 		mov	r3, #7
 858 0012 FB60     		str	r3, [r7, #12]
 488:.\Generated_Source\PSoC5/CySpc.c **** 
 489:.\Generated_Source\PSoC5/CySpc.c ****     /* Make sure the SPC is ready to accept command */
 490:.\Generated_Source\PSoC5/CySpc.c ****     if(CY_SPC_IDLE)
 859              		.loc 1 490 0
 860 0014 44F22273 		movw	r3, #:lower16:1073760034
 861 0018 C4F20003 		movt	r3, #:upper16:1073760034
 862 001c 1B78     		ldrb	r3, [r3, #0]
 863 001e DBB2     		uxtb	r3, r3
 864 0020 03F00203 		and	r3, r3, #2
 865 0024 002B     		cmp	r3, #0
 866 0026 3DD0     		beq	.L51
 491:.\Generated_Source\PSoC5/CySpc.c ****     {
 492:.\Generated_Source\PSoC5/CySpc.c ****         CY_SPC_CPU_DATA_REG = CY_SPC_KEY_ONE;
 867              		.loc 1 492 0
 868 0028 44F22073 		movw	r3, #:lower16:1073760032
 869 002c C4F20003 		movt	r3, #:upper16:1073760032
 870 0030 6FF04902 		mvn	r2, #73
 871 0034 1A70     		strb	r2, [r3, #0]
 493:.\Generated_Source\PSoC5/CySpc.c ****         CY_SPC_CPU_DATA_REG = CY_SPC_KEY_TWO(CY_SPC_CMD_ER_SECTOR);
ARM GAS  C:\Users\csap2972\AppData\Local\Temp\cczsvW7p.s 			page 25


 872              		.loc 1 493 0
 873 0036 44F22073 		movw	r3, #:lower16:1073760032
 874 003a C4F20003 		movt	r3, #:upper16:1073760032
 875 003e 6FF02402 		mvn	r2, #36
 876 0042 1A70     		strb	r2, [r3, #0]
 494:.\Generated_Source\PSoC5/CySpc.c ****         CY_SPC_CPU_DATA_REG = CY_SPC_CMD_ER_SECTOR;
 877              		.loc 1 494 0
 878 0044 44F22073 		movw	r3, #:lower16:1073760032
 879 0048 C4F20003 		movt	r3, #:upper16:1073760032
 880 004c 4FF00802 		mov	r2, #8
 881 0050 1A70     		strb	r2, [r3, #0]
 495:.\Generated_Source\PSoC5/CySpc.c **** 
 496:.\Generated_Source\PSoC5/CySpc.c ****         /* Make sure the command was accepted */
 497:.\Generated_Source\PSoC5/CySpc.c ****         if(CY_SPC_BUSY)
 882              		.loc 1 497 0
 883 0052 44F22273 		movw	r3, #:lower16:1073760034
 884 0056 C4F20003 		movt	r3, #:upper16:1073760034
 885 005a 1B78     		ldrb	r3, [r3, #0]
 886 005c DBB2     		uxtb	r3, r3
 887 005e 03F00203 		and	r3, r3, #2
 888 0062 002B     		cmp	r3, #0
 889 0064 1AD1     		bne	.L52
 498:.\Generated_Source\PSoC5/CySpc.c ****         {
 499:.\Generated_Source\PSoC5/CySpc.c ****             CY_SPC_CPU_DATA_REG = array;
 890              		.loc 1 499 0
 891 0066 44F22073 		movw	r3, #:lower16:1073760032
 892 006a C4F20003 		movt	r3, #:upper16:1073760032
 893 006e FA79     		ldrb	r2, [r7, #7]
 894 0070 1A70     		strb	r2, [r3, #0]
 500:.\Generated_Source\PSoC5/CySpc.c **** 
 501:.\Generated_Source\PSoC5/CySpc.c ****             if(array < CY_SPC_LAST_FLASH_ARRAYID)
 895              		.loc 1 501 0
 896 0072 FB79     		ldrb	r3, [r7, #7]	@ zero_extendqisi2
 897 0074 3E2B     		cmp	r3, #62
 898 0076 07D8     		bhi	.L53
 502:.\Generated_Source\PSoC5/CySpc.c ****             {
 503:.\Generated_Source\PSoC5/CySpc.c ****                 CY_SPC_CPU_DATA_REG = CY_SPC_FLASH_SECTOR_ADDRES(address);
 899              		.loc 1 503 0
 900 0078 44F22073 		movw	r3, #:lower16:1073760032
 901 007c C4F20003 		movt	r3, #:upper16:1073760032
 902 0080 BA88     		ldrh	r2, [r7, #4]	@ movhi
 903 0082 D2B2     		uxtb	r2, r2
 904 0084 1A70     		strb	r2, [r3, #0]
 504:.\Generated_Source\PSoC5/CySpc.c ****             }
 505:.\Generated_Source\PSoC5/CySpc.c ****             else
 506:.\Generated_Source\PSoC5/CySpc.c ****             {
 507:.\Generated_Source\PSoC5/CySpc.c ****                 CY_SPC_CPU_DATA_REG = CY_SPC_EEPROM_SECTOR_ADDRESS(address);
 508:.\Generated_Source\PSoC5/CySpc.c ****             }
 509:.\Generated_Source\PSoC5/CySpc.c ****         }
 510:.\Generated_Source\PSoC5/CySpc.c ****         else
 511:.\Generated_Source\PSoC5/CySpc.c ****         {
 512:.\Generated_Source\PSoC5/CySpc.c ****             status = CYRET_CANCELED;
 905              		.loc 1 512 0
 906 0086 10E0     		b	.L56
 907              	.L53:
 908              		.loc 1 507 0
 909 0088 44F22073 		movw	r3, #:lower16:1073760032
ARM GAS  C:\Users\csap2972\AppData\Local\Temp\cczsvW7p.s 			page 26


 910 008c C4F20003 		movt	r3, #:upper16:1073760032
 911 0090 BA88     		ldrh	r2, [r7, #4]	@ movhi
 912 0092 D2B2     		uxtb	r2, r2
 913 0094 02F07F02 		and	r2, r2, #127
 914 0098 1A70     		strb	r2, [r3, #0]
 915              		.loc 1 512 0
 916 009a 06E0     		b	.L56
 917              	.L52:
 918 009c 4FF00903 		mov	r3, #9
 919 00a0 FB60     		str	r3, [r7, #12]
 920 00a2 02E0     		b	.L56
 921              	.L51:
 513:.\Generated_Source\PSoC5/CySpc.c ****         }
 514:.\Generated_Source\PSoC5/CySpc.c ****     }
 515:.\Generated_Source\PSoC5/CySpc.c ****     else
 516:.\Generated_Source\PSoC5/CySpc.c ****     {
 517:.\Generated_Source\PSoC5/CySpc.c ****         status = CYRET_LOCKED;
 922              		.loc 1 517 0
 923 00a4 4FF00403 		mov	r3, #4
 924 00a8 FB60     		str	r3, [r7, #12]
 925              	.L56:
 518:.\Generated_Source\PSoC5/CySpc.c ****     }
 519:.\Generated_Source\PSoC5/CySpc.c **** 
 520:.\Generated_Source\PSoC5/CySpc.c ****     return(status);
 926              		.loc 1 520 0
 927 00aa FB68     		ldr	r3, [r7, #12]
 521:.\Generated_Source\PSoC5/CySpc.c **** }
 928              		.loc 1 521 0
 929 00ac 1846     		mov	r0, r3
 930 00ae 07F11407 		add	r7, r7, #20
 931 00b2 BD46     		mov	sp, r7
 932 00b4 80BC     		pop	{r7}
 933 00b6 7047     		bx	lr
 934              		.cfi_endproc
 935              	.LFE8:
 936              		.size	CySpcEraseSector, .-CySpcEraseSector
 937              		.section	.text.CySpcGetTemp,"ax",%progbits
 938              		.align	2
 939              		.global	CySpcGetTemp
 940              		.thumb
 941              		.thumb_func
 942              		.type	CySpcGetTemp, %function
 943              	CySpcGetTemp:
 944              	.LFB9:
 522:.\Generated_Source\PSoC5/CySpc.c **** 
 523:.\Generated_Source\PSoC5/CySpc.c **** 
 524:.\Generated_Source\PSoC5/CySpc.c **** /*******************************************************************************
 525:.\Generated_Source\PSoC5/CySpc.c **** * Function Name: CySpcGetTemp
 526:.\Generated_Source\PSoC5/CySpc.c **** ********************************************************************************
 527:.\Generated_Source\PSoC5/CySpc.c **** * Summary:
 528:.\Generated_Source\PSoC5/CySpc.c **** *  Returns the internal die temperature
 529:.\Generated_Source\PSoC5/CySpc.c **** *
 530:.\Generated_Source\PSoC5/CySpc.c **** * Parameters:
 531:.\Generated_Source\PSoC5/CySpc.c **** *  uint8 numSamples:
 532:.\Generated_Source\PSoC5/CySpc.c **** *   Number of samples. Valid values are 1-5, resulting in 2 - 32 samples
 533:.\Generated_Source\PSoC5/CySpc.c **** *   respectively.
 534:.\Generated_Source\PSoC5/CySpc.c **** *
ARM GAS  C:\Users\csap2972\AppData\Local\Temp\cczsvW7p.s 			page 27


 535:.\Generated_Source\PSoC5/CySpc.c **** * uint16 timerPeriod:
 536:.\Generated_Source\PSoC5/CySpc.c **** *   Number of ADC ACLK cycles. A valid 14 bit value is accepted, higher 2 bits
 537:.\Generated_Source\PSoC5/CySpc.c **** *   of 16 bit values are ignored.
 538:.\Generated_Source\PSoC5/CySpc.c **** *
 539:.\Generated_Source\PSoC5/CySpc.c **** * uint8 clkDivSelect:
 540:.\Generated_Source\PSoC5/CySpc.c **** *   ADC ACLK clock divide value. Valid values are 2 - 225.
 541:.\Generated_Source\PSoC5/CySpc.c **** *
 542:.\Generated_Source\PSoC5/CySpc.c **** * Return:
 543:.\Generated_Source\PSoC5/CySpc.c **** *  CYRET_STARTED
 544:.\Generated_Source\PSoC5/CySpc.c **** *  CYRET_CANCELED
 545:.\Generated_Source\PSoC5/CySpc.c **** *  CYRET_LOCKED
 546:.\Generated_Source\PSoC5/CySpc.c **** *
 547:.\Generated_Source\PSoC5/CySpc.c **** *******************************************************************************/
 548:.\Generated_Source\PSoC5/CySpc.c **** #if(CY_PSOC5A)
 549:.\Generated_Source\PSoC5/CySpc.c **** cystatus CySpcGetTemp(uint8 numSamples, uint16 timerPeriod, uint8 clkDivSelect)
 550:.\Generated_Source\PSoC5/CySpc.c **** #else
 551:.\Generated_Source\PSoC5/CySpc.c **** cystatus CySpcGetTemp(uint8 numSamples)
 552:.\Generated_Source\PSoC5/CySpc.c **** #endif  /* (CY_PSOC5A) */
 553:.\Generated_Source\PSoC5/CySpc.c **** {
 945              		.loc 1 553 0
 946              		.cfi_startproc
 947              		@ args = 0, pretend = 0, frame = 16
 948              		@ frame_needed = 1, uses_anonymous_args = 0
 949              		@ link register save eliminated.
 950 0000 80B4     		push	{r7}
 951              	.LCFI27:
 952              		.cfi_def_cfa_offset 4
 953 0002 85B0     		sub	sp, sp, #20
 954              	.LCFI28:
 955              		.cfi_def_cfa_offset 24
 956 0004 00AF     		add	r7, sp, #0
 957              		.cfi_offset 7, -4
 958              	.LCFI29:
 959              		.cfi_def_cfa_register 7
 960 0006 0346     		mov	r3, r0
 961 0008 FB71     		strb	r3, [r7, #7]
 554:.\Generated_Source\PSoC5/CySpc.c ****     cystatus status = CYRET_STARTED;
 962              		.loc 1 554 0
 963 000a 4FF00703 		mov	r3, #7
 964 000e FB60     		str	r3, [r7, #12]
 555:.\Generated_Source\PSoC5/CySpc.c **** 
 556:.\Generated_Source\PSoC5/CySpc.c ****     /* Make sure the SPC is ready to accept command */
 557:.\Generated_Source\PSoC5/CySpc.c ****     if(CY_SPC_IDLE)
 965              		.loc 1 557 0
 966 0010 44F22273 		movw	r3, #:lower16:1073760034
 967 0014 C4F20003 		movt	r3, #:upper16:1073760034
 968 0018 1B78     		ldrb	r3, [r3, #0]
 969 001a DBB2     		uxtb	r3, r3
 970 001c 03F00203 		and	r3, r3, #2
 971 0020 002B     		cmp	r3, #0
 972 0022 29D0     		beq	.L59
 558:.\Generated_Source\PSoC5/CySpc.c ****     {
 559:.\Generated_Source\PSoC5/CySpc.c ****         CY_SPC_CPU_DATA_REG = CY_SPC_KEY_ONE;
 973              		.loc 1 559 0
 974 0024 44F22073 		movw	r3, #:lower16:1073760032
 975 0028 C4F20003 		movt	r3, #:upper16:1073760032
 976 002c 6FF04902 		mvn	r2, #73
ARM GAS  C:\Users\csap2972\AppData\Local\Temp\cczsvW7p.s 			page 28


 977 0030 1A70     		strb	r2, [r3, #0]
 560:.\Generated_Source\PSoC5/CySpc.c ****         CY_SPC_CPU_DATA_REG = CY_SPC_KEY_TWO(CY_SPC_CMD_GET_TEMP);
 978              		.loc 1 560 0
 979 0032 44F22073 		movw	r3, #:lower16:1073760032
 980 0036 C4F20003 		movt	r3, #:upper16:1073760032
 981 003a 6FF01E02 		mvn	r2, #30
 982 003e 1A70     		strb	r2, [r3, #0]
 561:.\Generated_Source\PSoC5/CySpc.c ****         CY_SPC_CPU_DATA_REG = CY_SPC_CMD_GET_TEMP;
 983              		.loc 1 561 0
 984 0040 44F22073 		movw	r3, #:lower16:1073760032
 985 0044 C4F20003 		movt	r3, #:upper16:1073760032
 986 0048 4FF00E02 		mov	r2, #14
 987 004c 1A70     		strb	r2, [r3, #0]
 562:.\Generated_Source\PSoC5/CySpc.c **** 
 563:.\Generated_Source\PSoC5/CySpc.c ****         /* Make sure the command was accepted */
 564:.\Generated_Source\PSoC5/CySpc.c ****         if(CY_SPC_BUSY)
 988              		.loc 1 564 0
 989 004e 44F22273 		movw	r3, #:lower16:1073760034
 990 0052 C4F20003 		movt	r3, #:upper16:1073760034
 991 0056 1B78     		ldrb	r3, [r3, #0]
 992 0058 DBB2     		uxtb	r3, r3
 993 005a 03F00203 		and	r3, r3, #2
 994 005e 002B     		cmp	r3, #0
 995 0060 06D1     		bne	.L60
 565:.\Generated_Source\PSoC5/CySpc.c ****         {
 566:.\Generated_Source\PSoC5/CySpc.c ****             CY_SPC_CPU_DATA_REG = numSamples;
 996              		.loc 1 566 0
 997 0062 44F22073 		movw	r3, #:lower16:1073760032
 998 0066 C4F20003 		movt	r3, #:upper16:1073760032
 999 006a FA79     		ldrb	r2, [r7, #7]
 1000 006c 1A70     		strb	r2, [r3, #0]
 567:.\Generated_Source\PSoC5/CySpc.c **** 
 568:.\Generated_Source\PSoC5/CySpc.c ****             #if(CY_PSOC5A)
 569:.\Generated_Source\PSoC5/CySpc.c ****                 CY_SPC_CPU_DATA_REG = HI8(timerPeriod);
 570:.\Generated_Source\PSoC5/CySpc.c ****                 CY_SPC_CPU_DATA_REG = LO8(timerPeriod);
 571:.\Generated_Source\PSoC5/CySpc.c ****                 CY_SPC_CPU_DATA_REG = clkDivSelect;
 572:.\Generated_Source\PSoC5/CySpc.c ****             #endif  /* (CY_PSOC5A) */
 573:.\Generated_Source\PSoC5/CySpc.c ****         }
 574:.\Generated_Source\PSoC5/CySpc.c ****         else
 575:.\Generated_Source\PSoC5/CySpc.c ****         {
 576:.\Generated_Source\PSoC5/CySpc.c ****             status = CYRET_CANCELED;
 1001              		.loc 1 576 0
 1002 006e 06E0     		b	.L62
 1003              	.L60:
 1004 0070 4FF00903 		mov	r3, #9
 1005 0074 FB60     		str	r3, [r7, #12]
 1006 0076 02E0     		b	.L62
 1007              	.L59:
 577:.\Generated_Source\PSoC5/CySpc.c ****         }
 578:.\Generated_Source\PSoC5/CySpc.c ****     }
 579:.\Generated_Source\PSoC5/CySpc.c ****     else
 580:.\Generated_Source\PSoC5/CySpc.c ****     {
 581:.\Generated_Source\PSoC5/CySpc.c ****         status = CYRET_LOCKED;
 1008              		.loc 1 581 0
 1009 0078 4FF00403 		mov	r3, #4
 1010 007c FB60     		str	r3, [r7, #12]
 1011              	.L62:
ARM GAS  C:\Users\csap2972\AppData\Local\Temp\cczsvW7p.s 			page 29


 582:.\Generated_Source\PSoC5/CySpc.c ****     }
 583:.\Generated_Source\PSoC5/CySpc.c **** 
 584:.\Generated_Source\PSoC5/CySpc.c ****     return(status);
 1012              		.loc 1 584 0
 1013 007e FB68     		ldr	r3, [r7, #12]
 585:.\Generated_Source\PSoC5/CySpc.c **** }
 1014              		.loc 1 585 0
 1015 0080 1846     		mov	r0, r3
 1016 0082 07F11407 		add	r7, r7, #20
 1017 0086 BD46     		mov	sp, r7
 1018 0088 80BC     		pop	{r7}
 1019 008a 7047     		bx	lr
 1020              		.cfi_endproc
 1021              	.LFE9:
 1022              		.size	CySpcGetTemp, .-CySpcGetTemp
 1023              		.section	.text.CySpcSetupTs,"ax",%progbits
 1024              		.align	2
 1025              		.global	CySpcSetupTs
 1026              		.thumb
 1027              		.thumb_func
 1028              		.type	CySpcSetupTs, %function
 1029              	CySpcSetupTs:
 1030              	.LFB10:
 586:.\Generated_Source\PSoC5/CySpc.c **** 
 587:.\Generated_Source\PSoC5/CySpc.c **** 
 588:.\Generated_Source\PSoC5/CySpc.c **** /*******************************************************************************
 589:.\Generated_Source\PSoC5/CySpc.c **** * Function Name: CySpcSetupTs
 590:.\Generated_Source\PSoC5/CySpc.c **** ********************************************************************************
 591:.\Generated_Source\PSoC5/CySpc.c **** * Summary:
 592:.\Generated_Source\PSoC5/CySpc.c **** *  Sets up the temperature sensor to drive voltage to external resources.
 593:.\Generated_Source\PSoC5/CySpc.c **** *
 594:.\Generated_Source\PSoC5/CySpc.c **** * Parameters:
 595:.\Generated_Source\PSoC5/CySpc.c **** *  uint8 seqSelect:
 596:.\Generated_Source\PSoC5/CySpc.c **** *    Selection of current sources for the temperature diode.
 597:.\Generated_Source\PSoC5/CySpc.c **** *    0: Enables one current path at a time.
 598:.\Generated_Source\PSoC5/CySpc.c **** *    1: Enables multiple current paths at a time.
 599:.\Generated_Source\PSoC5/CySpc.c **** *
 600:.\Generated_Source\PSoC5/CySpc.c **** *  uint8 seqFreeze:
 601:.\Generated_Source\PSoC5/CySpc.c **** *    0: Sequencer is enabled, cycling through the set of current paths for the
 602:.\Generated_Source\PSoC5/CySpc.c **** *    temperature diode to average out the output voltage.
 603:.\Generated_Source\PSoC5/CySpc.c **** *    1: Sequencer is disabled and no cycling of the current paths occurs.
 604:.\Generated_Source\PSoC5/CySpc.c **** *
 605:.\Generated_Source\PSoC5/CySpc.c **** *  uint8 clkDivSel:
 606:.\Generated_Source\PSoC5/CySpc.c **** *    The divide ratio of the SPC Clock to be set in the ADC ACLK.
 607:.\Generated_Source\PSoC5/CySpc.c **** *
 608:.\Generated_Source\PSoC5/CySpc.c **** *  uint8CurvCompEnable:
 609:.\Generated_Source\PSoC5/CySpc.c **** *    Curvature compensation calculation enabling.
 610:.\Generated_Source\PSoC5/CySpc.c **** *    0: No curvature compensation is used.
 611:.\Generated_Source\PSoC5/CySpc.c **** *    1: Curvature compensation is enabled.
 612:.\Generated_Source\PSoC5/CySpc.c **** *
 613:.\Generated_Source\PSoC5/CySpc.c **** * Return:
 614:.\Generated_Source\PSoC5/CySpc.c **** *  CYRET_STARTED
 615:.\Generated_Source\PSoC5/CySpc.c **** *  CYRET_CANCELED
 616:.\Generated_Source\PSoC5/CySpc.c **** *  CYRET_LOCKED
 617:.\Generated_Source\PSoC5/CySpc.c **** *
 618:.\Generated_Source\PSoC5/CySpc.c **** *******************************************************************************/
 619:.\Generated_Source\PSoC5/CySpc.c **** cystatus CySpcSetupTs(uint8 seqSelect, uint8 seqFreeze, uint8 clkDivSel, uint8 curvCompEnable)
ARM GAS  C:\Users\csap2972\AppData\Local\Temp\cczsvW7p.s 			page 30


 620:.\Generated_Source\PSoC5/CySpc.c **** {
 1031              		.loc 1 620 0
 1032              		.cfi_startproc
 1033              		@ args = 0, pretend = 0, frame = 16
 1034              		@ frame_needed = 1, uses_anonymous_args = 0
 1035              		@ link register save eliminated.
 1036 0000 80B4     		push	{r7}
 1037              	.LCFI30:
 1038              		.cfi_def_cfa_offset 4
 1039 0002 85B0     		sub	sp, sp, #20
 1040              	.LCFI31:
 1041              		.cfi_def_cfa_offset 24
 1042 0004 00AF     		add	r7, sp, #0
 1043              		.cfi_offset 7, -4
 1044              	.LCFI32:
 1045              		.cfi_def_cfa_register 7
 1046 0006 F871     		strb	r0, [r7, #7]
 1047 0008 B971     		strb	r1, [r7, #6]
 1048 000a 7A71     		strb	r2, [r7, #5]
 1049 000c 3B71     		strb	r3, [r7, #4]
 621:.\Generated_Source\PSoC5/CySpc.c ****     cystatus status = CYRET_STARTED;
 1050              		.loc 1 621 0
 1051 000e 4FF00703 		mov	r3, #7
 1052 0012 FB60     		str	r3, [r7, #12]
 622:.\Generated_Source\PSoC5/CySpc.c **** 
 623:.\Generated_Source\PSoC5/CySpc.c ****     /* Make sure the SPC is ready to accept command */
 624:.\Generated_Source\PSoC5/CySpc.c ****     if(CY_SPC_IDLE)
 1053              		.loc 1 624 0
 1054 0014 44F22273 		movw	r3, #:lower16:1073760034
 1055 0018 C4F20003 		movt	r3, #:upper16:1073760034
 1056 001c 1B78     		ldrb	r3, [r3, #0]
 1057 001e DBB2     		uxtb	r3, r3
 1058 0020 03F00203 		and	r3, r3, #2
 1059 0024 002B     		cmp	r3, #0
 1060 0026 3BD0     		beq	.L65
 625:.\Generated_Source\PSoC5/CySpc.c ****     {
 626:.\Generated_Source\PSoC5/CySpc.c ****         CY_SPC_CPU_DATA_REG = CY_SPC_KEY_ONE;
 1061              		.loc 1 626 0
 1062 0028 44F22073 		movw	r3, #:lower16:1073760032
 1063 002c C4F20003 		movt	r3, #:upper16:1073760032
 1064 0030 6FF04902 		mvn	r2, #73
 1065 0034 1A70     		strb	r2, [r3, #0]
 627:.\Generated_Source\PSoC5/CySpc.c ****         CY_SPC_CPU_DATA_REG = CY_SPC_KEY_TWO(CY_SPC_CMD_SETUP_TS);
 1066              		.loc 1 627 0
 1067 0036 44F22073 		movw	r3, #:lower16:1073760032
 1068 003a C4F20003 		movt	r3, #:upper16:1073760032
 1069 003e 6FF01B02 		mvn	r2, #27
 1070 0042 1A70     		strb	r2, [r3, #0]
 628:.\Generated_Source\PSoC5/CySpc.c ****         CY_SPC_CPU_DATA_REG = CY_SPC_CMD_SETUP_TS;
 1071              		.loc 1 628 0
 1072 0044 44F22073 		movw	r3, #:lower16:1073760032
 1073 0048 C4F20003 		movt	r3, #:upper16:1073760032
 1074 004c 4FF01102 		mov	r2, #17
 1075 0050 1A70     		strb	r2, [r3, #0]
 629:.\Generated_Source\PSoC5/CySpc.c **** 
 630:.\Generated_Source\PSoC5/CySpc.c ****         /* Make sure the command was accepted */
 631:.\Generated_Source\PSoC5/CySpc.c ****         if(CY_SPC_BUSY)
ARM GAS  C:\Users\csap2972\AppData\Local\Temp\cczsvW7p.s 			page 31


 1076              		.loc 1 631 0
 1077 0052 44F22273 		movw	r3, #:lower16:1073760034
 1078 0056 C4F20003 		movt	r3, #:upper16:1073760034
 1079 005a 1B78     		ldrb	r3, [r3, #0]
 1080 005c DBB2     		uxtb	r3, r3
 1081 005e 03F00203 		and	r3, r3, #2
 1082 0062 002B     		cmp	r3, #0
 1083 0064 18D1     		bne	.L66
 632:.\Generated_Source\PSoC5/CySpc.c ****         {
 633:.\Generated_Source\PSoC5/CySpc.c ****             CY_SPC_CPU_DATA_REG = seqSelect;
 1084              		.loc 1 633 0
 1085 0066 44F22073 		movw	r3, #:lower16:1073760032
 1086 006a C4F20003 		movt	r3, #:upper16:1073760032
 1087 006e FA79     		ldrb	r2, [r7, #7]
 1088 0070 1A70     		strb	r2, [r3, #0]
 634:.\Generated_Source\PSoC5/CySpc.c ****             CY_SPC_CPU_DATA_REG = seqFreeze;
 1089              		.loc 1 634 0
 1090 0072 44F22073 		movw	r3, #:lower16:1073760032
 1091 0076 C4F20003 		movt	r3, #:upper16:1073760032
 1092 007a BA79     		ldrb	r2, [r7, #6]
 1093 007c 1A70     		strb	r2, [r3, #0]
 635:.\Generated_Source\PSoC5/CySpc.c ****             CY_SPC_CPU_DATA_REG = clkDivSel;
 1094              		.loc 1 635 0
 1095 007e 44F22073 		movw	r3, #:lower16:1073760032
 1096 0082 C4F20003 		movt	r3, #:upper16:1073760032
 1097 0086 7A79     		ldrb	r2, [r7, #5]
 1098 0088 1A70     		strb	r2, [r3, #0]
 636:.\Generated_Source\PSoC5/CySpc.c ****             CY_SPC_CPU_DATA_REG = curvCompEnable;
 1099              		.loc 1 636 0
 1100 008a 44F22073 		movw	r3, #:lower16:1073760032
 1101 008e C4F20003 		movt	r3, #:upper16:1073760032
 1102 0092 3A79     		ldrb	r2, [r7, #4]
 1103 0094 1A70     		strb	r2, [r3, #0]
 637:.\Generated_Source\PSoC5/CySpc.c ****         }
 638:.\Generated_Source\PSoC5/CySpc.c ****         else
 639:.\Generated_Source\PSoC5/CySpc.c ****         {
 640:.\Generated_Source\PSoC5/CySpc.c ****             status = CYRET_CANCELED;
 1104              		.loc 1 640 0
 1105 0096 06E0     		b	.L68
 1106              	.L66:
 1107 0098 4FF00903 		mov	r3, #9
 1108 009c FB60     		str	r3, [r7, #12]
 1109 009e 02E0     		b	.L68
 1110              	.L65:
 641:.\Generated_Source\PSoC5/CySpc.c ****         }
 642:.\Generated_Source\PSoC5/CySpc.c ****     }
 643:.\Generated_Source\PSoC5/CySpc.c ****     else
 644:.\Generated_Source\PSoC5/CySpc.c ****     {
 645:.\Generated_Source\PSoC5/CySpc.c ****         status = CYRET_LOCKED;
 1111              		.loc 1 645 0
 1112 00a0 4FF00403 		mov	r3, #4
 1113 00a4 FB60     		str	r3, [r7, #12]
 1114              	.L68:
 646:.\Generated_Source\PSoC5/CySpc.c ****     }
 647:.\Generated_Source\PSoC5/CySpc.c **** 
 648:.\Generated_Source\PSoC5/CySpc.c ****     return(status);
 1115              		.loc 1 648 0
ARM GAS  C:\Users\csap2972\AppData\Local\Temp\cczsvW7p.s 			page 32


 1116 00a6 FB68     		ldr	r3, [r7, #12]
 649:.\Generated_Source\PSoC5/CySpc.c **** }
 1117              		.loc 1 649 0
 1118 00a8 1846     		mov	r0, r3
 1119 00aa 07F11407 		add	r7, r7, #20
 1120 00ae BD46     		mov	sp, r7
 1121 00b0 80BC     		pop	{r7}
 1122 00b2 7047     		bx	lr
 1123              		.cfi_endproc
 1124              	.LFE10:
 1125              		.size	CySpcSetupTs, .-CySpcSetupTs
 1126              		.section	.text.CySpcDisableTs,"ax",%progbits
 1127              		.align	2
 1128              		.global	CySpcDisableTs
 1129              		.thumb
 1130              		.thumb_func
 1131              		.type	CySpcDisableTs, %function
 1132              	CySpcDisableTs:
 1133              	.LFB11:
 650:.\Generated_Source\PSoC5/CySpc.c **** 
 651:.\Generated_Source\PSoC5/CySpc.c **** 
 652:.\Generated_Source\PSoC5/CySpc.c **** /*******************************************************************************
 653:.\Generated_Source\PSoC5/CySpc.c **** * Function Name: CySpcDisableTs
 654:.\Generated_Source\PSoC5/CySpc.c **** ********************************************************************************
 655:.\Generated_Source\PSoC5/CySpc.c **** * Summary:
 656:.\Generated_Source\PSoC5/CySpc.c **** *  Disables the temperature sensor from driving its voltage to external
 657:.\Generated_Source\PSoC5/CySpc.c **** *  resources.
 658:.\Generated_Source\PSoC5/CySpc.c **** *
 659:.\Generated_Source\PSoC5/CySpc.c **** * Parameters:
 660:.\Generated_Source\PSoC5/CySpc.c **** *  None
 661:.\Generated_Source\PSoC5/CySpc.c **** *
 662:.\Generated_Source\PSoC5/CySpc.c **** * Return:
 663:.\Generated_Source\PSoC5/CySpc.c **** *  CYRET_STARTED
 664:.\Generated_Source\PSoC5/CySpc.c **** *  CYRET_LOCKED
 665:.\Generated_Source\PSoC5/CySpc.c **** *
 666:.\Generated_Source\PSoC5/CySpc.c **** *******************************************************************************/
 667:.\Generated_Source\PSoC5/CySpc.c **** cystatus CySpcDisableTs(void)
 668:.\Generated_Source\PSoC5/CySpc.c **** {
 1134              		.loc 1 668 0
 1135              		.cfi_startproc
 1136              		@ args = 0, pretend = 0, frame = 8
 1137              		@ frame_needed = 1, uses_anonymous_args = 0
 1138              		@ link register save eliminated.
 1139 0000 80B4     		push	{r7}
 1140              	.LCFI33:
 1141              		.cfi_def_cfa_offset 4
 1142 0002 83B0     		sub	sp, sp, #12
 1143              	.LCFI34:
 1144              		.cfi_def_cfa_offset 16
 1145 0004 00AF     		add	r7, sp, #0
 1146              		.cfi_offset 7, -4
 1147              	.LCFI35:
 1148              		.cfi_def_cfa_register 7
 669:.\Generated_Source\PSoC5/CySpc.c ****     cystatus status = CYRET_STARTED;
 1149              		.loc 1 669 0
 1150 0006 4FF00703 		mov	r3, #7
 1151 000a 7B60     		str	r3, [r7, #4]
ARM GAS  C:\Users\csap2972\AppData\Local\Temp\cczsvW7p.s 			page 33


 670:.\Generated_Source\PSoC5/CySpc.c **** 
 671:.\Generated_Source\PSoC5/CySpc.c ****     /* Make sure the SPC is ready to accept command */
 672:.\Generated_Source\PSoC5/CySpc.c ****     if(CY_SPC_IDLE)
 1152              		.loc 1 672 0
 1153 000c 44F22273 		movw	r3, #:lower16:1073760034
 1154 0010 C4F20003 		movt	r3, #:upper16:1073760034
 1155 0014 1B78     		ldrb	r3, [r3, #0]
 1156 0016 DBB2     		uxtb	r3, r3
 1157 0018 03F00203 		and	r3, r3, #2
 1158 001c 002B     		cmp	r3, #0
 1159 001e 15D0     		beq	.L71
 673:.\Generated_Source\PSoC5/CySpc.c ****     {
 674:.\Generated_Source\PSoC5/CySpc.c ****         CY_SPC_CPU_DATA_REG = CY_SPC_KEY_ONE;
 1160              		.loc 1 674 0
 1161 0020 44F22073 		movw	r3, #:lower16:1073760032
 1162 0024 C4F20003 		movt	r3, #:upper16:1073760032
 1163 0028 6FF04902 		mvn	r2, #73
 1164 002c 1A70     		strb	r2, [r3, #0]
 675:.\Generated_Source\PSoC5/CySpc.c ****         CY_SPC_CPU_DATA_REG = CY_SPC_KEY_TWO(CY_SPC_CMD_DISABLE_TS);
 1165              		.loc 1 675 0
 1166 002e 44F22073 		movw	r3, #:lower16:1073760032
 1167 0032 C4F20003 		movt	r3, #:upper16:1073760032
 1168 0036 6FF01A02 		mvn	r2, #26
 1169 003a 1A70     		strb	r2, [r3, #0]
 676:.\Generated_Source\PSoC5/CySpc.c ****         CY_SPC_CPU_DATA_REG = CY_SPC_CMD_DISABLE_TS;
 1170              		.loc 1 676 0
 1171 003c 44F22073 		movw	r3, #:lower16:1073760032
 1172 0040 C4F20003 		movt	r3, #:upper16:1073760032
 1173 0044 4FF01202 		mov	r2, #18
 1174 0048 1A70     		strb	r2, [r3, #0]
 1175 004a 02E0     		b	.L72
 1176              	.L71:
 677:.\Generated_Source\PSoC5/CySpc.c ****     }
 678:.\Generated_Source\PSoC5/CySpc.c ****     else
 679:.\Generated_Source\PSoC5/CySpc.c ****     {
 680:.\Generated_Source\PSoC5/CySpc.c ****         status = CYRET_LOCKED;
 1177              		.loc 1 680 0
 1178 004c 4FF00403 		mov	r3, #4
 1179 0050 7B60     		str	r3, [r7, #4]
 1180              	.L72:
 681:.\Generated_Source\PSoC5/CySpc.c ****     }
 682:.\Generated_Source\PSoC5/CySpc.c **** 
 683:.\Generated_Source\PSoC5/CySpc.c ****     return(status);
 1181              		.loc 1 683 0
 1182 0052 7B68     		ldr	r3, [r7, #4]
 684:.\Generated_Source\PSoC5/CySpc.c **** }
 1183              		.loc 1 684 0
 1184 0054 1846     		mov	r0, r3
 1185 0056 07F10C07 		add	r7, r7, #12
 1186 005a BD46     		mov	sp, r7
 1187 005c 80BC     		pop	{r7}
 1188 005e 7047     		bx	lr
 1189              		.cfi_endproc
 1190              	.LFE11:
 1191              		.size	CySpcDisableTs, .-CySpcDisableTs
 1192              		.section	.text.CySpcEraseRow,"ax",%progbits
 1193              		.align	2
ARM GAS  C:\Users\csap2972\AppData\Local\Temp\cczsvW7p.s 			page 34


 1194              		.global	CySpcEraseRow
 1195              		.thumb
 1196              		.thumb_func
 1197              		.type	CySpcEraseRow, %function
 1198              	CySpcEraseRow:
 1199              	.LFB12:
 685:.\Generated_Source\PSoC5/CySpc.c **** 
 686:.\Generated_Source\PSoC5/CySpc.c **** 
 687:.\Generated_Source\PSoC5/CySpc.c **** /*******************************************************************************
 688:.\Generated_Source\PSoC5/CySpc.c **** * Function Name: CySpcEraseRow
 689:.\Generated_Source\PSoC5/CySpc.c **** ********************************************************************************
 690:.\Generated_Source\PSoC5/CySpc.c **** * Summary:
 691:.\Generated_Source\PSoC5/CySpc.c **** *  Erases a row in Flash/EEPROM.
 692:.\Generated_Source\PSoC5/CySpc.c **** *
 693:.\Generated_Source\PSoC5/CySpc.c **** * Parameters:
 694:.\Generated_Source\PSoC5/CySpc.c **** *  uint8 array:
 695:.\Generated_Source\PSoC5/CySpc.c **** *   Id of the array.
 696:.\Generated_Source\PSoC5/CySpc.c **** *
 697:.\Generated_Source\PSoC5/CySpc.c **** *  uint16 address:
 698:.\Generated_Source\PSoC5/CySpc.c **** *   Flash/eeprom addrress
 699:.\Generated_Source\PSoC5/CySpc.c **** *
 700:.\Generated_Source\PSoC5/CySpc.c **** *  uint8 tempPolarity:
 701:.\Generated_Source\PSoC5/CySpc.c **** *   temperature polarity.
 702:.\Generated_Source\PSoC5/CySpc.c **** *    1: the Temp Magnitude is interpreted as a positive value
 703:.\Generated_Source\PSoC5/CySpc.c **** *    0: the Temp Magnitude is interpreted as a negative value
 704:.\Generated_Source\PSoC5/CySpc.c **** *
 705:.\Generated_Source\PSoC5/CySpc.c **** *  uint8 tempMagnitude:
 706:.\Generated_Source\PSoC5/CySpc.c **** *   Temperature magnitude.
 707:.\Generated_Source\PSoC5/CySpc.c **** *
 708:.\Generated_Source\PSoC5/CySpc.c **** * Return:
 709:.\Generated_Source\PSoC5/CySpc.c **** *  CYRET_STARTED
 710:.\Generated_Source\PSoC5/CySpc.c **** *  CYRET_CANCELED
 711:.\Generated_Source\PSoC5/CySpc.c **** *  CYRET_LOCKED
 712:.\Generated_Source\PSoC5/CySpc.c **** *
 713:.\Generated_Source\PSoC5/CySpc.c **** *******************************************************************************/
 714:.\Generated_Source\PSoC5/CySpc.c **** cystatus CySpcEraseRow(uint8 array, uint16 address, uint8 tempPolarity, uint8 tempMagnitude)
 715:.\Generated_Source\PSoC5/CySpc.c **** {
 1200              		.loc 1 715 0
 1201              		.cfi_startproc
 1202              		@ args = 0, pretend = 0, frame = 16
 1203              		@ frame_needed = 1, uses_anonymous_args = 0
 1204              		@ link register save eliminated.
 1205 0000 80B4     		push	{r7}
 1206              	.LCFI36:
 1207              		.cfi_def_cfa_offset 4
 1208 0002 85B0     		sub	sp, sp, #20
 1209              	.LCFI37:
 1210              		.cfi_def_cfa_offset 24
 1211 0004 00AF     		add	r7, sp, #0
 1212              		.cfi_offset 7, -4
 1213              	.LCFI38:
 1214              		.cfi_def_cfa_register 7
 1215 0006 F871     		strb	r0, [r7, #7]
 1216 0008 B980     		strh	r1, [r7, #4]	@ movhi
 1217 000a FA70     		strb	r2, [r7, #3]
 1218 000c BB70     		strb	r3, [r7, #2]
 716:.\Generated_Source\PSoC5/CySpc.c ****     cystatus status = CYRET_STARTED;
ARM GAS  C:\Users\csap2972\AppData\Local\Temp\cczsvW7p.s 			page 35


 1219              		.loc 1 716 0
 1220 000e 4FF00703 		mov	r3, #7
 1221 0012 FB60     		str	r3, [r7, #12]
 717:.\Generated_Source\PSoC5/CySpc.c **** 
 718:.\Generated_Source\PSoC5/CySpc.c ****     /* Make sure the SPC is ready to accept command */
 719:.\Generated_Source\PSoC5/CySpc.c ****     if(CY_SPC_IDLE)
 1222              		.loc 1 719 0
 1223 0014 44F22273 		movw	r3, #:lower16:1073760034
 1224 0018 C4F20003 		movt	r3, #:upper16:1073760034
 1225 001c 1B78     		ldrb	r3, [r3, #0]
 1226 001e DBB2     		uxtb	r3, r3
 1227 0020 03F00203 		and	r3, r3, #2
 1228 0024 002B     		cmp	r3, #0
 1229 0026 46D0     		beq	.L75
 720:.\Generated_Source\PSoC5/CySpc.c ****     {
 721:.\Generated_Source\PSoC5/CySpc.c ****         CY_SPC_CPU_DATA_REG = CY_SPC_KEY_ONE;
 1230              		.loc 1 721 0
 1231 0028 44F22073 		movw	r3, #:lower16:1073760032
 1232 002c C4F20003 		movt	r3, #:upper16:1073760032
 1233 0030 6FF04902 		mvn	r2, #73
 1234 0034 1A70     		strb	r2, [r3, #0]
 722:.\Generated_Source\PSoC5/CySpc.c ****         CY_SPC_CPU_DATA_REG = CY_SPC_KEY_TWO(CY_SPC_CMD_ER_ROW);
 1235              		.loc 1 722 0
 1236 0036 44F22073 		movw	r3, #:lower16:1073760032
 1237 003a C4F20003 		movt	r3, #:upper16:1073760032
 1238 003e 6FF01902 		mvn	r2, #25
 1239 0042 1A70     		strb	r2, [r3, #0]
 723:.\Generated_Source\PSoC5/CySpc.c ****         CY_SPC_CPU_DATA_REG = CY_SPC_CMD_ER_ROW;
 1240              		.loc 1 723 0
 1241 0044 44F22073 		movw	r3, #:lower16:1073760032
 1242 0048 C4F20003 		movt	r3, #:upper16:1073760032
 1243 004c 4FF01302 		mov	r2, #19
 1244 0050 1A70     		strb	r2, [r3, #0]
 724:.\Generated_Source\PSoC5/CySpc.c **** 
 725:.\Generated_Source\PSoC5/CySpc.c ****         /* Make sure the command was accepted */
 726:.\Generated_Source\PSoC5/CySpc.c ****         if(CY_SPC_BUSY)
 1245              		.loc 1 726 0
 1246 0052 44F22273 		movw	r3, #:lower16:1073760034
 1247 0056 C4F20003 		movt	r3, #:upper16:1073760034
 1248 005a 1B78     		ldrb	r3, [r3, #0]
 1249 005c DBB2     		uxtb	r3, r3
 1250 005e 03F00203 		and	r3, r3, #2
 1251 0062 002B     		cmp	r3, #0
 1252 0064 23D1     		bne	.L76
 727:.\Generated_Source\PSoC5/CySpc.c ****         {
 728:.\Generated_Source\PSoC5/CySpc.c ****             CY_SPC_CPU_DATA_REG = array;
 1253              		.loc 1 728 0
 1254 0066 44F22073 		movw	r3, #:lower16:1073760032
 1255 006a C4F20003 		movt	r3, #:upper16:1073760032
 1256 006e FA79     		ldrb	r2, [r7, #7]
 1257 0070 1A70     		strb	r2, [r3, #0]
 729:.\Generated_Source\PSoC5/CySpc.c ****             CY_SPC_CPU_DATA_REG = HI8(address);
 1258              		.loc 1 729 0
 1259 0072 44F22073 		movw	r3, #:lower16:1073760032
 1260 0076 C4F20003 		movt	r3, #:upper16:1073760032
 1261 007a BA88     		ldrh	r2, [r7, #4]
 1262 007c 4FEA1222 		lsr	r2, r2, #8
ARM GAS  C:\Users\csap2972\AppData\Local\Temp\cczsvW7p.s 			page 36


 1263 0080 92B2     		uxth	r2, r2
 1264 0082 D2B2     		uxtb	r2, r2
 1265 0084 1A70     		strb	r2, [r3, #0]
 730:.\Generated_Source\PSoC5/CySpc.c ****             CY_SPC_CPU_DATA_REG = LO8(address);
 1266              		.loc 1 730 0
 1267 0086 44F22073 		movw	r3, #:lower16:1073760032
 1268 008a C4F20003 		movt	r3, #:upper16:1073760032
 1269 008e BA88     		ldrh	r2, [r7, #4]	@ movhi
 1270 0090 D2B2     		uxtb	r2, r2
 1271 0092 1A70     		strb	r2, [r3, #0]
 731:.\Generated_Source\PSoC5/CySpc.c ****             CY_SPC_CPU_DATA_REG = tempPolarity;
 1272              		.loc 1 731 0
 1273 0094 44F22073 		movw	r3, #:lower16:1073760032
 1274 0098 C4F20003 		movt	r3, #:upper16:1073760032
 1275 009c FA78     		ldrb	r2, [r7, #3]
 1276 009e 1A70     		strb	r2, [r3, #0]
 732:.\Generated_Source\PSoC5/CySpc.c ****             CY_SPC_CPU_DATA_REG = tempMagnitude;
 1277              		.loc 1 732 0
 1278 00a0 44F22073 		movw	r3, #:lower16:1073760032
 1279 00a4 C4F20003 		movt	r3, #:upper16:1073760032
 1280 00a8 BA78     		ldrb	r2, [r7, #2]
 1281 00aa 1A70     		strb	r2, [r3, #0]
 733:.\Generated_Source\PSoC5/CySpc.c ****         }
 734:.\Generated_Source\PSoC5/CySpc.c ****         else
 735:.\Generated_Source\PSoC5/CySpc.c ****         {
 736:.\Generated_Source\PSoC5/CySpc.c ****             status = CYRET_CANCELED;
 1282              		.loc 1 736 0
 1283 00ac 06E0     		b	.L78
 1284              	.L76:
 1285 00ae 4FF00903 		mov	r3, #9
 1286 00b2 FB60     		str	r3, [r7, #12]
 1287 00b4 02E0     		b	.L78
 1288              	.L75:
 737:.\Generated_Source\PSoC5/CySpc.c ****         }
 738:.\Generated_Source\PSoC5/CySpc.c ****     }
 739:.\Generated_Source\PSoC5/CySpc.c ****     else
 740:.\Generated_Source\PSoC5/CySpc.c ****     {
 741:.\Generated_Source\PSoC5/CySpc.c ****         status = CYRET_LOCKED;
 1289              		.loc 1 741 0
 1290 00b6 4FF00403 		mov	r3, #4
 1291 00ba FB60     		str	r3, [r7, #12]
 1292              	.L78:
 742:.\Generated_Source\PSoC5/CySpc.c ****     }
 743:.\Generated_Source\PSoC5/CySpc.c **** 
 744:.\Generated_Source\PSoC5/CySpc.c ****     return(status);
 1293              		.loc 1 744 0
 1294 00bc FB68     		ldr	r3, [r7, #12]
 745:.\Generated_Source\PSoC5/CySpc.c **** }
 1295              		.loc 1 745 0
 1296 00be 1846     		mov	r0, r3
 1297 00c0 07F11407 		add	r7, r7, #20
 1298 00c4 BD46     		mov	sp, r7
 1299 00c6 80BC     		pop	{r7}
 1300 00c8 7047     		bx	lr
 1301              		.cfi_endproc
 1302              	.LFE12:
 1303              		.size	CySpcEraseRow, .-CySpcEraseRow
ARM GAS  C:\Users\csap2972\AppData\Local\Temp\cczsvW7p.s 			page 37


 1304 00ca 00BF     		.section	.text.CySpcLock,"ax",%progbits
 1305              		.align	2
 1306              		.global	CySpcLock
 1307              		.thumb
 1308              		.thumb_func
 1309              		.type	CySpcLock, %function
 1310              	CySpcLock:
 1311              	.LFB13:
 746:.\Generated_Source\PSoC5/CySpc.c **** 
 747:.\Generated_Source\PSoC5/CySpc.c **** 
 748:.\Generated_Source\PSoC5/CySpc.c **** /*******************************************************************************
 749:.\Generated_Source\PSoC5/CySpc.c **** * Function Name: CySpcLock
 750:.\Generated_Source\PSoC5/CySpc.c **** ********************************************************************************
 751:.\Generated_Source\PSoC5/CySpc.c **** * Summary:
 752:.\Generated_Source\PSoC5/CySpc.c **** *  Locks the SPC so it can not be used by someone else:
 753:.\Generated_Source\PSoC5/CySpc.c **** *   - Saves wait-pipeline enable state and enable pipeline (PSoC5)
 754:.\Generated_Source\PSoC5/CySpc.c **** *
 755:.\Generated_Source\PSoC5/CySpc.c **** * Parameters:
 756:.\Generated_Source\PSoC5/CySpc.c **** *  Note
 757:.\Generated_Source\PSoC5/CySpc.c **** *
 758:.\Generated_Source\PSoC5/CySpc.c **** * Return:
 759:.\Generated_Source\PSoC5/CySpc.c **** *  CYRET_SUCCESS - if the resource was free.
 760:.\Generated_Source\PSoC5/CySpc.c **** *  CYRET_LOCKED  - if the SPC is in use.
 761:.\Generated_Source\PSoC5/CySpc.c **** *
 762:.\Generated_Source\PSoC5/CySpc.c **** *******************************************************************************/
 763:.\Generated_Source\PSoC5/CySpc.c **** cystatus CySpcLock(void)
 764:.\Generated_Source\PSoC5/CySpc.c **** {
 1312              		.loc 1 764 0
 1313              		.cfi_startproc
 1314              		@ args = 0, pretend = 0, frame = 8
 1315              		@ frame_needed = 1, uses_anonymous_args = 0
 1316 0000 80B5     		push	{r7, lr}
 1317              	.LCFI39:
 1318              		.cfi_def_cfa_offset 8
 1319 0002 82B0     		sub	sp, sp, #8
 1320              	.LCFI40:
 1321              		.cfi_def_cfa_offset 16
 1322 0004 00AF     		add	r7, sp, #0
 1323              		.cfi_offset 14, -4
 1324              		.cfi_offset 7, -8
 1325              	.LCFI41:
 1326              		.cfi_def_cfa_register 7
 765:.\Generated_Source\PSoC5/CySpc.c ****     cystatus status = CYRET_LOCKED;
 1327              		.loc 1 765 0
 1328 0006 4FF00403 		mov	r3, #4
 1329 000a 3B60     		str	r3, [r7, #0]
 766:.\Generated_Source\PSoC5/CySpc.c ****     uint8 interruptState;
 767:.\Generated_Source\PSoC5/CySpc.c **** 
 768:.\Generated_Source\PSoC5/CySpc.c ****     /* Enter critical section */
 769:.\Generated_Source\PSoC5/CySpc.c ****     interruptState = CyEnterCriticalSection();
 1330              		.loc 1 769 0
 1331 000c FFF7FEFF 		bl	CyEnterCriticalSection
 1332 0010 0346     		mov	r3, r0
 1333 0012 FB71     		strb	r3, [r7, #7]
 770:.\Generated_Source\PSoC5/CySpc.c **** 
 771:.\Generated_Source\PSoC5/CySpc.c ****     if(CY_SPC_UNLOCKED == SpcLockState)
 1334              		.loc 1 771 0
ARM GAS  C:\Users\csap2972\AppData\Local\Temp\cczsvW7p.s 			page 38


 1335 0014 40F20003 		movw	r3, #:lower16:SpcLockState
 1336 0018 C0F20003 		movt	r3, #:upper16:SpcLockState
 1337 001c 1B78     		ldrb	r3, [r3, #0]	@ zero_extendqisi2
 1338 001e 002B     		cmp	r3, #0
 1339 0020 29D1     		bne	.L81
 772:.\Generated_Source\PSoC5/CySpc.c ****     {
 773:.\Generated_Source\PSoC5/CySpc.c ****         SpcLockState = CY_SPC_LOCKED;
 1340              		.loc 1 773 0
 1341 0022 40F20003 		movw	r3, #:lower16:SpcLockState
 1342 0026 C0F20003 		movt	r3, #:upper16:SpcLockState
 1343 002a 4FF00102 		mov	r2, #1
 1344 002e 1A70     		strb	r2, [r3, #0]
 774:.\Generated_Source\PSoC5/CySpc.c ****         status = CYRET_SUCCESS;
 1345              		.loc 1 774 0
 1346 0030 4FF00003 		mov	r3, #0
 1347 0034 3B60     		str	r3, [r7, #0]
 775:.\Generated_Source\PSoC5/CySpc.c **** 
 776:.\Generated_Source\PSoC5/CySpc.c ****         #if(CY_PSOC5LP)
 777:.\Generated_Source\PSoC5/CySpc.c **** 
 778:.\Generated_Source\PSoC5/CySpc.c ****             if(0u != (CY_SPC_CPU_WAITPIPE_REG & CY_SPC_CPU_WAITPIPE_BYPASS))
 1348              		.loc 1 778 0
 1349 0036 40F20403 		movw	r3, #:lower16:1074266116
 1350 003a C4F20803 		movt	r3, #:upper16:1074266116
 1351 003e 1B68     		ldr	r3, [r3, #0]
 1352 0040 03F00103 		and	r3, r3, #1
 1353 0044 DBB2     		uxtb	r3, r3
 1354 0046 002B     		cmp	r3, #0
 1355 0048 15D0     		beq	.L81
 779:.\Generated_Source\PSoC5/CySpc.c ****             {
 780:.\Generated_Source\PSoC5/CySpc.c ****                 /* Enable pipeline registers */
 781:.\Generated_Source\PSoC5/CySpc.c ****                 CY_SPC_CPU_WAITPIPE_REG &= ~CY_SPC_CPU_WAITPIPE_BYPASS;
 1356              		.loc 1 781 0
 1357 004a 40F20403 		movw	r3, #:lower16:1074266116
 1358 004e C4F20803 		movt	r3, #:upper16:1074266116
 1359 0052 40F20402 		movw	r2, #:lower16:1074266116
 1360 0056 C4F20802 		movt	r2, #:upper16:1074266116
 1361 005a 1268     		ldr	r2, [r2, #0]
 1362 005c 22F00102 		bic	r2, r2, #1
 1363 0060 1A60     		str	r2, [r3, #0]
 782:.\Generated_Source\PSoC5/CySpc.c **** 
 783:.\Generated_Source\PSoC5/CySpc.c ****                 /* At least 2 NOP instructions are recommended */
 784:.\Generated_Source\PSoC5/CySpc.c ****                 CY_NOP;
 1364              		.loc 1 784 0
 1365              	@ 784 ".\Generated_Source\PSoC5\CySpc.c" 1
 1366 0062 00BF     		NOP
 1367              	
 1368              	@ 0 "" 2
 785:.\Generated_Source\PSoC5/CySpc.c ****                 CY_NOP;
 1369              		.loc 1 785 0
 1370              	@ 785 ".\Generated_Source\PSoC5\CySpc.c" 1
 1371 0064 00BF     		NOP
 1372              	
 1373              	@ 0 "" 2
 786:.\Generated_Source\PSoC5/CySpc.c ****                 CY_NOP;
 1374              		.loc 1 786 0
 1375              	@ 786 ".\Generated_Source\PSoC5\CySpc.c" 1
 1376 0066 00BF     		NOP
ARM GAS  C:\Users\csap2972\AppData\Local\Temp\cczsvW7p.s 			page 39


 1377              	
 1378              	@ 0 "" 2
 787:.\Generated_Source\PSoC5/CySpc.c **** 
 788:.\Generated_Source\PSoC5/CySpc.c ****                 spcWaitPipeBypass = CY_SPC_CPU_WAITPIPE_BYPASS;
 1379              		.loc 1 788 0
 1380              		.thumb
 1381 0068 40F20003 		movw	r3, #:lower16:spcWaitPipeBypass
 1382 006c C0F20003 		movt	r3, #:upper16:spcWaitPipeBypass
 1383 0070 4FF00102 		mov	r2, #1
 1384 0074 1A70     		strb	r2, [r3, #0]
 1385              	.L81:
 789:.\Generated_Source\PSoC5/CySpc.c ****             }
 790:.\Generated_Source\PSoC5/CySpc.c **** 
 791:.\Generated_Source\PSoC5/CySpc.c ****         #endif  /* (CY_PSOC5LP) */
 792:.\Generated_Source\PSoC5/CySpc.c ****     }
 793:.\Generated_Source\PSoC5/CySpc.c **** 
 794:.\Generated_Source\PSoC5/CySpc.c ****     /* Exit critical section */
 795:.\Generated_Source\PSoC5/CySpc.c ****     CyExitCriticalSection(interruptState);
 1386              		.loc 1 795 0
 1387 0076 FB79     		ldrb	r3, [r7, #7]	@ zero_extendqisi2
 1388 0078 1846     		mov	r0, r3
 1389 007a FFF7FEFF 		bl	CyExitCriticalSection
 796:.\Generated_Source\PSoC5/CySpc.c **** 
 797:.\Generated_Source\PSoC5/CySpc.c ****     return(status);
 1390              		.loc 1 797 0
 1391 007e 3B68     		ldr	r3, [r7, #0]
 798:.\Generated_Source\PSoC5/CySpc.c **** }
 1392              		.loc 1 798 0
 1393 0080 1846     		mov	r0, r3
 1394 0082 07F10807 		add	r7, r7, #8
 1395 0086 BD46     		mov	sp, r7
 1396 0088 80BD     		pop	{r7, pc}
 1397              		.cfi_endproc
 1398              	.LFE13:
 1399              		.size	CySpcLock, .-CySpcLock
 1400 008a 00BF     		.section	.text.CySpcUnlock,"ax",%progbits
 1401              		.align	2
 1402              		.global	CySpcUnlock
 1403              		.thumb
 1404              		.thumb_func
 1405              		.type	CySpcUnlock, %function
 1406              	CySpcUnlock:
 1407              	.LFB14:
 799:.\Generated_Source\PSoC5/CySpc.c **** 
 800:.\Generated_Source\PSoC5/CySpc.c **** 
 801:.\Generated_Source\PSoC5/CySpc.c **** /*******************************************************************************
 802:.\Generated_Source\PSoC5/CySpc.c **** * Function Name: CySpcUnlock
 803:.\Generated_Source\PSoC5/CySpc.c **** ********************************************************************************
 804:.\Generated_Source\PSoC5/CySpc.c **** * Summary:
 805:.\Generated_Source\PSoC5/CySpc.c **** *  Unlocks the SPC so it can be used by someone else:
 806:.\Generated_Source\PSoC5/CySpc.c **** *   - Restores wait-pipeline enable state (PSoC5)
 807:.\Generated_Source\PSoC5/CySpc.c **** *
 808:.\Generated_Source\PSoC5/CySpc.c **** * Parameters:
 809:.\Generated_Source\PSoC5/CySpc.c **** *  None
 810:.\Generated_Source\PSoC5/CySpc.c **** *
 811:.\Generated_Source\PSoC5/CySpc.c **** * Return:
 812:.\Generated_Source\PSoC5/CySpc.c **** *  None
ARM GAS  C:\Users\csap2972\AppData\Local\Temp\cczsvW7p.s 			page 40


 813:.\Generated_Source\PSoC5/CySpc.c **** *
 814:.\Generated_Source\PSoC5/CySpc.c **** *******************************************************************************/
 815:.\Generated_Source\PSoC5/CySpc.c **** void CySpcUnlock(void)
 816:.\Generated_Source\PSoC5/CySpc.c **** {
 1408              		.loc 1 816 0
 1409              		.cfi_startproc
 1410              		@ args = 0, pretend = 0, frame = 8
 1411              		@ frame_needed = 1, uses_anonymous_args = 0
 1412 0000 80B5     		push	{r7, lr}
 1413              	.LCFI42:
 1414              		.cfi_def_cfa_offset 8
 1415 0002 82B0     		sub	sp, sp, #8
 1416              	.LCFI43:
 1417              		.cfi_def_cfa_offset 16
 1418 0004 00AF     		add	r7, sp, #0
 1419              		.cfi_offset 14, -4
 1420              		.cfi_offset 7, -8
 1421              	.LCFI44:
 1422              		.cfi_def_cfa_register 7
 817:.\Generated_Source\PSoC5/CySpc.c ****     uint8 interruptState;
 818:.\Generated_Source\PSoC5/CySpc.c **** 
 819:.\Generated_Source\PSoC5/CySpc.c ****     /* Enter critical section */
 820:.\Generated_Source\PSoC5/CySpc.c ****     interruptState = CyEnterCriticalSection();
 1423              		.loc 1 820 0
 1424 0006 FFF7FEFF 		bl	CyEnterCriticalSection
 1425 000a 0346     		mov	r3, r0
 1426 000c FB71     		strb	r3, [r7, #7]
 821:.\Generated_Source\PSoC5/CySpc.c **** 
 822:.\Generated_Source\PSoC5/CySpc.c ****     /* Release the SPC object */
 823:.\Generated_Source\PSoC5/CySpc.c ****     SpcLockState = CY_SPC_UNLOCKED;
 1427              		.loc 1 823 0
 1428 000e 40F20003 		movw	r3, #:lower16:SpcLockState
 1429 0012 C0F20003 		movt	r3, #:upper16:SpcLockState
 1430 0016 4FF00002 		mov	r2, #0
 1431 001a 1A70     		strb	r2, [r3, #0]
 824:.\Generated_Source\PSoC5/CySpc.c **** 
 825:.\Generated_Source\PSoC5/CySpc.c ****     #if(CY_PSOC5LP)
 826:.\Generated_Source\PSoC5/CySpc.c **** 
 827:.\Generated_Source\PSoC5/CySpc.c ****         if(CY_SPC_CPU_WAITPIPE_BYPASS == spcWaitPipeBypass)
 1432              		.loc 1 827 0
 1433 001c 40F20003 		movw	r3, #:lower16:spcWaitPipeBypass
 1434 0020 C0F20003 		movt	r3, #:upper16:spcWaitPipeBypass
 1435 0024 1B78     		ldrb	r3, [r3, #0]	@ zero_extendqisi2
 1436 0026 012B     		cmp	r3, #1
 1437 0028 15D1     		bne	.L84
 828:.\Generated_Source\PSoC5/CySpc.c ****         {
 829:.\Generated_Source\PSoC5/CySpc.c ****             /* Force to bypass pipeline registers */
 830:.\Generated_Source\PSoC5/CySpc.c ****             CY_SPC_CPU_WAITPIPE_REG |= CY_SPC_CPU_WAITPIPE_BYPASS;
 1438              		.loc 1 830 0
 1439 002a 40F20403 		movw	r3, #:lower16:1074266116
 1440 002e C4F20803 		movt	r3, #:upper16:1074266116
 1441 0032 40F20402 		movw	r2, #:lower16:1074266116
 1442 0036 C4F20802 		movt	r2, #:upper16:1074266116
 1443 003a 1268     		ldr	r2, [r2, #0]
 1444 003c 42F00102 		orr	r2, r2, #1
 1445 0040 1A60     		str	r2, [r3, #0]
 831:.\Generated_Source\PSoC5/CySpc.c **** 
ARM GAS  C:\Users\csap2972\AppData\Local\Temp\cczsvW7p.s 			page 41


 832:.\Generated_Source\PSoC5/CySpc.c ****             /* At least 2 NOP instructions are recommended */
 833:.\Generated_Source\PSoC5/CySpc.c ****             CY_NOP;
 1446              		.loc 1 833 0
 1447              	@ 833 ".\Generated_Source\PSoC5\CySpc.c" 1
 1448 0042 00BF     		NOP
 1449              	
 1450              	@ 0 "" 2
 834:.\Generated_Source\PSoC5/CySpc.c ****             CY_NOP;
 1451              		.loc 1 834 0
 1452              	@ 834 ".\Generated_Source\PSoC5\CySpc.c" 1
 1453 0044 00BF     		NOP
 1454              	
 1455              	@ 0 "" 2
 835:.\Generated_Source\PSoC5/CySpc.c ****             CY_NOP;
 1456              		.loc 1 835 0
 1457              	@ 835 ".\Generated_Source\PSoC5\CySpc.c" 1
 1458 0046 00BF     		NOP
 1459              	
 1460              	@ 0 "" 2
 836:.\Generated_Source\PSoC5/CySpc.c **** 
 837:.\Generated_Source\PSoC5/CySpc.c ****             spcWaitPipeBypass = 0u;
 1461              		.loc 1 837 0
 1462              		.thumb
 1463 0048 40F20003 		movw	r3, #:lower16:spcWaitPipeBypass
 1464 004c C0F20003 		movt	r3, #:upper16:spcWaitPipeBypass
 1465 0050 4FF00002 		mov	r2, #0
 1466 0054 1A70     		strb	r2, [r3, #0]
 1467              	.L84:
 838:.\Generated_Source\PSoC5/CySpc.c ****         }
 839:.\Generated_Source\PSoC5/CySpc.c **** 
 840:.\Generated_Source\PSoC5/CySpc.c ****     #endif  /* (CY_PSOC5LP) */
 841:.\Generated_Source\PSoC5/CySpc.c **** 
 842:.\Generated_Source\PSoC5/CySpc.c ****     /* Exit critical section */
 843:.\Generated_Source\PSoC5/CySpc.c ****     CyExitCriticalSection(interruptState);
 1468              		.loc 1 843 0
 1469 0056 FB79     		ldrb	r3, [r7, #7]	@ zero_extendqisi2
 1470 0058 1846     		mov	r0, r3
 1471 005a FFF7FEFF 		bl	CyExitCriticalSection
 844:.\Generated_Source\PSoC5/CySpc.c **** }
 1472              		.loc 1 844 0
 1473 005e 07F10807 		add	r7, r7, #8
 1474 0062 BD46     		mov	sp, r7
 1475 0064 80BD     		pop	{r7, pc}
 1476              		.cfi_endproc
 1477              	.LFE14:
 1478              		.size	CySpcUnlock, .-CySpcUnlock
 1479 0066 00BF     		.text
 1480              	.Letext0: