ARM GAS  C:\Users\csap2972\AppData\Local\Temp\cczsvW7p.s 			page 1


   1              		.syntax unified
   2              		.cpu cortex-m3
   3              		.fpu softvfp
   4              		.eabi_attribute 20, 1
   5              		.eabi_attribute 21, 1
   6              		.eabi_attribute 23, 3
   7              		.eabi_attribute 24, 1
   8              		.eabi_attribute 25, 1
   9              		.eabi_attribute 26, 1
  10              		.eabi_attribute 30, 6
  11              		.eabi_attribute 18, 4
  12              		.thumb
  13              		.file	"CySpc.c"
  14              		.section	.debug_abbrev,"",%progbits
  15              	.Ldebug_abbrev0:
  16              		.section	.debug_info,"",%progbits
  17              	.Ldebug_info0:
  18              		.section	.debug_line,"",%progbits
  19              	.Ldebug_line0:
  20 0000 21020000 		.text
  20      02005E00 
  20      00000201 
  20      FB0E0D00 
  20      01010101 
  21              	.Ltext0:
  22              		.cfi_sections	.debug_frame
  23              		.global	SpcLockState
  24              		.bss
  25              		.type	SpcLockState, %object
  26              		.size	SpcLockState, 1
  27              	SpcLockState:
  28 0000 00       		.space	1
  29              		.global	spcWaitPipeBypass
  30              		.type	spcWaitPipeBypass, %object
  31              		.size	spcWaitPipeBypass, 1
  32              	spcWaitPipeBypass:
  33 0001 00       		.space	1
  34              		.section	.text.CySpcStart,"ax",%progbits
  35              		.align	2
  36              		.global	CySpcStart
  37              		.thumb
  38              		.thumb_func
  39              		.type	CySpcStart, %function
  40              	CySpcStart:
  41              	.LFB0:
  42              		.file 1 ".\\Generated_Source\\PSoC5\\CySpc.c"
   1:.\Generated_Source\PSoC5/CySpc.c **** /*******************************************************************************
   2:.\Generated_Source\PSoC5/CySpc.c **** * File Name: CySpc.c
   3:.\Generated_Source\PSoC5/CySpc.c **** * Version 3.20
   4:.\Generated_Source\PSoC5/CySpc.c **** *
   5:.\Generated_Source\PSoC5/CySpc.c **** *  Description:
   6:.\Generated_Source\PSoC5/CySpc.c **** *   Provides an API for the System Performance Component.
   7:.\Generated_Source\PSoC5/CySpc.c **** *   The SPC functions are not meant to be called directly by the user
   8:.\Generated_Source\PSoC5/CySpc.c **** *   application.
   9:.\Generated_Source\PSoC5/CySpc.c **** *
  10:.\Generated_Source\PSoC5/CySpc.c **** ********************************************************************************
  11:.\Generated_Source\PSoC5/CySpc.c **** * Copyright 2008-2012, Cypress Semiconductor Corporation.  All rights reserved.
ARM GAS  C:\Users\csap2972\AppData\Local\Temp\cczsvW7p.s 			page 2


  12:.\Generated_Source\PSoC5/CySpc.c **** * You may use this file only in accordance with the license, terms, conditions,
  13:.\Generated_Source\PSoC5/CySpc.c **** * disclaimers, and limitations in the end user license agreement accompanying
  14:.\Generated_Source\PSoC5/CySpc.c **** * the software package with which this file was provided.
  15:.\Generated_Source\PSoC5/CySpc.c **** *******************************************************************************/
  16:.\Generated_Source\PSoC5/CySpc.c **** 
  17:.\Generated_Source\PSoC5/CySpc.c **** #include "CySpc.h"
  18:.\Generated_Source\PSoC5/CySpc.c **** 
  19:.\Generated_Source\PSoC5/CySpc.c **** #define CY_SPC_KEY_ONE                      (0xB6u)
  20:.\Generated_Source\PSoC5/CySpc.c **** #define CY_SPC_KEY_TWO(x)                   ((uint8) (((uint16) 0xD3u) + ((uint16) (x))))
  21:.\Generated_Source\PSoC5/CySpc.c **** 
  22:.\Generated_Source\PSoC5/CySpc.c **** /* Command Codes */
  23:.\Generated_Source\PSoC5/CySpc.c **** #define CY_SPC_CMD_LD_BYTE                  (0x00u)
  24:.\Generated_Source\PSoC5/CySpc.c **** #define CY_SPC_CMD_LD_MULTI_BYTE            (0x01u)
  25:.\Generated_Source\PSoC5/CySpc.c **** #define CY_SPC_CMD_LD_ROW                   (0x02u)
  26:.\Generated_Source\PSoC5/CySpc.c **** #define CY_SPC_CMD_RD_BYTE                  (0x03u)
  27:.\Generated_Source\PSoC5/CySpc.c **** #define CY_SPC_CMD_RD_MULTI_BYTE            (0x04u)
  28:.\Generated_Source\PSoC5/CySpc.c **** #define CY_SPC_CMD_WR_ROW                   (0x05u)
  29:.\Generated_Source\PSoC5/CySpc.c **** #define CY_SPC_CMD_WR_USER_NVL              (0x06u)
  30:.\Generated_Source\PSoC5/CySpc.c **** #define CY_SPC_CMD_PRG_ROW                  (0x07u)
  31:.\Generated_Source\PSoC5/CySpc.c **** #define CY_SPC_CMD_ER_SECTOR                (0x08u)
  32:.\Generated_Source\PSoC5/CySpc.c **** #define CY_SPC_CMD_ER_ALL                   (0x09u)
  33:.\Generated_Source\PSoC5/CySpc.c **** #define CY_SPC_CMD_RD_HIDDEN                (0x0Au)
  34:.\Generated_Source\PSoC5/CySpc.c **** #define CY_SPC_CMD_PRG_PROTECT              (0x0Bu)
  35:.\Generated_Source\PSoC5/CySpc.c **** #define CY_SPC_CMD_CHECKSUM                 (0x0Cu)
  36:.\Generated_Source\PSoC5/CySpc.c **** #define CY_SPC_CMD_DWNLD_ALGORITHM          (0x0Du)
  37:.\Generated_Source\PSoC5/CySpc.c **** #define CY_SPC_CMD_GET_TEMP                 (0x0Eu)
  38:.\Generated_Source\PSoC5/CySpc.c **** #define CY_SPC_CMD_GET_ADC                  (0x0Fu)
  39:.\Generated_Source\PSoC5/CySpc.c **** #define CY_SPC_CMD_RD_NVL_VOLATILE          (0x10u)
  40:.\Generated_Source\PSoC5/CySpc.c **** #define CY_SPC_CMD_SETUP_TS                 (0x11u)
  41:.\Generated_Source\PSoC5/CySpc.c **** #define CY_SPC_CMD_DISABLE_TS               (0x12u)
  42:.\Generated_Source\PSoC5/CySpc.c **** #define CY_SPC_CMD_ER_ROW                   (0x13u)
  43:.\Generated_Source\PSoC5/CySpc.c **** 
  44:.\Generated_Source\PSoC5/CySpc.c **** /* Enable bit in Active and Alternate Active mode templates */
  45:.\Generated_Source\PSoC5/CySpc.c **** #define PM_SPC_PM_EN                        (0x08u)
  46:.\Generated_Source\PSoC5/CySpc.c **** 
  47:.\Generated_Source\PSoC5/CySpc.c **** #define CY_SPC_FLASH_SECTOR_ADDRES(x)       (0xFF & (x))
  48:.\Generated_Source\PSoC5/CySpc.c **** #define CY_SPC_EEPROM_SECTOR_ADDRESS(x)     (0x7F & (x))
  49:.\Generated_Source\PSoC5/CySpc.c **** 
  50:.\Generated_Source\PSoC5/CySpc.c **** /* Gate calls to the SPC. */
  51:.\Generated_Source\PSoC5/CySpc.c **** uint8 SpcLockState = CY_SPC_UNLOCKED;
  52:.\Generated_Source\PSoC5/CySpc.c **** 
  53:.\Generated_Source\PSoC5/CySpc.c **** 
  54:.\Generated_Source\PSoC5/CySpc.c **** #if(CY_PSOC5LP)
  55:.\Generated_Source\PSoC5/CySpc.c **** 
  56:.\Generated_Source\PSoC5/CySpc.c ****     /***************************************************************************
  57:.\Generated_Source\PSoC5/CySpc.c ****     * The wait-state pipeline must be enabled prior to accessing the SPC
  58:.\Generated_Source\PSoC5/CySpc.c ****     * register interface regardless of CPU frequency. The CySpcLock() saves
  59:.\Generated_Source\PSoC5/CySpc.c ****     * current wait-state pipeline state and enables it. The CySpcUnlock()
  60:.\Generated_Source\PSoC5/CySpc.c ****     * function, which must be called after SPC transaction, restores original
  61:.\Generated_Source\PSoC5/CySpc.c ****     * state.
  62:.\Generated_Source\PSoC5/CySpc.c ****     ***************************************************************************/
  63:.\Generated_Source\PSoC5/CySpc.c ****     uint8 spcWaitPipeBypass = 0u;
  64:.\Generated_Source\PSoC5/CySpc.c **** 
  65:.\Generated_Source\PSoC5/CySpc.c **** #endif  /* (CY_PSOC5LP) */
  66:.\Generated_Source\PSoC5/CySpc.c **** 
  67:.\Generated_Source\PSoC5/CySpc.c **** 
  68:.\Generated_Source\PSoC5/CySpc.c **** /*******************************************************************************
ARM GAS  C:\Users\csap2972\AppData\Local\Temp\cczsvW7p.s 			page 3


  69:.\Generated_Source\PSoC5/CySpc.c **** * Function Name: CySpcStart
  70:.\Generated_Source\PSoC5/CySpc.c **** ********************************************************************************
  71:.\Generated_Source\PSoC5/CySpc.c **** * Summary:
  72:.\Generated_Source\PSoC5/CySpc.c **** *  Starts the SPC.
  73:.\Generated_Source\PSoC5/CySpc.c **** *
  74:.\Generated_Source\PSoC5/CySpc.c **** * Parameters:
  75:.\Generated_Source\PSoC5/CySpc.c **** *  None
  76:.\Generated_Source\PSoC5/CySpc.c **** *
  77:.\Generated_Source\PSoC5/CySpc.c **** * Return:
  78:.\Generated_Source\PSoC5/CySpc.c **** *  None
  79:.\Generated_Source\PSoC5/CySpc.c **** *
  80:.\Generated_Source\PSoC5/CySpc.c **** *******************************************************************************/
  81:.\Generated_Source\PSoC5/CySpc.c **** void CySpcStart(void) 
  82:.\Generated_Source\PSoC5/CySpc.c **** {
  43              		.loc 1 82 0
  44              		.cfi_startproc
  45              		@ args = 0, pretend = 0, frame = 8
  46              		@ frame_needed = 1, uses_anonymous_args = 0
  47 0000 80B5     		push	{r7, lr}
  48              	.LCFI0:
  49              		.cfi_def_cfa_offset 8
  50 0002 82B0     		sub	sp, sp, #8
  51              	.LCFI1:
  52              		.cfi_def_cfa_offset 16
  53 0004 00AF     		add	r7, sp, #0
  54              		.cfi_offset 14, -4
  55              		.cfi_offset 7, -8
  56              	.LCFI2:
  57              		.cfi_def_cfa_register 7
  83:.\Generated_Source\PSoC5/CySpc.c ****     /* Save current global interrupt enable and disable it */
  84:.\Generated_Source\PSoC5/CySpc.c ****     uint8 interruptState = CyEnterCriticalSection();
  58              		.loc 1 84 0
  59 0006 FFF7FEFF 		bl	CyEnterCriticalSection
  60 000a 0346     		mov	r3, r0
  61 000c FB71     		strb	r3, [r7, #7]
  85:.\Generated_Source\PSoC5/CySpc.c **** 
  86:.\Generated_Source\PSoC5/CySpc.c ****     CY_SPC_PM_ACT_REG  |= PM_SPC_PM_EN;
  62              		.loc 1 86 0
  63 000e 44F2A033 		movw	r3, #:lower16:1073759136
  64 0012 C4F20003 		movt	r3, #:upper16:1073759136
  65 0016 44F2A032 		movw	r2, #:lower16:1073759136
  66 001a C4F20002 		movt	r2, #:upper16:1073759136
  67 001e 1278     		ldrb	r2, [r2, #0]
  68 0020 D2B2     		uxtb	r2, r2
  69 0022 42F00802 		orr	r2, r2, #8
  70 0026 D2B2     		uxtb	r2, r2
  71 0028 1A70     		strb	r2, [r3, #0]
  87:.\Generated_Source\PSoC5/CySpc.c ****     CY_SPC_PM_STBY_REG |= PM_SPC_PM_EN;
  72              		.loc 1 87 0
  73 002a 44F2B033 		movw	r3, #:lower16:1073759152
  74 002e C4F20003 		movt	r3, #:upper16:1073759152
  75 0032 44F2B032 		movw	r2, #:lower16:1073759152
  76 0036 C4F20002 		movt	r2, #:upper16:1073759152
  77 003a 1278     		ldrb	r2, [r2, #0]
  78 003c D2B2     		uxtb	r2, r2
  79 003e 42F00802 		orr	r2, r2, #8
  80 0042 D2B2     		uxtb	r2, r2
ARM GAS  C:\Users\csap2972\AppData\Local\Temp\cczsvW7p.s 			page 4


  81 0044 1A70     		strb	r2, [r3, #0]
  88:.\Generated_Source\PSoC5/CySpc.c **** 
  89:.\Generated_Source\PSoC5/CySpc.c ****     /* Restore global interrupt enable state */
  90:.\Generated_Source\PSoC5/CySpc.c ****     CyExitCriticalSection(interruptState);
  82              		.loc 1 90 0
  83 0046 FB79     		ldrb	r3, [r7, #7]	@ zero_extendqisi2
  84 0048 1846     		mov	r0, r3
  85 004a FFF7FEFF 		bl	CyExitCriticalSection
  91:.\Generated_Source\PSoC5/CySpc.c **** }
  86              		.loc 1 91 0
  87 004e 07F10807 		add	r7, r7, #8
  88 0052 BD46     		mov	sp, r7
  89 0054 80BD     		pop	{r7, pc}
  90              		.cfi_endproc
  91              	.LFE0:
  92              		.size	CySpcStart, .-CySpcStart
  93 0056 00BF     		.section	.text.CySpcStop,"ax",%progbits
  94              		.align	2
  95              		.global	CySpcStop
  96              		.thumb
  97              		.thumb_func
  98              		.type	CySpcStop, %function
  99              	CySpcStop:
 100              	.LFB1:
  92:.\Generated_Source\PSoC5/CySpc.c **** 
  93:.\Generated_Source\PSoC5/CySpc.c **** 
  94:.\Generated_Source\PSoC5/CySpc.c **** /*******************************************************************************
  95:.\Generated_Source\PSoC5/CySpc.c **** * Function Name: CySpcStop
  96:.\Generated_Source\PSoC5/CySpc.c **** ********************************************************************************
  97:.\Generated_Source\PSoC5/CySpc.c **** * Summary:
  98:.\Generated_Source\PSoC5/CySpc.c **** *  Stops the SPC.
  99:.\Generated_Source\PSoC5/CySpc.c **** *
 100:.\Generated_Source\PSoC5/CySpc.c **** * Parameters:
 101:.\Generated_Source\PSoC5/CySpc.c **** *  None
 102:.\Generated_Source\PSoC5/CySpc.c **** *
 103:.\Generated_Source\PSoC5/CySpc.c **** * Return:
 104:.\Generated_Source\PSoC5/CySpc.c **** *  None
 105:.\Generated_Source\PSoC5/CySpc.c **** *
 106:.\Generated_Source\PSoC5/CySpc.c **** *******************************************************************************/
 107:.\Generated_Source\PSoC5/CySpc.c **** void CySpcStop(void) 
 108:.\Generated_Source\PSoC5/CySpc.c **** {
 101              		.loc 1 108 0
 102              		.cfi_startproc
 103              		@ args = 0, pretend = 0, frame = 8
 104              		@ frame_needed = 1, uses_anonymous_args = 0
 105 0000 80B5     		push	{r7, lr}
 106              	.LCFI3:
 107              		.cfi_def_cfa_offset 8
 108 0002 82B0     		sub	sp, sp, #8
 109              	.LCFI4:
 110              		.cfi_def_cfa_offset 16
 111 0004 00AF     		add	r7, sp, #0
 112              		.cfi_offset 14, -4
 113              		.cfi_offset 7, -8
 114              	.LCFI5:
 115              		.cfi_def_cfa_register 7
 109:.\Generated_Source\PSoC5/CySpc.c ****     /* Save current global interrupt enable and disable it */
ARM GAS  C:\Users\csap2972\AppData\Local\Temp\cczsvW7p.s 			page 5


 110:.\Generated_Source\PSoC5/CySpc.c ****     uint8 interruptState = CyEnterCriticalSection();
 116              		.loc 1 110 0
 117 0006 FFF7FEFF 		bl	CyEnterCriticalSection
 118 000a 0346     		mov	r3, r0
 119 000c FB71     		strb	r3, [r7, #7]
 111:.\Generated_Source\PSoC5/CySpc.c **** 
 112:.\Generated_Source\PSoC5/CySpc.c ****     CY_SPC_PM_ACT_REG  &= ~PM_SPC_PM_EN;
 120              		.loc 1 112 0
 121 000e 44F2A033 		movw	r3, #:lower16:1073759136
 122 0012 C4F20003 		movt	r3, #:upper16:1073759136
 123 0016 44F2A032 		movw	r2, #:lower16:1073759136
 124 001a C4F20002 		movt	r2, #:upper16:1073759136
 125 001e 1278     		ldrb	r2, [r2, #0]
 126 0020 D2B2     		uxtb	r2, r2
 127 0022 02F0F702 		and	r2, r2, #247
 128 0026 1A70     		strb	r2, [r3, #0]
 113:.\Generated_Source\PSoC5/CySpc.c ****     CY_SPC_PM_STBY_REG &= ~PM_SPC_PM_EN;
 129              		.loc 1 113 0
 130 0028 44F2B033 		movw	r3, #:lower16:1073759152
 131 002c C4F20003 		movt	r3, #:upper16:1073759152
 132 0030 44F2B032 		movw	r2, #:lower16:1073759152
 133 0034 C4F20002 		movt	r2, #:upper16:1073759152
 134 0038 1278     		ldrb	r2, [r2, #0]
 135 003a D2B2     		uxtb	r2, r2
 136 003c 02F0F702 		and	r2, r2, #247
 137 0040 1A70     		strb	r2, [r3, #0]
 114:.\Generated_Source\PSoC5/CySpc.c **** 
 115:.\Generated_Source\PSoC5/CySpc.c ****     /* Restore global interrupt enable state */
 116:.\Generated_Source\PSoC5/CySpc.c ****     CyExitCriticalSection(interruptState);
 138              		.loc 1 116 0
 139 0042 FB79     		ldrb	r3, [r7, #7]	@ zero_extendqisi2
 140 0044 1846     		mov	r0, r3
 141 0046 FFF7FEFF 		bl	CyExitCriticalSection
 117:.\Generated_Source\PSoC5/CySpc.c **** }
 142              		.loc 1 117 0
 143 004a 07F10807 		add	r7, r7, #8
 144 004e BD46     		mov	sp, r7
 145 0050 80BD     		pop	{r7, pc}
 146              		.cfi_endproc
 147              	.LFE1:
 148              		.size	CySpcStop, .-CySpcStop
 149 0052 00BF     		.section	.text.CySpcReadData,"ax",%progbits
 150              		.align	2
 151              		.global	CySpcReadData
 152              		.thumb
 153              		.thumb_func
 154              		.type	CySpcReadData, %function
 155              	CySpcReadData:
 156              	.LFB2:
 118:.\Generated_Source\PSoC5/CySpc.c **** 
 119:.\Generated_Source\PSoC5/CySpc.c **** 
 120:.\Generated_Source\PSoC5/CySpc.c **** /*******************************************************************************
 121:.\Generated_Source\PSoC5/CySpc.c **** * Function Name: CySpcReadData
 122:.\Generated_Source\PSoC5/CySpc.c **** ********************************************************************************
 123:.\Generated_Source\PSoC5/CySpc.c **** * Summary:
 124:.\Generated_Source\PSoC5/CySpc.c **** *  Reads data from the SPC.
 125:.\Generated_Source\PSoC5/CySpc.c **** *
ARM GAS  C:\Users\csap2972\AppData\Local\Temp\cczsvW7p.s 			page 6


 126:.\Generated_Source\PSoC5/CySpc.c **** * Parameters:
 127:.\Generated_Source\PSoC5/CySpc.c **** *  uint8 buffer:
 128:.\Generated_Source\PSoC5/CySpc.c **** *   Address to store data read.
 129:.\Generated_Source\PSoC5/CySpc.c **** *
 130:.\Generated_Source\PSoC5/CySpc.c **** *  uint8 size:
 131:.\Generated_Source\PSoC5/CySpc.c **** *   Number of bytes to read from the SPC.
 132:.\Generated_Source\PSoC5/CySpc.c **** *
 133:.\Generated_Source\PSoC5/CySpc.c **** * Return:
 134:.\Generated_Source\PSoC5/CySpc.c **** *  uint8:
 135:.\Generated_Source\PSoC5/CySpc.c **** *   The number of bytes read from the SPC.
 136:.\Generated_Source\PSoC5/CySpc.c **** *
 137:.\Generated_Source\PSoC5/CySpc.c **** *******************************************************************************/
 138:.\Generated_Source\PSoC5/CySpc.c **** uint8 CySpcReadData(uint8 *buffer, uint8 size) 
 139:.\Generated_Source\PSoC5/CySpc.c **** {
 157              		.loc 1 139 0
 158              		.cfi_startproc
 159              		@ args = 0, pretend = 0, frame = 16
 160              		@ frame_needed = 1, uses_anonymous_args = 0
 161 0000 80B5     		push	{r7, lr}
 162              	.LCFI6:
 163              		.cfi_def_cfa_offset 8
 164 0002 84B0     		sub	sp, sp, #16
 165              	.LCFI7:
 166              		.cfi_def_cfa_offset 24
 167 0004 00AF     		add	r7, sp, #0
 168              		.cfi_offset 14, -4
 169              		.cfi_offset 7, -8
 170              	.LCFI8:
 171              		.cfi_def_cfa_register 7
 172 0006 7860     		str	r0, [r7, #4]
 173 0008 0B46     		mov	r3, r1
 174 000a FB70     		strb	r3, [r7, #3]
 140:.\Generated_Source\PSoC5/CySpc.c ****     uint8 i;
 141:.\Generated_Source\PSoC5/CySpc.c **** 
 142:.\Generated_Source\PSoC5/CySpc.c ****     for(i = 0u; i < size; i++)
 175              		.loc 1 142 0
 176 000c 4FF00003 		mov	r3, #0
 177 0010 FB73     		strb	r3, [r7, #15]
 178 0012 1DE0     		b	.L6
 179              	.L8:
 143:.\Generated_Source\PSoC5/CySpc.c ****     {
 144:.\Generated_Source\PSoC5/CySpc.c ****         while(!CY_SPC_DATA_READY)
 145:.\Generated_Source\PSoC5/CySpc.c ****         {
 146:.\Generated_Source\PSoC5/CySpc.c ****             CyDelayUs(1u);
 180              		.loc 1 146 0
 181 0014 4FF00100 		mov	r0, #1
 182 0018 FFF7FEFF 		bl	CyDelayUs
 183 001c 00E0     		b	.L7
 184              	.L11:
 185              		.loc 1 144 0
 186 001e 00BF     		nop
 187              	.L7:
 188 0020 44F22273 		movw	r3, #:lower16:1073760034
 189 0024 C4F20003 		movt	r3, #:upper16:1073760034
 190 0028 1B78     		ldrb	r3, [r3, #0]
 191 002a DBB2     		uxtb	r3, r3
 192 002c 03F00103 		and	r3, r3, #1
ARM GAS  C:\Users\csap2972\AppData\Local\Temp\cczsvW7p.s 			page 7


 193 0030 002B     		cmp	r3, #0
 194 0032 EFD0     		beq	.L8
 147:.\Generated_Source\PSoC5/CySpc.c ****         }
 148:.\Generated_Source\PSoC5/CySpc.c ****         buffer[i] = CY_SPC_CPU_DATA_REG;
 195              		.loc 1 148 0
 196 0034 FA7B     		ldrb	r2, [r7, #15]	@ zero_extendqisi2
 197 0036 7B68     		ldr	r3, [r7, #4]
 198 0038 1A44     		add	r2, r2, r3
 199 003a 44F22073 		movw	r3, #:lower16:1073760032
 200 003e C4F20003 		movt	r3, #:upper16:1073760032
 201 0042 1B78     		ldrb	r3, [r3, #0]
 202 0044 DBB2     		uxtb	r3, r3
 203 0046 1370     		strb	r3, [r2, #0]
 204              		.loc 1 142 0
 205 0048 FB7B     		ldrb	r3, [r7, #15]
 206 004a 03F10103 		add	r3, r3, #1
 207 004e FB73     		strb	r3, [r7, #15]
 208              	.L6:
 209 0050 FA7B     		ldrb	r2, [r7, #15]	@ zero_extendqisi2
 210 0052 FB78     		ldrb	r3, [r7, #3]	@ zero_extendqisi2
 211 0054 9A42     		cmp	r2, r3
 212 0056 E2D3     		bcc	.L11
 149:.\Generated_Source\PSoC5/CySpc.c ****     }
 150:.\Generated_Source\PSoC5/CySpc.c **** 
 151:.\Generated_Source\PSoC5/CySpc.c ****     return(i);
 213              		.loc 1 151 0
 214 0058 FB7B     		ldrb	r3, [r7, #15]	@ zero_extendqisi2
 152:.\Generated_Source\PSoC5/CySpc.c **** }
 215              		.loc 1 152 0
 216 005a 1846     		mov	r0, r3
 217 005c 07F11007 		add	r7, r7, #16
 218 0060 BD46     		mov	sp, r7
 219 0062 80BD     		pop	{r7, pc}
 220              		.cfi_endproc
 221              	.LFE2:
 222              		.size	CySpcReadData, .-CySpcReadData
 223              		.section	.text.CySpcLoadMultiByte,"ax",%progbits
 224              		.align	2
 225              		.global	CySpcLoadMultiByte
 226              		.thumb
 227              		.thumb_func
 228              		.type	CySpcLoadMultiByte, %function
 229              	CySpcLoadMultiByte:
 230              	.LFB3:
 153:.\Generated_Source\PSoC5/CySpc.c **** 
 154:.\Generated_Source\PSoC5/CySpc.c **** 
 155:.\Generated_Source\PSoC5/CySpc.c **** /*******************************************************************************
 156:.\Generated_Source\PSoC5/CySpc.c **** * Function Name: CySpcLoadMultiByte
 157:.\Generated_Source\PSoC5/CySpc.c **** ********************************************************************************
 158:.\Generated_Source\PSoC5/CySpc.c **** * Summary:
 159:.\Generated_Source\PSoC5/CySpc.c **** *  Loads 1 to 32 bytes of data into the row latch of a Flash/EEPROM array.
 160:.\Generated_Source\PSoC5/CySpc.c **** *
 161:.\Generated_Source\PSoC5/CySpc.c **** * Parameters:
 162:.\Generated_Source\PSoC5/CySpc.c **** *  uint8 array:
 163:.\Generated_Source\PSoC5/CySpc.c **** *   Id of the array.
 164:.\Generated_Source\PSoC5/CySpc.c **** *
 165:.\Generated_Source\PSoC5/CySpc.c **** *  uint16 address:
ARM GAS  C:\Users\csap2972\AppData\Local\Temp\cczsvW7p.s 			page 8


 166:.\Generated_Source\PSoC5/CySpc.c **** *   Flash/eeprom addrress
 167:.\Generated_Source\PSoC5/CySpc.c **** *
 168:.\Generated_Source\PSoC5/CySpc.c **** *  uint8* buffer:
 169:.\Generated_Source\PSoC5/CySpc.c **** *   Data to load to the row latch
 170:.\Generated_Source\PSoC5/CySpc.c **** *
 171:.\Generated_Source\PSoC5/CySpc.c **** *  uint16 number:
 172:.\Generated_Source\PSoC5/CySpc.c **** *   Number bytes to load.
 173:.\Generated_Source\PSoC5/CySpc.c **** *
 174:.\Generated_Source\PSoC5/CySpc.c **** * Return:
 175:.\Generated_Source\PSoC5/CySpc.c **** *  CYRET_STARTED
 176:.\Generated_Source\PSoC5/CySpc.c **** *  CYRET_CANCELED
 177:.\Generated_Source\PSoC5/CySpc.c **** *  CYRET_LOCKED
 178:.\Generated_Source\PSoC5/CySpc.c **** *  CYRET_BAD_PARAM
 179:.\Generated_Source\PSoC5/CySpc.c **** *
 180:.\Generated_Source\PSoC5/CySpc.c **** *******************************************************************************/
 181:.\Generated_Source\PSoC5/CySpc.c **** cystatus CySpcLoadMultiByte(uint8 array, uint16 address, const uint8* buffer, uint8 size) 
 182:.\Generated_Source\PSoC5/CySpc.c **** {
 231              		.loc 1 182 0
 232              		.cfi_startproc
 233              		@ args = 0, pretend = 0, frame = 24
 234              		@ frame_needed = 1, uses_anonymous_args = 0
 235              		@ link register save eliminated.
 236 0000 80B4     		push	{r7}
 237              	.LCFI9:
 238              		.cfi_def_cfa_offset 4
 239 0002 87B0     		sub	sp, sp, #28
 240              	.LCFI10:
 241              		.cfi_def_cfa_offset 32
 242 0004 00AF     		add	r7, sp, #0
 243              		.cfi_offset 7, -4
 244              	.LCFI11:
 245              		.cfi_def_cfa_register 7
 246 0006 BA60     		str	r2, [r7, #8]
 247 0008 0246     		mov	r2, r0
 248 000a FA73     		strb	r2, [r7, #15]
 249 000c 0A46     		mov	r2, r1	@ movhi
 250 000e BA81     		strh	r2, [r7, #12]	@ movhi
 251 0010 FB71     		strb	r3, [r7, #7]
 183:.\Generated_Source\PSoC5/CySpc.c ****     cystatus status = CYRET_STARTED;
 252              		.loc 1 183 0
 253 0012 4FF00703 		mov	r3, #7
 254 0016 3B61     		str	r3, [r7, #16]
 184:.\Generated_Source\PSoC5/CySpc.c ****     uint8 i;
 185:.\Generated_Source\PSoC5/CySpc.c **** 
 186:.\Generated_Source\PSoC5/CySpc.c ****     /***************************************************************************
 187:.\Generated_Source\PSoC5/CySpc.c ****     * Check if number is correct for array. Number must be less than
 188:.\Generated_Source\PSoC5/CySpc.c ****     * 32 for Flash or less than 16 for EEPROM.
 189:.\Generated_Source\PSoC5/CySpc.c ****     ***************************************************************************/
 190:.\Generated_Source\PSoC5/CySpc.c ****     if(((array < CY_SPC_LAST_FLASH_ARRAYID) && (size < 32)) ||
 255              		.loc 1 190 0
 256 0018 FB7B     		ldrb	r3, [r7, #15]	@ zero_extendqisi2
 257 001a 3E2B     		cmp	r3, #62
 258 001c 02D8     		bhi	.L13
 259 001e FB79     		ldrb	r3, [r7, #7]	@ zero_extendqisi2
 260 0020 1F2B     		cmp	r3, #31
 261 0022 05D9     		bls	.L14
 262              	.L13:
ARM GAS  C:\Users\csap2972\AppData\Local\Temp\cczsvW7p.s 			page 9


 263 0024 FB7B     		ldrb	r3, [r7, #15]	@ zero_extendqisi2
 264 0026 3F2B     		cmp	r3, #63
 265 0028 6BD9     		bls	.L15
 266 002a FB79     		ldrb	r3, [r7, #7]	@ zero_extendqisi2
 267 002c 0F2B     		cmp	r3, #15
 268 002e 68D8     		bhi	.L15
 269              	.L14:
 191:.\Generated_Source\PSoC5/CySpc.c ****        ((array > CY_SPC_LAST_FLASH_ARRAYID) && (size < 16)))
 192:.\Generated_Source\PSoC5/CySpc.c ****     {
 193:.\Generated_Source\PSoC5/CySpc.c ****         if(CY_SPC_IDLE)
 270              		.loc 1 193 0
 271 0030 44F22273 		movw	r3, #:lower16:1073760034
 272 0034 C4F20003 		movt	r3, #:upper16:1073760034
 273 0038 1B78     		ldrb	r3, [r3, #0]
 274 003a DBB2     		uxtb	r3, r3
 275 003c 03F00203 		and	r3, r3, #2
 276 0040 002B     		cmp	r3, #0
 277 0042 5AD0     		beq	.L16
 194:.\Generated_Source\PSoC5/CySpc.c ****         {
 195:.\Generated_Source\PSoC5/CySpc.c ****             CY_SPC_CPU_DATA_REG = CY_SPC_KEY_ONE;
 278              		.loc 1 195 0
 279 0044 44F22073 		movw	r3, #:lower16:1073760032
 280 0048 C4F20003 		movt	r3, #:upper16:1073760032
 281 004c 6FF04902 		mvn	r2, #73
 282 0050 1A70     		strb	r2, [r3, #0]
 196:.\Generated_Source\PSoC5/CySpc.c ****             CY_SPC_CPU_DATA_REG = CY_SPC_KEY_TWO(CY_SPC_CMD_LD_MULTI_BYTE);
 283              		.loc 1 196 0
 284 0052 44F22073 		movw	r3, #:lower16:1073760032
 285 0056 C4F20003 		movt	r3, #:upper16:1073760032
 286 005a 6FF02B02 		mvn	r2, #43
 287 005e 1A70     		strb	r2, [r3, #0]
 197:.\Generated_Source\PSoC5/CySpc.c ****             CY_SPC_CPU_DATA_REG = CY_SPC_CMD_LD_MULTI_BYTE;
 288              		.loc 1 197 0
 289 0060 44F22073 		movw	r3, #:lower16:1073760032
 290 0064 C4F20003 		movt	r3, #:upper16:1073760032
 291 0068 4FF00102 		mov	r2, #1
 292 006c 1A70     		strb	r2, [r3, #0]
 198:.\Generated_Source\PSoC5/CySpc.c **** 
 199:.\Generated_Source\PSoC5/CySpc.c ****             if(CY_SPC_BUSY)
 293              		.loc 1 199 0
 294 006e 44F22273 		movw	r3, #:lower16:1073760034
 295 0072 C4F20003 		movt	r3, #:upper16:1073760034
 296 0076 1B78     		ldrb	r3, [r3, #0]
 297 0078 DBB2     		uxtb	r3, r3
 298 007a 03F00203 		and	r3, r3, #2
 299 007e 002B     		cmp	r3, #0
 300 0080 37D1     		bne	.L17
 200:.\Generated_Source\PSoC5/CySpc.c ****             {
 201:.\Generated_Source\PSoC5/CySpc.c ****                 CY_SPC_CPU_DATA_REG = array;
 301              		.loc 1 201 0
 302 0082 44F22073 		movw	r3, #:lower16:1073760032
 303 0086 C4F20003 		movt	r3, #:upper16:1073760032
 304 008a FA7B     		ldrb	r2, [r7, #15]
 305 008c 1A70     		strb	r2, [r3, #0]
 202:.\Generated_Source\PSoC5/CySpc.c ****                 CY_SPC_CPU_DATA_REG = 1u & HI8(address);
 306              		.loc 1 202 0
 307 008e 44F22073 		movw	r3, #:lower16:1073760032
ARM GAS  C:\Users\csap2972\AppData\Local\Temp\cczsvW7p.s 			page 10


 308 0092 C4F20003 		movt	r3, #:upper16:1073760032
 309 0096 BA89     		ldrh	r2, [r7, #12]
 310 0098 4FEA1222 		lsr	r2, r2, #8
 311 009c 92B2     		uxth	r2, r2
 312 009e D2B2     		uxtb	r2, r2
 313 00a0 02F00102 		and	r2, r2, #1
 314 00a4 1A70     		strb	r2, [r3, #0]
 203:.\Generated_Source\PSoC5/CySpc.c ****                 CY_SPC_CPU_DATA_REG = LO8(address);
 315              		.loc 1 203 0
 316 00a6 44F22073 		movw	r3, #:lower16:1073760032
 317 00aa C4F20003 		movt	r3, #:upper16:1073760032
 318 00ae BA89     		ldrh	r2, [r7, #12]	@ movhi
 319 00b0 D2B2     		uxtb	r2, r2
 320 00b2 1A70     		strb	r2, [r3, #0]
 204:.\Generated_Source\PSoC5/CySpc.c ****                 CY_SPC_CPU_DATA_REG = size - 1u;
 321              		.loc 1 204 0
 322 00b4 44F22073 		movw	r3, #:lower16:1073760032
 323 00b8 C4F20003 		movt	r3, #:upper16:1073760032
 324 00bc FA79     		ldrb	r2, [r7, #7]
 325 00be 02F1FF32 		add	r2, r2, #-1
 326 00c2 D2B2     		uxtb	r2, r2
 327 00c4 1A70     		strb	r2, [r3, #0]
 205:.\Generated_Source\PSoC5/CySpc.c **** 
 206:.\Generated_Source\PSoC5/CySpc.c ****                 for(i = 0u; i < size; i++)
 328              		.loc 1 206 0
 329 00c6 4FF00003 		mov	r3, #0
 330 00ca FB75     		strb	r3, [r7, #23]
 331 00cc 0CE0     		b	.L18
 332              	.L19:
 207:.\Generated_Source\PSoC5/CySpc.c ****                 {
 208:.\Generated_Source\PSoC5/CySpc.c ****                     CY_SPC_CPU_DATA_REG = buffer[i];
 333              		.loc 1 208 0
 334 00ce 44F22073 		movw	r3, #:lower16:1073760032
 335 00d2 C4F20003 		movt	r3, #:upper16:1073760032
 336 00d6 F97D     		ldrb	r1, [r7, #23]	@ zero_extendqisi2
 337 00d8 BA68     		ldr	r2, [r7, #8]
 338 00da 0A44     		add	r2, r1, r2
 339 00dc 1278     		ldrb	r2, [r2, #0]	@ zero_extendqisi2
 340 00de 1A70     		strb	r2, [r3, #0]
 341              		.loc 1 206 0
 342 00e0 FB7D     		ldrb	r3, [r7, #23]
 343 00e2 03F10103 		add	r3, r3, #1
 344 00e6 FB75     		strb	r3, [r7, #23]
 345              	.L18:
 346 00e8 FA7D     		ldrb	r2, [r7, #23]	@ zero_extendqisi2
 347 00ea FB79     		ldrb	r3, [r7, #7]	@ zero_extendqisi2
 348 00ec 9A42     		cmp	r2, r3
 349 00ee EED3     		bcc	.L19
 350              		.loc 1 190 0
 351 00f0 0AE0     		b	.L22
 352              	.L17:
 209:.\Generated_Source\PSoC5/CySpc.c ****                 }
 210:.\Generated_Source\PSoC5/CySpc.c ****             }
 211:.\Generated_Source\PSoC5/CySpc.c ****             else
 212:.\Generated_Source\PSoC5/CySpc.c ****             {
 213:.\Generated_Source\PSoC5/CySpc.c ****                 status = CYRET_CANCELED;
 353              		.loc 1 213 0
ARM GAS  C:\Users\csap2972\AppData\Local\Temp\cczsvW7p.s 			page 11


 354 00f2 4FF00903 		mov	r3, #9
 355 00f6 3B61     		str	r3, [r7, #16]
 356              		.loc 1 190 0
 357 00f8 06E0     		b	.L22
 358              	.L16:
 214:.\Generated_Source\PSoC5/CySpc.c ****             }
 215:.\Generated_Source\PSoC5/CySpc.c ****         }
 216:.\Generated_Source\PSoC5/CySpc.c ****         else
 217:.\Generated_Source\PSoC5/CySpc.c ****         {
 218:.\Generated_Source\PSoC5/CySpc.c ****             status = CYRET_LOCKED;
 359              		.loc 1 218 0
 360 00fa 4FF00403 		mov	r3, #4
 361 00fe 3B61     		str	r3, [r7, #16]
 362              		.loc 1 190 0
 363 0100 02E0     		b	.L22
 364              	.L15:
 219:.\Generated_Source\PSoC5/CySpc.c ****         }
 220:.\Generated_Source\PSoC5/CySpc.c ****     }
 221:.\Generated_Source\PSoC5/CySpc.c ****     else
 222:.\Generated_Source\PSoC5/CySpc.c ****     {
 223:.\Generated_Source\PSoC5/CySpc.c ****         status = CYRET_BAD_PARAM;
 365              		.loc 1 223 0
 366 0102 4FF00103 		mov	r3, #1
 367 0106 3B61     		str	r3, [r7, #16]
 368              	.L22:
 224:.\Generated_Source\PSoC5/CySpc.c ****     }
 225:.\Generated_Source\PSoC5/CySpc.c **** 
 226:.\Generated_Source\PSoC5/CySpc.c ****     return(status);
 369              		.loc 1 226 0
 370 0108 3B69     		ldr	r3, [r7, #16]
 227:.\Generated_Source\PSoC5/CySpc.c **** }
 371              		.loc 1 227 0
 372 010a 1846     		mov	r0, r3
 373 010c 07F11C07 		add	r7, r7, #28
 374 0110 BD46     		mov	sp, r7
 375 0112 80BC     		pop	{r7}
 376 0114 7047     		bx	lr
 377              		.cfi_endproc
 378              	.LFE3:
 379              		.size	CySpcLoadMultiByte, .-CySpcLoadMultiByte
 380 0116 00BF     		.section	.text.CySpcLoadRow,"ax",%progbits
 381              		.align	2
 382              		.global	CySpcLoadRow
 383              		.thumb
 384              		.thumb_func
 385              		.type	CySpcLoadRow, %function
 386              	CySpcLoadRow:
 387              	.LFB4:
 228:.\Generated_Source\PSoC5/CySpc.c **** 
 229:.\Generated_Source\PSoC5/CySpc.c **** 
 230:.\Generated_Source\PSoC5/CySpc.c **** /*******************************************************************************
 231:.\Generated_Source\PSoC5/CySpc.c **** * Function Name: CySpcLoadRow
 232:.\Generated_Source\PSoC5/CySpc.c **** ********************************************************************************
 233:.\Generated_Source\PSoC5/CySpc.c **** * Summary:
 234:.\Generated_Source\PSoC5/CySpc.c **** *  Loads a row of data into the row latch of a Flash/EEPROM array.
 235:.\Generated_Source\PSoC5/CySpc.c **** *
 236:.\Generated_Source\PSoC5/CySpc.c **** * Parameters:
ARM GAS  C:\Users\csap2972\AppData\Local\Temp\cczsvW7p.s 			page 12


 237:.\Generated_Source\PSoC5/CySpc.c **** *  uint8 array:
 238:.\Generated_Source\PSoC5/CySpc.c **** *   Id of the array.
 239:.\Generated_Source\PSoC5/CySpc.c **** *
 240:.\Generated_Source\PSoC5/CySpc.c **** *  uint8* buffer:
 241:.\Generated_Source\PSoC5/CySpc.c **** *   Data to be loaded to the row latch
 242:.\Generated_Source\PSoC5/CySpc.c **** *
 243:.\Generated_Source\PSoC5/CySpc.c **** *  uint8 size:
 244:.\Generated_Source\PSoC5/CySpc.c **** *   The number of data bytes that the SPC expects to be written. Depends on the
 245:.\Generated_Source\PSoC5/CySpc.c **** *   type of the array and, if the array is Flash, whether ECC is being enabled
 246:.\Generated_Source\PSoC5/CySpc.c **** *   or not. There are following values: flash row latch size with ECC enabled,
 247:.\Generated_Source\PSoC5/CySpc.c **** *   flash row latch size with ECC disabled and EEPROM row latch size.
 248:.\Generated_Source\PSoC5/CySpc.c **** *
 249:.\Generated_Source\PSoC5/CySpc.c **** * Return:
 250:.\Generated_Source\PSoC5/CySpc.c **** *  CYRET_STARTED
 251:.\Generated_Source\PSoC5/CySpc.c **** *  CYRET_CANCELED
 252:.\Generated_Source\PSoC5/CySpc.c **** *  CYRET_LOCKED
 253:.\Generated_Source\PSoC5/CySpc.c **** *
 254:.\Generated_Source\PSoC5/CySpc.c **** *******************************************************************************/
 255:.\Generated_Source\PSoC5/CySpc.c **** cystatus CySpcLoadRow(uint8 array, const uint8* buffer, uint16 size)
 256:.\Generated_Source\PSoC5/CySpc.c **** {
 388              		.loc 1 256 0
 389              		.cfi_startproc
 390              		@ args = 0, pretend = 0, frame = 24
 391              		@ frame_needed = 1, uses_anonymous_args = 0
 392              		@ link register save eliminated.
 393 0000 80B4     		push	{r7}
 394              	.LCFI12:
 395              		.cfi_def_cfa_offset 4
 396 0002 87B0     		sub	sp, sp, #28
 397              	.LCFI13:
 398              		.cfi_def_cfa_offset 32
 399 0004 00AF     		add	r7, sp, #0
 400              		.cfi_offset 7, -4
 401              	.LCFI14:
 402              		.cfi_def_cfa_register 7
 403 0006 B960     		str	r1, [r7, #8]
 404 0008 1346     		mov	r3, r2
 405 000a 0246     		mov	r2, r0
 406 000c FA73     		strb	r2, [r7, #15]
 407 000e FB80     		strh	r3, [r7, #6]	@ movhi
 257:.\Generated_Source\PSoC5/CySpc.c ****     cystatus status = CYRET_STARTED;
 408              		.loc 1 257 0
 409 0010 4FF00703 		mov	r3, #7
 410 0014 3B61     		str	r3, [r7, #16]
 258:.\Generated_Source\PSoC5/CySpc.c ****     uint16 i;
 259:.\Generated_Source\PSoC5/CySpc.c **** 
 260:.\Generated_Source\PSoC5/CySpc.c ****     /* Make sure the SPC is ready to accept command */
 261:.\Generated_Source\PSoC5/CySpc.c ****     if(CY_SPC_IDLE)
 411              		.loc 1 261 0
 412 0016 44F22273 		movw	r3, #:lower16:1073760034
 413 001a C4F20003 		movt	r3, #:upper16:1073760034
 414 001e 1B78     		ldrb	r3, [r3, #0]
 415 0020 DBB2     		uxtb	r3, r3
 416 0022 03F00203 		and	r3, r3, #2
 417 0026 002B     		cmp	r3, #0
 418 0028 3ED0     		beq	.L25
 262:.\Generated_Source\PSoC5/CySpc.c ****     {
ARM GAS  C:\Users\csap2972\AppData\Local\Temp\cczsvW7p.s 			page 13


 263:.\Generated_Source\PSoC5/CySpc.c ****         CY_SPC_CPU_DATA_REG = CY_SPC_KEY_ONE;
 419              		.loc 1 263 0
 420 002a 44F22073 		movw	r3, #:lower16:1073760032
 421 002e C4F20003 		movt	r3, #:upper16:1073760032
 422 0032 6FF04902 		mvn	r2, #73
 423 0036 1A70     		strb	r2, [r3, #0]
 264:.\Generated_Source\PSoC5/CySpc.c ****         CY_SPC_CPU_DATA_REG = CY_SPC_KEY_TWO(CY_SPC_CMD_LD_ROW);
 424              		.loc 1 264 0
 425 0038 44F22073 		movw	r3, #:lower16:1073760032
 426 003c C4F20003 		movt	r3, #:upper16:1073760032
 427 0040 6FF02A02 		mvn	r2, #42
 428 0044 1A70     		strb	r2, [r3, #0]
 265:.\Generated_Source\PSoC5/CySpc.c ****         CY_SPC_CPU_DATA_REG = CY_SPC_CMD_LD_ROW;
 429              		.loc 1 265 0
 430 0046 44F22073 		movw	r3, #:lower16:1073760032
 431 004a C4F20003 		movt	r3, #:upper16:1073760032
 432 004e 4FF00202 		mov	r2, #2
 433 0052 1A70     		strb	r2, [r3, #0]
 266:.\Generated_Source\PSoC5/CySpc.c **** 
 267:.\Generated_Source\PSoC5/CySpc.c ****         /* Make sure the command was accepted */
 268:.\Generated_Source\PSoC5/CySpc.c ****         if(CY_SPC_BUSY)
 434              		.loc 1 268 0
 435 0054 44F22273 		movw	r3, #:lower16:1073760034
 436 0058 C4F20003 		movt	r3, #:upper16:1073760034
 437 005c 1B78     		ldrb	r3, [r3, #0]
 438 005e DBB2     		uxtb	r3, r3
 439 0060 03F00203 		and	r3, r3, #2
 440 0064 002B     		cmp	r3, #0
 441 0066 1BD1     		bne	.L26
 269:.\Generated_Source\PSoC5/CySpc.c ****         {
 270:.\Generated_Source\PSoC5/CySpc.c ****             CY_SPC_CPU_DATA_REG = array;
 442              		.loc 1 270 0
 443 0068 44F22073 		movw	r3, #:lower16:1073760032
 444 006c C4F20003 		movt	r3, #:upper16:1073760032
 445 0070 FA7B     		ldrb	r2, [r7, #15]
 446 0072 1A70     		strb	r2, [r3, #0]
 271:.\Generated_Source\PSoC5/CySpc.c **** 
 272:.\Generated_Source\PSoC5/CySpc.c ****             for(i = 0u; i < size; i++)
 447              		.loc 1 272 0
 448 0074 4FF00003 		mov	r3, #0
 449 0078 FB82     		strh	r3, [r7, #22]	@ movhi
 450 007a 0CE0     		b	.L27
 451              	.L28:
 273:.\Generated_Source\PSoC5/CySpc.c ****             {
 274:.\Generated_Source\PSoC5/CySpc.c ****                 CY_SPC_CPU_DATA_REG = buffer[i];
 452              		.loc 1 274 0
 453 007c 44F22073 		movw	r3, #:lower16:1073760032
 454 0080 C4F20003 		movt	r3, #:upper16:1073760032
 455 0084 F98A     		ldrh	r1, [r7, #22]
 456 0086 BA68     		ldr	r2, [r7, #8]
 457 0088 0A44     		add	r2, r1, r2
 458 008a 1278     		ldrb	r2, [r2, #0]	@ zero_extendqisi2
 459 008c 1A70     		strb	r2, [r3, #0]
 460              		.loc 1 272 0
 461 008e FB8A     		ldrh	r3, [r7, #22]	@ movhi
 462 0090 03F10103 		add	r3, r3, #1
 463 0094 FB82     		strh	r3, [r7, #22]	@ movhi
ARM GAS  C:\Users\csap2972\AppData\Local\Temp\cczsvW7p.s 			page 14


 464              	.L27:
 465 0096 FA8A     		ldrh	r2, [r7, #22]
 466 0098 FB88     		ldrh	r3, [r7, #6]
 467 009a 9A42     		cmp	r2, r3
 468 009c EED3     		bcc	.L28
 275:.\Generated_Source\PSoC5/CySpc.c ****             }
 276:.\Generated_Source\PSoC5/CySpc.c ****         }
 277:.\Generated_Source\PSoC5/CySpc.c ****         else
 278:.\Generated_Source\PSoC5/CySpc.c ****         {
 279:.\Generated_Source\PSoC5/CySpc.c ****             status = CYRET_CANCELED;
 469              		.loc 1 279 0
 470 009e 06E0     		b	.L30
 471              	.L26:
 472 00a0 4FF00903 		mov	r3, #9
 473 00a4 3B61     		str	r3, [r7, #16]
 474 00a6 02E0     		b	.L30
 475              	.L25:
 280:.\Generated_Source\PSoC5/CySpc.c ****         }
 281:.\Generated_Source\PSoC5/CySpc.c ****     }
 282:.\Generated_Source\PSoC5/CySpc.c ****     else
 283:.\Generated_Source\PSoC5/CySpc.c ****     {
 284:.\Generated_Source\PSoC5/CySpc.c ****         status = CYRET_LOCKED;
 476              		.loc 1 284 0
 477 00a8 4FF00403 		mov	r3, #4
 478 00ac 3B61     		str	r3, [r7, #16]
 479              	.L30:
 285:.\Generated_Source\PSoC5/CySpc.c ****     }
 286:.\Generated_Source\PSoC5/CySpc.c **** 
 287:.\Generated_Source\PSoC5/CySpc.c ****     return(status);
 480              		.loc 1 287 0
 481 00ae 3B69     		ldr	r3, [r7, #16]
 288:.\Generated_Source\PSoC5/CySpc.c **** }
 482              		.loc 1 288 0
 483 00b0 1846     		mov	r0, r3
 484 00b2 07F11C07 		add	r7, r7, #28
 485 00b6 BD46     		mov	sp, r7
 486 00b8 80BC     		pop	{r7}
 487 00ba 7047     		bx	lr
 488              		.cfi_endproc
 489              	.LFE4:
 490              		.size	CySpcLoadRow, .-CySpcLoadRow
 491              		.section	.text.CySpcReadMultiByte,"ax",%progbits
 492              		.align	2
 493              		.global	CySpcReadMultiByte
 494              		.thumb
 495              		.thumb_func
 496              		.type	CySpcReadMultiByte, %function
 497              	CySpcReadMultiByte:
 498              	.LFB5:
 289:.\Generated_Source\PSoC5/CySpc.c **** 
 290:.\Generated_Source\PSoC5/CySpc.c **** 
 291:.\Generated_Source\PSoC5/CySpc.c **** /*******************************************************************************
 292:.\Generated_Source\PSoC5/CySpc.c **** * Function Name: CySpcReadMultiByte
 293:.\Generated_Source\PSoC5/CySpc.c **** ********************************************************************************
 294:.\Generated_Source\PSoC5/CySpc.c **** * Summary:
 295:.\Generated_Source\PSoC5/CySpc.c **** *  Returns 1 to 256 bytes from user space of Flash/EEPROM. Doesn't span row
 296:.\Generated_Source\PSoC5/CySpc.c **** *  boundaries.
ARM GAS  C:\Users\csap2972\AppData\Local\Temp\cczsvW7p.s 			page 15


 297:.\Generated_Source\PSoC5/CySpc.c **** *
 298:.\Generated_Source\PSoC5/CySpc.c **** * Parameters:
 299:.\Generated_Source\PSoC5/CySpc.c **** *  uint8 array:
 300:.\Generated_Source\PSoC5/CySpc.c **** *   Id of the array.
 301:.\Generated_Source\PSoC5/CySpc.c **** *
 302:.\Generated_Source\PSoC5/CySpc.c **** *  uint8 ecc:
 303:.\Generated_Source\PSoC5/CySpc.c **** *   0x80 if reading ecc data.
 304:.\Generated_Source\PSoC5/CySpc.c **** *   0x00 if user data.
 305:.\Generated_Source\PSoC5/CySpc.c **** *
 306:.\Generated_Source\PSoC5/CySpc.c **** *  uint16 address:
 307:.\Generated_Source\PSoC5/CySpc.c **** *   Flash addrress.
 308:.\Generated_Source\PSoC5/CySpc.c **** *
 309:.\Generated_Source\PSoC5/CySpc.c **** *  uint8 size:
 310:.\Generated_Source\PSoC5/CySpc.c **** *   Number bytes to load.
 311:.\Generated_Source\PSoC5/CySpc.c **** *
 312:.\Generated_Source\PSoC5/CySpc.c **** * Return:
 313:.\Generated_Source\PSoC5/CySpc.c **** *  CYRET_STARTED
 314:.\Generated_Source\PSoC5/CySpc.c **** *  CYRET_CANCELED
 315:.\Generated_Source\PSoC5/CySpc.c **** *  CYRET_LOCKED
 316:.\Generated_Source\PSoC5/CySpc.c **** *
 317:.\Generated_Source\PSoC5/CySpc.c **** *******************************************************************************/
 318:.\Generated_Source\PSoC5/CySpc.c **** cystatus CySpcReadMultiByte(uint8 array, uint8 ecc, uint16 address, uint8 size)
 319:.\Generated_Source\PSoC5/CySpc.c **** {
 499              		.loc 1 319 0
 500              		.cfi_startproc
 501              		@ args = 0, pretend = 0, frame = 16
 502              		@ frame_needed = 1, uses_anonymous_args = 0
 503              		@ link register save eliminated.
 504 0000 80B4     		push	{r7}
 505              	.LCFI15:
 506              		.cfi_def_cfa_offset 4
 507 0002 85B0     		sub	sp, sp, #20
 508              	.LCFI16:
 509              		.cfi_def_cfa_offset 24
 510 0004 00AF     		add	r7, sp, #0
 511              		.cfi_offset 7, -4
 512              	.LCFI17:
 513              		.cfi_def_cfa_register 7
 514 0006 F871     		strb	r0, [r7, #7]
 515 0008 B971     		strb	r1, [r7, #6]
 516 000a BA80     		strh	r2, [r7, #4]	@ movhi
 517 000c FB70     		strb	r3, [r7, #3]
 320:.\Generated_Source\PSoC5/CySpc.c ****     cystatus status = CYRET_STARTED;
 518              		.loc 1 320 0
 519 000e 4FF00703 		mov	r3, #7
 520 0012 FB60     		str	r3, [r7, #12]
 321:.\Generated_Source\PSoC5/CySpc.c **** 
 322:.\Generated_Source\PSoC5/CySpc.c ****     /* Make sure the SPC is ready to accept command */
 323:.\Generated_Source\PSoC5/CySpc.c ****     if(CY_SPC_IDLE)
 521              		.loc 1 323 0
 522 0014 44F22273 		movw	r3, #:lower16:1073760034
 523 0018 C4F20003 		movt	r3, #:upper16:1073760034
 524 001c 1B78     		ldrb	r3, [r3, #0]
 525 001e DBB2     		uxtb	r3, r3
 526 0020 03F00203 		and	r3, r3, #2
 527 0024 002B     		cmp	r3, #0
 528 0026 49D0     		beq	.L33
ARM GAS  C:\Users\csap2972\AppData\Local\Temp\cczsvW7p.s 			page 16


 324:.\Generated_Source\PSoC5/CySpc.c ****     {
 325:.\Generated_Source\PSoC5/CySpc.c ****         CY_SPC_CPU_DATA_REG = CY_SPC_KEY_ONE;
 529              		.loc 1 325 0
 530 0028 44F22073 		movw	r3, #:lower16:1073760032
 531 002c C4F20003 		movt	r3, #:upper16:1073760032
 532 0030 6FF04902 		mvn	r2, #73
 533 0034 1A70     		strb	r2, [r3, #0]
 326:.\Generated_Source\PSoC5/CySpc.c ****         CY_SPC_CPU_DATA_REG = CY_SPC_KEY_TWO(CY_SPC_CMD_RD_MULTI_BYTE);
 534              		.loc 1 326 0
 535 0036 44F22073 		movw	r3, #:lower16:1073760032
 536 003a C4F20003 		movt	r3, #:upper16:1073760032
 537 003e 6FF02802 		mvn	r2, #40
 538 0042 1A70     		strb	r2, [r3, #0]
 327:.\Generated_Source\PSoC5/CySpc.c ****         CY_SPC_CPU_DATA_REG = CY_SPC_CMD_RD_MULTI_BYTE;
 539              		.loc 1 327 0
 540 0044 44F22073 		movw	r3, #:lower16:1073760032
 541 0048 C4F20003 		movt	r3, #:upper16:1073760032
 542 004c 4FF00402 		mov	r2, #4
 543 0050 1A70     		strb	r2, [r3, #0]
 328:.\Generated_Source\PSoC5/CySpc.c **** 
 329:.\Generated_Source\PSoC5/CySpc.c ****         /* Make sure the command was accepted */
 330:.\Generated_Source\PSoC5/CySpc.c ****         if(CY_SPC_BUSY)
 544              		.loc 1 330 0
 545 0052 44F22273 		movw	r3, #:lower16:1073760034
 546 0056 C4F20003 		movt	r3, #:upper16:1073760034
 547 005a 1B78     		ldrb	r3, [r3, #0]
 548 005c DBB2     		uxtb	r3, r3
 549 005e 03F00203 		and	r3, r3, #2
 550 0062 002B     		cmp	r3, #0
 551 0064 26D1     		bne	.L34
 331:.\Generated_Source\PSoC5/CySpc.c ****         {
 332:.\Generated_Source\PSoC5/CySpc.c ****             CY_SPC_CPU_DATA_REG = array;
 552              		.loc 1 332 0
 553 0066 44F22073 		movw	r3, #:lower16:1073760032
 554 006a C4F20003 		movt	r3, #:upper16:1073760032
 555 006e FA79     		ldrb	r2, [r7, #7]
 556 0070 1A70     		strb	r2, [r3, #0]
 333:.\Generated_Source\PSoC5/CySpc.c ****             CY_SPC_CPU_DATA_REG = ecc;
 557              		.loc 1 333 0
 558 0072 44F22073 		movw	r3, #:lower16:1073760032
 559 0076 C4F20003 		movt	r3, #:upper16:1073760032
 560 007a BA79     		ldrb	r2, [r7, #6]
 561 007c 1A70     		strb	r2, [r3, #0]
 334:.\Generated_Source\PSoC5/CySpc.c ****             CY_SPC_CPU_DATA_REG = HI8(address);
 562              		.loc 1 334 0
 563 007e 44F22073 		movw	r3, #:lower16:1073760032
 564 0082 C4F20003 		movt	r3, #:upper16:1073760032
 565 0086 BA88     		ldrh	r2, [r7, #4]
 566 0088 4FEA1222 		lsr	r2, r2, #8
 567 008c 92B2     		uxth	r2, r2
 568 008e D2B2     		uxtb	r2, r2
 569 0090 1A70     		strb	r2, [r3, #0]
 335:.\Generated_Source\PSoC5/CySpc.c ****             CY_SPC_CPU_DATA_REG = LO8(address);
 570              		.loc 1 335 0
 571 0092 44F22073 		movw	r3, #:lower16:1073760032
 572 0096 C4F20003 		movt	r3, #:upper16:1073760032
 573 009a BA88     		ldrh	r2, [r7, #4]	@ movhi
ARM GAS  C:\Users\csap2972\AppData\Local\Temp\cczsvW7p.s 			page 17


 574 009c D2B2     		uxtb	r2, r2
 575 009e 1A70     		strb	r2, [r3, #0]
 336:.\Generated_Source\PSoC5/CySpc.c ****             CY_SPC_CPU_DATA_REG = size - 1;
 576              		.loc 1 336 0
 577 00a0 44F22073 		movw	r3, #:lower16:1073760032
 578 00a4 C4F20003 		movt	r3, #:upper16:1073760032
 579 00a8 FA78     		ldrb	r2, [r7, #3]
 580 00aa 02F1FF32 		add	r2, r2, #-1
 581 00ae D2B2     		uxtb	r2, r2
 582 00b0 1A70     		strb	r2, [r3, #0]
 337:.\Generated_Source\PSoC5/CySpc.c ****         }
 338:.\Generated_Source\PSoC5/CySpc.c ****         else
 339:.\Generated_Source\PSoC5/CySpc.c ****         {
 340:.\Generated_Source\PSoC5/CySpc.c ****             status = CYRET_CANCELED;
 583              		.loc 1 340 0
 584 00b2 06E0     		b	.L36
 585              	.L34:
 586 00b4 4FF00903 		mov	r3, #9
 587 00b8 FB60     		str	r3, [r7, #12]
 588 00ba 02E0     		b	.L36
 589              	.L33:
 341:.\Generated_Source\PSoC5/CySpc.c ****         }
 342:.\Generated_Source\PSoC5/CySpc.c ****     }
 343:.\Generated_Source\PSoC5/CySpc.c ****     else
 344:.\Generated_Source\PSoC5/CySpc.c ****     {
 345:.\Generated_Source\PSoC5/CySpc.c ****         status = CYRET_LOCKED;
 590              		.loc 1 345 0
 591 00bc 4FF00403 		mov	r3, #4
 592 00c0 FB60     		str	r3, [r7, #12]
 593              	.L36:
 346:.\Generated_Source\PSoC5/CySpc.c ****     }
 347:.\Generated_Source\PSoC5/CySpc.c **** 
 348:.\Generated_Source\PSoC5/CySpc.c ****     return(status);
 594              		.loc 1 348 0
 595 00c2 FB68     		ldr	r3, [r7, #12]
 349:.\Generated_Source\PSoC5/CySpc.c **** }
 596              		.loc 1 349 0
 597 00c4 1846     		mov	r0, r3
 598 00c6 07F11407 		add	r7, r7, #20
 599 00ca BD46     		mov	sp, r7
 600 00cc 80BC     		pop	{r7}
 601 00ce 7047     		bx	lr
 602              		.cfi_endproc
 603              	.LFE5:
 604              		.size	CySpcReadMultiByte, .-CySpcReadMultiByte
 605              		.section	.text.CySpcWriteRow,"ax",%progbits
 606              		.align	2
 607              		.global	CySpcWriteRow
 608              		.thumb
 609              		.thumb_func
 610              		.type	CySpcWriteRow, %function
 611              	CySpcWriteRow:
 612              	.LFB6:
 350:.\Generated_Source\PSoC5/CySpc.c **** 
 351:.\Generated_Source\PSoC5/CySpc.c **** 
 352:.\Generated_Source\PSoC5/CySpc.c **** /*******************************************************************************
 353:.\Generated_Source\PSoC5/CySpc.c **** * Function Name: CySpcWriteRow
ARM GAS  C:\Users\csap2972\AppData\Local\Temp\cczsvW7p.s 			page 18


 354:.\Generated_Source\PSoC5/CySpc.c **** ********************************************************************************
 355:.\Generated_Source\PSoC5/CySpc.c **** * Summary:
 356:.\Generated_Source\PSoC5/CySpc.c **** *  Erases then programs a row in Flash/EEPROM with data in row latch.
 357:.\Generated_Source\PSoC5/CySpc.c **** *
 358:.\Generated_Source\PSoC5/CySpc.c **** * Parameters:
 359:.\Generated_Source\PSoC5/CySpc.c **** *  uint8 array:
 360:.\Generated_Source\PSoC5/CySpc.c **** *   Id of the array.
 361:.\Generated_Source\PSoC5/CySpc.c **** *
 362:.\Generated_Source\PSoC5/CySpc.c **** *  uint16 address:
 363:.\Generated_Source\PSoC5/CySpc.c **** *   flash/eeprom addrress
 364:.\Generated_Source\PSoC5/CySpc.c **** *
 365:.\Generated_Source\PSoC5/CySpc.c **** *  uint8 tempPolarity:
 366:.\Generated_Source\PSoC5/CySpc.c **** *   temperature polarity.
 367:.\Generated_Source\PSoC5/CySpc.c **** *   1: the Temp Magnitude is interpreted as a positive value
 368:.\Generated_Source\PSoC5/CySpc.c **** *   0: the Temp Magnitude is interpreted as a negative value
 369:.\Generated_Source\PSoC5/CySpc.c **** *
 370:.\Generated_Source\PSoC5/CySpc.c **** *  uint8 tempMagnitude:
 371:.\Generated_Source\PSoC5/CySpc.c **** *   temperature magnitude.
 372:.\Generated_Source\PSoC5/CySpc.c **** *
 373:.\Generated_Source\PSoC5/CySpc.c **** * Return:
 374:.\Generated_Source\PSoC5/CySpc.c **** *  CYRET_STARTED
 375:.\Generated_Source\PSoC5/CySpc.c **** *  CYRET_CANCELED
 376:.\Generated_Source\PSoC5/CySpc.c **** *  CYRET_LOCKED
 377:.\Generated_Source\PSoC5/CySpc.c **** *
 378:.\Generated_Source\PSoC5/CySpc.c **** *******************************************************************************/
 379:.\Generated_Source\PSoC5/CySpc.c **** cystatus CySpcWriteRow(uint8 array, uint16 address, uint8 tempPolarity, uint8 tempMagnitude)
 380:.\Generated_Source\PSoC5/CySpc.c **** {
 613              		.loc 1 380 0
 614              		.cfi_startproc
 615              		@ args = 0, pretend = 0, frame = 16
 616              		@ frame_needed = 1, uses_anonymous_args = 0
 617              		@ link register save eliminated.
 618 0000 80B4     		push	{r7}
 619              	.LCFI18:
 620              		.cfi_def_cfa_offset 4
 621 0002 85B0     		sub	sp, sp, #20
 622              	.LCFI19:
 623              		.cfi_def_cfa_offset 24
 624 0004 00AF     		add	r7, sp, #0
 625              		.cfi_offset 7, -4
 626              	.LCFI20:
 627              		.cfi_def_cfa_register 7
 628 0006 F871     		strb	r0, [r7, #7]
 629 0008 B980     		strh	r1, [r7, #4]	@ movhi
 630 000a FA70     		strb	r2, [r7, #3]
 631 000c BB70     		strb	r3, [r7, #2]
 381:.\Generated_Source\PSoC5/CySpc.c ****     cystatus status = CYRET_STARTED;
 632              		.loc 1 381 0
 633 000e 4FF00703 		mov	r3, #7
 634 0012 FB60     		str	r3, [r7, #12]
 382:.\Generated_Source\PSoC5/CySpc.c **** 
 383:.\Generated_Source\PSoC5/CySpc.c ****     /* Make sure the SPC is ready to accept command */
 384:.\Generated_Source\PSoC5/CySpc.c ****     if(CY_SPC_IDLE)
 635              		.loc 1 384 0
 636 0014 44F22273 		movw	r3, #:lower16:1073760034
 637 0018 C4F20003 		movt	r3, #:upper16:1073760034
 638 001c 1B78     		ldrb	r3, [r3, #0]
ARM GAS  C:\Users\csap2972\AppData\Local\Temp\cczsvW7p.s 			page 19


 639 001e DBB2     		uxtb	r3, r3
 640 0020 03F00203 		and	r3, r3, #2
 641 0024 002B     		cmp	r3, #0
 642 0026 46D0     		beq	.L39
 385:.\Generated_Source\PSoC5/CySpc.c ****     {
 386:.\Generated_Source\PSoC5/CySpc.c ****         CY_SPC_CPU_DATA_REG = CY_SPC_KEY_ONE;
 643              		.loc 1 386 0
 644 0028 44F22073 		movw	r3, #:lower16:1073760032
 645 002c C4F20003 		movt	r3, #:upper16:1073760032
 646 0030 6FF04902 		mvn	r2, #73
 647 0034 1A70     		strb	r2, [r3, #0]
 387:.\Generated_Source\PSoC5/CySpc.c ****         CY_SPC_CPU_DATA_REG = CY_SPC_KEY_TWO(CY_SPC_CMD_WR_ROW);
 648              		.loc 1 387 0
 649 0036 44F22073 		movw	r3, #:lower16:1073760032
 650 003a C4F20003 		movt	r3, #:upper16:1073760032
 651 003e 6FF02702 		mvn	r2, #39
 652 0042 1A70     		strb	r2, [r3, #0]
 388:.\Generated_Source\PSoC5/CySpc.c ****         CY_SPC_CPU_DATA_REG = CY_SPC_CMD_WR_ROW;
 653              		.loc 1 388 0
 654 0044 44F22073 		movw	r3, #:lower16:1073760032
 655 0048 C4F20003 		movt	r3, #:upper16:1073760032
 656 004c 4FF00502 		mov	r2, #5
 657 0050 1A70     		strb	r2, [r3, #0]
 389:.\Generated_Source\PSoC5/CySpc.c **** 
 390:.\Generated_Source\PSoC5/CySpc.c ****         /* Make sure the command was accepted */
 391:.\Generated_Source\PSoC5/CySpc.c ****         if(CY_SPC_BUSY)
 658              		.loc 1 391 0
 659 0052 44F22273 		movw	r3, #:lower16:1073760034
 660 0056 C4F20003 		movt	r3, #:upper16:1073760034
 661 005a 1B78     		ldrb	r3, [r3, #0]
 662 005c DBB2     		uxtb	r3, r3
 663 005e 03F00203 		and	r3, r3, #2
 664 0062 002B     		cmp	r3, #0
 665 0064 23D1     		bne	.L40
 392:.\Generated_Source\PSoC5/CySpc.c ****         {
 393:.\Generated_Source\PSoC5/CySpc.c ****             CY_SPC_CPU_DATA_REG = array;
 666              		.loc 1 393 0
 667 0066 44F22073 		movw	r3, #:lower16:1073760032
 668 006a C4F20003 		movt	r3, #:upper16:1073760032
 669 006e FA79     		ldrb	r2, [r7, #7]
 670 0070 1A70     		strb	r2, [r3, #0]
 394:.\Generated_Source\PSoC5/CySpc.c ****             CY_SPC_CPU_DATA_REG = HI8(address);
 671              		.loc 1 394 0
 672 0072 44F22073 		movw	r3, #:lower16:1073760032
 673 0076 C4F20003 		movt	r3, #:upper16:1073760032
 674 007a BA88     		ldrh	r2, [r7, #4]
 675 007c 4FEA1222 		lsr	r2, r2, #8
 676 0080 92B2     		uxth	r2, r2
 677 0082 D2B2     		uxtb	r2, r2
 678 0084 1A70     		strb	r2, [r3, #0]
 395:.\Generated_Source\PSoC5/CySpc.c ****             CY_SPC_CPU_DATA_REG = LO8(address);
 679              		.loc 1 395 0
 680 0086 44F22073 		movw	r3, #:lower16:1073760032
 681 008a C4F20003 		movt	r3, #:upper16:1073760032
 682 008e BA88     		ldrh	r2, [r7, #4]	@ movhi
 683 0090 D2B2     		uxtb	r2, r2
 684 0092 1A70     		strb	r2, [r3, #0]
ARM GAS  C:\Users\csap2972\AppData\Local\Temp\cczsvW7p.s 			page 20


 396:.\Generated_Source\PSoC5/CySpc.c ****             CY_SPC_CPU_DATA_REG = tempPolarity;
 685              		.loc 1 396 0
 686 0094 44F22073 		movw	r3, #:lower16:1073760032
 687 0098 C4F20003 		movt	r3, #:upper16:1073760032
 688 009c FA78     		ldrb	r2, [r7, #3]
 689 009e 1A70     		strb	r2, [r3, #0]
 397:.\Generated_Source\PSoC5/CySpc.c ****             CY_SPC_CPU_DATA_REG = tempMagnitude;
 690              		.loc 1 397 0
 691 00a0 44F22073 		movw	r3, #:lower16:1073760032
 692 00a4 C4F20003 		movt	r3, #:upper16:1073760032
 693 00a8 BA78     		ldrb	r2, [r7, #2]
 694 00aa 1A70     		strb	r2, [r3, #0]
 398:.\Generated_Source\PSoC5/CySpc.c ****         }
 399:.\Generated_Source\PSoC5/CySpc.c ****         else
 400:.\Generated_Source\PSoC5/CySpc.c ****         {
 401:.\Generated_Source\PSoC5/CySpc.c ****             status = CYRET_CANCELED;
 695              		.loc 1 401 0
 696 00ac 06E0     		b	.L42
 697              	.L40:
 698 00ae 4FF00903 		mov	r3, #9
 699 00b2 FB60     		str	r3, [r7, #12]
 700 00b4 02E0     		b	.L42
 701              	.L39:
 402:.\Generated_Source\PSoC5/CySpc.c ****         }
 403:.\Generated_Source\PSoC5/CySpc.c ****     }
 404:.\Generated_Source\PSoC5/CySpc.c ****     else
 405:.\Generated_Source\PSoC5/CySpc.c ****     {
 406:.\Generated_Source\PSoC5/CySpc.c ****         status = CYRET_LOCKED;
 702              		.loc 1 406 0
 703 00b6 4FF00403 		mov	r3, #4
 704 00ba FB60     		str	r3, [r7, #12]
 705              	.L42:
 407:.\Generated_Source\PSoC5/CySpc.c ****     }
 408:.\Generated_Source\PSoC5/CySpc.c **** 
 409:.\Generated_Source\PSoC5/CySpc.c ****     return(status);
 706              		.loc 1 409 0
 707 00bc FB68     		ldr	r3, [r7, #12]
 410:.\Generated_Source\PSoC5/CySpc.c **** }
 708              		.loc 1 410 0
 709 00be 1846     		mov	r0, r3
 710 00c0 07F11407 		add	r7, r7, #20
 711 00c4 BD46     		mov	sp, r7
 712 00c6 80BC     		pop	{r7}
 713 00c8 7047     		bx	lr
 714              		.cfi_endproc
 715              	.LFE6:
 716              		.size	CySpcWriteRow, .-CySpcWriteRow
 717 00ca 00BF     		.section	.text.CySpcProgramRow,"ax",%progbits
 718              		.align	2
 719              		.global	CySpcProgramRow
 720              		.thumb
 721              		.thumb_func
 722              		.type	CySpcProgramRow, %function
 723              	CySpcProgramRow:
 724              	.LFB7:
 411:.\Generated_Source\PSoC5/CySpc.c **** 
 412:.\Generated_Source\PSoC5/CySpc.c **** 
ARM GAS  C:\Users\csap2972\AppData\Local\Temp\cczsvW7p.s 			page 21


 413:.\Generated_Source\PSoC5/CySpc.c **** /*******************************************************************************
 414:.\Generated_Source\PSoC5/CySpc.c **** * Function Name: CySpcProgramRow
 415:.\Generated_Source\PSoC5/CySpc.c **** ********************************************************************************
 416:.\Generated_Source\PSoC5/CySpc.c **** * Summary:
 417:.\Generated_Source\PSoC5/CySpc.c **** *  Programs a row in Flash/EEPROM with the data in the row latch.
 418:.\Generated_Source\PSoC5/CySpc.c **** *
 419:.\Generated_Source\PSoC5/CySpc.c **** * Parameters:
 420:.\Generated_Source\PSoC5/CySpc.c **** *  uint8 array:
 421:.\Generated_Source\PSoC5/CySpc.c **** *   Id of the array.
 422:.\Generated_Source\PSoC5/CySpc.c **** *
 423:.\Generated_Source\PSoC5/CySpc.c **** *  uint16 address:
 424:.\Generated_Source\PSoC5/CySpc.c **** *   Flash/eeprom addrress
 425:.\Generated_Source\PSoC5/CySpc.c **** *
 426:.\Generated_Source\PSoC5/CySpc.c **** * Return:
 427:.\Generated_Source\PSoC5/CySpc.c **** *  CYRET_STARTED
 428:.\Generated_Source\PSoC5/CySpc.c **** *  CYRET_CANCELED
 429:.\Generated_Source\PSoC5/CySpc.c **** *  CYRET_LOCKED
 430:.\Generated_Source\PSoC5/CySpc.c **** *
 431:.\Generated_Source\PSoC5/CySpc.c **** *******************************************************************************/
 432:.\Generated_Source\PSoC5/CySpc.c **** cystatus CySpcProgramRow(uint8 array, uint16 address, uint8 tempPolarity, uint8 tempMagnitude)
 433:.\Generated_Source\PSoC5/CySpc.c **** {
 725              		.loc 1 433 0
 726              		.cfi_startproc
 727              		@ args = 0, pretend = 0, frame = 16
 728              		@ frame_needed = 1, uses_anonymous_args = 0
 729              		@ link register save eliminated.
 730 0000 80B4     		push	{r7}
 731              	.LCFI21:
 732              		.cfi_def_cfa_offset 4
 733 0002 85B0     		sub	sp, sp, #20
 734              	.LCFI22:
 735              		.cfi_def_cfa_offset 24
 736 0004 00AF     		add	r7, sp, #0
 737              		.cfi_offset 7, -4
 738              	.LCFI23:
 739              		.cfi_def_cfa_register 7
 740 0006 F871     		strb	r0, [r7, #7]
 741 0008 B980     		strh	r1, [r7, #4]	@ movhi
 742 000a FA70     		strb	r2, [r7, #3]
 743 000c BB70     		strb	r3, [r7, #2]
 434:.\Generated_Source\PSoC5/CySpc.c ****     cystatus status = CYRET_STARTED;
 744              		.loc 1 434 0
 745 000e 4FF00703 		mov	r3, #7
 746 0012 FB60     		str	r3, [r7, #12]
 435:.\Generated_Source\PSoC5/CySpc.c **** 
 436:.\Generated_Source\PSoC5/CySpc.c ****     /* Make sure the SPC is ready to accept command */
 437:.\Generated_Source\PSoC5/CySpc.c ****     if(CY_SPC_IDLE)
 747              		.loc 1 437 0
 748 0014 44F22273 		movw	r3, #:lower16:1073760034
 749 0018 C4F20003 		movt	r3, #:upper16:1073760034
 750 001c 1B78     		ldrb	r3, [r3, #0]
 751 001e DBB2     		uxtb	r3, r3
 752 0020 03F00203 		and	r3, r3, #2
 753 0024 002B     		cmp	r3, #0
 754 0026 46D0     		beq	.L45
 438:.\Generated_Source\PSoC5/CySpc.c ****     {
 439:.\Generated_Source\PSoC5/CySpc.c ****         CY_SPC_CPU_DATA_REG = CY_SPC_KEY_ONE;
ARM GAS  C:\Users\csap2972\AppData\Local\Temp\cczsvW7p.s 			page 22


 755              		.loc 1 439 0
 756 0028 44F22073 		movw	r3, #:lower16:1073760032
 757 002c C4F20003 		movt	r3, #:upper16:1073760032
 758 0030 6FF04902 		mvn	r2, #73
 759 0034 1A70     		strb	r2, [r3, #0]
 440:.\Generated_Source\PSoC5/CySpc.c ****         CY_SPC_CPU_DATA_REG = CY_SPC_KEY_TWO(CY_SPC_CMD_PRG_ROW);
 760              		.loc 1 440 0
 761 0036 44F22073 		movw	r3, #:lower16:1073760032
 762 003a C4F20003 		movt	r3, #:upper16:1073760032
 763 003e 6FF02502 		mvn	r2, #37
 764 0042 1A70     		strb	r2, [r3, #0]
 441:.\Generated_Source\PSoC5/CySpc.c ****         CY_SPC_CPU_DATA_REG = CY_SPC_CMD_PRG_ROW;
 765              		.loc 1 441 0
 766 0044 44F22073 		movw	r3, #:lower16:1073760032
 767 0048 C4F20003 		movt	r3, #:upper16:1073760032
 768 004c 4FF00702 		mov	r2, #7
 769 0050 1A70     		strb	r2, [r3, #0]
 442:.\Generated_Source\PSoC5/CySpc.c **** 
 443:.\Generated_Source\PSoC5/CySpc.c ****         /* Make sure the command was accepted */
 444:.\Generated_Source\PSoC5/CySpc.c ****         if(CY_SPC_BUSY)
 770              		.loc 1 444 0
 771 0052 44F22273 		movw	r3, #:lower16:1073760034
 772 0056 C4F20003 		movt	r3, #:upper16:1073760034
 773 005a 1B78     		ldrb	r3, [r3, #0]
 774 005c DBB2     		uxtb	r3, r3
 775 005e 03F00203 		and	r3, r3, #2
 776 0062 002B     		cmp	r3, #0
 777 0064 23D1     		bne	.L46
 445:.\Generated_Source\PSoC5/CySpc.c ****         {
 446:.\Generated_Source\PSoC5/CySpc.c ****             CY_SPC_CPU_DATA_REG = array;
 778              		.loc 1 446 0
 779 0066 44F22073 		movw	r3, #:lower16:1073760032
 780 006a C4F20003 		movt	r3, #:upper16:1073760032
 781 006e FA79     		ldrb	r2, [r7, #7]
 782 0070 1A70     		strb	r2, [r3, #0]
 447:.\Generated_Source\PSoC5/CySpc.c ****             CY_SPC_CPU_DATA_REG = HI8(address);
 783              		.loc 1 447 0
 784 0072 44F22073 		movw	r3, #:lower16:1073760032
 785 0076 C4F20003 		movt	r3, #:upper16:1073760032
 786 007a BA88     		ldrh	r2, [r7, #4]
 787 007c 4FEA1222 		lsr	r2, r2, #8
 788 0080 92B2     		uxth	r2, r2
 789 0082 D2B2     		uxtb	r2, r2
 790 0084 1A70     		strb	r2, [r3, #0]
 448:.\Generated_Source\PSoC5/CySpc.c ****             CY_SPC_CPU_DATA_REG = LO8(address);
 791              		.loc 1 448 0
 792 0086 44F22073 		movw	r3, #:lower16:1073760032
 793 008a C4F20003 		movt	r3, #:upper16:1073760032
 794 008e BA88     		ldrh	r2, [r7, #4]	@ movhi
 795 0090 D2B2     		uxtb	r2, r2
 796 0092 1A70     		strb	r2, [r3, #0]
 449:.\Generated_Source\PSoC5/CySpc.c ****             CY_SPC_CPU_DATA_REG = tempPolarity;
 797              		.loc 1 449 0
 798 0094 44F22073 		movw	r3, #:lower16:1073760032
 799 0098 C4F20003 		movt	r3, #:upper16:1073760032
 800 009c FA78     		ldrb	r2, [r7, #3]
 801 009e 1A70     		strb	r2, [r3, #0]
ARM GAS  C:\Users\csap2972\AppData\Local\Temp\cczsvW7p.s 			page 23


 450:.\Generated_Source\PSoC5/CySpc.c ****             CY_SPC_CPU_DATA_REG = tempMagnitude;
 802              		.loc 1 450 0
 803 00a0 44F22073 		movw	r3, #:lower16:1073760032
 804 00a4 C4F20003 		movt	r3, #:upper16:1073760032
 805 00a8 BA78     		ldrb	r2, [r7, #2]
 806 00aa 1A70     		strb	r2, [r3, #0]
 451:.\Generated_Source\PSoC5/CySpc.c ****         }
 452:.\Generated_Source\PSoC5/CySpc.c ****         else
 453:.\Generated_Source\PSoC5/CySpc.c ****         {
 454:.\Generated_Source\PSoC5/CySpc.c ****             status = CYRET_CANCELED;
 807              		.loc 1 454 0
 808 00ac 06E0     		b	.L48
 809              	.L46:
 810 00ae 4FF00903 		mov	r3, #9
 811 00b2 FB60     		str	r3, [r7, #12]
 812 00b4 02E0     		b	.L48
 813              	.L45:
 455:.\Generated_Source\PSoC5/CySpc.c ****         }
 456:.\Generated_Source\PSoC5/CySpc.c ****     }
 457:.\Generated_Source\PSoC5/CySpc.c ****     else
 458:.\Generated_Source\PSoC5/CySpc.c ****     {
 459:.\Generated_Source\PSoC5/CySpc.c ****         status = CYRET_LOCKED;
 814              		.loc 1 459 0
 815 00b6 4FF00403 		mov	r3, #4
 816 00ba FB60     		str	r3, [r7, #12]
 817              	.L48:
 460:.\Generated_Source\PSoC5/CySpc.c ****     }
 461:.\Generated_Source\PSoC5/CySpc.c **** 
 462:.\Generated_Source\PSoC5/CySpc.c ****     return(status);
 818              		.loc 1 462 0
 819 00bc FB68     		ldr	r3, [r7, #12]
 463:.\Generated_Source\PSoC5/CySpc.c **** }
 820              		.loc 1 463 0
 821 00be 1846     		mov	r0, r3
 822 00c0 07F11407 		add	r7, r7, #20
 823 00c4 BD46     		mov	sp, r7
 824 00c6 80BC     		pop	{r7}
 825 00c8 7047     		bx	lr
 826              		.cfi_endproc
 827              	.LFE7:
 828              		.size	CySpcProgramRow, .-CySpcProgramRow
 829 00ca 00BF     		.section	.text.CySpcEraseSector,"ax",%progbits
 830              		.align	2
 831              		.global	CySpcEraseSector
 832              		.thumb
 833              		.thumb_func
 834              		.type	CySpcEraseSector, %function
 835              	CySpcEraseSector:
 836              	.LFB8:
 464:.\Generated_Source\PSoC5/CySpc.c **** 
 465:.\Generated_Source\PSoC5/CySpc.c **** 
 466:.\Generated_Source\PSoC5/CySpc.c **** /*******************************************************************************
 467:.\Generated_Source\PSoC5/CySpc.c **** * Function Name: CySpcEraseSector
 468:.\Generated_Source\PSoC5/CySpc.c **** ********************************************************************************
 469:.\Generated_Source\PSoC5/CySpc.c **** * Summary:
 470:.\Generated_Source\PSoC5/CySpc.c **** *  Erases all data in the addressed sector (block of 64 rows).
 471:.\Generated_Source\PSoC5/CySpc.c **** *
ARM GAS  C:\Users\csap2972\AppData\Local\Temp\cczsvW7p.s 			page 24


 472:.\Generated_Source\PSoC5/CySpc.c **** * Parameters:
 473:.\Generated_Source\PSoC5/CySpc.c **** *  uint8 array:
 474:.\Generated_Source\PSoC5/CySpc.c **** *   Id of the array.
 475:.\Generated_Source\PSoC5/CySpc.c **** *
 476:.\Generated_Source\PSoC5/CySpc.c **** *  uint16 address:
 477:.\Generated_Source\PSoC5/CySpc.c **** *   Flash/eeprom addrress
 478:.\Generated_Source\PSoC5/CySpc.c **** *
 479:.\Generated_Source\PSoC5/CySpc.c **** * Return:
 480:.\Generated_Source\PSoC5/CySpc.c **** *  CYRET_STARTED
 481:.\Generated_Source\PSoC5/CySpc.c **** *  CYRET_CANCELED
 482:.\Generated_Source\PSoC5/CySpc.c **** *  CYRET_LOCKED
 483:.\Generated_Source\PSoC5/CySpc.c **** *
 484:.\Generated_Source\PSoC5/CySpc.c **** *******************************************************************************/
 485:.\Generated_Source\PSoC5/CySpc.c **** cystatus CySpcEraseSector(uint8 array, uint16 address)
 486:.\Generated_Source\PSoC5/CySpc.c **** {
 837              		.loc 1 486 0
 838              		.cfi_startproc
 839              		@ args = 0, pretend = 0, frame = 16
 840              		@ frame_needed = 1, uses_anonymous_args = 0
 841              		@ link register save eliminated.
 842 0000 80B4     		push	{r7}
 843              	.LCFI24:
 844              		.cfi_def_cfa_offset 4
 845 0002 85B0     		sub	sp, sp, #20
 846              	.LCFI25:
 847              		.cfi_def_cfa_offset 24
 848 0004 00AF     		add	r7, sp, #0
 849              		.cfi_offset 7, -4
 850              	.LCFI26:
 851              		.cfi_def_cfa_register 7
 852 0006 0246     		mov	r2, r0
 853 0008 0B46     		mov	r3, r1
 854 000a FA71     		strb	r2, [r7, #7]
 855 000c BB80     		strh	r3, [r7, #4]	@ movhi
 487:.\Generated_Source\PSoC5/CySpc.c ****     cystatus status = CYRET_STARTED;
 856              		.loc 1 487 0
 857 000e 4FF00703 		mov	r3, #7
 858 0012 FB60     		str	r3, [r7, #12]
 488:.\Generated_Source\PSoC5/CySpc.c **** 
 489:.\Generated_Source\PSoC5/CySpc.c ****     /* Make sure the SPC is ready to accept command */
 490:.\Generated_Source\PSoC5/CySpc.c ****     if(CY_SPC_IDLE)
 859              		.loc 1 490 0
 860 0014 44F22273 		movw	r3, #:lower16:1073760034
 861 0018 C4F20003 		movt	r3, #:upper16:1073760034
 862 001c 1B78     		ldrb	r3, [r3, #0]
 863 001e DBB2     		uxtb	r3, r3
 864 0020 03F00203 		and	r3, r3, #2
 865 0024 002B     		cmp	r3, #0
 866 0026 3DD0     		beq	.L51
 491:.\Generated_Source\PSoC5/CySpc.c ****     {
 492:.\Generated_Source\PSoC5/CySpc.c ****         CY_SPC_CPU_DATA_REG = CY_SPC_KEY_ONE;
 867              		.loc 1 492 0
 868 0028 44F22073 		movw	r3, #:lower16:1073760032
 869 002c C4F20003 		movt	r3, #:upper16:1073760032
 870 0030 6FF04902 		mvn	r2, #73
 871 0034 1A70     		strb	r2, [r3, #0]
 493:.\Generated_Source\PSoC5/CySpc.c ****         CY_SPC_CPU_DATA_REG = CY_SPC_KEY_TWO(CY_SPC_CMD_ER_SECTOR);
ARM GAS  C:\Users\csap2972\AppData\Local\Temp\cczsvW7p.s 			page 25


 872              		.loc 1 493 0
 873 0036 44F22073 		movw	r3, #:lower16:1073760032
 874 003a C4F20003 		movt	r3, #:upper16:1073760032
 875 003e 6FF02402 		mvn	r2, #36
 876 0042 1A70     		strb	r2, [r3, #0]
 494:.\Generated_Source\PSoC5/CySpc.c ****         CY_SPC_CPU_DATA_REG = CY_SPC_CMD_ER_SECTOR;
 877              		.loc 1 494 0
 878 0044 44F22073 		movw	r3, #:lower16:1073760032
 879 0048 C4F20003 		movt	r3, #:upper16:1073760032
 880 004c 4FF00802 		mov	r2, #8
 881 0050 1A70     		strb	r2, [r3, #0]
 495:.\Generated_Source\PSoC5/CySpc.c **** 
 496:.\Generated_Source\PSoC5/CySpc.c ****         /* Make sure the command was accepted */
 497:.\Generated_Source\PSoC5/CySpc.c ****         if(CY_SPC_BUSY)
 882              		.loc 1 497 0
 883 0052 44F22273 		movw	r3, #:lower16:1073760034
 884 0056 C4F20003 		movt	r3, #:upper16:1073760034
 885 005a 1B78     		ldrb	r3, [r3, #0]
 886 005c DBB2     		uxtb	r3, r3
 887 005e 03F00203 		and	r3, r3, #2
 888 0062 002B     		cmp	r3, #0
 889 0064 1AD1     		bne	.L52
 498:.\Generated_Source\PSoC5/CySpc.c ****         {
 499:.\Generated_Source\PSoC5/CySpc.c ****             CY_SPC_CPU_DATA_REG = array;
 890              		.loc 1 499 0
 891 0066 44F22073 		movw	r3, #:lower16:1073760032
 892 006a C4F20003 		movt	r3, #:upper16:1073760032
 893 006e FA79     		ldrb	r2, [r7, #7]
 894 0070 1A70     		strb	r2, [r3, #0]
 500:.\Generated_Source\PSoC5/CySpc.c **** 
 501:.\Generated_Source\PSoC5/CySpc.c ****             if(array < CY_SPC_LAST_FLASH_ARRAYID)
 895              		.loc 1 501 0
 896 0072 FB79     		ldrb	r3, [r7, #7]	@ zero_extendqisi2
 897 0074 3E2B     		cmp	r3, #62
 898 0076 07D8     		bhi	.L53
 502:.\Generated_Source\PSoC5/CySpc.c ****             {
 503:.\Generated_Source\PSoC5/CySpc.c ****                 CY_SPC_CPU_DATA_REG = CY_SPC_FLASH_SECTOR_ADDRES(address);
 899              		.loc 1 503 0
 900 0078 44F22073 		movw	r3, #:lower16:1073760032
 901 007c C4F20003 		movt	r3, #:upper16:1073760032
 902 0080 BA88     		ldrh	r2, [r7, #4]	@ movhi
 903 0082 D2B2     		uxtb	r2, r2
 904 0084 1A70     		strb	r2, [r3, #0]
 504:.\Generated_Source\PSoC5/CySpc.c ****             }
 505:.\Generated_Source\PSoC5/CySpc.c ****             else
 506:.\Generated_Source\PSoC5/CySpc.c ****             {
 507:.\Generated_Source\PSoC5/CySpc.c ****                 CY_SPC_CPU_DATA_REG = CY_SPC_EEPROM_SECTOR_ADDRESS(address);
 508:.\Generated_Source\PSoC5/CySpc.c ****             }
 509:.\Generated_Source\PSoC5/CySpc.c ****         }
 510:.\Generated_Source\PSoC5/CySpc.c ****         else
 511:.\Generated_Source\PSoC5/CySpc.c ****         {
 512:.\Generated_Source\PSoC5/CySpc.c ****             status = CYRET_CANCELED;
 905              		.loc 1 512 0
 906 0086 10E0     		b	.L56
 907              	.L53:
 908              		.loc 1 507 0
 909 0088 44F22073 		movw	r3, #:lower16:1073760032
ARM GAS  C:\Users\csap2972\AppData\Local\Temp\cczsvW7p.s 			page 26


 910 008c C4F20003 		movt	r3, #:upper16:1073760032
 911 0090 BA88     		ldrh	r2, [r7, #4]	@ movhi
 912 0092 D2B2     		uxtb	r2, r2
 913 0094 02F07F02 		and	r2, r2, #127
 914 0098 1A70     		strb	r2, [r3, #0]
 915              		.loc 1 512 0
 916 009a 06E0     		b	.L56
 917              	.L52:
 918 009c 4FF00903 		mov	r3, #9
 919 00a0 FB60     		str	r3, [r7, #12]
 920 00a2 02E0     		b	.L56
 921              	.L51:
 513:.\Generated_Source\PSoC5/CySpc.c ****         }
 514:.\Generated_Source\PSoC5/CySpc.c ****     }
 515:.\Generated_Source\PSoC5/CySpc.c ****     else
 516:.\Generated_Source\PSoC5/CySpc.c ****     {
 517:.\Generated_Source\PSoC5/CySpc.c ****         status = CYRET_LOCKED;
 922              		.loc 1 517 0
 923 00a4 4FF00403 		mov	r3, #4
 924 00a8 FB60     		str	r3, [r7, #12]
 925              	.L56:
 518:.\Generated_Source\PSoC5/CySpc.c ****     }
 519:.\Generated_Source\PSoC5/CySpc.c **** 
 520:.\Generated_Source\PSoC5/CySpc.c ****     return(status);
 926              		.loc 1 520 0
 927 00aa FB68     		ldr	r3, [r7, #12]
 521:.\Generated_Source\PSoC5/CySpc.c **** }
 928              		.loc 1 521 0
 929 00ac 1846     		mov	r0, r3
 930 00ae 07F11407 		add	r7, r7, #20
 931 00b2 BD46     		mov	sp, r7
 932 00b4 80BC     		pop	{r7}
 933 00b6 7047     		bx	lr
 934              		.cfi_endproc
 935              	.LFE8:
 936              		.size	CySpcEraseSector, .-CySpcEraseSector
 937              		.section	.text.CySpcGetTemp,"ax",%progbits
 938              		.align	2
 939              		.global	CySpcGetTemp
 940              		.thumb
 941              		.thumb_func
 942              		.type	CySpcGetTemp, %function
 943              	CySpcGetTemp:
 944              	.LFB9:
 522:.\Generated_Source\PSoC5/CySpc.c **** 
 523:.\Generated_Source\PSoC5/CySpc.c **** 
 524:.\Generated_Source\PSoC5/CySpc.c **** /*******************************************************************************
 525:.\Generated_Source\PSoC5/CySpc.c **** * Function Name: CySpcGetTemp
 526:.\Generated_Source\PSoC5/CySpc.c **** ********************************************************************************
 527:.\Generated_Source\PSoC5/CySpc.c **** * Summary:
 528:.\Generated_Source\PSoC5/CySpc.c **** *  Returns the internal die temperature
 529:.\Generated_Source\PSoC5/CySpc.c **** *
 530:.\Generated_Source\PSoC5/CySpc.c **** * Parameters:
 531:.\Generated_Source\PSoC5/CySpc.c **** *  uint8 numSamples:
 532:.\Generated_Source\PSoC5/CySpc.c **** *   Number of samples. Valid values are 1-5, resulting in 2 - 32 samples
 533:.\Generated_Source\PSoC5/CySpc.c **** *   respectively.
 534:.\Generated_Source\PSoC5/CySpc.c **** *
ARM GAS  C:\Users\csap2972\AppData\Local\Temp\cczsvW7p.s 			page 27


 535:.\Generated_Source\PSoC5/CySpc.c **** * uint16 timerPeriod:
 536:.\Generated_Source\PSoC5/CySpc.c **** *   Number of ADC ACLK cycles. A valid 14 bit value is accepted, higher 2 bits
 537:.\Generated_Source\PSoC5/CySpc.c **** *   of 16 bit values are ignored.
 538:.\Generated_Source\PSoC5/CySpc.c **** *
 539:.\Generated_Source\PSoC5/CySpc.c **** * uint8 clkDivSelect:
 540:.\Generated_Source\PSoC5/CySpc.c **** *   ADC ACLK clock divide value. Valid values are 2 - 225.
 541:.\Generated_Source\PSoC5/CySpc.c **** *
 542:.\Generated_Source\PSoC5/CySpc.c **** * Return:
 543:.\Generated_Source\PSoC5/CySpc.c **** *  CYRET_STARTED
 544:.\Generated_Source\PSoC5/CySpc.c **** *  CYRET_CANCELED
 545:.\Generated_Source\PSoC5/CySpc.c **** *  CYRET_LOCKED
 546:.\Generated_Source\PSoC5/CySpc.c **** *
 547:.\Generated_Source\PSoC5/CySpc.c **** *******************************************************************************/
 548:.\Generated_Source\PSoC5/CySpc.c **** #if(CY_PSOC5A)
 549:.\Generated_Source\PSoC5/CySpc.c **** cystatus CySpcGetTemp(uint8 numSamples, uint16 timerPeriod, uint8 clkDivSelect)
 550:.\Generated_Source\PSoC5/CySpc.c **** #else
 551:.\Generated_Source\PSoC5/CySpc.c **** cystatus CySpcGetTemp(uint8 numSamples)
 552:.\Generated_Source\PSoC5/CySpc.c **** #endif  /* (CY_PSOC5A) */
 553:.\Generated_Source\PSoC5/CySpc.c **** {
 945              		.loc 1 553 0
 946              		.cfi_startproc
 947              		@ args = 0, pretend = 0, frame = 16
 948              		@ frame_needed = 1, uses_anonymous_args = 0
 949              		@ link register save eliminated.
 950 0000 80B4     		push	{r7}
 951              	.LCFI27:
 952              		.cfi_def_cfa_offset 4
 953 0002 85B0     		sub	sp, sp, #20
 954              	.LCFI28:
 955              		.cfi_def_cfa_offset 24
 956 0004 00AF     		add	r7, sp, #0
 957              		.cfi_offset 7, -4
 958              	.LCFI29:
 959              		.cfi_def_cfa_register 7
 960 0006 0346     		mov	r3, r0
 961 0008 FB71     		strb	r3, [r7, #7]
 554:.\Generated_Source\PSoC5/CySpc.c ****     cystatus status = CYRET_STARTED;
 962              		.loc 1 554 0
 963 000a 4FF00703 		mov	r3, #7
 964 000e FB60     		str	r3, [r7, #12]
 555:.\Generated_Source\PSoC5/CySpc.c **** 
 556:.\Generated_Source\PSoC5/CySpc.c ****     /* Make sure the SPC is ready to accept command */
 557:.\Generated_Source\PSoC5/CySpc.c ****     if(CY_SPC_IDLE)
 965              		.loc 1 557 0
 966 0010 44F22273 		movw	r3, #:lower16:1073760034
 967 0014 C4F20003 		movt	r3, #:upper16:1073760034
 968 0018 1B78     		ldrb	r3, [r3, #0]
 969 001a DBB2     		uxtb	r3, r3
 970 001c 03F00203 		and	r3, r3, #2
 971 0020 002B     		cmp	r3, #0
 972 0022 29D0     		beq	.L59
 558:.\Generated_Source\PSoC5/CySpc.c ****     {
 559:.\Generated_Source\PSoC5/CySpc.c ****         CY_SPC_CPU_DATA_REG = CY_SPC_KEY_ONE;
 973              		.loc 1 559 0
 974 0024 44F22073 		movw	r3, #:lower16:1073760032
 975 0028 C4F20003 		movt	r3, #:upper16:1073760032
 976 002c 6FF04902 		mvn	r2, #73
ARM GAS  C:\Users\csap2972\AppData\Local\Temp\cczsvW7p.s 			page 28


 977 0030 1A70     		strb	r2, [r3, #0]
 560:.\Generated_Source\PSoC5/CySpc.c ****         CY_SPC_CPU_DATA_REG = CY_SPC_KEY_TWO(CY_SPC_CMD_GET_TEMP);
 978              		.loc 1 560 0
 979 0032 44F22073 		movw	r3, #:lower16:1073760032
 980 0036 C4F20003 		movt	r3, #:upper16:1073760032
 981 003a 6FF01E02 		mvn	r2, #30
 982 003e 1A70     		strb	r2, [r3, #0]
 561:.\Generated_Source\PSoC5/CySpc.c ****         CY_SPC_CPU_DATA_REG = CY_SPC_CMD_GET_TEMP;
 983              		.loc 1 561 0
 984 0040 44F22073 		movw	r3, #:lower16:1073760032
 985 0044 C4F20003 		movt	r3, #:upper16:1073760032
 986 0048 4FF00E02 		mov	r2, #14
 987 004c 1A70     		strb	r2, [r3, #0]
 562:.\Generated_Source\PSoC5/CySpc.c **** 
 563:.\Generated_Source\PSoC5/CySpc.c ****         /* Make sure the command was accepted */
 564:.\Generated_Source\PSoC5/CySpc.c ****         if(CY_SPC_BUSY)
 988              		.loc 1 564 0
 989 004e 44F22273 		movw	r3, #:lower16:1073760034
 990 0052 C4F20003 		movt	r3, #:upper16:1073760034
 991 0056 1B78     		ldrb	r3, [r3, #0]
 992 0058 DBB2     		uxtb	r3, r3
 993 005a 03F00203 		and	r3, r3, #2
 994 005e 002B     		cmp	r3, #0
 995 0060 06D1     		bne	.L60
 565:.\Generated_Source\PSoC5/CySpc.c ****         {
 566:.\Generated_Source\PSoC5/CySpc.c ****             CY_SPC_CPU_DATA_REG = numSamples;
 996              		.loc 1 566 0
 997 0062 44F22073 		movw	r3, #:lower16:1073760032
 998 0066 C4F20003 		movt	r3, #:upper16:1073760032
 999 006a FA79     		ldrb	r2, [r7, #7]
 1000 006c 1A70     		strb	r2, [r3, #0]
 567:.\Generated_Source\PSoC5/CySpc.c **** 
 568:.\Generated_Source\PSoC5/CySpc.c ****             #if(CY_PSOC5A)
 569:.\Generated_Source\PSoC5/CySpc.c ****                 CY_SPC_CPU_DATA_REG = HI8(timerPeriod);
 570:.\Generated_Source\PSoC5/CySpc.c ****                 CY_SPC_CPU_DATA_REG = LO8(timerPeriod);
 571:.\Generated_Source\PSoC5/CySpc.c ****                 CY_SPC_CPU_DATA_REG = clkDivSelect;
 572:.\Generated_Source\PSoC5/CySpc.c ****             #endif  /* (CY_PSOC5A) */
 573:.\Generated_Source\PSoC5/CySpc.c ****         }
 574:.\Generated_Source\PSoC5/CySpc.c ****         else
 575:.\Generated_Source\PSoC5/CySpc.c ****         {
 576:.\Generated_Source\PSoC5/CySpc.c ****             status = CYRET_CANCELED;
 1001              		.loc 1 576 0
 1002 006e 06E0     		b	.L62
 1003              	.L60:
 1004 0070 4FF00903 		mov	r3, #9
 1005 0074 FB60     		str	r3, [r7, #12]
 1006 0076 02E0     		b	.L62
 1007              	.L59:
 577:.\Generated_Source\PSoC5/CySpc.c ****         }
 578:.\Generated_Source\PSoC5/CySpc.c ****     }
 579:.\Generated_Source\PSoC5/CySpc.c ****     else
 580:.\Generated_Source\PSoC5/CySpc.c ****     {
 581:.\Generated_Source\PSoC5/CySpc.c ****         status = CYRET_LOCKED;
 1008              		.loc 1 581 0
 1009 0078 4FF00403 		mov	r3, #4
 1010 007c FB60     		str	r3, [r7, #12]
 1011              	.L62:
ARM GAS  C:\Users\csap2972\AppData\Local\Temp\cczsvW7p.s 			page 29


 582:.\Generated_Source\PSoC5/CySpc.c ****     }
 583:.\Generated_Source\PSoC5/CySpc.c **** 
 584:.\Generated_Source\PSoC5/CySpc.c ****     return(status);
 1012              		.loc 1 584 0
 1013 007e FB68     		ldr	r3, [r7, #12]
 585:.\Generated_Source\PSoC5/CySpc.c **** }
 1014              		.loc 1 585 0
 1015 0080 1846     		mov	r0, r3
 1016 0082 07F11407 		add	r7, r7, #20
 1017 0086 BD46     		mov	sp, r7
 1018 0088 80BC     		pop	{r7}
 1019 008a 7047     		bx	lr
 1020              		.cfi_endproc
 1021              	.LFE9:
 1022              		.size	CySpcGetTemp, .-CySpcGetTemp
 1023              		.section	.text.CySpcSetupTs,"ax",%progbits
 1024              		.align	2
 1025              		.global	CySpcSetupTs
 1026              		.thumb
 1027              		.thumb_func
 1028              		.type	CySpcSetupTs, %function
 1029              	CySpcSetupTs:
 1030              	.LFB10:
 586:.\Generated_Source\PSoC5/CySpc.c **** 
 587:.\Generated_Source\PSoC5/CySpc.c **** 
 588:.\Generated_Source\PSoC5/CySpc.c **** /*******************************************************************************
 589:.\Generated_Source\PSoC5/CySpc.c **** * Function Name: CySpcSetupTs
 590:.\Generated_Source\PSoC5/CySpc.c **** ********************************************************************************
 591:.\Generated_Source\PSoC5/CySpc.c **** * Summary:
 592:.\Generated_Source\PSoC5/CySpc.c **** *  Sets up the temperature sensor to drive voltage to external resources.
 593:.\Generated_Source\PSoC5/CySpc.c **** *
 594:.\Generated_Source\PSoC5/CySpc.c **** * Parameters:
 595:.\Generated_Source\PSoC5/CySpc.c **** *  uint8 seqSelect:
 596:.\Generated_Source\PSoC5/CySpc.c **** *    Selection of current sources for the temperature diode.
 597:.\Generated_Source\PSoC5/CySpc.c **** *    0: Enables one current path at a time.
 598:.\Generated_Source\PSoC5/CySpc.c **** *    1: Enables multiple current paths at a time.
 599:.\Generated_Source\PSoC5/CySpc.c **** *
 600:.\Generated_Source\PSoC5/CySpc.c **** *  uint8 seqFreeze:
 601:.\Generated_Source\PSoC5/CySpc.c **** *    0: Sequencer is enabled, cycling through the set of current paths for the
 602:.\Generated_Source\PSoC5/CySpc.c **** *    temperature diode to average out the output voltage.
 603:.\Generated_Source\PSoC5/CySpc.c **** *    1: Sequencer is disabled and no cycling of the current paths occurs.
 604:.\Generated_Source\PSoC5/CySpc.c **** *
 605:.\Generated_Source\PSoC5/CySpc.c **** *  uint8 clkDivSel:
 606:.\Generated_Source\PSoC5/CySpc.c **** *    The divide ratio of the SPC Clock to be set in the ADC ACLK.
 607:.\Generated_Source\PSoC5/CySpc.c **** *
 608:.\Generated_Source\PSoC5/CySpc.c **** *  uint8CurvCompEnable:
 609:.\Generated_Source\PSoC5/CySpc.c **** *    Curvature compensation calculation enabling.
 610:.\Generated_Source\PSoC5/CySpc.c **** *    0: No curvature compensation is used.
 611:.\Generated_Source\PSoC5/CySpc.c **** *    1: Curvature compensation is enabled.
 612:.\Generated_Source\PSoC5/CySpc.c **** *
 613:.\Generated_Source\PSoC5/CySpc.c **** * Return:
 614:.\Generated_Source\PSoC5/CySpc.c **** *  CYRET_STARTED
 615:.\Generated_Source\PSoC5/CySpc.c **** *  CYRET_CANCELED
 616:.\Generated_Source\PSoC5/CySpc.c **** *  CYRET_LOCKED
 617:.\Generated_Source\PSoC5/CySpc.c **** *
 618:.\Generated_Source\PSoC5/CySpc.c **** *******************************************************************************/
 619:.\Generated_Source\PSoC5/CySpc.c **** cystatus CySpcSetupTs(uint8 seqSelect, uint8 seqFreeze, uint8 clkDivSel, uint8 curvCompEnable)
ARM GAS  C:\Users\csap2972\AppData\Local\Temp\cczsvW7p.s 			page 30


 620:.\Generated_Source\PSoC5/CySpc.c **** {
 1031              		.loc 1 620 0
 1032              		.cfi_startproc
 1033              		@ args = 0, pretend = 0, frame = 16
 1034              		@ frame_needed = 1, uses_anonymous_args = 0
 1035              		@ link register save eliminated.
 1036 0000 80B4     		push	{r7}
 1037              	.LCFI30:
 1038              		.cfi_def_cfa_offset 4
 1039 0002 85B0     		sub	sp, sp, #20
 1040              	.LCFI31:
 1041              		.cfi_def_cfa_offset 24
 1042 0004 00AF     		add	r7, sp, #0
 1043              		.cfi_offset 7, -4
 1044              	.LCFI32:
 1045              		.cfi_def_cfa_register 7
 1046 0006 F871     		strb	r0, [r7, #7]
 1047 0008 B971     		strb	r1, [r7, #6]
 1048 000a 7A71     		strb	r2, [r7, #5]
 1049 000c 3B71     		strb	r3, [r7, #4]
 621:.\Generated_Source\PSoC5/CySpc.c ****     cystatus status = CYRET_STARTED;
 1050              		.loc 1 621 0
 1051 000e 4FF00703 		mov	r3, #7
 1052 0012 FB60     		str	r3, [r7, #12]
 622:.\Generated_Source\PSoC5/CySpc.c **** 
 623:.\Generated_Source\PSoC5/CySpc.c ****     /* Make sure the SPC is ready to accept command */
 624:.\Generated_Source\PSoC5/CySpc.c ****     if(CY_SPC_IDLE)
 1053              		.loc 1 624 0
 1054 0014 44F22273 		movw	r3, #:lower16:1073760034
 1055 0018 C4F20003 		movt	r3, #:upper16:1073760034
 1056 001c 1B78     		ldrb	r3, [r3, #0]
 1057 001e DBB2     		uxtb	r3, r3
 1058 0020 03F00203 		and	r3, r3, #2
 1059 0024 002B     		cmp	r3, #0
 1060 0026 3BD0     		beq	.L65
 625:.\Generated_Source\PSoC5/CySpc.c ****     {
 626:.\Generated_Source\PSoC5/CySpc.c ****         CY_SPC_CPU_DATA_REG = CY_SPC_KEY_ONE;
 1061              		.loc 1 626 0
 1062 0028 44F22073 		movw	r3, #:lower16:1073760032
 1063 002c C4F20003 		movt	r3, #:upper16:1073760032
 1064 0030 6FF04902 		mvn	r2, #73
 1065 0034 1A70     		strb	r2, [r3, #0]
 627:.\Generated_Source\PSoC5/CySpc.c ****         CY_SPC_CPU_DATA_REG = CY_SPC_KEY_TWO(CY_SPC_CMD_SETUP_TS);
 1066              		.loc 1 627 0
 1067 0036 44F22073 		movw	r3, #:lower16:1073760032
 1068 003a C4F20003 		movt	r3, #:upper16:1073760032
 1069 003e 6FF01B02 		mvn	r2, #27
 1070 0042 1A70     		strb	r2, [r3, #0]
 628:.\Generated_Source\PSoC5/CySpc.c ****         CY_SPC_CPU_DATA_REG = CY_SPC_CMD_SETUP_TS;
 1071              		.loc 1 628 0
 1072 0044 44F22073 		movw	r3, #:lower16:1073760032
 1073 0048 C4F20003 		movt	r3, #:upper16:1073760032
 1074 004c 4FF01102 		mov	r2, #17
 1075 0050 1A70     		strb	r2, [r3, #0]
 629:.\Generated_Source\PSoC5/CySpc.c **** 
 630:.\Generated_Source\PSoC5/CySpc.c ****         /* Make sure the command was accepted */
 631:.\Generated_Source\PSoC5/CySpc.c ****         if(CY_SPC_BUSY)
ARM GAS  C:\Users\csap2972\AppData\Local\Temp\cczsvW7p.s 			page 31


 1076              		.loc 1 631 0
 1077 0052 44F22273 		movw	r3, #:lower16:1073760034
 1078 0056 C4F20003 		movt	r3, #:upper16:1073760034
 1079 005a 1B78     		ldrb	r3, [r3, #0]
 1080 005c DBB2     		uxtb	r3, r3
 1081 005e 03F00203 		and	r3, r3, #2
 1082 0062 002B     		cmp	r3, #0
 1083 0064 18D1     		bne	.L66
 632:.\Generated_Source\PSoC5/CySpc.c ****         {
 633:.\Generated_Source\PSoC5/CySpc.c ****             CY_SPC_CPU_DATA_REG = seqSelect;
 1084              		.loc 1 633 0
 1085 0066 44F22073 		movw	r3, #:lower16:1073760032
 1086 006a C4F20003 		movt	r3, #:upper16:1073760032
 1087 006e FA79     		ldrb	r2, [r7, #7]
 1088 0070 1A70     		strb	r2, [r3, #0]
 634:.\Generated_Source\PSoC5/CySpc.c ****             CY_SPC_CPU_DATA_REG = seqFreeze;
 1089              		.loc 1 634 0
 1090 0072 44F22073 		movw	r3, #:lower16:1073760032
 1091 0076 C4F20003 		movt	r3, #:upper16:1073760032
 1092 007a BA79     		ldrb	r2, [r7, #6]
 1093 007c 1A70     		strb	r2, [r3, #0]
 635:.\Generated_Source\PSoC5/CySpc.c ****             CY_SPC_CPU_DATA_REG = clkDivSel;
 1094              		.loc 1 635 0
 1095 007e 44F22073 		movw	r3, #:lower16:1073760032
 1096 0082 C4F20003 		movt	r3, #:upper16:1073760032
 1097 0086 7A79     		ldrb	r2, [r7, #5]
 1098 0088 1A70     		strb	r2, [r3, #0]
 636:.\Generated_Source\PSoC5/CySpc.c ****             CY_SPC_CPU_DATA_REG = curvCompEnable;
 1099              		.loc 1 636 0
 1100 008a 44F22073 		movw	r3, #:lower16:1073760032
 1101 008e C4F20003 		movt	r3, #:upper16:1073760032
 1102 0092 3A79     		ldrb	r2, [r7, #4]
 1103 0094 1A70     		strb	r2, [r3, #0]
 637:.\Generated_Source\PSoC5/CySpc.c ****         }
 638:.\Generated_Source\PSoC5/CySpc.c ****         else
 639:.\Generated_Source\PSoC5/CySpc.c ****         {
 640:.\Generated_Source\PSoC5/CySpc.c ****             status = CYRET_CANCELED;
 1104              		.loc 1 640 0
 1105 0096 06E0     		b	.L68
 1106              	.L66:
 1107 0098 4FF00903 		mov	r3, #9
 1108 009c FB60     		str	r3, [r7, #12]
 1109 009e 02E0     		b	.L68
 1110              	.L65:
 641:.\Generated_Source\PSoC5/CySpc.c ****         }
 642:.\Generated_Source\PSoC5/CySpc.c ****     }
 643:.\Generated_Source\PSoC5/CySpc.c ****     else
 644:.\Generated_Source\PSoC5/CySpc.c ****     {
 645:.\Generated_Source\PSoC5/CySpc.c ****         status = CYRET_LOCKED;
 1111              		.loc 1 645 0
 1112 00a0 4FF00403 		mov	r3, #4
 1113 00a4 FB60     		str	r3, [r7, #12]
 1114              	.L68:
 646:.\Generated_Source\PSoC5/CySpc.c ****     }
 647:.\Generated_Source\PSoC5/CySpc.c **** 
 648:.\Generated_Source\PSoC5/CySpc.c ****     return(status);
 1115              		.loc 1 648 0
ARM GAS  C:\Users\csap2972\AppData\Local\Temp\cczsvW7p.s 			page 32


 1116 00a6 FB68     		ldr	r3, [r7, #12]
 649:.\Generated_Source\PSoC5/CySpc.c **** }
 1117              		.loc 1 649 0
 1118 00a8 1846     		mov	r0, r3
 1119 00aa 07F11407 		add	r7, r7, #20
 1120 00ae BD46     		mov	sp, r7
 1121 00b0 80BC     		pop	{r7}
 1122 00b2 7047     		bx	lr
 1123              		.cfi_endproc
 1124              	.LFE10:
 1125              		.size	CySpcSetupTs, .-CySpcSetupTs
 1126              		.section	.text.CySpcDisableTs,"ax",%progbits
 1127              		.align	2
 1128              		.global	CySpcDisableTs
 1129              		.thumb
 1130              		.thumb_func
 1131              		.type	CySpcDisableTs, %function
 1132              	CySpcDisableTs:
 1133              	.LFB11:
 650:.\Generated_Source\PSoC5/CySpc.c **** 
 651:.\Generated_Source\PSoC5/CySpc.c **** 
 652:.\Generated_Source\PSoC5/CySpc.c **** /*******************************************************************************
 653:.\Generated_Source\PSoC5/CySpc.c **** * Function Name: CySpcDisableTs
 654:.\Generated_Source\PSoC5/CySpc.c **** ********************************************************************************
 655:.\Generated_Source\PSoC5/CySpc.c **** * Summary:
 656:.\Generated_Source\PSoC5/CySpc.c **** *  Disables the temperature sensor from driving its voltage to external
 657:.\Generated_Source\PSoC5/CySpc.c **** *  resources.
 658:.\Generated_Source\PSoC5/CySpc.c **** *
 659:.\Generated_Source\PSoC5/CySpc.c **** * Parameters:
 660:.\Generated_Source\PSoC5/CySpc.c **** *  None
 661:.\Generated_Source\PSoC5/CySpc.c **** *
 662:.\Generated_Source\PSoC5/CySpc.c **** * Return:
 663:.\Generated_Source\PSoC5/CySpc.c **** *  CYRET_STARTED
 664:.\Generated_Source\PSoC5/CySpc.c **** *  CYRET_LOCKED
 665:.\Generated_Source\PSoC5/CySpc.c **** *
 666:.\Generated_Source\PSoC5/CySpc.c **** *******************************************************************************/
 667:.\Generated_Source\PSoC5/CySpc.c **** cystatus CySpcDisableTs(void)
 668:.\Generated_Source\PSoC5/CySpc.c **** {
 1134              		.loc 1 668 0
 1135              		.cfi_startproc
 1136              		@ args = 0, pretend = 0, frame = 8
 1137              		@ frame_needed = 1, uses_anonymous_args = 0
 1138              		@ link register save eliminated.
 1139 0000 80B4     		push	{r7}
 1140              	.LCFI33:
 1141              		.cfi_def_cfa_offset 4
 1142 0002 83B0     		sub	sp, sp, #12
 1143              	.LCFI34:
 1144              		.cfi_def_cfa_offset 16
 1145 0004 00AF     		add	r7, sp, #0
 1146              		.cfi_offset 7, -4
 1147              	.LCFI35:
 1148              		.cfi_def_cfa_register 7
 669:.\Generated_Source\PSoC5/CySpc.c ****     cystatus status = CYRET_STARTED;
 1149              		.loc 1 669 0
 1150 0006 4FF00703 		mov	r3, #7
 1151 000a 7B60     		str	r3, [r7, #4]
ARM GAS  C:\Users\csap2972\AppData\Local\Temp\cczsvW7p.s 			page 33


 670:.\Generated_Source\PSoC5/CySpc.c **** 
 671:.\Generated_Source\PSoC5/CySpc.c ****     /* Make sure the SPC is ready to accept command */
 672:.\Generated_Source\PSoC5/CySpc.c ****     if(CY_SPC_IDLE)
 1152              		.loc 1 672 0
 1153 000c 44F22273 		movw	r3, #:lower16:1073760034
 1154 0010 C4F20003 		movt	r3, #:upper16:1073760034
 1155 0014 1B78     		ldrb	r3, [r3, #0]
 1156 0016 DBB2     		uxtb	r3, r3
 1157 0018 03F00203 		and	r3, r3, #2
 1158 001c 002B     		cmp	r3, #0
 1159 001e 15D0     		beq	.L71
 673:.\Generated_Source\PSoC5/CySpc.c ****     {
 674:.\Generated_Source\PSoC5/CySpc.c ****         CY_SPC_CPU_DATA_REG = CY_SPC_KEY_ONE;
 1160              		.loc 1 674 0
 1161 0020 44F22073 		movw	r3, #:lower16:1073760032
 1162 0024 C4F20003 		movt	r3, #:upper16:1073760032
 1163 0028 6FF04902 		mvn	r2, #73
 1164 002c 1A70     		strb	r2, [r3, #0]
 675:.\Generated_Source\PSoC5/CySpc.c ****         CY_SPC_CPU_DATA_REG = CY_SPC_KEY_TWO(CY_SPC_CMD_DISABLE_TS);
 1165              		.loc 1 675 0
 1166 002e 44F22073 		movw	r3, #:lower16:1073760032
 1167 0032 C4F20003 		movt	r3, #:upper16:1073760032
 1168 0036 6FF01A02 		mvn	r2, #26
 1169 003a 1A70     		strb	r2, [r3, #0]
 676:.\Generated_Source\PSoC5/CySpc.c ****         CY_SPC_CPU_DATA_REG = CY_SPC_CMD_DISABLE_TS;
 1170              		.loc 1 676 0
 1171 003c 44F22073 		movw	r3, #:lower16:1073760032
 1172 0040 C4F20003 		movt	r3, #:upper16:1073760032
 1173 0044 4FF01202 		mov	r2, #18
 1174 0048 1A70     		strb	r2, [r3, #0]
 1175 004a 02E0     		b	.L72
 1176              	.L71:
 677:.\Generated_Source\PSoC5/CySpc.c ****     }
 678:.\Generated_Source\PSoC5/CySpc.c ****     else
 679:.\Generated_Source\PSoC5/CySpc.c ****     {
 680:.\Generated_Source\PSoC5/CySpc.c ****         status = CYRET_LOCKED;
 1177              		.loc 1 680 0
 1178 004c 4FF00403 		mov	r3, #4
 1179 0050 7B60     		str	r3, [r7, #4]
 1180              	.L72:
 681:.\Generated_Source\PSoC5/CySpc.c ****     }
 682:.\Generated_Source\PSoC5/CySpc.c **** 
 683:.\Generated_Source\PSoC5/CySpc.c ****     return(status);
 1181              		.loc 1 683 0
 1182 0052 7B68     		ldr	r3, [r7, #4]
 684:.\Generated_Source\PSoC5/CySpc.c **** }
 1183              		.loc 1 684 0
 1184 0054 1846     		mov	r0, r3
 1185 0056 07F10C07 		add	r7, r7, #12
 1186 005a BD46     		mov	sp, r7
 1187 005c 80BC     		pop	{r7}
 1188 005e 7047     		bx	lr
 1189              		.cfi_endproc
 1190              	.LFE11:
 1191              		.size	CySpcDisableTs, .-CySpcDisableTs
 1192              		.section	.text.CySpcEraseRow,"ax",%progbits
 1193              		.align	2
ARM GAS  C:\Users\csap2972\AppData\Local\Temp\cczsvW7p.s 			page 34


 1194              		.global	CySpcEraseRow
 1195              		.thumb
 1196              		.thumb_func
 1197              		.type	CySpcEraseRow, %function
 1198              	CySpcEraseRow:
 1199              	.LFB12:
 685:.\Generated_Source\PSoC5/CySpc.c **** 
 686:.\Generated_Source\PSoC5/CySpc.c **** 
 687:.\Generated_Source\PSoC5/CySpc.c **** /*******************************************************************************
 688:.\Generated_Source\PSoC5/CySpc.c **** * Function Name: CySpcEraseRow
 689:.\Generated_Source\PSoC5/CySpc.c **** ********************************************************************************
 690:.\Generated_Source\PSoC5/CySpc.c **** * Summary:
 691:.\Generated_Source\PSoC5/CySpc.c **** *  Erases a row in Flash/EEPROM.
 692:.\Generated_Source\PSoC5/CySpc.c **** *
 693:.\Generated_Source\PSoC5/CySpc.c **** * Parameters:
 694:.\Generated_Source\PSoC5/CySpc.c **** *  uint8 array:
 695:.\Generated_Source\PSoC5/CySpc.c **** *   Id of the array.
 696:.\Generated_Source\PSoC5/CySpc.c **** *
 697:.\Generated_Source\PSoC5/CySpc.c **** *  uint16 address:
 698:.\Generated_Source\PSoC5/CySpc.c **** *   Flash/eeprom addrress
 699:.\Generated_Source\PSoC5/CySpc.c **** *
 700:.\Generated_Source\PSoC5/CySpc.c **** *  uint8 tempPolarity:
 701:.\Generated_Source\PSoC5/CySpc.c **** *   temperature polarity.
 702:.\Generated_Source\PSoC5/CySpc.c **** *    1: the Temp Magnitude is interpreted as a positive value
 703:.\Generated_Source\PSoC5/CySpc.c **** *    0: the Temp Magnitude is interpreted as a negative value
 704:.\Generated_Source\PSoC5/CySpc.c **** *
 705:.\Generated_Source\PSoC5/CySpc.c **** *  uint8 tempMagnitude:
 706:.\Generated_Source\PSoC5/CySpc.c **** *   Temperature magnitude.
 707:.\Generated_Source\PSoC5/CySpc.c **** *
 708:.\Generated_Source\PSoC5/CySpc.c **** * Return:
 709:.\Generated_Source\PSoC5/CySpc.c **** *  CYRET_STARTED
 710:.\Generated_Source\PSoC5/CySpc.c **** *  CYRET_CANCELED
 711:.\Generated_Source\PSoC5/CySpc.c **** *  CYRET_LOCKED
 712:.\Generated_Source\PSoC5/CySpc.c **** *
 713:.\Generated_Source\PSoC5/CySpc.c **** *******************************************************************************/
 714:.\Generated_Source\PSoC5/CySpc.c **** cystatus CySpcEraseRow(uint8 array, uint16 address, uint8 tempPolarity, uint8 tempMagnitude)
 715:.\Generated_Source\PSoC5/CySpc.c **** {
 1200              		.loc 1 715 0
 1201              		.cfi_startproc
 1202              		@ args = 0, pretend = 0, frame = 16
 1203              		@ frame_needed = 1, uses_anonymous_args = 0
 1204              		@ link register save eliminated.
 1205 0000 80B4     		push	{r7}
 1206              	.LCFI36:
 1207              		.cfi_def_cfa_offset 4
 1208 0002 85B0     		sub	sp, sp, #20
 1209              	.LCFI37:
 1210              		.cfi_def_cfa_offset 24
 1211 0004 00AF     		add	r7, sp, #0
 1212              		.cfi_offset 7, -4
 1213              	.LCFI38:
 1214              		.cfi_def_cfa_register 7
 1215 0006 F871     		strb	r0, [r7, #7]
 1216 0008 B980     		strh	r1, [r7, #4]	@ movhi
 1217 000a FA70     		strb	r2, [r7, #3]
 1218 000c BB70     		strb	r3, [r7, #2]
 716:.\Generated_Source\PSoC5/CySpc.c ****     cystatus status = CYRET_STARTED;
ARM GAS  C:\Users\csap2972\AppData\Local\Temp\cczsvW7p.s 			page 35


 1219              		.loc 1 716 0
 1220 000e 4FF00703 		mov	r3, #7
 1221 0012 FB60     		str	r3, [r7, #12]
 717:.\Generated_Source\PSoC5/CySpc.c **** 
 718:.\Generated_Source\PSoC5/CySpc.c ****     /* Make sure the SPC is ready to accept command */
 719:.\Generated_Source\PSoC5/CySpc.c ****     if(CY_SPC_IDLE)
 1222              		.loc 1 719 0
 1223 0014 44F22273 		movw	r3, #:lower16:1073760034
 1224 0018 C4F20003 		movt	r3, #:upper16:1073760034
 1225 001c 1B78     		ldrb	r3, [r3, #0]
 1226 001e DBB2     		uxtb	r3, r3
 1227 0020 03F00203 		and	r3, r3, #2
 1228 0024 002B     		cmp	r3, #0
 1229 0026 46D0     		beq	.L75
 720:.\Generated_Source\PSoC5/CySpc.c ****     {
 721:.\Generated_Source\PSoC5/CySpc.c ****         CY_SPC_CPU_DATA_REG = CY_SPC_KEY_ONE;
 1230              		.loc 1 721 0
 1231 0028 44F22073 		movw	r3, #:lower16:1073760032
 1232 002c C4F20003 		movt	r3, #:upper16:1073760032
 1233 0030 6FF04902 		mvn	r2, #73
 1234 0034 1A70     		strb	r2, [r3, #0]
 722:.\Generated_Source\PSoC5/CySpc.c ****         CY_SPC_CPU_DATA_REG = CY_SPC_KEY_TWO(CY_SPC_CMD_ER_ROW);
 1235              		.loc 1 722 0
 1236 0036 44F22073 		movw	r3, #:lower16:1073760032
 1237 003a C4F20003 		movt	r3, #:upper16:1073760032
 1238 003e 6FF01902 		mvn	r2, #25
 1239 0042 1A70     		strb	r2, [r3, #0]
 723:.\Generated_Source\PSoC5/CySpc.c ****         CY_SPC_CPU_DATA_REG = CY_SPC_CMD_ER_ROW;
 1240              		.loc 1 723 0
 1241 0044 44F22073 		movw	r3, #:lower16:1073760032
 1242 0048 C4F20003 		movt	r3, #:upper16:1073760032
 1243 004c 4FF01302 		mov	r2, #19
 1244 0050 1A70     		strb	r2, [r3, #0]
 724:.\Generated_Source\PSoC5/CySpc.c **** 
 725:.\Generated_Source\PSoC5/CySpc.c ****         /* Make sure the command was accepted */
 726:.\Generated_Source\PSoC5/CySpc.c ****         if(CY_SPC_BUSY)
 1245              		.loc 1 726 0
 1246 0052 44F22273 		movw	r3, #:lower16:1073760034
 1247 0056 C4F20003 		movt	r3, #:upper16:1073760034
 1248 005a 1B78     		ldrb	r3, [r3, #0]
 1249 005c DBB2     		uxtb	r3, r3
 1250 005e 03F00203 		and	r3, r3, #2
 1251 0062 002B     		cmp	r3, #0
 1252 0064 23D1     		bne	.L76
 727:.\Generated_Source\PSoC5/CySpc.c ****         {
 728:.\Generated_Source\PSoC5/CySpc.c ****             CY_SPC_CPU_DATA_REG = array;
 1253              		.loc 1 728 0
 1254 0066 44F22073 		movw	r3, #:lower16:1073760032
 1255 006a C4F20003 		movt	r3, #:upper16:1073760032
 1256 006e FA79     		ldrb	r2, [r7, #7]
 1257 0070 1A70     		strb	r2, [r3, #0]
 729:.\Generated_Source\PSoC5/CySpc.c ****             CY_SPC_CPU_DATA_REG = HI8(address);
 1258              		.loc 1 729 0
 1259 0072 44F22073 		movw	r3, #:lower16:1073760032
 1260 0076 C4F20003 		movt	r3, #:upper16:1073760032
 1261 007a BA88     		ldrh	r2, [r7, #4]
 1262 007c 4FEA1222 		lsr	r2, r2, #8
ARM GAS  C:\Users\csap2972\AppData\Local\Temp\cczsvW7p.s 			page 36


 1263 0080 92B2     		uxth	r2, r2
 1264 0082 D2B2     		uxtb	r2, r2
 1265 0084 1A70     		strb	r2, [r3, #0]
 730:.\Generated_Source\PSoC5/CySpc.c ****             CY_SPC_CPU_DATA_REG = LO8(address);
 1266              		.loc 1 730 0
 1267 0086 44F22073 		movw	r3, #:lower16:1073760032
 1268 008a C4F20003 		movt	r3, #:upper16:1073760032
 1269 008e BA88     		ldrh	r2, [r7, #4]	@ movhi
 1270 0090 D2B2     		uxtb	r2, r2
 1271 0092 1A70     		strb	r2, [r3, #0]
 731:.\Generated_Source\PSoC5/CySpc.c ****             CY_SPC_CPU_DATA_REG = tempPolarity;
 1272              		.loc 1 731 0
 1273 0094 44F22073 		movw	r3, #:lower16:1073760032
 1274 0098 C4F20003 		movt	r3, #:upper16:1073760032
 1275 009c FA78     		ldrb	r2, [r7, #3]
 1276 009e 1A70     		strb	r2, [r3, #0]
 732:.\Generated_Source\PSoC5/CySpc.c ****             CY_SPC_CPU_DATA_REG = tempMagnitude;
 1277              		.loc 1 732 0
 1278 00a0 44F22073 		movw	r3, #:lower16:1073760032
 1279 00a4 C4F20003 		movt	r3, #:upper16:1073760032
 1280 00a8 BA78     		ldrb	r2, [r7, #2]
 1281 00aa 1A70     		strb	r2, [r3, #0]
 733:.\Generated_Source\PSoC5/CySpc.c ****         }
 734:.\Generated_Source\PSoC5/CySpc.c ****         else
 735:.\Generated_Source\PSoC5/CySpc.c ****         {
 736:.\Generated_Source\PSoC5/CySpc.c ****             status = CYRET_CANCELED;
 1282              		.loc 1 736 0
 1283 00ac 06E0     		b	.L78
 1284              	.L76:
 1285 00ae 4FF00903 		mov	r3, #9
 1286 00b2 FB60     		str	r3, [r7, #12]
 1287 00b4 02E0     		b	.L78
 1288              	.L75:
 737:.\Generated_Source\PSoC5/CySpc.c ****         }
 738:.\Generated_Source\PSoC5/CySpc.c ****     }
 739:.\Generated_Source\PSoC5/CySpc.c ****     else
 740:.\Generated_Source\PSoC5/CySpc.c ****     {
 741:.\Generated_Source\PSoC5/CySpc.c ****         status = CYRET_LOCKED;
 1289              		.loc 1 741 0
 1290 00b6 4FF00403 		mov	r3, #4
 1291 00ba FB60     		str	r3, [r7, #12]
 1292              	.L78:
 742:.\Generated_Source\PSoC5/CySpc.c ****     }
 743:.\Generated_Source\PSoC5/CySpc.c **** 
 744:.\Generated_Source\PSoC5/CySpc.c ****     return(status);
 1293              		.loc 1 744 0
 1294 00bc FB68     		ldr	r3, [r7, #12]
 745:.\Generated_Source\PSoC5/CySpc.c **** }
 1295              		.loc 1 745 0
 1296 00be 1846     		mov	r0, r3
 1297 00c0 07F11407 		add	r7, r7, #20
 1298 00c4 BD46     		mov	sp, r7
 1299 00c6 80BC     		pop	{r7}
 1300 00c8 7047     		bx	lr
 1301              		.cfi_endproc
 1302              	.LFE12:
 1303              		.size	CySpcEraseRow, .-CySpcEraseRow
ARM GAS  C:\Users\csap2972\AppData\Local\Temp\cczsvW7p.s 			page 37


 1304 00ca 00BF     		.section	.text.CySpcLock,"ax",%progbits
 1305              		.align	2
 1306              		.global	CySpcLock
 1307              		.thumb
 1308              		.thumb_func
 1309              		.type	CySpcLock, %function
 1310              	CySpcLock:
 1311              	.LFB13:
 746:.\Generated_Source\PSoC5/CySpc.c **** 
 747:.\Generated_Source\PSoC5/CySpc.c **** 
 748:.\Generated_Source\PSoC5/CySpc.c **** /*******************************************************************************
 749:.\Generated_Source\PSoC5/CySpc.c **** * Function Name: CySpcLock
 750:.\Generated_Source\PSoC5/CySpc.c **** ********************************************************************************
 751:.\Generated_Source\PSoC5/CySpc.c **** * Summary:
 752:.\Generated_Source\PSoC5/CySpc.c **** *  Locks the SPC so it can not be used by someone else:
 753:.\Generated_Source\PSoC5/CySpc.c **** *   - Saves wait-pipeline enable state and enable pipeline (PSoC5)
 754:.\Generated_Source\PSoC5/CySpc.c **** *
 755:.\Generated_Source\PSoC5/CySpc.c **** * Parameters:
 756:.\Generated_Source\PSoC5/CySpc.c **** *  Note
 757:.\Generated_Source\PSoC5/CySpc.c **** *
 758:.\Generated_Source\PSoC5/CySpc.c **** * Return:
 759:.\Generated_Source\PSoC5/CySpc.c **** *  CYRET_SUCCESS - if the resource was free.
 760:.\Generated_Source\PSoC5/CySpc.c **** *  CYRET_LOCKED  - if the SPC is in use.
 761:.\Generated_Source\PSoC5/CySpc.c **** *
 762:.\Generated_Source\PSoC5/CySpc.c **** *******************************************************************************/
 763:.\Generated_Source\PSoC5/CySpc.c **** cystatus CySpcLock(void)
 764:.\Generated_Source\PSoC5/CySpc.c **** {
 1312              		.loc 1 764 0
 1313              		.cfi_startproc
 1314              		@ args = 0, pretend = 0, frame = 8
 1315              		@ frame_needed = 1, uses_anonymous_args = 0
 1316 0000 80B5     		push	{r7, lr}
 1317              	.LCFI39:
 1318              		.cfi_def_cfa_offset 8
 1319 0002 82B0     		sub	sp, sp, #8
 1320              	.LCFI40:
 1321              		.cfi_def_cfa_offset 16
 1322 0004 00AF     		add	r7, sp, #0
 1323              		.cfi_offset 14, -4
 1324              		.cfi_offset 7, -8
 1325              	.LCFI41:
 1326              		.cfi_def_cfa_register 7
 765:.\Generated_Source\PSoC5/CySpc.c ****     cystatus status = CYRET_LOCKED;
 1327              		.loc 1 765 0
 1328 0006 4FF00403 		mov	r3, #4
 1329 000a 3B60     		str	r3, [r7, #0]
 766:.\Generated_Source\PSoC5/CySpc.c ****     uint8 interruptState;
 767:.\Generated_Source\PSoC5/CySpc.c **** 
 768:.\Generated_Source\PSoC5/CySpc.c ****     /* Enter critical section */
 769:.\Generated_Source\PSoC5/CySpc.c ****     interruptState = CyEnterCriticalSection();
 1330              		.loc 1 769 0
 1331 000c FFF7FEFF 		bl	CyEnterCriticalSection
 1332 0010 0346     		mov	r3, r0
 1333 0012 FB71     		strb	r3, [r7, #7]
 770:.\Generated_Source\PSoC5/CySpc.c **** 
 771:.\Generated_Source\PSoC5/CySpc.c ****     if(CY_SPC_UNLOCKED == SpcLockState)
 1334              		.loc 1 771 0
ARM GAS  C:\Users\csap2972\AppData\Local\Temp\cczsvW7p.s 			page 38


 1335 0014 40F20003 		movw	r3, #:lower16:SpcLockState
 1336 0018 C0F20003 		movt	r3, #:upper16:SpcLockState
 1337 001c 1B78     		ldrb	r3, [r3, #0]	@ zero_extendqisi2
 1338 001e 002B     		cmp	r3, #0
 1339 0020 29D1     		bne	.L81
 772:.\Generated_Source\PSoC5/CySpc.c ****     {
 773:.\Generated_Source\PSoC5/CySpc.c ****         SpcLockState = CY_SPC_LOCKED;
 1340              		.loc 1 773 0
 1341 0022 40F20003 		movw	r3, #:lower16:SpcLockState
 1342 0026 C0F20003 		movt	r3, #:upper16:SpcLockState
 1343 002a 4FF00102 		mov	r2, #1
 1344 002e 1A70     		strb	r2, [r3, #0]
 774:.\Generated_Source\PSoC5/CySpc.c ****         status = CYRET_SUCCESS;
 1345              		.loc 1 774 0
 1346 0030 4FF00003 		mov	r3, #0
 1347 0034 3B60     		str	r3, [r7, #0]
 775:.\Generated_Source\PSoC5/CySpc.c **** 
 776:.\Generated_Source\PSoC5/CySpc.c ****         #if(CY_PSOC5LP)
 777:.\Generated_Source\PSoC5/CySpc.c **** 
 778:.\Generated_Source\PSoC5/CySpc.c ****             if(0u != (CY_SPC_CPU_WAITPIPE_REG & CY_SPC_CPU_WAITPIPE_BYPASS))
 1348              		.loc 1 778 0
 1349 0036 40F20403 		movw	r3, #:lower16:1074266116
 1350 003a C4F20803 		movt	r3, #:upper16:1074266116
 1351 003e 1B68     		ldr	r3, [r3, #0]
 1352 0040 03F00103 		and	r3, r3, #1
 1353 0044 DBB2     		uxtb	r3, r3
 1354 0046 002B     		cmp	r3, #0
 1355 0048 15D0     		beq	.L81
 779:.\Generated_Source\PSoC5/CySpc.c ****             {
 780:.\Generated_Source\PSoC5/CySpc.c ****                 /* Enable pipeline registers */
 781:.\Generated_Source\PSoC5/CySpc.c ****                 CY_SPC_CPU_WAITPIPE_REG &= ~CY_SPC_CPU_WAITPIPE_BYPASS;
 1356              		.loc 1 781 0
 1357 004a 40F20403 		movw	r3, #:lower16:1074266116
 1358 004e C4F20803 		movt	r3, #:upper16:1074266116
 1359 0052 40F20402 		movw	r2, #:lower16:1074266116
 1360 0056 C4F20802 		movt	r2, #:upper16:1074266116
 1361 005a 1268     		ldr	r2, [r2, #0]
 1362 005c 22F00102 		bic	r2, r2, #1
 1363 0060 1A60     		str	r2, [r3, #0]
 782:.\Generated_Source\PSoC5/CySpc.c **** 
 783:.\Generated_Source\PSoC5/CySpc.c ****                 /* At least 2 NOP instructions are recommended */
 784:.\Generated_Source\PSoC5/CySpc.c ****                 CY_NOP;
 1364              		.loc 1 784 0
 1365              	@ 784 ".\Generated_Source\PSoC5\CySpc.c" 1
 1366 0062 00BF     		NOP
 1367              	
 1368              	@ 0 "" 2
 785:.\Generated_Source\PSoC5/CySpc.c ****                 CY_NOP;
 1369              		.loc 1 785 0
 1370              	@ 785 ".\Generated_Source\PSoC5\CySpc.c" 1
 1371 0064 00BF     		NOP
 1372              	
 1373              	@ 0 "" 2
 786:.\Generated_Source\PSoC5/CySpc.c ****                 CY_NOP;
 1374              		.loc 1 786 0
 1375              	@ 786 ".\Generated_Source\PSoC5\CySpc.c" 1
 1376 0066 00BF     		NOP
ARM GAS  C:\Users\csap2972\AppData\Local\Temp\cczsvW7p.s 			page 39


 1377              	
 1378              	@ 0 "" 2
 787:.\Generated_Source\PSoC5/CySpc.c **** 
 788:.\Generated_Source\PSoC5/CySpc.c ****                 spcWaitPipeBypass = CY_SPC_CPU_WAITPIPE_BYPASS;
 1379              		.loc 1 788 0
 1380              		.thumb
 1381 0068 40F20003 		movw	r3, #:lower16:spcWaitPipeBypass
 1382 006c C0F20003 		movt	r3, #:upper16:spcWaitPipeBypass
 1383 0070 4FF00102 		mov	r2, #1
 1384 0074 1A70     		strb	r2, [r3, #0]
 1385              	.L81:
 789:.\Generated_Source\PSoC5/CySpc.c ****             }
 790:.\Generated_Source\PSoC5/CySpc.c **** 
 791:.\Generated_Source\PSoC5/CySpc.c ****         #endif  /* (CY_PSOC5LP) */
 792:.\Generated_Source\PSoC5/CySpc.c ****     }
 793:.\Generated_Source\PSoC5/CySpc.c **** 
 794:.\Generated_Source\PSoC5/CySpc.c ****     /* Exit critical section */
 795:.\Generated_Source\PSoC5/CySpc.c ****     CyExitCriticalSection(interruptState);
 1386              		.loc 1 795 0
 1387 0076 FB79     		ldrb	r3, [r7, #7]	@ zero_extendqisi2
 1388 0078 1846     		mov	r0, r3
 1389 007a FFF7FEFF 		bl	CyExitCriticalSection
 796:.\Generated_Source\PSoC5/CySpc.c **** 
 797:.\Generated_Source\PSoC5/CySpc.c ****     return(status);
 1390              		.loc 1 797 0
 1391 007e 3B68     		ldr	r3, [r7, #0]
 798:.\Generated_Source\PSoC5/CySpc.c **** }
 1392              		.loc 1 798 0
 1393 0080 1846     		mov	r0, r3
 1394 0082 07F10807 		add	r7, r7, #8
 1395 0086 BD46     		mov	sp, r7
 1396 0088 80BD     		pop	{r7, pc}
 1397              		.cfi_endproc
 1398              	.LFE13:
 1399              		.size	CySpcLock, .-CySpcLock
 1400 008a 00BF     		.section	.text.CySpcUnlock,"ax",%progbits
 1401              		.align	2
 1402              		.global	CySpcUnlock
 1403              		.thumb
 1404              		.thumb_func
 1405              		.type	CySpcUnlock, %function
 1406              	CySpcUnlock:
 1407              	.LFB14:
 799:.\Generated_Source\PSoC5/CySpc.c **** 
 800:.\Generated_Source\PSoC5/CySpc.c **** 
 801:.\Generated_Source\PSoC5/CySpc.c **** /*******************************************************************************
 802:.\Generated_Source\PSoC5/CySpc.c **** * Function Name: CySpcUnlock
 803:.\Generated_Source\PSoC5/CySpc.c **** ********************************************************************************
 804:.\Generated_Source\PSoC5/CySpc.c **** * Summary:
 805:.\Generated_Source\PSoC5/CySpc.c **** *  Unlocks the SPC so it can be used by someone else:
 806:.\Generated_Source\PSoC5/CySpc.c **** *   - Restores wait-pipeline enable state (PSoC5)
 807:.\Generated_Source\PSoC5/CySpc.c **** *
 808:.\Generated_Source\PSoC5/CySpc.c **** * Parameters:
 809:.\Generated_Source\PSoC5/CySpc.c **** *  None
 810:.\Generated_Source\PSoC5/CySpc.c **** *
 811:.\Generated_Source\PSoC5/CySpc.c **** * Return:
 812:.\Generated_Source\PSoC5/CySpc.c **** *  None
ARM GAS  C:\Users\csap2972\AppData\Local\Temp\cczsvW7p.s 			page 40


 813:.\Generated_Source\PSoC5/CySpc.c **** *
 814:.\Generated_Source\PSoC5/CySpc.c **** *******************************************************************************/
 815:.\Generated_Source\PSoC5/CySpc.c **** void CySpcUnlock(void)
 816:.\Generated_Source\PSoC5/CySpc.c **** {
 1408              		.loc 1 816 0
 1409              		.cfi_startproc
 1410              		@ args = 0, pretend = 0, frame = 8
 1411              		@ frame_needed = 1, uses_anonymous_args = 0
 1412 0000 80B5     		push	{r7, lr}
 1413              	.LCFI42:
 1414              		.cfi_def_cfa_offset 8
 1415 0002 82B0     		sub	sp, sp, #8
 1416              	.LCFI43:
 1417              		.cfi_def_cfa_offset 16
 1418 0004 00AF     		add	r7, sp, #0
 1419              		.cfi_offset 14, -4
 1420              		.cfi_offset 7, -8
 1421              	.LCFI44:
 1422              		.cfi_def_cfa_register 7
 817:.\Generated_Source\PSoC5/CySpc.c ****     uint8 interruptState;
 818:.\Generated_Source\PSoC5/CySpc.c **** 
 819:.\Generated_Source\PSoC5/CySpc.c ****     /* Enter critical section */
 820:.\Generated_Source\PSoC5/CySpc.c ****     interruptState = CyEnterCriticalSection();
 1423              		.loc 1 820 0
 1424 0006 FFF7FEFF 		bl	CyEnterCriticalSection
 1425 000a 0346     		mov	r3, r0
 1426 000c FB71     		strb	r3, [r7, #7]
 821:.\Generated_Source\PSoC5/CySpc.c **** 
 822:.\Generated_Source\PSoC5/CySpc.c ****     /* Release the SPC object */
 823:.\Generated_Source\PSoC5/CySpc.c ****     SpcLockState = CY_SPC_UNLOCKED;
 1427              		.loc 1 823 0
 1428 000e 40F20003 		movw	r3, #:lower16:SpcLockState
 1429 0012 C0F20003 		movt	r3, #:upper16:SpcLockState
 1430 0016 4FF00002 		mov	r2, #0
 1431 001a 1A70     		strb	r2, [r3, #0]
 824:.\Generated_Source\PSoC5/CySpc.c **** 
 825:.\Generated_Source\PSoC5/CySpc.c ****     #if(CY_PSOC5LP)
 826:.\Generated_Source\PSoC5/CySpc.c **** 
 827:.\Generated_Source\PSoC5/CySpc.c ****         if(CY_SPC_CPU_WAITPIPE_BYPASS == spcWaitPipeBypass)
 1432              		.loc 1 827 0
 1433 001c 40F20003 		movw	r3, #:lower16:spcWaitPipeBypass
 1434 0020 C0F20003 		movt	r3, #:upper16:spcWaitPipeBypass
 1435 0024 1B78     		ldrb	r3, [r3, #0]	@ zero_extendqisi2
 1436 0026 012B     		cmp	r3, #1
 1437 0028 15D1     		bne	.L84
 828:.\Generated_Source\PSoC5/CySpc.c ****         {
 829:.\Generated_Source\PSoC5/CySpc.c ****             /* Force to bypass pipeline registers */
 830:.\Generated_Source\PSoC5/CySpc.c ****             CY_SPC_CPU_WAITPIPE_REG |= CY_SPC_CPU_WAITPIPE_BYPASS;
 1438              		.loc 1 830 0
 1439 002a 40F20403 		movw	r3, #:lower16:1074266116
 1440 002e C4F20803 		movt	r3, #:upper16:1074266116
 1441 0032 40F20402 		movw	r2, #:lower16:1074266116
 1442 0036 C4F20802 		movt	r2, #:upper16:1074266116
 1443 003a 1268     		ldr	r2, [r2, #0]
 1444 003c 42F00102 		orr	r2, r2, #1
 1445 0040 1A60     		str	r2, [r3, #0]
 831:.\Generated_Source\PSoC5/CySpc.c **** 
ARM GAS  C:\Users\csap2972\AppData\Local\Temp\cczsvW7p.s 			page 41


 832:.\Generated_Source\PSoC5/CySpc.c ****             /* At least 2 NOP instructions are recommended */
 833:.\Generated_Source\PSoC5/CySpc.c ****             CY_NOP;
 1446              		.loc 1 833 0
 1447              	@ 833 ".\Generated_Source\PSoC5\CySpc.c" 1
 1448 0042 00BF     		NOP
 1449              	
 1450              	@ 0 "" 2
 834:.\Generated_Source\PSoC5/CySpc.c ****             CY_NOP;
 1451              		.loc 1 834 0
 1452              	@ 834 ".\Generated_Source\PSoC5\CySpc.c" 1
 1453 0044 00BF     		NOP
 1454              	
 1455              	@ 0 "" 2
 835:.\Generated_Source\PSoC5/CySpc.c ****             CY_NOP;
 1456              		.loc 1 835 0
 1457              	@ 835 ".\Generated_Source\PSoC5\CySpc.c" 1
 1458 0046 00BF     		NOP
 1459              	
 1460              	@ 0 "" 2
 836:.\Generated_Source\PSoC5/CySpc.c **** 
 837:.\Generated_Source\PSoC5/CySpc.c ****             spcWaitPipeBypass = 0u;
 1461              		.loc 1 837 0
 1462              		.thumb
 1463 0048 40F20003 		movw	r3, #:lower16:spcWaitPipeBypass
 1464 004c C0F20003 		movt	r3, #:upper16:spcWaitPipeBypass
 1465 0050 4FF00002 		mov	r2, #0
 1466 0054 1A70     		strb	r2, [r3, #0]
 1467              	.L84:
 838:.\Generated_Source\PSoC5/CySpc.c ****         }
 839:.\Generated_Source\PSoC5/CySpc.c **** 
 840:.\Generated_Source\PSoC5/CySpc.c ****     #endif  /* (CY_PSOC5LP) */
 841:.\Generated_Source\PSoC5/CySpc.c **** 
 842:.\Generated_Source\PSoC5/CySpc.c ****     /* Exit critical section */
 843:.\Generated_Source\PSoC5/CySpc.c ****     CyExitCriticalSection(interruptState);
 1468              		.loc 1 843 0
 1469 0056 FB79     		ldrb	r3, [r7, #7]	@ zero_extendqisi2
 1470 0058 1846     		mov	r0, r3
 1471 005a FFF7FEFF 		bl	CyExitCriticalSection
 844:.\Generated_Source\PSoC5/CySpc.c **** }
 1472              		.loc 1 844 0
 1473 005e 07F10807 		add	r7, r7, #8
 1474 0062 BD46     		mov	sp, r7
 1475 0064 80BD     		pop	{r7, pc}
 1476              		.cfi_endproc
 1477              	.LFE14:
 1478              		.size	CySpcUnlock, .-CySpcUnlock
 1479 0066 00BF     		.text
 1480              	.Letext0:
 1481              		.section	.debug_loc,"",%progbits
 1482              	.Ldebug_loc0:
 1483              	.LLST0:
 1484 0000 00000000 		.4byte	.LFB0
 1485 0004 02000000 		.4byte	.LCFI0
 1486 0008 0100     		.2byte	0x1
 1487 000a 5D       		.byte	0x5d
 1488 000b 02000000 		.4byte	.LCFI0
 1489 000f 04000000 		.4byte	.LCFI1
ARM GAS  C:\Users\csap2972\AppData\Local\Temp\cczsvW7p.s 			page 42


 1490 0013 0200     		.2byte	0x2
 1491 0015 7D       		.byte	0x7d
 1492 0016 08       		.sleb128 8
 1493 0017 04000000 		.4byte	.LCFI1
 1494 001b 06000000 		.4byte	.LCFI2
 1495 001f 0200     		.2byte	0x2
 1496 0021 7D       		.byte	0x7d
 1497 0022 10       		.sleb128 16
 1498 0023 06000000 		.4byte	.LCFI2
 1499 0027 56000000 		.4byte	.LFE0
 1500 002b 0200     		.2byte	0x2
 1501 002d 77       		.byte	0x77
 1502 002e 10       		.sleb128 16
 1503 002f 00000000 		.4byte	0x0
 1504 0033 00000000 		.4byte	0x0
 1505              	.LLST1:
 1506 0037 00000000 		.4byte	.LFB1
 1507 003b 02000000 		.4byte	.LCFI3
 1508 003f 0100     		.2byte	0x1
 1509 0041 5D       		.byte	0x5d
 1510 0042 02000000 		.4byte	.LCFI3
 1511 0046 04000000 		.4byte	.LCFI4
 1512 004a 0200     		.2byte	0x2
 1513 004c 7D       		.byte	0x7d
 1514 004d 08       		.sleb128 8
 1515 004e 04000000 		.4byte	.LCFI4
 1516 0052 06000000 		.4byte	.LCFI5
 1517 0056 0200     		.2byte	0x2
 1518 0058 7D       		.byte	0x7d
 1519 0059 10       		.sleb128 16
 1520 005a 06000000 		.4byte	.LCFI5
 1521 005e 52000000 		.4byte	.LFE1
 1522 0062 0200     		.2byte	0x2
 1523 0064 77       		.byte	0x77
 1524 0065 10       		.sleb128 16
 1525 0066 00000000 		.4byte	0x0
 1526 006a 00000000 		.4byte	0x0
 1527              	.LLST2:
 1528 006e 00000000 		.4byte	.LFB2
 1529 0072 02000000 		.4byte	.LCFI6
 1530 0076 0100     		.2byte	0x1
 1531 0078 5D       		.byte	0x5d
 1532 0079 02000000 		.4byte	.LCFI6
 1533 007d 04000000 		.4byte	.LCFI7
 1534 0081 0200     		.2byte	0x2
 1535 0083 7D       		.byte	0x7d
 1536 0084 08       		.sleb128 8
 1537 0085 04000000 		.4byte	.LCFI7
 1538 0089 06000000 		.4byte	.LCFI8
 1539 008d 0200     		.2byte	0x2
 1540 008f 7D       		.byte	0x7d
 1541 0090 18       		.sleb128 24
 1542 0091 06000000 		.4byte	.LCFI8
 1543 0095 64000000 		.4byte	.LFE2
 1544 0099 0200     		.2byte	0x2
 1545 009b 77       		.byte	0x77
 1546 009c 18       		.sleb128 24
ARM GAS  C:\Users\csap2972\AppData\Local\Temp\cczsvW7p.s 			page 43


 1547 009d 00000000 		.4byte	0x0
 1548 00a1 00000000 		.4byte	0x0
 1549              	.LLST3:
 1550 00a5 00000000 		.4byte	.LFB3
 1551 00a9 02000000 		.4byte	.LCFI9
 1552 00ad 0100     		.2byte	0x1
 1553 00af 5D       		.byte	0x5d
 1554 00b0 02000000 		.4byte	.LCFI9
 1555 00b4 04000000 		.4byte	.LCFI10
 1556 00b8 0200     		.2byte	0x2
 1557 00ba 7D       		.byte	0x7d
 1558 00bb 04       		.sleb128 4
 1559 00bc 04000000 		.4byte	.LCFI10
 1560 00c0 06000000 		.4byte	.LCFI11
 1561 00c4 0200     		.2byte	0x2
 1562 00c6 7D       		.byte	0x7d
 1563 00c7 20       		.sleb128 32
 1564 00c8 06000000 		.4byte	.LCFI11
 1565 00cc 16010000 		.4byte	.LFE3
 1566 00d0 0200     		.2byte	0x2
 1567 00d2 77       		.byte	0x77
 1568 00d3 20       		.sleb128 32
 1569 00d4 00000000 		.4byte	0x0
 1570 00d8 00000000 		.4byte	0x0
 1571              	.LLST4:
 1572 00dc 00000000 		.4byte	.LFB4
 1573 00e0 02000000 		.4byte	.LCFI12
 1574 00e4 0100     		.2byte	0x1
 1575 00e6 5D       		.byte	0x5d
 1576 00e7 02000000 		.4byte	.LCFI12
 1577 00eb 04000000 		.4byte	.LCFI13
 1578 00ef 0200     		.2byte	0x2
 1579 00f1 7D       		.byte	0x7d
 1580 00f2 04       		.sleb128 4
 1581 00f3 04000000 		.4byte	.LCFI13
 1582 00f7 06000000 		.4byte	.LCFI14
 1583 00fb 0200     		.2byte	0x2
 1584 00fd 7D       		.byte	0x7d
 1585 00fe 20       		.sleb128 32
 1586 00ff 06000000 		.4byte	.LCFI14
 1587 0103 BC000000 		.4byte	.LFE4
 1588 0107 0200     		.2byte	0x2
 1589 0109 77       		.byte	0x77
 1590 010a 20       		.sleb128 32
 1591 010b 00000000 		.4byte	0x0
 1592 010f 00000000 		.4byte	0x0
 1593              	.LLST5:
 1594 0113 00000000 		.4byte	.LFB5
 1595 0117 02000000 		.4byte	.LCFI15
 1596 011b 0100     		.2byte	0x1
 1597 011d 5D       		.byte	0x5d
 1598 011e 02000000 		.4byte	.LCFI15
 1599 0122 04000000 		.4byte	.LCFI16
 1600 0126 0200     		.2byte	0x2
 1601 0128 7D       		.byte	0x7d
 1602 0129 04       		.sleb128 4
 1603 012a 04000000 		.4byte	.LCFI16
ARM GAS  C:\Users\csap2972\AppData\Local\Temp\cczsvW7p.s 			page 44


 1604 012e 06000000 		.4byte	.LCFI17
 1605 0132 0200     		.2byte	0x2
 1606 0134 7D       		.byte	0x7d
 1607 0135 18       		.sleb128 24
 1608 0136 06000000 		.4byte	.LCFI17
 1609 013a D0000000 		.4byte	.LFE5
 1610 013e 0200     		.2byte	0x2
 1611 0140 77       		.byte	0x77
 1612 0141 18       		.sleb128 24
 1613 0142 00000000 		.4byte	0x0
 1614 0146 00000000 		.4byte	0x0
 1615              	.LLST6:
 1616 014a 00000000 		.4byte	.LFB6
 1617 014e 02000000 		.4byte	.LCFI18
 1618 0152 0100     		.2byte	0x1
 1619 0154 5D       		.byte	0x5d
 1620 0155 02000000 		.4byte	.LCFI18
 1621 0159 04000000 		.4byte	.LCFI19
 1622 015d 0200     		.2byte	0x2
 1623 015f 7D       		.byte	0x7d
 1624 0160 04       		.sleb128 4
 1625 0161 04000000 		.4byte	.LCFI19
 1626 0165 06000000 		.4byte	.LCFI20
 1627 0169 0200     		.2byte	0x2
 1628 016b 7D       		.byte	0x7d
 1629 016c 18       		.sleb128 24
 1630 016d 06000000 		.4byte	.LCFI20
 1631 0171 CA000000 		.4byte	.LFE6
 1632 0175 0200     		.2byte	0x2
 1633 0177 77       		.byte	0x77
 1634 0178 18       		.sleb128 24
 1635 0179 00000000 		.4byte	0x0
 1636 017d 00000000 		.4byte	0x0
 1637              	.LLST7:
 1638 0181 00000000 		.4byte	.LFB7
 1639 0185 02000000 		.4byte	.LCFI21
 1640 0189 0100     		.2byte	0x1
 1641 018b 5D       		.byte	0x5d
 1642 018c 02000000 		.4byte	.LCFI21
 1643 0190 04000000 		.4byte	.LCFI22
 1644 0194 0200     		.2byte	0x2
 1645 0196 7D       		.byte	0x7d
 1646 0197 04       		.sleb128 4
 1647 0198 04000000 		.4byte	.LCFI22
 1648 019c 06000000 		.4byte	.LCFI23
 1649 01a0 0200     		.2byte	0x2
 1650 01a2 7D       		.byte	0x7d
 1651 01a3 18       		.sleb128 24
 1652 01a4 06000000 		.4byte	.LCFI23
 1653 01a8 CA000000 		.4byte	.LFE7
 1654 01ac 0200     		.2byte	0x2
 1655 01ae 77       		.byte	0x77
 1656 01af 18       		.sleb128 24
 1657 01b0 00000000 		.4byte	0x0
 1658 01b4 00000000 		.4byte	0x0
 1659              	.LLST8:
 1660 01b8 00000000 		.4byte	.LFB8
ARM GAS  C:\Users\csap2972\AppData\Local\Temp\cczsvW7p.s 			page 45


 1661 01bc 02000000 		.4byte	.LCFI24
 1662 01c0 0100     		.2byte	0x1
 1663 01c2 5D       		.byte	0x5d
 1664 01c3 02000000 		.4byte	.LCFI24
 1665 01c7 04000000 		.4byte	.LCFI25
 1666 01cb 0200     		.2byte	0x2
 1667 01cd 7D       		.byte	0x7d
 1668 01ce 04       		.sleb128 4
 1669 01cf 04000000 		.4byte	.LCFI25
 1670 01d3 06000000 		.4byte	.LCFI26
 1671 01d7 0200     		.2byte	0x2
 1672 01d9 7D       		.byte	0x7d
 1673 01da 18       		.sleb128 24
 1674 01db 06000000 		.4byte	.LCFI26
 1675 01df B8000000 		.4byte	.LFE8
 1676 01e3 0200     		.2byte	0x2
 1677 01e5 77       		.byte	0x77
 1678 01e6 18       		.sleb128 24
 1679 01e7 00000000 		.4byte	0x0
 1680 01eb 00000000 		.4byte	0x0
 1681              	.LLST9:
 1682 01ef 00000000 		.4byte	.LFB9
 1683 01f3 02000000 		.4byte	.LCFI27
 1684 01f7 0100     		.2byte	0x1
 1685 01f9 5D       		.byte	0x5d
 1686 01fa 02000000 		.4byte	.LCFI27
 1687 01fe 04000000 		.4byte	.LCFI28
 1688 0202 0200     		.2byte	0x2
 1689 0204 7D       		.byte	0x7d
 1690 0205 04       		.sleb128 4
 1691 0206 04000000 		.4byte	.LCFI28
 1692 020a 06000000 		.4byte	.LCFI29
 1693 020e 0200     		.2byte	0x2
 1694 0210 7D       		.byte	0x7d
 1695 0211 18       		.sleb128 24
 1696 0212 06000000 		.4byte	.LCFI29
 1697 0216 8C000000 		.4byte	.LFE9
 1698 021a 0200     		.2byte	0x2
 1699 021c 77       		.byte	0x77
 1700 021d 18       		.sleb128 24
 1701 021e 00000000 		.4byte	0x0
 1702 0222 00000000 		.4byte	0x0
 1703              	.LLST10:
 1704 0226 00000000 		.4byte	.LFB10
 1705 022a 02000000 		.4byte	.LCFI30
 1706 022e 0100     		.2byte	0x1
 1707 0230 5D       		.byte	0x5d
 1708 0231 02000000 		.4byte	.LCFI30
 1709 0235 04000000 		.4byte	.LCFI31
 1710 0239 0200     		.2byte	0x2
 1711 023b 7D       		.byte	0x7d
 1712 023c 04       		.sleb128 4
 1713 023d 04000000 		.4byte	.LCFI31
 1714 0241 06000000 		.4byte	.LCFI32
 1715 0245 0200     		.2byte	0x2
 1716 0247 7D       		.byte	0x7d
 1717 0248 18       		.sleb128 24
ARM GAS  C:\Users\csap2972\AppData\Local\Temp\cczsvW7p.s 			page 46


 1718 0249 06000000 		.4byte	.LCFI32
 1719 024d B4000000 		.4byte	.LFE10
 1720 0251 0200     		.2byte	0x2
 1721 0253 77       		.byte	0x77
 1722 0254 18       		.sleb128 24
 1723 0255 00000000 		.4byte	0x0
 1724 0259 00000000 		.4byte	0x0
 1725              	.LLST11:
 1726 025d 00000000 		.4byte	.LFB11
 1727 0261 02000000 		.4byte	.LCFI33
 1728 0265 0100     		.2byte	0x1
 1729 0267 5D       		.byte	0x5d
 1730 0268 02000000 		.4byte	.LCFI33
 1731 026c 04000000 		.4byte	.LCFI34
 1732 0270 0200     		.2byte	0x2
 1733 0272 7D       		.byte	0x7d
 1734 0273 04       		.sleb128 4
 1735 0274 04000000 		.4byte	.LCFI34
 1736 0278 06000000 		.4byte	.LCFI35
 1737 027c 0200     		.2byte	0x2
 1738 027e 7D       		.byte	0x7d
 1739 027f 10       		.sleb128 16
 1740 0280 06000000 		.4byte	.LCFI35
 1741 0284 60000000 		.4byte	.LFE11
 1742 0288 0200     		.2byte	0x2
 1743 028a 77       		.byte	0x77
 1744 028b 10       		.sleb128 16
 1745 028c 00000000 		.4byte	0x0
 1746 0290 00000000 		.4byte	0x0
 1747              	.LLST12:
 1748 0294 00000000 		.4byte	.LFB12
 1749 0298 02000000 		.4byte	.LCFI36
 1750 029c 0100     		.2byte	0x1
 1751 029e 5D       		.byte	0x5d
 1752 029f 02000000 		.4byte	.LCFI36
 1753 02a3 04000000 		.4byte	.LCFI37
 1754 02a7 0200     		.2byte	0x2
 1755 02a9 7D       		.byte	0x7d
 1756 02aa 04       		.sleb128 4
 1757 02ab 04000000 		.4byte	.LCFI37
 1758 02af 06000000 		.4byte	.LCFI38
 1759 02b3 0200     		.2byte	0x2
 1760 02b5 7D       		.byte	0x7d
 1761 02b6 18       		.sleb128 24
 1762 02b7 06000000 		.4byte	.LCFI38
 1763 02bb CA000000 		.4byte	.LFE12
 1764 02bf 0200     		.2byte	0x2
 1765 02c1 77       		.byte	0x77
 1766 02c2 18       		.sleb128 24
 1767 02c3 00000000 		.4byte	0x0
 1768 02c7 00000000 		.4byte	0x0
 1769              	.LLST13:
 1770 02cb 00000000 		.4byte	.LFB13
 1771 02cf 02000000 		.4byte	.LCFI39
 1772 02d3 0100     		.2byte	0x1
 1773 02d5 5D       		.byte	0x5d
 1774 02d6 02000000 		.4byte	.LCFI39
ARM GAS  C:\Users\csap2972\AppData\Local\Temp\cczsvW7p.s 			page 47


 1775 02da 04000000 		.4byte	.LCFI40
 1776 02de 0200     		.2byte	0x2
 1777 02e0 7D       		.byte	0x7d
 1778 02e1 08       		.sleb128 8
 1779 02e2 04000000 		.4byte	.LCFI40
 1780 02e6 06000000 		.4byte	.LCFI41
 1781 02ea 0200     		.2byte	0x2
 1782 02ec 7D       		.byte	0x7d
 1783 02ed 10       		.sleb128 16
 1784 02ee 06000000 		.4byte	.LCFI41
 1785 02f2 8A000000 		.4byte	.LFE13
 1786 02f6 0200     		.2byte	0x2
 1787 02f8 77       		.byte	0x77
 1788 02f9 10       		.sleb128 16
 1789 02fa 00000000 		.4byte	0x0
 1790 02fe 00000000 		.4byte	0x0
 1791              	.LLST14:
 1792 0302 00000000 		.4byte	.LFB14
 1793 0306 02000000 		.4byte	.LCFI42
 1794 030a 0100     		.2byte	0x1
 1795 030c 5D       		.byte	0x5d
 1796 030d 02000000 		.4byte	.LCFI42
 1797 0311 04000000 		.4byte	.LCFI43
 1798 0315 0200     		.2byte	0x2
 1799 0317 7D       		.byte	0x7d
 1800 0318 08       		.sleb128 8
 1801 0319 04000000 		.4byte	.LCFI43
 1802 031d 06000000 		.4byte	.LCFI44
 1803 0321 0200     		.2byte	0x2
 1804 0323 7D       		.byte	0x7d
 1805 0324 10       		.sleb128 16
 1806 0325 06000000 		.4byte	.LCFI44
 1807 0329 66000000 		.4byte	.LFE14
 1808 032d 0200     		.2byte	0x2
 1809 032f 77       		.byte	0x77
 1810 0330 10       		.sleb128 16
 1811 0331 00000000 		.4byte	0x0
 1812 0335 00000000 		.4byte	0x0
 1813              		.file 2 ".\\Generated_Source\\PSoC5\\/cytypes.h"
 1814              		.section	.debug_info
 1815 0000 67050000 		.4byte	0x567
 1816 0004 0200     		.2byte	0x2
 1817 0006 00000000 		.4byte	.Ldebug_abbrev0
 1818 000a 04       		.byte	0x4
 1819 000b 01       		.uleb128 0x1
 1820 000c FF010000 		.4byte	.LASF43
 1821 0010 01       		.byte	0x1
 1822 0011 54000000 		.4byte	.LASF44
 1823 0015 AA000000 		.4byte	.LASF45
 1824 0019 00000000 		.4byte	0x0
 1825 001d 00000000 		.4byte	0x0
 1826 0021 00000000 		.4byte	.Ldebug_ranges0+0x0
 1827 0025 00000000 		.4byte	.Ldebug_line0
 1828 0029 02       		.uleb128 0x2
 1829 002a 01       		.byte	0x1
 1830 002b 06       		.byte	0x6
 1831 002c 78020000 		.4byte	.LASF0
ARM GAS  C:\Users\csap2972\AppData\Local\Temp\cczsvW7p.s 			page 48


 1832 0030 02       		.uleb128 0x2
 1833 0031 01       		.byte	0x1
 1834 0032 08       		.byte	0x8
 1835 0033 4F010000 		.4byte	.LASF1
 1836 0037 02       		.uleb128 0x2
 1837 0038 02       		.byte	0x2
 1838 0039 05       		.byte	0x5
 1839 003a 23020000 		.4byte	.LASF2
 1840 003e 02       		.uleb128 0x2
 1841 003f 02       		.byte	0x2
 1842 0040 07       		.byte	0x7
 1843 0041 75000000 		.4byte	.LASF3
 1844 0045 02       		.uleb128 0x2
 1845 0046 04       		.byte	0x4
 1846 0047 05       		.byte	0x5
 1847 0048 4A020000 		.4byte	.LASF4
 1848 004c 02       		.uleb128 0x2
 1849 004d 04       		.byte	0x4
 1850 004e 07       		.byte	0x7
 1851 004f 17010000 		.4byte	.LASF5
 1852 0053 02       		.uleb128 0x2
 1853 0054 08       		.byte	0x8
 1854 0055 05       		.byte	0x5
 1855 0056 00000000 		.4byte	.LASF6
 1856 005a 02       		.uleb128 0x2
 1857 005b 08       		.byte	0x8
 1858 005c 07       		.byte	0x7
 1859 005d 9F010000 		.4byte	.LASF7
 1860 0061 03       		.uleb128 0x3
 1861 0062 04       		.byte	0x4
 1862 0063 05       		.byte	0x5
 1863 0064 696E7400 		.ascii	"int\000"
 1864 0068 02       		.uleb128 0x2
 1865 0069 04       		.byte	0x4
 1866 006a 07       		.byte	0x7
 1867 006b 8A010000 		.4byte	.LASF8
 1868 006f 02       		.uleb128 0x2
 1869 0070 01       		.byte	0x1
 1870 0071 08       		.byte	0x8
 1871 0072 0B020000 		.4byte	.LASF9
 1872 0076 04       		.uleb128 0x4
 1873 0077 29010000 		.4byte	.LASF10
 1874 007b 02       		.byte	0x2
 1875 007c 60       		.byte	0x60
 1876 007d 30000000 		.4byte	0x30
 1877 0081 04       		.uleb128 0x4
 1878 0082 79010000 		.4byte	.LASF11
 1879 0086 02       		.byte	0x2
 1880 0087 61       		.byte	0x61
 1881 0088 3E000000 		.4byte	0x3e
 1882 008c 05       		.uleb128 0x5
 1883 008d 1E000000 		.4byte	.LASF12
 1884 0091 02       		.byte	0x2
 1885 0092 2E01     		.2byte	0x12e
 1886 0094 4C000000 		.4byte	0x4c
 1887 0098 06       		.uleb128 0x6
 1888 0099 04       		.byte	0x4
ARM GAS  C:\Users\csap2972\AppData\Local\Temp\cczsvW7p.s 			page 49


 1889 009a 07       		.byte	0x7
 1890 009b 07       		.uleb128 0x7
 1891 009c 01       		.byte	0x1
 1892 009d 27000000 		.4byte	.LASF13
 1893 00a1 01       		.byte	0x1
 1894 00a2 51       		.byte	0x51
 1895 00a3 01       		.byte	0x1
 1896 00a4 00000000 		.4byte	.LFB0
 1897 00a8 56000000 		.4byte	.LFE0
 1898 00ac 00000000 		.4byte	.LLST0
 1899 00b0 C3000000 		.4byte	0xc3
 1900 00b4 08       		.uleb128 0x8
 1901 00b5 08010000 		.4byte	.LASF15
 1902 00b9 01       		.byte	0x1
 1903 00ba 54       		.byte	0x54
 1904 00bb 76000000 		.4byte	0x76
 1905 00bf 02       		.byte	0x2
 1906 00c0 91       		.byte	0x91
 1907 00c1 77       		.sleb128 -9
 1908 00c2 00       		.byte	0x0
 1909 00c3 07       		.uleb128 0x7
 1910 00c4 01       		.byte	0x1
 1911 00c5 4A000000 		.4byte	.LASF14
 1912 00c9 01       		.byte	0x1
 1913 00ca 6B       		.byte	0x6b
 1914 00cb 01       		.byte	0x1
 1915 00cc 00000000 		.4byte	.LFB1
 1916 00d0 52000000 		.4byte	.LFE1
 1917 00d4 37000000 		.4byte	.LLST1
 1918 00d8 EB000000 		.4byte	0xeb
 1919 00dc 08       		.uleb128 0x8
 1920 00dd 08010000 		.4byte	.LASF15
 1921 00e1 01       		.byte	0x1
 1922 00e2 6E       		.byte	0x6e
 1923 00e3 76000000 		.4byte	0x76
 1924 00e7 02       		.byte	0x2
 1925 00e8 91       		.byte	0x91
 1926 00e9 77       		.sleb128 -9
 1927 00ea 00       		.byte	0x0
 1928 00eb 09       		.uleb128 0x9
 1929 00ec 01       		.byte	0x1
 1930 00ed 95000000 		.4byte	.LASF18
 1931 00f1 01       		.byte	0x1
 1932 00f2 8A       		.byte	0x8a
 1933 00f3 01       		.byte	0x1
 1934 00f4 76000000 		.4byte	0x76
 1935 00f8 00000000 		.4byte	.LFB2
 1936 00fc 64000000 		.4byte	.LFE2
 1937 0100 6E000000 		.4byte	.LLST2
 1938 0104 31010000 		.4byte	0x131
 1939 0108 0A       		.uleb128 0xa
 1940 0109 C4010000 		.4byte	.LASF16
 1941 010d 01       		.byte	0x1
 1942 010e 8A       		.byte	0x8a
 1943 010f 31010000 		.4byte	0x131
 1944 0113 02       		.byte	0x2
 1945 0114 91       		.byte	0x91
ARM GAS  C:\Users\csap2972\AppData\Local\Temp\cczsvW7p.s 			page 50


 1946 0115 6C       		.sleb128 -20
 1947 0116 0A       		.uleb128 0xa
 1948 0117 F9000000 		.4byte	.LASF17
 1949 011b 01       		.byte	0x1
 1950 011c 8A       		.byte	0x8a
 1951 011d 76000000 		.4byte	0x76
 1952 0121 02       		.byte	0x2
 1953 0122 91       		.byte	0x91
 1954 0123 6B       		.sleb128 -21
 1955 0124 0B       		.uleb128 0xb
 1956 0125 6900     		.ascii	"i\000"
 1957 0127 01       		.byte	0x1
 1958 0128 8C       		.byte	0x8c
 1959 0129 76000000 		.4byte	0x76
 1960 012d 02       		.byte	0x2
 1961 012e 91       		.byte	0x91
 1962 012f 77       		.sleb128 -9
 1963 0130 00       		.byte	0x0
 1964 0131 0C       		.uleb128 0xc
 1965 0132 04       		.byte	0x4
 1966 0133 76000000 		.4byte	0x76
 1967 0137 09       		.uleb128 0x9
 1968 0138 01       		.byte	0x1
 1969 0139 53020000 		.4byte	.LASF19
 1970 013d 01       		.byte	0x1
 1971 013e B5       		.byte	0xb5
 1972 013f 01       		.byte	0x1
 1973 0140 8C000000 		.4byte	0x8c
 1974 0144 00000000 		.4byte	.LFB3
 1975 0148 16010000 		.4byte	.LFE3
 1976 014c A5000000 		.4byte	.LLST3
 1977 0150 A7010000 		.4byte	0x1a7
 1978 0154 0A       		.uleb128 0xa
 1979 0155 49010000 		.4byte	.LASF20
 1980 0159 01       		.byte	0x1
 1981 015a B5       		.byte	0xb5
 1982 015b 76000000 		.4byte	0x76
 1983 015f 02       		.byte	0x2
 1984 0160 91       		.byte	0x91
 1985 0161 6F       		.sleb128 -17
 1986 0162 0A       		.uleb128 0xa
 1987 0163 97010000 		.4byte	.LASF21
 1988 0167 01       		.byte	0x1
 1989 0168 B5       		.byte	0xb5
 1990 0169 81000000 		.4byte	0x81
 1991 016d 02       		.byte	0x2
 1992 016e 91       		.byte	0x91
 1993 016f 6C       		.sleb128 -20
 1994 0170 0A       		.uleb128 0xa
 1995 0171 C4010000 		.4byte	.LASF16
 1996 0175 01       		.byte	0x1
 1997 0176 B5       		.byte	0xb5
 1998 0177 A7010000 		.4byte	0x1a7
 1999 017b 02       		.byte	0x2
 2000 017c 91       		.byte	0x91
 2001 017d 68       		.sleb128 -24
 2002 017e 0A       		.uleb128 0xa
ARM GAS  C:\Users\csap2972\AppData\Local\Temp\cczsvW7p.s 			page 51


 2003 017f F9000000 		.4byte	.LASF17
 2004 0183 01       		.byte	0x1
 2005 0184 B5       		.byte	0xb5
 2006 0185 76000000 		.4byte	0x76
 2007 0189 02       		.byte	0x2
 2008 018a 91       		.byte	0x91
 2009 018b 67       		.sleb128 -25
 2010 018c 08       		.uleb128 0x8
 2011 018d A3000000 		.4byte	.LASF22
 2012 0191 01       		.byte	0x1
 2013 0192 B7       		.byte	0xb7
 2014 0193 8C000000 		.4byte	0x8c
 2015 0197 02       		.byte	0x2
 2016 0198 91       		.byte	0x91
 2017 0199 70       		.sleb128 -16
 2018 019a 0B       		.uleb128 0xb
 2019 019b 6900     		.ascii	"i\000"
 2020 019d 01       		.byte	0x1
 2021 019e B8       		.byte	0xb8
 2022 019f 76000000 		.4byte	0x76
 2023 01a3 02       		.byte	0x2
 2024 01a4 91       		.byte	0x91
 2025 01a5 77       		.sleb128 -9
 2026 01a6 00       		.byte	0x0
 2027 01a7 0C       		.uleb128 0xc
 2028 01a8 04       		.byte	0x4
 2029 01a9 AD010000 		.4byte	0x1ad
 2030 01ad 0D       		.uleb128 0xd
 2031 01ae 76000000 		.4byte	0x76
 2032 01b2 09       		.uleb128 0x9
 2033 01b3 01       		.byte	0x1
 2034 01b4 CB010000 		.4byte	.LASF23
 2035 01b8 01       		.byte	0x1
 2036 01b9 FF       		.byte	0xff
 2037 01ba 01       		.byte	0x1
 2038 01bb 8C000000 		.4byte	0x8c
 2039 01bf 00000000 		.4byte	.LFB4
 2040 01c3 BC000000 		.4byte	.LFE4
 2041 01c7 DC000000 		.4byte	.LLST4
 2042 01cb 16020000 		.4byte	0x216
 2043 01cf 0A       		.uleb128 0xa
 2044 01d0 49010000 		.4byte	.LASF20
 2045 01d4 01       		.byte	0x1
 2046 01d5 FF       		.byte	0xff
 2047 01d6 76000000 		.4byte	0x76
 2048 01da 02       		.byte	0x2
 2049 01db 91       		.byte	0x91
 2050 01dc 6F       		.sleb128 -17
 2051 01dd 0A       		.uleb128 0xa
 2052 01de C4010000 		.4byte	.LASF16
 2053 01e2 01       		.byte	0x1
 2054 01e3 FF       		.byte	0xff
 2055 01e4 A7010000 		.4byte	0x1a7
 2056 01e8 02       		.byte	0x2
 2057 01e9 91       		.byte	0x91
 2058 01ea 68       		.sleb128 -24
 2059 01eb 0A       		.uleb128 0xa
ARM GAS  C:\Users\csap2972\AppData\Local\Temp\cczsvW7p.s 			page 52


 2060 01ec F9000000 		.4byte	.LASF17
 2061 01f0 01       		.byte	0x1
 2062 01f1 FF       		.byte	0xff
 2063 01f2 81000000 		.4byte	0x81
 2064 01f6 02       		.byte	0x2
 2065 01f7 91       		.byte	0x91
 2066 01f8 66       		.sleb128 -26
 2067 01f9 0E       		.uleb128 0xe
 2068 01fa A3000000 		.4byte	.LASF22
 2069 01fe 01       		.byte	0x1
 2070 01ff 0101     		.2byte	0x101
 2071 0201 8C000000 		.4byte	0x8c
 2072 0205 02       		.byte	0x2
 2073 0206 91       		.byte	0x91
 2074 0207 70       		.sleb128 -16
 2075 0208 0F       		.uleb128 0xf
 2076 0209 6900     		.ascii	"i\000"
 2077 020b 01       		.byte	0x1
 2078 020c 0201     		.2byte	0x102
 2079 020e 81000000 		.4byte	0x81
 2080 0212 02       		.byte	0x2
 2081 0213 91       		.byte	0x91
 2082 0214 76       		.sleb128 -10
 2083 0215 00       		.byte	0x0
 2084 0216 10       		.uleb128 0x10
 2085 0217 01       		.byte	0x1
 2086 0218 10020000 		.4byte	.LASF24
 2087 021c 01       		.byte	0x1
 2088 021d 3E01     		.2byte	0x13e
 2089 021f 01       		.byte	0x1
 2090 0220 8C000000 		.4byte	0x8c
 2091 0224 00000000 		.4byte	.LFB5
 2092 0228 D0000000 		.4byte	.LFE5
 2093 022c 13010000 		.4byte	.LLST5
 2094 0230 80020000 		.4byte	0x280
 2095 0234 11       		.uleb128 0x11
 2096 0235 49010000 		.4byte	.LASF20
 2097 0239 01       		.byte	0x1
 2098 023a 3E01     		.2byte	0x13e
 2099 023c 76000000 		.4byte	0x76
 2100 0240 02       		.byte	0x2
 2101 0241 91       		.byte	0x91
 2102 0242 6F       		.sleb128 -17
 2103 0243 12       		.uleb128 0x12
 2104 0244 65636300 		.ascii	"ecc\000"
 2105 0248 01       		.byte	0x1
 2106 0249 3E01     		.2byte	0x13e
 2107 024b 76000000 		.4byte	0x76
 2108 024f 02       		.byte	0x2
 2109 0250 91       		.byte	0x91
 2110 0251 6E       		.sleb128 -18
 2111 0252 11       		.uleb128 0x11
 2112 0253 97010000 		.4byte	.LASF21
 2113 0257 01       		.byte	0x1
 2114 0258 3E01     		.2byte	0x13e
 2115 025a 81000000 		.4byte	0x81
 2116 025e 02       		.byte	0x2
ARM GAS  C:\Users\csap2972\AppData\Local\Temp\cczsvW7p.s 			page 53


 2117 025f 91       		.byte	0x91
 2118 0260 6C       		.sleb128 -20
 2119 0261 11       		.uleb128 0x11
 2120 0262 F9000000 		.4byte	.LASF17
 2121 0266 01       		.byte	0x1
 2122 0267 3E01     		.2byte	0x13e
 2123 0269 76000000 		.4byte	0x76
 2124 026d 02       		.byte	0x2
 2125 026e 91       		.byte	0x91
 2126 026f 6B       		.sleb128 -21
 2127 0270 0E       		.uleb128 0xe
 2128 0271 A3000000 		.4byte	.LASF22
 2129 0275 01       		.byte	0x1
 2130 0276 4001     		.2byte	0x140
 2131 0278 8C000000 		.4byte	0x8c
 2132 027c 02       		.byte	0x2
 2133 027d 91       		.byte	0x91
 2134 027e 74       		.sleb128 -12
 2135 027f 00       		.byte	0x0
 2136 0280 10       		.uleb128 0x10
 2137 0281 01       		.byte	0x1
 2138 0282 32000000 		.4byte	.LASF25
 2139 0286 01       		.byte	0x1
 2140 0287 7B01     		.2byte	0x17b
 2141 0289 01       		.byte	0x1
 2142 028a 8C000000 		.4byte	0x8c
 2143 028e 00000000 		.4byte	.LFB6
 2144 0292 CA000000 		.4byte	.LFE6
 2145 0296 4A010000 		.4byte	.LLST6
 2146 029a EA020000 		.4byte	0x2ea
 2147 029e 11       		.uleb128 0x11
 2148 029f 49010000 		.4byte	.LASF20
 2149 02a3 01       		.byte	0x1
 2150 02a4 7B01     		.2byte	0x17b
 2151 02a6 76000000 		.4byte	0x76
 2152 02aa 02       		.byte	0x2
 2153 02ab 91       		.byte	0x91
 2154 02ac 6F       		.sleb128 -17
 2155 02ad 11       		.uleb128 0x11
 2156 02ae 97010000 		.4byte	.LASF21
 2157 02b2 01       		.byte	0x1
 2158 02b3 7B01     		.2byte	0x17b
 2159 02b5 81000000 		.4byte	0x81
 2160 02b9 02       		.byte	0x2
 2161 02ba 91       		.byte	0x91
 2162 02bb 6C       		.sleb128 -20
 2163 02bc 11       		.uleb128 0x11
 2164 02bd 3C010000 		.4byte	.LASF26
 2165 02c1 01       		.byte	0x1
 2166 02c2 7B01     		.2byte	0x17b
 2167 02c4 76000000 		.4byte	0x76
 2168 02c8 02       		.byte	0x2
 2169 02c9 91       		.byte	0x91
 2170 02ca 6B       		.sleb128 -21
 2171 02cb 11       		.uleb128 0x11
 2172 02cc B6010000 		.4byte	.LASF27
 2173 02d0 01       		.byte	0x1
ARM GAS  C:\Users\csap2972\AppData\Local\Temp\cczsvW7p.s 			page 54


 2174 02d1 7B01     		.2byte	0x17b
 2175 02d3 76000000 		.4byte	0x76
 2176 02d7 02       		.byte	0x2
 2177 02d8 91       		.byte	0x91
 2178 02d9 6A       		.sleb128 -22
 2179 02da 0E       		.uleb128 0xe
 2180 02db A3000000 		.4byte	.LASF22
 2181 02df 01       		.byte	0x1
 2182 02e0 7D01     		.2byte	0x17d
 2183 02e2 8C000000 		.4byte	0x8c
 2184 02e6 02       		.byte	0x2
 2185 02e7 91       		.byte	0x91
 2186 02e8 74       		.sleb128 -12
 2187 02e9 00       		.byte	0x0
 2188 02ea 10       		.uleb128 0x10
 2189 02eb 01       		.byte	0x1
 2190 02ec 0E000000 		.4byte	.LASF28
 2191 02f0 01       		.byte	0x1
 2192 02f1 B001     		.2byte	0x1b0
 2193 02f3 01       		.byte	0x1
 2194 02f4 8C000000 		.4byte	0x8c
 2195 02f8 00000000 		.4byte	.LFB7
 2196 02fc CA000000 		.4byte	.LFE7
 2197 0300 81010000 		.4byte	.LLST7
 2198 0304 54030000 		.4byte	0x354
 2199 0308 11       		.uleb128 0x11
 2200 0309 49010000 		.4byte	.LASF20
 2201 030d 01       		.byte	0x1
 2202 030e B001     		.2byte	0x1b0
 2203 0310 76000000 		.4byte	0x76
 2204 0314 02       		.byte	0x2
 2205 0315 91       		.byte	0x91
 2206 0316 6F       		.sleb128 -17
 2207 0317 11       		.uleb128 0x11
 2208 0318 97010000 		.4byte	.LASF21
 2209 031c 01       		.byte	0x1
 2210 031d B001     		.2byte	0x1b0
 2211 031f 81000000 		.4byte	0x81
 2212 0323 02       		.byte	0x2
 2213 0324 91       		.byte	0x91
 2214 0325 6C       		.sleb128 -20
 2215 0326 11       		.uleb128 0x11
 2216 0327 3C010000 		.4byte	.LASF26
 2217 032b 01       		.byte	0x1
 2218 032c B001     		.2byte	0x1b0
 2219 032e 76000000 		.4byte	0x76
 2220 0332 02       		.byte	0x2
 2221 0333 91       		.byte	0x91
 2222 0334 6B       		.sleb128 -21
 2223 0335 11       		.uleb128 0x11
 2224 0336 B6010000 		.4byte	.LASF27
 2225 033a 01       		.byte	0x1
 2226 033b B001     		.2byte	0x1b0
 2227 033d 76000000 		.4byte	0x76
 2228 0341 02       		.byte	0x2
 2229 0342 91       		.byte	0x91
 2230 0343 6A       		.sleb128 -22
ARM GAS  C:\Users\csap2972\AppData\Local\Temp\cczsvW7p.s 			page 55


 2231 0344 0E       		.uleb128 0xe
 2232 0345 A3000000 		.4byte	.LASF22
 2233 0349 01       		.byte	0x1
 2234 034a B201     		.2byte	0x1b2
 2235 034c 8C000000 		.4byte	0x8c
 2236 0350 02       		.byte	0x2
 2237 0351 91       		.byte	0x91
 2238 0352 74       		.sleb128 -12
 2239 0353 00       		.byte	0x0
 2240 0354 10       		.uleb128 0x10
 2241 0355 01       		.byte	0x1
 2242 0356 EE010000 		.4byte	.LASF29
 2243 035a 01       		.byte	0x1
 2244 035b E501     		.2byte	0x1e5
 2245 035d 01       		.byte	0x1
 2246 035e 8C000000 		.4byte	0x8c
 2247 0362 00000000 		.4byte	.LFB8
 2248 0366 B8000000 		.4byte	.LFE8
 2249 036a B8010000 		.4byte	.LLST8
 2250 036e A0030000 		.4byte	0x3a0
 2251 0372 11       		.uleb128 0x11
 2252 0373 49010000 		.4byte	.LASF20
 2253 0377 01       		.byte	0x1
 2254 0378 E501     		.2byte	0x1e5
 2255 037a 76000000 		.4byte	0x76
 2256 037e 02       		.byte	0x2
 2257 037f 91       		.byte	0x91
 2258 0380 6F       		.sleb128 -17
 2259 0381 11       		.uleb128 0x11
 2260 0382 97010000 		.4byte	.LASF21
 2261 0386 01       		.byte	0x1
 2262 0387 E501     		.2byte	0x1e5
 2263 0389 81000000 		.4byte	0x81
 2264 038d 02       		.byte	0x2
 2265 038e 91       		.byte	0x91
 2266 038f 6C       		.sleb128 -20
 2267 0390 0E       		.uleb128 0xe
 2268 0391 A3000000 		.4byte	.LASF22
 2269 0395 01       		.byte	0x1
 2270 0396 E701     		.2byte	0x1e7
 2271 0398 8C000000 		.4byte	0x8c
 2272 039c 02       		.byte	0x2
 2273 039d 91       		.byte	0x91
 2274 039e 74       		.sleb128 -12
 2275 039f 00       		.byte	0x0
 2276 03a0 10       		.uleb128 0x10
 2277 03a1 01       		.byte	0x1
 2278 03a2 6C010000 		.4byte	.LASF30
 2279 03a6 01       		.byte	0x1
 2280 03a7 2702     		.2byte	0x227
 2281 03a9 01       		.byte	0x1
 2282 03aa 8C000000 		.4byte	0x8c
 2283 03ae 00000000 		.4byte	.LFB9
 2284 03b2 8C000000 		.4byte	.LFE9
 2285 03b6 EF010000 		.4byte	.LLST9
 2286 03ba DD030000 		.4byte	0x3dd
 2287 03be 11       		.uleb128 0x11
ARM GAS  C:\Users\csap2972\AppData\Local\Temp\cczsvW7p.s 			page 56


 2288 03bf 84020000 		.4byte	.LASF31
 2289 03c3 01       		.byte	0x1
 2290 03c4 2702     		.2byte	0x227
 2291 03c6 76000000 		.4byte	0x76
 2292 03ca 02       		.byte	0x2
 2293 03cb 91       		.byte	0x91
 2294 03cc 6F       		.sleb128 -17
 2295 03cd 0E       		.uleb128 0xe
 2296 03ce A3000000 		.4byte	.LASF22
 2297 03d2 01       		.byte	0x1
 2298 03d3 2A02     		.2byte	0x22a
 2299 03d5 8C000000 		.4byte	0x8c
 2300 03d9 02       		.byte	0x2
 2301 03da 91       		.byte	0x91
 2302 03db 74       		.sleb128 -12
 2303 03dc 00       		.byte	0x0
 2304 03dd 10       		.uleb128 0x10
 2305 03de 01       		.byte	0x1
 2306 03df 88000000 		.4byte	.LASF32
 2307 03e3 01       		.byte	0x1
 2308 03e4 6B02     		.2byte	0x26b
 2309 03e6 01       		.byte	0x1
 2310 03e7 8C000000 		.4byte	0x8c
 2311 03eb 00000000 		.4byte	.LFB10
 2312 03ef B4000000 		.4byte	.LFE10
 2313 03f3 26020000 		.4byte	.LLST10
 2314 03f7 47040000 		.4byte	0x447
 2315 03fb 11       		.uleb128 0x11
 2316 03fc 40000000 		.4byte	.LASF33
 2317 0400 01       		.byte	0x1
 2318 0401 6B02     		.2byte	0x26b
 2319 0403 76000000 		.4byte	0x76
 2320 0407 02       		.byte	0x2
 2321 0408 91       		.byte	0x91
 2322 0409 6F       		.sleb128 -17
 2323 040a 11       		.uleb128 0x11
 2324 040b D8010000 		.4byte	.LASF34
 2325 040f 01       		.byte	0x1
 2326 0410 6B02     		.2byte	0x26b
 2327 0412 76000000 		.4byte	0x76
 2328 0416 02       		.byte	0x2
 2329 0417 91       		.byte	0x91
 2330 0418 6E       		.sleb128 -18
 2331 0419 11       		.uleb128 0x11
 2332 041a FE000000 		.4byte	.LASF35
 2333 041e 01       		.byte	0x1
 2334 041f 6B02     		.2byte	0x26b
 2335 0421 76000000 		.4byte	0x76
 2336 0425 02       		.byte	0x2
 2337 0426 91       		.byte	0x91
 2338 0427 6D       		.sleb128 -19
 2339 0428 11       		.uleb128 0x11
 2340 0429 5D010000 		.4byte	.LASF36
 2341 042d 01       		.byte	0x1
 2342 042e 6B02     		.2byte	0x26b
 2343 0430 76000000 		.4byte	0x76
 2344 0434 02       		.byte	0x2
ARM GAS  C:\Users\csap2972\AppData\Local\Temp\cczsvW7p.s 			page 57


 2345 0435 91       		.byte	0x91
 2346 0436 6C       		.sleb128 -20
 2347 0437 0E       		.uleb128 0xe
 2348 0438 A3000000 		.4byte	.LASF22
 2349 043c 01       		.byte	0x1
 2350 043d 6D02     		.2byte	0x26d
 2351 043f 8C000000 		.4byte	0x8c
 2352 0443 02       		.byte	0x2
 2353 0444 91       		.byte	0x91
 2354 0445 74       		.sleb128 -12
 2355 0446 00       		.byte	0x0
 2356 0447 10       		.uleb128 0x10
 2357 0448 01       		.byte	0x1
 2358 0449 3B020000 		.4byte	.LASF37
 2359 044d 01       		.byte	0x1
 2360 044e 9B02     		.2byte	0x29b
 2361 0450 01       		.byte	0x1
 2362 0451 8C000000 		.4byte	0x8c
 2363 0455 00000000 		.4byte	.LFB11
 2364 0459 60000000 		.4byte	.LFE11
 2365 045d 5D020000 		.4byte	.LLST11
 2366 0461 75040000 		.4byte	0x475
 2367 0465 0E       		.uleb128 0xe
 2368 0466 A3000000 		.4byte	.LASF22
 2369 046a 01       		.byte	0x1
 2370 046b 9D02     		.2byte	0x29d
 2371 046d 8C000000 		.4byte	0x8c
 2372 0471 02       		.byte	0x2
 2373 0472 91       		.byte	0x91
 2374 0473 74       		.sleb128 -12
 2375 0474 00       		.byte	0x0
 2376 0475 10       		.uleb128 0x10
 2377 0476 01       		.byte	0x1
 2378 0477 2D020000 		.4byte	.LASF38
 2379 047b 01       		.byte	0x1
 2380 047c CA02     		.2byte	0x2ca
 2381 047e 01       		.byte	0x1
 2382 047f 8C000000 		.4byte	0x8c
 2383 0483 00000000 		.4byte	.LFB12
 2384 0487 CA000000 		.4byte	.LFE12
 2385 048b 94020000 		.4byte	.LLST12
 2386 048f DF040000 		.4byte	0x4df
 2387 0493 11       		.uleb128 0x11
 2388 0494 49010000 		.4byte	.LASF20
 2389 0498 01       		.byte	0x1
 2390 0499 CA02     		.2byte	0x2ca
 2391 049b 76000000 		.4byte	0x76
 2392 049f 02       		.byte	0x2
 2393 04a0 91       		.byte	0x91
 2394 04a1 6F       		.sleb128 -17
 2395 04a2 11       		.uleb128 0x11
 2396 04a3 97010000 		.4byte	.LASF21
 2397 04a7 01       		.byte	0x1
 2398 04a8 CA02     		.2byte	0x2ca
 2399 04aa 81000000 		.4byte	0x81
 2400 04ae 02       		.byte	0x2
 2401 04af 91       		.byte	0x91
ARM GAS  C:\Users\csap2972\AppData\Local\Temp\cczsvW7p.s 			page 58


 2402 04b0 6C       		.sleb128 -20
 2403 04b1 11       		.uleb128 0x11
 2404 04b2 3C010000 		.4byte	.LASF26
 2405 04b6 01       		.byte	0x1
 2406 04b7 CA02     		.2byte	0x2ca
 2407 04b9 76000000 		.4byte	0x76
 2408 04bd 02       		.byte	0x2
 2409 04be 91       		.byte	0x91
 2410 04bf 6B       		.sleb128 -21
 2411 04c0 11       		.uleb128 0x11
 2412 04c1 B6010000 		.4byte	.LASF27
 2413 04c5 01       		.byte	0x1
 2414 04c6 CA02     		.2byte	0x2ca
 2415 04c8 76000000 		.4byte	0x76
 2416 04cc 02       		.byte	0x2
 2417 04cd 91       		.byte	0x91
 2418 04ce 6A       		.sleb128 -22
 2419 04cf 0E       		.uleb128 0xe
 2420 04d0 A3000000 		.4byte	.LASF22
 2421 04d4 01       		.byte	0x1
 2422 04d5 CC02     		.2byte	0x2cc
 2423 04d7 8C000000 		.4byte	0x8c
 2424 04db 02       		.byte	0x2
 2425 04dc 91       		.byte	0x91
 2426 04dd 74       		.sleb128 -12
 2427 04de 00       		.byte	0x0
 2428 04df 10       		.uleb128 0x10
 2429 04e0 01       		.byte	0x1
 2430 04e1 80010000 		.4byte	.LASF39
 2431 04e5 01       		.byte	0x1
 2432 04e6 FB02     		.2byte	0x2fb
 2433 04e8 01       		.byte	0x1
 2434 04e9 8C000000 		.4byte	0x8c
 2435 04ed 00000000 		.4byte	.LFB13
 2436 04f1 8A000000 		.4byte	.LFE13
 2437 04f5 CB020000 		.4byte	.LLST13
 2438 04f9 1C050000 		.4byte	0x51c
 2439 04fd 0E       		.uleb128 0xe
 2440 04fe A3000000 		.4byte	.LASF22
 2441 0502 01       		.byte	0x1
 2442 0503 FD02     		.2byte	0x2fd
 2443 0505 8C000000 		.4byte	0x8c
 2444 0509 02       		.byte	0x2
 2445 050a 91       		.byte	0x91
 2446 050b 70       		.sleb128 -16
 2447 050c 0E       		.uleb128 0xe
 2448 050d 08010000 		.4byte	.LASF15
 2449 0511 01       		.byte	0x1
 2450 0512 FE02     		.2byte	0x2fe
 2451 0514 76000000 		.4byte	0x76
 2452 0518 02       		.byte	0x2
 2453 0519 91       		.byte	0x91
 2454 051a 77       		.sleb128 -9
 2455 051b 00       		.byte	0x0
 2456 051c 13       		.uleb128 0x13
 2457 051d 01       		.byte	0x1
 2458 051e E2010000 		.4byte	.LASF40
ARM GAS  C:\Users\csap2972\AppData\Local\Temp\cczsvW7p.s 			page 59


 2459 0522 01       		.byte	0x1
 2460 0523 2F03     		.2byte	0x32f
 2461 0525 01       		.byte	0x1
 2462 0526 00000000 		.4byte	.LFB14
 2463 052a 66000000 		.4byte	.LFE14
 2464 052e 02030000 		.4byte	.LLST14
 2465 0532 46050000 		.4byte	0x546
 2466 0536 0E       		.uleb128 0xe
 2467 0537 08010000 		.4byte	.LASF15
 2468 053b 01       		.byte	0x1
 2469 053c 3103     		.2byte	0x331
 2470 053e 76000000 		.4byte	0x76
 2471 0542 02       		.byte	0x2
 2472 0543 91       		.byte	0x91
 2473 0544 77       		.sleb128 -9
 2474 0545 00       		.byte	0x0
 2475 0546 14       		.uleb128 0x14
 2476 0547 2F010000 		.4byte	.LASF41
 2477 054b 01       		.byte	0x1
 2478 054c 33       		.byte	0x33
 2479 054d 76000000 		.4byte	0x76
 2480 0551 01       		.byte	0x1
 2481 0552 05       		.byte	0x5
 2482 0553 03       		.byte	0x3
 2483 0554 00000000 		.4byte	SpcLockState
 2484 0558 14       		.uleb128 0x14
 2485 0559 66020000 		.4byte	.LASF42
 2486 055d 01       		.byte	0x1
 2487 055e 3F       		.byte	0x3f
 2488 055f 76000000 		.4byte	0x76
 2489 0563 01       		.byte	0x1
 2490 0564 05       		.byte	0x5
 2491 0565 03       		.byte	0x3
 2492 0566 00000000 		.4byte	spcWaitPipeBypass
 2493 056a 00       		.byte	0x0
 2494              		.section	.debug_abbrev
 2495 0000 01       		.uleb128 0x1
 2496 0001 11       		.uleb128 0x11
 2497 0002 01       		.byte	0x1
 2498 0003 25       		.uleb128 0x25
 2499 0004 0E       		.uleb128 0xe
 2500 0005 13       		.uleb128 0x13
 2501 0006 0B       		.uleb128 0xb
 2502 0007 03       		.uleb128 0x3
 2503 0008 0E       		.uleb128 0xe
 2504 0009 1B       		.uleb128 0x1b
 2505 000a 0E       		.uleb128 0xe
 2506 000b 11       		.uleb128 0x11
 2507 000c 01       		.uleb128 0x1
 2508 000d 52       		.uleb128 0x52
 2509 000e 01       		.uleb128 0x1
 2510 000f 55       		.uleb128 0x55
 2511 0010 06       		.uleb128 0x6
 2512 0011 10       		.uleb128 0x10
 2513 0012 06       		.uleb128 0x6
 2514 0013 00       		.byte	0x0
 2515 0014 00       		.byte	0x0
ARM GAS  C:\Users\csap2972\AppData\Local\Temp\cczsvW7p.s 			page 60


 2516 0015 02       		.uleb128 0x2
 2517 0016 24       		.uleb128 0x24
 2518 0017 00       		.byte	0x0
 2519 0018 0B       		.uleb128 0xb
 2520 0019 0B       		.uleb128 0xb
 2521 001a 3E       		.uleb128 0x3e
 2522 001b 0B       		.uleb128 0xb
 2523 001c 03       		.uleb128 0x3
 2524 001d 0E       		.uleb128 0xe
 2525 001e 00       		.byte	0x0
 2526 001f 00       		.byte	0x0
 2527 0020 03       		.uleb128 0x3
 2528 0021 24       		.uleb128 0x24
 2529 0022 00       		.byte	0x0
 2530 0023 0B       		.uleb128 0xb
 2531 0024 0B       		.uleb128 0xb
 2532 0025 3E       		.uleb128 0x3e
 2533 0026 0B       		.uleb128 0xb
 2534 0027 03       		.uleb128 0x3
 2535 0028 08       		.uleb128 0x8
 2536 0029 00       		.byte	0x0
 2537 002a 00       		.byte	0x0
 2538 002b 04       		.uleb128 0x4
 2539 002c 16       		.uleb128 0x16
 2540 002d 00       		.byte	0x0
 2541 002e 03       		.uleb128 0x3
 2542 002f 0E       		.uleb128 0xe
 2543 0030 3A       		.uleb128 0x3a
 2544 0031 0B       		.uleb128 0xb
 2545 0032 3B       		.uleb128 0x3b
 2546 0033 0B       		.uleb128 0xb
 2547 0034 49       		.uleb128 0x49
 2548 0035 13       		.uleb128 0x13
 2549 0036 00       		.byte	0x0
 2550 0037 00       		.byte	0x0
 2551 0038 05       		.uleb128 0x5
 2552 0039 16       		.uleb128 0x16
 2553 003a 00       		.byte	0x0
 2554 003b 03       		.uleb128 0x3
 2555 003c 0E       		.uleb128 0xe
 2556 003d 3A       		.uleb128 0x3a
 2557 003e 0B       		.uleb128 0xb
 2558 003f 3B       		.uleb128 0x3b
 2559 0040 05       		.uleb128 0x5
 2560 0041 49       		.uleb128 0x49
 2561 0042 13       		.uleb128 0x13
 2562 0043 00       		.byte	0x0
 2563 0044 00       		.byte	0x0
 2564 0045 06       		.uleb128 0x6
 2565 0046 24       		.uleb128 0x24
 2566 0047 00       		.byte	0x0
 2567 0048 0B       		.uleb128 0xb
 2568 0049 0B       		.uleb128 0xb
 2569 004a 3E       		.uleb128 0x3e
 2570 004b 0B       		.uleb128 0xb
 2571 004c 00       		.byte	0x0
 2572 004d 00       		.byte	0x0
ARM GAS  C:\Users\csap2972\AppData\Local\Temp\cczsvW7p.s 			page 61


 2573 004e 07       		.uleb128 0x7
 2574 004f 2E       		.uleb128 0x2e
 2575 0050 01       		.byte	0x1
 2576 0051 3F       		.uleb128 0x3f
 2577 0052 0C       		.uleb128 0xc
 2578 0053 03       		.uleb128 0x3
 2579 0054 0E       		.uleb128 0xe
 2580 0055 3A       		.uleb128 0x3a
 2581 0056 0B       		.uleb128 0xb
 2582 0057 3B       		.uleb128 0x3b
 2583 0058 0B       		.uleb128 0xb
 2584 0059 27       		.uleb128 0x27
 2585 005a 0C       		.uleb128 0xc
 2586 005b 11       		.uleb128 0x11
 2587 005c 01       		.uleb128 0x1
 2588 005d 12       		.uleb128 0x12
 2589 005e 01       		.uleb128 0x1
 2590 005f 40       		.uleb128 0x40
 2591 0060 06       		.uleb128 0x6
 2592 0061 01       		.uleb128 0x1
 2593 0062 13       		.uleb128 0x13
 2594 0063 00       		.byte	0x0
 2595 0064 00       		.byte	0x0
 2596 0065 08       		.uleb128 0x8
 2597 0066 34       		.uleb128 0x34
 2598 0067 00       		.byte	0x0
 2599 0068 03       		.uleb128 0x3
 2600 0069 0E       		.uleb128 0xe
 2601 006a 3A       		.uleb128 0x3a
 2602 006b 0B       		.uleb128 0xb
 2603 006c 3B       		.uleb128 0x3b
 2604 006d 0B       		.uleb128 0xb
 2605 006e 49       		.uleb128 0x49
 2606 006f 13       		.uleb128 0x13
 2607 0070 02       		.uleb128 0x2
 2608 0071 0A       		.uleb128 0xa
 2609 0072 00       		.byte	0x0
 2610 0073 00       		.byte	0x0
 2611 0074 09       		.uleb128 0x9
 2612 0075 2E       		.uleb128 0x2e
 2613 0076 01       		.byte	0x1
 2614 0077 3F       		.uleb128 0x3f
 2615 0078 0C       		.uleb128 0xc
 2616 0079 03       		.uleb128 0x3
 2617 007a 0E       		.uleb128 0xe
 2618 007b 3A       		.uleb128 0x3a
 2619 007c 0B       		.uleb128 0xb
 2620 007d 3B       		.uleb128 0x3b
 2621 007e 0B       		.uleb128 0xb
 2622 007f 27       		.uleb128 0x27
 2623 0080 0C       		.uleb128 0xc
 2624 0081 49       		.uleb128 0x49
 2625 0082 13       		.uleb128 0x13
 2626 0083 11       		.uleb128 0x11
 2627 0084 01       		.uleb128 0x1
 2628 0085 12       		.uleb128 0x12
 2629 0086 01       		.uleb128 0x1
ARM GAS  C:\Users\csap2972\AppData\Local\Temp\cczsvW7p.s 			page 62


 2630 0087 40       		.uleb128 0x40
 2631 0088 06       		.uleb128 0x6
 2632 0089 01       		.uleb128 0x1
 2633 008a 13       		.uleb128 0x13
 2634 008b 00       		.byte	0x0
 2635 008c 00       		.byte	0x0
 2636 008d 0A       		.uleb128 0xa
 2637 008e 05       		.uleb128 0x5
 2638 008f 00       		.byte	0x0
 2639 0090 03       		.uleb128 0x3
 2640 0091 0E       		.uleb128 0xe
 2641 0092 3A       		.uleb128 0x3a
 2642 0093 0B       		.uleb128 0xb
 2643 0094 3B       		.uleb128 0x3b
 2644 0095 0B       		.uleb128 0xb
 2645 0096 49       		.uleb128 0x49
 2646 0097 13       		.uleb128 0x13
 2647 0098 02       		.uleb128 0x2
 2648 0099 0A       		.uleb128 0xa
 2649 009a 00       		.byte	0x0
 2650 009b 00       		.byte	0x0
 2651 009c 0B       		.uleb128 0xb
 2652 009d 34       		.uleb128 0x34
 2653 009e 00       		.byte	0x0
 2654 009f 03       		.uleb128 0x3
 2655 00a0 08       		.uleb128 0x8
 2656 00a1 3A       		.uleb128 0x3a
 2657 00a2 0B       		.uleb128 0xb
 2658 00a3 3B       		.uleb128 0x3b
 2659 00a4 0B       		.uleb128 0xb
 2660 00a5 49       		.uleb128 0x49
 2661 00a6 13       		.uleb128 0x13
 2662 00a7 02       		.uleb128 0x2
 2663 00a8 0A       		.uleb128 0xa
 2664 00a9 00       		.byte	0x0
 2665 00aa 00       		.byte	0x0
 2666 00ab 0C       		.uleb128 0xc
 2667 00ac 0F       		.uleb128 0xf
 2668 00ad 00       		.byte	0x0
 2669 00ae 0B       		.uleb128 0xb
 2670 00af 0B       		.uleb128 0xb
 2671 00b0 49       		.uleb128 0x49
 2672 00b1 13       		.uleb128 0x13
 2673 00b2 00       		.byte	0x0
 2674 00b3 00       		.byte	0x0
 2675 00b4 0D       		.uleb128 0xd
 2676 00b5 26       		.uleb128 0x26
 2677 00b6 00       		.byte	0x0
 2678 00b7 49       		.uleb128 0x49
 2679 00b8 13       		.uleb128 0x13
 2680 00b9 00       		.byte	0x0
 2681 00ba 00       		.byte	0x0
 2682 00bb 0E       		.uleb128 0xe
 2683 00bc 34       		.uleb128 0x34
 2684 00bd 00       		.byte	0x0
 2685 00be 03       		.uleb128 0x3
 2686 00bf 0E       		.uleb128 0xe
ARM GAS  C:\Users\csap2972\AppData\Local\Temp\cczsvW7p.s 			page 63


 2687 00c0 3A       		.uleb128 0x3a
 2688 00c1 0B       		.uleb128 0xb
 2689 00c2 3B       		.uleb128 0x3b
 2690 00c3 05       		.uleb128 0x5
 2691 00c4 49       		.uleb128 0x49
 2692 00c5 13       		.uleb128 0x13
 2693 00c6 02       		.uleb128 0x2
 2694 00c7 0A       		.uleb128 0xa
 2695 00c8 00       		.byte	0x0
 2696 00c9 00       		.byte	0x0
 2697 00ca 0F       		.uleb128 0xf
 2698 00cb 34       		.uleb128 0x34
 2699 00cc 00       		.byte	0x0
 2700 00cd 03       		.uleb128 0x3
 2701 00ce 08       		.uleb128 0x8
 2702 00cf 3A       		.uleb128 0x3a
 2703 00d0 0B       		.uleb128 0xb
 2704 00d1 3B       		.uleb128 0x3b
 2705 00d2 05       		.uleb128 0x5
 2706 00d3 49       		.uleb128 0x49
 2707 00d4 13       		.uleb128 0x13
 2708 00d5 02       		.uleb128 0x2
 2709 00d6 0A       		.uleb128 0xa
 2710 00d7 00       		.byte	0x0
 2711 00d8 00       		.byte	0x0
 2712 00d9 10       		.uleb128 0x10
 2713 00da 2E       		.uleb128 0x2e
 2714 00db 01       		.byte	0x1
 2715 00dc 3F       		.uleb128 0x3f
 2716 00dd 0C       		.uleb128 0xc
 2717 00de 03       		.uleb128 0x3
 2718 00df 0E       		.uleb128 0xe
 2719 00e0 3A       		.uleb128 0x3a
 2720 00e1 0B       		.uleb128 0xb
 2721 00e2 3B       		.uleb128 0x3b
 2722 00e3 05       		.uleb128 0x5
 2723 00e4 27       		.uleb128 0x27
 2724 00e5 0C       		.uleb128 0xc
 2725 00e6 49       		.uleb128 0x49
 2726 00e7 13       		.uleb128 0x13
 2727 00e8 11       		.uleb128 0x11
 2728 00e9 01       		.uleb128 0x1
 2729 00ea 12       		.uleb128 0x12
 2730 00eb 01       		.uleb128 0x1
 2731 00ec 40       		.uleb128 0x40
 2732 00ed 06       		.uleb128 0x6
 2733 00ee 01       		.uleb128 0x1
 2734 00ef 13       		.uleb128 0x13
 2735 00f0 00       		.byte	0x0
 2736 00f1 00       		.byte	0x0
 2737 00f2 11       		.uleb128 0x11
 2738 00f3 05       		.uleb128 0x5
 2739 00f4 00       		.byte	0x0
 2740 00f5 03       		.uleb128 0x3
 2741 00f6 0E       		.uleb128 0xe
 2742 00f7 3A       		.uleb128 0x3a
 2743 00f8 0B       		.uleb128 0xb
ARM GAS  C:\Users\csap2972\AppData\Local\Temp\cczsvW7p.s 			page 64


 2744 00f9 3B       		.uleb128 0x3b
 2745 00fa 05       		.uleb128 0x5
 2746 00fb 49       		.uleb128 0x49
 2747 00fc 13       		.uleb128 0x13
 2748 00fd 02       		.uleb128 0x2
 2749 00fe 0A       		.uleb128 0xa
 2750 00ff 00       		.byte	0x0
 2751 0100 00       		.byte	0x0
 2752 0101 12       		.uleb128 0x12
 2753 0102 05       		.uleb128 0x5
 2754 0103 00       		.byte	0x0
 2755 0104 03       		.uleb128 0x3
 2756 0105 08       		.uleb128 0x8
 2757 0106 3A       		.uleb128 0x3a
 2758 0107 0B       		.uleb128 0xb
 2759 0108 3B       		.uleb128 0x3b
 2760 0109 05       		.uleb128 0x5
 2761 010a 49       		.uleb128 0x49
 2762 010b 13       		.uleb128 0x13
 2763 010c 02       		.uleb128 0x2
 2764 010d 0A       		.uleb128 0xa
 2765 010e 00       		.byte	0x0
 2766 010f 00       		.byte	0x0
 2767 0110 13       		.uleb128 0x13
 2768 0111 2E       		.uleb128 0x2e
 2769 0112 01       		.byte	0x1
 2770 0113 3F       		.uleb128 0x3f
 2771 0114 0C       		.uleb128 0xc
 2772 0115 03       		.uleb128 0x3
 2773 0116 0E       		.uleb128 0xe
 2774 0117 3A       		.uleb128 0x3a
 2775 0118 0B       		.uleb128 0xb
 2776 0119 3B       		.uleb128 0x3b
 2777 011a 05       		.uleb128 0x5
 2778 011b 27       		.uleb128 0x27
 2779 011c 0C       		.uleb128 0xc
 2780 011d 11       		.uleb128 0x11
 2781 011e 01       		.uleb128 0x1
 2782 011f 12       		.uleb128 0x12
 2783 0120 01       		.uleb128 0x1
 2784 0121 40       		.uleb128 0x40
 2785 0122 06       		.uleb128 0x6
 2786 0123 01       		.uleb128 0x1
 2787 0124 13       		.uleb128 0x13
 2788 0125 00       		.byte	0x0
 2789 0126 00       		.byte	0x0
 2790 0127 14       		.uleb128 0x14
 2791 0128 34       		.uleb128 0x34
 2792 0129 00       		.byte	0x0
 2793 012a 03       		.uleb128 0x3
 2794 012b 0E       		.uleb128 0xe
 2795 012c 3A       		.uleb128 0x3a
 2796 012d 0B       		.uleb128 0xb
 2797 012e 3B       		.uleb128 0x3b
 2798 012f 0B       		.uleb128 0xb
 2799 0130 49       		.uleb128 0x49
 2800 0131 13       		.uleb128 0x13
ARM GAS  C:\Users\csap2972\AppData\Local\Temp\cczsvW7p.s 			page 65


 2801 0132 3F       		.uleb128 0x3f
 2802 0133 0C       		.uleb128 0xc
 2803 0134 02       		.uleb128 0x2
 2804 0135 0A       		.uleb128 0xa
 2805 0136 00       		.byte	0x0
 2806 0137 00       		.byte	0x0
 2807 0138 00       		.byte	0x0
 2808              		.section	.debug_pubnames,"",%progbits
 2809 0000 43010000 		.4byte	0x143
 2810 0004 0200     		.2byte	0x2
 2811 0006 00000000 		.4byte	.Ldebug_info0
 2812 000a 6B050000 		.4byte	0x56b
 2813 000e 9B000000 		.4byte	0x9b
 2814 0012 43795370 		.ascii	"CySpcStart\000"
 2814      63537461 
 2814      727400
 2815 001d C3000000 		.4byte	0xc3
 2816 0021 43795370 		.ascii	"CySpcStop\000"
 2816      6353746F 
 2816      7000
 2817 002b EB000000 		.4byte	0xeb
 2818 002f 43795370 		.ascii	"CySpcReadData\000"
 2818      63526561 
 2818      64446174 
 2818      6100
 2819 003d 37010000 		.4byte	0x137
 2820 0041 43795370 		.ascii	"CySpcLoadMultiByte\000"
 2820      634C6F61 
 2820      644D756C 
 2820      74694279 
 2820      746500
 2821 0054 B2010000 		.4byte	0x1b2
 2822 0058 43795370 		.ascii	"CySpcLoadRow\000"
 2822      634C6F61 
 2822      64526F77 
 2822      00
 2823 0065 16020000 		.4byte	0x216
 2824 0069 43795370 		.ascii	"CySpcReadMultiByte\000"
 2824      63526561 
 2824      644D756C 
 2824      74694279 
 2824      746500
 2825 007c 80020000 		.4byte	0x280
 2826 0080 43795370 		.ascii	"CySpcWriteRow\000"
 2826      63577269 
 2826      7465526F 
 2826      7700
 2827 008e EA020000 		.4byte	0x2ea
 2828 0092 43795370 		.ascii	"CySpcProgramRow\000"
 2828      6350726F 
 2828      6772616D 
 2828      526F7700 
 2829 00a2 54030000 		.4byte	0x354
 2830 00a6 43795370 		.ascii	"CySpcEraseSector\000"
 2830      63457261 
 2830      73655365 
 2830      63746F72 
ARM GAS  C:\Users\csap2972\AppData\Local\Temp\cczsvW7p.s 			page 66


 2830      00
 2831 00b7 A0030000 		.4byte	0x3a0
 2832 00bb 43795370 		.ascii	"CySpcGetTemp\000"
 2832      63476574 
 2832      54656D70 
 2832      00
 2833 00c8 DD030000 		.4byte	0x3dd
 2834 00cc 43795370 		.ascii	"CySpcSetupTs\000"
 2834      63536574 
 2834      75705473 
 2834      00
 2835 00d9 47040000 		.4byte	0x447
 2836 00dd 43795370 		.ascii	"CySpcDisableTs\000"
 2836      63446973 
 2836      61626C65 
 2836      547300
 2837 00ec 75040000 		.4byte	0x475
 2838 00f0 43795370 		.ascii	"CySpcEraseRow\000"
 2838      63457261 
 2838      7365526F 
 2838      7700
 2839 00fe DF040000 		.4byte	0x4df
 2840 0102 43795370 		.ascii	"CySpcLock\000"
 2840      634C6F63 
 2840      6B00
 2841 010c 1C050000 		.4byte	0x51c
 2842 0110 43795370 		.ascii	"CySpcUnlock\000"
 2842      63556E6C 
 2842      6F636B00 
 2843 011c 46050000 		.4byte	0x546
 2844 0120 5370634C 		.ascii	"SpcLockState\000"
 2844      6F636B53 
 2844      74617465 
 2844      00
 2845 012d 58050000 		.4byte	0x558
 2846 0131 73706357 		.ascii	"spcWaitPipeBypass\000"
 2846      61697450 
 2846      69706542 
 2846      79706173 
 2846      7300
 2847 0143 00000000 		.4byte	0x0
 2848              		.section	.debug_aranges,"",%progbits
 2849 0000 8C000000 		.4byte	0x8c
 2850 0004 0200     		.2byte	0x2
 2851 0006 00000000 		.4byte	.Ldebug_info0
 2852 000a 04       		.byte	0x4
 2853 000b 00       		.byte	0x0
 2854 000c 0000     		.2byte	0x0
 2855 000e 0000     		.2byte	0x0
 2856 0010 00000000 		.4byte	.LFB0
 2857 0014 56000000 		.4byte	.LFE0-.LFB0
 2858 0018 00000000 		.4byte	.LFB1
 2859 001c 52000000 		.4byte	.LFE1-.LFB1
 2860 0020 00000000 		.4byte	.LFB2
 2861 0024 64000000 		.4byte	.LFE2-.LFB2
 2862 0028 00000000 		.4byte	.LFB3
 2863 002c 16010000 		.4byte	.LFE3-.LFB3
ARM GAS  C:\Users\csap2972\AppData\Local\Temp\cczsvW7p.s 			page 67


 2864 0030 00000000 		.4byte	.LFB4
 2865 0034 BC000000 		.4byte	.LFE4-.LFB4
 2866 0038 00000000 		.4byte	.LFB5
 2867 003c D0000000 		.4byte	.LFE5-.LFB5
 2868 0040 00000000 		.4byte	.LFB6
 2869 0044 CA000000 		.4byte	.LFE6-.LFB6
 2870 0048 00000000 		.4byte	.LFB7
 2871 004c CA000000 		.4byte	.LFE7-.LFB7
 2872 0050 00000000 		.4byte	.LFB8
 2873 0054 B8000000 		.4byte	.LFE8-.LFB8
 2874 0058 00000000 		.4byte	.LFB9
 2875 005c 8C000000 		.4byte	.LFE9-.LFB9
 2876 0060 00000000 		.4byte	.LFB10
 2877 0064 B4000000 		.4byte	.LFE10-.LFB10
 2878 0068 00000000 		.4byte	.LFB11
 2879 006c 60000000 		.4byte	.LFE11-.LFB11
 2880 0070 00000000 		.4byte	.LFB12
 2881 0074 CA000000 		.4byte	.LFE12-.LFB12
 2882 0078 00000000 		.4byte	.LFB13
 2883 007c 8A000000 		.4byte	.LFE13-.LFB13
 2884 0080 00000000 		.4byte	.LFB14
 2885 0084 66000000 		.4byte	.LFE14-.LFB14
 2886 0088 00000000 		.4byte	0x0
 2887 008c 00000000 		.4byte	0x0
 2888              		.section	.debug_ranges,"",%progbits
 2889              	.Ldebug_ranges0:
 2890 0000 00000000 		.4byte	.Ltext0
 2891 0004 00000000 		.4byte	.Letext0
 2892 0008 00000000 		.4byte	.LFB0
 2893 000c 56000000 		.4byte	.LFE0
 2894 0010 00000000 		.4byte	.LFB1
 2895 0014 52000000 		.4byte	.LFE1
 2896 0018 00000000 		.4byte	.LFB2
 2897 001c 64000000 		.4byte	.LFE2
 2898 0020 00000000 		.4byte	.LFB3
 2899 0024 16010000 		.4byte	.LFE3
 2900 0028 00000000 		.4byte	.LFB4
 2901 002c BC000000 		.4byte	.LFE4
 2902 0030 00000000 		.4byte	.LFB5
 2903 0034 D0000000 		.4byte	.LFE5
 2904 0038 00000000 		.4byte	.LFB6
 2905 003c CA000000 		.4byte	.LFE6
 2906 0040 00000000 		.4byte	.LFB7
 2907 0044 CA000000 		.4byte	.LFE7
 2908 0048 00000000 		.4byte	.LFB8
 2909 004c B8000000 		.4byte	.LFE8
 2910 0050 00000000 		.4byte	.LFB9
 2911 0054 8C000000 		.4byte	.LFE9
 2912 0058 00000000 		.4byte	.LFB10
 2913 005c B4000000 		.4byte	.LFE10
 2914 0060 00000000 		.4byte	.LFB11
 2915 0064 60000000 		.4byte	.LFE11
 2916 0068 00000000 		.4byte	.LFB12
 2917 006c CA000000 		.4byte	.LFE12
 2918 0070 00000000 		.4byte	.LFB13
 2919 0074 8A000000 		.4byte	.LFE13
 2920 0078 00000000 		.4byte	.LFB14
ARM GAS  C:\Users\csap2972\AppData\Local\Temp\cczsvW7p.s 			page 68


 2921 007c 66000000 		.4byte	.LFE14
 2922 0080 00000000 		.4byte	0x0
 2923 0084 00000000 		.4byte	0x0
 2924              		.section	.debug_str,"MS",%progbits,1
 2925              	.LASF6:
 2926 0000 6C6F6E67 		.ascii	"long long int\000"
 2926      206C6F6E 
 2926      6720696E 
 2926      7400
 2927              	.LASF28:
 2928 000e 43795370 		.ascii	"CySpcProgramRow\000"
 2928      6350726F 
 2928      6772616D 
 2928      526F7700 
 2929              	.LASF12:
 2930 001e 63797374 		.ascii	"cystatus\000"
 2930      61747573 
 2930      00
 2931              	.LASF13:
 2932 0027 43795370 		.ascii	"CySpcStart\000"
 2932      63537461 
 2932      727400
 2933              	.LASF25:
 2934 0032 43795370 		.ascii	"CySpcWriteRow\000"
 2934      63577269 
 2934      7465526F 
 2934      7700
 2935              	.LASF33:
 2936 0040 73657153 		.ascii	"seqSelect\000"
 2936      656C6563 
 2936      7400
 2937              	.LASF14:
 2938 004a 43795370 		.ascii	"CySpcStop\000"
 2938      6353746F 
 2938      7000
 2939              	.LASF44:
 2940 0054 2E5C4765 		.ascii	".\\Generated_Source\\PSoC5\\CySpc.c\000"
 2940      6E657261 
 2940      7465645F 
 2940      536F7572 
 2940      63655C50 
 2941              	.LASF3:
 2942 0075 73686F72 		.ascii	"short unsigned int\000"
 2942      7420756E 
 2942      7369676E 
 2942      65642069 
 2942      6E7400
 2943              	.LASF32:
 2944 0088 43795370 		.ascii	"CySpcSetupTs\000"
 2944      63536574 
 2944      75705473 
 2944      00
 2945              	.LASF18:
 2946 0095 43795370 		.ascii	"CySpcReadData\000"
 2946      63526561 
 2946      64446174 
 2946      6100
ARM GAS  C:\Users\csap2972\AppData\Local\Temp\cczsvW7p.s 			page 69


 2947              	.LASF22:
 2948 00a3 73746174 		.ascii	"status\000"
 2948      757300
 2949              	.LASF45:
 2950 00aa 4A3A5C63 		.ascii	"J:\\c704\\C704224\\Cypress\\CY8C5868\\Laser_Schutzs"
 2950      3730345C 
 2950      43373034 
 2950      3232345C 
 2950      43797072 
 2951 00d8 6368616C 		.ascii	"chaltung\\Design01\\Design02.cydsn\000"
 2951      74756E67 
 2951      5C446573 
 2951      69676E30 
 2951      315C4465 
 2952              	.LASF17:
 2953 00f9 73697A65 		.ascii	"size\000"
 2953      00
 2954              	.LASF35:
 2955 00fe 636C6B44 		.ascii	"clkDivSel\000"
 2955      69765365 
 2955      6C00
 2956              	.LASF15:
 2957 0108 696E7465 		.ascii	"interruptState\000"
 2957      72727570 
 2957      74537461 
 2957      746500
 2958              	.LASF5:
 2959 0117 6C6F6E67 		.ascii	"long unsigned int\000"
 2959      20756E73 
 2959      69676E65 
 2959      6420696E 
 2959      7400
 2960              	.LASF10:
 2961 0129 75696E74 		.ascii	"uint8\000"
 2961      3800
 2962              	.LASF41:
 2963 012f 5370634C 		.ascii	"SpcLockState\000"
 2963      6F636B53 
 2963      74617465 
 2963      00
 2964              	.LASF26:
 2965 013c 74656D70 		.ascii	"tempPolarity\000"
 2965      506F6C61 
 2965      72697479 
 2965      00
 2966              	.LASF20:
 2967 0149 61727261 		.ascii	"array\000"
 2967      7900
 2968              	.LASF1:
 2969 014f 756E7369 		.ascii	"unsigned char\000"
 2969      676E6564 
 2969      20636861 
 2969      7200
 2970              	.LASF36:
 2971 015d 63757276 		.ascii	"curvCompEnable\000"
 2971      436F6D70 
 2971      456E6162 
ARM GAS  C:\Users\csap2972\AppData\Local\Temp\cczsvW7p.s 			page 70


 2971      6C6500
 2972              	.LASF30:
 2973 016c 43795370 		.ascii	"CySpcGetTemp\000"
 2973      63476574 
 2973      54656D70 
 2973      00
 2974              	.LASF11:
 2975 0179 75696E74 		.ascii	"uint16\000"
 2975      313600
 2976              	.LASF39:
 2977 0180 43795370 		.ascii	"CySpcLock\000"
 2977      634C6F63 
 2977      6B00
 2978              	.LASF8:
 2979 018a 756E7369 		.ascii	"unsigned int\000"
 2979      676E6564 
 2979      20696E74 
 2979      00
 2980              	.LASF21:
 2981 0197 61646472 		.ascii	"address\000"
 2981      65737300 
 2982              	.LASF7:
 2983 019f 6C6F6E67 		.ascii	"long long unsigned int\000"
 2983      206C6F6E 
 2983      6720756E 
 2983      7369676E 
 2983      65642069 
 2984              	.LASF27:
 2985 01b6 74656D70 		.ascii	"tempMagnitude\000"
 2985      4D61676E 
 2985      69747564 
 2985      6500
 2986              	.LASF16:
 2987 01c4 62756666 		.ascii	"buffer\000"
 2987      657200
 2988              	.LASF23:
 2989 01cb 43795370 		.ascii	"CySpcLoadRow\000"
 2989      634C6F61 
 2989      64526F77 
 2989      00
 2990              	.LASF34:
 2991 01d8 73657146 		.ascii	"seqFreeze\000"
 2991      7265657A 
 2991      6500
 2992              	.LASF40:
 2993 01e2 43795370 		.ascii	"CySpcUnlock\000"
 2993      63556E6C 
 2993      6F636B00 
 2994              	.LASF29:
 2995 01ee 43795370 		.ascii	"CySpcEraseSector\000"
 2995      63457261 
 2995      73655365 
 2995      63746F72 
 2995      00
 2996              	.LASF43:
 2997 01ff 474E5520 		.ascii	"GNU C 4.4.1\000"
 2997      4320342E 
ARM GAS  C:\Users\csap2972\AppData\Local\Temp\cczsvW7p.s 			page 71


 2997      342E3100 
 2998              	.LASF9:
 2999 020b 63686172 		.ascii	"char\000"
 2999      00
 3000              	.LASF24:
 3001 0210 43795370 		.ascii	"CySpcReadMultiByte\000"
 3001      63526561 
 3001      644D756C 
 3001      74694279 
 3001      746500
 3002              	.LASF2:
 3003 0223 73686F72 		.ascii	"short int\000"
 3003      7420696E 
 3003      7400
 3004              	.LASF38:
 3005 022d 43795370 		.ascii	"CySpcEraseRow\000"
 3005      63457261 
 3005      7365526F 
 3005      7700
 3006              	.LASF37:
 3007 023b 43795370 		.ascii	"CySpcDisableTs\000"
 3007      63446973 
 3007      61626C65 
 3007      547300
 3008              	.LASF4:
 3009 024a 6C6F6E67 		.ascii	"long int\000"
 3009      20696E74 
 3009      00
 3010              	.LASF19:
 3011 0253 43795370 		.ascii	"CySpcLoadMultiByte\000"
 3011      634C6F61 
 3011      644D756C 
 3011      74694279 
 3011      746500
 3012              	.LASF42:
 3013 0266 73706357 		.ascii	"spcWaitPipeBypass\000"
 3013      61697450 
 3013      69706542 
 3013      79706173 
 3013      7300
 3014              	.LASF0:
 3015 0278 7369676E 		.ascii	"signed char\000"
 3015      65642063 
 3015      68617200 
 3016              	.LASF31:
 3017 0284 6E756D53 		.ascii	"numSamples\000"
 3017      616D706C 
 3017      657300
 3018              		.ident	"GCC: (Sourcery G++ Lite 2010q1-188) 4.4.1"
