ARM GAS  C:\Users\csap2972\AppData\Local\Temp\ccTyKrju.s 			page 1


   1              		.syntax unified
   2              		.cpu cortex-m3
   3              		.fpu softvfp
   4              		.eabi_attribute 20, 1
   5              		.eabi_attribute 21, 1
   6              		.eabi_attribute 23, 3
   7              		.eabi_attribute 24, 1
   8              		.eabi_attribute 25, 1
   9              		.eabi_attribute 26, 1
  10              		.eabi_attribute 30, 6
  11              		.eabi_attribute 18, 4
  12              		.thumb
  13              		.file	"Filter_PVT.c"
  20 0000 8D000000 		.text
  20      02006200 
  20      00000201 
  20      FB0E0D00 
  20      01010101 
  21              	.Ltext0:
  22              		.cfi_sections	.debug_frame
  23              		.section	.text.Filter_SetInterruptMode,"ax",%progbits
  24              		.align	2
  25              		.global	Filter_SetInterruptMode
  26              		.thumb
  27              		.thumb_func
  28              		.type	Filter_SetInterruptMode, %function
  29              	Filter_SetInterruptMode:
  30              	.LFB0:
  31              		.file 1 ".\\Generated_Source\\PSoC5\\Filter_PVT.c"
   1:.\Generated_Source\PSoC5/Filter_PVT.c **** /*******************************************************************************
   2:.\Generated_Source\PSoC5/Filter_PVT.c **** * File Name: Filter_PVT.c
   3:.\Generated_Source\PSoC5/Filter_PVT.c **** * Version 2.10
   4:.\Generated_Source\PSoC5/Filter_PVT.c **** *
   5:.\Generated_Source\PSoC5/Filter_PVT.c **** * Description:
   6:.\Generated_Source\PSoC5/Filter_PVT.c **** *  This file provides source code for FILT component internal functions.
   7:.\Generated_Source\PSoC5/Filter_PVT.c **** *
   8:.\Generated_Source\PSoC5/Filter_PVT.c **** * Note:
   9:.\Generated_Source\PSoC5/Filter_PVT.c **** *  
  10:.\Generated_Source\PSoC5/Filter_PVT.c **** *******************************************************************************
  11:.\Generated_Source\PSoC5/Filter_PVT.c **** * Copyright 2008-2012, Cypress Semiconductor Corporation.  All rights reserved.
  12:.\Generated_Source\PSoC5/Filter_PVT.c **** * You may use this file only in accordance with the license, terms, conditions, 
  13:.\Generated_Source\PSoC5/Filter_PVT.c **** * disclaimers, and limitations in the end user license agreement accompanying 
  14:.\Generated_Source\PSoC5/Filter_PVT.c **** * the software package with which this file was provided.
  15:.\Generated_Source\PSoC5/Filter_PVT.c **** ********************************************************************************/
  16:.\Generated_Source\PSoC5/Filter_PVT.c **** 
  17:.\Generated_Source\PSoC5/Filter_PVT.c **** #include "Filter_PVT.h"
  18:.\Generated_Source\PSoC5/Filter_PVT.c **** 
  19:.\Generated_Source\PSoC5/Filter_PVT.c **** 
  20:.\Generated_Source\PSoC5/Filter_PVT.c **** /*******************************************************************************
  21:.\Generated_Source\PSoC5/Filter_PVT.c **** * Function Name: Filter_SetInterruptMode
  22:.\Generated_Source\PSoC5/Filter_PVT.c **** ********************************************************************************
ARM GAS  C:\Users\csap2972\AppData\Local\Temp\ccTyKrju.s 			page 2


  23:.\Generated_Source\PSoC5/Filter_PVT.c **** *
  24:.\Generated_Source\PSoC5/Filter_PVT.c **** * Summary:
  25:.\Generated_Source\PSoC5/Filter_PVT.c **** *  Assign the events which will trigger a DFB interrupt to be triggered. 
  26:.\Generated_Source\PSoC5/Filter_PVT.c **** *
  27:.\Generated_Source\PSoC5/Filter_PVT.c **** * Parameters:  
  28:.\Generated_Source\PSoC5/Filter_PVT.c **** *  events:  Bits [0:5] of events represent the events which will trigger DFB
  29:.\Generated_Source\PSoC5/Filter_PVT.c **** *           interrupts.
  30:.\Generated_Source\PSoC5/Filter_PVT.c **** *            Bit 0 - Output value ready in the holding register on channel A
  31:.\Generated_Source\PSoC5/Filter_PVT.c **** *            Bit 1 - Output value ready in the holding register on channel B
  32:.\Generated_Source\PSoC5/Filter_PVT.c **** *            Bit 2 - '1' written to Semaphore 0  - See Note
  33:.\Generated_Source\PSoC5/Filter_PVT.c **** *            Bit 3 - '1' written to Semaphore 1  - See Note
  34:.\Generated_Source\PSoC5/Filter_PVT.c **** *            Bit 4 - '1' written to Semaphore 2
  35:.\Generated_Source\PSoC5/Filter_PVT.c **** *
  36:.\Generated_Source\PSoC5/Filter_PVT.c **** * Return: 
  37:.\Generated_Source\PSoC5/Filter_PVT.c **** *  void
  38:.\Generated_Source\PSoC5/Filter_PVT.c **** *
  39:.\Generated_Source\PSoC5/Filter_PVT.c **** * Note:
  40:.\Generated_Source\PSoC5/Filter_PVT.c **** *  Semaphore 0 and Semaphore 1 should not be configured as both a DMA request 
  41:.\Generated_Source\PSoC5/Filter_PVT.c **** *  and an interrupt event, because, after one clock cycle, the system 
  42:.\Generated_Source\PSoC5/Filter_PVT.c **** *  automatically clears any semaphore which triggered a DMA request.
  43:.\Generated_Source\PSoC5/Filter_PVT.c **** *
  44:.\Generated_Source\PSoC5/Filter_PVT.c **** *******************************************************************************/
  45:.\Generated_Source\PSoC5/Filter_PVT.c **** void Filter_SetInterruptMode(uint8 events) 
  46:.\Generated_Source\PSoC5/Filter_PVT.c **** {
  32              		.loc 1 46 0
  33              		.cfi_startproc
  34              		@ args = 0, pretend = 0, frame = 8
  35              		@ frame_needed = 1, uses_anonymous_args = 0
  36              		@ link register save eliminated.
  37 0000 80B4     		push	{r7}
  38              	.LCFI0:
  39              		.cfi_def_cfa_offset 4
  40 0002 83B0     		sub	sp, sp, #12
  41              	.LCFI1:
  42              		.cfi_def_cfa_offset 16
  43 0004 00AF     		add	r7, sp, #0
  44              		.cfi_offset 7, -4
  45              	.LCFI2:
  46              		.cfi_def_cfa_register 7
  47 0006 0346     		mov	r3, r0
  48 0008 FB71     		strb	r3, [r7, #7]
  47:.\Generated_Source\PSoC5/Filter_PVT.c ****     events &= Filter_EVENT_MASK;
  49              		.loc 1 47 0
  50 000a FB79     		ldrb	r3, [r7, #7]
  51 000c 03F01F03 		and	r3, r3, #31
  52 0010 FB71     		strb	r3, [r7, #7]
  48:.\Generated_Source\PSoC5/Filter_PVT.c ****     Filter_INT_CTRL_REG = events;
  53              		.loc 1 48 0
  54 0012 4CF29873 		movw	r3, #:lower16:1073792920
  55 0016 C4F20003 		movt	r3, #:upper16:1073792920
  56 001a FA79     		ldrb	r2, [r7, #7]
  57 001c 1A70     		strb	r2, [r3, #0]
  49:.\Generated_Source\PSoC5/Filter_PVT.c **** }
  58              		.loc 1 49 0
  59 001e 07F10C07 		add	r7, r7, #12
  60 0022 BD46     		mov	sp, r7
  61 0024 80BC     		pop	{r7}
ARM GAS  C:\Users\csap2972\AppData\Local\Temp\ccTyKrju.s 			page 3


  62 0026 7047     		bx	lr
  63              		.cfi_endproc
  64              	.LFE0:
  65              		.size	Filter_SetInterruptMode, .-Filter_SetInterruptMode
  66              		.section	.text.Filter_SetDMAMode,"ax",%progbits
  67              		.align	2
  68              		.global	Filter_SetDMAMode
  69              		.thumb
  70              		.thumb_func
  71              		.type	Filter_SetDMAMode, %function
  72              	Filter_SetDMAMode:
  73              	.LFB1:
  50:.\Generated_Source\PSoC5/Filter_PVT.c **** 
  51:.\Generated_Source\PSoC5/Filter_PVT.c **** 
  52:.\Generated_Source\PSoC5/Filter_PVT.c **** /*******************************************************************************
  53:.\Generated_Source\PSoC5/Filter_PVT.c **** * Function Name: Filter_SetDMAMode
  54:.\Generated_Source\PSoC5/Filter_PVT.c **** ********************************************************************************
  55:.\Generated_Source\PSoC5/Filter_PVT.c **** *
  56:.\Generated_Source\PSoC5/Filter_PVT.c **** * Summary:
  57:.\Generated_Source\PSoC5/Filter_PVT.c **** *  Assign the events which will trigger a DMA request for the DFB.  There are 
  58:.\Generated_Source\PSoC5/Filter_PVT.c **** *  two different DMA requests that can be triggered.
  59:.\Generated_Source\PSoC5/Filter_PVT.c **** *
  60:.\Generated_Source\PSoC5/Filter_PVT.c **** * Parameters:  
  61:.\Generated_Source\PSoC5/Filter_PVT.c **** *  events:  A set of 4 bits which configure what event, if any, triggers a DMA 
  62:.\Generated_Source\PSoC5/Filter_PVT.c **** *           request for the DFB.  
  63:.\Generated_Source\PSoC5/Filter_PVT.c **** *           Bits [0:1] configure the trigger for DMA Request 1
  64:.\Generated_Source\PSoC5/Filter_PVT.c **** *           Bits [2:3] configure the trigger for DMA Request 2
  65:.\Generated_Source\PSoC5/Filter_PVT.c **** *            DMA Request 1: 
  66:.\Generated_Source\PSoC5/Filter_PVT.c **** *               0 - no request will be generated
  67:.\Generated_Source\PSoC5/Filter_PVT.c **** *               1 - Output value ready in the holding register on channel A
  68:.\Generated_Source\PSoC5/Filter_PVT.c **** *               2 - Semaphore 0
  69:.\Generated_Source\PSoC5/Filter_PVT.c **** *               3 - Sempahore 1
  70:.\Generated_Source\PSoC5/Filter_PVT.c **** *            DMA Request 2: 
  71:.\Generated_Source\PSoC5/Filter_PVT.c **** *               0 - no request will be generated
  72:.\Generated_Source\PSoC5/Filter_PVT.c **** *               1 - Output value ready in the holding register on channel B
  73:.\Generated_Source\PSoC5/Filter_PVT.c **** *               2 - Semaphore 0
  74:.\Generated_Source\PSoC5/Filter_PVT.c **** *               3 - Sempahore 1
  75:.\Generated_Source\PSoC5/Filter_PVT.c **** *
  76:.\Generated_Source\PSoC5/Filter_PVT.c **** * Return: 
  77:.\Generated_Source\PSoC5/Filter_PVT.c **** *  void
  78:.\Generated_Source\PSoC5/Filter_PVT.c **** *
  79:.\Generated_Source\PSoC5/Filter_PVT.c **** * Note:
  80:.\Generated_Source\PSoC5/Filter_PVT.c **** *  Semaphore 0 and Semaphore 1 should not be configured as both a DMA request 
  81:.\Generated_Source\PSoC5/Filter_PVT.c **** *  and an interrupt event, because, after one clock cycle, the system 
  82:.\Generated_Source\PSoC5/Filter_PVT.c **** *  automatically clears any semaphore which triggered a DMA request.
  83:.\Generated_Source\PSoC5/Filter_PVT.c **** *
  84:.\Generated_Source\PSoC5/Filter_PVT.c **** *******************************************************************************/
  85:.\Generated_Source\PSoC5/Filter_PVT.c **** void Filter_SetDMAMode(uint8 events) 
  86:.\Generated_Source\PSoC5/Filter_PVT.c **** {
  74              		.loc 1 86 0
  75              		.cfi_startproc
  76              		@ args = 0, pretend = 0, frame = 8
  77              		@ frame_needed = 1, uses_anonymous_args = 0
  78              		@ link register save eliminated.
  79 0000 80B4     		push	{r7}
  80              	.LCFI3:
  81              		.cfi_def_cfa_offset 4
ARM GAS  C:\Users\csap2972\AppData\Local\Temp\ccTyKrju.s 			page 4


  82 0002 83B0     		sub	sp, sp, #12
  83              	.LCFI4:
  84              		.cfi_def_cfa_offset 16
  85 0004 00AF     		add	r7, sp, #0
  86              		.cfi_offset 7, -4
  87              	.LCFI5:
  88              		.cfi_def_cfa_register 7
  89 0006 0346     		mov	r3, r0
  90 0008 FB71     		strb	r3, [r7, #7]
  87:.\Generated_Source\PSoC5/Filter_PVT.c ****     events &= Filter_DMA_CTRL_MASK;
  91              		.loc 1 87 0
  92 000a FB79     		ldrb	r3, [r7, #7]
  93 000c 03F00F03 		and	r3, r3, #15
  94 0010 FB71     		strb	r3, [r7, #7]
  88:.\Generated_Source\PSoC5/Filter_PVT.c ****     Filter_DMA_CTRL_REG = events;
  95              		.loc 1 88 0
  96 0012 4CF29C73 		movw	r3, #:lower16:1073792924
  97 0016 C4F20003 		movt	r3, #:upper16:1073792924
  98 001a FA79     		ldrb	r2, [r7, #7]
  99 001c 1A70     		strb	r2, [r3, #0]
  89:.\Generated_Source\PSoC5/Filter_PVT.c **** }
 100              		.loc 1 89 0
 101 001e 07F10C07 		add	r7, r7, #12
 102 0022 BD46     		mov	sp, r7
 103 0024 80BC     		pop	{r7}
 104 0026 7047     		bx	lr
 105              		.cfi_endproc
 106              	.LFE1:
 107              		.size	Filter_SetDMAMode, .-Filter_SetDMAMode
 108              		.text
 109              	.Letext0: