ARM GAS  C:\Users\csap2972\AppData\Local\Temp\ccv2pNmg.s 			page 1


   1              		.syntax unified
   2              		.cpu cortex-m3
   3              		.fpu softvfp
   4              		.eabi_attribute 20, 1
   5              		.eabi_attribute 21, 1
   6              		.eabi_attribute 23, 3
   7              		.eabi_attribute 24, 1
   8              		.eabi_attribute 25, 1
   9              		.eabi_attribute 26, 1
  10              		.eabi_attribute 30, 6
  11              		.eabi_attribute 18, 4
  12              		.thumb
  13              		.file	"main.c"
  20 0000 6C010000 		.text
  20      0200F900 
  20      00000201 
  20      FB0E0D00 
  20      01010101 
  21              	.Ltext0:
  22              		.cfi_sections	.debug_frame
  23              		.global	filterStatus
  24              		.bss
  25              		.type	filterStatus, %object
  26              		.size	filterStatus, 1
  27              	filterStatus:
  28 0000 00       		.space	1
  29              		.global	faultStatus
  30              		.type	faultStatus, %object
  31              		.size	faultStatus, 1
  32              	faultStatus:
  33 0001 00       		.space	1
  34              		.global	ADC_read
  35              		.type	ADC_read, %object
  36              		.size	ADC_read, 1
  37              	ADC_read:
  38 0002 00       		.space	1
  39              		.section	.text.filterVDAC,"ax",%progbits
  40              		.align	2
  41              		.global	filterVDAC
  42              		.thumb
  43              		.thumb_func
  44              		.type	filterVDAC, %function
  45              	filterVDAC:
  46              	.LFB29:
  47              		.file 1 ".\\main.c"
   1:.\main.c      **** /*******************************************************************************
   2:.\main.c      **** * File Name: main.c
   3:.\main.c      **** *
   4:.\main.c      **** * Version: 1.10
   5:.\main.c      **** *
   6:.\main.c      **** ********************************************************************************
ARM GAS  C:\Users\csap2972\AppData\Local\Temp\ccv2pNmg.s 			page 2


   7:.\main.c      **** * Copyright 2012, Cypress Semiconductor Corporation. All rights reserved.
   8:.\main.c      **** * This software is owned by Cypress Semiconductor Corporation and is protected
   9:.\main.c      **** * by and subject to worldwide patent and copyright laws and treaties.
  10:.\main.c      **** * Therefore, you may use this software only as provided in the license agreement
  11:.\main.c      **** * accompanying the software package from which you obtained this software.
  12:.\main.c      **** * CYPRESS AND ITS SUPPLIERS MAKE NO WARRANTY OF ANY KIND, EXPRESS OR IMPLIED,
  13:.\main.c      **** * WITH REGARD TO THIS SOFTWARE, INCLUDING, BUT NOT LIMITED TO, NONINFRINGEMENT,
  14:.\main.c      **** * IMPLIED WARRANTIES OF MERCHANTABILITY AND FITNESS FOR A PARTICULAR PURPOSE.
  15:.\main.c      **** *******************************************************************************/
  16:.\main.c      **** 
  17:.\main.c      **** #include <device.h>
  18:.\main.c      **** #include <VDAC8.h>
  19:.\main.c      **** #include <stdio.h>
  20:.\main.c      **** 
  21:.\main.c      **** #define REQUEST_PER_BURST        (1u)
  22:.\main.c      **** #define BYTES_PER_BURST          (1u)
  23:.\main.c      **** #define UPPER_SRC_ADDRESS        CYDEV_PERIPH_BASE
  24:.\main.c      **** #define UPPER_DEST_ADDRESS       CYDEV_PERIPH_BASE
  25:.\main.c      **** 
  26:.\main.c      **** void DMA_Config(void);
  27:.\main.c      **** 
  28:.\main.c      **** uint8_t filterStatus = 0;
  29:.\main.c      **** uint8_t faultStatus = 0;
  30:.\main.c      **** uint8_t ADC_read = 0;
  31:.\main.c      **** 
  32:.\main.c      **** 
  33:.\main.c      **** /*******************************************************************************
  34:.\main.c      **** * Interrupt
  35:.\main.c      **** ********************************************************************************
  36:.\main.c      **** * Interrupt generated on Filter sample-ready. Interrupt handle:filterVDAC
  37:.\main.c      **** *
  38:.\main.c      **** * Summary:
  39:.\main.c      **** *  The interrupt performs following functions:
  40:.\main.c      **** *   1: Reads the left-justified register for Filter Channel A
  41:.\main.c      **** *   2: Converts it into an unsigned value
  42:.\main.c      **** *   3: Writes this value to VDAC
  43:.\main.c      **** *
  44:.\main.c      **** *******************************************************************************/
  45:.\main.c      **** CY_ISR(filterVDAC)
  46:.\main.c      **** {
  48              		.loc 1 46 0
  49              		.cfi_startproc
  50              		@ args = 0, pretend = 0, frame = 0
  51              		@ frame_needed = 1, uses_anonymous_args = 0
  52 0000 80B5     		push	{r7, lr}
  53              	.LCFI0:
  54              		.cfi_def_cfa_offset 8
  55 0002 00AF     		add	r7, sp, #0
  56              		.cfi_offset 14, -4
  57              		.cfi_offset 7, -8
  58              	.LCFI1:
  59              		.cfi_def_cfa_register 7
  47:.\main.c      ****     /* Convert the 2's complement value to an unsigned 8-bit value
  48:.\main.c      ****      * The VDAC expects an unsigned 8-bit value as input.
  49:.\main.c      ****      */
  50:.\main.c      **** 	ADC_read = Filter_Read8(Filter_CHANNEL_A); 
  60              		.loc 1 50 0
ARM GAS  C:\Users\csap2972\AppData\Local\Temp\ccv2pNmg.s 			page 3


  61 0004 4FF00000 		mov	r0, #0
  62 0008 FFF7FEFF 		bl	Filter_Read8
  63 000c 0346     		mov	r3, r0
  64 000e 1A46     		mov	r2, r3
  65 0010 40F20003 		movw	r3, #:lower16:ADC_read
  66 0014 C0F20003 		movt	r3, #:upper16:ADC_read
  67 0018 1A70     		strb	r2, [r3, #0]
  51:.\main.c      **** 	VDAC8_SetValue(ADC_read);
  68              		.loc 1 51 0
  69 001a 40F20003 		movw	r3, #:lower16:ADC_read
  70 001e C0F20003 		movt	r3, #:upper16:ADC_read
  71 0022 1B78     		ldrb	r3, [r3, #0]	@ zero_extendqisi2
  72 0024 1846     		mov	r0, r3
  73 0026 FFF7FEFF 		bl	VDAC8_SetValue
  52:.\main.c      **** 	filterStatus = 1;
  74              		.loc 1 52 0
  75 002a 40F20003 		movw	r3, #:lower16:filterStatus
  76 002e C0F20003 		movt	r3, #:upper16:filterStatus
  77 0032 4FF00102 		mov	r2, #1
  78 0036 1A70     		strb	r2, [r3, #0]
  53:.\main.c      **** }
  79              		.loc 1 53 0
  80 0038 80BD     		pop	{r7, pc}
  81              		.cfi_endproc
  82              	.LFE29:
  83              		.size	filterVDAC, .-filterVDAC
  84 003a 00BF     		.section	.text.faultISR,"ax",%progbits
  85              		.align	2
  86              		.global	faultISR
  87              		.thumb
  88              		.thumb_func
  89              		.type	faultISR, %function
  90              	faultISR:
  91              	.LFB30:
  54:.\main.c      **** 
  55:.\main.c      **** /*******************************************************************************
  56:.\main.c      **** * Interrupt
  57:.\main.c      **** ********************************************************************************
  58:.\main.c      **** * Interrupt generated on Filter sample-ready. Interrupt handle:filterVDAC
  59:.\main.c      **** *
  60:.\main.c      **** * Summary:
  61:.\main.c      **** *  The interrupt performs following functions:
  62:.\main.c      **** *   1: Sets Status flag 1 when Fault is triggered
  63:.\main.c      **** *
  64:.\main.c      **** *******************************************************************************/
  65:.\main.c      **** CY_ISR(faultISR)
  66:.\main.c      **** {
  92              		.loc 1 66 0
  93              		.cfi_startproc
  94              		@ args = 0, pretend = 0, frame = 0
  95              		@ frame_needed = 1, uses_anonymous_args = 0
  96              		@ link register save eliminated.
  97 0000 80B4     		push	{r7}
  98              	.LCFI2:
  99              		.cfi_def_cfa_offset 4
 100 0002 00AF     		add	r7, sp, #0
 101              		.cfi_offset 7, -4
ARM GAS  C:\Users\csap2972\AppData\Local\Temp\ccv2pNmg.s 			page 4


 102              	.LCFI3:
 103              		.cfi_def_cfa_register 7
  67:.\main.c      ****     /* Convert the 2's complement value to an unsigned 8-bit value
  68:.\main.c      ****      * The VDAC expects an unsigned 8-bit value as input.
  69:.\main.c      ****      */
  70:.\main.c      **** 	faultStatus=1;
 104              		.loc 1 70 0
 105 0004 40F20003 		movw	r3, #:lower16:faultStatus
 106 0008 C0F20003 		movt	r3, #:upper16:faultStatus
 107 000c 4FF00102 		mov	r2, #1
 108 0010 1A70     		strb	r2, [r3, #0]
  71:.\main.c      **** }
 109              		.loc 1 71 0
 110 0012 BD46     		mov	sp, r7
 111 0014 80BC     		pop	{r7}
 112 0016 7047     		bx	lr
 113              		.cfi_endproc
 114              	.LFE30:
 115              		.size	faultISR, .-faultISR
 116              		.section	.rodata
 117              		.align	2
 118              	.LC0:
 119 0000 202000   		.ascii	"  \000"
 120 0003 00       		.align	2
 121              	.LC1:
 122 0004 2000     		.ascii	" \000"
 123 0006 0000     		.align	2
 124              	.LC2:
 125 0008 256900   		.ascii	"%i\000"
 126 000b 00       		.align	2
 127              	.LC3:
 128 000c 4552524F 		.ascii	"ERROR\000"
 128      5200
 129 0012 0000     		.align	2
 130              	.LC4:
 131 0014 4F4B2020 		.ascii	"OK   \000"
 131      2000
 132 001a 0000     		.section	.text.main,"ax",%progbits
 133              		.align	2
 134              		.global	main
 135              		.thumb
 136              		.thumb_func
 137              		.type	main, %function
 138              	main:
 139              	.LFB31:
  72:.\main.c      **** 
  73:.\main.c      **** /*******************************************************************************
  74:.\main.c      **** * Function Name: main
  75:.\main.c      **** ********************************************************************************
  76:.\main.c      **** *
  77:.\main.c      **** * Summary:
  78:.\main.c      **** *  Main function performs following functions:
  79:.\main.c      **** *   1: Enables global interrupts
  80:.\main.c      **** *   2: Start all components on the schematic
  81:.\main.c      **** *   3: Calls a function to configure DMA
  82:.\main.c      **** 
  83:.\main.c      **** * Parameters:
ARM GAS  C:\Users\csap2972\AppData\Local\Temp\ccv2pNmg.s 			page 5


  84:.\main.c      **** *  None.
  85:.\main.c      **** *
  86:.\main.c      **** * Return:
  87:.\main.c      **** *  None.
  88:.\main.c      **** *
  89:.\main.c      **** *******************************************************************************/
  90:.\main.c      **** void main()
  91:.\main.c      **** {
 140              		.loc 1 91 0
 141              		.cfi_startproc
 142              		@ args = 0, pretend = 0, frame = 32
 143              		@ frame_needed = 1, uses_anonymous_args = 0
 144 0000 80B5     		push	{r7, lr}
 145              	.LCFI4:
 146              		.cfi_def_cfa_offset 8
 147 0002 88B0     		sub	sp, sp, #32
 148              	.LCFI5:
 149              		.cfi_def_cfa_offset 40
 150 0004 00AF     		add	r7, sp, #0
 151              		.cfi_offset 14, -4
 152              		.cfi_offset 7, -8
 153              	.LCFI6:
 154              		.cfi_def_cfa_register 7
  92:.\main.c      **** 	char buffer[30];
  93:.\main.c      **** 	uint8_t filterRead;
  94:.\main.c      ****     /* Start all components used on schematic */
  95:.\main.c      ****     ADC_DelSig_IRQ_Start();
 155              		.loc 1 95 0
 156 0006 FFF7FEFF 		bl	ADC_DelSig_IRQ_Start
  96:.\main.c      ****     isr_StartEx(filterVDAC);
 157              		.loc 1 96 0
 158 000a 40F20000 		movw	r0, #:lower16:filterVDAC
 159 000e C0F20000 		movt	r0, #:upper16:filterVDAC
 160 0012 FFF7FEFF 		bl	isr_StartEx
  97:.\main.c      ****     ADC_DelSig_Start();
 161              		.loc 1 97 0
 162 0016 FFF7FEFF 		bl	ADC_DelSig_Start
  98:.\main.c      ****     ADC_DelSig_StartConvert();
 163              		.loc 1 98 0
 164 001a FFF7FEFF 		bl	ADC_DelSig_StartConvert
  99:.\main.c      **** 	Fault_isr_StartEx(faultISR);
 165              		.loc 1 99 0
 166 001e 40F20000 		movw	r0, #:lower16:faultISR
 167 0022 C0F20000 		movt	r0, #:upper16:faultISR
 168 0026 FFF7FEFF 		bl	Fault_isr_StartEx
 100:.\main.c      **** 	Comp_1_Start();
 169              		.loc 1 100 0
 170 002a FFF7FEFF 		bl	Comp_1_Start
 101:.\main.c      **** 	Comp_2_Start();
 171              		.loc 1 101 0
 172 002e FFF7FEFF 		bl	Comp_2_Start
 102:.\main.c      **** 	Comp_3_Start();
 173              		.loc 1 102 0
 174 0032 FFF7FEFF 		bl	Comp_3_Start
 103:.\main.c      ****     VDAC8_Start();
 175              		.loc 1 103 0
 176 0036 FFF7FEFF 		bl	VDAC8_Start
ARM GAS  C:\Users\csap2972\AppData\Local\Temp\ccv2pNmg.s 			page 6


 104:.\main.c      ****     Filter_Start();
 177              		.loc 1 104 0
 178 003a FFF7FEFF 		bl	Filter_Start
 105:.\main.c      **** 	LCD_Start();
 179              		.loc 1 105 0
 180 003e FFF7FEFF 		bl	LCD_Start
 106:.\main.c      **** 
 107:.\main.c      ****     /* User-implemented function to set-up DMA */
 108:.\main.c      ****     DMA_Config();
 181              		.loc 1 108 0
 182 0042 FFF7FEFF 		bl	DMA_Config
 109:.\main.c      **** 	
 110:.\main.c      **** 	
 111:.\main.c      **** 	
 112:.\main.c      ****     /* Enable Global Interrupts */
 113:.\main.c      ****     CYGlobalIntEnable;
 183              		.loc 1 113 0
 184              	@ 113 ".\main.c" 1
 185 0046 62B6     		CPSIE   i
 186              	@ 0 "" 2
 187              		.thumb
 188              	.L11:
 114:.\main.c      **** 
 115:.\main.c      ****     for(;;)
 116:.\main.c      ****     {
 117:.\main.c      **** 		if(filterStatus)
 189              		.loc 1 117 0
 190 0048 40F20003 		movw	r3, #:lower16:filterStatus
 191 004c C0F20003 		movt	r3, #:upper16:filterStatus
 192 0050 1B78     		ldrb	r3, [r3, #0]	@ zero_extendqisi2
 193 0052 002B     		cmp	r3, #0
 194 0054 33D0     		beq	.L6
 118:.\main.c      **** 		{
 119:.\main.c      **** 			LCD_Position(1u, 0u);
 195              		.loc 1 119 0
 196 0056 4FF00100 		mov	r0, #1
 197 005a 4FF00001 		mov	r1, #0
 198 005e FFF7FEFF 		bl	LCD_Position
 120:.\main.c      **** 			
 121:.\main.c      **** 			//filterRead = Filter_Read8(Filter_CHANNEL_A);
 122:.\main.c      **** 			filterRead = ADC_read;
 199              		.loc 1 122 0
 200 0062 40F20003 		movw	r3, #:lower16:ADC_read
 201 0066 C0F20003 		movt	r3, #:upper16:ADC_read
 202 006a 1B78     		ldrb	r3, [r3, #0]
 203 006c FB77     		strb	r3, [r7, #31]
 123:.\main.c      **** 			
 124:.\main.c      **** 			if(filterRead < 10) {
 204              		.loc 1 124 0
 205 006e FB7F     		ldrb	r3, [r7, #31]	@ zero_extendqisi2
 206 0070 092B     		cmp	r3, #9
 207 0072 06D8     		bhi	.L7
 125:.\main.c      **** 			LCD_PrintString("  ");			
 208              		.loc 1 125 0
 209 0074 40F20000 		movw	r0, #:lower16:.LC0
 210 0078 C0F20000 		movt	r0, #:upper16:.LC0
 211 007c FFF7FEFF 		bl	LCD_PrintString
ARM GAS  C:\Users\csap2972\AppData\Local\Temp\ccv2pNmg.s 			page 7


 212 0080 08E0     		b	.L8
 213              	.L7:
 126:.\main.c      **** 			} else if(filterRead < 100) {
 214              		.loc 1 126 0
 215 0082 FB7F     		ldrb	r3, [r7, #31]	@ zero_extendqisi2
 216 0084 632B     		cmp	r3, #99
 217 0086 05D8     		bhi	.L8
 127:.\main.c      **** 			LCD_PrintString(" ");			
 218              		.loc 1 127 0
 219 0088 40F20000 		movw	r0, #:lower16:.LC1
 220 008c C0F20000 		movt	r0, #:upper16:.LC1
 221 0090 FFF7FEFF 		bl	LCD_PrintString
 222              	.L8:
 128:.\main.c      **** 			} else {}
 129:.\main.c      **** 			
 130:.\main.c      **** 			sprintf(buffer, "%i", filterRead);
 223              		.loc 1 130 0
 224 0094 FB7F     		ldrb	r3, [r7, #31]	@ zero_extendqisi2
 225 0096 3A46     		mov	r2, r7
 226 0098 1046     		mov	r0, r2
 227 009a 40F20001 		movw	r1, #:lower16:.LC2
 228 009e C0F20001 		movt	r1, #:upper16:.LC2
 229 00a2 1A46     		mov	r2, r3
 230 00a4 FFF7FEFF 		bl	sprintf
 131:.\main.c      **** 			LCD_PrintString(buffer);
 231              		.loc 1 131 0
 232 00a8 3B46     		mov	r3, r7
 233 00aa 1846     		mov	r0, r3
 234 00ac FFF7FEFF 		bl	LCD_PrintString
 132:.\main.c      **** 			filterStatus=0;
 235              		.loc 1 132 0
 236 00b0 40F20003 		movw	r3, #:lower16:filterStatus
 237 00b4 C0F20003 		movt	r3, #:upper16:filterStatus
 238 00b8 4FF00002 		mov	r2, #0
 239 00bc 1A70     		strb	r2, [r3, #0]
 240              	.L6:
 133:.\main.c      **** 		}
 134:.\main.c      **** 		
 135:.\main.c      **** 		if(faultStatus) {
 241              		.loc 1 135 0
 242 00be 40F20003 		movw	r3, #:lower16:faultStatus
 243 00c2 C0F20003 		movt	r3, #:upper16:faultStatus
 244 00c6 1B78     		ldrb	r3, [r3, #0]	@ zero_extendqisi2
 245 00c8 002B     		cmp	r3, #0
 246 00ca 13D0     		beq	.L9
 136:.\main.c      **** 			LCD_Position(0u, 0u);
 247              		.loc 1 136 0
 248 00cc 4FF00000 		mov	r0, #0
 249 00d0 4FF00001 		mov	r1, #0
 250 00d4 FFF7FEFF 		bl	LCD_Position
 137:.\main.c      **** 			LCD_PrintString("ERROR");
 251              		.loc 1 137 0
 252 00d8 40F20000 		movw	r0, #:lower16:.LC3
 253 00dc C0F20000 		movt	r0, #:upper16:.LC3
 254 00e0 FFF7FEFF 		bl	LCD_PrintString
 138:.\main.c      **** 			faultStatus=0;
 255              		.loc 1 138 0
ARM GAS  C:\Users\csap2972\AppData\Local\Temp\ccv2pNmg.s 			page 8


 256 00e4 40F20003 		movw	r3, #:lower16:faultStatus
 257 00e8 C0F20003 		movt	r3, #:upper16:faultStatus
 258 00ec 4FF00002 		mov	r2, #0
 259 00f0 1A70     		strb	r2, [r3, #0]
 139:.\main.c      **** 			
 140:.\main.c      **** 		} else {
 141:.\main.c      **** 			LCD_Position(0u, 0u);
 142:.\main.c      **** 			LCD_PrintString("OK   ");
 143:.\main.c      **** 		}
 144:.\main.c      **** 		
 145:.\main.c      **** 		
 146:.\main.c      ****     }
 260              		.loc 1 146 0
 261 00f2 A9E7     		b	.L11
 262              	.L9:
 263              		.loc 1 141 0
 264 00f4 4FF00000 		mov	r0, #0
 265 00f8 4FF00001 		mov	r1, #0
 266 00fc FFF7FEFF 		bl	LCD_Position
 267              		.loc 1 142 0
 268 0100 40F20000 		movw	r0, #:lower16:.LC4
 269 0104 C0F20000 		movt	r0, #:upper16:.LC4
 270 0108 FFF7FEFF 		bl	LCD_PrintString
 271              		.loc 1 146 0
 272 010c 9CE7     		b	.L11
 273              		.cfi_endproc
 274              	.LFE31:
 275              		.size	main, .-main
 276 010e 00BF     		.section	.text.DMA_Config,"ax",%progbits
 277              		.align	2
 278              		.global	DMA_Config
 279              		.thumb
 280              		.thumb_func
 281              		.type	DMA_Config, %function
 282              	DMA_Config:
 283              	.LFB32:
 147:.\main.c      **** } /* End of main */
 148:.\main.c      **** 
 149:.\main.c      **** 
 150:.\main.c      **** /*******************************************************************************
 151:.\main.c      **** * Function Name: DMA_Config
 152:.\main.c      **** ********************************************************************************
 153:.\main.c      **** *
 154:.\main.c      **** * Summary:
 155:.\main.c      **** *  Initializes and sets up DMA for use (generated by DMA Wizard)
 156:.\main.c      **** *
 157:.\main.c      **** * Parameters:
 158:.\main.c      **** *  None.
 159:.\main.c      **** *
 160:.\main.c      **** * Return:
 161:.\main.c      **** *  None.
 162:.\main.c      **** *
 163:.\main.c      **** *******************************************************************************/
 164:.\main.c      **** void DMA_Config(void)
 165:.\main.c      **** {
 284              		.loc 1 165 0
 285              		.cfi_startproc
ARM GAS  C:\Users\csap2972\AppData\Local\Temp\ccv2pNmg.s 			page 9


 286              		@ args = 0, pretend = 0, frame = 8
 287              		@ frame_needed = 1, uses_anonymous_args = 0
 288 0000 80B5     		push	{r7, lr}
 289              	.LCFI7:
 290              		.cfi_def_cfa_offset 8
 291 0002 82B0     		sub	sp, sp, #8
 292              	.LCFI8:
 293              		.cfi_def_cfa_offset 16
 294 0004 00AF     		add	r7, sp, #0
 295              		.cfi_offset 14, -4
 296              		.cfi_offset 7, -8
 297              	.LCFI9:
 298              		.cfi_def_cfa_register 7
 166:.\main.c      ****     /* Declare variable to hold the handle for DMA channel */
 167:.\main.c      ****     uint8 channelHandle;
 168:.\main.c      **** 
 169:.\main.c      ****     /* Declare DMA Transaction Descriptor for memory transfer into
 170:.\main.c      ****      * Filter Channel.
 171:.\main.c      ****      */
 172:.\main.c      ****     uint8 tdChanA;
 173:.\main.c      **** 
 174:.\main.c      ****     /* Configure the DMA to Transfer the data in 1 burst with individual trigger
 175:.\main.c      ****      * for each burst.
 176:.\main.c      ****      */
 177:.\main.c      ****     channelHandle = DMA_DmaInitialize(BYTES_PER_BURST, REQUEST_PER_BURST,
 299              		.loc 1 177 0
 300 0006 4FF00100 		mov	r0, #1
 301 000a 4FF00101 		mov	r1, #1
 302 000e 4FF48042 		mov	r2, #16384
 303 0012 4FF48043 		mov	r3, #16384
 304 0016 FFF7FEFF 		bl	DMA_DmaInitialize
 305 001a 0346     		mov	r3, r0
 306 001c BB71     		strb	r3, [r7, #6]
 178:.\main.c      ****                                         HI16(UPPER_SRC_ADDRESS), HI16(UPPER_DEST_ADDRESS));
 179:.\main.c      **** 
 180:.\main.c      ****     /* This function allocates a TD for use with an initialized DMA channel */
 181:.\main.c      ****     tdChanA = CyDmaTdAllocate();
 307              		.loc 1 181 0
 308 001e FFF7FEFF 		bl	CyDmaTdAllocate
 309 0022 0346     		mov	r3, r0
 310 0024 FB71     		strb	r3, [r7, #7]
 182:.\main.c      **** 
 183:.\main.c      ****     /* Configure the tdChanA to transfer 1 byte with no next TD */
 184:.\main.c      ****     CyDmaTdSetConfiguration(tdChanA, 1u, DMA_INVALID_TD, 0u);
 311              		.loc 1 184 0
 312 0026 FB79     		ldrb	r3, [r7, #7]	@ zero_extendqisi2
 313 0028 1846     		mov	r0, r3
 314 002a 4FF00101 		mov	r1, #1
 315 002e 4FF0FF02 		mov	r2, #255
 316 0032 4FF00003 		mov	r3, #0
 317 0036 FFF7FEFF 		bl	CyDmaTdSetConfiguration
 185:.\main.c      **** 
 186:.\main.c      ****     /* Set the source address as ADC_DelSig and the destination as
 187:.\main.c      ****      * Filter Channel A.
 188:.\main.c      ****      */
 189:.\main.c      ****     CyDmaTdSetAddress(tdChanA, LO16((uint32)ADC_DelSig_DEC_SAMP_PTR), LO16((uint32)Filter_STAGEAH_P
 318              		.loc 1 189 0
ARM GAS  C:\Users\csap2972\AppData\Local\Temp\ccv2pNmg.s 			page 10


 319 003a FB79     		ldrb	r3, [r7, #7]	@ zero_extendqisi2
 320 003c 1846     		mov	r0, r3
 321 003e 44F61061 		movw	r1, #19984
 322 0042 4CF2A272 		movw	r2, #51106
 323 0046 FFF7FEFF 		bl	CyDmaTdSetAddress
 190:.\main.c      **** 
 191:.\main.c      ****     /* Set tdChanA to be the initial TD associated with channelHandle */
 192:.\main.c      ****     CyDmaChSetInitialTd(channelHandle, tdChanA);
 324              		.loc 1 192 0
 325 004a BA79     		ldrb	r2, [r7, #6]	@ zero_extendqisi2
 326 004c FB79     		ldrb	r3, [r7, #7]	@ zero_extendqisi2
 327 004e 1046     		mov	r0, r2
 328 0050 1946     		mov	r1, r3
 329 0052 FFF7FEFF 		bl	CyDmaChSetInitialTd
 193:.\main.c      **** 
 194:.\main.c      ****     /* Enable the DMA channel represented by channelHandle and preserve the TD */
 195:.\main.c      ****     CyDmaChEnable(channelHandle, 1u);
 330              		.loc 1 195 0
 331 0056 BB79     		ldrb	r3, [r7, #6]	@ zero_extendqisi2
 332 0058 1846     		mov	r0, r3
 333 005a 4FF00101 		mov	r1, #1
 334 005e FFF7FEFF 		bl	CyDmaChEnable
 196:.\main.c      **** }
 335              		.loc 1 196 0
 336 0062 07F10807 		add	r7, r7, #8
 337 0066 BD46     		mov	sp, r7
 338 0068 80BD     		pop	{r7, pc}
 339              		.cfi_endproc
 340              	.LFE32:
 341              		.size	DMA_Config, .-DMA_Config
 342 006a 00BF     		.text
 343              	.Letext0: