ARM GAS  C:\Users\Luggi\AppData\Local\Temp\cc4UX0hv.s 			page 1


   1              		.syntax unified
   2              		.cpu cortex-m3
   3              		.fpu softvfp
   4              		.eabi_attribute 20, 1
   5              		.eabi_attribute 21, 1
   6              		.eabi_attribute 23, 3
   7              		.eabi_attribute 24, 1
   8              		.eabi_attribute 25, 1
   9              		.eabi_attribute 26, 1
  10              		.eabi_attribute 30, 1
  11              		.eabi_attribute 34, 1
  12              		.eabi_attribute 18, 4
  13              		.thumb
  14              		.file	"ADC_DelSig_1_INT.c"
  15              		.text
  16              	.Ltext0:
  17              		.section	.gnu.lto_.profile.304b4315,"",%progbits
  18 0000 789C6366 		.ascii	"x\234cf```a\200\000F\006\016\026\000\000\210\000\025"
  18      60606061 
  18      80004606 
  18      0E160000 
  18      880015
  19              		.text
  20              		.section	.gnu.lto_.inline.304b4315,"",%progbits
  21 0000 789C6366 		.ascii	"x\234cf\300\016\274\2404\013\003\0033\023#\003\023\220"
  21      C00EBCA0 
  21      340B0303 
  21      33132303 
  21      1390
  22 0012 C9B6401E 		.ascii	"\311\266@\036D10b\2100a\2100c\2100\000\000\214\356\003"
  22      44313062 
  22      88306188 
  22      30638830 
  22      00008CEE 
  23 0027 94       		.ascii	"\224"
  24              		.text
  25              		.section	.gnu.lto_.jmpfuncs.304b4315,"",%progbits
  26 0000 789C6366 		.ascii	"x\234cf\300\016\370\2404\013\0203200100\003Y\000\002"
  26      C00EF8A0 
  26      340B1033 
  26      32303031 
  26      30300359 
  27 0016 48001C   		.ascii	"H\000\034"
  28              		.text
  29              		.section	.gnu.lto_.pureconst.304b4315,"",%progbits
  30 0000 789C6366 		.ascii	"x\234cf``\340d\200\000\026\006\006F\006&\006f\006\000"
  30      6060E064 
  30      80001606 
  30      06460626 
  30      06660600 
  31 0014 01250017 		.ascii	"\001%\000\027"
  32              		.text
  33              		.section	.gnu.lto_ADC_DelSig_1_ISR1.304b4315,"",%progbits
  34 0000 789C6366 		.ascii	"x\234cf\300\004R@\\\002\304:@\314\310\314\300\3104\341"
  34      C0045240 
  34      5C02C43A 
  34      40CCC8CC 
ARM GAS  C:\Users\Luggi\AppData\Local\Temp\cc4UX0hv.s 			page 2


  34      C0C834E1 
  35 0014 1C034323 		.ascii	"\034\003C#\007\023##\210\301\300\310P\317\304X\317\370"
  35      07132323 
  35      88C1C0C8 
  35      50CFC458 
  35      CFF8
  36 0026 92E92313 		.ascii	"\222\351#\023\343\204\003\253gp\253/mhh\370\260imc\300"
  36      E38403AB 
  36      6770AB2F 
  36      6D6868F8 
  36      B0696D63 
  37 003b 01C69F4C 		.ascii	"\001\306\237L\014\014\237\231 \3460.gTg\000*\372\330"
  37      0C0C9F99 
  37      20E6302E 
  37      67546700 
  37      2AFAD8
  38 004e F2F73A37 		.ascii	"\362\367:7[\013P\221\000D\216q\005#\033#\220^/t\240"
  38      5B0B5091 
  38      00448E71 
  38      05231B23 
  38      905E2F74 
  39 0063 E1FFFFC9 		.ascii	"\341\377\377\311\333\246\230\002E\237\0001\310\374\247"
  39      DBA69802 
  39      459F0031 
  39      C8FCA7
  40 0072 4C4C209A 		.ascii	"LL \232\371\036##H\035\310\240'L\214 !\240\002-\367"
  40      F91E2323 
  40      481DC8A0 
  40      274C8C20 
  40      21A0022D 
  41 0087 D4BCD4A2 		.ascii	"\324\274\324\242\304\222\324\224\370\340\374\322\242"
  41      C492D494 
  41      F8E0FCD2 
  41      A2
  42 0094 E4D49880 		.ascii	"\344\324\230\200\340|g\323\030G\027\347x\227\324\234"
  42      E07C67D3 
  42      184717E7 
  42      7897D49C 
  43 00a4 E0CCF478 		.ascii	"\340\314\364x\303xO\277\020\275d\006\000:{7\220"
  43      C3784FBF 
  43      10BD6406 
  43      003A7B37 
  43      90
  44              		.text
  45              		.section	.gnu.lto_ADC_DelSig_1_ISR2.304b4315,"",%progbits
  46 0000 789C6366 		.ascii	"x\234cf\300\004R@\\\002\304:@\314\310\314\300\3104\341"
  46      C0045240 
  46      5C02C43A 
  46      40CCC8CC 
  46      C0C834E1 
  47 0014 1C034323 		.ascii	"\034\003C#\007\023##\210\301\300\310P\317\304X\317\370"
  47      07132323 
  47      88C1C0C8 
  47      50CFC458 
  47      CFF8
  48 0026 92E92313 		.ascii	"\222\351#\023\343\204\003\253gp\253/mhh\370pi\247H\253"
  48      E38403AB 
ARM GAS  C:\Users\Luggi\AppData\Local\Temp\cc4UX0hv.s 			page 3


  48      6770AB2F 
  48      6D6868F8 
  48      7069A748 
  49 003b C44F2606 		.ascii	"\304O&\006\206\317L\020c\030\2273\2523\000\325|l\371"
  49      86CF4C10 
  49      63189733 
  49      AA3300D5 
  49      7C6CF9
  50 004e 7B9D9BAD 		.ascii	"{\235\233\255\005\250F\000\"\307\270\202\221\215\021"
  50      05A84600 
  50      22C7B882 
  50      918D11
  51 005d 48AF173A 		.ascii	"H\257\027:\320\360\377\377\344\347\007\247q\001\205"
  51      D0F0FFFF 
  51      E4E707A7 
  51      710185
  52 006c 9F0031C8 		.ascii	"\237\0001\310\374\247LL \232\371\036##H!\310\244'L\214"
  52      FCA74C4C 
  52      209AF91E 
  52      23234821 
  52      C8A4274C 
  53 0081 2021A002 		.ascii	" !\240\002-\367\324\274\324\242\304\222\324\224\370"
  53      2DF7D4BC 
  53      D4A2C492 
  53      D494F8
  54 0090 E0FCD2A2 		.ascii	"\340\374\322\242\344\324\230\200\340|g\323\030G\027"
  54      E4D49880 
  54      E07C67D3 
  54      184717
  55 009f E77897D4 		.ascii	"\347x\227\324\234\340\314\364x\303xO\277\020\275d\006"
  55      9CE0CCF4 
  55      78C3784F 
  55      BF10BD64 
  55      06
  56 00b0 002B9A37 		.ascii	"\000+\2327\244"
  56      A4
  57              		.text
  58              		.section	.gnu.lto_ADC_DelSig_1_ISR3.304b4315,"",%progbits
  59 0000 789C6366 		.ascii	"x\234cf\300\004R@\\\002\304:@\314\310\314\300\3104\341"
  59      C0045240 
  59      5C02C43A 
  59      40CCC8CC 
  59      C0C834E1 
  60 0014 1C034323 		.ascii	"\034\003C#\007\023##\210\301\300\310P\317\304X\317\370"
  60      07132323 
  60      88C1C0C8 
  60      50CFC458 
  60      CFF8
  61 0026 92E92313 		.ascii	"\222\351#\023\343\204\003\253gp\253/mhh\370\360\351"
  61      E38403AB 
  61      6770AB2F 
  61      6D6868F8 
  61      F0E9
  62 0038 AA48ABC4 		.ascii	"\252H\253\304O&\006\206\317L\020c\030\2273\2523\000"
  62      4F260686 
  62      CF4C1063 
  62      189733AA 
ARM GAS  C:\Users\Luggi\AppData\Local\Temp\cc4UX0hv.s 			page 4


  62      3300
  63 004a D57C6CF9 		.ascii	"\325|l\371{\235\233\255\005\250F\000\"\307\270\202\221"
  63      7B9D9BAD 
  63      05A84600 
  63      22C7B882 
  63      91
  64 005b 8D1148AF 		.ascii	"\215\021H\257\027:\320\360\377\377\344;\207nq\003\205"
  64      173AD0F0 
  64      FFFFE43B 
  64      876E7103 
  64      85
  65 006c 9F0031C8 		.ascii	"\237\0001\310\374\247LL \232\371\036##H!\310\244'L\214"
  65      FCA74C4C 
  65      209AF91E 
  65      23234821 
  65      C8A4274C 
  66 0081 2021A002 		.ascii	" !\240\002-\367\324\274\324\242\304\222\324\224\370"
  66      2DF7D4BC 
  66      D4A2C492 
  66      D494F8
  67 0090 E0FCD2A2 		.ascii	"\340\374\322\242\344\324\230\200\340|g\323\030G\027"
  67      E4D49880 
  67      E07C67D3 
  67      184717
  68 009f E77897D4 		.ascii	"\347x\227\324\234\340\314\364x\303xO\277\020\275d\006"
  68      9CE0CCF4 
  68      78C3784F 
  68      BF10BD64 
  68      06
  69 00b0 0060BF38 		.ascii	"\000`\2778\033"
  69      1B
  70              		.text
  71              		.section	.gnu.lto_ADC_DelSig_1_ISR4.304b4315,"",%progbits
  72 0000 789C6366 		.ascii	"x\234cf\300\004R@\\\002\304:@\314\310\314\300\3104\341"
  72      C0045240 
  72      5C02C43A 
  72      40CCC8CC 
  72      C0C834E1 
  73 0014 1C034323 		.ascii	"\034\003C#\007\023##\210\301\300\310P\317\304X\317\370"
  73      07132323 
  73      88C1C0C8 
  73      50CFC458 
  73      CFF8
  74 0026 92E92313 		.ascii	"\222\351#\023\343\204\003\253gp\253/mhh\3700\351\263"
  74      E38403AB 
  74      6770AB2F 
  74      6D6868F8 
  74      30E9B3
  75 0039 48ABC44F 		.ascii	"H\253\304O&\006\206\317L\020c\030\2273\2523\000\325"
  75      260686CF 
  75      4C106318 
  75      9733AA33 
  75      00D5
  76 004b 7C6CF97B 		.ascii	"|l\371{\235\233\255\005\250F\000\"\307\270\202\221\215"
  76      9D9BAD05 
  76      A8460022 
  76      C7B88291 
ARM GAS  C:\Users\Luggi\AppData\Local\Temp\cc4UX0hv.s 			page 5


  76      8D
  77 005c 1148AF17 		.ascii	"\021H\257\027:\320\360\377\377\344\263\207\347\361\003"
  77      3AD0F0FF 
  77      FFE4B387 
  77      E7F103
  78 006b 859F0031 		.ascii	"\205\237\0001\310\374\247LL \232\371\036##H!\310\244"
  78      C8FCA74C 
  78      4C209AF9 
  78      1E232348 
  78      21C8A4
  79 007e 274C8C20 		.ascii	"'L\214 !\240\002-\367\324\274\324\242\304\222\324\224"
  79      21A0022D 
  79      F7D4BCD4 
  79      A2C492D4 
  79      94
  80 008f F8E0FCD2 		.ascii	"\370\340\374\322\242\344\324\230\200\340|g\323\030G"
  80      A2E4D498 
  80      80E07C67 
  80      D31847
  81 009e 17E77897 		.ascii	"\027\347x\227\324\234\340\314\364x\303xO\277\020\275"
  81      D49CE0CC 
  81      F478C378 
  81      4FBF10BD 
  82 00ae 64060024 		.ascii	"d\006\000$\"7\223"
  82      223793
  83              		.text
  84              		.section	.gnu.lto_.symbol_nodes.304b4315,"",%progbits
  85 0000 789C6366 		.ascii	"x\234cf``pb\200\002&\206z\006\206\011\347\030\030\352"
  85      60607062 
  85      80022686 
  85      7A068609 
  85      E71818EA 
  86 0014 EB19A62D 		.ascii	"\353\031\246-\340``b\254gD\3413\3253\241\360\231\353"
  86      E0606062 
  86      AC6744E1 
  86      33D533A1 
  86      F099EB
  87 0027 9991F90C 		.ascii	"\231\221\371\014\0000N\020\276"
  87      00304E10 
  87      BE
  88              		.text
  89              		.section	.gnu.lto_.refs.304b4315,"",%progbits
  90 0000 789C6366 		.ascii	"x\234cf```d\200\002\000\000=\000\005"
  90      60606064 
  90      80020000 
  90      3D0005
  91              		.text
  92              		.section	.gnu.lto_.decls.304b4315,"",%progbits
  93 0000 789C6366 		.ascii	"x\234cf``\270\002\304\377\201 \205\221\201\241\032\310"
  93      6060B802 
  93      C4FF8120 
  93      859181A1 
  93      1AC8
  94 0012 6605E200 		.ascii	"f\005\342\000\006\004`\001\3425@\274\016\2107\000\361"
  94      06046001 
  94      E23540BC 
  94      0E883700 
ARM GAS  C:\Users\Luggi\AppData\Local\Temp\cc4UX0hv.s 			page 6


  94      F1
  95 0023 26064C00 		.ascii	"&\006L\000\222gD\322\307\010\025C\007\353\260\250[\207"
  95      926744D2 
  95      C7081543 
  95      07EBB0A8 
  95      5B87
  96 0035 45DD062C 		.ascii	"E\335\006,\3526`Q\267\011\213:l\356\373\310\304\270"
  96      EA366051 
  96      B7098B3A 
  96      6CEEFBC8 
  96      C4B8
  97 0047 73DD97B3 		.ascii	"s\335\227\263\334/\230\030\371\270\024@\334]\223N\314"
  97      DC2F9818 
  97      F9B81440 
  97      DC5D934E 
  97      CC
  98 0058 60037279 		.ascii	"`\003ry\270X@\334\335\277\037]a\021\237\332\000\004"
  98      B85840DC 
  98      DDBF1F5D 
  98      61119FDA 
  98      0004
  99 006a 139A1B04 		.ascii	"\023\232\033\004X\030\003\304\030\2273J1\256`\224\002"
  99      581803C4 
  99      1897334A 
  99      31AE6094 
  99      02
 100 007b 9ABA9251 		.ascii	"\232\272\222Q\034HF\263@Lj\376q\367\026+3\023#\210\275"
 100      1C4846B3 
 100      404C6AFE 
 100      71F7162B 
 100      33132388 
 101 0090 78C6C32B 		.ascii	"x\306\303+\\:\253\200\332:\032\016<`BX\327\365\363\367"
 101      5C3AAB80 
 101      DA3A1A0E 
 101      3C604258 
 101      D7F5F3F7 
 102 00a4 565E8579 		.ascii	"V^\205y\015\0336|\330}\355*O\303\211\206\003\377\377"
 102      0D1B367C 
 102      D87DED2A 
 102      4FC38986 
 102      03FFFF
 103 00b7 DB838D62 		.ascii	"\333\203\215b\\\305\310\314\270\232Q\007\354` \033\342"
 103      5CC5C8CC 
 103      B89A5107 
 103      EC60201B 
 103      E2
 104 00c8 F2358C0A 		.ascii	"\3625\214\012@m;\232\277\336`gv\003\233\335\377}{\013"
 104      406D3B9A 
 104      BFDE6067 
 104      76039BDD 
 104      FF7D7B0B 
 105 00dc 1FD88805 		.ascii	"\037\330\210\005g\027\263A\014\000\353_\213\244\177"
 105      6717B341 
 105      0C00EB5F 
 105      8BA47F
 106 00eb 2D4CFF3A 		.ascii	"-L\377:\260\376O\273\027\354eg\216\000\353\237;\365"
 106      B0FE4FBB 
ARM GAS  C:\Users\Luggi\AppData\Local\Temp\cc4UX0hv.s 			page 7


 106      17EC6567 
 106      8E00EB9F 
 106      3BF5
 107 00fd BB1C44FB 		.ascii	"\273\034D\373\372\245\310\332\327#i_\017\323\276\001"
 107      FAA5C8DA 
 107      D723695F 
 107      0FD3BE01 
 108 010d ACBDF7D7 		.ascii	"\254\275\367\3277\017\346,\260\356\356\313sv\363@\264"
 108      370FE62C 
 108      B0EEEECB 
 108      7376F340 
 108      B4
 109 011e CF5C8EAC 		.ascii	"\317\\\216\254}#\222\366\2150\355\233\030\025\030\004"
 109      7D2392F6 
 109      8D30ED9B 
 109      18151804 
 110 012e 1D5D9CE3 		.ascii	"\035]\234\343]Rs\2023\323\343\015\343=\203\203\014\331"
 110      5D527382 
 110      33D3E30D 
 110      E33D8383 
 110      0CD9
 111 0140 DCFD4215 		.ascii	"\334\375B\025\234\031\264\334S\363R\213\022KRS\342\203"
 111      9C19B4DC 
 111      53F3528B 
 111      124B5253 
 111      E283
 112 0152 F34B8B92 		.ascii	"\363K\213\222Sc\002\202\363\235McP\325\373\205\350%"
 112      53630282 
 112      F39D4D63 
 112      50D5FB85 
 112      E825
 113 0164 639A6184 		.ascii	"c\232a\204!b\214!b\002\000\030P\250\260"
 113      21628C21 
 113      62020018 
 113      50A8B0
 114              		.text
 115              		.section	.gnu.lto_.symtab.304b4315,"",%progbits
 116 0000 4144435F 		.ascii	"ADC_DelSig_1_ISR1\000\000\000\000\000\000\000\000\000"
 116      44656C53 
 116      69675F31 
 116      5F495352 
 116      31000000 
 117 001a 000000AC 		.ascii	"\000\000\000\254\000\000\000ADC_DelSig_1_ISR2\000\000"
 117      00000041 
 117      44435F44 
 117      656C5369 
 117      675F315F 
 118 0034 00000000 		.ascii	"\000\000\000\000\000\000\000\000\000\000\256\000\000"
 118      00000000 
 118      0000AE00 
 118      00
 119 0041 00414443 		.ascii	"\000ADC_DelSig_1_ISR3\000\000\000\000\000\000\000\000"
 119      5F44656C 
 119      5369675F 
 119      315F4953 
 119      52330000 
 120 005b 00000000 		.ascii	"\000\000\000\000\260\000\000\000ADC_DelSig_1_ISR4\000"
ARM GAS  C:\Users\Luggi\AppData\Local\Temp\cc4UX0hv.s 			page 8


 120      B0000000 
 120      4144435F 
 120      44656C53 
 120      69675F31 
 121 0075 00000000 		.ascii	"\000\000\000\000\000\000\000\000\000\000\000\262\000"
 121      00000000 
 121      000000B2 
 121      00
 122 0082 0000     		.ascii	"\000\000"
 123              		.text
 124              		.section	.gnu.lto_.opts,"",%progbits
 125 0000 272D666E 		.ascii	"'-fno-trapv' '-fno-strict-overflow' '-mcpu=cortex-m"
 125      6F2D7472 
 125      61707627 
 125      20272D66 
 125      6E6F2D73 
 126 0033 33272027 		.ascii	"3' '-mthumb' '-g' '-Og' '-ffunction-sections' '-flt"
 126      2D6D7468 
 126      756D6227 
 126      20272D67 
 126      2720272D 
 127 0066 6F272027 		.ascii	"o' '-ffat-lto-objects'\000"
 127      2D666661 
 127      742D6C74 
 127      6F2D6F62 
 127      6A656374 
 128              		.text
 129              		.cfi_sections	.debug_frame
 130              		.section	.text.ADC_DelSig_1_ISR1,"ax",%progbits
 131              		.align	2
 132              		.global	ADC_DelSig_1_ISR1
 133              		.thumb
 134              		.thumb_func
 135              		.type	ADC_DelSig_1_ISR1, %function
 136              	ADC_DelSig_1_ISR1:
 137              	.LFB0:
 138              		.file 1 "Generated_Source\\PSoC5\\ADC_DelSig_1_INT.c"
   1:Generated_Source\PSoC5/ADC_DelSig_1_INT.c **** /*******************************************************************************
   2:Generated_Source\PSoC5/ADC_DelSig_1_INT.c **** * File Name: ADC_DelSig_1_INT.c
   3:Generated_Source\PSoC5/ADC_DelSig_1_INT.c **** * Version 3.20
   4:Generated_Source\PSoC5/ADC_DelSig_1_INT.c **** *
   5:Generated_Source\PSoC5/ADC_DelSig_1_INT.c **** * Description:
   6:Generated_Source\PSoC5/ADC_DelSig_1_INT.c **** *  This file contains the code that operates during the ADC_DelSig interrupt
   7:Generated_Source\PSoC5/ADC_DelSig_1_INT.c **** *  service routine.
   8:Generated_Source\PSoC5/ADC_DelSig_1_INT.c **** *
   9:Generated_Source\PSoC5/ADC_DelSig_1_INT.c **** * Note:
  10:Generated_Source\PSoC5/ADC_DelSig_1_INT.c **** *
  11:Generated_Source\PSoC5/ADC_DelSig_1_INT.c **** ********************************************************************************
  12:Generated_Source\PSoC5/ADC_DelSig_1_INT.c **** * Copyright 2008-2015, Cypress Semiconductor Corporation.  All rights reserved.
  13:Generated_Source\PSoC5/ADC_DelSig_1_INT.c **** * You may use this file only in accordance with the license, terms, conditions,
  14:Generated_Source\PSoC5/ADC_DelSig_1_INT.c **** * disclaimers, and limitations in the end user license agreement accompanying
  15:Generated_Source\PSoC5/ADC_DelSig_1_INT.c **** * the software package with which this file was provided.
  16:Generated_Source\PSoC5/ADC_DelSig_1_INT.c **** *******************************************************************************/
  17:Generated_Source\PSoC5/ADC_DelSig_1_INT.c **** 
  18:Generated_Source\PSoC5/ADC_DelSig_1_INT.c **** #include "ADC_DelSig_1.h"
  19:Generated_Source\PSoC5/ADC_DelSig_1_INT.c **** 
  20:Generated_Source\PSoC5/ADC_DelSig_1_INT.c **** 
ARM GAS  C:\Users\Luggi\AppData\Local\Temp\cc4UX0hv.s 			page 9


  21:Generated_Source\PSoC5/ADC_DelSig_1_INT.c **** 
  22:Generated_Source\PSoC5/ADC_DelSig_1_INT.c **** /*******************************************************************************
  23:Generated_Source\PSoC5/ADC_DelSig_1_INT.c **** * Custom Declarations and Variables
  24:Generated_Source\PSoC5/ADC_DelSig_1_INT.c **** * - add user include files, prototypes and variables between the following
  25:Generated_Source\PSoC5/ADC_DelSig_1_INT.c **** *   #START and #END tags
  26:Generated_Source\PSoC5/ADC_DelSig_1_INT.c **** *******************************************************************************/
  27:Generated_Source\PSoC5/ADC_DelSig_1_INT.c **** /* `#START ADC_SYS_VAR`  */
  28:Generated_Source\PSoC5/ADC_DelSig_1_INT.c **** 
  29:Generated_Source\PSoC5/ADC_DelSig_1_INT.c **** /* `#END`  */
  30:Generated_Source\PSoC5/ADC_DelSig_1_INT.c **** 
  31:Generated_Source\PSoC5/ADC_DelSig_1_INT.c **** #if(ADC_DelSig_1_IRQ_REMOVE == 0u)
  32:Generated_Source\PSoC5/ADC_DelSig_1_INT.c **** 
  33:Generated_Source\PSoC5/ADC_DelSig_1_INT.c **** 
  34:Generated_Source\PSoC5/ADC_DelSig_1_INT.c ****     /*****************************************************************************
  35:Generated_Source\PSoC5/ADC_DelSig_1_INT.c ****     * Function Name: ADC_DelSig_1_ISR1
  36:Generated_Source\PSoC5/ADC_DelSig_1_INT.c ****     ******************************************************************************
  37:Generated_Source\PSoC5/ADC_DelSig_1_INT.c ****     *
  38:Generated_Source\PSoC5/ADC_DelSig_1_INT.c ****     * Summary:
  39:Generated_Source\PSoC5/ADC_DelSig_1_INT.c ****     *  Handle Interrupt Service Routine.
  40:Generated_Source\PSoC5/ADC_DelSig_1_INT.c ****     *
  41:Generated_Source\PSoC5/ADC_DelSig_1_INT.c ****     * Parameters:
  42:Generated_Source\PSoC5/ADC_DelSig_1_INT.c ****     *  None
  43:Generated_Source\PSoC5/ADC_DelSig_1_INT.c ****     *
  44:Generated_Source\PSoC5/ADC_DelSig_1_INT.c ****     * Return:
  45:Generated_Source\PSoC5/ADC_DelSig_1_INT.c ****     *  None
  46:Generated_Source\PSoC5/ADC_DelSig_1_INT.c ****     *
  47:Generated_Source\PSoC5/ADC_DelSig_1_INT.c ****     * Reentrant:
  48:Generated_Source\PSoC5/ADC_DelSig_1_INT.c ****     *  No
  49:Generated_Source\PSoC5/ADC_DelSig_1_INT.c ****     *
  50:Generated_Source\PSoC5/ADC_DelSig_1_INT.c ****     *****************************************************************************/
  51:Generated_Source\PSoC5/ADC_DelSig_1_INT.c ****     CY_ISR( ADC_DelSig_1_ISR1)
  52:Generated_Source\PSoC5/ADC_DelSig_1_INT.c ****     {
 139              		.loc 1 52 0
 140              		.cfi_startproc
 141              		@ args = 0, pretend = 0, frame = 0
 142              		@ frame_needed = 0, uses_anonymous_args = 0
 143              		@ link register save eliminated.
 144 0000 7047     		bx	lr
 145              		.cfi_endproc
 146              	.LFE0:
 147              		.size	ADC_DelSig_1_ISR1, .-ADC_DelSig_1_ISR1
 148 0002 00BF     		.section	.text.ADC_DelSig_1_ISR2,"ax",%progbits
 149              		.align	2
 150              		.global	ADC_DelSig_1_ISR2
 151              		.thumb
 152              		.thumb_func
 153              		.type	ADC_DelSig_1_ISR2, %function
 154              	ADC_DelSig_1_ISR2:
 155              	.LFB1:
  53:Generated_Source\PSoC5/ADC_DelSig_1_INT.c ****         #ifdef ADC_DelSig_1_ISR1_ENTRY_CALLBACK
  54:Generated_Source\PSoC5/ADC_DelSig_1_INT.c ****             ADC_DelSig_1_ISR1_EntryCallback();
  55:Generated_Source\PSoC5/ADC_DelSig_1_INT.c ****         #endif /* ADC_DelSig_1_ISR1_ENTRY_CALLBACK */
  56:Generated_Source\PSoC5/ADC_DelSig_1_INT.c ****         
  57:Generated_Source\PSoC5/ADC_DelSig_1_INT.c **** 
  58:Generated_Source\PSoC5/ADC_DelSig_1_INT.c ****         /**************************************************************************
  59:Generated_Source\PSoC5/ADC_DelSig_1_INT.c ****         *  Custom Code
  60:Generated_Source\PSoC5/ADC_DelSig_1_INT.c ****         *  - add user ISR code between the following #START and #END tags
ARM GAS  C:\Users\Luggi\AppData\Local\Temp\cc4UX0hv.s 			page 10


  61:Generated_Source\PSoC5/ADC_DelSig_1_INT.c ****         **************************************************************************/
  62:Generated_Source\PSoC5/ADC_DelSig_1_INT.c ****         /* `#START MAIN_ADC_ISR1`  */
  63:Generated_Source\PSoC5/ADC_DelSig_1_INT.c **** 
  64:Generated_Source\PSoC5/ADC_DelSig_1_INT.c ****         /* `#END`  */
  65:Generated_Source\PSoC5/ADC_DelSig_1_INT.c ****         
  66:Generated_Source\PSoC5/ADC_DelSig_1_INT.c ****         /* Stop the conversion if conversion mode is single sample and resolution
  67:Generated_Source\PSoC5/ADC_DelSig_1_INT.c ****         *  is above 16 bits.
  68:Generated_Source\PSoC5/ADC_DelSig_1_INT.c ****         */
  69:Generated_Source\PSoC5/ADC_DelSig_1_INT.c ****         #if(ADC_DelSig_1_CFG1_RESOLUTION > 16 && \
  70:Generated_Source\PSoC5/ADC_DelSig_1_INT.c ****             ADC_DelSig_1_CFG1_CONV_MODE == ADC_DelSig_1_MODE_SINGLE_SAMPLE)
  71:Generated_Source\PSoC5/ADC_DelSig_1_INT.c ****             ADC_DelSig_1_StopConvert();
  72:Generated_Source\PSoC5/ADC_DelSig_1_INT.c ****             /* Software flag for checking conversion complete or not. Will be used when
  73:Generated_Source\PSoC5/ADC_DelSig_1_INT.c ****             *  resolution is above 16 bits and conversion mode is single sample 
  74:Generated_Source\PSoC5/ADC_DelSig_1_INT.c **** 			*/
  75:Generated_Source\PSoC5/ADC_DelSig_1_INT.c ****             ADC_DelSig_1_convDone = ADC_DelSig_1_DEC_CONV_DONE;
  76:Generated_Source\PSoC5/ADC_DelSig_1_INT.c ****         #endif /* Single sample conversion mode with resolution above 16 bits */
  77:Generated_Source\PSoC5/ADC_DelSig_1_INT.c **** 
  78:Generated_Source\PSoC5/ADC_DelSig_1_INT.c ****         #ifdef ADC_DelSig_1_ISR1_EXIT_CALLBACK
  79:Generated_Source\PSoC5/ADC_DelSig_1_INT.c ****             ADC_DelSig_1_ISR1_ExitCallback();
  80:Generated_Source\PSoC5/ADC_DelSig_1_INT.c ****         #endif /* ADC_DelSig_1_ISR1_EXIT_CALLBACK */
  81:Generated_Source\PSoC5/ADC_DelSig_1_INT.c ****     }
  82:Generated_Source\PSoC5/ADC_DelSig_1_INT.c **** 
  83:Generated_Source\PSoC5/ADC_DelSig_1_INT.c **** 
  84:Generated_Source\PSoC5/ADC_DelSig_1_INT.c ****     /*****************************************************************************
  85:Generated_Source\PSoC5/ADC_DelSig_1_INT.c ****     * Function Name: ADC_DelSig_1_ISR2
  86:Generated_Source\PSoC5/ADC_DelSig_1_INT.c ****     ******************************************************************************
  87:Generated_Source\PSoC5/ADC_DelSig_1_INT.c ****     *
  88:Generated_Source\PSoC5/ADC_DelSig_1_INT.c ****     * Summary:
  89:Generated_Source\PSoC5/ADC_DelSig_1_INT.c ****     *  Handle Interrupt Service Routine.
  90:Generated_Source\PSoC5/ADC_DelSig_1_INT.c ****     *
  91:Generated_Source\PSoC5/ADC_DelSig_1_INT.c ****     * Parameters:
  92:Generated_Source\PSoC5/ADC_DelSig_1_INT.c ****     *  None
  93:Generated_Source\PSoC5/ADC_DelSig_1_INT.c ****     *
  94:Generated_Source\PSoC5/ADC_DelSig_1_INT.c ****     * Return:
  95:Generated_Source\PSoC5/ADC_DelSig_1_INT.c ****     *  None
  96:Generated_Source\PSoC5/ADC_DelSig_1_INT.c ****     *
  97:Generated_Source\PSoC5/ADC_DelSig_1_INT.c ****     * Reentrant:
  98:Generated_Source\PSoC5/ADC_DelSig_1_INT.c ****     *  No
  99:Generated_Source\PSoC5/ADC_DelSig_1_INT.c ****     *
 100:Generated_Source\PSoC5/ADC_DelSig_1_INT.c ****     *****************************************************************************/
 101:Generated_Source\PSoC5/ADC_DelSig_1_INT.c ****     CY_ISR( ADC_DelSig_1_ISR2)
 102:Generated_Source\PSoC5/ADC_DelSig_1_INT.c ****     {
 156              		.loc 1 102 0
 157              		.cfi_startproc
 158              		@ args = 0, pretend = 0, frame = 0
 159              		@ frame_needed = 0, uses_anonymous_args = 0
 160              		@ link register save eliminated.
 161 0000 7047     		bx	lr
 162              		.cfi_endproc
 163              	.LFE1:
 164              		.size	ADC_DelSig_1_ISR2, .-ADC_DelSig_1_ISR2
 165 0002 00BF     		.section	.text.ADC_DelSig_1_ISR3,"ax",%progbits
 166              		.align	2
 167              		.global	ADC_DelSig_1_ISR3
 168              		.thumb
 169              		.thumb_func
 170              		.type	ADC_DelSig_1_ISR3, %function
ARM GAS  C:\Users\Luggi\AppData\Local\Temp\cc4UX0hv.s 			page 11


 171              	ADC_DelSig_1_ISR3:
 172              	.LFB2:
 103:Generated_Source\PSoC5/ADC_DelSig_1_INT.c ****         #ifdef ADC_DelSig_1_ISR2_ENTRY_CALLBACK
 104:Generated_Source\PSoC5/ADC_DelSig_1_INT.c ****             ADC_DelSig_1_ISR2_EntryCallback();
 105:Generated_Source\PSoC5/ADC_DelSig_1_INT.c ****         #endif /* ADC_DelSig_1_ISR2_ENTRY_CALLBACK */
 106:Generated_Source\PSoC5/ADC_DelSig_1_INT.c ****         
 107:Generated_Source\PSoC5/ADC_DelSig_1_INT.c ****         
 108:Generated_Source\PSoC5/ADC_DelSig_1_INT.c ****         /***************************************************************************
 109:Generated_Source\PSoC5/ADC_DelSig_1_INT.c ****         *  Custom Code
 110:Generated_Source\PSoC5/ADC_DelSig_1_INT.c ****         *  - add user ISR code between the following #START and #END tags
 111:Generated_Source\PSoC5/ADC_DelSig_1_INT.c ****         **************************************************************************/
 112:Generated_Source\PSoC5/ADC_DelSig_1_INT.c ****         /* `#START MAIN_ADC_ISR2`  */
 113:Generated_Source\PSoC5/ADC_DelSig_1_INT.c **** 
 114:Generated_Source\PSoC5/ADC_DelSig_1_INT.c ****         /* `#END`  */
 115:Generated_Source\PSoC5/ADC_DelSig_1_INT.c **** 
 116:Generated_Source\PSoC5/ADC_DelSig_1_INT.c ****         /* Stop the conversion conversion mode is single sample and resolution
 117:Generated_Source\PSoC5/ADC_DelSig_1_INT.c ****         *  is above 16 bits.
 118:Generated_Source\PSoC5/ADC_DelSig_1_INT.c ****         */
 119:Generated_Source\PSoC5/ADC_DelSig_1_INT.c ****         #if(ADC_DelSig_1_CFG2_RESOLUTION > 16 && \
 120:Generated_Source\PSoC5/ADC_DelSig_1_INT.c ****             ADC_DelSig_1_CFG2_CONVMODE == ADC_DelSig_1_MODE_SINGLE_SAMPLE)
 121:Generated_Source\PSoC5/ADC_DelSig_1_INT.c ****             ADC_DelSig_1_StopConvert();
 122:Generated_Source\PSoC5/ADC_DelSig_1_INT.c ****             /* Software flag for checking conversion complete or not. Will be used when
 123:Generated_Source\PSoC5/ADC_DelSig_1_INT.c ****             *   resolution is above 16 bits and conversion mode is single sample 
 124:Generated_Source\PSoC5/ADC_DelSig_1_INT.c **** 			*/
 125:Generated_Source\PSoC5/ADC_DelSig_1_INT.c ****             ADC_DelSig_1_convDone = ADC_DelSig_1_DEC_CONV_DONE;
 126:Generated_Source\PSoC5/ADC_DelSig_1_INT.c ****         #endif /* Single sample conversion mode with resolution above 16 bits */
 127:Generated_Source\PSoC5/ADC_DelSig_1_INT.c **** 
 128:Generated_Source\PSoC5/ADC_DelSig_1_INT.c ****         #ifdef ADC_DelSig_1_ISR2_EXIT_CALLBACK
 129:Generated_Source\PSoC5/ADC_DelSig_1_INT.c ****             ADC_DelSig_1_ISR2_ExitCallback();
 130:Generated_Source\PSoC5/ADC_DelSig_1_INT.c ****         #endif /* ADC_DelSig_1_ISR2_EXIT_CALLBACK */
 131:Generated_Source\PSoC5/ADC_DelSig_1_INT.c ****     }
 132:Generated_Source\PSoC5/ADC_DelSig_1_INT.c **** 
 133:Generated_Source\PSoC5/ADC_DelSig_1_INT.c **** 
 134:Generated_Source\PSoC5/ADC_DelSig_1_INT.c ****     /*****************************************************************************
 135:Generated_Source\PSoC5/ADC_DelSig_1_INT.c ****     * Function Name: ADC_DelSig_1_ISR3
 136:Generated_Source\PSoC5/ADC_DelSig_1_INT.c ****     ******************************************************************************
 137:Generated_Source\PSoC5/ADC_DelSig_1_INT.c ****     *
 138:Generated_Source\PSoC5/ADC_DelSig_1_INT.c ****     * Summary:
 139:Generated_Source\PSoC5/ADC_DelSig_1_INT.c ****     *  Handle Interrupt Service Routine.
 140:Generated_Source\PSoC5/ADC_DelSig_1_INT.c ****     *
 141:Generated_Source\PSoC5/ADC_DelSig_1_INT.c ****     * Parameters:
 142:Generated_Source\PSoC5/ADC_DelSig_1_INT.c ****     *  None
 143:Generated_Source\PSoC5/ADC_DelSig_1_INT.c ****     *
 144:Generated_Source\PSoC5/ADC_DelSig_1_INT.c ****     * Return:
 145:Generated_Source\PSoC5/ADC_DelSig_1_INT.c ****     *  None
 146:Generated_Source\PSoC5/ADC_DelSig_1_INT.c ****     *
 147:Generated_Source\PSoC5/ADC_DelSig_1_INT.c ****     * Reentrant:
 148:Generated_Source\PSoC5/ADC_DelSig_1_INT.c ****     *  No
 149:Generated_Source\PSoC5/ADC_DelSig_1_INT.c ****     *
 150:Generated_Source\PSoC5/ADC_DelSig_1_INT.c ****     *****************************************************************************/
 151:Generated_Source\PSoC5/ADC_DelSig_1_INT.c ****     CY_ISR( ADC_DelSig_1_ISR3)
 152:Generated_Source\PSoC5/ADC_DelSig_1_INT.c ****     {
 173              		.loc 1 152 0
 174              		.cfi_startproc
 175              		@ args = 0, pretend = 0, frame = 0
 176              		@ frame_needed = 0, uses_anonymous_args = 0
 177              		@ link register save eliminated.
ARM GAS  C:\Users\Luggi\AppData\Local\Temp\cc4UX0hv.s 			page 12


 178 0000 7047     		bx	lr
 179              		.cfi_endproc
 180              	.LFE2:
 181              		.size	ADC_DelSig_1_ISR3, .-ADC_DelSig_1_ISR3
 182 0002 00BF     		.section	.text.ADC_DelSig_1_ISR4,"ax",%progbits
 183              		.align	2
 184              		.global	ADC_DelSig_1_ISR4
 185              		.thumb
 186              		.thumb_func
 187              		.type	ADC_DelSig_1_ISR4, %function
 188              	ADC_DelSig_1_ISR4:
 189              	.LFB3:
 153:Generated_Source\PSoC5/ADC_DelSig_1_INT.c ****         #ifdef ADC_DelSig_1_ISR3_ENTRY_CALLBACK
 154:Generated_Source\PSoC5/ADC_DelSig_1_INT.c ****             ADC_DelSig_1_ISR3_EntryCallback();
 155:Generated_Source\PSoC5/ADC_DelSig_1_INT.c ****         #endif /* ADC_DelSig_1_ISR3_ENTRY_CALLBACK */        
 156:Generated_Source\PSoC5/ADC_DelSig_1_INT.c **** 
 157:Generated_Source\PSoC5/ADC_DelSig_1_INT.c ****         
 158:Generated_Source\PSoC5/ADC_DelSig_1_INT.c ****         /***************************************************************************
 159:Generated_Source\PSoC5/ADC_DelSig_1_INT.c ****         *  Custom Code
 160:Generated_Source\PSoC5/ADC_DelSig_1_INT.c ****         *  - add user ISR code between the following #START and #END tags
 161:Generated_Source\PSoC5/ADC_DelSig_1_INT.c ****         **************************************************************************/
 162:Generated_Source\PSoC5/ADC_DelSig_1_INT.c ****         /* `#START MAIN_ADC_ISR3`  */
 163:Generated_Source\PSoC5/ADC_DelSig_1_INT.c **** 
 164:Generated_Source\PSoC5/ADC_DelSig_1_INT.c ****         /* `#END`  */
 165:Generated_Source\PSoC5/ADC_DelSig_1_INT.c ****         
 166:Generated_Source\PSoC5/ADC_DelSig_1_INT.c ****         /* Stop the conversion if conversion mode is set to single sample and
 167:Generated_Source\PSoC5/ADC_DelSig_1_INT.c ****         *  resolution is above 16 bits.
 168:Generated_Source\PSoC5/ADC_DelSig_1_INT.c ****         */
 169:Generated_Source\PSoC5/ADC_DelSig_1_INT.c ****         #if(ADC_DelSig_1_CFG3_RESOLUTION > 16 && \
 170:Generated_Source\PSoC5/ADC_DelSig_1_INT.c ****             ADC_DelSig_1_CFG3_CONVMODE == ADC_DelSig_1_MODE_SINGLE_SAMPLE)
 171:Generated_Source\PSoC5/ADC_DelSig_1_INT.c ****             ADC_DelSig_1_StopConvert();
 172:Generated_Source\PSoC5/ADC_DelSig_1_INT.c ****             /* Software flag for checking conversion complete or not. Will be used when
 173:Generated_Source\PSoC5/ADC_DelSig_1_INT.c ****             *  resolution is above 16 bits and conversion mode is single sample 
 174:Generated_Source\PSoC5/ADC_DelSig_1_INT.c **** 			*/
 175:Generated_Source\PSoC5/ADC_DelSig_1_INT.c ****             ADC_DelSig_1_convDone = ADC_DelSig_1_DEC_CONV_DONE;
 176:Generated_Source\PSoC5/ADC_DelSig_1_INT.c ****         #endif /* Single sample conversion mode with resolution above 16 bits */
 177:Generated_Source\PSoC5/ADC_DelSig_1_INT.c **** 
 178:Generated_Source\PSoC5/ADC_DelSig_1_INT.c ****         #ifdef ADC_DelSig_1_ISR3_EXIT_CALLBACK
 179:Generated_Source\PSoC5/ADC_DelSig_1_INT.c ****             ADC_DelSig_1_ISR3_ExitCallback();
 180:Generated_Source\PSoC5/ADC_DelSig_1_INT.c ****         #endif /* ADC_DelSig_1_ISR3_EXIT_CALLBACK */        
 181:Generated_Source\PSoC5/ADC_DelSig_1_INT.c ****     }
 182:Generated_Source\PSoC5/ADC_DelSig_1_INT.c **** 
 183:Generated_Source\PSoC5/ADC_DelSig_1_INT.c **** 
 184:Generated_Source\PSoC5/ADC_DelSig_1_INT.c ****     /*****************************************************************************
 185:Generated_Source\PSoC5/ADC_DelSig_1_INT.c ****     * Function Name: ADC_DelSig_1_ISR4
 186:Generated_Source\PSoC5/ADC_DelSig_1_INT.c ****     ******************************************************************************
 187:Generated_Source\PSoC5/ADC_DelSig_1_INT.c ****     *
 188:Generated_Source\PSoC5/ADC_DelSig_1_INT.c ****     * Summary:
 189:Generated_Source\PSoC5/ADC_DelSig_1_INT.c ****     *  Handle Interrupt Service Routine.
 190:Generated_Source\PSoC5/ADC_DelSig_1_INT.c ****     *
 191:Generated_Source\PSoC5/ADC_DelSig_1_INT.c ****     * Parameters:
 192:Generated_Source\PSoC5/ADC_DelSig_1_INT.c ****     *  None
 193:Generated_Source\PSoC5/ADC_DelSig_1_INT.c ****     *
 194:Generated_Source\PSoC5/ADC_DelSig_1_INT.c ****     * Return:
 195:Generated_Source\PSoC5/ADC_DelSig_1_INT.c ****     *  None
 196:Generated_Source\PSoC5/ADC_DelSig_1_INT.c ****     *
 197:Generated_Source\PSoC5/ADC_DelSig_1_INT.c ****     * Reentrant:
ARM GAS  C:\Users\Luggi\AppData\Local\Temp\cc4UX0hv.s 			page 13


 198:Generated_Source\PSoC5/ADC_DelSig_1_INT.c ****     *  No
 199:Generated_Source\PSoC5/ADC_DelSig_1_INT.c ****     *
 200:Generated_Source\PSoC5/ADC_DelSig_1_INT.c ****     *****************************************************************************/
 201:Generated_Source\PSoC5/ADC_DelSig_1_INT.c ****     CY_ISR( ADC_DelSig_1_ISR4)
 202:Generated_Source\PSoC5/ADC_DelSig_1_INT.c ****     {
 190              		.loc 1 202 0
 191              		.cfi_startproc
 192              		@ args = 0, pretend = 0, frame = 0
 193              		@ frame_needed = 0, uses_anonymous_args = 0
 194              		@ link register save eliminated.
 195 0000 7047     		bx	lr
 196              		.cfi_endproc
 197              	.LFE3:
 198              		.size	ADC_DelSig_1_ISR4, .-ADC_DelSig_1_ISR4
 199 0002 00BF     		.text
 200              	.Letext0: