ARM GAS  C:\Users\Luggi\AppData\Local\Temp\ccFSd0uD.s 			page 1


   1              		.syntax unified
   2              		.cpu cortex-m3
   3              		.fpu softvfp
   4              		.eabi_attribute 20, 1
   5              		.eabi_attribute 21, 1
   6              		.eabi_attribute 23, 3
   7              		.eabi_attribute 24, 1
   8              		.eabi_attribute 25, 1
   9              		.eabi_attribute 26, 1
  10              		.eabi_attribute 30, 1
  11              		.eabi_attribute 34, 1
  12              		.eabi_attribute 18, 4
  13              		.thumb
  14              		.file	"ADC_SAR_1_IRQ.c"
  15              		.text
  16              	.Ltext0:
  17              		.section	.gnu.lto_.profile.53c7a86b,"",%progbits
  18 0000 789C6366 		.ascii	"x\234cf```e\200\000F\206\311\214:\000\002q\000\312"
  18      60606065 
  18      80004686 
  18      C98C3A00 
  18      027100CA 
  19              		.text
  20              		.section	.gnu.lto_.inline.53c7a86b,"",%progbits
  21 0000 789C858E 		.ascii	"x\234\205\216\315\015\200 \014F?\240\340\177<zt\001"
  21      CD0D8020 
  21      0C463FA0 
  21      E07F3C7A 
  21      7401
  22 0012 CF1E1DC1 		.ascii	"\317\036\035\301\331\034\301Q\034\301\221l!!jM\344\320"
  22      D91CC151 
  22      1CC1916C 
  22      21216A4D 
  22      E4D0
  23 0024 368F07FD 		.ascii	"6\217\007\375\034\276\317lR\357\000g\015,\217a\037\245"
  23      1CBECF6C 
  23      52EF0067 
  23      0D2C8F61 
  23      1FA5
  24 0036 C1C01313 		.ascii	"\301\300\023\023\332\307\214\254FN\220a\231\337\237"
  24      DAC78CAC 
  24      464E9061 
  24      99DF9F
  25 0045 7DC23C90 		.ascii	"}\302<\220\334\221\326=\3101\312\252\354C\021\030\225"
  25      DC91D63D 
  25      C831CAAA 
  25      EC431118 
  25      95
  26 0056 C79251A1 		.ascii	"\307\222Q\241\255\022\325\364\312WK\242F\202\246\032"
  26      AD12D5F4 
  26      CA574BA2 
  26      4682A61A 
  27 0066 41F5EB6D 		.ascii	"A\365\353mk$5\302\360\024o\277\264:@\247\021.\001\316"
  27      6B2435C2 
  27      F0146FBF 
  27      B43A40A7 
  27      112E01CE 
ARM GAS  C:\Users\Luggi\AppData\Local\Temp\ccFSd0uD.s 			page 2


  28 007a 15AA     		.ascii	"\025\252"
  29              		.text
  30              		.section	.gnu.lto_.jmpfuncs.53c7a86b,"",%progbits
  31 0000 789C6366 		.ascii	"x\234cf\300\016&Bi^ f\004\202z&\006\006f\020\315\302"
  31      C00E2642 
  31      695E2066 
  31      04827A26 
  31      06066610 
  32 0016 C0C0CAC0 		.ascii	"\300\300\312\300\300\306\300\300\316\300\300\001\222"
  32      C0C6C0C0 
  32      CEC0C001 
  32      92
  33 0023 64FAC8C4 		.ascii	"d\372\310\304\370}\361\203\327\214/\230~2\001E\031\227"
  33      F87DF183 
  33      D78C2F98 
  33      7E320145 
  33      1997
  34 0035 334A4144 		.ascii	"3JAD\347]\356[\307T\373\273\241\243\201\343'\023\343"
  34      E75DEE5B 
  34      C754FBBB 
  34      A1A381E3 
  34      2713E3
  35 0048 672690EA 		.ascii	"g&\220\352\025\214\265\014\014\234 \023\201j J\231\313"
  35      158CB50C 
  35      0C9C2013 
  35      816A204A 
  35      99CB
  36 005a 1980525C 		.ascii	"\031\200R\\\014\33051\002\305W\2024\361@\034\003\000"
  36      0CD83531 
  36      02C55782 
  36      34F1401C 
  36      0300
  37 006c 01121DD7 		.ascii	"\001\022\035\327"
  38              		.text
  39              		.section	.gnu.lto_.pureconst.53c7a86b,"",%progbits
  40 0000 789C6366 		.ascii	"x\234cf``\220f\200\000^\006\006F)&Vf)\026)V)6)v)\016"
  40      60609066 
  40      80005E06 
  40      06462926 
  40      56662916 
  41 001c 094E092E 		.ascii	"\011N\011.\011\036)^)\000\025G\001\231"
  41      091E295E 
  41      29001547 
  41      0199
  42              		.text
  43              		.section	.gnu.lto_ADC_SAR_1_IRQ_Interrupt.53c7a86b,"",%progbits
  44 0000 789C6366 		.ascii	"x\234cf\300\004R@\\\002\304\232@\314\310\314\300\310"
  44      C0045240 
  44      5C02C49A 
  44      40CCC8CC 
  44      C0C8
  45 0012 34E11C03 		.ascii	"4\341\034\003C#\007\023##\210\301\300\310P\317\304X"
  45      43230713 
  45      232388C1 
  45      C0C850CF 
  45      C458
  46 0024 CFF892E9 		.ascii	"\317\370\222\351#\023\343\204\003\253gp\253/mhh\370"
ARM GAS  C:\Users\Luggi\AppData\Local\Temp\ccFSd0uD.s 			page 3


  46      2313E384 
  46      03AB6770 
  46      AB2F6D68 
  46      68F8
  47 0036 D07493A5 		.ascii	"\320t\223\245U\342'\023\003\303g&\2101\214\313\031\325"
  47      55E22713 
  47      03C36726 
  47      88318CCB 
  47      19D5
  48 0048 19806A3E 		.ascii	"\031\200j>\266\374\275\316\315\326\002T#\000\221c\\"
  48      B6FCBDCE 
  48      CDD60254 
  48      23009163 
  48      5C
  49 0059 C1C8C608 		.ascii	"\301\310\306\010\244\327\013\035h\370\377\377\362\223"
  49      A4D70B1D 
  49      68F8FFFF 
  49      F293
  50 0067 435BB881 		.ascii	"C[\270\201\302O\200\030d\376S&&\020\315|\217\221\021"
  50      C24F8018 
  50      64FE5326 
  50      2610CD7C 
  50      8F9111
  51 007a A41064D2 		.ascii	"\244\020d\322\023&F\220\020P\201\272{j^jQbIjJ|p~iQr"
  51      13264690 
  51      105081BA 
  51      7B6A5E6A 
  51      5162496A 
  52 0095 6A4C4070 		.ascii	"jL@p\276\263i\214\243\213s|\260cP\274a\274gP\240^2\003"
  52      BEB3698C 
  52      A38B737C 
  52      B06350BC 
  52      61BC6750 
  53 00ad 0079A336 		.ascii	"\000y\2436j"
  53      6A
  54              		.text
  55              		.section	.gnu.lto_ADC_SAR_1_IRQ_SetVector.53c7a86b,"",%progbits
  56 0000 789C6550 		.ascii	"x\234ePMH\224Q\024\275\347\276\317I\232A\242\225\314"
  56      4D489451 
  56      14BDE7BE 
  56      CF499A41 
  56      A295CC
  57 0013 A64064A0 		.ascii	"\246@d\240@\250h\257(D\233('\242@\030\246\231oW\015"
  57      40A868AF 
  57      28449B28 
  57      27A24018 
  57      A6996F57 
  58 0028 7CDADA37 		.ascii	"|\332\3327\323\204Z\213D#$q!\021\375LiN\264\260M\037"
  58      D3845A8B 
  58      44232471 
  58      2111FD4C 
  58      694EB4B0 
  59 003e D162A01F 		.ascii	"\321b\240\037\011\262\314\240\214&\231\0122\031Qf\021"
  59      09B2CCA0 
  59      8C26990A 
  59      32195166 
  59      11
ARM GAS  C:\Users\Luggi\AppData\Local\Temp\ccFSd0uD.s 			page 4


  60 004f D3BDDFB4 		.ascii	"\323\275\337\264\211\036<\336\273\207{\316=\367\030"
  60      891E3CDE 
  60      BB877BCE 
  60      3DF718
  61 005e FAFF44E5 		.ascii	"\372\377D\345\226@\324)/\014\201G_\021e\233\031\320"
  61      9640D429 
  61      2F0C8147 
  61      5F11659B 
  61      19D0
  62 0070 0F810619 		.ascii	"\017\201\006\031\203\370\306\353\214Q\2770\021\216\335"
  62      83F8C6EB 
  62      8C51BF30 
  62      118EDD
  63 007f B4D6FECA 		.ascii	"\264\326\376\312U[/\266\326\230\250\312\015\031\334"
  63      555B2FB6 
  63      D698A8CA 
  63      0D19DC
  64 008e 424C5B7E 		.ascii	"BL[~\274\277\0221{@\362\237\237\331x\031\256p\215\261"
  64      BCBF1231 
  64      7B40F29F 
  64      9FD97819 
  64      AE708DB1 
  65 00a2 5BCBC763 		.ascii	"[\313\307c\245\211\220\226\354h\371}d\361\251i\277a"
  65      A5899096 
  65      EC68F97D 
  65      64F1A969 
  65      BF61
  66 00b4 6DCEFF50 		.ascii	"m\316\377P\264\235N\215\015n\303\210\036\356 \212\273"
  66      B49D4E8D 
  66      0D6EC388 
  66      1EEE208A 
  66      BB
  67 00c5 88924084 		.ascii	"\210\222@\204\002\332\265\375\321\347J\3011\373\003"
  67      02DAB5FD 
  67      D1E74AC1 
  67      31FB03
  68 00d4 E1B5C2F4 		.ascii	"\341\265\302\364\242\3236-\324\225\353C\317#\266d\363"
  68      A2D3362D 
  68      D495EB43 
  68      CF23B664 
  68      F3
  69 00e5 2BF5FAAE 		.ascii	"+\365\372\256\032;\270\367\257B\343\010e=\377\373]8"
  69      1A3BB8F7 
  69      AF42E308 
  69      653DFFFB 
  69      5D38
  70 00f7 9417EB3B 		.ascii	"\224\027\353;p\037m\015\333\230AH6\207\"\263;}[\257"
  70      701F6D0D 
  70      DB984148 
  70      368722B3 
  70      3B7D5BAF 
  71 010b 575F8C57 		.ascii	"W_\214Wb\246I\024\0042\010\206SYz5\213\257\314\372\232"
  71      62A64914 
  71      04320886 
  71      53597A35 
  71      8BAFCCFA 
  72 0120 65E4362F 		.ascii	"e\3446/\255\316\237T\372\026k0\305g\227\207XWk\032^"
ARM GAS  C:\Users\Luggi\AppData\Local\Temp\ccFSd0uD.s 			page 5


  72      ADCE9F54 
  72      FA166B30 
  72      C5679787 
  72      58576B1A 
  73 0135 BE605B74 		.ascii	"\276`[t\340\247\362\302\353\346\000\012\346\277\371"
  73      E0A7F2C2 
  73      EBE6000A 
  73      E6BFF9
  74 0144 32F23332 		.ascii	"2\36232\205\311\254\265~\207\032\235\025\207\017\324"
  74      85C9ACB5 
  74      7E871A9D 
  74      15870FD4 
  75 0154 21E63005 		.ascii	"!\3460\005z\213\234=\025\370\221\301\"J2\344\332\334"
  75      7A8B9C3D 
  75      15F891C1 
  75      224A32E4 
  75      DADC
  76 0166 C2F801C5 		.ascii	"\302\370\001\305\204\27746y5\010\317\351Q\271\325\245"
  76      84BF3436 
  76      793508CF 
  76      E951B9D5 
  76      A5
  77 0177 8DB5ED7F 		.ascii	"\215\265\355\177\345\366JL\302@1P{(j[\222\333Gd\375"
  77      E5F64A4C 
  77      C2403150 
  77      7B286A5B 
  77      92DB4764 
  78 018c 274794AD 		.ascii	"'G\224\255\011\224\031j]\026\211\035r\317\271^r\300"
  78      0994196A 
  78      5D16891D 
  78      72CFB95E 
  78      72C0
  79 019e 4D27E299 		.ascii	"M'\342\231\363^\312\355;\032\317t\037\354\353\352\351"
  79      F35ECAED 
  79      3B1ACF74 
  79      1FECEBEA 
  79      E9
  80 01af 4EC4BB7A 		.ascii	"N\304\273z\023\373\022\207{\217u\244h[2\235\366\334"
  80      13FB1287 
  80      7B8F75A4 
  80      685B329D 
  80      F6DC
  81 01c1 FEFE162F 		.ascii	"\376\376\026/y\366\204\233\032\310x\307\223\247\317"
  81      79F6849B 
  81      1AC878C7 
  81      93A7CF
  82 01d0 B87F0005 		.ascii	"\270\177\000\005\034\270\261"
  82      1CB8B1
  83              		.text
  84              		.section	.gnu.lto_ADC_SAR_1_IRQ_GetVector.53c7a86b,"",%progbits
  85 0000 789C6550 		.ascii	"x\234eP?H\233A\024\177\277\273\217\020\215H\351\230"
  85      3F489B41 
  85      147FBFBB 
  85      8F108D48 
  85      E998
  86 0012 452143C0 		.ascii	"E!C\300!P\212\3205\030\220nj\244\264 \2044\375\266\326"
  86      21508AD0 
ARM GAS  C:\Users\Luggi\AppData\Local\Temp\ccFSd0uD.s 			page 6


  86      3518906E 
  86      6AA4B420 
  86      8434FDB6 
  87 0027 4050E896 		.ascii	"@P\350\226K\032\260\352\"\306A\021\241\031\212\326\250"
  87      4B1AB0EA 
  87      22C64111 
  87      A1198AD6 
  87      A8
  88 0038 A9428716 		.ascii	"\251B\207\026\007\207\016\322RE\260\2118X\305\030\342"
  88      07870ED2 
  88      5245B089 
  88      3858C518 
  88      E2
  89 0049 52158325 		.ascii	"R\025\203%\203\244\357}\272\210\007\307\275\367\356"
  89      83A4EF7D 
  89      BA8807C7 
  89      BDF7EE
  90 0058 7EFF4ED3 		.ascii	"~\377N\323\375\345\345\235\005\321\023>\241\011jb\213"
  90      FDE5E59D 
  90      05D1133E 
  90      A1096A62 
  90      8B
  91 0069 28E55680 		.ascii	"(\345V\200\024\004J*$q\252.\024\276\256\324~y\252\252"
  91      14044A2A 
  91      2471AA2E 
  91      14BEAED4 
  91      7E79AAAA 
  92 007d AEA89DB8 		.ascii	"\256\250\235\270\3756\2719\355\222\026\226\264\245\342"
  92      FD36B939 
  92      ED921696 
  92      B4A5E2
  93 008c 74A9C9FF 		.ascii	"t\251\311\377\321\230\364y\272\376vf\352\003\337(\272"
  93      D198F479 
  93      BAFE7666 
  93      EA03DF28 
  93      BA
  94 009d 54847978 		.ascii	"T\204yx\261\000\021\302'\370\345\355\227\243j\336\322"
  94      B10011C2 
  94      27F8E5ED 
  94      97A36ADE 
  94      D2
  95 00ae 1D90FA2C 		.ascii	"\035\220\372,\237\373m\371r\214;\3741\362\263\305l\232"
  95      9FFB6DF9 
  95      728C3BFC 
  95      31F2B3C5 
  95      6C9A
  96 00c0 CC61A3D1 		.ascii	"\314a\243\321VW\032\213\320w\361\262\030r\221\271.y"
  96      56571A8B 
  96      D077F1B2 
  96      187291B9 
  96      2E79
  97 00d2 5C1963CC 		.ascii	"\\\031c\314\003\344\341\023\021\346^\202\213s@&\205"
  97      03E4E113 
  97      11E65E82 
  97      8B734026 
  97      85
  98 00e3 871BA6D1 		.ascii	"\207\033\246\321\270,g\253\217\265\305\014<\322$v\250"
ARM GAS  C:\Users\Luggi\AppData\Local\Temp\ccFSd0uD.s 			page 7


  98      B82C67AB 
  98      8FB5C50C 
  98      3CD22476 
  98      A8
  99 00f4 CC5B829D 		.ascii	"\314[\202\235p\303\247\336G\372j\254\262\376\\\320\377"
  99      70C3A7DE 
  99      47FA6AAC 
  99      B2FE5CD0 
  99      FF
 100 0105 94A45CFB 		.ascii	"\224\244\\\373>>\242$\226\365~\377\235i\025\275?\345"
 100      3E3EA224 
 100      96F57EFF 
 100      9D6915BD 
 100      3FE5
 101 0117 ED1DB733 		.ascii	"\355\035\2673r\344w\217G\377\266\314a6e\314F@|.\263"
 101      72E4778F 
 101      47FFB6CC 
 101      613665CC 
 101      46407C2E 
 102 012c C1153188 		.ascii	"\301\0251\210\002\346@E\244\315\013\307\016\3532)9\""
 102      02E64045 
 102      A4CD0BC7 
 102      0EEB3229 
 102      3922
 103 013e 57EBCD37 		.ascii	"W\353\3157\"\232)\366&g\247\234\277\323!a\254\354\325"
 103      229A29F6 
 103      2667A79C 
 103      BFD32161 
 103      ACECD5
 104 0151 CE9A6F18 		.ascii	"\316\232o\030\335l\2231\370\354\360\255\012\337\001"
 104      DD6C9331 
 104      F8ECF0AD 
 104      0ADF01
 105 0160 708B2409 		.ascii	"p\213$\011\0001\3161\374\335\366\240\235\210\016\331"
 105      0031CE31 
 105      FCDDF6A0 
 105      9D880ED9 
 106 0170 AF22E1F8 		.ascii	"\257\"\341\370p\"f\017\364\204\343]\235\003\301PW$\034"
 106      7022660F 
 106      F484E35D 
 106      9D03C150 
 106      57241C
 107 0183 EC8B3C8A 		.ascii	"\354\213<\212<\355\353\015\304\2505\021}\363\314\216"
 107      3CEDEB0D 
 107      C4A83511 
 107      7DF3CC8E 
 108 0193 0DC513FD 		.ascii	"\015\305\023\375\321\227\257\355\377\252\037\244E"
 108      D197AFED 
 108      FFAA1FA4 
 108      45
 109              		.text
 110              		.section	.gnu.lto_ADC_SAR_1_IRQ_SetPriority.53c7a86b,"",%progbits
 111 0000 789C6590 		.ascii	"x\234e\220?HBQ\024\306\317w\237\212`D4\325[C\244\210"
 111      3F484251 
 111      14C6CF77 
 111      9F8A6044 
 111      34D55B43 
ARM GAS  C:\Users\Luggi\AppData\Local\Temp\ccFSd0uD.s 			page 8


 112 0016 A0A03D31 		.ascii	"\240\240=1\210\266\322U\2200\007\227\214\207\015-\371"
 112      88B6D255 
 112      90300797 
 112      8C870D2D 
 112      F9
 113 0027 5EBEA2AD 		.ascii	"^\276\242\255?4\004\"DQY\226mAS\217 \260\305\210\002"
 113      3F340422 
 113      44515996 
 113      6D41538F 
 113      20B0C588 
 114 003c 41C20A2C 		.ascii	"A\302\012,\252!\022\0071\010;7\307.\034\316\271\367"
 114      AA211207 
 114      31083B37 
 114      C72E1CCE 
 114      B9F7
 115 004e 7CE777BF 		.ascii	"|\347w\277{\025\372\277T\216!pp\206B\020k\005\"\303"
 115      7B15FABF 
 115      548E2170 
 115      70864210 
 115      6B0522C3 
 116 0062 29005910 		.ascii	")\000Y\020(!\220\300\273\250\012\254Y\331-\227gO\327"
 116      282190C0 
 116      BBA80AAC 
 116      59D92D97 
 116      674FD7
 117 0075 F5AF9DF5 		.ascii	"\365\257\235\365\356\245\256\206 \252\211\026\006\007"
 117      EEA5AE86 
 117      20AA8916 
 117      0607
 118 0083 F0B064FF 		.ascii	"\360\260d\377\342\371\334\256\364\201\270.\032\331\247"
 118      E2F9DCAE 
 118      F481B82E 
 118      1AD9A7
 119 0092 36F7AEAE 		.ascii	"6\367\256\256/Z\205\234>\202\00633Px\002\375*zU\342"
 119      2F5A859C 
 119      3E820633 
 119      33507802 
 119      FD2A7A55 
 120 00a7 03C221DC 		.ascii	"\003\302!\334R\\5\177\212.\207\311\354\216\026\023G"
 120      525C357F 
 120      8A2E87C9 
 120      EC8E1613 
 120      47
 121 00b8 70B02D3A 		.ascii	"p\260-:\355\264\364f\263v\265\231\351\261\331\001\251"
 121      EDB4F466 
 121      B376B599 
 121      E9B1D901 
 121      A9
 122 00c9 173CC992 		.ascii	"\027<\311\222\012\207\364\370\302\033\316J\011\311\207"
 122      0A87F4F8 
 122      C21BCE4A 
 122      09C987
 123 00d8 E5D7FC82 		.ascii	"\345\327\374\202\234\254\013Qg\250\300\252yVv\274\211"
 123      9CAC0B51 
 123      67A8C0AA 
 123      795676BC 
 123      89
ARM GAS  C:\Users\Luggi\AppData\Local\Temp\ccFSd0uD.s 			page 9


 124 00e9 8650EC84 		.ascii	"\206P\354\204,T*\341r\003R\302\315\273\355\317k!\233"
 124      2C542AE1 
 124      720352C2 
 124      CDBBEDCF 
 124      6B219B
 125 00fc 36239FD4 		.ascii	"6#\237\324\333\245\217\307\312\315\255\363\357\210\344"
 125      DBA58FC7 
 125      CACDADF3 
 125      EF88E4
 126 010b 76E5E3FB 		.ascii	"v\345\343\373\336\221F\3120\015\313\316\020\034C\305"
 126      DE9146CA 
 126      300DCBCE 
 126      101C43C5 
 127 011b 09630839 		.ascii	"\011c\0109\244\301\327P\031\206\225\362K\242\374\207"
 127      A4C1D750 
 127      198695F2 
 127      4BA2FC87 
 128 012b 0ABF89CD 		.ascii	"\012\277\211\315\2605\317Xd&\242M\305#\323\241@lN\013"
 128      B035CF58 
 128      6426A24D 
 128      C523D3A1 
 128      406C4E0B 
 129 013f 47821381 		.ascii	"G\202\023\201\230o8\350\035\365\205\002^\177h04\356"
 129      986F38E8 
 129      1DF58502 
 129      5E7F6830 
 129      34EE
 130 0151 9F1C0893 		.ascii	"\237\034\010\223sV\213\306\264h|\376\027\355\352{\341"
 130      73568BC6 
 130      B4687CFE 
 130      17EDEA7B 
 130      E1
 131              		.text
 132              		.section	.gnu.lto_ADC_SAR_1_IRQ_GetPriority.53c7a86b,"",%progbits
 133 0000 789C658F 		.ascii	"x\234e\217\317+\303q\030\307\237\367\363\235\265\032"
 133      CF2BC371 
 133      18C79FF7 
 133      F39DB51A 
 134 0010 92937671 		.ascii	"\222\223vq\330a\221\224\225?`M\311m\254\234VK\263\303"
 134      D8619194 
 134      953F604D 
 134      C96DAC9C 
 134      564BB3C3 
 135 0024 2EA6C5C1 		.ascii	".\246\305\301i\237\375\240\345\344\240\250\2458\370"
 135      699FFDA0 
 135      E5E4A0A8 
 135      A538F8
 136 0033 FDEB6C0E 		.ascii	"\375\353l\016\226\203\210\210\211Z\014E!-k\242)\276"
 136      96838888 
 136      895A0C45 
 136      212D6BA2 
 136      29BE
 137 0045 3E9FCD41 		.ascii	">\237\315Ay\352\323\363\364\364~\277\237\327G\243\377"
 137      79EAD3F3 
 137      F4F47EBF 
 137      9FD747A3 
 137      FF
ARM GAS  C:\Users\Luggi\AppData\Local\Temp\ccFSd0uD.s 			page 10


 138 0056 6591AF17 		.ascii	"e\221\257\027Dv\331\241\021x\342\230(bb@\015\004\012"
 138      4476D9A1 
 138      1178E298 
 138      28626240 
 138      0D040A
 139 0069 33C278E2 		.ascii	"3\302x\342\002\343h\353;\003\333\274\020\321\327\350"
 139      02E368EB 
 139      3B03DBBC 
 139      10D1D7E8 
 140 0079 D4B579B4 		.ascii	"\324\265y\264\241\304DE&\264X\320\244r\260\010\033I"
 140      A1C44445 
 140      26B458D0 
 140      A472B008 
 140      1B49
 141 008b E1C2CEDD 		.ascii	"\341\302\316\335V\225\326\0145o\246\267\237k\254s\322"
 141      5695D60C 
 141      356FA6B7 
 141      9F6BAC73 
 141      D2
 142 009c 749B7ADA 		.ascii	"t\233z\3323\213i\021\277\325\365Fi\305\022\264\277n"
 142      338B6911 
 142      BFD5F546 
 142      69C512B4 
 142      BF6E
 143 00ae 55D25088 		.ascii	"U\322P\210\177]\232\215q!D\035\226aU\007d\362\012\214"
 143      7F5D9A8D 
 143      7121441D 
 143      96615507 
 143      64F20A8C 
 144 00c2 12126AB3 		.ascii	"\022\022j\263Y\237\026\272^\274\232L\330\015\006\246"
 144      599F16BA 
 144      5EBC9A4C 
 144      D80D06A6 
 145 00d2 122B6CA5 		.ascii	"\022+l\245\244{)U\324\017\314\252kY\354\276\217\347"
 145      A47B2955 
 145      D40FCCAA 
 145      6B59ECBE 
 145      8FE7
 146 00e4 0F5DCAFD 		.ascii	"\017]\312\375\301\352\013\231\331\374\001?r\2119\262"
 146      C1EA0B99 
 146      D9FC013F 
 146      728939B2 
 147 00f4 1F13B5EA 		.ascii	"\037\023\265\352\336\315\375\311\251\251\274*\237O<"
 147      DECDFDC9 
 147      A9A9BC2A 
 147      9F4F3C
 148 0103 7F9E1B67 		.ascii	"\177\236\033g\220\214\304Qb\015\253\260`\015\022\017"
 148      908CC451 
 148      620DABB0 
 148      600D120F 
 149 0113 EB980165 		.ascii	"\353\230\001e\021\313\215\275\241\022\250U2_2\311T\265"
 149      11CB8DBD 
 149      A112A855 
 149      325F32C9 
 149      54B5
 150 0125 0A305411 		.ascii	"\0120T\0216\244\366\002\\\346\225LRD9D\322\372\031\377"
 150      36A4F602 
ARM GAS  C:\Users\Luggi\AppData\Local\Temp\ccFSd0uD.s 			page 11


 150      5CE6954C 
 150      52443944 
 150      D2FA19FF 
 151 0139 7A486142 		.ascii	"zHaB\341\311{\266N\377\200?\3247\344\357\367\272\203"
 151      E1C97BB6 
 151      4EFF803F 
 151      D437E4EF 
 151      F7BA83
 152 014c C3219FDF 		.ascii	"\303!\237\337\343r\007\235\355\036G\207\323\353v\364"
 152      E372079D 
 152      ED1E4787 
 152      D3EB76F4 
 153 015c 78DBBC5D 		.ascii	"x\333\274]=\335\255>2\015\206\002\301P`h\344\007z+\211"
 153      3DDDAD3E 
 153      320D8602 
 153      C1506068 
 153      E4077A2B 
 154 0171 96       		.ascii	"\226"
 155              		.text
 156              		.section	.gnu.lto_ADC_SAR_1_IRQ_Enable.53c7a86b,"",%progbits
 157 0000 789C6366 		.ascii	"x\234cf\300\004R@|\007\2105\201\230\221\231\201\221"
 157      C0045240 
 157      7C078835 
 157      81989199 
 157      8191
 158 0012 69C23906 		.ascii	"i\3029\006\206F\016&FF\020\203\201\221\241\236\211\261"
 158      86460E26 
 158      46461083 
 158      8191A19E 
 158      89B1
 159 0024 9EF125D3 		.ascii	"\236\361%\323G&\306\011\007V\317\340V_\332\320\320\360"
 159      4726C609 
 159      0756CFE0 
 159      565FDAD0 
 159      D0F0
 160 0036 61D35CC9 		.ascii	"a\323\\\311V\211\237L\014\014\237\231 \3060.gTg\000"
 160      56899F4C 
 160      0C0C9F99 
 160      20C6302E 
 160      67546700 
 161 004a AAF9D8F2 		.ascii	"\252\371\330\362\367:7[\013P\215\000D\216q\005#\033"
 161      F73A375B 
 161      0B508D00 
 161      448E7105 
 161      231B
 162 005c 23905E2F 		.ascii	"#\220^/t\240\341\377\377\315\337\246\274\260faf`x\002"
 162      74A0E1FF 
 162      FFCDDFA6 
 162      BCB06661 
 162      66607802 
 163 0070 940359F0 		.ascii	"\224\003Y\360\224\211\011D3\337b<\364a\303\367\026N"
 163      94890944 
 163      33DF623C 
 163      F461C3F7 
 163      164E
 164 0082 9072A031 		.ascii	"\220r\2401\237^7\314ey\301\364\223\211\261\341Ps\003"
 164      9F5E37CC 
ARM GAS  C:\Users\Luggi\AppData\Local\Temp\ccFSd0uD.s 			page 12


 164      6579C1F4 
 164      9389B1E1 
 164      507303
 165 0095 1FC8E4FB 		.ascii	"\037\310\344\373O\316_\344\000\0131\200\270_>-\232\304"
 165      4FCE5FE4 
 165      000B3180 
 165      B85F3E2D 
 165      9AC4
 166 00a7 3B977176 		.ascii	";\227qvcK\343\001\326\237LL\214+\031\245\030W1\002\275"
 166      634BE301 
 166      D69F4C4C 
 166      8C2B19A5 
 166      18573102 
 167 00bc C3B89A71 		.ascii	"\303\270\232q.#P\305\371\007\207\373y@\032\200V0\256"
 167      2E2350C5 
 167      F90787FB 
 167      79401A80 
 167      5630AE
 168 00cf 01CADC63 		.ascii	"\001\312\334cl<p?\030d\003\310\305O\200\006\001m\006"
 168      6C3C703F 
 168      186403C8 
 168      C54F8006 
 168      016D06
 169 00e2 BA43DD3D 		.ascii	"\272C\335=5/\265(\261$5%>8\277\264(95& 8\337\3314\306"
 169      352FB528 
 169      B1243525 
 169      3E38BFB4 
 169      28393526 
 170 00fc D1C5393E 		.ascii	"\321\3059>\3301(\3360\3363(P/\231\001\000\267a_\177"
 170      D83128DE 
 170      30DE3328 
 170      502F9901 
 170      00B7615F 
 171              		.text
 172              		.section	.gnu.lto_ADC_SAR_1_IRQ_GetState.53c7a86b,"",%progbits
 173 0000 789C6550 		.ascii	"x\234eP=H\202Q\024\275\347\276\317\222\354\217\206\210"
 173      3D488251 
 173      14BDE7BE 
 173      CF92EC8F 
 173      8688
 174 0012 6F681521 		.ascii	"oh\025!\212\210\266\226(\210\266\312U\2200\327\004\251"
 174      8A88B696 
 174      2888B6CA 
 174      559030D7 
 174      04A9
 175 0024 D9675A44 		.ascii	"\331gZD4D\320R\270\004\331\177\016MQC8K!\031Q\220-\032"
 175      3444D052 
 175      B804D97F 
 175      0E4D5143 
 175      384B2119 
 176 003c 454B7F54 		.ascii	"EK\177T\016\375\334\247-\321\203\367\356{\367\236s\356"
 176      0EFDDCA7 
 176      2DD183F7 
 176      EE7BF79E 
 176      73EE
 177 004e 7957D1FF 		.ascii	"yW\321\377\325%;\000\"\217D8\010\274pB\024u2[G\255\244"
 177      D5253B00 
ARM GAS  C:\Users\Luggi\AppData\Local\Temp\ccFSd0uD.s 			page 13


 177      228F4438 
 177      08BC7042 
 177      1475325B 
 178 0065 6B54AE83 		.ascii	"kT\256\203t\255\202UI[\200\271\020(\302\312B\004\367"
 178      74AD8255 
 178      495B80B9 
 178      1028C2CA 
 178      4204F7
 179 0078 FCC4C81C 		.ascii	"\374\304\310\034|\235\301\275\246\365\324\343\324\376"
 179      7C9DC1BD 
 179      A6F5D4E3 
 179      D4FE
 180 0086 B56BBAA5 		.ascii	"\265k\272\245\304D/Lh\263\341\261\015|\035n\022\340"
 180      C4442F4C 
 180      68B3E1B1 
 180      0D7C1D6E 
 180      12E0
 181 0098 53FCF3C2 		.ascii	"S\374\363\302U\025\327Z7\232\272\0246P%\315)\325t\254"
 181      5515D75A 
 181      379ABA14 
 181      365025CD 
 181      29D574AC 
 182 00ac BFBF5F32 		.ascii	"\277\277_2K\263n\207\003$|%\007,s\020\025\004j\332\026"
 182      4BB36E87 
 182      03247C25 
 182      072C7310 
 182      15046ADA 
 183 00c1 994D5457 		.ascii	"\231MTWH\277\315\345/{\014\373\235\225\010??\350\204"
 183      48BFCDE5 
 183      2F7B0CFB 
 183      9D95083F 
 183      3FE884
 184 00d4 75C72566 		.ascii	"u\307%f\235\216\351z\323\353\246p\232u\226Sd\236\257"
 184      9D8EE97A 
 184      D3EBA670 
 184      9A759653 
 184      649EAF
 185 00e7 CFAB8B75 		.ascii	"\317\253\213u\011\254D\343(\261\302&llA\274a\033\011"
 185      09AC44E3 
 185      28B1C226 
 185      6C6C41BC 
 185      611B09
 186 00fa D015621F 		.ascii	"\320\025b\0373\031GE\320\252h._\024_\225\021\200\374"
 186      33194745 
 186      D0AA682E 
 186      5F145F95 
 186      1180FC
 187 010d 6447B0E7 		.ascii	"dG\260\347\210_\306\232\1771\002\210&\017\347\253\313"
 187      885FC69A 
 187      7F310288 
 187      260FE7AB 
 187      CB
 188 011e 0091D935 		.ascii	"\000\221\3315bd\274*\312u\250\"[e\253y\240B\020\314"
 188      6264BC2A 
 188      CA75A822 
 188      5B65AB79 
 188      A04210CC 
ARM GAS  C:\Users\Luggi\AppData\Local\Temp\ccFSd0uD.s 			page 14


 189 0132 2D20ACEC 		.ascii	"- \254\354r2\326`X2D\354\301\346?f\315LR\260\225\021"
 189      7232D660 
 189      583244EC 
 189      C1E63F66 
 189      CD4C52B0 
 190 0148 8251908C 		.ascii	"\202Q\220\214{ 8\036\014\217N\004\307\374\336\320d8"
 190      7B20381E 
 190      0C8F4E04 
 190      C7FCDED0 
 190      6438
 191 015a 10F40D79 		.ascii	"\020\364\015yC}\335\276\336\376>\277\267w\304\337\351"
 191      437DDDBE 
 191      DEFE3EBF 
 191      B777C4DF 
 191      E9
 192 016b 1F1C196E 		.ascii	"\037\034\031n\017\320\017\316\016\212\351"
 192      0FD00FCE 
 192      0E8AE9
 193              		.text
 194              		.section	.gnu.lto_ADC_SAR_1_IRQ_Disable.53c7a86b,"",%progbits
 195 0000 789C6366 		.ascii	"x\234cf\300\004R@|\007\2105\201\230\221\231\201\221"
 195      C0045240 
 195      7C078835 
 195      81989199 
 195      8191
 196 0012 69C23906 		.ascii	"i\3029\006\206F\016&FF\020\203\201\221\241\236\211\261"
 196      86460E26 
 196      46461083 
 196      8191A19E 
 196      89B1
 197 0024 9EF125D3 		.ascii	"\236\361%\323G&\306\011\007V\317\340V_\332\320\320\360"
 197      4726C609 
 197      0756CFE0 
 197      565FDAD0 
 197      D0F0
 198 0036 E1D276C9 		.ascii	"\341\322v\311V\211\237L\014\014\237\231 \3060.gTg\000"
 198      56899F4C 
 198      0C0C9F99 
 198      20C6302E 
 198      67546700 
 199 004a AAF9D8F2 		.ascii	"\252\371\330\362\367:7[\013P\215\000D\216q\005#\033"
 199      F73A375B 
 199      0B508D00 
 199      448E7105 
 199      231B
 200 005c 23905E2F 		.ascii	"#\220^/t\240\341\377\377\315\367\247\2560bef`x\002\224"
 200      74A0E1FF 
 200      FFCDF7A7 
 200      AE306265 
 200      66607802 
 201 0071 0359F094 		.ascii	"\003Y\360\224\211\011D3\337b<\364a\303\223VN\220r\240"
 201      89094433 
 201      DF623CF4 
 201      61C39356 
 201      4E9072A0 
 202 0085 3113DFB7 		.ascii	"1\023\337\267\237\345z\301\364\223\211\261\341ps\003"
 202      9FE57AC1 
ARM GAS  C:\Users\Luggi\AppData\Local\Temp\ccFSd0uD.s 			page 15


 202      F49389B1 
 202      E1707303 
 203 0095 1FC8E4FB 		.ascii	"\037\310\344\373O\316_\344\000\0131\200\270\027[\032"
 203      4FCE5FE4 
 203      000B3180 
 203      B8175B1A 
 204 00a5 FEB2CE65 		.ascii	"\376\262\316e\234\335\330\322x\200\365'\023\023\343"
 204      9CDDD8D2 
 204      7880F527 
 204      1313E3
 205 00b4 4A4629C6 		.ascii	"JF)\306U\214@\3570\256f\234\313\010Tq\376\301\341~\036"
 205      558C40EF 
 205      30AE669C 
 205      CB085471 
 205      FEC1E17E 
 206 00c9 9006A015 		.ascii	"\220\006\240\025\214k\2002\367\030\033\017L\016\007"
 206      8C6B8032 
 206      F7181B0F 
 206      4C0E07
 207 00d8 D90072F1 		.ascii	"\331\000r\361\023\240A@\233\201\356PwO\315K-J,IM\211"
 207      13A04140 
 207      9B81EE50 
 207      774FCD4B 
 207      2D4A2C49 
 208 00ee 0FCE2F2D 		.ascii	"\017\316/-JN\215\011\010\316w6\215qtq\216\017v\014\212"
 208      4A4E8D09 
 208      08CE7736 
 208      8D717471 
 208      8E0F760C 
 209 0103 378CF70C 		.ascii	"7\214\367\014\012\324Kf\000\000W\025^\222"
 209      0AD44B66 
 209      00005715 
 209      5E92
 210              		.text
 211              		.section	.gnu.lto_ADC_SAR_1_IRQ_Start.53c7a86b,"",%progbits
 212 0000 789C6D8F 		.ascii	"x\234m\217=K\303P\024\206\317{b\323B\027q\354\037\010"
 212      3D4BC350 
 212      1486CF7B 
 212      62D34217 
 212      71EC1F08 
 213 0014 2E82833F 		.ascii	".\202\203?\240T\024'k\263\026\202\324\254\026\212\216"
 213      A0541427 
 213      6BB31682 
 213      D4AC168A 
 213      8E
 214 0025 A137D8C1 		.ascii	"\2417\330\301I\352\"\016\342\"\342G\265\202\037\263"
 214      49EA220E 
 214      E222E247 
 214      B5821FB3 
 215 0035 717154D0 		.ascii	"qqT\320\301\245\210\203\202\342b\311 A\244\236\2338"
 215      C1A58883 
 215      82E262C9 
 215      2041A49E 
 215      9B38
 216 0047 08E6C2E5 		.ascii	"\010\346\302\345^x\237\363\234s\014\372\177\012rgA4"
 216      5E789FF3 
 216      9C730CFA 
ARM GAS  C:\Users\Luggi\AppData\Local\Temp\ccFSd0uD.s 			page 16


 216      7F0A7267 
 216      4134
 217 0059 2A2F0C02 		.ascii	"*/\014\002\267o\210\374\034\003\372C\240&\243\2117\356"
 217      B76F88FC 
 217      1C03FA43 
 217      A026A389 
 217      37EE
 218 006b 33DA4167 		.ascii	"3\332Ag3o\355*\245>\356n\375r\200\210\211BN<\330\203"
 218      336FED2A 
 218      A53EEE6E 
 218      FD728088 
 218      89424E3C 
 219 0081 4502F55B 		.ascii	"E\002\365[\337\017y\263%\320p\222a\037\246\370\351d"
 219      DF0F79B3 
 219      25D07092 
 219      611FA6F8 
 219      E964
 220 0093 245083C1 		.ascii	"$P\203\301\331\345\325\271i\022=K\244\033\2740\353\327"
 220      D9E5D5B9 
 220      69123D4B 
 220      A41BBC30 
 220      EBD7
 221 00a5 E8612558 		.ascii	"\350a%X\277f\015k\313\366\375Z\227\275/\265\252r\021"
 221      BF660D6B 
 221      CBF6FD5A 
 221      97BD2FB5 
 221      AA7211
 222 00b8 236411E0 		.ascii	"#d\021\340\000\036E\202\367\320\0126\314T\322\010%'"
 222      001E4582 
 222      F7D00A36 
 222      CC54D208 
 222      2527
 223 00ca 1C0AF927 		.ascii	"\034\012\371'J\024F\\\201\016\274\210\207b\311V\272"
 223      4A14465C 
 223      810EBC88 
 223      8762C956 
 223      BA
 224 00db 24134A4E 		.ascii	"$\023JN8J$\237;O\357x\345\210\315,\341\030\205\210\263"
 224      384A249F 
 224      3B4FEF78 
 224      E588CD2C 
 224      E1188588 
 225 00f0 A4873D4D 		.ascii	"\244\207=M/\226F\031)\356\376\316\372\010?\270\230\212"
 225      2F964619 
 225      29EEFECE 
 225      FA083FB8 
 225      988A
 226 0102 49D24B43 		.ascii	"I\322KC/+#Z\323\356\242\333\230_r\027\034\273\276\334"
 226      2F2B235A 
 226      D3EEA2DB 
 226      985F7217 
 226      1CBBBEDC 
 227 0116 A8B9D5B2 		.ascii	"\250\271\325\262]/MT\213\223%\307.V\234qg\24627V\243"
 227      5D2F4D54 
 227      8B9325C7 
 227      2E569C71 
 227      67A63237 
ARM GAS  C:\Users\Luggi\AppData\Local\Temp\ccFSd0uD.s 			page 17


 228 012c 1FAAE283 		.ascii	"\037\252\342\203\256"
 228      AE
 229              		.text
 230              		.section	.gnu.lto_ADC_SAR_1_IRQ_StartEx.53c7a86b,"",%progbits
 231 0000 789C6D8F 		.ascii	"x\234m\217M(DQ\024\307\317\377\3341o\030\013YiV6\232"
 231      4D284451 
 231      14C7CFFF 
 231      DC316F18 
 231      0B596956 
 232 0016 B250B3B0 		.ascii	"\262P\263\260\262!Jv\230\255\232d\336\226\032,'\027"
 232      B2214A76 
 232      98AD9A64 
 232      DE961A2C 
 232      2717
 233 0028 A3D8F82A 		.ascii	"\243\330\370*5+\233I\206a|l\344c\361\262a\303\202\204"
 233      352B9B49 
 233      86617C6C 
 233      E463F1B2 
 233      61C38284 
 234 003c 481694AF 		.ascii	"H\026\224\257\005=\245\227\304\271\303\316\334\272\235"
 234      053DA597 
 234      C4B9C3CE 
 234      DCBA9D
 235 004b 73EEFD9D 		.ascii	"s\356\375\235\377\371\037E\377OH\356\034\210\"\022\241"
 235      FFF91F45 
 235      FF4F48EE 
 235      1C882212 
 235      A1
 236 005c 083C7D4C 		.ascii	"\010<}L4\034`\300$\004\032b\014\341\221\337\030\323"
 236      341C60C0 
 236      24041A62 
 236      0CE191DF 
 236      18D3
 237 006e 4E2E1D0C 		.ascii	"N.\035\014/h\255_Gv\253\306\252<&r\371W\006\213\010"
 237      2F68AD5F 
 237      4776ABC6 
 237      AA3C2672 
 237      F957068B 
 238 0083 1BE4F972 		.ascii	"\033\344\371r\252\\\325\202$\337\316\277\037\005\037"
 238      AA5CD582 
 238      24DFCEBF 
 238      1F051F
 239 0092 D863549B 		.ascii	"\330cT\233rg\3660\3557%\373L\3714q\266\257j2Z\2178\227"
 239      7267F630 
 239      ED3725FB 
 239      4CF93471 
 239      B6AF6A32 
 240 00aa 9BBAD1E7 		.ascii	"\233\272\321\347\261B\026J\364\260\204\020\226\021\""
 240      B142164A 
 240      F4B08410 
 240      961122
 241 00b9 7922E450 		.ascii	"y\"\344Pc\360\267\324\327y\320\237\222\331\025\2773"
 241      63F0B7D4 
 241      D779D09F 
 241      92D915BF 
 241      33
 242 00ca B102BFD8 		.ascii	"\261\002\277\330\246\265JG\177\177\273/3\331\006X\012"
ARM GAS  C:\Users\Luggi\AppData\Local\Temp\ccFSd0uD.s 			page 18


 242      A6B54A47 
 242      7F7FBB2F 
 242      33D90658 
 242      0A
 243 00db 059EEE84 		.ascii	"\005\236\356\2040\366\357\231MT\327\030u\266\016\330"
 243      30F6EF99 
 243      4D54D718 
 243      75B60ED8 
 244 00eb F418B1F9 		.ascii	"\364\030\261\371\323\311<'?\365\270\016x\354sYt\260"
 244      D3C93C27 
 244      3FF5B80E 
 244      78EC7359 
 244      74B0
 245 00fd 8AA40C2C 		.ascii	"\212\244\014,\241k\244\234=\253(\351wE\216\220\027\362"
 245      A16BA49C 
 245      3DAB28E9 
 245      77458E90 
 245      17F2
 246 010f 8395C756 		.ascii	"\203\225\307V\001>)\016\007\\qOX\023X\276>2\267\317"
 246      013E290E 
 246      075C714F 
 246      581358BE 
 246      3E32B7CF 
 247 0123 30CB975A 		.ascii	"0\313\227Z\204u\204<.#c\352\242x\263x\362I\363\306\237"
 247      8475843C 
 247      2E2363EA 
 247      A278B378 
 247      F249F3C6 
 248 0138 A71B0C3B 		.ascii	"\247\033\014;W\255\005\222\314r0K\211\225p\253\335k"
 248      57AD0592 
 248      CC72304B 
 248      899570AB 
 248      DD6B
 249 014a 27BA07EC 		.ascii	"'\272\007\354x,\3327\230\350\261\273\332\243}\315\365"
 249      782CDA37 
 249      98E8B1BB 
 249      DAA37DCD 
 249      F5
 250 015b 5D4D2DCD 		.ascii	"]M-\315\261hSg,\022k\353\354\250\353!\253;\036O\330"
 250      B1685367 
 250      2C126BEB 
 250      ECA8EB21 
 250      AB3B1E4F 
 251 0170 FDFD3FE4 		.ascii	"\375\375?\344\265\236\252"
 251      B59EAA
 252              		.text
 253              		.section	.gnu.lto_ADC_SAR_1_IRQ_Stop.53c7a86b,"",%progbits
 254 0000 789C6366 		.ascii	"x\234cf\300\004R@\374\002\2105\201\230\221\231\201\221"
 254      C0045240 
 254      FC028835 
 254      81989199 
 254      8191
 255 0012 69C23906 		.ascii	"i\3029\006\206F\016&FF\020\203\201\221\241\236\211\261"
 255      86460E26 
 255      46461083 
 255      8191A19E 
 255      89B1
ARM GAS  C:\Users\Luggi\AppData\Local\Temp\ccFSd0uD.s 			page 19


 256 0024 9EF125D3 		.ascii	"\236\361%\323G&\306\011\007V\317\340V_\332\320\320\360"
 256      4726C609 
 256      0756CFE0 
 256      565FDAD0 
 256      D0F0
 257 0036 E1D14589 		.ascii	"\341\321E\211V\211\237L\014\014\237\231 \3060.gTg\000"
 257      56899F4C 
 257      0C0C9F99 
 257      20C6302E 
 257      67546700 
 258 004a AAF9D8F2 		.ascii	"\252\371\330\362\367:7[\013P\215\000D\216q\005#\033"
 258      F73A375B 
 258      0B508D00 
 258      448E7105 
 258      231B
 259 005c 23905E2F 		.ascii	"#\220^/t\240\341\377\377\317\307'\255Pgba`x\002\224"
 259      74A0E1FF 
 259      FFCFC727 
 259      AD506762 
 259      61607802 
 260 0071 0359F094 		.ascii	"\003Y\360\224\211\011D3\337al>\260\371\024\023H5\310"
 260      89094433 
 260      DF616C3E 
 260      B0F91413 
 260      4835C8
 261 0084 987997FB 		.ascii	"\230y\227\373\3261\325\376n\350h\340\370\311\304\370"
 261      D631D5FE 
 261      6EE868E0 
 261      F8C9C4F8 
 262 0094 99096802 		.ascii	"\231\011h\002\343J\306Z\206\237@\345w\030[\016\354\340"
 262      E34AC65A 
 262      869F40E5 
 262      77185B0E 
 262      ECE0
 263 00a6 C2AA92F9 		.ascii	"\302\252\222\3713P\236\201q\025P%\222\024\304\010f\260"
 263      33509E81 
 263      71155025 
 263      9214C408 
 263      66B0
 264 00b8 0EC6D58C 		.ascii	"\016\306\325\214\265?\201\016\270\307\330x`\267\027"
 264      B53F810E 
 264      B8C7D878 
 264      60B717
 265 00c7 588801E4 		.ascii	"X\210\001\344\032F\220+\200z\325\335S\363R\213\022K"
 265      1A46902B 
 265      807AD5DD 
 265      53F3528B 
 265      124B
 266 00d9 5253E283 		.ascii	"RS\342\203\363K\213\222Sc\002\202\363\235Mc\034]\234"
 266      F34B8B92 
 266      53630282 
 266      F39D4D63 
 266      1C5D9C
 267 00ec E3831D83 		.ascii	"\343\203\035\203\342\015\343=\203\002\365\222\031\000"
 267      E20DE33D 
 267      8302F592 
 267      1900
ARM GAS  C:\Users\Luggi\AppData\Local\Temp\ccFSd0uD.s 			page 20


 268 00fa 95006053 		.ascii	"\225\000`S"
 269              		.text
 270              		.section	.gnu.lto_ADC_SAR_1_IRQ_SetPending.53c7a86b,"",%progbits
 271 0000 789C6366 		.ascii	"x\234cf\300\004R@|\007\2105\201\230\221\231\201\221"
 271      C0045240 
 271      7C078835 
 271      81989199 
 271      8191
 272 0012 69C23906 		.ascii	"i\3029\006\206F\016&FF\020\203\201\221\241\236\211\261"
 272      86460E26 
 272      46461083 
 272      8191A19E 
 272      89B1
 273 0024 9EF125D3 		.ascii	"\236\361%\323G&\306\011\007V\317\340V_\332\320\320\360"
 273      4726C609 
 273      0756CFE0 
 273      565FDAD0 
 273      D0F0
 274 0036 A169BF64 		.ascii	"\241i\277d\253\304O&\006\206\317L\020c\030\2273\252"
 274      ABC44F26 
 274      0686CF4C 
 274      10631897 
 274      33AA
 275 0048 3300D57C 		.ascii	"3\000\325|l\371{\235\233\255\005\250F\000\"\307\270"
 275      6CF97B9D 
 275      9BAD05A8 
 275      460022C7 
 275      B8
 276 0059 82918D11 		.ascii	"\202\221\215\021H\257\027:\320\360\377\377\347?S_\330"
 276      48AF173A 
 276      D0F0FFFF 
 276      E73F535F 
 276      D8
 277 006a B1323330 		.ascii	"\261230<\001\312\201,x\312\304\004\242\231o1\036\372"
 277      3C01CA81 
 277      2C78CAC4 
 277      04A2996F 
 277      311EFA
 278 007d B0E16F2B 		.ascii	"\260\341o+'H9\320\230-\267\326>\344x\301\364\223\211"
 278      274839D0 
 278      982DB7D6 
 278      3EE478C1 
 278      F49389
 279 0090 B1E14873 		.ascii	"\261\341Hs\003\037\310\344\373O\316_\204\0101\200\270"
 279      031FC8E4 
 279      FB4FCE5F 
 279      84083180 
 279      B8
 280 00a1 539B677D 		.ascii	"S\233g}\344\230\3138\273\261\245\361\000\353O&&\306"
 280      E498CB38 
 280      BBB1A5F1 
 280      00EB4F26 
 280      26C6
 281 00b3 958C528C 		.ascii	"\225\214R\214\253\030\201\336a\\\3158\227\021\250\342"
 281      AB1881DE 
 281      615CCD38 
 281      9711A8E2 
ARM GAS  C:\Users\Luggi\AppData\Local\Temp\ccFSd0uD.s 			page 21


 282 00c3 FC83C3FD 		.ascii	"\374\203\303\375< \015@+\030\327\000e\35616\036\370"
 282      3C200D40 
 282      2B18D700 
 282      65EE3136 
 282      1EF8
 283 00d5 1E0EB201 		.ascii	"\036\016\262\001\344\342'@\203\2006\003\335\241\356"
 283      E4E22740 
 283      83803603 
 283      DDA1EE
 284 00e4 9E9A975A 		.ascii	"\236\232\227Z\224X\222\232\022\037\234_Z\224\234\032"
 284      9458929A 
 284      121F9C5F 
 284      5A949C1A 
 285 00f4 13109CEF 		.ascii	"\023\020\234\357l\032\343\350\342\034\037\354\030\024"
 285      6C1AE3E8 
 285      E21C1FEC 
 285      1814
 286 0102 6F18EF19 		.ascii	"o\030\357\031\024\250\227\314\000\000\311\322_\213"
 286      14A897CC 
 286      0000C9D2 
 286      5F8B
 287              		.text
 288              		.section	.gnu.lto_ADC_SAR_1_IRQ_ClearPending.53c7a86b,"",%progbits
 289 0000 789C6366 		.ascii	"x\234cf\300\004R@|\007\2105\201\230\221\231\201\221"
 289      C0045240 
 289      7C078835 
 289      81989199 
 289      8191
 290 0012 69C23906 		.ascii	"i\3029\006\206F\016&FF\020\203\201\221\241\236\211\261"
 290      86460E26 
 290      46461083 
 290      8191A19E 
 290      89B1
 291 0024 9EF125D3 		.ascii	"\236\361%\323G&\306\011\007V\317\340V_\332\320\320\360"
 291      4726C609 
 291      0756CFE0 
 291      565FDAD0 
 291      D0F0
 292 0036 61D255C9 		.ascii	"a\322U\311V\211\237L\014\014\237\231 \3060.gTg\000\252"
 292      56899F4C 
 292      0C0C9F99 
 292      20C6302E 
 292      67546700 
 293 004b F9D8F2F7 		.ascii	"\371\330\362\367:7[\013P\215\000D\216q\005#\033#\220"
 293      3A375B0B 
 293      508D0044 
 293      8E710523 
 293      1B2390
 294 005e 5E2F74A0 		.ascii	"^/t\240\341\377\377\315W\247uh\263130<\001\312\201,"
 294      E1FFFFCD 
 294      57A77568 
 294      B3313330 
 294      3C01CA81 
 295 0073 78CAC404 		.ascii	"x\312\304\004\242\231o1\036\372\360\341j\033'H9\320"
 295      A2996F31 
 295      1EFAF0E1 
 295      6A1B2748 
ARM GAS  C:\Users\Luggi\AppData\Local\Temp\ccFSd0uD.s 			page 22


 295      39D0
 296 0085 98BE4973 		.ascii	"\230\276Is[y_0\375dbl8\332\334\300\0072\371\376\223"
 296      5B795F30 
 296      FD64626C 
 296      38DADCC0 
 296      0732F9FE 
 297 009a F31739C0 		.ascii	"\363\0279\300B\014 \356\234\216\031\273\331\3472\316"
 297      420C20EE 
 297      9C8E19BB 
 297      D9E732CE 
 298 00aa 6E6C693C 		.ascii	"nli<\300\372\223\211\211q%\243\024\343*F\240w\030W3"
 298      C0FA9389 
 298      897125A3 
 298      14E32A46 
 298      A0771857 
 299 00bf CE6504AA 		.ascii	"\316e\004\2528\377\340p?\017H\003\320\012\3065@\231"
 299      38FFE070 
 299      3F0F4803 
 299      D00AC635 
 299      4099
 300 00d1 7B8C8D07 		.ascii	"{\214\215\007nF\201l\000\271\370\011\320 \240\315@w"
 300      6E46816C 
 300      00B9F809 
 300      D020A0CD 
 300      4077
 301 00e3 A8BBA7E6 		.ascii	"\250\273\247\346\245\026%\226\244\246\304\007\347\227"
 301      A5162596 
 301      A4A6C407 
 301      E797
 302 00f1 1625A7C6 		.ascii	"\026%\247\306\004\004\347;\233\3068\2728\307\007;\006"
 302      0404E73B 
 302      9BC638BA 
 302      38C7073B 
 302      06
 303 0102 C51BC67B 		.ascii	"\305\033\306{\006\005\352%3\000\000\313\365]\326"
 303      0605EA25 
 303      330000CB 
 303      F55DD6
 304              		.text
 305              		.section	.gnu.lto_.symbol_nodes.53c7a86b,"",%progbits
 306 0000 789C55CA 		.ascii	"x\234U\312\301\015\3020\014\205\341\347\270i\342\264"
 306      C10DC230 
 306      0C85E1E7 
 306      B869E2B4 
 307 0010 1D86095F 		.ascii	"\035\206\011_\305\211#'\316\210\023s0\0003\000\203 "
 307      C5892327 
 307      CE881373 
 307      30003300 
 307      8320
 308 0022 A22642B5 		.ascii	"\242&B\265/O\237~+\200\203\240]P\002\347'@\342r\317"
 308      2F4F9F7E 
 308      2B8083A0 
 308      5D5002E7 
 308      2740E272 
 309 0037 0803C3DF 		.ascii	"\010\003\303\337\327\352Hu\03698'F\347\314\321\331\230"
 309      D7EA4875 
 309      1E393827 
ARM GAS  C:\Users\Luggi\AppData\Local\Temp\ccFSd0uD.s 			page 23


 309      46E7CCD1 
 309      D998
 310 0049 9C0BB333 		.ascii	"\234\013\2633h\316\302\342\0348\355-\013\245\031\353"
 310      68CEC2E2 
 310      1C38ED2D 
 310      0BA519EB 
 311 0059 A9E689B3 		.ascii	"\251\346\211\263{\237\271\354\2559\341\366\372\212f"
 311      7B9FB9EC 
 311      AD39E1F6 
 311      FA8A66
 312 0068 C1635BC5 		.ascii	"\301c[\305g\333\210\343\273\256\365n\275[\357\326{\351"
 312      67DB88E3 
 312      BBAEF56E 
 312      BD5BEFD6 
 312      7BE9
 313 007a BDB48E1F 		.ascii	"\275\264\216\037\257\376T\012"
 313      AFFE540A 
 314              		.text
 315              		.section	.gnu.lto_.refs.53c7a86b,"",%progbits
 316 0000 789C6366 		.ascii	"x\234cf``\340f\200\000F\016&\006&F.&n&\006\000\002\015"
 316      6060E066 
 316      8000460E 
 316      26062646 
 316      2E266E26 
 317 0018 0036     		.ascii	"\0006"
 318              		.text
 319              		.section	.gnu.lto_.decls.53c7a86b,"",%progbits
 320 0000 789C8D56 		.ascii	"x\234\215V[L\024W\030\236\263gwe\227\225\332\213\250"
 320      5B4C1457 
 320      189EB367 
 320      77659795 
 320      DA8BA8
 321 0013 3CC10B4D 		.ascii	"<\301\013M\023cSM\023\337\252E\243\326\244\241\222\366"
 321      1363534D 
 321      13DFAA45 
 321      A3D6A4A1 
 321      92F6
 322 0025 45134A61 		.ascii	"E\023JajI\010\230eI\312\333\310zATJ\251V[\023%\012\225"
 322      6A490898 
 322      6549CADB 
 322      C87A4154 
 322      4AA9565B 
 323 003d AB2002C2 		.ascii	"\253 \002\302\"\272\240\270\273\256 (\367\205r\023A"
 323      22BAA0B8 
 323      BBAE2028 
 323      F7857213 
 323      41
 324 004e A98A16A9 		.ascii	"\251\212\026\251\267\272\375\31793\356\031\030\254\223"
 324      B7BAFDCF 
 324      3933EE19 
 324      18AC93
 325 005d FCBB3367 		.ascii	"\374\2733g\376\357\373\376\377;\227],\010\302\267X\020"
 325      FEEFFBFE 
 325      FF3B975D 
 325      2C08C2B7 
 325      5810
 326 006f FC70D507 		.ascii	"\374p\325\007\011B-\022\204\020\030\213\206\320A\204"
ARM GAS  C:\Users\Luggi\AppData\Local\Temp\ccFSd0uD.s 			page 24


 326      09422D12 
 326      8410188B 
 326      86D04184 
 327 007f 429408EC 		.ascii	"B\224\010\354\"\343e\020\345\0205\020u\020M\020\315"
 327      22E36510 
 327      E5103510 
 327      75104D10 
 327      CD
 328 0090 102E080F 		.ascii	"\020.\010\017\204\027\242\005\342\006D;\304-\210Na\356"
 328      8417A205 
 328      E206443B 
 328      C42D884E 
 328      61EE
 329 00a2 457890AC 		.ascii	"Ex\220\254#\310\367e\032yD\307(\347\021}\013D%D\027"
 329      23C8F765 
 329      1A7944C7 
 329      28E7117D 
 329      0B442544 
 330 00b7 443787AD 		.ascii	"D7\207\255\321\300\222\372\014\377\203\253\323\3005"
 330      D1C092FA 
 330      0CFF83AB 
 330      D3C035
 331 00c6 C938A2D9 		.ascii	"\3118\242\331 {\320\007\321\317\341\2324p\3152N\301"
 331      207BD007 
 331      D1CFE19A 
 331      3470CD32 
 331      4EC1
 332 00d8 F4CBB82F 		.ascii	"\364\313\270/8\\\263\006\216x\207e\275;\020c\\\276K"
 332      385CB306 
 332      8E788765 
 332      BD3B1063 
 332      5CBE4B
 333 00eb 239FF8AC 		.ascii	"#\237\370\254\227u\"40\036\015\214\367\015\032^\215"
 333      97752234 
 333      301E0D8C 
 333      F70D1A5E 
 333      8D
 334 00fc 7C328741 		.ascii	"|2\207Ar>\231\377\"\210q\210*\210\011\271?\247\234k"
 334      723E99FF 
 334      22887188 
 334      2A8809B9 
 334      3FA79C6B 
 335 0110 94F3090F 		.ascii	"\224\363\011\017\231\0072\217M\363\324N\326E\2600w>"
 335      9907328F 
 335      4DF3D44E 
 335      D645B030 
 335      773E
 336 0122 FF4FC320 		.ascii	"\377O\303 c\025\215\371\370\333\205\300\334\315\346"
 336      63158DF9 
 336      F8DB85C0 
 336      DCCDE6
 337 0131 24975ECE 		.ascii	"$\227^\316Qx\31258\310\232\235\317\253[\032\371\235"
 337      5178CA35 
 337      38C89A9D 
 337      CFAB5B1A 
 337      F99D
 338 0143 6FC8D75A 		.ascii	"o\310\327Z\373\217t\250\356\314tK\360\204\016\205\230"
ARM GAS  C:\Users\Luggi\AppData\Local\Temp\ccFSd0uD.s 			page 25


 338      FB8F74A8 
 338      EECC744B 
 338      F0840E85 
 338      98
 339 0154 C3C9A323 		.ascii	"\303\311\243#\327}\324\010\217\026\263\236<\326\277"
 339      D77DD408 
 339      8F16B39E 
 339      3CD6BF
 340 0163 18E9D02F 		.ascii	"\030\351\320/9,\301\225c\227\026\351Qt(:\215\302P!\012"
 340      392CC195 
 340      639716E9 
 340      5174283A 
 340      8DC25021 
 341 0178 03D622B4 		.ascii	"\003\326\"\264\004>\267\352\031\323\251\243\303\035"
 341      043EB7EA 
 341      19D3A9A3 
 341      C31D
 342 0186 E6E5C590 		.ascii	"\346\345\305\220\232)9\027\005\024\312g\332\212\203"
 342      9A293917 
 342      0514CA67 
 342      DA8A83
 343 0195 2D599294 		.ascii	"-Y\222\224A8L\033\011\214#)A\026T\214\226\013\354\026"
 343      41384C1B 
 343      098C2329 
 343      4116548C 
 343      960BEC16 
 344 01a9 F2F7FB0E 		.ascii	"\362\367\373\016\226\006c\023\"\330\201\207\225\276"
 344      96066313 
 344      22D88187 
 344      95BE
 345 01b7 85E1C7A5 		.ascii	"\205\341\307\245\251\212)O\316\346\337\244\274\014\351"
 345      A98A294F 
 345      CEE6DFA4 
 345      BC0CE9
 346 01c6 95DF8FA8 		.ascii	"\225\337\217\2504*EXF\012\344\236uZ\206\302\001\327"
 346      342A4558 
 346      460AE49E 
 346      755A86C2 
 346      01D7
 347 01d8 F94BBD1B 		.ascii	"\371K\275\033\343M\224\303'5\270C\200cH\312\353\255"
 347      E34D94C3 
 347      2735B843 
 347      806348CA 
 347      EBAD
 348 01ea 943EDF25 		.ascii	"\224>\337%\275\364\3731%8\303\021\234Q\010\312)A\235"
 348      BDF4FB31 
 348      2538C311 
 348      9C5108CA 
 348      29419D
 349 01fd BB7A04E1 		.ascii	"\273z\004\341\255\204@'=h;\026\204\"-\371\320\332T\317"
 349      AD844027 
 349      3D683B16 
 349      84222DF9 
 349      D0DA54CF 
 350 0211 E5714B99 		.ascii	"\345qK\231$\005\241J\250\273\3425\001\251\235u<O\243"
 350      2405A14A 
 350      A8BBE235 
ARM GAS  C:\Users\Luggi\AppData\Local\Temp\ccFSd0uD.s 			page 26


 350      01A99D75 
 350      3C4FA3
 351 0224 E82C8AE4 		.ascii	"\350,\212\344z\005\211\322\311\211\"\203\036\2166J\265"
 351      7A0589D2 
 351      C9892283 
 351      1E8E364A 
 351      B5
 352 0235 95FA3D3E 		.ascii	"\225\372=>\352xh\230\327\357*\352\3679$\033\356=\322"
 352      EA786898 
 352      D7EF2AEA 
 352      F739241B 
 352      EE3DD2
 353 0248 F9D884B3 		.ascii	"\371\330\204\263\020\355\262\360\237\003\036\332%8U"
 353      10EDB2F0 
 353      9F031EDA 
 353      253855
 354 0257 918D39AB 		.ascii	"\221\2159\253\000\205\252\271N\253\225Nkh\247#v\311"
 354      0085AAB9 
 354      4EAB954E 
 354      6B68A723 
 354      76C9
 355 0269 17CC4B92 		.ascii	"\027\314K\222j\002\232\347Us\354/~2\240\303'\231\344"
 355      6A029AE7 
 355      5573EC2F 
 355      7E32A0C3 
 355      2799E4
 356 027c C1E98E16 		.ascii	"\301\351\216\026\035H\346U\014\271].\213\344\226\234"
 356      1D48E655 
 356      0CB95D2E 
 356      8BE4969C 
 357 028c 7EFF6741 		.ascii	"~\377gA\004\202j9\301ZE\260\216\012v]\332\2737\010;"
 357      04826A39 
 357      C15A45B0 
 357      8E0A765D 
 357      DABB3708 
 358 02a1 18C7CE3F 		.ascii	"\030\307\316?\352\017,\200\365\026j\246\374\331\336"
 358      EA0F2C80 
 358      F5166AA6 
 358      FCD9DE
 359 02b0 DF1B317D 		.ascii	"\337\0331}\364S\353{{\017=\303\310\034\231IL\235\312"
 359      F453EB7B 
 359      7B0F3DC3 
 359      C81C9949 
 359      4C9DCA
 360 02c3 95F05201 		.ascii	"\225\360R\001-\017C\037\201\237\027\301\317P3\025A\365"
 360      2D0F431F 
 360      819F17C1 
 360      CF503315 
 360      41F5
 361 02d5 50EE0528 		.ascii	"P\356\005(W\236\241\342\315vi\015j@f\344\010L\020Q\220"
 361      579EA1E2 
 361      CD76690D 
 361      6A4066E4 
 361      084C1051 
 362 02ea 5764CEEE 		.ascii	"Wd\316\356\306\034=u\236\3440\347\237\370\207\013t\363"
 362      C61C3D75 
 362      9EE430E7 
ARM GAS  C:\Users\Luggi\AppData\Local\Temp\ccFSd0uD.s 			page 27


 362      9FF8870B 
 362      74F3
 363 02fc 3AEFA42E 		.ascii	":\357\244.\\R\234/\177\352\032\014\301N\326Bf\363#\237"
 363      5C529C2F 
 363      7FEA1A0C 
 363      C14ED642 
 363      66F3239F 
 364 0310 5976FE50 		.ascii	"Yv\376P.\357<\240P#gD\243bD\0235b\337\256\012\314+\222"
 364      2EEF3CA0 
 364      50236744 
 364      A3624413 
 364      3562DFAE 
 365 0328 62029297 		.ascii	"b\002\222\227U\306O\017df\353q\037S\254\351/|la\306"
 365      55C64F0F 
 365      6466EB71 
 365      1F53ACE9 
 365      2F7C6C61 
 366 033d D7DE159D 		.ascii	"\327\336\025\235lES\004\272\302\311]Q\344\232\251\334"
 366      6C455304 
 366      BAC2C95D 
 366      51E49AA9 
 366      DC
 367 034e 7DFB6387 		.ascii	"}\373c\207\016O3\212\256\326\252l\266\\\206&=\001\012"
 367      0E4F338A 
 367      AED6AA6C 
 367      B65C8626 
 367      3D010A
 368 0361 B262AF72 		.ascii	"\262b\257r\024W\025\012\027\245\350\270\370\363N3\336"
 368      1457150A 
 368      17A5E8B8 
 368      F8F34E33 
 368      DE
 369 0372 A7A3149E 		.ascii	"\247\243\024\236{\005v#\253\342\350\244\272\0127G\341"
 369      7B057623 
 369      ABE2E8A4 
 369      BA0A3747 
 369      E1
 370 0383 56283C94 		.ascii	"V(<\224\302q\362\302s\204\363\030\305\211\235\3453&"
 370      C271F2C2 
 370      7384F318 
 370      C5899DE5 
 370      3326
 371 0395 56458357 		.ascii	"VE\203W]\3055\216\342\232B\341\245\024\367nNT\033q\015"
 371      5DC5358E 
 371      E29A42E1 
 371      A514F76E 
 371      4E541B71 
 372 03aa A3B017DF 		.ascii	"\243\260\027\337\355f^\344\375[)\255\341v\367u\216\341"
 372      ED665EE4 
 372      FD5B29AD 
 372      E176F775 
 372      8EE1
 373 03bc BAC2D042 		.ascii	"\272\302\320B\031\372\237\377\005K\360\032c\370uzp\217"
 373      19FA9FFF 
 373      054BF01A 
 373      63F8757A 
 373      708F
ARM GAS  C:\Users\Luggi\AppData\Local\Temp\ccFSd0uD.s 			page 28


 374 03ce 8131F49C 		.ascii	"\2011\364\2342\262EL7M+G\320\252\020\334\240\004\371"
 374      32B2454C 
 374      374D2B47 
 374      D0AA10DC 
 374      A004F9
 375 03e1 8E074F4C 		.ascii	"\216\007OLx\210\021L\237j\03153\202\354\002\205\200"
 375      7888114C 
 375      9F6A1935 
 375      3382EC02 
 375      8580
 376 03f3 54D0C611 		.ascii	"T\320\306\021\264)\004\355\224\240\250\252`\322\200"
 376      B42904ED 
 376      94A0A8AA 
 376      60D280
 377 0402 FF660485 		.ascii	"\377f\004\205E\245\333\031\376i\011\217\277\311\341"
 377      45A5DB19 
 377      FE69098F 
 377      BFC9E1
 378 0411 6F2AF85B 		.ascii	"o*\370[\024\177>\257\264\323\210\017`\212\317\335S2"
 378      147F3EAF 
 378      B4D3880F 
 378      608ACFDD 
 378      5332
 379 0423 AA670445 		.ascii	"\252g\004Ee<A\007G\320\241\020tR\202\033{}/u\374\251"
 379      653C4107 
 379      47D0A110 
 379      7452821B 
 379      7B7D2F75 
 380 0439 ACDEF65D 		.ascii	"\254\336\366]\3548#\337\220|\331\373p\267\211O\356R"
 380      EC3823DF 
 380      907CD9FB 
 380      70B7894F 
 380      EE52
 381 044b 2577CBC9 		.ascii	"%w\313\311\3354Y:\262??\010\237f\245U\317d\325-4\303"
 381      DD34593A 
 381      B23F3F08 
 381      9F66A555 
 381      CF64D52D 
 382 0461 F6B5BFC5 		.ascii	"\366\265\277\305\366\205\015\337\321\232\325eb\033~"
 382      F6850DDF 
 382      D19AD565 
 382      621B7E
 383 0470 36C237EF 		.ascii	"6\3027\357\206\267_\262x\310\221\334\007\033\250'\260"
 383      86B75FB2 
 383      78C891DC 
 383      071BA827 
 383      B0
 384 0481 E37B91BC 		.ascii	"\343{\221\274\345\311\013\262z\275\031>\314w\321\247"
 384      E5C90BB2 
 384      7ABD193E 
 384      CC77D1A7 
 385 0491 DA70FD72 		.ascii	"\332p\375r\027\375\264\213\314\334\032\230\240R\254"
 385      17FDB48B 
 385      CCDC1A98 
 385      A052AC
 386 04a0 3AA522D8 		.ascii	":\245\"\330)5x\354Y\276\211>\222?\253\357\220\241\341"
 386      293578EC 
ARM GAS  C:\Users\Luggi\AppData\Local\Temp\ccFSd0uD.s 			page 29


 386      59BE893E 
 386      923FABEF 
 386      90A1E1
 387 04b3 9EEE0B0B 		.ascii	"\236\356\013\013p%M\327\335?\224\341\017F\221fR\335"
 387      70254DD7 
 387      DD3F94E1 
 387      0F469166 
 387      52DD
 388 04c5 50695988 		.ascii	"PiY\210\204\320\010H\015\005J\213\220+\313|]\214\020"
 388      84D00848 
 388      0D054A8B 
 388      902BCB7C 
 388      5D8C10
 389 04d8 F8A51886 		.ascii	"\370\245\030\206F#\344F\377\204\301Aj\015\252;\334\356"
 389      4623E446 
 389      FF84C141 
 389      6A0DAA3B 
 389      DCEE
 390 04ea 32332BDF 		.ascii	"23+\337\016\241s\236\313yaQ\352xu6_'Iz4\006\225\014"
 390      0EA1739E 
 390      CB796151 
 390      EA787536 
 390      5F27497A 
 391 0502 042A1945 		.ascii	"\004*\031E\201R\346\022\337\326.e\354\366\211\027F\336"
 391      8152E612 
 391      DFD62E65 
 391      ECF68917 
 391      46DE
 392 0514 C9319593 		.ascii	"\3111\225\223wd'\357P'g\216\375\364@e{\225\352\367\177"
 392      776427EF 
 392      5027678E 
 392      FDF44065 
 392      7B95EAF7 
 393 0529 5C4E1EA7 		.ascii	"\\N\036\247\311\307+\372\"\370\\\247*wB\316%\337\306"
 393      C9C72BFA 
 393      22F85CA7 
 393      2A7742CE 
 393      25DFC6
 394 053c 0D5F7E1D 		.ascii	"\015_~\035\036%,Y\273.*6f\355\226\330Ob7m\371*vS\262"
 394      1E252C59 
 394      BB2E2A36 
 394      66ED96D8 
 394      4F62376D 
 395 0555 4DB45AD3 		.ascii	"M\264Z\323v\330>\334 &\213\3268\233\230\020\033\223"
 395      76D83EDC 
 395      20268BD6 
 395      389B9810 
 395      1B93
 396 0567 92668D17 		.ascii	"\222f\215\027\267E\307\244D}\272M\225\276\"^x\027\020"
 396      B745C7A4 
 396      447DBA4D 
 396      95BE225E 
 396      781710
 397 057a EBC4EFE3 		.ascii	"\353\304\357\343\322\222l\033\343\222\023\222D\253%"
 397      D2926C1B 
 397      E3921392 
 397      44AB25
ARM GAS  C:\Users\Luggi\AppData\Local\Temp\ccFSd0uD.s 			page 30


 398 0589 3E3D31D5 		.ascii	">=1\325\032\227\220`\025SS#\264i>\216O\267\245\357\020"
 398      1A979060 
 398      15535323 
 398      B4693E8E 
 398      4FB7A5EF 
 399 059e 5357FC30 		.ascii	"SW\3740\273\200\030\321\366\215\030oK\261\316\032\337"
 399      BB8018D1 
 399      F68D186F 
 399      4BB1CE1A 
 399      DF
 400 05af A08C1BD2 		.ascii	"\240\214\033\322\022\223m\253\227\315AE[\023S\254\211"
 400      12936DAB 
 400      97CD4145 
 400      5B1353AC 
 400      89
 401 05c0 B6F46573 		.ascii	"\266\364esp\312\233\017\324o\326'\307}\227$\206\316"
 401      70CA9B0F 
 401      D46FD627 
 401      C77D9724 
 401      86CE
 402 05d2 498FB141 		.ascii	"I\217\261A\271\213\325\303\353\022SI\362\373\263Tmq"
 402      B98BD5C3 
 402      EB125349 
 402      F2FBB354 
 402      6D71
 403 05e4 56DB628D 		.ascii	"V\333b\215\261\365?\2767{4e\307\322\271%\213\311\011"
 403      B1F53FBE 
 403      377B3465 
 403      C7D2B925 
 403      8BC909
 404 05f7 89C9DBC3 		.ascii	"\211\311\333\303\324/\242\222\3048\253\374Jo\025\267"
 404      D42FA292 
 404      C438ABFC 
 404      4A6F15B7 
 405 0607 AF36C0C7 		.ascii	"\2576\300\307\252\225F\322\367\252\225\377\001\206\""
 405      AA9546D2 
 405      F7AA95FF 
 405      018622
 406 0616 9190     		.ascii	"\221\220"
 407              		.text
 408              		.section	.gnu.lto_.symtab.53c7a86b,"",%progbits
 409 0000 4144435F 		.ascii	"ADC_SAR_1_IRQ_Interrupt\000\000\000\000\000\000\000"
 409      5341525F 
 409      315F4952 
 409      515F496E 
 409      74657272 
 410 001e 00000000 		.ascii	"\000\000\000\000\000\255\000\000\000ADC_SAR_1_IRQ_S"
 410      00AD0000 
 410      00414443 
 410      5F534152 
 410      5F315F49 
 411 0036 65745665 		.ascii	"etVector\000\000\000\000\000\000\000\000\000\000\000"
 411      63746F72 
 411      00000000 
 411      00000000 
 411      000000
 412 0049 00B60000 		.ascii	"\000\266\000\000\000ADC_SAR_1_IRQ_GetVector\000\000"
ARM GAS  C:\Users\Luggi\AppData\Local\Temp\ccFSd0uD.s 			page 31


 412      00414443 
 412      5F534152 
 412      5F315F49 
 412      52515F47 
 413 0067 00000000 		.ascii	"\000\000\000\000\000\000\000\000\000\000\271\000\000"
 413      00000000 
 413      0000B900 
 413      00
 414 0074 00414443 		.ascii	"\000ADC_SAR_1_IRQ_SetPriority\000\000\000\000\000\000"
 414      5F534152 
 414      5F315F49 
 414      52515F53 
 414      65745072 
 415 0094 00000000 		.ascii	"\000\000\000\000\000\000\302\000\000\000ADC_SAR_1_I"
 415      0000C200 
 415      00004144 
 415      435F5341 
 415      525F315F 
 416 00a9 52515F47 		.ascii	"RQ_GetPriority\000\000\000\000\000\000\000\000\000\000"
 416      65745072 
 416      696F7269 
 416      74790000 
 416      00000000 
 417 00c1 0000C500 		.ascii	"\000\000\305\000\000\000ADC_SAR_1_IRQ_Enable\000\000"
 417      00004144 
 417      435F5341 
 417      525F315F 
 417      4952515F 
 418 00dd 00000000 		.ascii	"\000\000\000\000\000\000\000\000\000\000\307\000\000"
 418      00000000 
 418      0000C700 
 418      00
 419 00ea 00414443 		.ascii	"\000ADC_SAR_1_IRQ_GetState\000\000\000\000\000\000\000"
 419      5F534152 
 419      5F315F49 
 419      52515F47 
 419      65745374 
 420 0108 00000000 		.ascii	"\000\000\000\000\000\311\000\000\000ADC_SAR_1_IRQ_D"
 420      00C90000 
 420      00414443 
 420      5F534152 
 420      5F315F49 
 421 0120 69736162 		.ascii	"isable\000\000\000\000\000\000\000\000\000\000\000\000"
 421      6C650000 
 421      00000000 
 421      00000000 
 421      0000
 422 0132 CB000000 		.ascii	"\313\000\000\000ADC_SAR_1_IRQ_Start\000\000\000\000"
 422      4144435F 
 422      5341525F 
 422      315F4952 
 422      515F5374 
 423 014d 00000000 		.ascii	"\000\000\000\000\000\000\000\000\315\000\000\000ADC"
 423      00000000 
 423      CD000000 
 423      414443
 424 015c 5F534152 		.ascii	"_SAR_1_IRQ_StartEx\000\000\000\000\000\000\000\000\000"
ARM GAS  C:\Users\Luggi\AppData\Local\Temp\ccFSd0uD.s 			page 32


 424      5F315F49 
 424      52515F53 
 424      74617274 
 424      45780000 
 425 0177 000000CF 		.ascii	"\000\000\000\317\000\000\000ADC_SAR_1_IRQ_Stop\000\000"
 425      00000041 
 425      44435F53 
 425      41525F31 
 425      5F495251 
 426 0192 00000000 		.ascii	"\000\000\000\000\000\000\000\000\000\000\321\000\000"
 426      00000000 
 426      0000D100 
 426      00
 427 019f 00414443 		.ascii	"\000ADC_SAR_1_IRQ_SetPending\000\000\000\000\000\000"
 427      5F534152 
 427      5F315F49 
 427      52515F53 
 427      65745065 
 428 01be 00000000 		.ascii	"\000\000\000\000\000\000\323\000\000\000ADC_SAR_1_I"
 428      0000D300 
 428      00004144 
 428      435F5341 
 428      525F315F 
 429 01d3 52515F43 		.ascii	"RQ_ClearPending\000\000\000\000\000\000\000\000\000"
 429      6C656172 
 429      50656E64 
 429      696E6700 
 429      00000000 
 430 01eb 000000D5 		.ascii	"\000\000\000\325\000\000\000IntDefaultHandler\000\000"
 430      00000049 
 430      6E744465 
 430      6661756C 
 430      7448616E 
 431 0205 02000000 		.ascii	"\002\000\000\000\000\000\000\000\000\000\257\000\000"
 431      00000000 
 431      0000AF00 
 431      00
 432 0212 00       		.ascii	"\000"
 433              		.text
 434              		.section	.gnu.lto_.opts,"",%progbits
 435 0000 272D666E 		.ascii	"'-fno-trapv' '-fno-strict-overflow' '-mcpu=cortex-m"
 435      6F2D7472 
 435      61707627 
 435      20272D66 
 435      6E6F2D73 
 436 0033 33272027 		.ascii	"3' '-mthumb' '-g' '-Og' '-ffunction-sections' '-flt"
 436      2D6D7468 
 436      756D6227 
 436      20272D67 
 436      2720272D 
 437 0066 6F272027 		.ascii	"o' '-ffat-lto-objects'\000"
 437      2D666661 
 437      742D6C74 
 437      6F2D6F62 
 437      6A656374 
 438              		.text
 439              		.cfi_sections	.debug_frame
ARM GAS  C:\Users\Luggi\AppData\Local\Temp\ccFSd0uD.s 			page 33


 440              		.section	.text.ADC_SAR_1_IRQ_Interrupt,"ax",%progbits
 441              		.align	2
 442              		.global	ADC_SAR_1_IRQ_Interrupt
 443              		.thumb
 444              		.thumb_func
 445              		.type	ADC_SAR_1_IRQ_Interrupt, %function
 446              	ADC_SAR_1_IRQ_Interrupt:
 447              	.LFB3:
 448              		.file 1 "Generated_Source\\PSoC5\\ADC_SAR_1_IRQ.c"
   1:Generated_Source\PSoC5/ADC_SAR_1_IRQ.c **** /*******************************************************************************
   2:Generated_Source\PSoC5/ADC_SAR_1_IRQ.c **** * File Name: ADC_SAR_1_IRQ.c  
   3:Generated_Source\PSoC5/ADC_SAR_1_IRQ.c **** * Version 1.70
   4:Generated_Source\PSoC5/ADC_SAR_1_IRQ.c **** *
   5:Generated_Source\PSoC5/ADC_SAR_1_IRQ.c **** *  Description:
   6:Generated_Source\PSoC5/ADC_SAR_1_IRQ.c **** *   API for controlling the state of an interrupt.
   7:Generated_Source\PSoC5/ADC_SAR_1_IRQ.c **** *
   8:Generated_Source\PSoC5/ADC_SAR_1_IRQ.c **** *
   9:Generated_Source\PSoC5/ADC_SAR_1_IRQ.c **** *  Note:
  10:Generated_Source\PSoC5/ADC_SAR_1_IRQ.c **** *
  11:Generated_Source\PSoC5/ADC_SAR_1_IRQ.c **** ********************************************************************************
  12:Generated_Source\PSoC5/ADC_SAR_1_IRQ.c **** * Copyright 2008-2015, Cypress Semiconductor Corporation.  All rights reserved.
  13:Generated_Source\PSoC5/ADC_SAR_1_IRQ.c **** * You may use this file only in accordance with the license, terms, conditions, 
  14:Generated_Source\PSoC5/ADC_SAR_1_IRQ.c **** * disclaimers, and limitations in the end user license agreement accompanying 
  15:Generated_Source\PSoC5/ADC_SAR_1_IRQ.c **** * the software package with which this file was provided.
  16:Generated_Source\PSoC5/ADC_SAR_1_IRQ.c **** *******************************************************************************/
  17:Generated_Source\PSoC5/ADC_SAR_1_IRQ.c **** 
  18:Generated_Source\PSoC5/ADC_SAR_1_IRQ.c **** 
  19:Generated_Source\PSoC5/ADC_SAR_1_IRQ.c **** #include <cydevice_trm.h>
  20:Generated_Source\PSoC5/ADC_SAR_1_IRQ.c **** #include <CyLib.h>
  21:Generated_Source\PSoC5/ADC_SAR_1_IRQ.c **** #include <ADC_SAR_1_IRQ.h>
  22:Generated_Source\PSoC5/ADC_SAR_1_IRQ.c **** 
  23:Generated_Source\PSoC5/ADC_SAR_1_IRQ.c **** 
  24:Generated_Source\PSoC5/ADC_SAR_1_IRQ.c **** #if !defined(ADC_SAR_1_IRQ__REMOVED) /* Check for removal by optimization */
  25:Generated_Source\PSoC5/ADC_SAR_1_IRQ.c **** 
  26:Generated_Source\PSoC5/ADC_SAR_1_IRQ.c **** /*******************************************************************************
  27:Generated_Source\PSoC5/ADC_SAR_1_IRQ.c **** *  Place your includes, defines and code here 
  28:Generated_Source\PSoC5/ADC_SAR_1_IRQ.c **** ********************************************************************************/
  29:Generated_Source\PSoC5/ADC_SAR_1_IRQ.c **** /* `#START ADC_SAR_1_IRQ_intc` */
  30:Generated_Source\PSoC5/ADC_SAR_1_IRQ.c **** 
  31:Generated_Source\PSoC5/ADC_SAR_1_IRQ.c **** /* `#END` */
  32:Generated_Source\PSoC5/ADC_SAR_1_IRQ.c **** 
  33:Generated_Source\PSoC5/ADC_SAR_1_IRQ.c **** #ifndef CYINT_IRQ_BASE
  34:Generated_Source\PSoC5/ADC_SAR_1_IRQ.c **** #define CYINT_IRQ_BASE      16
  35:Generated_Source\PSoC5/ADC_SAR_1_IRQ.c **** #endif /* CYINT_IRQ_BASE */
  36:Generated_Source\PSoC5/ADC_SAR_1_IRQ.c **** #ifndef CYINT_VECT_TABLE
  37:Generated_Source\PSoC5/ADC_SAR_1_IRQ.c **** #define CYINT_VECT_TABLE    ((cyisraddress **) CYREG_NVIC_VECT_OFFSET)
  38:Generated_Source\PSoC5/ADC_SAR_1_IRQ.c **** #endif /* CYINT_VECT_TABLE */
  39:Generated_Source\PSoC5/ADC_SAR_1_IRQ.c **** 
  40:Generated_Source\PSoC5/ADC_SAR_1_IRQ.c **** /* Declared in startup, used to set unused interrupts to. */
  41:Generated_Source\PSoC5/ADC_SAR_1_IRQ.c **** CY_ISR_PROTO(IntDefaultHandler);
  42:Generated_Source\PSoC5/ADC_SAR_1_IRQ.c **** 
  43:Generated_Source\PSoC5/ADC_SAR_1_IRQ.c **** 
  44:Generated_Source\PSoC5/ADC_SAR_1_IRQ.c **** /*******************************************************************************
  45:Generated_Source\PSoC5/ADC_SAR_1_IRQ.c **** * Function Name: ADC_SAR_1_IRQ_Start
  46:Generated_Source\PSoC5/ADC_SAR_1_IRQ.c **** ********************************************************************************
  47:Generated_Source\PSoC5/ADC_SAR_1_IRQ.c **** *
  48:Generated_Source\PSoC5/ADC_SAR_1_IRQ.c **** * Summary:
ARM GAS  C:\Users\Luggi\AppData\Local\Temp\ccFSd0uD.s 			page 34


  49:Generated_Source\PSoC5/ADC_SAR_1_IRQ.c **** *  Set up the interrupt and enable it. This function disables the interrupt, 
  50:Generated_Source\PSoC5/ADC_SAR_1_IRQ.c **** *  sets the default interrupt vector, sets the priority from the value in the
  51:Generated_Source\PSoC5/ADC_SAR_1_IRQ.c **** *  Design Wide Resources Interrupt Editor, then enables the interrupt to the 
  52:Generated_Source\PSoC5/ADC_SAR_1_IRQ.c **** *  interrupt controller.
  53:Generated_Source\PSoC5/ADC_SAR_1_IRQ.c **** *
  54:Generated_Source\PSoC5/ADC_SAR_1_IRQ.c **** * Parameters:  
  55:Generated_Source\PSoC5/ADC_SAR_1_IRQ.c **** *   None
  56:Generated_Source\PSoC5/ADC_SAR_1_IRQ.c **** *
  57:Generated_Source\PSoC5/ADC_SAR_1_IRQ.c **** * Return:
  58:Generated_Source\PSoC5/ADC_SAR_1_IRQ.c **** *   None
  59:Generated_Source\PSoC5/ADC_SAR_1_IRQ.c **** *
  60:Generated_Source\PSoC5/ADC_SAR_1_IRQ.c **** *******************************************************************************/
  61:Generated_Source\PSoC5/ADC_SAR_1_IRQ.c **** void ADC_SAR_1_IRQ_Start(void)
  62:Generated_Source\PSoC5/ADC_SAR_1_IRQ.c **** {
  63:Generated_Source\PSoC5/ADC_SAR_1_IRQ.c ****     /* For all we know the interrupt is active. */
  64:Generated_Source\PSoC5/ADC_SAR_1_IRQ.c ****     ADC_SAR_1_IRQ_Disable();
  65:Generated_Source\PSoC5/ADC_SAR_1_IRQ.c **** 
  66:Generated_Source\PSoC5/ADC_SAR_1_IRQ.c ****     /* Set the ISR to point to the ADC_SAR_1_IRQ Interrupt. */
  67:Generated_Source\PSoC5/ADC_SAR_1_IRQ.c ****     ADC_SAR_1_IRQ_SetVector(&ADC_SAR_1_IRQ_Interrupt);
  68:Generated_Source\PSoC5/ADC_SAR_1_IRQ.c **** 
  69:Generated_Source\PSoC5/ADC_SAR_1_IRQ.c ****     /* Set the priority. */
  70:Generated_Source\PSoC5/ADC_SAR_1_IRQ.c ****     ADC_SAR_1_IRQ_SetPriority((uint8)ADC_SAR_1_IRQ_INTC_PRIOR_NUMBER);
  71:Generated_Source\PSoC5/ADC_SAR_1_IRQ.c **** 
  72:Generated_Source\PSoC5/ADC_SAR_1_IRQ.c ****     /* Enable it. */
  73:Generated_Source\PSoC5/ADC_SAR_1_IRQ.c ****     ADC_SAR_1_IRQ_Enable();
  74:Generated_Source\PSoC5/ADC_SAR_1_IRQ.c **** }
  75:Generated_Source\PSoC5/ADC_SAR_1_IRQ.c **** 
  76:Generated_Source\PSoC5/ADC_SAR_1_IRQ.c **** 
  77:Generated_Source\PSoC5/ADC_SAR_1_IRQ.c **** /*******************************************************************************
  78:Generated_Source\PSoC5/ADC_SAR_1_IRQ.c **** * Function Name: ADC_SAR_1_IRQ_StartEx
  79:Generated_Source\PSoC5/ADC_SAR_1_IRQ.c **** ********************************************************************************
  80:Generated_Source\PSoC5/ADC_SAR_1_IRQ.c **** *
  81:Generated_Source\PSoC5/ADC_SAR_1_IRQ.c **** * Summary:
  82:Generated_Source\PSoC5/ADC_SAR_1_IRQ.c **** *  Sets up the interrupt and enables it. This function disables the interrupt,
  83:Generated_Source\PSoC5/ADC_SAR_1_IRQ.c **** *  sets the interrupt vector based on the address passed in, sets the priority 
  84:Generated_Source\PSoC5/ADC_SAR_1_IRQ.c **** *  from the value in the Design Wide Resources Interrupt Editor, then enables 
  85:Generated_Source\PSoC5/ADC_SAR_1_IRQ.c **** *  the interrupt to the interrupt controller.
  86:Generated_Source\PSoC5/ADC_SAR_1_IRQ.c **** *  
  87:Generated_Source\PSoC5/ADC_SAR_1_IRQ.c **** *  When defining ISR functions, the CY_ISR and CY_ISR_PROTO macros should be 
  88:Generated_Source\PSoC5/ADC_SAR_1_IRQ.c **** *  used to provide consistent definition across compilers:
  89:Generated_Source\PSoC5/ADC_SAR_1_IRQ.c **** *  
  90:Generated_Source\PSoC5/ADC_SAR_1_IRQ.c **** *  Function definition example:
  91:Generated_Source\PSoC5/ADC_SAR_1_IRQ.c **** *   CY_ISR(MyISR)
  92:Generated_Source\PSoC5/ADC_SAR_1_IRQ.c **** *   {
  93:Generated_Source\PSoC5/ADC_SAR_1_IRQ.c **** *   }
  94:Generated_Source\PSoC5/ADC_SAR_1_IRQ.c **** *   Function prototype example:
  95:Generated_Source\PSoC5/ADC_SAR_1_IRQ.c **** *   CY_ISR_PROTO(MyISR);
  96:Generated_Source\PSoC5/ADC_SAR_1_IRQ.c **** *
  97:Generated_Source\PSoC5/ADC_SAR_1_IRQ.c **** * Parameters:  
  98:Generated_Source\PSoC5/ADC_SAR_1_IRQ.c **** *   address: Address of the ISR to set in the interrupt vector table.
  99:Generated_Source\PSoC5/ADC_SAR_1_IRQ.c **** *
 100:Generated_Source\PSoC5/ADC_SAR_1_IRQ.c **** * Return:
 101:Generated_Source\PSoC5/ADC_SAR_1_IRQ.c **** *   None
 102:Generated_Source\PSoC5/ADC_SAR_1_IRQ.c **** *
 103:Generated_Source\PSoC5/ADC_SAR_1_IRQ.c **** *******************************************************************************/
 104:Generated_Source\PSoC5/ADC_SAR_1_IRQ.c **** void ADC_SAR_1_IRQ_StartEx(cyisraddress address)
 105:Generated_Source\PSoC5/ADC_SAR_1_IRQ.c **** {
ARM GAS  C:\Users\Luggi\AppData\Local\Temp\ccFSd0uD.s 			page 35


 106:Generated_Source\PSoC5/ADC_SAR_1_IRQ.c ****     /* For all we know the interrupt is active. */
 107:Generated_Source\PSoC5/ADC_SAR_1_IRQ.c ****     ADC_SAR_1_IRQ_Disable();
 108:Generated_Source\PSoC5/ADC_SAR_1_IRQ.c **** 
 109:Generated_Source\PSoC5/ADC_SAR_1_IRQ.c ****     /* Set the ISR to point to the ADC_SAR_1_IRQ Interrupt. */
 110:Generated_Source\PSoC5/ADC_SAR_1_IRQ.c ****     ADC_SAR_1_IRQ_SetVector(address);
 111:Generated_Source\PSoC5/ADC_SAR_1_IRQ.c **** 
 112:Generated_Source\PSoC5/ADC_SAR_1_IRQ.c ****     /* Set the priority. */
 113:Generated_Source\PSoC5/ADC_SAR_1_IRQ.c ****     ADC_SAR_1_IRQ_SetPriority((uint8)ADC_SAR_1_IRQ_INTC_PRIOR_NUMBER);
 114:Generated_Source\PSoC5/ADC_SAR_1_IRQ.c **** 
 115:Generated_Source\PSoC5/ADC_SAR_1_IRQ.c ****     /* Enable it. */
 116:Generated_Source\PSoC5/ADC_SAR_1_IRQ.c ****     ADC_SAR_1_IRQ_Enable();
 117:Generated_Source\PSoC5/ADC_SAR_1_IRQ.c **** }
 118:Generated_Source\PSoC5/ADC_SAR_1_IRQ.c **** 
 119:Generated_Source\PSoC5/ADC_SAR_1_IRQ.c **** 
 120:Generated_Source\PSoC5/ADC_SAR_1_IRQ.c **** /*******************************************************************************
 121:Generated_Source\PSoC5/ADC_SAR_1_IRQ.c **** * Function Name: ADC_SAR_1_IRQ_Stop
 122:Generated_Source\PSoC5/ADC_SAR_1_IRQ.c **** ********************************************************************************
 123:Generated_Source\PSoC5/ADC_SAR_1_IRQ.c **** *
 124:Generated_Source\PSoC5/ADC_SAR_1_IRQ.c **** * Summary:
 125:Generated_Source\PSoC5/ADC_SAR_1_IRQ.c **** *   Disables and removes the interrupt.
 126:Generated_Source\PSoC5/ADC_SAR_1_IRQ.c **** *
 127:Generated_Source\PSoC5/ADC_SAR_1_IRQ.c **** * Parameters:  
 128:Generated_Source\PSoC5/ADC_SAR_1_IRQ.c **** *   None
 129:Generated_Source\PSoC5/ADC_SAR_1_IRQ.c **** *
 130:Generated_Source\PSoC5/ADC_SAR_1_IRQ.c **** * Return:
 131:Generated_Source\PSoC5/ADC_SAR_1_IRQ.c **** *   None
 132:Generated_Source\PSoC5/ADC_SAR_1_IRQ.c **** *
 133:Generated_Source\PSoC5/ADC_SAR_1_IRQ.c **** *******************************************************************************/
 134:Generated_Source\PSoC5/ADC_SAR_1_IRQ.c **** void ADC_SAR_1_IRQ_Stop(void)
 135:Generated_Source\PSoC5/ADC_SAR_1_IRQ.c **** {
 136:Generated_Source\PSoC5/ADC_SAR_1_IRQ.c ****     /* Disable this interrupt. */
 137:Generated_Source\PSoC5/ADC_SAR_1_IRQ.c ****     ADC_SAR_1_IRQ_Disable();
 138:Generated_Source\PSoC5/ADC_SAR_1_IRQ.c **** 
 139:Generated_Source\PSoC5/ADC_SAR_1_IRQ.c ****     /* Set the ISR to point to the passive one. */
 140:Generated_Source\PSoC5/ADC_SAR_1_IRQ.c ****     ADC_SAR_1_IRQ_SetVector(&IntDefaultHandler);
 141:Generated_Source\PSoC5/ADC_SAR_1_IRQ.c **** }
 142:Generated_Source\PSoC5/ADC_SAR_1_IRQ.c **** 
 143:Generated_Source\PSoC5/ADC_SAR_1_IRQ.c **** 
 144:Generated_Source\PSoC5/ADC_SAR_1_IRQ.c **** /*******************************************************************************
 145:Generated_Source\PSoC5/ADC_SAR_1_IRQ.c **** * Function Name: ADC_SAR_1_IRQ_Interrupt
 146:Generated_Source\PSoC5/ADC_SAR_1_IRQ.c **** ********************************************************************************
 147:Generated_Source\PSoC5/ADC_SAR_1_IRQ.c **** *
 148:Generated_Source\PSoC5/ADC_SAR_1_IRQ.c **** * Summary:
 149:Generated_Source\PSoC5/ADC_SAR_1_IRQ.c **** *   The default Interrupt Service Routine for ADC_SAR_1_IRQ.
 150:Generated_Source\PSoC5/ADC_SAR_1_IRQ.c **** *
 151:Generated_Source\PSoC5/ADC_SAR_1_IRQ.c **** *   Add custom code between the coments to keep the next version of this file
 152:Generated_Source\PSoC5/ADC_SAR_1_IRQ.c **** *   from over writting your code.
 153:Generated_Source\PSoC5/ADC_SAR_1_IRQ.c **** *
 154:Generated_Source\PSoC5/ADC_SAR_1_IRQ.c **** * Parameters:  
 155:Generated_Source\PSoC5/ADC_SAR_1_IRQ.c **** *
 156:Generated_Source\PSoC5/ADC_SAR_1_IRQ.c **** * Return:
 157:Generated_Source\PSoC5/ADC_SAR_1_IRQ.c **** *   None
 158:Generated_Source\PSoC5/ADC_SAR_1_IRQ.c **** *
 159:Generated_Source\PSoC5/ADC_SAR_1_IRQ.c **** *******************************************************************************/
 160:Generated_Source\PSoC5/ADC_SAR_1_IRQ.c **** CY_ISR(ADC_SAR_1_IRQ_Interrupt)
 161:Generated_Source\PSoC5/ADC_SAR_1_IRQ.c **** {
 449              		.loc 1 161 0
ARM GAS  C:\Users\Luggi\AppData\Local\Temp\ccFSd0uD.s 			page 36


 450              		.cfi_startproc
 451              		@ args = 0, pretend = 0, frame = 0
 452              		@ frame_needed = 0, uses_anonymous_args = 0
 453              		@ link register save eliminated.
 454 0000 7047     		bx	lr
 455              		.cfi_endproc
 456              	.LFE3:
 457              		.size	ADC_SAR_1_IRQ_Interrupt, .-ADC_SAR_1_IRQ_Interrupt
 458 0002 00BF     		.section	.text.ADC_SAR_1_IRQ_SetVector,"ax",%progbits
 459              		.align	2
 460              		.global	ADC_SAR_1_IRQ_SetVector
 461              		.thumb
 462              		.thumb_func
 463              		.type	ADC_SAR_1_IRQ_SetVector, %function
 464              	ADC_SAR_1_IRQ_SetVector:
 465              	.LFB4:
 162:Generated_Source\PSoC5/ADC_SAR_1_IRQ.c ****     #ifdef ADC_SAR_1_IRQ_INTERRUPT_INTERRUPT_CALLBACK
 163:Generated_Source\PSoC5/ADC_SAR_1_IRQ.c ****         ADC_SAR_1_IRQ_Interrupt_InterruptCallback();
 164:Generated_Source\PSoC5/ADC_SAR_1_IRQ.c ****     #endif /* ADC_SAR_1_IRQ_INTERRUPT_INTERRUPT_CALLBACK */ 
 165:Generated_Source\PSoC5/ADC_SAR_1_IRQ.c **** 
 166:Generated_Source\PSoC5/ADC_SAR_1_IRQ.c ****     /*  Place your Interrupt code here. */
 167:Generated_Source\PSoC5/ADC_SAR_1_IRQ.c ****     /* `#START ADC_SAR_1_IRQ_Interrupt` */
 168:Generated_Source\PSoC5/ADC_SAR_1_IRQ.c **** 
 169:Generated_Source\PSoC5/ADC_SAR_1_IRQ.c ****     /* `#END` */
 170:Generated_Source\PSoC5/ADC_SAR_1_IRQ.c **** }
 171:Generated_Source\PSoC5/ADC_SAR_1_IRQ.c **** 
 172:Generated_Source\PSoC5/ADC_SAR_1_IRQ.c **** 
 173:Generated_Source\PSoC5/ADC_SAR_1_IRQ.c **** /*******************************************************************************
 174:Generated_Source\PSoC5/ADC_SAR_1_IRQ.c **** * Function Name: ADC_SAR_1_IRQ_SetVector
 175:Generated_Source\PSoC5/ADC_SAR_1_IRQ.c **** ********************************************************************************
 176:Generated_Source\PSoC5/ADC_SAR_1_IRQ.c **** *
 177:Generated_Source\PSoC5/ADC_SAR_1_IRQ.c **** * Summary:
 178:Generated_Source\PSoC5/ADC_SAR_1_IRQ.c **** *   Change the ISR vector for the Interrupt. Note calling ADC_SAR_1_IRQ_Start
 179:Generated_Source\PSoC5/ADC_SAR_1_IRQ.c **** *   will override any effect this method would have had. To set the vector 
 180:Generated_Source\PSoC5/ADC_SAR_1_IRQ.c **** *   before the component has been started use ADC_SAR_1_IRQ_StartEx instead.
 181:Generated_Source\PSoC5/ADC_SAR_1_IRQ.c **** * 
 182:Generated_Source\PSoC5/ADC_SAR_1_IRQ.c **** *   When defining ISR functions, the CY_ISR and CY_ISR_PROTO macros should be 
 183:Generated_Source\PSoC5/ADC_SAR_1_IRQ.c **** *   used to provide consistent definition across compilers:
 184:Generated_Source\PSoC5/ADC_SAR_1_IRQ.c **** *
 185:Generated_Source\PSoC5/ADC_SAR_1_IRQ.c **** *   Function definition example:
 186:Generated_Source\PSoC5/ADC_SAR_1_IRQ.c **** *   CY_ISR(MyISR)
 187:Generated_Source\PSoC5/ADC_SAR_1_IRQ.c **** *   {
 188:Generated_Source\PSoC5/ADC_SAR_1_IRQ.c **** *   }
 189:Generated_Source\PSoC5/ADC_SAR_1_IRQ.c **** *
 190:Generated_Source\PSoC5/ADC_SAR_1_IRQ.c **** *   Function prototype example:
 191:Generated_Source\PSoC5/ADC_SAR_1_IRQ.c **** *     CY_ISR_PROTO(MyISR);
 192:Generated_Source\PSoC5/ADC_SAR_1_IRQ.c **** *
 193:Generated_Source\PSoC5/ADC_SAR_1_IRQ.c **** * Parameters:
 194:Generated_Source\PSoC5/ADC_SAR_1_IRQ.c **** *   address: Address of the ISR to set in the interrupt vector table.
 195:Generated_Source\PSoC5/ADC_SAR_1_IRQ.c **** *
 196:Generated_Source\PSoC5/ADC_SAR_1_IRQ.c **** * Return:
 197:Generated_Source\PSoC5/ADC_SAR_1_IRQ.c **** *   None
 198:Generated_Source\PSoC5/ADC_SAR_1_IRQ.c **** *
 199:Generated_Source\PSoC5/ADC_SAR_1_IRQ.c **** *******************************************************************************/
 200:Generated_Source\PSoC5/ADC_SAR_1_IRQ.c **** void ADC_SAR_1_IRQ_SetVector(cyisraddress address)
 201:Generated_Source\PSoC5/ADC_SAR_1_IRQ.c **** {
 466              		.loc 1 201 0
ARM GAS  C:\Users\Luggi\AppData\Local\Temp\ccFSd0uD.s 			page 37


 467              		.cfi_startproc
 468              		@ args = 0, pretend = 0, frame = 0
 469              		@ frame_needed = 0, uses_anonymous_args = 0
 470              		@ link register save eliminated.
 471              	.LVL0:
 202:Generated_Source\PSoC5/ADC_SAR_1_IRQ.c ****     cyisraddress * ramVectorTable;
 203:Generated_Source\PSoC5/ADC_SAR_1_IRQ.c **** 
 204:Generated_Source\PSoC5/ADC_SAR_1_IRQ.c ****     ramVectorTable = (cyisraddress *) *CYINT_VECT_TABLE;
 472              		.loc 1 204 0
 473 0000 014B     		ldr	r3, .L3
 474 0002 1B68     		ldr	r3, [r3]
 475              	.LVL1:
 205:Generated_Source\PSoC5/ADC_SAR_1_IRQ.c **** 
 206:Generated_Source\PSoC5/ADC_SAR_1_IRQ.c ****     ramVectorTable[CYINT_IRQ_BASE + (uint32)ADC_SAR_1_IRQ__INTC_NUMBER] = address;
 476              		.loc 1 206 0
 477 0004 5864     		str	r0, [r3, #68]
 478 0006 7047     		bx	lr
 479              	.L4:
 480              		.align	2
 481              	.L3:
 482 0008 08ED00E0 		.word	-536810232
 483              		.cfi_endproc
 484              	.LFE4:
 485              		.size	ADC_SAR_1_IRQ_SetVector, .-ADC_SAR_1_IRQ_SetVector
 486              		.section	.text.ADC_SAR_1_IRQ_GetVector,"ax",%progbits
 487              		.align	2
 488              		.global	ADC_SAR_1_IRQ_GetVector
 489              		.thumb
 490              		.thumb_func
 491              		.type	ADC_SAR_1_IRQ_GetVector, %function
 492              	ADC_SAR_1_IRQ_GetVector:
 493              	.LFB5:
 207:Generated_Source\PSoC5/ADC_SAR_1_IRQ.c **** }
 208:Generated_Source\PSoC5/ADC_SAR_1_IRQ.c **** 
 209:Generated_Source\PSoC5/ADC_SAR_1_IRQ.c **** 
 210:Generated_Source\PSoC5/ADC_SAR_1_IRQ.c **** /*******************************************************************************
 211:Generated_Source\PSoC5/ADC_SAR_1_IRQ.c **** * Function Name: ADC_SAR_1_IRQ_GetVector
 212:Generated_Source\PSoC5/ADC_SAR_1_IRQ.c **** ********************************************************************************
 213:Generated_Source\PSoC5/ADC_SAR_1_IRQ.c **** *
 214:Generated_Source\PSoC5/ADC_SAR_1_IRQ.c **** * Summary:
 215:Generated_Source\PSoC5/ADC_SAR_1_IRQ.c **** *   Gets the "address" of the current ISR vector for the Interrupt.
 216:Generated_Source\PSoC5/ADC_SAR_1_IRQ.c **** *
 217:Generated_Source\PSoC5/ADC_SAR_1_IRQ.c **** * Parameters:
 218:Generated_Source\PSoC5/ADC_SAR_1_IRQ.c **** *   None
 219:Generated_Source\PSoC5/ADC_SAR_1_IRQ.c **** *
 220:Generated_Source\PSoC5/ADC_SAR_1_IRQ.c **** * Return:
 221:Generated_Source\PSoC5/ADC_SAR_1_IRQ.c **** *   Address of the ISR in the interrupt vector table.
 222:Generated_Source\PSoC5/ADC_SAR_1_IRQ.c **** *
 223:Generated_Source\PSoC5/ADC_SAR_1_IRQ.c **** *******************************************************************************/
 224:Generated_Source\PSoC5/ADC_SAR_1_IRQ.c **** cyisraddress ADC_SAR_1_IRQ_GetVector(void)
 225:Generated_Source\PSoC5/ADC_SAR_1_IRQ.c **** {
 494              		.loc 1 225 0
 495              		.cfi_startproc
 496              		@ args = 0, pretend = 0, frame = 0
 497              		@ frame_needed = 0, uses_anonymous_args = 0
 498              		@ link register save eliminated.
 226:Generated_Source\PSoC5/ADC_SAR_1_IRQ.c ****     cyisraddress * ramVectorTable;
ARM GAS  C:\Users\Luggi\AppData\Local\Temp\ccFSd0uD.s 			page 38


 227:Generated_Source\PSoC5/ADC_SAR_1_IRQ.c **** 
 228:Generated_Source\PSoC5/ADC_SAR_1_IRQ.c ****     ramVectorTable = (cyisraddress *) *CYINT_VECT_TABLE;
 499              		.loc 1 228 0
 500 0000 014B     		ldr	r3, .L6
 501 0002 1B68     		ldr	r3, [r3]
 502              	.LVL2:
 229:Generated_Source\PSoC5/ADC_SAR_1_IRQ.c **** 
 230:Generated_Source\PSoC5/ADC_SAR_1_IRQ.c ****     return ramVectorTable[CYINT_IRQ_BASE + (uint32)ADC_SAR_1_IRQ__INTC_NUMBER];
 231:Generated_Source\PSoC5/ADC_SAR_1_IRQ.c **** }
 503              		.loc 1 231 0
 504 0004 586C     		ldr	r0, [r3, #68]
 505 0006 7047     		bx	lr
 506              	.L7:
 507              		.align	2
 508              	.L6:
 509 0008 08ED00E0 		.word	-536810232
 510              		.cfi_endproc
 511              	.LFE5:
 512              		.size	ADC_SAR_1_IRQ_GetVector, .-ADC_SAR_1_IRQ_GetVector
 513              		.section	.text.ADC_SAR_1_IRQ_SetPriority,"ax",%progbits
 514              		.align	2
 515              		.global	ADC_SAR_1_IRQ_SetPriority
 516              		.thumb
 517              		.thumb_func
 518              		.type	ADC_SAR_1_IRQ_SetPriority, %function
 519              	ADC_SAR_1_IRQ_SetPriority:
 520              	.LFB6:
 232:Generated_Source\PSoC5/ADC_SAR_1_IRQ.c **** 
 233:Generated_Source\PSoC5/ADC_SAR_1_IRQ.c **** 
 234:Generated_Source\PSoC5/ADC_SAR_1_IRQ.c **** /*******************************************************************************
 235:Generated_Source\PSoC5/ADC_SAR_1_IRQ.c **** * Function Name: ADC_SAR_1_IRQ_SetPriority
 236:Generated_Source\PSoC5/ADC_SAR_1_IRQ.c **** ********************************************************************************
 237:Generated_Source\PSoC5/ADC_SAR_1_IRQ.c **** *
 238:Generated_Source\PSoC5/ADC_SAR_1_IRQ.c **** * Summary:
 239:Generated_Source\PSoC5/ADC_SAR_1_IRQ.c **** *   Sets the Priority of the Interrupt. 
 240:Generated_Source\PSoC5/ADC_SAR_1_IRQ.c **** *
 241:Generated_Source\PSoC5/ADC_SAR_1_IRQ.c **** *   Note calling ADC_SAR_1_IRQ_Start or ADC_SAR_1_IRQ_StartEx will 
 242:Generated_Source\PSoC5/ADC_SAR_1_IRQ.c **** *   override any effect this API would have had. This API should only be called
 243:Generated_Source\PSoC5/ADC_SAR_1_IRQ.c **** *   after ADC_SAR_1_IRQ_Start or ADC_SAR_1_IRQ_StartEx has been called. 
 244:Generated_Source\PSoC5/ADC_SAR_1_IRQ.c **** *   To set the initial priority for the component, use the Design-Wide Resources
 245:Generated_Source\PSoC5/ADC_SAR_1_IRQ.c **** *   Interrupt Editor.
 246:Generated_Source\PSoC5/ADC_SAR_1_IRQ.c **** *
 247:Generated_Source\PSoC5/ADC_SAR_1_IRQ.c **** *   Note This API has no effect on Non-maskable interrupt NMI).
 248:Generated_Source\PSoC5/ADC_SAR_1_IRQ.c **** *
 249:Generated_Source\PSoC5/ADC_SAR_1_IRQ.c **** * Parameters:
 250:Generated_Source\PSoC5/ADC_SAR_1_IRQ.c **** *   priority: Priority of the interrupt, 0 being the highest priority
 251:Generated_Source\PSoC5/ADC_SAR_1_IRQ.c **** *             PSoC 3 and PSoC 5LP: Priority is from 0 to 7.
 252:Generated_Source\PSoC5/ADC_SAR_1_IRQ.c **** *             PSoC 4: Priority is from 0 to 3.
 253:Generated_Source\PSoC5/ADC_SAR_1_IRQ.c **** *
 254:Generated_Source\PSoC5/ADC_SAR_1_IRQ.c **** * Return:
 255:Generated_Source\PSoC5/ADC_SAR_1_IRQ.c **** *   None
 256:Generated_Source\PSoC5/ADC_SAR_1_IRQ.c **** *
 257:Generated_Source\PSoC5/ADC_SAR_1_IRQ.c **** *******************************************************************************/
 258:Generated_Source\PSoC5/ADC_SAR_1_IRQ.c **** void ADC_SAR_1_IRQ_SetPriority(uint8 priority)
 259:Generated_Source\PSoC5/ADC_SAR_1_IRQ.c **** {
 521              		.loc 1 259 0
 522              		.cfi_startproc
ARM GAS  C:\Users\Luggi\AppData\Local\Temp\ccFSd0uD.s 			page 39


 523              		@ args = 0, pretend = 0, frame = 0
 524              		@ frame_needed = 0, uses_anonymous_args = 0
 525              		@ link register save eliminated.
 526              	.LVL3:
 260:Generated_Source\PSoC5/ADC_SAR_1_IRQ.c ****     *ADC_SAR_1_IRQ_INTC_PRIOR = priority << 5;
 527              		.loc 1 260 0
 528 0000 4001     		lsls	r0, r0, #5
 529              	.LVL4:
 530 0002 C0B2     		uxtb	r0, r0
 531 0004 014B     		ldr	r3, .L9
 532 0006 1870     		strb	r0, [r3]
 533 0008 7047     		bx	lr
 534              	.L10:
 535 000a 00BF     		.align	2
 536              	.L9:
 537 000c 01E400E0 		.word	-536812543
 538              		.cfi_endproc
 539              	.LFE6:
 540              		.size	ADC_SAR_1_IRQ_SetPriority, .-ADC_SAR_1_IRQ_SetPriority
 541              		.section	.text.ADC_SAR_1_IRQ_GetPriority,"ax",%progbits
 542              		.align	2
 543              		.global	ADC_SAR_1_IRQ_GetPriority
 544              		.thumb
 545              		.thumb_func
 546              		.type	ADC_SAR_1_IRQ_GetPriority, %function
 547              	ADC_SAR_1_IRQ_GetPriority:
 548              	.LFB7:
 261:Generated_Source\PSoC5/ADC_SAR_1_IRQ.c **** }
 262:Generated_Source\PSoC5/ADC_SAR_1_IRQ.c **** 
 263:Generated_Source\PSoC5/ADC_SAR_1_IRQ.c **** 
 264:Generated_Source\PSoC5/ADC_SAR_1_IRQ.c **** /*******************************************************************************
 265:Generated_Source\PSoC5/ADC_SAR_1_IRQ.c **** * Function Name: ADC_SAR_1_IRQ_GetPriority
 266:Generated_Source\PSoC5/ADC_SAR_1_IRQ.c **** ********************************************************************************
 267:Generated_Source\PSoC5/ADC_SAR_1_IRQ.c **** *
 268:Generated_Source\PSoC5/ADC_SAR_1_IRQ.c **** * Summary:
 269:Generated_Source\PSoC5/ADC_SAR_1_IRQ.c **** *   Gets the Priority of the Interrupt.
 270:Generated_Source\PSoC5/ADC_SAR_1_IRQ.c **** *
 271:Generated_Source\PSoC5/ADC_SAR_1_IRQ.c **** * Parameters:
 272:Generated_Source\PSoC5/ADC_SAR_1_IRQ.c **** *   None
 273:Generated_Source\PSoC5/ADC_SAR_1_IRQ.c **** *
 274:Generated_Source\PSoC5/ADC_SAR_1_IRQ.c **** * Return:
 275:Generated_Source\PSoC5/ADC_SAR_1_IRQ.c **** *   Priority of the interrupt, 0 being the highest priority
 276:Generated_Source\PSoC5/ADC_SAR_1_IRQ.c **** *    PSoC 3 and PSoC 5LP: Priority is from 0 to 7.
 277:Generated_Source\PSoC5/ADC_SAR_1_IRQ.c **** *    PSoC 4: Priority is from 0 to 3.
 278:Generated_Source\PSoC5/ADC_SAR_1_IRQ.c **** *
 279:Generated_Source\PSoC5/ADC_SAR_1_IRQ.c **** *******************************************************************************/
 280:Generated_Source\PSoC5/ADC_SAR_1_IRQ.c **** uint8 ADC_SAR_1_IRQ_GetPriority(void)
 281:Generated_Source\PSoC5/ADC_SAR_1_IRQ.c **** {
 549              		.loc 1 281 0
 550              		.cfi_startproc
 551              		@ args = 0, pretend = 0, frame = 0
 552              		@ frame_needed = 0, uses_anonymous_args = 0
 553              		@ link register save eliminated.
 282:Generated_Source\PSoC5/ADC_SAR_1_IRQ.c ****     uint8 priority;
 283:Generated_Source\PSoC5/ADC_SAR_1_IRQ.c **** 
 284:Generated_Source\PSoC5/ADC_SAR_1_IRQ.c **** 
 285:Generated_Source\PSoC5/ADC_SAR_1_IRQ.c ****     priority = *ADC_SAR_1_IRQ_INTC_PRIOR >> 5;
ARM GAS  C:\Users\Luggi\AppData\Local\Temp\ccFSd0uD.s 			page 40


 554              		.loc 1 285 0
 555 0000 014B     		ldr	r3, .L12
 556 0002 1878     		ldrb	r0, [r3]	@ zero_extendqisi2
 557              	.LVL5:
 286:Generated_Source\PSoC5/ADC_SAR_1_IRQ.c **** 
 287:Generated_Source\PSoC5/ADC_SAR_1_IRQ.c ****     return priority;
 288:Generated_Source\PSoC5/ADC_SAR_1_IRQ.c **** }
 558              		.loc 1 288 0
 559 0004 4009     		lsrs	r0, r0, #5
 560              	.LVL6:
 561 0006 7047     		bx	lr
 562              	.L13:
 563              		.align	2
 564              	.L12:
 565 0008 01E400E0 		.word	-536812543
 566              		.cfi_endproc
 567              	.LFE7:
 568              		.size	ADC_SAR_1_IRQ_GetPriority, .-ADC_SAR_1_IRQ_GetPriority
 569              		.section	.text.ADC_SAR_1_IRQ_Enable,"ax",%progbits
 570              		.align	2
 571              		.global	ADC_SAR_1_IRQ_Enable
 572              		.thumb
 573              		.thumb_func
 574              		.type	ADC_SAR_1_IRQ_Enable, %function
 575              	ADC_SAR_1_IRQ_Enable:
 576              	.LFB8:
 289:Generated_Source\PSoC5/ADC_SAR_1_IRQ.c **** 
 290:Generated_Source\PSoC5/ADC_SAR_1_IRQ.c **** 
 291:Generated_Source\PSoC5/ADC_SAR_1_IRQ.c **** /*******************************************************************************
 292:Generated_Source\PSoC5/ADC_SAR_1_IRQ.c **** * Function Name: ADC_SAR_1_IRQ_Enable
 293:Generated_Source\PSoC5/ADC_SAR_1_IRQ.c **** ********************************************************************************
 294:Generated_Source\PSoC5/ADC_SAR_1_IRQ.c **** *
 295:Generated_Source\PSoC5/ADC_SAR_1_IRQ.c **** * Summary:
 296:Generated_Source\PSoC5/ADC_SAR_1_IRQ.c **** *   Enables the interrupt to the interrupt controller. Do not call this function
 297:Generated_Source\PSoC5/ADC_SAR_1_IRQ.c **** *   unless ISR_Start() has been called or the functionality of the ISR_Start() 
 298:Generated_Source\PSoC5/ADC_SAR_1_IRQ.c **** *   function, which sets the vector and the priority, has been called.
 299:Generated_Source\PSoC5/ADC_SAR_1_IRQ.c **** *
 300:Generated_Source\PSoC5/ADC_SAR_1_IRQ.c **** * Parameters:
 301:Generated_Source\PSoC5/ADC_SAR_1_IRQ.c **** *   None
 302:Generated_Source\PSoC5/ADC_SAR_1_IRQ.c **** *
 303:Generated_Source\PSoC5/ADC_SAR_1_IRQ.c **** * Return:
 304:Generated_Source\PSoC5/ADC_SAR_1_IRQ.c **** *   None
 305:Generated_Source\PSoC5/ADC_SAR_1_IRQ.c **** *
 306:Generated_Source\PSoC5/ADC_SAR_1_IRQ.c **** *******************************************************************************/
 307:Generated_Source\PSoC5/ADC_SAR_1_IRQ.c **** void ADC_SAR_1_IRQ_Enable(void)
 308:Generated_Source\PSoC5/ADC_SAR_1_IRQ.c **** {
 577              		.loc 1 308 0
 578              		.cfi_startproc
 579              		@ args = 0, pretend = 0, frame = 0
 580              		@ frame_needed = 0, uses_anonymous_args = 0
 581              		@ link register save eliminated.
 309:Generated_Source\PSoC5/ADC_SAR_1_IRQ.c ****     /* Enable the general interrupt. */
 310:Generated_Source\PSoC5/ADC_SAR_1_IRQ.c ****     *ADC_SAR_1_IRQ_INTC_SET_EN = ADC_SAR_1_IRQ__INTC_MASK;
 582              		.loc 1 310 0
 583 0000 0222     		movs	r2, #2
 584 0002 014B     		ldr	r3, .L15
 585 0004 1A60     		str	r2, [r3]
ARM GAS  C:\Users\Luggi\AppData\Local\Temp\ccFSd0uD.s 			page 41


 586 0006 7047     		bx	lr
 587              	.L16:
 588              		.align	2
 589              	.L15:
 590 0008 00E100E0 		.word	-536813312
 591              		.cfi_endproc
 592              	.LFE8:
 593              		.size	ADC_SAR_1_IRQ_Enable, .-ADC_SAR_1_IRQ_Enable
 594              		.section	.text.ADC_SAR_1_IRQ_GetState,"ax",%progbits
 595              		.align	2
 596              		.global	ADC_SAR_1_IRQ_GetState
 597              		.thumb
 598              		.thumb_func
 599              		.type	ADC_SAR_1_IRQ_GetState, %function
 600              	ADC_SAR_1_IRQ_GetState:
 601              	.LFB9:
 311:Generated_Source\PSoC5/ADC_SAR_1_IRQ.c **** }
 312:Generated_Source\PSoC5/ADC_SAR_1_IRQ.c **** 
 313:Generated_Source\PSoC5/ADC_SAR_1_IRQ.c **** 
 314:Generated_Source\PSoC5/ADC_SAR_1_IRQ.c **** /*******************************************************************************
 315:Generated_Source\PSoC5/ADC_SAR_1_IRQ.c **** * Function Name: ADC_SAR_1_IRQ_GetState
 316:Generated_Source\PSoC5/ADC_SAR_1_IRQ.c **** ********************************************************************************
 317:Generated_Source\PSoC5/ADC_SAR_1_IRQ.c **** *
 318:Generated_Source\PSoC5/ADC_SAR_1_IRQ.c **** * Summary:
 319:Generated_Source\PSoC5/ADC_SAR_1_IRQ.c **** *   Gets the state (enabled, disabled) of the Interrupt.
 320:Generated_Source\PSoC5/ADC_SAR_1_IRQ.c **** *
 321:Generated_Source\PSoC5/ADC_SAR_1_IRQ.c **** * Parameters:
 322:Generated_Source\PSoC5/ADC_SAR_1_IRQ.c **** *   None
 323:Generated_Source\PSoC5/ADC_SAR_1_IRQ.c **** *
 324:Generated_Source\PSoC5/ADC_SAR_1_IRQ.c **** * Return:
 325:Generated_Source\PSoC5/ADC_SAR_1_IRQ.c **** *   1 if enabled, 0 if disabled.
 326:Generated_Source\PSoC5/ADC_SAR_1_IRQ.c **** *
 327:Generated_Source\PSoC5/ADC_SAR_1_IRQ.c **** *******************************************************************************/
 328:Generated_Source\PSoC5/ADC_SAR_1_IRQ.c **** uint8 ADC_SAR_1_IRQ_GetState(void)
 329:Generated_Source\PSoC5/ADC_SAR_1_IRQ.c **** {
 602              		.loc 1 329 0
 603              		.cfi_startproc
 604              		@ args = 0, pretend = 0, frame = 0
 605              		@ frame_needed = 0, uses_anonymous_args = 0
 606              		@ link register save eliminated.
 330:Generated_Source\PSoC5/ADC_SAR_1_IRQ.c ****     /* Get the state of the general interrupt. */
 331:Generated_Source\PSoC5/ADC_SAR_1_IRQ.c ****     return ((*ADC_SAR_1_IRQ_INTC_SET_EN & (uint32)ADC_SAR_1_IRQ__INTC_MASK) != 0u) ? 1u:0u;
 607              		.loc 1 331 0
 608 0000 044B     		ldr	r3, .L20
 609 0002 1B68     		ldr	r3, [r3]
 610 0004 13F0020F 		tst	r3, #2
 611 0008 01D0     		beq	.L19
 612 000a 0120     		movs	r0, #1
 613 000c 7047     		bx	lr
 614              	.L19:
 615 000e 0020     		movs	r0, #0
 332:Generated_Source\PSoC5/ADC_SAR_1_IRQ.c **** }
 616              		.loc 1 332 0
 617 0010 7047     		bx	lr
 618              	.L21:
 619 0012 00BF     		.align	2
 620              	.L20:
ARM GAS  C:\Users\Luggi\AppData\Local\Temp\ccFSd0uD.s 			page 42


 621 0014 00E100E0 		.word	-536813312
 622              		.cfi_endproc
 623              	.LFE9:
 624              		.size	ADC_SAR_1_IRQ_GetState, .-ADC_SAR_1_IRQ_GetState
 625              		.section	.text.ADC_SAR_1_IRQ_Disable,"ax",%progbits
 626              		.align	2
 627              		.global	ADC_SAR_1_IRQ_Disable
 628              		.thumb
 629              		.thumb_func
 630              		.type	ADC_SAR_1_IRQ_Disable, %function
 631              	ADC_SAR_1_IRQ_Disable:
 632              	.LFB10:
 333:Generated_Source\PSoC5/ADC_SAR_1_IRQ.c **** 
 334:Generated_Source\PSoC5/ADC_SAR_1_IRQ.c **** 
 335:Generated_Source\PSoC5/ADC_SAR_1_IRQ.c **** /*******************************************************************************
 336:Generated_Source\PSoC5/ADC_SAR_1_IRQ.c **** * Function Name: ADC_SAR_1_IRQ_Disable
 337:Generated_Source\PSoC5/ADC_SAR_1_IRQ.c **** ********************************************************************************
 338:Generated_Source\PSoC5/ADC_SAR_1_IRQ.c **** *
 339:Generated_Source\PSoC5/ADC_SAR_1_IRQ.c **** * Summary:
 340:Generated_Source\PSoC5/ADC_SAR_1_IRQ.c **** *   Disables the Interrupt in the interrupt controller.
 341:Generated_Source\PSoC5/ADC_SAR_1_IRQ.c **** *
 342:Generated_Source\PSoC5/ADC_SAR_1_IRQ.c **** * Parameters:
 343:Generated_Source\PSoC5/ADC_SAR_1_IRQ.c **** *   None
 344:Generated_Source\PSoC5/ADC_SAR_1_IRQ.c **** *
 345:Generated_Source\PSoC5/ADC_SAR_1_IRQ.c **** * Return:
 346:Generated_Source\PSoC5/ADC_SAR_1_IRQ.c **** *   None
 347:Generated_Source\PSoC5/ADC_SAR_1_IRQ.c **** *
 348:Generated_Source\PSoC5/ADC_SAR_1_IRQ.c **** *******************************************************************************/
 349:Generated_Source\PSoC5/ADC_SAR_1_IRQ.c **** void ADC_SAR_1_IRQ_Disable(void)
 350:Generated_Source\PSoC5/ADC_SAR_1_IRQ.c **** {
 633              		.loc 1 350 0
 634              		.cfi_startproc
 635              		@ args = 0, pretend = 0, frame = 0
 636              		@ frame_needed = 0, uses_anonymous_args = 0
 637              		@ link register save eliminated.
 351:Generated_Source\PSoC5/ADC_SAR_1_IRQ.c ****     /* Disable the general interrupt. */
 352:Generated_Source\PSoC5/ADC_SAR_1_IRQ.c ****     *ADC_SAR_1_IRQ_INTC_CLR_EN = ADC_SAR_1_IRQ__INTC_MASK;
 638              		.loc 1 352 0
 639 0000 0222     		movs	r2, #2
 640 0002 014B     		ldr	r3, .L23
 641 0004 1A60     		str	r2, [r3]
 642 0006 7047     		bx	lr
 643              	.L24:
 644              		.align	2
 645              	.L23:
 646 0008 80E100E0 		.word	-536813184
 647              		.cfi_endproc
 648              	.LFE10:
 649              		.size	ADC_SAR_1_IRQ_Disable, .-ADC_SAR_1_IRQ_Disable
 650              		.section	.text.ADC_SAR_1_IRQ_Start,"ax",%progbits
 651              		.align	2
 652              		.global	ADC_SAR_1_IRQ_Start
 653              		.thumb
 654              		.thumb_func
 655              		.type	ADC_SAR_1_IRQ_Start, %function
 656              	ADC_SAR_1_IRQ_Start:
 657              	.LFB0:
ARM GAS  C:\Users\Luggi\AppData\Local\Temp\ccFSd0uD.s 			page 43


  62:Generated_Source\PSoC5/ADC_SAR_1_IRQ.c ****     /* For all we know the interrupt is active. */
 658              		.loc 1 62 0
 659              		.cfi_startproc
 660              		@ args = 0, pretend = 0, frame = 0
 661              		@ frame_needed = 0, uses_anonymous_args = 0
 662 0000 08B5     		push	{r3, lr}
 663              		.cfi_def_cfa_offset 8
 664              		.cfi_offset 3, -8
 665              		.cfi_offset 14, -4
  64:Generated_Source\PSoC5/ADC_SAR_1_IRQ.c **** 
 666              		.loc 1 64 0
 667 0002 FFF7FEFF 		bl	ADC_SAR_1_IRQ_Disable
 668              	.LVL7:
  67:Generated_Source\PSoC5/ADC_SAR_1_IRQ.c **** 
 669              		.loc 1 67 0
 670 0006 0448     		ldr	r0, .L27
 671 0008 FFF7FEFF 		bl	ADC_SAR_1_IRQ_SetVector
 672              	.LVL8:
  70:Generated_Source\PSoC5/ADC_SAR_1_IRQ.c **** 
 673              		.loc 1 70 0
 674 000c 0720     		movs	r0, #7
 675 000e FFF7FEFF 		bl	ADC_SAR_1_IRQ_SetPriority
 676              	.LVL9:
  73:Generated_Source\PSoC5/ADC_SAR_1_IRQ.c **** }
 677              		.loc 1 73 0
 678 0012 FFF7FEFF 		bl	ADC_SAR_1_IRQ_Enable
 679              	.LVL10:
 680 0016 08BD     		pop	{r3, pc}
 681              	.L28:
 682              		.align	2
 683              	.L27:
 684 0018 00000000 		.word	ADC_SAR_1_IRQ_Interrupt
 685              		.cfi_endproc
 686              	.LFE0:
 687              		.size	ADC_SAR_1_IRQ_Start, .-ADC_SAR_1_IRQ_Start
 688              		.section	.text.ADC_SAR_1_IRQ_StartEx,"ax",%progbits
 689              		.align	2
 690              		.global	ADC_SAR_1_IRQ_StartEx
 691              		.thumb
 692              		.thumb_func
 693              		.type	ADC_SAR_1_IRQ_StartEx, %function
 694              	ADC_SAR_1_IRQ_StartEx:
 695              	.LFB1:
 105:Generated_Source\PSoC5/ADC_SAR_1_IRQ.c ****     /* For all we know the interrupt is active. */
 696              		.loc 1 105 0
 697              		.cfi_startproc
 698              		@ args = 0, pretend = 0, frame = 0
 699              		@ frame_needed = 0, uses_anonymous_args = 0
 700              	.LVL11:
 701 0000 10B5     		push	{r4, lr}
 702              		.cfi_def_cfa_offset 8
 703              		.cfi_offset 4, -8
 704              		.cfi_offset 14, -4
 705 0002 0446     		mov	r4, r0
 107:Generated_Source\PSoC5/ADC_SAR_1_IRQ.c **** 
 706              		.loc 1 107 0
 707 0004 FFF7FEFF 		bl	ADC_SAR_1_IRQ_Disable
ARM GAS  C:\Users\Luggi\AppData\Local\Temp\ccFSd0uD.s 			page 44


 708              	.LVL12:
 110:Generated_Source\PSoC5/ADC_SAR_1_IRQ.c **** 
 709              		.loc 1 110 0
 710 0008 2046     		mov	r0, r4
 711 000a FFF7FEFF 		bl	ADC_SAR_1_IRQ_SetVector
 712              	.LVL13:
 113:Generated_Source\PSoC5/ADC_SAR_1_IRQ.c **** 
 713              		.loc 1 113 0
 714 000e 0720     		movs	r0, #7
 715 0010 FFF7FEFF 		bl	ADC_SAR_1_IRQ_SetPriority
 716              	.LVL14:
 116:Generated_Source\PSoC5/ADC_SAR_1_IRQ.c **** }
 717              		.loc 1 116 0
 718 0014 FFF7FEFF 		bl	ADC_SAR_1_IRQ_Enable
 719              	.LVL15:
 720 0018 10BD     		pop	{r4, pc}
 721              		.cfi_endproc
 722              	.LFE1:
 723              		.size	ADC_SAR_1_IRQ_StartEx, .-ADC_SAR_1_IRQ_StartEx
 724 001a 00BF     		.section	.text.ADC_SAR_1_IRQ_Stop,"ax",%progbits
 725              		.align	2
 726              		.global	ADC_SAR_1_IRQ_Stop
 727              		.thumb
 728              		.thumb_func
 729              		.type	ADC_SAR_1_IRQ_Stop, %function
 730              	ADC_SAR_1_IRQ_Stop:
 731              	.LFB2:
 135:Generated_Source\PSoC5/ADC_SAR_1_IRQ.c ****     /* Disable this interrupt. */
 732              		.loc 1 135 0
 733              		.cfi_startproc
 734              		@ args = 0, pretend = 0, frame = 0
 735              		@ frame_needed = 0, uses_anonymous_args = 0
 736 0000 08B5     		push	{r3, lr}
 737              		.cfi_def_cfa_offset 8
 738              		.cfi_offset 3, -8
 739              		.cfi_offset 14, -4
 137:Generated_Source\PSoC5/ADC_SAR_1_IRQ.c **** 
 740              		.loc 1 137 0
 741 0002 FFF7FEFF 		bl	ADC_SAR_1_IRQ_Disable
 742              	.LVL16:
 140:Generated_Source\PSoC5/ADC_SAR_1_IRQ.c **** }
 743              		.loc 1 140 0
 744 0006 0248     		ldr	r0, .L33
 745 0008 FFF7FEFF 		bl	ADC_SAR_1_IRQ_SetVector
 746              	.LVL17:
 747 000c 08BD     		pop	{r3, pc}
 748              	.L34:
 749 000e 00BF     		.align	2
 750              	.L33:
 751 0010 00000000 		.word	IntDefaultHandler
 752              		.cfi_endproc
 753              	.LFE2:
 754              		.size	ADC_SAR_1_IRQ_Stop, .-ADC_SAR_1_IRQ_Stop
 755              		.section	.text.ADC_SAR_1_IRQ_SetPending,"ax",%progbits
 756              		.align	2
 757              		.global	ADC_SAR_1_IRQ_SetPending
 758              		.thumb
ARM GAS  C:\Users\Luggi\AppData\Local\Temp\ccFSd0uD.s 			page 45


 759              		.thumb_func
 760              		.type	ADC_SAR_1_IRQ_SetPending, %function
 761              	ADC_SAR_1_IRQ_SetPending:
 762              	.LFB11:
 353:Generated_Source\PSoC5/ADC_SAR_1_IRQ.c **** }
 354:Generated_Source\PSoC5/ADC_SAR_1_IRQ.c **** 
 355:Generated_Source\PSoC5/ADC_SAR_1_IRQ.c **** 
 356:Generated_Source\PSoC5/ADC_SAR_1_IRQ.c **** /*******************************************************************************
 357:Generated_Source\PSoC5/ADC_SAR_1_IRQ.c **** * Function Name: ADC_SAR_1_IRQ_SetPending
 358:Generated_Source\PSoC5/ADC_SAR_1_IRQ.c **** ********************************************************************************
 359:Generated_Source\PSoC5/ADC_SAR_1_IRQ.c **** *
 360:Generated_Source\PSoC5/ADC_SAR_1_IRQ.c **** * Summary:
 361:Generated_Source\PSoC5/ADC_SAR_1_IRQ.c **** *   Causes the Interrupt to enter the pending state, a software method of
 362:Generated_Source\PSoC5/ADC_SAR_1_IRQ.c **** *   generating the interrupt.
 363:Generated_Source\PSoC5/ADC_SAR_1_IRQ.c **** *
 364:Generated_Source\PSoC5/ADC_SAR_1_IRQ.c **** * Parameters:
 365:Generated_Source\PSoC5/ADC_SAR_1_IRQ.c **** *   None
 366:Generated_Source\PSoC5/ADC_SAR_1_IRQ.c **** *
 367:Generated_Source\PSoC5/ADC_SAR_1_IRQ.c **** * Return:
 368:Generated_Source\PSoC5/ADC_SAR_1_IRQ.c **** *   None
 369:Generated_Source\PSoC5/ADC_SAR_1_IRQ.c **** *
 370:Generated_Source\PSoC5/ADC_SAR_1_IRQ.c **** * Side Effects:
 371:Generated_Source\PSoC5/ADC_SAR_1_IRQ.c **** *   If interrupts are enabled and the interrupt is set up properly, the ISR is
 372:Generated_Source\PSoC5/ADC_SAR_1_IRQ.c **** *   entered (depending on the priority of this interrupt and other pending 
 373:Generated_Source\PSoC5/ADC_SAR_1_IRQ.c **** *   interrupts).
 374:Generated_Source\PSoC5/ADC_SAR_1_IRQ.c **** *
 375:Generated_Source\PSoC5/ADC_SAR_1_IRQ.c **** *******************************************************************************/
 376:Generated_Source\PSoC5/ADC_SAR_1_IRQ.c **** void ADC_SAR_1_IRQ_SetPending(void)
 377:Generated_Source\PSoC5/ADC_SAR_1_IRQ.c **** {
 763              		.loc 1 377 0
 764              		.cfi_startproc
 765              		@ args = 0, pretend = 0, frame = 0
 766              		@ frame_needed = 0, uses_anonymous_args = 0
 767              		@ link register save eliminated.
 378:Generated_Source\PSoC5/ADC_SAR_1_IRQ.c ****     *ADC_SAR_1_IRQ_INTC_SET_PD = ADC_SAR_1_IRQ__INTC_MASK;
 768              		.loc 1 378 0
 769 0000 0222     		movs	r2, #2
 770 0002 014B     		ldr	r3, .L36
 771 0004 1A60     		str	r2, [r3]
 772 0006 7047     		bx	lr
 773              	.L37:
 774              		.align	2
 775              	.L36:
 776 0008 00E200E0 		.word	-536813056
 777              		.cfi_endproc
 778              	.LFE11:
 779              		.size	ADC_SAR_1_IRQ_SetPending, .-ADC_SAR_1_IRQ_SetPending
 780              		.section	.text.ADC_SAR_1_IRQ_ClearPending,"ax",%progbits
 781              		.align	2
 782              		.global	ADC_SAR_1_IRQ_ClearPending
 783              		.thumb
 784              		.thumb_func
 785              		.type	ADC_SAR_1_IRQ_ClearPending, %function
 786              	ADC_SAR_1_IRQ_ClearPending:
 787              	.LFB12:
 379:Generated_Source\PSoC5/ADC_SAR_1_IRQ.c **** }
 380:Generated_Source\PSoC5/ADC_SAR_1_IRQ.c **** 
ARM GAS  C:\Users\Luggi\AppData\Local\Temp\ccFSd0uD.s 			page 46


 381:Generated_Source\PSoC5/ADC_SAR_1_IRQ.c **** 
 382:Generated_Source\PSoC5/ADC_SAR_1_IRQ.c **** /*******************************************************************************
 383:Generated_Source\PSoC5/ADC_SAR_1_IRQ.c **** * Function Name: ADC_SAR_1_IRQ_ClearPending
 384:Generated_Source\PSoC5/ADC_SAR_1_IRQ.c **** ********************************************************************************
 385:Generated_Source\PSoC5/ADC_SAR_1_IRQ.c **** *
 386:Generated_Source\PSoC5/ADC_SAR_1_IRQ.c **** * Summary:
 387:Generated_Source\PSoC5/ADC_SAR_1_IRQ.c **** *   Clears a pending interrupt in the interrupt controller.
 388:Generated_Source\PSoC5/ADC_SAR_1_IRQ.c **** *
 389:Generated_Source\PSoC5/ADC_SAR_1_IRQ.c **** *   Note Some interrupt sources are clear-on-read and require the block 
 390:Generated_Source\PSoC5/ADC_SAR_1_IRQ.c **** *   interrupt/status register to be read/cleared with the appropriate block API 
 391:Generated_Source\PSoC5/ADC_SAR_1_IRQ.c **** *   (GPIO, UART, and so on). Otherwise the ISR will continue to remain in 
 392:Generated_Source\PSoC5/ADC_SAR_1_IRQ.c **** *   pending state even though the interrupt itself is cleared using this API.
 393:Generated_Source\PSoC5/ADC_SAR_1_IRQ.c **** *
 394:Generated_Source\PSoC5/ADC_SAR_1_IRQ.c **** * Parameters:
 395:Generated_Source\PSoC5/ADC_SAR_1_IRQ.c **** *   None
 396:Generated_Source\PSoC5/ADC_SAR_1_IRQ.c **** *
 397:Generated_Source\PSoC5/ADC_SAR_1_IRQ.c **** * Return:
 398:Generated_Source\PSoC5/ADC_SAR_1_IRQ.c **** *   None
 399:Generated_Source\PSoC5/ADC_SAR_1_IRQ.c **** *
 400:Generated_Source\PSoC5/ADC_SAR_1_IRQ.c **** *******************************************************************************/
 401:Generated_Source\PSoC5/ADC_SAR_1_IRQ.c **** void ADC_SAR_1_IRQ_ClearPending(void)
 402:Generated_Source\PSoC5/ADC_SAR_1_IRQ.c **** {
 788              		.loc 1 402 0
 789              		.cfi_startproc
 790              		@ args = 0, pretend = 0, frame = 0
 791              		@ frame_needed = 0, uses_anonymous_args = 0
 792              		@ link register save eliminated.
 403:Generated_Source\PSoC5/ADC_SAR_1_IRQ.c ****     *ADC_SAR_1_IRQ_INTC_CLR_PD = ADC_SAR_1_IRQ__INTC_MASK;
 793              		.loc 1 403 0
 794 0000 0222     		movs	r2, #2
 795 0002 014B     		ldr	r3, .L39
 796 0004 1A60     		str	r2, [r3]
 797 0006 7047     		bx	lr
 798              	.L40:
 799              		.align	2
 800              	.L39:
 801 0008 80E200E0 		.word	-536812928
 802              		.cfi_endproc
 803              	.LFE12:
 804              		.size	ADC_SAR_1_IRQ_ClearPending, .-ADC_SAR_1_IRQ_ClearPending
 805              		.text
 806              	.Letext0:
 807              		.file 2 "Generated_Source\\PSoC5/cytypes.h"