ARM GAS  C:\Users\Luggi\AppData\Local\Temp\cckBzFkb.s 			page 1


   1              		.syntax unified
   2              		.cpu cortex-m3
   3              		.fpu softvfp
   4              		.eabi_attribute 20, 1
   5              		.eabi_attribute 21, 1
   6              		.eabi_attribute 23, 3
   7              		.eabi_attribute 24, 1
   8              		.eabi_attribute 25, 1
   9              		.eabi_attribute 26, 1
  10              		.eabi_attribute 30, 1
  11              		.eabi_attribute 34, 1
  12              		.eabi_attribute 18, 4
  13              		.thumb
  14              		.file	"ADC_SAR_Seq_2_IRQ.c"
  15              		.text
  16              	.Ltext0:
  17              		.section	.gnu.lto_.profile.53c7cb31,"",%progbits
  18 0000 789C6366 		.ascii	"x\234cf```e\200\000F\206\311\214:\000\002q\000\312"
  18      60606065 
  18      80004686 
  18      C98C3A00 
  18      027100CA 
  19              		.text
  20              		.section	.gnu.lto_.inline.53c7cb31,"",%progbits
  21 0000 789C858E 		.ascii	"x\234\205\216\315\015\200 \014F?\240\340\177<zt\001"
  21      CD0D8020 
  21      0C463FA0 
  21      E07F3C7A 
  21      7401
  22 0012 CF1E1DC1 		.ascii	"\317\036\035\301\331\034\301Q\034\301\221l!!jM\344\320"
  22      D91CC151 
  22      1CC1916C 
  22      21216A4D 
  22      E4D0
  23 0024 368F07FD 		.ascii	"6\217\007\375\034\276\317lR\357\000g\015,\217a\037\245"
  23      1CBECF6C 
  23      52EF0067 
  23      0D2C8F61 
  23      1FA5
  24 0036 C1C01313 		.ascii	"\301\300\023\023\332\307\214\254FN\220a\231\337\237"
  24      DAC78CAC 
  24      464E9061 
  24      99DF9F
  25 0045 7DC23C90 		.ascii	"}\302<\220\334\221\326=\3101\312\252\354C\021\030\225"
  25      DC91D63D 
  25      C831CAAA 
  25      EC431118 
  25      95
  26 0056 C79251A1 		.ascii	"\307\222Q\241\255\022\325\364\312WK\242F\202\246\032"
  26      AD12D5F4 
  26      CA574BA2 
  26      4682A61A 
  27 0066 41F5EB6D 		.ascii	"A\365\353mk$5\302\360\024o\277\264:@\247\021.\001\316"
  27      6B2435C2 
  27      F0146FBF 
  27      B43A40A7 
  27      112E01CE 
ARM GAS  C:\Users\Luggi\AppData\Local\Temp\cckBzFkb.s 			page 2


  28 007a 15AA     		.ascii	"\025\252"
  29              		.text
  30              		.section	.gnu.lto_.jmpfuncs.53c7cb31,"",%progbits
  31 0000 789C6366 		.ascii	"x\234cf\300\016&Bi^ f\004\202z&\006\006f\020\315\302"
  31      C00E2642 
  31      695E2066 
  31      04827A26 
  31      06066610 
  32 0016 C0C0CAC0 		.ascii	"\300\300\312\300\300\306\300\300\316\300\300\001\222"
  32      C0C6C0C0 
  32      CEC0C001 
  32      92
  33 0023 64FAC8C4 		.ascii	"d\372\310\304\370}\361\203\327\214/\230~2\001E\031\227"
  33      F87DF183 
  33      D78C2F98 
  33      7E320145 
  33      1997
  34 0035 334A4144 		.ascii	"3JAD\347]\356[\307T\373\273\241\243\201\343'\023\343"
  34      E75DEE5B 
  34      C754FBBB 
  34      A1A381E3 
  34      2713E3
  35 0048 672690EA 		.ascii	"g&\220\352\025\214\265\014\014\234 \023\201j J\231\313"
  35      158CB50C 
  35      0C9C2013 
  35      816A204A 
  35      99CB
  36 005a 1980525C 		.ascii	"\031\200R\\\014\33051\002\305W\2024\361@\034\003\000"
  36      0CD83531 
  36      02C55782 
  36      34F1401C 
  36      0300
  37 006c 01121DD7 		.ascii	"\001\022\035\327"
  38              		.text
  39              		.section	.gnu.lto_.pureconst.53c7cb31,"",%progbits
  40 0000 789C6366 		.ascii	"x\234cf``\220f\200\000^\006\006F)&Vf)\026)V)6)v)\016"
  40      60609066 
  40      80005E06 
  40      06462926 
  40      56662916 
  41 001c 094E092E 		.ascii	"\011N\011.\011\036)^)\000\025G\001\231"
  41      091E295E 
  41      29001547 
  41      0199
  42              		.text
  43              		.section	.gnu.lto_ADC_SAR_Seq_2_IRQ_Interrupt.53c7cb31,"",%progbits
  44 0000 789C6366 		.ascii	"x\234cf\300\004R@\\\002\304\272@\314\310\314\300\310"
  44      C0045240 
  44      5C02C4BA 
  44      40CCC8CC 
  44      C0C8
  45 0012 34E11C03 		.ascii	"4\341\034\003C#\007\023##\210\301\300\310P\317\304X"
  45      43230713 
  45      232388C1 
  45      C0C850CF 
  45      C458
  46 0024 CFF892E9 		.ascii	"\317\370\222\351#\023\343\204\003\253gp\253/mhh\370"
ARM GAS  C:\Users\Luggi\AppData\Local\Temp\cckBzFkb.s 			page 3


  46      2313E384 
  46      03AB6770 
  46      AB2F6D68 
  46      68F8
  47 0036 D07493A5 		.ascii	"\320t\223\245U\342'\023\003\303g&\2101\214\313\031\325"
  47      55E22713 
  47      03C36726 
  47      88318CCB 
  47      19D5
  48 0048 19806A3E 		.ascii	"\031\200j>\266\374\275\316\315\326\002T#\000\221c\\"
  48      B6FCBDCE 
  48      CDD60254 
  48      23009163 
  48      5C
  49 0059 C1C8C608 		.ascii	"\301\310\306\010\244\327\013\035h\370\377\377\362\223"
  49      A4D70B1D 
  49      68F8FFFF 
  49      F293
  50 0067 435BB881 		.ascii	"C[\270\201\302O\200\030d\376S&&\020\315|\217\221\021"
  50      C24F8018 
  50      64FE5326 
  50      2610CD7C 
  50      8F9111
  51 007a A41064D2 		.ascii	"\244\020d\322\023&F\220\020P\201\266{j^jQbIjJ|p~iQr"
  51      13264690 
  51      105081B6 
  51      7B6A5E6A 
  51      5162496A 
  52 0095 6A4C4070 		.ascii	"jL@p\276\263i\214\243\213s|\260cP|pja\274Q\274gP\240"
  52      BEB3698C 
  52      A38B737C 
  52      B063507C 
  52      706A61BC 
  53 00ae 5E320300 		.ascii	"^2\003\000^\3267\373"
  53      5ED637FB 
  54              		.text
  55              		.section	.gnu.lto_ADC_SAR_Seq_2_IRQ_SetVector.53c7cb31,"",%progbits
  56 0000 789C6550 		.ascii	"x\234ePMH\224Q\024}\347\276\317\311\230A\244\225\314"
  56      4D489451 
  56      147DE7BE 
  56      CFC99841 
  56      A495CC
  57 0013 A6406416 		.ascii	"\246@d\026\302,\212Z'\012\331&\312\221(\020>\246\231"
  57      C22C8A5A 
  57      270AD926 
  57      CA912810 
  57      3EA699
  58 0026 6F570D7D 		.ascii	"oW\015}\352\3327\323\344\244.\222\202\220\302\205H\364"
  58      EADA37D3 
  58      E4A42E92 
  58      8290C285 
  58      48F4
  59 0038 33A639D5 		.ascii	"3\2469\325\3026}D\213\201J\211\262H$\215&\231\214~d"
  59      C2367D44 
  59      8B814A89 
  59      B248248D 
  59      26998C7E 
ARM GAS  C:\Users\Luggi\AppData\Local\Temp\cckBzFkb.s 			page 4


  60 004d 2299454C 		.ascii	"\"\231EL\367~\323&z\360x\357\036\3569\367\334\243\325"
  60      F77ED326 
  60      7AF078EF 
  60      1EEE39F7 
  60      DCA3D5
  61 0060 FF27CCB7 		.ascii	"\377'\314\267\010\245\272\370\205V\240\361E\245\322"
  61      08A5BAF8 
  61      8556A0F1 
  61      45A5D2
  62 006f 8D04C847 		.ascii	"\215\004\310GA\015\021\206\360\231\266\010\343^~\"\030"
  62      410D1186 
  62      F099B608 
  62      E35E7E22 
  62      18
  63 0080 B9618CF9 		.ascii	"\271a\214\371\221\251\264\\h\251\222R\025\252\313\340"
  63      91A9B45C 
  63      68A99252 
  63      15AACBE0 
  64 0090 2622D2F2 		.ascii	"&\"\322\362\345\335\245\220\216B\361\177a\366\347\213"
  64      E5DDA590 
  64      8E42F17F 
  64      61F6E78B 
  65 00a0 6099AA84 		.ascii	"`\231\252\204=R>\272\\\234\010HI\226\224\233#\313Ot"
  65      3D523EBA 
  65      5C9C0848 
  65      4996949B 
  65      23CB4F74 
  66 00b4 DBB43119 		.ascii	"\333\2641\031o\255`\016ZU\322\270\005\315z\270\2150"
  66      6FAD600E 
  66      5A55D2B8 
  66      05CD7AB8 
  66      8D30
  67 00c6 EE20AC18 		.ascii	"\356 \254\030R\310\243M\332\037~(\347-}\300\027\376"
  67      52C8A34D 
  67      DA1F7E28 
  67      E72D7DC0 
  67      17FE
  68 00d8 9E9F5AB6 		.ascii	"\236\237Z\266Z\247\230\272~-\367,d\212&\273^\253\355"
  68      5AA798BA 
  68      7E2DF72C 
  68      648A26BB 
  68      5EABED
  69 00eb AE928599 		.ascii	"\256\222\205\231\177\025\352\207)[\331\337o\203\201"
  69      7F15EA87 
  69      295BD9DF 
  69      6F8381
  70 00fa 2C5B6FC6 		.ascii	",[o\306]\264\326mc\026\001\336\034\202\314\355\362L"
  70      5DB4D66D 
  70      631601DE 
  70      1C82CCED 
  70      F24C
  71 010c AD56797E 		.ascii	"\255Vy~\245\034\321\015\254\300\220\206?\\\225\270W"
  71      A51CD10D 
  71      ACC09086 
  71      3F5C95B8 
  71      57
  72 011d B2F84424 		.ascii	"\262\370D$\257^A\346\327\350\306\302\011\241o\223\004"
ARM GAS  C:\Users\Luggi\AppData\Local\Temp\cckBzFkb.s 			page 5


  72      AF5E41E6 
  72      D7E8C6C2 
  72      09A16F93 
  72      04
  73 012e 53783A96 		.ascii	"Sx:\226#Y\255\341\342\312y\323$\003\327JK/\033}\310"
  73      2359ADE1 
  73      E2CA79D3 
  73      2403D74A 
  73      4B2F1B7D 
  74 0143 9FFFFAE3 		.ascii	"\237\377\372\343\310\267\320$\256\247\215\361\242bt"
  74      C8B7D024 
  74      AEA78DF1 
  74      A26274
  75 0152 8E1DDE13 		.ascii	"\216\035\336\023\207\230\307$\324\033d\314I\337\017"
  75      8798C724 
  75      D41B64CC 
  75      49DF0F
  76 0161 0F6651C5 		.ascii	"\017fQ\305C\256\316/\275\332'\030\363\313\253\303\017"
  76      43AECE2F 
  76      BDDA2718 
  76      F3CBABC3 
  76      0F
  77 0172 FCF0AC6E 		.ascii	"\374\360\254n\221\373\272\270\232\333\371W\256\235c"
  77      91FBBAB8 
  77      9ADBF957 
  77      AE9D63
  78 0181 62060ABE 		.ascii	"b\006\012\276\332}V\333\346\334\336#\355=>\"lI\240D"
  78      DA7D56DB 
  78      E6DCDE23 
  78      ED3D3E22 
  78      6C49A044 
  79 0195 10EBBC48 		.ascii	"\020\353\274H\373!\347\254\343\306\007\234\244\035K"
  79      FB21E7AC 
  79      E3C6079C 
  79      A41D4B
  80 01a4 0DBA09A7 		.ascii	"\015\272\011\247\357h,\325\271\277\257\243\253\323\216"
  80      EF682CD5 
  80      B9BFAFA3 
  80      ABD38E
  81 01b3 75F4D831 		.ascii	"u\364\3301\347\234\275\327>\334s,\232P;\342\311\244"
  81      E79CBDD7 
  81      3EDC732C 
  81      9A503BE2 
  81      C9A4
  82 01c5 EBF4F737 		.ascii	"\353\364\3677\271\3613\307\235\304@\312\355\215\237"
  82      B9F133C7 
  82      9DC440CA 
  82      ED8D9F
  83 01d4 3AEDFC01 		.ascii	":\355\374\001-\326\272s"
  83      2DD6BA73 
  84              		.text
  85              		.section	.gnu.lto_ADC_SAR_Seq_2_IRQ_GetVector.53c7cb31,"",%progbits
  86 0000 789C6366 		.ascii	"x\234cf\300\004R@<\231\221\201\301\006H32302M8\307\300"
  86      C0045240 
  86      3C999181 
  86      C1064833 
  86      32333032 
ARM GAS  C:\Users\Luggi\AppData\Local\Temp\cckBzFkb.s 			page 6


  87 0018 D0C8C1C4 		.ascii	"\320\310\301\304\310\010b002\32431\3263\276d\372\310"
  87      C8086230 
  87      3032D433 
  87      31D633BE 
  87      64FAC8
  88 002b C4B873DD 		.ascii	"\304\270s\335\227\263\334/\230~21(0\000\271\273&\235"
  88      97B3DC2F 
  88      987E3231 
  88      283000B9 
  88      BB269D
  89 003e 98C106E2 		.ascii	"\230\301\006\3422\262\200\270\327\257\315\270\316\251"
  89      32B280B8 
  89      D7AFCDB8 
  89      CEA9
  90 004c BEB4A1A1 		.ascii	"\276\264\241\241\351C\323\317\212\231S\026\000e\230"
  90      E943D3CF 
  90      8A995316 
  90      006598
  91 005b 183E3331 		.ascii	"\030>310.g\224b\\\301\010\262\210q%\243:H\355\326\207"
  91      302E6794 
  91      625CC108 
  91      B2887125 
  91      A33A48ED 
  92 0071 2F56B330 		.ascii	"/V\2630\3531\202\330\357W/\274\312\242\274\020\250\357"
  92      EB3182D8 
  92      EF572FBC 
  92      CAA2BC10 
  92      A8EF
  93 0083 C1A9F6D3 		.ascii	"\301\251\366\323<\015'\032Z\036\374\377/\377\223\211"
  93      3C0D271A 
  93      5A1EFCFF 
  93      2FFF9389 
  94 0093 99711523 		.ascii	"\231q\025#3\252~\020\000j\371\330\362\367:7[KCC\203"
  94      33AA7E10 
  94      006AF9D8 
  94      F2F73A37 
  94      5B4B4343 
  95 00a8 00E36A46 		.ascii	"\000\343jFe\220%@\263\3270\262\001\375\301\010\022Y"
  95      65902540 
  95      B3D730B2 
  95      01FDC108 
  95      1259
  96 00ba 2F74A0E1 		.ascii	"/t\240\341\377\377\317O&\2770ff\001\232\000\024bf\000"
  96      FFFFCF4F 
  96      26BF3066 
  96      66019A00 
  96      14626600 
  97 00ce 3987E109 		.ascii	"9\207\341\011\020\203<\366\024\310\001\322\314\267\030"
  97      10833CF6 
  97      14C801D2 
  97      CCB718
  98 00dd 9BBE753D 		.ascii	"\233\276u=\333\023\001\322\375\235\011\344\313MG\272"
  98      DB1301D2 
  98      FD9D09E4 
  98      CB4D47BA 
  99 00ed DB9940DE 		.ascii	"\333\231@\336b\351\270\325\334\300\007\262\357\376\223"
  99      62E9B8D5 
ARM GAS  C:\Users\Luggi\AppData\Local\Temp\cckBzFkb.s 			page 7


  99      DCC007B2 
  99      EFFE93
 100 00fc F31739C0 		.ascii	"\363\0279\300B`\353\257<\356|\3073\227qvcC\303\001="
 100      4260EBAF 
 100      3CEE7CC7 
 100      33977176 
 100      6343C301 
 101 0111 903BD702 		.ascii	"\220;\327\002\035\270\016\344@\306\365\214s\031\031"
 101      1DB80EE4 
 101      40C6F58C 
 101      731919
 102 0120 AE313635 		.ascii	"\256165D\202\235\003\264\027h(\003\330\222o{\270 \226"
 102      44829D03 
 102      B4176828 
 102      03D8926F 
 102      7BB82096 
 103 0134 30038D78 		.ascii	"0\003\215xq\247m\0138\354\230=@&\276=w\247\235\023b"
 103      71A76D0B 
 103      38EC983D 
 103      4026BE3D 
 103      77A79D13 
 104 0149 2207D099 		.ascii	"\"\007\320\231@=\214\033\300\346m\004\231w\217\221\021"
 104      403D8C1B 
 104      C0E66D04 
 104      99778F91 
 104      11
 105 015a AA9301E4 		.ascii	"\252\223\001\344\001F\220\303\201\336\320vO\315K-J,"
 105      014690C3 
 105      81DED076 
 105      4FCD4B2D 
 105      4A2C
 106 016c 494D890F 		.ascii	"IM\211\017\316/-JN\215\011\010\316w6\215qtq\216\017"
 106      CE2F2D4A 
 106      4E8D0908 
 106      CE77368D 
 106      7174718E 
 107 0181 760C8A0F 		.ascii	"v\014\212\017N-\2147\212\367\014\012\324Kf\340+J\314"
 107      4E2D8C37 
 107      8AF70C0A 
 107      D44B66E0 
 107      2B4ACC
 108 0194 0D4B4D2E 		.ascii	"\015KM.\311/\012IL\312I\005\000M@\245\277"
 108      C92F0A49 
 108      4CCA4905 
 108      004D40A5 
 108      BF
 109              		.text
 110              		.section	.gnu.lto_ADC_SAR_Seq_2_IRQ_SetPriority.53c7cb31,"",%progbits
 111 0000 789C6590 		.ascii	"x\234e\220;H\003A\020\206\347\337\313\305HD\304J\257"
 111      3B480341 
 111      1086E7DF 
 111      CBC54844 
 111      C44AAF
 112 0013 95104449 		.ascii	"\225\020DI\241hmP\020;MZ\341\220xE\032\243!\026V\331"
 112      A1686D50 
 112      103B4D5A 
 112      E1907845 
ARM GAS  C:\Users\Luggi\AppData\Local\Temp\cckBzFkb.s 			page 8


 112      1AA32116 
 113 0029 D333AD0F 		.ascii	"\3233\255\017D\004\261Q|F\243\225`\345!\004S)\012\022"
 113      4404B151 
 113      7C46A395 
 113      60E52104 
 113      53290A12 
 114 003d 08E203A2 		.ascii	"\010\342\003\242h\247D\220\024\242\263Z\2720\314\356"
 114      68A74490 
 114      14A2B35A 
 114      BA30CCEE 
 115 004d CC3FDFFE 		.ascii	"\314?\337\376\273\032\375_\006G'\210\2729C#\210\371"
 115      BB1AFD5F 
 115      06472788 
 115      BA394323 
 115      88F9
 116 005f 0B22DB27 		.ascii	"\013\"\333'\000\265!PZ \215W\361.0\357fW\374\301M)\345"
 116      00B52150 
 116      5A208D57 
 116      F12E30EF 
 116      6657FCC1 
 117 0076 DBFA42F3 		.ascii	"\333\372B\363lSU\020U\304\037\006\333\010\262d\353\364"
 117      6C535510 
 117      55C41F06 
 117      DB08B264 
 117      EBF4
 118 0088 F144D742 		.ascii	"\361D\327B \336\027\355\354C]`C\312i\267\224\223=\250"
 118      20DE17ED 
 118      EC435D60 
 118      43CA69B7 
 118      94933DA8 
 119 009c 3273071A 		.ascii	"2s\007\032O\240\335@\253A\\ \354\"\240\304\357\316W"
 119      4FA0DD40 
 119      AB415C20 
 119      EC22A0C4 
 119      EFCE57
 120 00af D1EF7598 		.ascii	"\321\357u\230\335\360\307\304\036\274l\213\016\033]"
 120      DDF0C7C4 
 120      1EBC6C8B 
 120      0E1B5D
 121 00be F9FD5DC9 		.ascii	"\371\375]\311/\355\264xt@\351\005O\262\244\314\241<"
 121      2FEDB478 
 121      7440E905 
 121      4FB2A4CC 
 121      A13C
 122 00d0 3EF181B3 		.ascii	">\361\201\263V\302\314m\346\271\260\0145\372)\304'S"
 122      56C2CC6D 
 122      E6B9B00C 
 122      35FA29C4 
 122      2753
 123 00e2 05E69CE3 		.ascii	"\005\346\234\343;\357\213\250\012M'daP\011g\213\277"
 123      3BEF8BA8 
 123      0A4D2764 
 123      61500967 
 123      8BBF
 124 00f4 126E9EE7 		.ascii	"\022n\236\347\25735\252\351\231.\314\310ze\344\276|"
 124      AF3335AA 
 124      E9992ECC 
ARM GAS  C:\Users\Luggi\AppData\Local\Temp\cckBzFkb.s 			page 9


 124      C87A65E4 
 124      BE7C
 125 0106 79E5FB2D 		.ascii	"y\345\373-\221:\312\233\217\243\3325\254\332\216\355"
 125      913ACA9B 
 125      8FA3DA35 
 125      ACDA8EED 
 126 0116 EA0CC13E 		.ascii	"\352\014\301>\014\0340\206\220\303\032\370\032\272\203"
 126      0C1C3086 
 126      90C31AF8 
 126      1ABA83
 127 0125 EDAE4614 		.ascii	"\355\256F\024Q}D\231\037\305n\330[[\2775f%GR\326\250"
 127      517D4499 
 127      1FC56ED8 
 127      5B5BBF35 
 127      66254752 
 128 013b 194D4C26 		.ascii	"\031ML&c\326\360`4\321\3335\034\356\3535\243\341\210"
 128      63D6F060 
 128      34D1DB35 
 128      1CEEEB35 
 128      A3E188
 129 014e 19B526CC 		.ascii	"\031\265&\314\016s 2\024\212\221o<\031O$\343\251\251"
 129      0E732032 
 129      148A916F 
 129      3C194F24 
 129      E3A9A9
 130 0161 1F0FF07D 		.ascii	"\037\017\360}\030"
 130      18
 131              		.text
 132              		.section	.gnu.lto_ADC_SAR_Seq_2_IRQ_GetPriority.53c7cb31,"",%progbits
 133 0000 789C658F 		.ascii	"x\234e\217M(\204Q\024\206\317{\276\301h\220\2544\033"
 133      4D288451 
 133      1486CF7B 
 133      BEC16890 
 133      AC341B
 134 0013 0B0B892C 		.ascii	"\013\013\211,\024{Q\262\0333e5\365%\276\205\215a\032"
 134      147B51B2 
 134      1B336535 
 134      F525BE85 
 134      8D611A
 135 0026 0BABB9F3 		.ascii	"\013\253\271\363C\262\262P\3244\013\013\377?c\213\205"
 135      43B2B250 
 135      D4340B0B 
 135      FF3F638B 
 135      85
 136 0037 49F92922 		.ascii	"I\371)\"3\241\304\240F!\311d\242Y\360\271wX(\247n\347"
 136      33A1C4A0 
 136      4621C964 
 136      A259F0B9 
 136      775828A7 
 137 004d 747ADFF7 		.ascii	"tz\337\367<W\243\377e\227\257\013D\315\262C#\360\304"
 137      3C57A3FF 
 137      6597AF0B 
 137      44CDB243 
 137      23F0C4
 138 0060 3151C0CA 		.ascii	"1Q\300\312\200\032\010\344g\370\361\310\031\306\321"
 138      801A08E4 
 138      67F8F1C8 
ARM GAS  C:\Users\Luggi\AppData\Local\Temp\cckBzFkb.s 			page 10


 138      19C6D1
 139 006f C6571235 		.ascii	"\306W\0225\263B\004_\203S\327\266\221\312\034\023\275"
 139      B342045F 
 139      8353D7B6 
 139      91CA1C13 
 139      BD
 140 0080 31A1DE8E 		.ascii	"1\241\336\216Z\225\203y\324\220\024\316m\337m\024h\015"
 140      5A958379 
 140      D49014CE 
 140      6DDF6D14 
 140      680D
 141 0092 50732CBE 		.ascii	"Ps,\276\365TZ=#M\267\233\217{61-\302\267\246Y%\255X"
 141      F5545A3D 
 141      234DB79B 
 141      8F7B3631 
 141      2DC2B7A6 
 142 00aa 80F6D7AD 		.ascii	"\200\366\327\255J\0322\341\317\013[aX\010Q\216ET\253"
 142      4A1A32E1 
 142      CF0B5B61 
 142      5808518E 
 142      4554AB
 143 00bd 03327909 		.ascii	"\0032y\011\205\022\022j\023\253\210\013\323|\273\232"
 143      8512126A 
 143      13AB880B 
 143      D37CBB9A 
 144 00cd 1C6BB458 		.ascii	"\034k\264X\230r\254\260\225\222\322R\252\250\357\231"
 144      9872ACB0 
 144      9592D252 
 144      AAA8EF99 
 145 00dd 55D72EB1 		.ascii	"U\327.\261\363>\376r\350P\356\017V_\330\337M\214\026"
 145      F33EFE72 
 145      E850EE0F 
 145      565FD8DF 
 145      4D8C16
 146 00f0 3D708E39 		.ascii	"=p\2169x\020\022e\352\336M\372\344\324\232_\345\317"
 146      78101265 
 146      EADE4DFA 
 146      E4D49A5F 
 146      E5CF
 147 0102 8BB3EC7A 		.ascii	"\213\263\354zq\024\221@\0309\326\260\014;V \361\260"
 147      71149140 
 147      1839D6B0 
 147      0C3B5620 
 147      F1B0
 148 0114 8A28E812 		.ascii	"\212(\350\022\241\324h\026?\201\332O\346s2\262Y\242"
 148      A1D46816 
 148      3F81DA4F 
 148      E67332B2 
 148      59A2
 149 0126 022C0584 		.ascii	"\002,\005\2045\251=\007\347y%\223\024Q\012\201\270\231"
 149      35A93D07 
 149      E7792593 
 149      14510A81 
 149      B899
 150 0138 E05F0F29 		.ascii	"\340_\017)L(<y\257\256\335\3507\274\335>\243Wwy\206"
 150      4C283C79 
 150      AFAEDDE8 
ARM GAS  C:\Users\Luggi\AppData\Local\Temp\cckBzFkb.s 			page 11


 150      37BCDD3E 
 150      A3577779 
 151 014d BC3D86DB 		.ascii	"\274=\206\333\341\362\2646\271[\332ZuW\213Sw\031\203"
 151      E1F2B436 
 151      B95BDA5A 
 151      75578B53 
 151      771983
 152 0160 7AA3DEE1 		.ascii	"z\243\336\341\354l\350!\353\200\267\317\343\355\363"
 152      EC6CE821 
 152      EB80B7CF 
 152      E3EDF3
 153 016f 0D7F035A 		.ascii	"\015\177\003Z-\212\247"
 153      2D8AA7
 154              		.text
 155              		.section	.gnu.lto_ADC_SAR_Seq_2_IRQ_Enable.53c7cb31,"",%progbits
 156 0000 789C6366 		.ascii	"x\234cf\300\004R@|\007\210u\201\230\221\231\201\221"
 156      C0045240 
 156      7C078875 
 156      81989199 
 156      8191
 157 0012 69C23906 		.ascii	"i\3029\006\206F\016&FF\020\203\201\221\241\236\211\261"
 157      86460E26 
 157      46461083 
 157      8191A19E 
 157      89B1
 158 0024 9EF125D3 		.ascii	"\236\361%\323G&\306\011\007V\317\340V_\332\320\320\360"
 158      4726C609 
 158      0756CFE0 
 158      565FDAD0 
 158      D0F0
 159 0036 61D35CC9 		.ascii	"a\323\\\311V\211\237L\014\014\237\231 \3060.gTg\000"
 159      56899F4C 
 159      0C0C9F99 
 159      20C6302E 
 159      67546700 
 160 004a AAF9D8F2 		.ascii	"\252\371\330\362\367:7[\013P\215\000D\216q\005#\033"
 160      F73A375B 
 160      0B508D00 
 160      448E7105 
 160      231B
 161 005c 23905E2F 		.ascii	"#\220^/t\240\341\377\377\315\337\246\274\260faf`x\002"
 161      74A0E1FF 
 161      FFCDDFA6 
 161      BCB06661 
 161      66607802 
 162 0070 940359F0 		.ascii	"\224\003Y\360\224\211\011D3\337b<\364a\303\367#\234"
 162      94890944 
 162      33DF623C 
 162      F461C3F7 
 162      239C
 163 0082 20E54063 		.ascii	" \345@c>\275n\230\313\362\202\351'\023c\303\241\346"
 163      3EBD6E98 
 163      CBF282E9 
 163      271363C3 
 163      A1E6
 164 0094 063E90C9 		.ascii	"\006>\220\311\367\237\234\277\310\001\026b\000q\277"
 164      F79F9CBF 
ARM GAS  C:\Users\Luggi\AppData\Local\Temp\cckBzFkb.s 			page 12


 164      C8011662 
 164      0071BF
 165 00a3 7C5A3489 		.ascii	"|Z4\211w.\343\354\306\226\306\003\254?\231\230\030W"
 165      772EE3EC 
 165      C696C603 
 165      AC3F9998 
 165      1857
 166 00b5 324A31AE 		.ascii	"2J1\256b\004z\207q5\343\\F\240\212%\027\357_d\006i`"
 166      62047A87 
 166      7135E35C 
 166      46A08A25 
 166      17EF5F64 
 167 00cc 6261605C 		.ascii	"ba`\\\003\224\271\307\330x\340~0\310\006\220\213\237"
 167      0394B9C7 
 167      D878E07E 
 167      30C80690 
 167      8B9F
 168 00de 000D02DA 		.ascii	"\000\015\002\332\014t\207\266{j^jQbIjJ|p~iQrjL@p\276"
 168      0C7487B6 
 168      7B6A5E6A 
 168      5162496A 
 168      4A7C707E 
 169 00fa B3698CA3 		.ascii	"\263i\214\243\213s|\260cP|pja\274Q\274gP\240^2\003\000"
 169      8B737CB0 
 169      63507C70 
 169      6A61BC51 
 169      BC6750A0 
 170 0112 73D9616D 		.ascii	"s\331am"
 171              		.text
 172              		.section	.gnu.lto_ADC_SAR_Seq_2_IRQ_GetState.53c7cb31,"",%progbits
 173 0000 789C6550 		.ascii	"x\234ePK(\204Q\024>\337\271\377\214\311;\013\351_\330"
 173      4B288451 
 173      143EDFB9 
 173      FF8CC93B 
 173      0BE95FD8 
 174 0014 4EF22AB2 		.ascii	"N\362*\262\263\021%;\314V\375i\374[\"\326\356\230!\311"
 174      B311253B 
 174      CC56FD69 
 174      FC5B22D6 
 174      EE9821C9 
 175 0028 424A8966 		.ascii	"BJ\211f\243\2147\013+\217\205\254,&\232\220(l\020\261"
 175      A38C370B 
 175      2B8F85AC 
 175      2C269A90 
 175      286C10B1 
 176 003c F00AB3F0 		.ascii	"\360\012\263\3608w\306Fn\335s\356=\347\373\276\363u"
 176      3877C646 
 176      6EDD73EE 
 176      3DE7FBBE 
 176      F375
 177 004e 14FD3FD5 		.ascii	"\024\375?\325r\203 *\227\014\017\201\307\366\211B>f"
 177      7283202A 
 177      970C0F81 
 177      C7F68942 
 177      3E66
 178 0060 6BBB9874 		.ascii	"k\273\230t\246:\252$\235\255`\245\313\026`\036\004\352"
 178      A63AAA24 
ARM GAS  C:\Users\Luggi\AppData\Local\Temp\cckBzFkb.s 			page 13


 178      9DAD60A5 
 178      CB16601E 
 178      04EA
 179 0072 6765A11F 		.ascii	"ge\241\037w\374\304\210o|\035\302?\253\365\300\343\300"
 179      77FCC488 
 179      6F7C1DC2 
 179      3FABF5C0 
 179      E3C0
 180 0084 FA79D660 		.ascii	"\372y\326`Q\222\211^\230Pf\243\3046\3609\370I\200O\221"
 180      5192895E 
 180      985066A3 
 180      C436F039 
 180      F849804F 
 181 0099 CF932C6F 		.ascii	"\317\223,oDk\235o\372\322\230\207W\206\323Z\301\216"
 181      446B9D6F 
 181      FAD29887 
 181      5786D35A 
 181      C18E
 182 00ab FEFE7E89 		.ascii	"\376\376~\211O\014\373=\036\220\360\225\004X&\020]\011"
 182      4F0CFB3D 
 182      1E90F095 
 182      04582610 
 182      5D09
 183 00bd D48CBD66 		.ascii	"\324\214\275f6Y\235a\367m\344\342\264\326\260\337Y\211"
 183      36599D61 
 183      F76DE4E2 
 183      B4D6B0DF 
 183      5989
 184 00cf F0F3BD8E 		.ascii	"\360\363\275\216Z\267\234d\326\273a\235kf]^\035$|\251"
 184      5AB79C64 
 184      D6BB619D 
 184      6B665D5E 
 184      1D247CA9 
 185 00e3 1299EFEB 		.ascii	"\022\231\357\353\363\314xN\024\323\241\010\222\254\260"
 185      F3CC784E 
 185      14D3A108 
 185      92ACB0
 186 00f2 001B8B10 		.ascii	"\000\033\213\020oXB\024t\206\360\307\320\203'-h\245"
 186      6F584214 
 186      7486F0C7 
 186      D083272D 
 186      68A5
 187 0104 3537C7F7 		.ascii	"57\307\367&\275F@l`Y\260\307\210\234\206\013\1771\002"
 187      26BD4640 
 187      6C6059B0 
 187      C7889C86 
 187      0B7F3102 
 188 0118 08C5B646 		.ascii	"\010\305\266F3R\000\221Y1bd\274*:\252T\327l\245\254"
 188      33520091 
 188      59316264 
 188      BC2A3AAA 
 188      54D76CA5 
 189 012d 5E006982 		.ascii	"^\000i\202`n\000a%\246b\341<\303\222%b\0256\3771kv\262"
 189      606E0061 
 189      25A662E1 
 189      3CC39225 
 189      621536FF 
ARM GAS  C:\Users\Luggi\AppData\Local\Temp\cckBzFkb.s 			page 14


 190 0145 065B1921 		.ascii	"\006[\031!\030\005\251\2246\272\235nO{\257\333\341\004"
 190      1805A994 
 190      36BA9D6E 
 190      4F7BAFDB 
 190      E104
 191 0157 BAFA7A82 		.ascii	"\272\372z\202n[s\240\253\276\246\255\256\241\336\011"
 191      6E5B73A0 
 191      ABBEA6AD 
 191      AEA1DE09 
 192 0167 D4B53A01 		.ascii	"\324\265:\001\267\333\251r\232Z[*\202\364\003\2672\214"
 192      B7DBA972 
 192      9A5A5B2A 
 192      82F403B7 
 192      328C
 193 0179 01       		.ascii	"\001"
 194              		.text
 195              		.section	.gnu.lto_ADC_SAR_Seq_2_IRQ_Disable.53c7cb31,"",%progbits
 196 0000 789C6366 		.ascii	"x\234cf\300\004R@|\007\210u\201\230\221\231\201\221"
 196      C0045240 
 196      7C078875 
 196      81989199 
 196      8191
 197 0012 69C23906 		.ascii	"i\3029\006\206F\016&FF\020\203\201\221\241\236\211\261"
 197      86460E26 
 197      46461083 
 197      8191A19E 
 197      89B1
 198 0024 9EF125D3 		.ascii	"\236\361%\323G&\306\011\007V\317\340V_\332\320\320\360"
 198      4726C609 
 198      0756CFE0 
 198      565FDAD0 
 198      D0F0
 199 0036 E1D276C9 		.ascii	"\341\322v\311V\211\237L\014\014\237\231 \3060.gTg\000"
 199      56899F4C 
 199      0C0C9F99 
 199      20C6302E 
 199      67546700 
 200 004a AAF9D8F2 		.ascii	"\252\371\330\362\367:7[\013P\215\000D\216q\005#\033"
 200      F73A375B 
 200      0B508D00 
 200      448E7105 
 200      231B
 201 005c 23905E2F 		.ascii	"#\220^/t\240\341\377\377\315\367\247\2560bef`x\002\224"
 201      74A0E1FF 
 201      FFCDF7A7 
 201      AE306265 
 201      66607802 
 202 0071 0359F094 		.ascii	"\003Y\360\224\211\011D3\337b<\364a\303\223\243\234 "
 202      89094433 
 202      DF623CF4 
 202      61C393A3 
 202      9C20
 203 0083 E5406326 		.ascii	"\345@c&\276o?\313\365\202\351'\023c\303\341\346\006"
 203      BE6F3FCB 
 203      F582E927 
 203      1363C3E1 
 203      E606
ARM GAS  C:\Users\Luggi\AppData\Local\Temp\cckBzFkb.s 			page 15


 204 0095 3E90C9F7 		.ascii	">\220\311\367\237\234\277\310\001\026b\000q/\2664\374"
 204      9F9CBFC8 
 204      01166200 
 204      712FB634 
 204      FC
 205 00a6 659DCB38 		.ascii	"e\235\3138\273\261\245\361\000\353O&&\306\225\214R\214"
 205      BBB1A5F1 
 205      00EB4F26 
 205      26C6958C 
 205      528C
 206 00b8 AB1881DE 		.ascii	"\253\030\201\336a\\\3158\227\021\250b\311\305\373\027"
 206      615CCD38 
 206      9711A862 
 206      C9C5FB17 
 207 00c8 99411A98 		.ascii	"\231A\032\230X\030\030\327\000e\35616\036\230\034\016"
 207      581818D7 
 207      0065EE31 
 207      361E981C 
 207      0E
 208 00d9 B201E4E2 		.ascii	"\262\001\344\342'@\203\2006\003\335\241\355\236\232"
 208      27408380 
 208      3603DDA1 
 208      ED9E9A
 209 00e8 975A9458 		.ascii	"\227Z\224X\222\232\022\037\234_Z\224\234\032\023\020"
 209      929A121F 
 209      9C5F5A94 
 209      9C1A1310 
 210 00f8 9CEF6C1A 		.ascii	"\234\357l\032\343\350\342\034\037\354\030\024\037\234"
 210      E3E8E21C 
 210      1FEC1814 
 210      1F9C
 211 0106 5A186F14 		.ascii	"Z\030o\024\357\031\024\250\227\314\000\000\017\331`"
 211      EF1914A8 
 211      97CC0000 
 211      0FD960
 212 0115 80       		.ascii	"\200"
 213              		.text
 214              		.section	.gnu.lto_ADC_SAR_Seq_2_IRQ_Start.53c7cb31,"",%progbits
 215 0000 789C6D8F 		.ascii	"x\234m\217=K\003A\020\206\347\2353\233@\032\261\314"
 215      3D4B0341 
 215      1086E79D 
 215      339B401A 
 215      B1CC
 216 0012 1F48215A 		.ascii	"\037H!Z\010\376\200\020Q\254\214\2716pH\274\326`\320"
 216      08FE8010 
 216      51AC8CB9 
 216      367048BC 
 216      D660D0
 217 0025 F2C81D5E 		.ascii	"\362\310\035^a%\261\021\013\261\021\361#\032\301\217"
 217      6125B111 
 217      0BB111F1 
 217      231AC18F 
 218 0035 DAB3B154 		.ascii	"\332\263\261T\320\302&\210\205\202bc\270B\016\2218{"
 218      D0C22688 
 218      85826263 
 218      B8420E91 
 218      387B
ARM GAS  C:\Users\Luggi\AppData\Local\Temp\cckBzFkb.s 			page 16


 219 0047 67219885 		.ascii	"g!\230\205e\027\336g\236\2311\350\377\311\311\235\001"
 219      6517DE67 
 219      9E9931E8 
 219      FFC9C99D 
 219      01
 220 0058 D188BC30 		.ascii	"\321\210\2740\010\334\274!\3622\014\350\017\201\032"
 220      08DCBC21 
 220      F2320CE8 
 220      0F811A
 221 0067 8C06DEB8 		.ascii	"\214\006\336\270\313h\006\255\315l~\327u\335\217\273"
 221      CB6806AD 
 221      CD6C7ED7 
 221      75DD8FBB 
 222 0077 5BAF1420 		.ascii	"[\257\024 b\242\220\023\017\366\220'\201\272\376\367"
 222      62A29013 
 222      0FF69027 
 222      81BAFEF7 
 223 0087 4356F902 		.ascii	"CV\371\002\015&\031\366\241\304O'C\201\333\353\235]"
 223      0D2619F6 
 223      A1C44F27 
 223      4381DBEB 
 223      9D5D
 224 0099 5E9D2B45 		.ascii	"^\235+E\364,\221n\360\302\254_\243\203\225`\375\232"
 224      F42C916E 
 224      F0C2AC5F 
 224      A3839560 
 224      FD9A
 225 00ab 35AC2DDB 		.ascii	"5\254-\333\367kmv\276\334U7\0231B\026\001\016\340P$"
 225      F76B6D76 
 225      BEDC5537 
 225      13314216 
 225      010EE050 
 226 00c0 78077EB0 		.ascii	"x\007~\260\241\372\222F(9\341P\310?Q\2420\342\012\264"
 226      A1FA9246 
 226      2839E150 
 226      C83F51A2 
 226      30E20AB4 
 227 00d4 E0443C10 		.ascii	"\340D<\020K\266\372KR\241\344\204\243D\362\271\363\364"
 227      4BB6FA4B 
 227      52A1E484 
 227      A344F2B9 
 227      F3F4
 228 00e6 8E578E58 		.ascii	"\216W\216X\245\011\307\310E\234&=\354i\377bi\224\222"
 228      A509C7C8 
 228      459C263D 
 228      EC69FF62 
 228      699492
 229 00f9 E2F6EFAC 		.ascii	"\342\366\357\254\217\360\202\213\311\230$\2754\364\262"
 229      8FF0828B 
 229      C99824BD 
 229      34F4B2
 230 0108 32E2F094 		.ascii	"2\342\360\224\275`\327\347\226\354y\313\254-\327\253"
 230      BD60D7E7 
 230      96EC79CB 
 230      AC2DD7AB 
 231 0118 76A564D6 		.ascii	"v\245d\326\212\343\225\302D\3212\013e\313\264\027\255"
 231      8AE395C2 
ARM GAS  C:\Users\Luggi\AppData\Local\Temp\cckBzFkb.s 			page 17


 231      44D1320B 
 231      65CBB417 
 231      AD
 232 0129 316BBA3C 		.ascii	"1k\272<;Z\245\037\310\240\205?"
 232      3B5AA51F 
 232      C8A0853F 
 233              		.text
 234              		.section	.gnu.lto_ADC_SAR_Seq_2_IRQ_StartEx.53c7cb31,"",%progbits
 235 0000 789C6D8F 		.ascii	"x\234m\217K(\204Q\024\307\317\377\3341\3370\026\262"
 235      4B288451 
 235      14C7CFFF 
 235      DC31DF30 
 235      16B2
 236 0012 D2AC6C64 		.ascii	"\322\254ld\241,\224\225\015Q\262cf\253\276d\276-\031"
 236      A12C9495 
 236      0D51B263 
 236      66ABBE64 
 236      BE2D19
 237 0025 2CE56214 		.ascii	",\345b\024\033\257R\263\262\221\214\327xl\344\261\370"
 237      1BAF52B3 
 237      B2918CD7 
 237      786CE4B1 
 237      F8
 238 0036 B261C382 		.ascii	"\262a\303\202\204<\262\240\274\026\364)}I\234;\354\314"
 238      843CB2A0 
 238      BC16F429 
 238      7D499C3B 
 238      ECCC
 239 0048 ADDB39E7 		.ascii	"\255\3339\347\336\337\371\237\377Q\364\377D\344N\203"
 239      DEDFF99F 
 239      FF51F4FF 
 239      44E44E83 
 240 0058 A85A2214 		.ascii	"\250Z\"\024\201'\216\210\006B\014\230\204@\375\214~"
 240      81278E88 
 240      06420C98 
 240      8440FD8C 
 240      7E
 241 0069 3CF21B63 		.ascii	"<\362\033c\302]J\205\313\347\264\326\257\203;%\303%"
 241      C25D4A85 
 241      CBE7B4D6 
 241      AF833B25 
 241      C325
 242 007b 3E1379FC 		.ascii	">\023y\374+\203y\224\033\344\371b\274PU\202$\337\312"
 242      2B837994 
 242      1BE4F962 
 242      BC505582 
 242      24DFCA
 243 008e BC1F861F 		.ascii	"\274\037\206\037\330g\224\232r{\352 \0254%\007L\371"
 243      D867949A 
 243      727BEA20 
 243      15342507 
 243      4CF9
 244 00a0 347ABAA7 		.ascii	"4z\272\247\312f\265\036t\2577tm\300g\2054\224\350a\001"
 244      CA66B51E 
 244      74AF3774 
 244      6DC06785 
 244      3494E861 
ARM GAS  C:\Users\Luggi\AppData\Local\Temp\cckBzFkb.s 			page 18


 245 00b5 112C2242 		.ascii	"\021,\"B\362DXB\231\301\337\222_g\341`Rf\027\375\316"
 245      F2445842 
 245      99C1DF92 
 245      5F67E160 
 245      526617FD 
 246 00ca C4328262 		.ascii	"\3042\202b\233V\213]\375\375\355\275L\246k`)dy\272\023"
 246      9B568B5D 
 246      FDFDEDBD 
 246      4CA66B60 
 246      296479BA 
 247 00df C2D8BF67 		.ascii	"\302\330\277g6Q]a\310\335\334g\323c\304fN\3062\334\367"
 247      36515D61 
 247      C8DDDC67 
 247      D363C466 
 247      4EC632DC 
 248 00f4 A94774C8 		.ascii	"\251Gt\310\347\200\307\242\203\025\364\311\300<\272"
 248      E780C7A2 
 248      8315F4C9 
 248      C03CBA
 249 0103 42D2DDB5 		.ascii	"B\322\335\265r\222AO\344\010\031!?X\371le\341\343\334"
 249      7292414F 
 249      E4081921 
 249      3F58F96C 
 249      65E1E3DC 
 250 0117 70C813F7 		.ascii	"p\310\023\367\204U\201\345\353c\366\366\031f\371|\213"
 250      845581E5 
 250      EB63F6F6 
 250      1966F97C 
 250      8B
 251 0128 B08688CF 		.ascii	"\260\206\210\317\005dL\235\347n\026O\001i^\377\363t"
 251      05644C9D 
 251      E76E164F 
 251      01695EFF 
 251      F374
 252 013a 8301F7B2 		.ascii	"\203\001\367\2621K\222Y\016f)\261R\321\350t8\211\266"
 252      314B9259 
 252      0E6629B1 
 252      52D1E874 
 252      3889B6
 253 014d 1E276EC7 		.ascii	"\036'n\307:{\023\355Nks\254\263\276\272\265\256\241"
 253      3A7B13ED 
 253      4E6B73AC 
 253      B3BEBAB5 
 253      AEA1
 254 015f DE8ED545 		.ascii	"\336\216\325E\355\230\323eW\331M\321\226\312v\262\332"
 254      ED98D365 
 254      57D94DD1 
 254      96CA76B2 
 254      DA
 255 0170 E2F184D3 		.ascii	"\342\361\204\323\335\375\003|\202\240C"
 255      DDFD037C 
 255      82A043
 256              		.text
 257              		.section	.gnu.lto_ADC_SAR_Seq_2_IRQ_Stop.53c7cb31,"",%progbits
 258 0000 789C6366 		.ascii	"x\234cf\300\004R@\374\002\210u\201\230\221\231\201\221"
 258      C0045240 
 258      FC028875 
ARM GAS  C:\Users\Luggi\AppData\Local\Temp\cckBzFkb.s 			page 19


 258      81989199 
 258      8191
 259 0012 69C23906 		.ascii	"i\3029\006\206F\016&FF\020\203\201\221\241\236\211\261"
 259      86460E26 
 259      46461083 
 259      8191A19E 
 259      89B1
 260 0024 9EF125D3 		.ascii	"\236\361%\323G&\306\011\007V\317\340V_\332\320\320\360"
 260      4726C609 
 260      0756CFE0 
 260      565FDAD0 
 260      D0F0
 261 0036 E1D14589 		.ascii	"\341\321E\211V\211\237L\014\014\237\231 \3060.gTg\000"
 261      56899F4C 
 261      0C0C9F99 
 261      20C6302E 
 261      67546700 
 262 004a AAF9D8F2 		.ascii	"\252\371\330\362\367:7[\013P\215\000D\216q\005#\033"
 262      F73A375B 
 262      0B508D00 
 262      448E7105 
 262      231B
 263 005c 23905E2F 		.ascii	"#\220^/t\240\341\377\377\317\307'\255Pgba`x\002\224"
 263      74A0E1FF 
 263      FFCFC727 
 263      AD506762 
 263      61607802 
 264 0071 0359F094 		.ascii	"\003Y\360\224\211\011D3\337al>\260\371\024\023H5\310"
 264      89094433 
 264      DF616C3E 
 264      B0F91413 
 264      4835C8
 265 0084 987997FB 		.ascii	"\230y\227\373\3261\325\376n\350h\340\370\311\304\370"
 265      D631D5FE 
 265      6EE868E0 
 265      F8C9C4F8 
 266 0094 99096802 		.ascii	"\231\011h\002\343J\306Z\206\237@\345w\030[\016\354\340"
 266      E34AC65A 
 266      869F40E5 
 266      77185B0E 
 266      ECE0
 267 00a6 C2AA92F9 		.ascii	"\302\252\222\3713P\236\201q\025P%\222\024\304\010f\260"
 267      33509E81 
 267      71155025 
 267      9214C408 
 267      66B0
 268 00b8 0EC6D58C 		.ascii	"\016\306\325\214\265?\201\016\270\307\330x`\267\027"
 268      B53F810E 
 268      B8C7D878 
 268      60B717
 269 00c7 588801E4 		.ascii	"X\210\001\344\032F\220+\200z\265\335S\363R\213\022K"
 269      1A46902B 
 269      807AB5DD 
 269      53F3528B 
 269      124B
 270 00d9 5253E283 		.ascii	"RS\342\203\363K\213\222Sc\002\202\363\235Mc\034]\234"
 270      F34B8B92 
ARM GAS  C:\Users\Luggi\AppData\Local\Temp\cckBzFkb.s 			page 20


 270      53630282 
 270      F39D4D63 
 270      1C5D9C
 271 00ec E3831D83 		.ascii	"\343\203\035\203\342\203S\013\343\215\342=\203\002\365"
 271      E283530B 
 271      E38DE23D 
 271      8302F5
 272 00fb 92190023 		.ascii	"\222\031\000#\266a\344"
 272      B661E4
 273              		.text
 274              		.section	.gnu.lto_ADC_SAR_Seq_2_IRQ_SetPending.53c7cb31,"",%progbits
 275 0000 789C6366 		.ascii	"x\234cf\300\004R@|\007\210u\201\230\221\231\201\221"
 275      C0045240 
 275      7C078875 
 275      81989199 
 275      8191
 276 0012 69C23906 		.ascii	"i\3029\006\206F\016&FF\020\203\201\221\241\236\211\261"
 276      86460E26 
 276      46461083 
 276      8191A19E 
 276      89B1
 277 0024 9EF125D3 		.ascii	"\236\361%\323G&\306\011\007V\317\340V_\332\320\320\360"
 277      4726C609 
 277      0756CFE0 
 277      565FDAD0 
 277      D0F0
 278 0036 A169BF64 		.ascii	"\241i\277d\253\304O&\006\206\317L\020c\030\2273\252"
 278      ABC44F26 
 278      0686CF4C 
 278      10631897 
 278      33AA
 279 0048 3300D57C 		.ascii	"3\000\325|l\371{\235\233\255\005\250F\000\"\307\270"
 279      6CF97B9D 
 279      9BAD05A8 
 279      460022C7 
 279      B8
 280 0059 82918D11 		.ascii	"\202\221\215\021H\257\027:\320\360\377\377\347?S_\330"
 280      48AF173A 
 280      D0F0FFFF 
 280      E73F535F 
 280      D8
 281 006a B1323330 		.ascii	"\261230<\001\312\201,x\312\304\004\242\231o1\036\372"
 281      3C01CA81 
 281      2C78CAC4 
 281      04A2996F 
 281      311EFA
 282 007d B0E1EF51 		.ascii	"\260\341\357QN\220r\2401[n\255}\310\361\202\351'\023"
 282      4E9072A0 
 282      315B6EAD 
 282      7DC8F182 
 282      E92713
 283 0090 63C391E6 		.ascii	"c\303\221\346\006>\220\311\367\237\234\277\010\021b"
 283      063E90C9 
 283      F79F9CBF 
 283      081162
 284 009f 0071A736 		.ascii	"\000q\2476\317\372\3101\227qvcK\343\001\326\237LL\214"
 284      CFFAC831 
ARM GAS  C:\Users\Luggi\AppData\Local\Temp\cckBzFkb.s 			page 21


 284      97717663 
 284      4BE301D6 
 284      9F4C4C8C 
 285 00b3 2B19A518 		.ascii	"+\031\245\030W1\002\275\303\270\232q.#P\305\222\213"
 285      573102BD 
 285      C3B89A71 
 285      2E2350C5 
 285      928B
 286 00c5 F72F3283 		.ascii	"\367/2\20340\26100\256\001\312\334cl<\360=\034d\003"
 286      3430B130 
 286      30AE01CA 
 286      DC636C3C 
 286      F03D1C64 
 287 00da C8C54F80 		.ascii	"\310\305O\200\006\001m\006\272C\333=5/\265(\261$5%>"
 287      06016D06 
 287      BA43DB3D 
 287      352FB528 
 287      B1243525 
 288 00ef 38BFB428 		.ascii	"8\277\264(95& 8\337\3314\306\321\3059>\3301(>8\2650"
 288      39352620 
 288      38DFD934 
 288      C6D1C539 
 288      3ED83128 
 289 0107 DE28DE33 		.ascii	"\336(\3363(P/\231\001\000\206zay"
 289      28502F99 
 289      0100867A 
 289      6179
 290              		.text
 291              		.section	.gnu.lto_ADC_SAR_Seq_2_IRQ_ClearPending.53c7cb31,"",%progbits
 292 0000 789C6366 		.ascii	"x\234cf\300\004R@|\007\210u\201\230\221\231\201\221"
 292      C0045240 
 292      7C078875 
 292      81989199 
 292      8191
 293 0012 69C23906 		.ascii	"i\3029\006\206F\016&FF\020\203\201\221\241\236\211\261"
 293      86460E26 
 293      46461083 
 293      8191A19E 
 293      89B1
 294 0024 9EF125D3 		.ascii	"\236\361%\323G&\306\011\007V\317\340V_\332\320\320\360"
 294      4726C609 
 294      0756CFE0 
 294      565FDAD0 
 294      D0F0
 295 0036 61D255C9 		.ascii	"a\322U\311V\211\237L\014\014\237\231 \3060.gTg\000\252"
 295      56899F4C 
 295      0C0C9F99 
 295      20C6302E 
 295      67546700 
 296 004b F9D8F2F7 		.ascii	"\371\330\362\367:7[\013P\215\000D\216q\005#\033#\220"
 296      3A375B0B 
 296      508D0044 
 296      8E710523 
 296      1B2390
 297 005e 5E2F74A0 		.ascii	"^/t\240\341\377\377\315W\247uh\263130<\001\312\201,"
 297      E1FFFFCD 
 297      57A77568 
ARM GAS  C:\Users\Luggi\AppData\Local\Temp\cckBzFkb.s 			page 22


 297      B3313330 
 297      3C01CA81 
 298 0073 78CAC404 		.ascii	"x\312\304\004\242\231o1\036\372\360\341\3521N\220r\240"
 298      A2996F31 
 298      1EFAF0E1 
 298      EA314E90 
 298      72A0
 299 0085 317D93E6 		.ascii	"1}\223\346\266\362\276`\372\311\304\330p\264\271\201"
 299      B6F2BE60 
 299      FAC9C4D8 
 299      70B4B981 
 300 0095 0F64F2FD 		.ascii	"\017d\362\375'\347/r\200\205\030@\3349\0353v\263\317"
 300      27E72F72 
 300      80851840 
 300      DC391D33 
 300      76B3CF
 301 00a8 659CDDD8 		.ascii	"e\234\335\330\322x\200\365'\023\023\343JF)\306U\214"
 301      D27880F5 
 301      271313E3 
 301      4A4629C6 
 301      558C
 302 00ba 40EF30AE 		.ascii	"@\3570\256f\234\313\010T\261\344\342\375\213\314 \015"
 302      669CCB08 
 302      54B1E4E2 
 302      FD8BCC20 
 302      0D
 303 00cb 4C2C0C8C 		.ascii	"L,\014\214k\2002\367\030\033\017\334\214\002\331\000"
 303      6B8032F7 
 303      181B0FDC 
 303      8C02D900 
 304 00db 72F113A0 		.ascii	"r\361\023\240A@\233\201\356\320vO\315K-J,IM\211\017"
 304      41409B81 
 304      EED0764F 
 304      CD4B2D4A 
 304      2C494D89 
 305 00f0 CE2F2D4A 		.ascii	"\316/-JN\215\011\010\316w6\215qtq\216\017v\014\212\017"
 305      4E8D0908 
 305      CE77368D 
 305      7174718E 
 305      0F760C8A 
 306 0105 4E2D8C37 		.ascii	"N-\2147\212\367\014\012\324Kf\000\000\201\311_\304"
 306      8AF70C0A 
 306      D44B6600 
 306      0081C95F 
 306      C4
 307              		.text
 308              		.section	.gnu.lto_.symbol_nodes.53c7cb31,"",%progbits
 309 0000 789C55CA 		.ascii	"x\234U\312\301\015\3020\014\205\341\347\270i\342\264"
 309      C10DC230 
 309      0C85E1E7 
 309      B869E2B4 
 310 0010 1D86095F 		.ascii	"\035\206\011_\305\211#'\316\210\023s0\0003\000\203 "
 310      C5892327 
 310      CE881373 
 310      30003300 
 310      8320
 311 0022 A22642B5 		.ascii	"\242&B\265/O\237~+\200\203\240]P\002\347'@\342r\317"
ARM GAS  C:\Users\Luggi\AppData\Local\Temp\cckBzFkb.s 			page 23


 311      2F4F9F7E 
 311      2B8083A0 
 311      5D5002E7 
 311      2740E272 
 312 0037 0803C3DF 		.ascii	"\010\003\303\337\327\352Hu\03698'F\347\314\321\331\230"
 312      D7EA4875 
 312      1E393827 
 312      46E7CCD1 
 312      D998
 313 0049 9C0BB333 		.ascii	"\234\013\2633h\316\302\342\0348\355-\013\245\031\353"
 313      68CEC2E2 
 313      1C38ED2D 
 313      0BA519EB 
 314 0059 A9E689B3 		.ascii	"\251\346\211\263{\237\271\354\2559\341\366\372\212f"
 314      7B9FB9EC 
 314      AD39E1F6 
 314      FA8A66
 315 0068 C1635BC5 		.ascii	"\301c[\305g\333\210\343\273\256\365n\275[\357\326{\351"
 315      67DB88E3 
 315      BBAEF56E 
 315      BD5BEFD6 
 315      7BE9
 316 007a BDB48E1F 		.ascii	"\275\264\216\037\257\376T\012"
 316      AFFE540A 
 317              		.text
 318              		.section	.gnu.lto_.refs.53c7cb31,"",%progbits
 319 0000 789C6366 		.ascii	"x\234cf``\340f\200\000F\016&\006&F.&n&\006\000\002\015"
 319      6060E066 
 319      8000460E 
 319      26062646 
 319      2E266E26 
 320 0018 0036     		.ascii	"\0006"
 321              		.text
 322              		.section	.gnu.lto_.decls.53c7cb31,"",%progbits
 323 0000 789C8D56 		.ascii	"x\234\215VmLSW\030\276\247\247-\245\024\346\376\240"
 323      6D4C5357 
 323      18BEA7A7 
 323      2DA514E6 
 323      FEA0
 324 0012 631F813F 		.ascii	"c\037\201?$f\306%\232%\376\233\016\015:\223\005%\333"
 324      2466C625 
 324      9A25FE9B 
 324      0E0D3A93 
 324      0525DB
 325 0025 1F4D1883 		.ascii	"\037M\030\203;GB\300\225\222\214\177w \001?\202\254"
 325      3B4742C0 
 325      95928C7F 
 325      7720013F 
 325      82AC
 326 0037 C38D8DCC 		.ascii	"\303\215\215\3141\305MP\240\" \005\221\002b\013\005"
 326      31C54D50 
 326      A0222005 
 326      9102620B 
 326      05
 327 0048 04E5C302 		.ascii	"\004\345\303\002\033\037\312\207\262![\234\323\251t"
 327      1B1FCA87 
 327      B2215B9C 
ARM GAS  C:\Users\Luggi\AppData\Local\Temp\cckBzFkb.s 			page 24


 327      D3A974
 328 0057 EF39F75C 		.ascii	"\3579\367\\{jo\325\233\274\355\275\367\274\317\363>"
 328      7B6A6FD5 
 328      9BBCEDBD 
 328      F7BCCFF3 
 328      3E
 329 0068 EF733E5A 		.ascii	"\357s>Z,\010\302'X\020\274p\331\015\202\260\214\004"
 329      2C08C227 
 329      5810BC70 
 329      D90D82B0 
 329      8C04
 330 007a 2102DE25 		.ascii	"!\002\336%@h \"!\316\010\362E\336WC\324B4B\330!: \272"
 330      40682022 
 330      21CE08F2 
 330      45DE5743 
 330      D4423442 
 331 0093 209C10DD 		.ascii	" \234\020\335\020n\210>\210\253\020\203\020\327!\206"
 331      106E883E 
 331      88AB1083 
 331      10D72186 
 332 00a3 85C08BF0 		.ascii	"\205\300\213\360 VG`\367\325*y\244\216\236\345\221\372"
 332      20564760 
 332      F7D52A79 
 332      A48E9EE5 
 332      91FA
 333 00b5 26883A88 		.ascii	"&\210:\210\021\210Q\016\333\250\202%\372t/\300\331U"
 333      1188510E 
 333      DBA88225 
 333      FA742FC0 
 333      D955
 334 00c7 701D0C47 		.ascii	"p\035\014Gj\2662\017\306 &8\\\207\012\256\213\341\024"
 334      6AB6320F 
 334      C6202638 
 334      5C870AAE 
 334      8BE114
 335 00da CC04C37D 		.ascii	"\314\004\303}\300\341\272Tp\304;\314\352\315A\314r\371"
 335      C0E1BA54 
 335      70C43BCC 
 335      EACD41CC 
 335      72F9
 336 00ec 4E957CE2 		.ascii	"N\225|\342\263\226\325\211Q\301t\253`\334\317\251\341"
 336      B396D589 
 336      51C174AB 
 336      60DCCFA9 
 336      E1
 337 00fd 56C92773 		.ascii	"V\311'sh`\371d\376+!\346!\352!\026X\177\016\226\253"
 337      6860F964 
 337      FE2B21E6 
 337      21EA2116 
 337      587F0E96 
 338 0112 67F98487 		.ascii	"g\371\204\207\314\003\231\307\216 \332\311\272\010\023"
 338      CC0399C7 
 338      8E20DAC9 
 338      BA0813
 339 0121 02E7F345 		.ascii	"\002\347\363E5t\014\253\324\010\306?(\370\346\356YN"
 339      35740CAB 
 339      D408C63F 
ARM GAS  C:\Users\Luggi\AppData\Local\Temp\cckBzFkb.s 			page 25


 339      28F8E6EE 
 339      594E
 340 0133 7269598E 		.ascii	"riY\216\302S\253\302A\326l0\257\256\253\344\017?'_m"
 340      C253ABC2 
 340      41D66C30 
 340      AFAEABE4 
 340      0F3F275F 
 341 0148 EDFFA541 		.ascii	"\355\377\245A\366\232{}a\013\032\024a\214&\217\315V"
 341      F69A7B7D 
 341      610B1A14 
 341      618C268F 
 341      CD56
 342 015a 57A91E1E 		.ascii	"W\251\036\036MF-yly43\244]}L\202\2538OZ\245E\011\221"
 342      4D462D79 
 342      6C793433 
 342      A45D7D4C 
 342      82AB384F 
 343 0173 E8571485 		.ascii	"\350W\024\205N\243(`\255D\253\341s\217Vf:Y:=d\\W\005"
 343      4EA32860 
 343      AD44ABE1 
 343      738F5666 
 343      3A593A3D 
 344 018b A9859263 		.ascii	"\251\205\222c\225\257B\355\375\201\2520\323!I\312%\034"
 344      95AF42ED 
 344      FD81AA30 
 344      D32149CA 
 344      251C
 345 019d A1DB098C 		.ascii	"\241\333\011\214#9\203L\250\012\255\023\344[\310\257"
 345      2339834C 
 345      A80AAD13 
 345      E45BC8AF 
 346 01ad F1D8F24C 		.ascii	"\361\330\362L8\024Q\354\312\177-!\321\307\245e\333r"
 346      381451EC 
 346      CA7F2D21 
 346      D1C7A565 
 346      DB72
 347 01bf 5FF1CEEF 		.ascii	"_\361\316\357\245\362\\i\305\353E\2644:\2130C\012\344"
 347      A5F25C69 
 347      C5EB45B4 
 347      343A8B30 
 347      430AE4
 348 01d2 5EEEB41A 		.ascii	"^\356\264\032E\003n\370\233\026\027\306\273(\307\270"
 348      45036EF8 
 348      9B1617C6 
 348      BB28C7B8 
 349 01e2 D4EA8A00 		.ascii	"\324\352\212\000\216)\251\334S'\275\177@z\354\365bJ"
 349      8E29A9DC 
 349      5327BD7F 
 349      407AECF5 
 349      624A
 350 01f4 50C311D4 		.ascii	"P\303\021\324(\004\265\224\300\356j\230A8\205\020h\244"
 350      2804B594 
 350      C0EE6A98 
 350      41388510 
 350      68A4
 351 0206 A5813203 		.ascii	"\245\2012\003\2125U@k\313\013\235\363\246jI2\240:\320"
 351      8A355540 
ARM GAS  C:\Users\Luggi\AppData\Local\Temp\cckBzFkb.s 			page 26


 351      6BCB0B9D 
 351      F3A66A49 
 351      32A03AD0 
 352 021a 6D7B4A40 		.ascii	"m{J@\264\313\035\007i\024\235C\261\\\257P\342\354\342"
 352      B4CB1D07 
 352      69149D43 
 352      B15CAF50 
 352      E2ECE2
 353 022d 42A54E0B 		.ascii	"B\245N\013G\033\245\332C\375\236\277\331|W\027\324\357"
 353      471BA5DA 
 353      43FD9EBF 
 353      D97C5717 
 353      D4EF
 354 023f 7AEAF779 		.ascii	"z\352\367y\304\014\267\236\230\3776\004[\021\355\322"
 354      C40CB79E 
 354      98FF3604 
 354      5B11EDD2 
 355 024f 555F70D7 		.ascii	"U_p\327H\272\004\247lE\230\263\012P\250\201\353\264"
 355      48BA04A7 
 355      6C4598B3 
 355      0A50A881 
 355      EBB4
 356 0261 41E9B491 		.ascii	"A\351\264\221v:\223'\215\207\361%\211\032_\315\013~"
 356      763A9327 
 356      8D87F125 
 356      891A5FCD 
 356      0B7E
 357 0273 73EC19EE 		.ascii	"s\354\031\356\0314\342\032\271\344\2175\327\326B\305"
 357      1934E21A 
 357      B9E48F35 
 357      D7D642C5 
 358 0283 72DB94CB 		.ascii	"r\333\224\313\3514I.\311\341\365\276g \010\324\304\325"
 358      E934492E 
 358      C9E1F5BE 
 358      672008D4 
 358      C4D5
 359 0295 6B52EAD9 		.ascii	"kR\352\331i\275\221\266\202\002\003\356\221)\276\372"
 359      69BD91B6 
 359      820203EE 
 359      9129BEFA 
 360 02a5 A5E54808 		.ascii	"\245\345H\010,\267H#\245/r\377\320\216\351\243\227:"
 360      2CB74823 
 360      A52F72FF 
 360      D08EE9A3 
 360      973A
 361 02b7 EFF1943C 		.ascii	"\357\361\224<\304\310\030[H<]\266Jx\215\200\326E\241"
 361      C4C8185B 
 361      483C5DB6 
 361      4A788D80 
 361      D645A1
 362 02ca B560E725 		.ascii	"\265`\347%\2603\322H\213\240\026P{\021\324\262\011\252"
 362      B033D248 
 362      8BA01650 
 362      7B11D4B2 
 362      09AA
 363 02dc DA99276D 		.ascii	"\332\231'mF\255\310\210\232}\363C*\260\005Y\234\337"
 363      46ADC888 
ARM GAS  C:\Users\Luggi\AppData\Local\Temp\cckBzFkb.s 			page 27


 363      9A7DF343 
 363      2AB00559 
 363      9CDF
 364 02ee 5EACA5C6 		.ascii	"^\254\245\306\223\034\331\370\177\274\323\2474A\215"
 364      931CD9F8 
 364      7FBCD3A7 
 364      34418D
 365 02fd 775013DA 		.ascii	"wP\023\332\024\343\235\227\027\322\360\200\334AgQ\375"
 365      14E39D97 
 365      17D2F080 
 365      DC416751 
 365      FD
 366 030e 011DF3BD 		.ascii	"\001\035\363\275\304\312\373\016 \324\316\371\320\256"
 366      C4CAFB0E 
 366      20D4CEF9 
 366      D0AE
 367 031c F8D0417D 		.ascii	"\370\320A}8x\300\206\371\202D\213\257b\247\237\355w"
 367      3878C086 
 367      F982448B 
 367      AF62A79F 
 367      ED77
 368 032e DCD6FE50 		.ascii	"\334\326\376P\274$W\374\267v\345D\270\354{\323m\321"
 368      BC2457FC 
 368      B776E544 
 368      B8EC7BD3 
 368      6DD1
 369 0340 21AF678A 		.ascii	"!\257g\212@\227\271r\227\225r]\264\334\205{\363\313"
 369      4097B972 
 369      9795725D 
 369      B4DC857B 
 369      F3CB
 370 0352 E1F88886 		.ascii	"\341\370\210\206R\374\321?\335\254\245\242\247\026\273"
 370      52FCD13F 
 370      DDACA5A2 
 370      A716BB
 371 0361 7D1464BD 		.ascii	"}\024d\275^\341(\256(\024NJQ\362\240\363D\030>%S<X9"
 371      5EE128AE 
 371      28144E4A 
 371      51F2A0F3 
 371      44183E25 
 372 0379 7C5A2FAB 		.ascii	"|Z/\253(]\364W\341\342(\\\012E7\245\360\364v\332\303"
 372      285DF457 
 372      E1E2285C 
 372      0A4537A5 
 372      F0F476DA 
 373 038e B143A6A8 		.ascii	"\261C\246\250\263\177=\031.\253hu\373\253\350\341(z"
 373      B37F3D19 
 373      2EAB6875 
 373      FBABE8E1 
 373      287A
 374 03a0 140A37A5 		.ascii	"\024\0127\245X\372y\256\023\3431\231\242 \277\300\212"
 374      58FA79AE 
 374      13E33199 
 374      A220BFC0 
 374      8A
 375 03b1 A98AF227 		.ascii	"\251\212\362'u\322fno\367r\014\275\012C\037e(m\3654"
 375      75D2666E 
ARM GAS  C:\Users\Luggi\AppData\Local\Temp\cckBzFkb.s 			page 28


 375      6FF7720C 
 375      BD0A431F 
 375      65286DF5 
 376 03c6 69F0DF32 		.ascii	"i\360\3372C}k\305\200Af\270qR/\257a\272e\3729\202~\205"
 376      437D6BC5 
 376      804166B8 
 376      71522FAF 
 376      61BA65FA 
 377 03de E02A25B8 		.ascii	"\340*%\270\355\352\232\322\342#\230\022\264\345\333"
 377      EDEA9AD2 
 377      E2239812 
 377      B4E5DB
 378 03ed CAB43241 		.ascii	"\312\2642A\321)\205\200(\030\340\010\006\024\202AJ0"
 378      D1298580 
 378      2818E008 
 378      06148241 
 378      4A30
 379 03ff DB76C969 		.ascii	"\333v\311i\304'e\002[\353\340A\331\311\362\007gx\202"
 379      C4276502 
 379      5BEBE041 
 379      D9C9F207 
 379      677882
 380 0412 6B1CC135 		.ascii	"k\034\3015\205\340:%X\350\235\334\214\0352\336\372\304"
 380      85E03A25 
 380      58E89DDC 
 380      8C1D32DE 
 380      FAC4
 381 0424 7E947950 		.ascii	"~\224yPY\315\343\2078\374\220\202\037\246\370\253\005"
 381      59CDE387 
 381      38FC9082 
 381      1FA6F8AB 
 381      05
 382 0435 E38F35FC 		.ascii	"\343\2175\374\231\354\277\351G\344\303\214|\223%\356"
 382      99ECBFE9 
 382      47E4C38C 
 382      7C9325EE 
 383 0445 BE9B1FCA 		.ascii	"\276\233\037\312'\217\370%\217\262\344Q\232,}w\270\302"
 383      278FF825 
 383      8FB2E451 
 383      9A2C7D77 
 383      B8C2
 384 0457 80276569 		.ascii	"\200'ei\015\367\017\331\303\215\260{\363^b\367\302~"
 384      0DF70FD9 
 384      C38DB07B 
 384      F35E62F7 
 384      C27E
 385 0469 1FEA3F34 		.ascii	"\037\352?4\022*\357\367g\021\343A\367{^\233\251\233"
 385      122AEFF7 
 385      6711E341 
 385      F77B5E9B 
 385      A99B
 386 047b 1CC863B0 		.ascii	"\034\310c\260\201n\3706\274\007\261\035O\006@\313\220"
 386      816EF836 
 386      BC07B11D 
 386      4F0640CB 
 386      90
 387 048c 3B771CF3 		.ascii	";w\034\363]\214\371m\270\011\326\305\004\355\242\320"
ARM GAS  C:\Users\Luggi\AppData\Local\Temp\cckBzFkb.s 			page 29


 387      5D8CF96D 
 387      B809D6C5 
 387      04EDA2D0 
 388 049c DAB8A8C3 		.ascii	"\332\270\250\303\267\260\337!\025#\037R\223e\017+B\351"
 388      B7B0DF21 
 388      15231F52 
 388      93650F2B 
 388      42E9
 389 04ae 23F9ABFA 		.ascii	"#\371\253\372\012y5}c\364b\010\276C\3235\177\226\344"
 389      0A79357D 
 389      63F46208 
 389      BE43D335 
 389      7F96E4
 390 04c1 7AC350AC 		.ascii	"z\303P\254\221\250\233:[\035!!4\003\245\246|\322b\230"
 390      91A89B3A 
 390      5B1D2121 
 390      3403A5A6 
 390      7CD26298 
 391 04d5 B2C2A762 		.ascii	"\262\302\247b\004\337\357\30444\032\303\032\375\035"
 391      04DFEFC4 
 391      34341AC3 
 391      1AFD1D
 392 04e4 5E4E526B 		.ascii	"^NRk\220\375\330\240\323([\371r\010\215\343|\361#\223"
 392      90FDD8A0 
 392      D3285BF9 
 392      72088DE3 
 392      7CF12393 
 393 04f8 A263E55C 		.ascii	"\242c\345\\\205F\222\264h\026\224\374\346Sr\023\371"
 393      854692B4 
 393      681694FC 
 393      E6537213 
 393      F9
 394 0509 A40412DF 		.ascii	"\244\004\022\337R\2272{\353\247Gz\336\311Y?'\347\230"
 394      5297327B 
 394      EBA7477A 
 394      DEC9593F 
 394      27E798
 395 051c 9373D4C9 		.ascii	"\223s\324\311\373eG\227\374l\257\367\373\365\237g\311"
 395      FB654797 
 395      FC6CAFF7 
 395      FBF59F67 
 395      C9
 396 052d F334F9B8 		.ascii	"\3634\371\270m,\206\317u\370\345.\260\\\362\255\217"
 396      6D2C86CF 
 396      75F8E52E 
 396      B05CF2AD 
 396      8F
 397 053e FFF0A3E8 		.ascii	"\377\360\243\3508\341\365-[\343\222\022\267\354NJ\024"
 397      38E1F52D 
 397      5BE39212 
 397      B7EC4E4A 
 397      14
 398 054f BF48DA90 		.ascii	"\277H\332\220\264c\367\256\244\035\031\026\321l\316"
 398      B463F7AE 
 398      A41D1916 
 398      D16CCE
 399 055e DE6F793B 		.ascii	"\336oy;^\314\020\315\311\02615)13\333\234\"\356MH\314"
ARM GAS  C:\Users\Luggi\AppData\Local\Temp\cckBzFkb.s 			page 30


 399      5ECC10CD 
 399      C9163135 
 399      293133DB 
 399      9C22EE4D 
 400 0574 8C7B776F 		.ascii	"\214{wo\000d}\212\360*\240\266\212\237%g\247[\266'g"
 400      00647D8A 
 400      F02AA0B6 
 400      8A9F2567 
 400      A75BB627 
 401 0589 A4A68B66 		.ascii	"\244\246\213fSJNZ\226995\325,fe\305\250S\275\223\222"
 401      534A4E5A 
 401      96393935 
 401      D52C6665 
 401      C5A853BD 
 402 059f 63C9D92F 		.ascii	"c\311\331/f\255\377\\MH\242h\371XL\261d\232U\306\342"
 402      66ADFF5C 
 402      4D48A268 
 402      F9584CB1 
 402      649A55C6 
 403 05b4 95315D76 		.ascii	"\2251]vZ\206e\323\233\252\350\004sZ\2469\315\222\243"
 403      5A8665D3 
 403      9BAAE804 
 403      735AA639 
 403      CD92A3
 404 05c7 321AEF1B 		.ascii	"2\032\357\033]\0238\272-#\371\323t1J\025\226h\2016^"
 404      5D1338BA 
 404      2D23F9D3 
 404      74314A15 
 404      96688136 
 405 05dc 0B1CDA9A 		.ascii	"\013\034\332\232\226E@\253U\224X\222\315\026\025\004"
 405      964540AB 
 405      55945892 
 405      CD161504 
 406 05ec 7DBFEDCB 		.ascii	"}\277\355\313H\265\221\314\375o\250\267$f\244\246e\354"
 406      48B591CC 
 406      FD6FA8B7 
 406      2466A4A6 
 406      65EC
 407 05fe 7B2B7030 		.ascii	"{+p0.]L6\263a\255Y\334\267I\007\037\0337\350\211?\033"
 407      2E5D4C36 
 407      B361AD59 
 407      DCB74907 
 407      1F1B37E8 
 408 0615 37FC0F5C 		.ascii	"7\374\017\\4\246\237"
 408      34A69F
 409              		.text
 410              		.section	.gnu.lto_.symtab.53c7cb31,"",%progbits
 411 0000 4144435F 		.ascii	"ADC_SAR_Seq_2_IRQ_Interrupt\000\000\000\000\000\000"
 411      5341525F 
 411      5365715F 
 411      325F4952 
 411      515F496E 
 412 0021 00000000 		.ascii	"\000\000\000\000\000\000\255\000\000\000ADC_SAR_Seq"
 412      0000AD00 
 412      00004144 
 412      435F5341 
 412      525F5365 
ARM GAS  C:\Users\Luggi\AppData\Local\Temp\cckBzFkb.s 			page 31


 413 0036 5F325F49 		.ascii	"_2_IRQ_SetVector\000\000\000\000\000\000\000\000\000"
 413      52515F53 
 413      65745665 
 413      63746F72 
 413      00000000 
 414 004f 000000B6 		.ascii	"\000\000\000\266\000\000\000ADC_SAR_Seq_2_IRQ_GetVe"
 414      00000041 
 414      44435F53 
 414      41525F53 
 414      65715F32 
 415 006d 63746F72 		.ascii	"ctor\000\000\000\000\000\000\000\000\000\000\000\000"
 415      00000000 
 415      00000000 
 415      00000000 
 416 007d B9000000 		.ascii	"\271\000\000\000ADC_SAR_Seq_2_IRQ_SetPriority\000\000"
 416      4144435F 
 416      5341525F 
 416      5365715F 
 416      325F4952 
 417 00a0 00000000 		.ascii	"\000\000\000\000\000\000\000\000\000\000\302\000\000"
 417      00000000 
 417      0000C200 
 417      00
 418 00ad 00414443 		.ascii	"\000ADC_SAR_Seq_2_IRQ_GetPriority\000\000\000\000\000"
 418      5F534152 
 418      5F536571 
 418      5F325F49 
 418      52515F47 
 419 00d0 00000000 		.ascii	"\000\000\000\000\000\000\000\305\000\000\000ADC_SAR"
 419      000000C5 
 419      00000041 
 419      44435F53 
 419      4152
 420 00e2 5F536571 		.ascii	"_Seq_2_IRQ_Enable\000\000\000\000\000\000\000\000\000"
 420      5F325F49 
 420      52515F45 
 420      6E61626C 
 420      65000000 
 421 00fc 000000C7 		.ascii	"\000\000\000\307\000\000\000ADC_SAR_Seq_2_IRQ_GetSt"
 421      00000041 
 421      44435F53 
 421      41525F53 
 421      65715F32 
 422 011a 61746500 		.ascii	"ate\000\000\000\000\000\000\000\000\000\000\000\000"
 422      00000000 
 422      00000000 
 422      000000
 423 0129 C9000000 		.ascii	"\311\000\000\000ADC_SAR_Seq_2_IRQ_Disable\000\000\000"
 423      4144435F 
 423      5341525F 
 423      5365715F 
 423      325F4952 
 424 0149 00000000 		.ascii	"\000\000\000\000\000\000\000\000\000\313\000\000\000"
 424      00000000 
 424      00CB0000 
 424      00
 425 0156 4144435F 		.ascii	"ADC_SAR_Seq_2_IRQ_Start\000\000\000\000\000\000\000"
ARM GAS  C:\Users\Luggi\AppData\Local\Temp\cckBzFkb.s 			page 32


 425      5341525F 
 425      5365715F 
 425      325F4952 
 425      515F5374 
 426 0174 00000000 		.ascii	"\000\000\000\000\000\315\000\000\000ADC_SAR_Seq_2_I"
 426      00CD0000 
 426      00414443 
 426      5F534152 
 426      5F536571 
 427 018c 52515F53 		.ascii	"RQ_StartEx\000\000\000\000\000\000\000\000\000\000\000"
 427      74617274 
 427      45780000 
 427      00000000 
 427      00000000 
 428 01a1 00CF0000 		.ascii	"\000\317\000\000\000ADC_SAR_Seq_2_IRQ_Stop\000\000\000"
 428      00414443 
 428      5F534152 
 428      5F536571 
 428      5F325F49 
 429 01bf 00000000 		.ascii	"\000\000\000\000\000\000\000\000\000\321\000\000\000"
 429      00000000 
 429      00D10000 
 429      00
 430 01cc 4144435F 		.ascii	"ADC_SAR_Seq_2_IRQ_SetPending\000\000\000\000\000\000"
 430      5341525F 
 430      5365715F 
 430      325F4952 
 430      515F5365 
 431 01ee 00000000 		.ascii	"\000\000\000\000\000\000\323\000\000\000ADC_SAR_Seq"
 431      0000D300 
 431      00004144 
 431      435F5341 
 431      525F5365 
 432 0203 5F325F49 		.ascii	"_2_IRQ_ClearPending\000\000\000\000\000\000\000\000"
 432      52515F43 
 432      6C656172 
 432      50656E64 
 432      696E6700 
 433 021e 00000000 		.ascii	"\000\000\000\000\325\000\000\000IntDefaultHandler\000"
 433      D5000000 
 433      496E7444 
 433      65666175 
 433      6C744861 
 434 0238 00020000 		.ascii	"\000\002\000\000\000\000\000\000\000\000\000\257\000"
 434      00000000 
 434      000000AF 
 434      00
 435 0245 0000     		.ascii	"\000\000"
 436              		.text
 437              		.section	.gnu.lto_.opts,"",%progbits
 438 0000 272D666E 		.ascii	"'-fno-trapv' '-fno-strict-overflow' '-mcpu=cortex-m"
 438      6F2D7472 
 438      61707627 
 438      20272D66 
 438      6E6F2D73 
 439 0033 33272027 		.ascii	"3' '-mthumb' '-g' '-Og' '-ffunction-sections' '-flt"
 439      2D6D7468 
ARM GAS  C:\Users\Luggi\AppData\Local\Temp\cckBzFkb.s 			page 33


 439      756D6227 
 439      20272D67 
 439      2720272D 
 440 0066 6F272027 		.ascii	"o' '-ffat-lto-objects'\000"
 440      2D666661 
 440      742D6C74 
 440      6F2D6F62 
 440      6A656374 
 441              		.text
 442              		.cfi_sections	.debug_frame
 443              		.section	.text.ADC_SAR_Seq_2_IRQ_Interrupt,"ax",%progbits
 444              		.align	2
 445              		.global	ADC_SAR_Seq_2_IRQ_Interrupt
 446              		.thumb
 447              		.thumb_func
 448              		.type	ADC_SAR_Seq_2_IRQ_Interrupt, %function
 449              	ADC_SAR_Seq_2_IRQ_Interrupt:
 450              	.LFB3:
 451              		.file 1 "Generated_Source\\PSoC5\\ADC_SAR_Seq_2_IRQ.c"
   1:Generated_Source\PSoC5/ADC_SAR_Seq_2_IRQ.c **** /*******************************************************************************
   2:Generated_Source\PSoC5/ADC_SAR_Seq_2_IRQ.c **** * File Name: ADC_SAR_Seq_2_IRQ.c  
   3:Generated_Source\PSoC5/ADC_SAR_Seq_2_IRQ.c **** * Version 1.70
   4:Generated_Source\PSoC5/ADC_SAR_Seq_2_IRQ.c **** *
   5:Generated_Source\PSoC5/ADC_SAR_Seq_2_IRQ.c **** *  Description:
   6:Generated_Source\PSoC5/ADC_SAR_Seq_2_IRQ.c **** *   API for controlling the state of an interrupt.
   7:Generated_Source\PSoC5/ADC_SAR_Seq_2_IRQ.c **** *
   8:Generated_Source\PSoC5/ADC_SAR_Seq_2_IRQ.c **** *
   9:Generated_Source\PSoC5/ADC_SAR_Seq_2_IRQ.c **** *  Note:
  10:Generated_Source\PSoC5/ADC_SAR_Seq_2_IRQ.c **** *
  11:Generated_Source\PSoC5/ADC_SAR_Seq_2_IRQ.c **** ********************************************************************************
  12:Generated_Source\PSoC5/ADC_SAR_Seq_2_IRQ.c **** * Copyright 2008-2015, Cypress Semiconductor Corporation.  All rights reserved.
  13:Generated_Source\PSoC5/ADC_SAR_Seq_2_IRQ.c **** * You may use this file only in accordance with the license, terms, conditions, 
  14:Generated_Source\PSoC5/ADC_SAR_Seq_2_IRQ.c **** * disclaimers, and limitations in the end user license agreement accompanying 
  15:Generated_Source\PSoC5/ADC_SAR_Seq_2_IRQ.c **** * the software package with which this file was provided.
  16:Generated_Source\PSoC5/ADC_SAR_Seq_2_IRQ.c **** *******************************************************************************/
  17:Generated_Source\PSoC5/ADC_SAR_Seq_2_IRQ.c **** 
  18:Generated_Source\PSoC5/ADC_SAR_Seq_2_IRQ.c **** 
  19:Generated_Source\PSoC5/ADC_SAR_Seq_2_IRQ.c **** #include <cydevice_trm.h>
  20:Generated_Source\PSoC5/ADC_SAR_Seq_2_IRQ.c **** #include <CyLib.h>
  21:Generated_Source\PSoC5/ADC_SAR_Seq_2_IRQ.c **** #include <ADC_SAR_Seq_2_IRQ.h>
  22:Generated_Source\PSoC5/ADC_SAR_Seq_2_IRQ.c **** 
  23:Generated_Source\PSoC5/ADC_SAR_Seq_2_IRQ.c **** 
  24:Generated_Source\PSoC5/ADC_SAR_Seq_2_IRQ.c **** #if !defined(ADC_SAR_Seq_2_IRQ__REMOVED) /* Check for removal by optimization */
  25:Generated_Source\PSoC5/ADC_SAR_Seq_2_IRQ.c **** 
  26:Generated_Source\PSoC5/ADC_SAR_Seq_2_IRQ.c **** /*******************************************************************************
  27:Generated_Source\PSoC5/ADC_SAR_Seq_2_IRQ.c **** *  Place your includes, defines and code here 
  28:Generated_Source\PSoC5/ADC_SAR_Seq_2_IRQ.c **** ********************************************************************************/
  29:Generated_Source\PSoC5/ADC_SAR_Seq_2_IRQ.c **** /* `#START ADC_SAR_Seq_2_IRQ_intc` */
  30:Generated_Source\PSoC5/ADC_SAR_Seq_2_IRQ.c **** 
  31:Generated_Source\PSoC5/ADC_SAR_Seq_2_IRQ.c **** /* `#END` */
  32:Generated_Source\PSoC5/ADC_SAR_Seq_2_IRQ.c **** 
  33:Generated_Source\PSoC5/ADC_SAR_Seq_2_IRQ.c **** #ifndef CYINT_IRQ_BASE
  34:Generated_Source\PSoC5/ADC_SAR_Seq_2_IRQ.c **** #define CYINT_IRQ_BASE      16
  35:Generated_Source\PSoC5/ADC_SAR_Seq_2_IRQ.c **** #endif /* CYINT_IRQ_BASE */
  36:Generated_Source\PSoC5/ADC_SAR_Seq_2_IRQ.c **** #ifndef CYINT_VECT_TABLE
  37:Generated_Source\PSoC5/ADC_SAR_Seq_2_IRQ.c **** #define CYINT_VECT_TABLE    ((cyisraddress **) CYREG_NVIC_VECT_OFFSET)
  38:Generated_Source\PSoC5/ADC_SAR_Seq_2_IRQ.c **** #endif /* CYINT_VECT_TABLE */
ARM GAS  C:\Users\Luggi\AppData\Local\Temp\cckBzFkb.s 			page 34


  39:Generated_Source\PSoC5/ADC_SAR_Seq_2_IRQ.c **** 
  40:Generated_Source\PSoC5/ADC_SAR_Seq_2_IRQ.c **** /* Declared in startup, used to set unused interrupts to. */
  41:Generated_Source\PSoC5/ADC_SAR_Seq_2_IRQ.c **** CY_ISR_PROTO(IntDefaultHandler);
  42:Generated_Source\PSoC5/ADC_SAR_Seq_2_IRQ.c **** 
  43:Generated_Source\PSoC5/ADC_SAR_Seq_2_IRQ.c **** 
  44:Generated_Source\PSoC5/ADC_SAR_Seq_2_IRQ.c **** /*******************************************************************************
  45:Generated_Source\PSoC5/ADC_SAR_Seq_2_IRQ.c **** * Function Name: ADC_SAR_Seq_2_IRQ_Start
  46:Generated_Source\PSoC5/ADC_SAR_Seq_2_IRQ.c **** ********************************************************************************
  47:Generated_Source\PSoC5/ADC_SAR_Seq_2_IRQ.c **** *
  48:Generated_Source\PSoC5/ADC_SAR_Seq_2_IRQ.c **** * Summary:
  49:Generated_Source\PSoC5/ADC_SAR_Seq_2_IRQ.c **** *  Set up the interrupt and enable it. This function disables the interrupt, 
  50:Generated_Source\PSoC5/ADC_SAR_Seq_2_IRQ.c **** *  sets the default interrupt vector, sets the priority from the value in the
  51:Generated_Source\PSoC5/ADC_SAR_Seq_2_IRQ.c **** *  Design Wide Resources Interrupt Editor, then enables the interrupt to the 
  52:Generated_Source\PSoC5/ADC_SAR_Seq_2_IRQ.c **** *  interrupt controller.
  53:Generated_Source\PSoC5/ADC_SAR_Seq_2_IRQ.c **** *
  54:Generated_Source\PSoC5/ADC_SAR_Seq_2_IRQ.c **** * Parameters:  
  55:Generated_Source\PSoC5/ADC_SAR_Seq_2_IRQ.c **** *   None
  56:Generated_Source\PSoC5/ADC_SAR_Seq_2_IRQ.c **** *
  57:Generated_Source\PSoC5/ADC_SAR_Seq_2_IRQ.c **** * Return:
  58:Generated_Source\PSoC5/ADC_SAR_Seq_2_IRQ.c **** *   None
  59:Generated_Source\PSoC5/ADC_SAR_Seq_2_IRQ.c **** *
  60:Generated_Source\PSoC5/ADC_SAR_Seq_2_IRQ.c **** *******************************************************************************/
  61:Generated_Source\PSoC5/ADC_SAR_Seq_2_IRQ.c **** void ADC_SAR_Seq_2_IRQ_Start(void)
  62:Generated_Source\PSoC5/ADC_SAR_Seq_2_IRQ.c **** {
  63:Generated_Source\PSoC5/ADC_SAR_Seq_2_IRQ.c ****     /* For all we know the interrupt is active. */
  64:Generated_Source\PSoC5/ADC_SAR_Seq_2_IRQ.c ****     ADC_SAR_Seq_2_IRQ_Disable();
  65:Generated_Source\PSoC5/ADC_SAR_Seq_2_IRQ.c **** 
  66:Generated_Source\PSoC5/ADC_SAR_Seq_2_IRQ.c ****     /* Set the ISR to point to the ADC_SAR_Seq_2_IRQ Interrupt. */
  67:Generated_Source\PSoC5/ADC_SAR_Seq_2_IRQ.c ****     ADC_SAR_Seq_2_IRQ_SetVector(&ADC_SAR_Seq_2_IRQ_Interrupt);
  68:Generated_Source\PSoC5/ADC_SAR_Seq_2_IRQ.c **** 
  69:Generated_Source\PSoC5/ADC_SAR_Seq_2_IRQ.c ****     /* Set the priority. */
  70:Generated_Source\PSoC5/ADC_SAR_Seq_2_IRQ.c ****     ADC_SAR_Seq_2_IRQ_SetPriority((uint8)ADC_SAR_Seq_2_IRQ_INTC_PRIOR_NUMBER);
  71:Generated_Source\PSoC5/ADC_SAR_Seq_2_IRQ.c **** 
  72:Generated_Source\PSoC5/ADC_SAR_Seq_2_IRQ.c ****     /* Enable it. */
  73:Generated_Source\PSoC5/ADC_SAR_Seq_2_IRQ.c ****     ADC_SAR_Seq_2_IRQ_Enable();
  74:Generated_Source\PSoC5/ADC_SAR_Seq_2_IRQ.c **** }
  75:Generated_Source\PSoC5/ADC_SAR_Seq_2_IRQ.c **** 
  76:Generated_Source\PSoC5/ADC_SAR_Seq_2_IRQ.c **** 
  77:Generated_Source\PSoC5/ADC_SAR_Seq_2_IRQ.c **** /*******************************************************************************
  78:Generated_Source\PSoC5/ADC_SAR_Seq_2_IRQ.c **** * Function Name: ADC_SAR_Seq_2_IRQ_StartEx
  79:Generated_Source\PSoC5/ADC_SAR_Seq_2_IRQ.c **** ********************************************************************************
  80:Generated_Source\PSoC5/ADC_SAR_Seq_2_IRQ.c **** *
  81:Generated_Source\PSoC5/ADC_SAR_Seq_2_IRQ.c **** * Summary:
  82:Generated_Source\PSoC5/ADC_SAR_Seq_2_IRQ.c **** *  Sets up the interrupt and enables it. This function disables the interrupt,
  83:Generated_Source\PSoC5/ADC_SAR_Seq_2_IRQ.c **** *  sets the interrupt vector based on the address passed in, sets the priority 
  84:Generated_Source\PSoC5/ADC_SAR_Seq_2_IRQ.c **** *  from the value in the Design Wide Resources Interrupt Editor, then enables 
  85:Generated_Source\PSoC5/ADC_SAR_Seq_2_IRQ.c **** *  the interrupt to the interrupt controller.
  86:Generated_Source\PSoC5/ADC_SAR_Seq_2_IRQ.c **** *  
  87:Generated_Source\PSoC5/ADC_SAR_Seq_2_IRQ.c **** *  When defining ISR functions, the CY_ISR and CY_ISR_PROTO macros should be 
  88:Generated_Source\PSoC5/ADC_SAR_Seq_2_IRQ.c **** *  used to provide consistent definition across compilers:
  89:Generated_Source\PSoC5/ADC_SAR_Seq_2_IRQ.c **** *  
  90:Generated_Source\PSoC5/ADC_SAR_Seq_2_IRQ.c **** *  Function definition example:
  91:Generated_Source\PSoC5/ADC_SAR_Seq_2_IRQ.c **** *   CY_ISR(MyISR)
  92:Generated_Source\PSoC5/ADC_SAR_Seq_2_IRQ.c **** *   {
  93:Generated_Source\PSoC5/ADC_SAR_Seq_2_IRQ.c **** *   }
  94:Generated_Source\PSoC5/ADC_SAR_Seq_2_IRQ.c **** *   Function prototype example:
  95:Generated_Source\PSoC5/ADC_SAR_Seq_2_IRQ.c **** *   CY_ISR_PROTO(MyISR);
ARM GAS  C:\Users\Luggi\AppData\Local\Temp\cckBzFkb.s 			page 35


  96:Generated_Source\PSoC5/ADC_SAR_Seq_2_IRQ.c **** *
  97:Generated_Source\PSoC5/ADC_SAR_Seq_2_IRQ.c **** * Parameters:  
  98:Generated_Source\PSoC5/ADC_SAR_Seq_2_IRQ.c **** *   address: Address of the ISR to set in the interrupt vector table.
  99:Generated_Source\PSoC5/ADC_SAR_Seq_2_IRQ.c **** *
 100:Generated_Source\PSoC5/ADC_SAR_Seq_2_IRQ.c **** * Return:
 101:Generated_Source\PSoC5/ADC_SAR_Seq_2_IRQ.c **** *   None
 102:Generated_Source\PSoC5/ADC_SAR_Seq_2_IRQ.c **** *
 103:Generated_Source\PSoC5/ADC_SAR_Seq_2_IRQ.c **** *******************************************************************************/
 104:Generated_Source\PSoC5/ADC_SAR_Seq_2_IRQ.c **** void ADC_SAR_Seq_2_IRQ_StartEx(cyisraddress address)
 105:Generated_Source\PSoC5/ADC_SAR_Seq_2_IRQ.c **** {
 106:Generated_Source\PSoC5/ADC_SAR_Seq_2_IRQ.c ****     /* For all we know the interrupt is active. */
 107:Generated_Source\PSoC5/ADC_SAR_Seq_2_IRQ.c ****     ADC_SAR_Seq_2_IRQ_Disable();
 108:Generated_Source\PSoC5/ADC_SAR_Seq_2_IRQ.c **** 
 109:Generated_Source\PSoC5/ADC_SAR_Seq_2_IRQ.c ****     /* Set the ISR to point to the ADC_SAR_Seq_2_IRQ Interrupt. */
 110:Generated_Source\PSoC5/ADC_SAR_Seq_2_IRQ.c ****     ADC_SAR_Seq_2_IRQ_SetVector(address);
 111:Generated_Source\PSoC5/ADC_SAR_Seq_2_IRQ.c **** 
 112:Generated_Source\PSoC5/ADC_SAR_Seq_2_IRQ.c ****     /* Set the priority. */
 113:Generated_Source\PSoC5/ADC_SAR_Seq_2_IRQ.c ****     ADC_SAR_Seq_2_IRQ_SetPriority((uint8)ADC_SAR_Seq_2_IRQ_INTC_PRIOR_NUMBER);
 114:Generated_Source\PSoC5/ADC_SAR_Seq_2_IRQ.c **** 
 115:Generated_Source\PSoC5/ADC_SAR_Seq_2_IRQ.c ****     /* Enable it. */
 116:Generated_Source\PSoC5/ADC_SAR_Seq_2_IRQ.c ****     ADC_SAR_Seq_2_IRQ_Enable();
 117:Generated_Source\PSoC5/ADC_SAR_Seq_2_IRQ.c **** }
 118:Generated_Source\PSoC5/ADC_SAR_Seq_2_IRQ.c **** 
 119:Generated_Source\PSoC5/ADC_SAR_Seq_2_IRQ.c **** 
 120:Generated_Source\PSoC5/ADC_SAR_Seq_2_IRQ.c **** /*******************************************************************************
 121:Generated_Source\PSoC5/ADC_SAR_Seq_2_IRQ.c **** * Function Name: ADC_SAR_Seq_2_IRQ_Stop
 122:Generated_Source\PSoC5/ADC_SAR_Seq_2_IRQ.c **** ********************************************************************************
 123:Generated_Source\PSoC5/ADC_SAR_Seq_2_IRQ.c **** *
 124:Generated_Source\PSoC5/ADC_SAR_Seq_2_IRQ.c **** * Summary:
 125:Generated_Source\PSoC5/ADC_SAR_Seq_2_IRQ.c **** *   Disables and removes the interrupt.
 126:Generated_Source\PSoC5/ADC_SAR_Seq_2_IRQ.c **** *
 127:Generated_Source\PSoC5/ADC_SAR_Seq_2_IRQ.c **** * Parameters:  
 128:Generated_Source\PSoC5/ADC_SAR_Seq_2_IRQ.c **** *   None
 129:Generated_Source\PSoC5/ADC_SAR_Seq_2_IRQ.c **** *
 130:Generated_Source\PSoC5/ADC_SAR_Seq_2_IRQ.c **** * Return:
 131:Generated_Source\PSoC5/ADC_SAR_Seq_2_IRQ.c **** *   None
 132:Generated_Source\PSoC5/ADC_SAR_Seq_2_IRQ.c **** *
 133:Generated_Source\PSoC5/ADC_SAR_Seq_2_IRQ.c **** *******************************************************************************/
 134:Generated_Source\PSoC5/ADC_SAR_Seq_2_IRQ.c **** void ADC_SAR_Seq_2_IRQ_Stop(void)
 135:Generated_Source\PSoC5/ADC_SAR_Seq_2_IRQ.c **** {
 136:Generated_Source\PSoC5/ADC_SAR_Seq_2_IRQ.c ****     /* Disable this interrupt. */
 137:Generated_Source\PSoC5/ADC_SAR_Seq_2_IRQ.c ****     ADC_SAR_Seq_2_IRQ_Disable();
 138:Generated_Source\PSoC5/ADC_SAR_Seq_2_IRQ.c **** 
 139:Generated_Source\PSoC5/ADC_SAR_Seq_2_IRQ.c ****     /* Set the ISR to point to the passive one. */
 140:Generated_Source\PSoC5/ADC_SAR_Seq_2_IRQ.c ****     ADC_SAR_Seq_2_IRQ_SetVector(&IntDefaultHandler);
 141:Generated_Source\PSoC5/ADC_SAR_Seq_2_IRQ.c **** }
 142:Generated_Source\PSoC5/ADC_SAR_Seq_2_IRQ.c **** 
 143:Generated_Source\PSoC5/ADC_SAR_Seq_2_IRQ.c **** 
 144:Generated_Source\PSoC5/ADC_SAR_Seq_2_IRQ.c **** /*******************************************************************************
 145:Generated_Source\PSoC5/ADC_SAR_Seq_2_IRQ.c **** * Function Name: ADC_SAR_Seq_2_IRQ_Interrupt
 146:Generated_Source\PSoC5/ADC_SAR_Seq_2_IRQ.c **** ********************************************************************************
 147:Generated_Source\PSoC5/ADC_SAR_Seq_2_IRQ.c **** *
 148:Generated_Source\PSoC5/ADC_SAR_Seq_2_IRQ.c **** * Summary:
 149:Generated_Source\PSoC5/ADC_SAR_Seq_2_IRQ.c **** *   The default Interrupt Service Routine for ADC_SAR_Seq_2_IRQ.
 150:Generated_Source\PSoC5/ADC_SAR_Seq_2_IRQ.c **** *
 151:Generated_Source\PSoC5/ADC_SAR_Seq_2_IRQ.c **** *   Add custom code between the coments to keep the next version of this file
 152:Generated_Source\PSoC5/ADC_SAR_Seq_2_IRQ.c **** *   from over writting your code.
ARM GAS  C:\Users\Luggi\AppData\Local\Temp\cckBzFkb.s 			page 36


 153:Generated_Source\PSoC5/ADC_SAR_Seq_2_IRQ.c **** *
 154:Generated_Source\PSoC5/ADC_SAR_Seq_2_IRQ.c **** * Parameters:  
 155:Generated_Source\PSoC5/ADC_SAR_Seq_2_IRQ.c **** *
 156:Generated_Source\PSoC5/ADC_SAR_Seq_2_IRQ.c **** * Return:
 157:Generated_Source\PSoC5/ADC_SAR_Seq_2_IRQ.c **** *   None
 158:Generated_Source\PSoC5/ADC_SAR_Seq_2_IRQ.c **** *
 159:Generated_Source\PSoC5/ADC_SAR_Seq_2_IRQ.c **** *******************************************************************************/
 160:Generated_Source\PSoC5/ADC_SAR_Seq_2_IRQ.c **** CY_ISR(ADC_SAR_Seq_2_IRQ_Interrupt)
 161:Generated_Source\PSoC5/ADC_SAR_Seq_2_IRQ.c **** {
 452              		.loc 1 161 0
 453              		.cfi_startproc
 454              		@ args = 0, pretend = 0, frame = 0
 455              		@ frame_needed = 0, uses_anonymous_args = 0
 456              		@ link register save eliminated.
 457 0000 7047     		bx	lr
 458              		.cfi_endproc
 459              	.LFE3:
 460              		.size	ADC_SAR_Seq_2_IRQ_Interrupt, .-ADC_SAR_Seq_2_IRQ_Interrupt
 461 0002 00BF     		.section	.text.ADC_SAR_Seq_2_IRQ_SetVector,"ax",%progbits
 462              		.align	2
 463              		.global	ADC_SAR_Seq_2_IRQ_SetVector
 464              		.thumb
 465              		.thumb_func
 466              		.type	ADC_SAR_Seq_2_IRQ_SetVector, %function
 467              	ADC_SAR_Seq_2_IRQ_SetVector:
 468              	.LFB4:
 162:Generated_Source\PSoC5/ADC_SAR_Seq_2_IRQ.c ****     #ifdef ADC_SAR_Seq_2_IRQ_INTERRUPT_INTERRUPT_CALLBACK
 163:Generated_Source\PSoC5/ADC_SAR_Seq_2_IRQ.c ****         ADC_SAR_Seq_2_IRQ_Interrupt_InterruptCallback();
 164:Generated_Source\PSoC5/ADC_SAR_Seq_2_IRQ.c ****     #endif /* ADC_SAR_Seq_2_IRQ_INTERRUPT_INTERRUPT_CALLBACK */ 
 165:Generated_Source\PSoC5/ADC_SAR_Seq_2_IRQ.c **** 
 166:Generated_Source\PSoC5/ADC_SAR_Seq_2_IRQ.c ****     /*  Place your Interrupt code here. */
 167:Generated_Source\PSoC5/ADC_SAR_Seq_2_IRQ.c ****     /* `#START ADC_SAR_Seq_2_IRQ_Interrupt` */
 168:Generated_Source\PSoC5/ADC_SAR_Seq_2_IRQ.c **** 
 169:Generated_Source\PSoC5/ADC_SAR_Seq_2_IRQ.c ****     /* `#END` */
 170:Generated_Source\PSoC5/ADC_SAR_Seq_2_IRQ.c **** }
 171:Generated_Source\PSoC5/ADC_SAR_Seq_2_IRQ.c **** 
 172:Generated_Source\PSoC5/ADC_SAR_Seq_2_IRQ.c **** 
 173:Generated_Source\PSoC5/ADC_SAR_Seq_2_IRQ.c **** /*******************************************************************************
 174:Generated_Source\PSoC5/ADC_SAR_Seq_2_IRQ.c **** * Function Name: ADC_SAR_Seq_2_IRQ_SetVector
 175:Generated_Source\PSoC5/ADC_SAR_Seq_2_IRQ.c **** ********************************************************************************
 176:Generated_Source\PSoC5/ADC_SAR_Seq_2_IRQ.c **** *
 177:Generated_Source\PSoC5/ADC_SAR_Seq_2_IRQ.c **** * Summary:
 178:Generated_Source\PSoC5/ADC_SAR_Seq_2_IRQ.c **** *   Change the ISR vector for the Interrupt. Note calling ADC_SAR_Seq_2_IRQ_Start
 179:Generated_Source\PSoC5/ADC_SAR_Seq_2_IRQ.c **** *   will override any effect this method would have had. To set the vector 
 180:Generated_Source\PSoC5/ADC_SAR_Seq_2_IRQ.c **** *   before the component has been started use ADC_SAR_Seq_2_IRQ_StartEx instead.
 181:Generated_Source\PSoC5/ADC_SAR_Seq_2_IRQ.c **** * 
 182:Generated_Source\PSoC5/ADC_SAR_Seq_2_IRQ.c **** *   When defining ISR functions, the CY_ISR and CY_ISR_PROTO macros should be 
 183:Generated_Source\PSoC5/ADC_SAR_Seq_2_IRQ.c **** *   used to provide consistent definition across compilers:
 184:Generated_Source\PSoC5/ADC_SAR_Seq_2_IRQ.c **** *
 185:Generated_Source\PSoC5/ADC_SAR_Seq_2_IRQ.c **** *   Function definition example:
 186:Generated_Source\PSoC5/ADC_SAR_Seq_2_IRQ.c **** *   CY_ISR(MyISR)
 187:Generated_Source\PSoC5/ADC_SAR_Seq_2_IRQ.c **** *   {
 188:Generated_Source\PSoC5/ADC_SAR_Seq_2_IRQ.c **** *   }
 189:Generated_Source\PSoC5/ADC_SAR_Seq_2_IRQ.c **** *
 190:Generated_Source\PSoC5/ADC_SAR_Seq_2_IRQ.c **** *   Function prototype example:
 191:Generated_Source\PSoC5/ADC_SAR_Seq_2_IRQ.c **** *     CY_ISR_PROTO(MyISR);
 192:Generated_Source\PSoC5/ADC_SAR_Seq_2_IRQ.c **** *
ARM GAS  C:\Users\Luggi\AppData\Local\Temp\cckBzFkb.s 			page 37


 193:Generated_Source\PSoC5/ADC_SAR_Seq_2_IRQ.c **** * Parameters:
 194:Generated_Source\PSoC5/ADC_SAR_Seq_2_IRQ.c **** *   address: Address of the ISR to set in the interrupt vector table.
 195:Generated_Source\PSoC5/ADC_SAR_Seq_2_IRQ.c **** *
 196:Generated_Source\PSoC5/ADC_SAR_Seq_2_IRQ.c **** * Return:
 197:Generated_Source\PSoC5/ADC_SAR_Seq_2_IRQ.c **** *   None
 198:Generated_Source\PSoC5/ADC_SAR_Seq_2_IRQ.c **** *
 199:Generated_Source\PSoC5/ADC_SAR_Seq_2_IRQ.c **** *******************************************************************************/
 200:Generated_Source\PSoC5/ADC_SAR_Seq_2_IRQ.c **** void ADC_SAR_Seq_2_IRQ_SetVector(cyisraddress address)
 201:Generated_Source\PSoC5/ADC_SAR_Seq_2_IRQ.c **** {
 469              		.loc 1 201 0
 470              		.cfi_startproc
 471              		@ args = 0, pretend = 0, frame = 0
 472              		@ frame_needed = 0, uses_anonymous_args = 0
 473              		@ link register save eliminated.
 474              	.LVL0:
 202:Generated_Source\PSoC5/ADC_SAR_Seq_2_IRQ.c ****     cyisraddress * ramVectorTable;
 203:Generated_Source\PSoC5/ADC_SAR_Seq_2_IRQ.c **** 
 204:Generated_Source\PSoC5/ADC_SAR_Seq_2_IRQ.c ****     ramVectorTable = (cyisraddress *) *CYINT_VECT_TABLE;
 475              		.loc 1 204 0
 476 0000 014B     		ldr	r3, .L3
 477 0002 1B68     		ldr	r3, [r3]
 478              	.LVL1:
 205:Generated_Source\PSoC5/ADC_SAR_Seq_2_IRQ.c **** 
 206:Generated_Source\PSoC5/ADC_SAR_Seq_2_IRQ.c ****     ramVectorTable[CYINT_IRQ_BASE + (uint32)ADC_SAR_Seq_2_IRQ__INTC_NUMBER] = address;
 479              		.loc 1 206 0
 480 0004 9864     		str	r0, [r3, #72]
 481 0006 7047     		bx	lr
 482              	.L4:
 483              		.align	2
 484              	.L3:
 485 0008 08ED00E0 		.word	-536810232
 486              		.cfi_endproc
 487              	.LFE4:
 488              		.size	ADC_SAR_Seq_2_IRQ_SetVector, .-ADC_SAR_Seq_2_IRQ_SetVector
 489              		.section	.text.ADC_SAR_Seq_2_IRQ_GetVector,"ax",%progbits
 490              		.align	2
 491              		.global	ADC_SAR_Seq_2_IRQ_GetVector
 492              		.thumb
 493              		.thumb_func
 494              		.type	ADC_SAR_Seq_2_IRQ_GetVector, %function
 495              	ADC_SAR_Seq_2_IRQ_GetVector:
 496              	.LFB5:
 207:Generated_Source\PSoC5/ADC_SAR_Seq_2_IRQ.c **** }
 208:Generated_Source\PSoC5/ADC_SAR_Seq_2_IRQ.c **** 
 209:Generated_Source\PSoC5/ADC_SAR_Seq_2_IRQ.c **** 
 210:Generated_Source\PSoC5/ADC_SAR_Seq_2_IRQ.c **** /*******************************************************************************
 211:Generated_Source\PSoC5/ADC_SAR_Seq_2_IRQ.c **** * Function Name: ADC_SAR_Seq_2_IRQ_GetVector
 212:Generated_Source\PSoC5/ADC_SAR_Seq_2_IRQ.c **** ********************************************************************************
 213:Generated_Source\PSoC5/ADC_SAR_Seq_2_IRQ.c **** *
 214:Generated_Source\PSoC5/ADC_SAR_Seq_2_IRQ.c **** * Summary:
 215:Generated_Source\PSoC5/ADC_SAR_Seq_2_IRQ.c **** *   Gets the "address" of the current ISR vector for the Interrupt.
 216:Generated_Source\PSoC5/ADC_SAR_Seq_2_IRQ.c **** *
 217:Generated_Source\PSoC5/ADC_SAR_Seq_2_IRQ.c **** * Parameters:
 218:Generated_Source\PSoC5/ADC_SAR_Seq_2_IRQ.c **** *   None
 219:Generated_Source\PSoC5/ADC_SAR_Seq_2_IRQ.c **** *
 220:Generated_Source\PSoC5/ADC_SAR_Seq_2_IRQ.c **** * Return:
 221:Generated_Source\PSoC5/ADC_SAR_Seq_2_IRQ.c **** *   Address of the ISR in the interrupt vector table.
ARM GAS  C:\Users\Luggi\AppData\Local\Temp\cckBzFkb.s 			page 38


 222:Generated_Source\PSoC5/ADC_SAR_Seq_2_IRQ.c **** *
 223:Generated_Source\PSoC5/ADC_SAR_Seq_2_IRQ.c **** *******************************************************************************/
 224:Generated_Source\PSoC5/ADC_SAR_Seq_2_IRQ.c **** cyisraddress ADC_SAR_Seq_2_IRQ_GetVector(void)
 225:Generated_Source\PSoC5/ADC_SAR_Seq_2_IRQ.c **** {
 497              		.loc 1 225 0
 498              		.cfi_startproc
 499              		@ args = 0, pretend = 0, frame = 0
 500              		@ frame_needed = 0, uses_anonymous_args = 0
 501              		@ link register save eliminated.
 226:Generated_Source\PSoC5/ADC_SAR_Seq_2_IRQ.c ****     cyisraddress * ramVectorTable;
 227:Generated_Source\PSoC5/ADC_SAR_Seq_2_IRQ.c **** 
 228:Generated_Source\PSoC5/ADC_SAR_Seq_2_IRQ.c ****     ramVectorTable = (cyisraddress *) *CYINT_VECT_TABLE;
 502              		.loc 1 228 0
 503 0000 014B     		ldr	r3, .L6
 504 0002 1B68     		ldr	r3, [r3]
 505              	.LVL2:
 229:Generated_Source\PSoC5/ADC_SAR_Seq_2_IRQ.c **** 
 230:Generated_Source\PSoC5/ADC_SAR_Seq_2_IRQ.c ****     return ramVectorTable[CYINT_IRQ_BASE + (uint32)ADC_SAR_Seq_2_IRQ__INTC_NUMBER];
 231:Generated_Source\PSoC5/ADC_SAR_Seq_2_IRQ.c **** }
 506              		.loc 1 231 0
 507 0004 986C     		ldr	r0, [r3, #72]
 508 0006 7047     		bx	lr
 509              	.L7:
 510              		.align	2
 511              	.L6:
 512 0008 08ED00E0 		.word	-536810232
 513              		.cfi_endproc
 514              	.LFE5:
 515              		.size	ADC_SAR_Seq_2_IRQ_GetVector, .-ADC_SAR_Seq_2_IRQ_GetVector
 516              		.section	.text.ADC_SAR_Seq_2_IRQ_SetPriority,"ax",%progbits
 517              		.align	2
 518              		.global	ADC_SAR_Seq_2_IRQ_SetPriority
 519              		.thumb
 520              		.thumb_func
 521              		.type	ADC_SAR_Seq_2_IRQ_SetPriority, %function
 522              	ADC_SAR_Seq_2_IRQ_SetPriority:
 523              	.LFB6:
 232:Generated_Source\PSoC5/ADC_SAR_Seq_2_IRQ.c **** 
 233:Generated_Source\PSoC5/ADC_SAR_Seq_2_IRQ.c **** 
 234:Generated_Source\PSoC5/ADC_SAR_Seq_2_IRQ.c **** /*******************************************************************************
 235:Generated_Source\PSoC5/ADC_SAR_Seq_2_IRQ.c **** * Function Name: ADC_SAR_Seq_2_IRQ_SetPriority
 236:Generated_Source\PSoC5/ADC_SAR_Seq_2_IRQ.c **** ********************************************************************************
 237:Generated_Source\PSoC5/ADC_SAR_Seq_2_IRQ.c **** *
 238:Generated_Source\PSoC5/ADC_SAR_Seq_2_IRQ.c **** * Summary:
 239:Generated_Source\PSoC5/ADC_SAR_Seq_2_IRQ.c **** *   Sets the Priority of the Interrupt. 
 240:Generated_Source\PSoC5/ADC_SAR_Seq_2_IRQ.c **** *
 241:Generated_Source\PSoC5/ADC_SAR_Seq_2_IRQ.c **** *   Note calling ADC_SAR_Seq_2_IRQ_Start or ADC_SAR_Seq_2_IRQ_StartEx will 
 242:Generated_Source\PSoC5/ADC_SAR_Seq_2_IRQ.c **** *   override any effect this API would have had. This API should only be called
 243:Generated_Source\PSoC5/ADC_SAR_Seq_2_IRQ.c **** *   after ADC_SAR_Seq_2_IRQ_Start or ADC_SAR_Seq_2_IRQ_StartEx has been called. 
 244:Generated_Source\PSoC5/ADC_SAR_Seq_2_IRQ.c **** *   To set the initial priority for the component, use the Design-Wide Resources
 245:Generated_Source\PSoC5/ADC_SAR_Seq_2_IRQ.c **** *   Interrupt Editor.
 246:Generated_Source\PSoC5/ADC_SAR_Seq_2_IRQ.c **** *
 247:Generated_Source\PSoC5/ADC_SAR_Seq_2_IRQ.c **** *   Note This API has no effect on Non-maskable interrupt NMI).
 248:Generated_Source\PSoC5/ADC_SAR_Seq_2_IRQ.c **** *
 249:Generated_Source\PSoC5/ADC_SAR_Seq_2_IRQ.c **** * Parameters:
 250:Generated_Source\PSoC5/ADC_SAR_Seq_2_IRQ.c **** *   priority: Priority of the interrupt, 0 being the highest priority
 251:Generated_Source\PSoC5/ADC_SAR_Seq_2_IRQ.c **** *             PSoC 3 and PSoC 5LP: Priority is from 0 to 7.
ARM GAS  C:\Users\Luggi\AppData\Local\Temp\cckBzFkb.s 			page 39


 252:Generated_Source\PSoC5/ADC_SAR_Seq_2_IRQ.c **** *             PSoC 4: Priority is from 0 to 3.
 253:Generated_Source\PSoC5/ADC_SAR_Seq_2_IRQ.c **** *
 254:Generated_Source\PSoC5/ADC_SAR_Seq_2_IRQ.c **** * Return:
 255:Generated_Source\PSoC5/ADC_SAR_Seq_2_IRQ.c **** *   None
 256:Generated_Source\PSoC5/ADC_SAR_Seq_2_IRQ.c **** *
 257:Generated_Source\PSoC5/ADC_SAR_Seq_2_IRQ.c **** *******************************************************************************/
 258:Generated_Source\PSoC5/ADC_SAR_Seq_2_IRQ.c **** void ADC_SAR_Seq_2_IRQ_SetPriority(uint8 priority)
 259:Generated_Source\PSoC5/ADC_SAR_Seq_2_IRQ.c **** {
 524              		.loc 1 259 0
 525              		.cfi_startproc
 526              		@ args = 0, pretend = 0, frame = 0
 527              		@ frame_needed = 0, uses_anonymous_args = 0
 528              		@ link register save eliminated.
 529              	.LVL3:
 260:Generated_Source\PSoC5/ADC_SAR_Seq_2_IRQ.c ****     *ADC_SAR_Seq_2_IRQ_INTC_PRIOR = priority << 5;
 530              		.loc 1 260 0
 531 0000 4001     		lsls	r0, r0, #5
 532              	.LVL4:
 533 0002 C0B2     		uxtb	r0, r0
 534 0004 014B     		ldr	r3, .L9
 535 0006 1870     		strb	r0, [r3]
 536 0008 7047     		bx	lr
 537              	.L10:
 538 000a 00BF     		.align	2
 539              	.L9:
 540 000c 02E400E0 		.word	-536812542
 541              		.cfi_endproc
 542              	.LFE6:
 543              		.size	ADC_SAR_Seq_2_IRQ_SetPriority, .-ADC_SAR_Seq_2_IRQ_SetPriority
 544              		.section	.text.ADC_SAR_Seq_2_IRQ_GetPriority,"ax",%progbits
 545              		.align	2
 546              		.global	ADC_SAR_Seq_2_IRQ_GetPriority
 547              		.thumb
 548              		.thumb_func
 549              		.type	ADC_SAR_Seq_2_IRQ_GetPriority, %function
 550              	ADC_SAR_Seq_2_IRQ_GetPriority:
 551              	.LFB7:
 261:Generated_Source\PSoC5/ADC_SAR_Seq_2_IRQ.c **** }
 262:Generated_Source\PSoC5/ADC_SAR_Seq_2_IRQ.c **** 
 263:Generated_Source\PSoC5/ADC_SAR_Seq_2_IRQ.c **** 
 264:Generated_Source\PSoC5/ADC_SAR_Seq_2_IRQ.c **** /*******************************************************************************
 265:Generated_Source\PSoC5/ADC_SAR_Seq_2_IRQ.c **** * Function Name: ADC_SAR_Seq_2_IRQ_GetPriority
 266:Generated_Source\PSoC5/ADC_SAR_Seq_2_IRQ.c **** ********************************************************************************
 267:Generated_Source\PSoC5/ADC_SAR_Seq_2_IRQ.c **** *
 268:Generated_Source\PSoC5/ADC_SAR_Seq_2_IRQ.c **** * Summary:
 269:Generated_Source\PSoC5/ADC_SAR_Seq_2_IRQ.c **** *   Gets the Priority of the Interrupt.
 270:Generated_Source\PSoC5/ADC_SAR_Seq_2_IRQ.c **** *
 271:Generated_Source\PSoC5/ADC_SAR_Seq_2_IRQ.c **** * Parameters:
 272:Generated_Source\PSoC5/ADC_SAR_Seq_2_IRQ.c **** *   None
 273:Generated_Source\PSoC5/ADC_SAR_Seq_2_IRQ.c **** *
 274:Generated_Source\PSoC5/ADC_SAR_Seq_2_IRQ.c **** * Return:
 275:Generated_Source\PSoC5/ADC_SAR_Seq_2_IRQ.c **** *   Priority of the interrupt, 0 being the highest priority
 276:Generated_Source\PSoC5/ADC_SAR_Seq_2_IRQ.c **** *    PSoC 3 and PSoC 5LP: Priority is from 0 to 7.
 277:Generated_Source\PSoC5/ADC_SAR_Seq_2_IRQ.c **** *    PSoC 4: Priority is from 0 to 3.
 278:Generated_Source\PSoC5/ADC_SAR_Seq_2_IRQ.c **** *
 279:Generated_Source\PSoC5/ADC_SAR_Seq_2_IRQ.c **** *******************************************************************************/
 280:Generated_Source\PSoC5/ADC_SAR_Seq_2_IRQ.c **** uint8 ADC_SAR_Seq_2_IRQ_GetPriority(void)
ARM GAS  C:\Users\Luggi\AppData\Local\Temp\cckBzFkb.s 			page 40


 281:Generated_Source\PSoC5/ADC_SAR_Seq_2_IRQ.c **** {
 552              		.loc 1 281 0
 553              		.cfi_startproc
 554              		@ args = 0, pretend = 0, frame = 0
 555              		@ frame_needed = 0, uses_anonymous_args = 0
 556              		@ link register save eliminated.
 282:Generated_Source\PSoC5/ADC_SAR_Seq_2_IRQ.c ****     uint8 priority;
 283:Generated_Source\PSoC5/ADC_SAR_Seq_2_IRQ.c **** 
 284:Generated_Source\PSoC5/ADC_SAR_Seq_2_IRQ.c **** 
 285:Generated_Source\PSoC5/ADC_SAR_Seq_2_IRQ.c ****     priority = *ADC_SAR_Seq_2_IRQ_INTC_PRIOR >> 5;
 557              		.loc 1 285 0
 558 0000 014B     		ldr	r3, .L12
 559 0002 1878     		ldrb	r0, [r3]	@ zero_extendqisi2
 560              	.LVL5:
 286:Generated_Source\PSoC5/ADC_SAR_Seq_2_IRQ.c **** 
 287:Generated_Source\PSoC5/ADC_SAR_Seq_2_IRQ.c ****     return priority;
 288:Generated_Source\PSoC5/ADC_SAR_Seq_2_IRQ.c **** }
 561              		.loc 1 288 0
 562 0004 4009     		lsrs	r0, r0, #5
 563              	.LVL6:
 564 0006 7047     		bx	lr
 565              	.L13:
 566              		.align	2
 567              	.L12:
 568 0008 02E400E0 		.word	-536812542
 569              		.cfi_endproc
 570              	.LFE7:
 571              		.size	ADC_SAR_Seq_2_IRQ_GetPriority, .-ADC_SAR_Seq_2_IRQ_GetPriority
 572              		.section	.text.ADC_SAR_Seq_2_IRQ_Enable,"ax",%progbits
 573              		.align	2
 574              		.global	ADC_SAR_Seq_2_IRQ_Enable
 575              		.thumb
 576              		.thumb_func
 577              		.type	ADC_SAR_Seq_2_IRQ_Enable, %function
 578              	ADC_SAR_Seq_2_IRQ_Enable:
 579              	.LFB8:
 289:Generated_Source\PSoC5/ADC_SAR_Seq_2_IRQ.c **** 
 290:Generated_Source\PSoC5/ADC_SAR_Seq_2_IRQ.c **** 
 291:Generated_Source\PSoC5/ADC_SAR_Seq_2_IRQ.c **** /*******************************************************************************
 292:Generated_Source\PSoC5/ADC_SAR_Seq_2_IRQ.c **** * Function Name: ADC_SAR_Seq_2_IRQ_Enable
 293:Generated_Source\PSoC5/ADC_SAR_Seq_2_IRQ.c **** ********************************************************************************
 294:Generated_Source\PSoC5/ADC_SAR_Seq_2_IRQ.c **** *
 295:Generated_Source\PSoC5/ADC_SAR_Seq_2_IRQ.c **** * Summary:
 296:Generated_Source\PSoC5/ADC_SAR_Seq_2_IRQ.c **** *   Enables the interrupt to the interrupt controller. Do not call this function
 297:Generated_Source\PSoC5/ADC_SAR_Seq_2_IRQ.c **** *   unless ISR_Start() has been called or the functionality of the ISR_Start() 
 298:Generated_Source\PSoC5/ADC_SAR_Seq_2_IRQ.c **** *   function, which sets the vector and the priority, has been called.
 299:Generated_Source\PSoC5/ADC_SAR_Seq_2_IRQ.c **** *
 300:Generated_Source\PSoC5/ADC_SAR_Seq_2_IRQ.c **** * Parameters:
 301:Generated_Source\PSoC5/ADC_SAR_Seq_2_IRQ.c **** *   None
 302:Generated_Source\PSoC5/ADC_SAR_Seq_2_IRQ.c **** *
 303:Generated_Source\PSoC5/ADC_SAR_Seq_2_IRQ.c **** * Return:
 304:Generated_Source\PSoC5/ADC_SAR_Seq_2_IRQ.c **** *   None
 305:Generated_Source\PSoC5/ADC_SAR_Seq_2_IRQ.c **** *
 306:Generated_Source\PSoC5/ADC_SAR_Seq_2_IRQ.c **** *******************************************************************************/
 307:Generated_Source\PSoC5/ADC_SAR_Seq_2_IRQ.c **** void ADC_SAR_Seq_2_IRQ_Enable(void)
 308:Generated_Source\PSoC5/ADC_SAR_Seq_2_IRQ.c **** {
 580              		.loc 1 308 0
ARM GAS  C:\Users\Luggi\AppData\Local\Temp\cckBzFkb.s 			page 41


 581              		.cfi_startproc
 582              		@ args = 0, pretend = 0, frame = 0
 583              		@ frame_needed = 0, uses_anonymous_args = 0
 584              		@ link register save eliminated.
 309:Generated_Source\PSoC5/ADC_SAR_Seq_2_IRQ.c ****     /* Enable the general interrupt. */
 310:Generated_Source\PSoC5/ADC_SAR_Seq_2_IRQ.c ****     *ADC_SAR_Seq_2_IRQ_INTC_SET_EN = ADC_SAR_Seq_2_IRQ__INTC_MASK;
 585              		.loc 1 310 0
 586 0000 0422     		movs	r2, #4
 587 0002 014B     		ldr	r3, .L15
 588 0004 1A60     		str	r2, [r3]
 589 0006 7047     		bx	lr
 590              	.L16:
 591              		.align	2
 592              	.L15:
 593 0008 00E100E0 		.word	-536813312
 594              		.cfi_endproc
 595              	.LFE8:
 596              		.size	ADC_SAR_Seq_2_IRQ_Enable, .-ADC_SAR_Seq_2_IRQ_Enable
 597              		.section	.text.ADC_SAR_Seq_2_IRQ_GetState,"ax",%progbits
 598              		.align	2
 599              		.global	ADC_SAR_Seq_2_IRQ_GetState
 600              		.thumb
 601              		.thumb_func
 602              		.type	ADC_SAR_Seq_2_IRQ_GetState, %function
 603              	ADC_SAR_Seq_2_IRQ_GetState:
 604              	.LFB9:
 311:Generated_Source\PSoC5/ADC_SAR_Seq_2_IRQ.c **** }
 312:Generated_Source\PSoC5/ADC_SAR_Seq_2_IRQ.c **** 
 313:Generated_Source\PSoC5/ADC_SAR_Seq_2_IRQ.c **** 
 314:Generated_Source\PSoC5/ADC_SAR_Seq_2_IRQ.c **** /*******************************************************************************
 315:Generated_Source\PSoC5/ADC_SAR_Seq_2_IRQ.c **** * Function Name: ADC_SAR_Seq_2_IRQ_GetState
 316:Generated_Source\PSoC5/ADC_SAR_Seq_2_IRQ.c **** ********************************************************************************
 317:Generated_Source\PSoC5/ADC_SAR_Seq_2_IRQ.c **** *
 318:Generated_Source\PSoC5/ADC_SAR_Seq_2_IRQ.c **** * Summary:
 319:Generated_Source\PSoC5/ADC_SAR_Seq_2_IRQ.c **** *   Gets the state (enabled, disabled) of the Interrupt.
 320:Generated_Source\PSoC5/ADC_SAR_Seq_2_IRQ.c **** *
 321:Generated_Source\PSoC5/ADC_SAR_Seq_2_IRQ.c **** * Parameters:
 322:Generated_Source\PSoC5/ADC_SAR_Seq_2_IRQ.c **** *   None
 323:Generated_Source\PSoC5/ADC_SAR_Seq_2_IRQ.c **** *
 324:Generated_Source\PSoC5/ADC_SAR_Seq_2_IRQ.c **** * Return:
 325:Generated_Source\PSoC5/ADC_SAR_Seq_2_IRQ.c **** *   1 if enabled, 0 if disabled.
 326:Generated_Source\PSoC5/ADC_SAR_Seq_2_IRQ.c **** *
 327:Generated_Source\PSoC5/ADC_SAR_Seq_2_IRQ.c **** *******************************************************************************/
 328:Generated_Source\PSoC5/ADC_SAR_Seq_2_IRQ.c **** uint8 ADC_SAR_Seq_2_IRQ_GetState(void)
 329:Generated_Source\PSoC5/ADC_SAR_Seq_2_IRQ.c **** {
 605              		.loc 1 329 0
 606              		.cfi_startproc
 607              		@ args = 0, pretend = 0, frame = 0
 608              		@ frame_needed = 0, uses_anonymous_args = 0
 609              		@ link register save eliminated.
 330:Generated_Source\PSoC5/ADC_SAR_Seq_2_IRQ.c ****     /* Get the state of the general interrupt. */
 331:Generated_Source\PSoC5/ADC_SAR_Seq_2_IRQ.c ****     return ((*ADC_SAR_Seq_2_IRQ_INTC_SET_EN & (uint32)ADC_SAR_Seq_2_IRQ__INTC_MASK) != 0u) ? 1u:0u;
 610              		.loc 1 331 0
 611 0000 044B     		ldr	r3, .L20
 612 0002 1B68     		ldr	r3, [r3]
 613 0004 13F0040F 		tst	r3, #4
 614 0008 01D0     		beq	.L19
ARM GAS  C:\Users\Luggi\AppData\Local\Temp\cckBzFkb.s 			page 42


 615 000a 0120     		movs	r0, #1
 616 000c 7047     		bx	lr
 617              	.L19:
 618 000e 0020     		movs	r0, #0
 332:Generated_Source\PSoC5/ADC_SAR_Seq_2_IRQ.c **** }
 619              		.loc 1 332 0
 620 0010 7047     		bx	lr
 621              	.L21:
 622 0012 00BF     		.align	2
 623              	.L20:
 624 0014 00E100E0 		.word	-536813312
 625              		.cfi_endproc
 626              	.LFE9:
 627              		.size	ADC_SAR_Seq_2_IRQ_GetState, .-ADC_SAR_Seq_2_IRQ_GetState
 628              		.section	.text.ADC_SAR_Seq_2_IRQ_Disable,"ax",%progbits
 629              		.align	2
 630              		.global	ADC_SAR_Seq_2_IRQ_Disable
 631              		.thumb
 632              		.thumb_func
 633              		.type	ADC_SAR_Seq_2_IRQ_Disable, %function
 634              	ADC_SAR_Seq_2_IRQ_Disable:
 635              	.LFB10:
 333:Generated_Source\PSoC5/ADC_SAR_Seq_2_IRQ.c **** 
 334:Generated_Source\PSoC5/ADC_SAR_Seq_2_IRQ.c **** 
 335:Generated_Source\PSoC5/ADC_SAR_Seq_2_IRQ.c **** /*******************************************************************************
 336:Generated_Source\PSoC5/ADC_SAR_Seq_2_IRQ.c **** * Function Name: ADC_SAR_Seq_2_IRQ_Disable
 337:Generated_Source\PSoC5/ADC_SAR_Seq_2_IRQ.c **** ********************************************************************************
 338:Generated_Source\PSoC5/ADC_SAR_Seq_2_IRQ.c **** *
 339:Generated_Source\PSoC5/ADC_SAR_Seq_2_IRQ.c **** * Summary:
 340:Generated_Source\PSoC5/ADC_SAR_Seq_2_IRQ.c **** *   Disables the Interrupt in the interrupt controller.
 341:Generated_Source\PSoC5/ADC_SAR_Seq_2_IRQ.c **** *
 342:Generated_Source\PSoC5/ADC_SAR_Seq_2_IRQ.c **** * Parameters:
 343:Generated_Source\PSoC5/ADC_SAR_Seq_2_IRQ.c **** *   None
 344:Generated_Source\PSoC5/ADC_SAR_Seq_2_IRQ.c **** *
 345:Generated_Source\PSoC5/ADC_SAR_Seq_2_IRQ.c **** * Return:
 346:Generated_Source\PSoC5/ADC_SAR_Seq_2_IRQ.c **** *   None
 347:Generated_Source\PSoC5/ADC_SAR_Seq_2_IRQ.c **** *
 348:Generated_Source\PSoC5/ADC_SAR_Seq_2_IRQ.c **** *******************************************************************************/
 349:Generated_Source\PSoC5/ADC_SAR_Seq_2_IRQ.c **** void ADC_SAR_Seq_2_IRQ_Disable(void)
 350:Generated_Source\PSoC5/ADC_SAR_Seq_2_IRQ.c **** {
 636              		.loc 1 350 0
 637              		.cfi_startproc
 638              		@ args = 0, pretend = 0, frame = 0
 639              		@ frame_needed = 0, uses_anonymous_args = 0
 640              		@ link register save eliminated.
 351:Generated_Source\PSoC5/ADC_SAR_Seq_2_IRQ.c ****     /* Disable the general interrupt. */
 352:Generated_Source\PSoC5/ADC_SAR_Seq_2_IRQ.c ****     *ADC_SAR_Seq_2_IRQ_INTC_CLR_EN = ADC_SAR_Seq_2_IRQ__INTC_MASK;
 641              		.loc 1 352 0
 642 0000 0422     		movs	r2, #4
 643 0002 014B     		ldr	r3, .L23
 644 0004 1A60     		str	r2, [r3]
 645 0006 7047     		bx	lr
 646              	.L24:
 647              		.align	2
 648              	.L23:
 649 0008 80E100E0 		.word	-536813184
 650              		.cfi_endproc
ARM GAS  C:\Users\Luggi\AppData\Local\Temp\cckBzFkb.s 			page 43


 651              	.LFE10:
 652              		.size	ADC_SAR_Seq_2_IRQ_Disable, .-ADC_SAR_Seq_2_IRQ_Disable
 653              		.section	.text.ADC_SAR_Seq_2_IRQ_Start,"ax",%progbits
 654              		.align	2
 655              		.global	ADC_SAR_Seq_2_IRQ_Start
 656              		.thumb
 657              		.thumb_func
 658              		.type	ADC_SAR_Seq_2_IRQ_Start, %function
 659              	ADC_SAR_Seq_2_IRQ_Start:
 660              	.LFB0:
  62:Generated_Source\PSoC5/ADC_SAR_Seq_2_IRQ.c ****     /* For all we know the interrupt is active. */
 661              		.loc 1 62 0
 662              		.cfi_startproc
 663              		@ args = 0, pretend = 0, frame = 0
 664              		@ frame_needed = 0, uses_anonymous_args = 0
 665 0000 08B5     		push	{r3, lr}
 666              		.cfi_def_cfa_offset 8
 667              		.cfi_offset 3, -8
 668              		.cfi_offset 14, -4
  64:Generated_Source\PSoC5/ADC_SAR_Seq_2_IRQ.c **** 
 669              		.loc 1 64 0
 670 0002 FFF7FEFF 		bl	ADC_SAR_Seq_2_IRQ_Disable
 671              	.LVL7:
  67:Generated_Source\PSoC5/ADC_SAR_Seq_2_IRQ.c **** 
 672              		.loc 1 67 0
 673 0006 0448     		ldr	r0, .L27
 674 0008 FFF7FEFF 		bl	ADC_SAR_Seq_2_IRQ_SetVector
 675              	.LVL8:
  70:Generated_Source\PSoC5/ADC_SAR_Seq_2_IRQ.c **** 
 676              		.loc 1 70 0
 677 000c 0720     		movs	r0, #7
 678 000e FFF7FEFF 		bl	ADC_SAR_Seq_2_IRQ_SetPriority
 679              	.LVL9:
  73:Generated_Source\PSoC5/ADC_SAR_Seq_2_IRQ.c **** }
 680              		.loc 1 73 0
 681 0012 FFF7FEFF 		bl	ADC_SAR_Seq_2_IRQ_Enable
 682              	.LVL10:
 683 0016 08BD     		pop	{r3, pc}
 684              	.L28:
 685              		.align	2
 686              	.L27:
 687 0018 00000000 		.word	ADC_SAR_Seq_2_IRQ_Interrupt
 688              		.cfi_endproc
 689              	.LFE0:
 690              		.size	ADC_SAR_Seq_2_IRQ_Start, .-ADC_SAR_Seq_2_IRQ_Start
 691              		.section	.text.ADC_SAR_Seq_2_IRQ_StartEx,"ax",%progbits
 692              		.align	2
 693              		.global	ADC_SAR_Seq_2_IRQ_StartEx
 694              		.thumb
 695              		.thumb_func
 696              		.type	ADC_SAR_Seq_2_IRQ_StartEx, %function
 697              	ADC_SAR_Seq_2_IRQ_StartEx:
 698              	.LFB1:
 105:Generated_Source\PSoC5/ADC_SAR_Seq_2_IRQ.c ****     /* For all we know the interrupt is active. */
 699              		.loc 1 105 0
 700              		.cfi_startproc
 701              		@ args = 0, pretend = 0, frame = 0
ARM GAS  C:\Users\Luggi\AppData\Local\Temp\cckBzFkb.s 			page 44


 702              		@ frame_needed = 0, uses_anonymous_args = 0
 703              	.LVL11:
 704 0000 10B5     		push	{r4, lr}
 705              		.cfi_def_cfa_offset 8
 706              		.cfi_offset 4, -8
 707              		.cfi_offset 14, -4
 708 0002 0446     		mov	r4, r0
 107:Generated_Source\PSoC5/ADC_SAR_Seq_2_IRQ.c **** 
 709              		.loc 1 107 0
 710 0004 FFF7FEFF 		bl	ADC_SAR_Seq_2_IRQ_Disable
 711              	.LVL12:
 110:Generated_Source\PSoC5/ADC_SAR_Seq_2_IRQ.c **** 
 712              		.loc 1 110 0
 713 0008 2046     		mov	r0, r4
 714 000a FFF7FEFF 		bl	ADC_SAR_Seq_2_IRQ_SetVector
 715              	.LVL13:
 113:Generated_Source\PSoC5/ADC_SAR_Seq_2_IRQ.c **** 
 716              		.loc 1 113 0
 717 000e 0720     		movs	r0, #7
 718 0010 FFF7FEFF 		bl	ADC_SAR_Seq_2_IRQ_SetPriority
 719              	.LVL14:
 116:Generated_Source\PSoC5/ADC_SAR_Seq_2_IRQ.c **** }
 720              		.loc 1 116 0
 721 0014 FFF7FEFF 		bl	ADC_SAR_Seq_2_IRQ_Enable
 722              	.LVL15:
 723 0018 10BD     		pop	{r4, pc}
 724              		.cfi_endproc
 725              	.LFE1:
 726              		.size	ADC_SAR_Seq_2_IRQ_StartEx, .-ADC_SAR_Seq_2_IRQ_StartEx
 727 001a 00BF     		.section	.text.ADC_SAR_Seq_2_IRQ_Stop,"ax",%progbits
 728              		.align	2
 729              		.global	ADC_SAR_Seq_2_IRQ_Stop
 730              		.thumb
 731              		.thumb_func
 732              		.type	ADC_SAR_Seq_2_IRQ_Stop, %function
 733              	ADC_SAR_Seq_2_IRQ_Stop:
 734              	.LFB2:
 135:Generated_Source\PSoC5/ADC_SAR_Seq_2_IRQ.c ****     /* Disable this interrupt. */
 735              		.loc 1 135 0
 736              		.cfi_startproc
 737              		@ args = 0, pretend = 0, frame = 0
 738              		@ frame_needed = 0, uses_anonymous_args = 0
 739 0000 08B5     		push	{r3, lr}
 740              		.cfi_def_cfa_offset 8
 741              		.cfi_offset 3, -8
 742              		.cfi_offset 14, -4
 137:Generated_Source\PSoC5/ADC_SAR_Seq_2_IRQ.c **** 
 743              		.loc 1 137 0
 744 0002 FFF7FEFF 		bl	ADC_SAR_Seq_2_IRQ_Disable
 745              	.LVL16:
 140:Generated_Source\PSoC5/ADC_SAR_Seq_2_IRQ.c **** }
 746              		.loc 1 140 0
 747 0006 0248     		ldr	r0, .L33
 748 0008 FFF7FEFF 		bl	ADC_SAR_Seq_2_IRQ_SetVector
 749              	.LVL17:
 750 000c 08BD     		pop	{r3, pc}
 751              	.L34:
ARM GAS  C:\Users\Luggi\AppData\Local\Temp\cckBzFkb.s 			page 45


 752 000e 00BF     		.align	2
 753              	.L33:
 754 0010 00000000 		.word	IntDefaultHandler
 755              		.cfi_endproc
 756              	.LFE2:
 757              		.size	ADC_SAR_Seq_2_IRQ_Stop, .-ADC_SAR_Seq_2_IRQ_Stop
 758              		.section	.text.ADC_SAR_Seq_2_IRQ_SetPending,"ax",%progbits
 759              		.align	2
 760              		.global	ADC_SAR_Seq_2_IRQ_SetPending
 761              		.thumb
 762              		.thumb_func
 763              		.type	ADC_SAR_Seq_2_IRQ_SetPending, %function
 764              	ADC_SAR_Seq_2_IRQ_SetPending:
 765              	.LFB11:
 353:Generated_Source\PSoC5/ADC_SAR_Seq_2_IRQ.c **** }
 354:Generated_Source\PSoC5/ADC_SAR_Seq_2_IRQ.c **** 
 355:Generated_Source\PSoC5/ADC_SAR_Seq_2_IRQ.c **** 
 356:Generated_Source\PSoC5/ADC_SAR_Seq_2_IRQ.c **** /*******************************************************************************
 357:Generated_Source\PSoC5/ADC_SAR_Seq_2_IRQ.c **** * Function Name: ADC_SAR_Seq_2_IRQ_SetPending
 358:Generated_Source\PSoC5/ADC_SAR_Seq_2_IRQ.c **** ********************************************************************************
 359:Generated_Source\PSoC5/ADC_SAR_Seq_2_IRQ.c **** *
 360:Generated_Source\PSoC5/ADC_SAR_Seq_2_IRQ.c **** * Summary:
 361:Generated_Source\PSoC5/ADC_SAR_Seq_2_IRQ.c **** *   Causes the Interrupt to enter the pending state, a software method of
 362:Generated_Source\PSoC5/ADC_SAR_Seq_2_IRQ.c **** *   generating the interrupt.
 363:Generated_Source\PSoC5/ADC_SAR_Seq_2_IRQ.c **** *
 364:Generated_Source\PSoC5/ADC_SAR_Seq_2_IRQ.c **** * Parameters:
 365:Generated_Source\PSoC5/ADC_SAR_Seq_2_IRQ.c **** *   None
 366:Generated_Source\PSoC5/ADC_SAR_Seq_2_IRQ.c **** *
 367:Generated_Source\PSoC5/ADC_SAR_Seq_2_IRQ.c **** * Return:
 368:Generated_Source\PSoC5/ADC_SAR_Seq_2_IRQ.c **** *   None
 369:Generated_Source\PSoC5/ADC_SAR_Seq_2_IRQ.c **** *
 370:Generated_Source\PSoC5/ADC_SAR_Seq_2_IRQ.c **** * Side Effects:
 371:Generated_Source\PSoC5/ADC_SAR_Seq_2_IRQ.c **** *   If interrupts are enabled and the interrupt is set up properly, the ISR is
 372:Generated_Source\PSoC5/ADC_SAR_Seq_2_IRQ.c **** *   entered (depending on the priority of this interrupt and other pending 
 373:Generated_Source\PSoC5/ADC_SAR_Seq_2_IRQ.c **** *   interrupts).
 374:Generated_Source\PSoC5/ADC_SAR_Seq_2_IRQ.c **** *
 375:Generated_Source\PSoC5/ADC_SAR_Seq_2_IRQ.c **** *******************************************************************************/
 376:Generated_Source\PSoC5/ADC_SAR_Seq_2_IRQ.c **** void ADC_SAR_Seq_2_IRQ_SetPending(void)
 377:Generated_Source\PSoC5/ADC_SAR_Seq_2_IRQ.c **** {
 766              		.loc 1 377 0
 767              		.cfi_startproc
 768              		@ args = 0, pretend = 0, frame = 0
 769              		@ frame_needed = 0, uses_anonymous_args = 0
 770              		@ link register save eliminated.
 378:Generated_Source\PSoC5/ADC_SAR_Seq_2_IRQ.c ****     *ADC_SAR_Seq_2_IRQ_INTC_SET_PD = ADC_SAR_Seq_2_IRQ__INTC_MASK;
 771              		.loc 1 378 0
 772 0000 0422     		movs	r2, #4
 773 0002 014B     		ldr	r3, .L36
 774 0004 1A60     		str	r2, [r3]
 775 0006 7047     		bx	lr
 776              	.L37:
 777              		.align	2
 778              	.L36:
 779 0008 00E200E0 		.word	-536813056
 780              		.cfi_endproc
 781              	.LFE11:
 782              		.size	ADC_SAR_Seq_2_IRQ_SetPending, .-ADC_SAR_Seq_2_IRQ_SetPending
ARM GAS  C:\Users\Luggi\AppData\Local\Temp\cckBzFkb.s 			page 46


 783              		.section	.text.ADC_SAR_Seq_2_IRQ_ClearPending,"ax",%progbits
 784              		.align	2
 785              		.global	ADC_SAR_Seq_2_IRQ_ClearPending
 786              		.thumb
 787              		.thumb_func
 788              		.type	ADC_SAR_Seq_2_IRQ_ClearPending, %function
 789              	ADC_SAR_Seq_2_IRQ_ClearPending:
 790              	.LFB12:
 379:Generated_Source\PSoC5/ADC_SAR_Seq_2_IRQ.c **** }
 380:Generated_Source\PSoC5/ADC_SAR_Seq_2_IRQ.c **** 
 381:Generated_Source\PSoC5/ADC_SAR_Seq_2_IRQ.c **** 
 382:Generated_Source\PSoC5/ADC_SAR_Seq_2_IRQ.c **** /*******************************************************************************
 383:Generated_Source\PSoC5/ADC_SAR_Seq_2_IRQ.c **** * Function Name: ADC_SAR_Seq_2_IRQ_ClearPending
 384:Generated_Source\PSoC5/ADC_SAR_Seq_2_IRQ.c **** ********************************************************************************
 385:Generated_Source\PSoC5/ADC_SAR_Seq_2_IRQ.c **** *
 386:Generated_Source\PSoC5/ADC_SAR_Seq_2_IRQ.c **** * Summary:
 387:Generated_Source\PSoC5/ADC_SAR_Seq_2_IRQ.c **** *   Clears a pending interrupt in the interrupt controller.
 388:Generated_Source\PSoC5/ADC_SAR_Seq_2_IRQ.c **** *
 389:Generated_Source\PSoC5/ADC_SAR_Seq_2_IRQ.c **** *   Note Some interrupt sources are clear-on-read and require the block 
 390:Generated_Source\PSoC5/ADC_SAR_Seq_2_IRQ.c **** *   interrupt/status register to be read/cleared with the appropriate block API 
 391:Generated_Source\PSoC5/ADC_SAR_Seq_2_IRQ.c **** *   (GPIO, UART, and so on). Otherwise the ISR will continue to remain in 
 392:Generated_Source\PSoC5/ADC_SAR_Seq_2_IRQ.c **** *   pending state even though the interrupt itself is cleared using this API.
 393:Generated_Source\PSoC5/ADC_SAR_Seq_2_IRQ.c **** *
 394:Generated_Source\PSoC5/ADC_SAR_Seq_2_IRQ.c **** * Parameters:
 395:Generated_Source\PSoC5/ADC_SAR_Seq_2_IRQ.c **** *   None
 396:Generated_Source\PSoC5/ADC_SAR_Seq_2_IRQ.c **** *
 397:Generated_Source\PSoC5/ADC_SAR_Seq_2_IRQ.c **** * Return:
 398:Generated_Source\PSoC5/ADC_SAR_Seq_2_IRQ.c **** *   None
 399:Generated_Source\PSoC5/ADC_SAR_Seq_2_IRQ.c **** *
 400:Generated_Source\PSoC5/ADC_SAR_Seq_2_IRQ.c **** *******************************************************************************/
 401:Generated_Source\PSoC5/ADC_SAR_Seq_2_IRQ.c **** void ADC_SAR_Seq_2_IRQ_ClearPending(void)
 402:Generated_Source\PSoC5/ADC_SAR_Seq_2_IRQ.c **** {
 791              		.loc 1 402 0
 792              		.cfi_startproc
 793              		@ args = 0, pretend = 0, frame = 0
 794              		@ frame_needed = 0, uses_anonymous_args = 0
 795              		@ link register save eliminated.
 403:Generated_Source\PSoC5/ADC_SAR_Seq_2_IRQ.c ****     *ADC_SAR_Seq_2_IRQ_INTC_CLR_PD = ADC_SAR_Seq_2_IRQ__INTC_MASK;
 796              		.loc 1 403 0
 797 0000 0422     		movs	r2, #4
 798 0002 014B     		ldr	r3, .L39
 799 0004 1A60     		str	r2, [r3]
 800 0006 7047     		bx	lr
 801              	.L40:
 802              		.align	2
 803              	.L39:
 804 0008 80E200E0 		.word	-536812928
 805              		.cfi_endproc
 806              	.LFE12:
 807              		.size	ADC_SAR_Seq_2_IRQ_ClearPending, .-ADC_SAR_Seq_2_IRQ_ClearPending
 808              		.text
 809              	.Letext0:
 810              		.file 2 "Generated_Source\\PSoC5/cytypes.h"