ARM GAS  C:\Users\Luggi\AppData\Local\Temp\cc5frRuK.s 			page 1


   1              		.syntax unified
   2              		.cpu cortex-m3
   3              		.fpu softvfp
   4              		.eabi_attribute 20, 1
   5              		.eabi_attribute 21, 1
   6              		.eabi_attribute 23, 3
   7              		.eabi_attribute 24, 1
   8              		.eabi_attribute 25, 1
   9              		.eabi_attribute 26, 1
  10              		.eabi_attribute 30, 1
  11              		.eabi_attribute 34, 1
  12              		.eabi_attribute 18, 4
  13              		.thumb
  14              		.file	"ADC_SAR_2_IRQ.c"
  15              		.text
  16              	.Ltext0:
  17              		.section	.gnu.lto_.profile.bb48c39,"",%progbits
  18 0000 789C6366 		.ascii	"x\234cf```e\200\000F\206\311\214:\000\002q\000\312"
  18      60606065 
  18      80004686 
  18      C98C3A00 
  18      027100CA 
  19              		.text
  20              		.section	.gnu.lto_.inline.bb48c39,"",%progbits
  21 0000 789C858E 		.ascii	"x\234\205\216\315\015\200 \014F?\240\340\177<zt\001"
  21      CD0D8020 
  21      0C463FA0 
  21      E07F3C7A 
  21      7401
  22 0012 CF1E1DC1 		.ascii	"\317\036\035\301\331\034\301Q\034\301\221l!!jM\344\320"
  22      D91CC151 
  22      1CC1916C 
  22      21216A4D 
  22      E4D0
  23 0024 368F07FD 		.ascii	"6\217\007\375\034\276\317lR\357\000g\015,\217a\037\245"
  23      1CBECF6C 
  23      52EF0067 
  23      0D2C8F61 
  23      1FA5
  24 0036 C1C01313 		.ascii	"\301\300\023\023\332\307\214\254FN\220a\231\337\237"
  24      DAC78CAC 
  24      464E9061 
  24      99DF9F
  25 0045 7DC23C90 		.ascii	"}\302<\220\334\221\326=\3101\312\252\354C\021\030\225"
  25      DC91D63D 
  25      C831CAAA 
  25      EC431118 
  25      95
  26 0056 C79251A1 		.ascii	"\307\222Q\241\255\022\325\364\312WK\242F\202\246\032"
  26      AD12D5F4 
  26      CA574BA2 
  26      4682A61A 
  27 0066 41F5EB6D 		.ascii	"A\365\353mk$5\302\360\024o\277\264:@\247\021.\001\316"
  27      6B2435C2 
  27      F0146FBF 
  27      B43A40A7 
  27      112E01CE 
ARM GAS  C:\Users\Luggi\AppData\Local\Temp\cc5frRuK.s 			page 2


  28 007a 15AA     		.ascii	"\025\252"
  29              		.text
  30              		.section	.gnu.lto_.jmpfuncs.bb48c39,"",%progbits
  31 0000 789C6366 		.ascii	"x\234cf\300\016&Bi^ f\004\202z&\006\006f\020\315\302"
  31      C00E2642 
  31      695E2066 
  31      04827A26 
  31      06066610 
  32 0016 C0C0CAC0 		.ascii	"\300\300\312\300\300\306\300\300\316\300\300\001\222"
  32      C0C6C0C0 
  32      CEC0C001 
  32      92
  33 0023 64FAC8C4 		.ascii	"d\372\310\304\370}\361\203\327\214/\230~2\001E\031\227"
  33      F87DF183 
  33      D78C2F98 
  33      7E320145 
  33      1997
  34 0035 334A4144 		.ascii	"3JAD\347]\356[\307T\373\273\241\243\201\343'\023\343"
  34      E75DEE5B 
  34      C754FBBB 
  34      A1A381E3 
  34      2713E3
  35 0048 672690EA 		.ascii	"g&\220\352\025\214\265\014\014\234 \023\201j J\231\313"
  35      158CB50C 
  35      0C9C2013 
  35      816A204A 
  35      99CB
  36 005a 1980525C 		.ascii	"\031\200R\\\014\33051\002\305W\2024\361@\034\003\000"
  36      0CD83531 
  36      02C55782 
  36      34F1401C 
  36      0300
  37 006c 01121DD7 		.ascii	"\001\022\035\327"
  38              		.text
  39              		.section	.gnu.lto_.pureconst.bb48c39,"",%progbits
  40 0000 789C6366 		.ascii	"x\234cf``\220f\200\000^\006\006F)&Vf)\026)V)6)v)\016"
  40      60609066 
  40      80005E06 
  40      06462926 
  40      56662916 
  41 001c 094E092E 		.ascii	"\011N\011.\011\036)^)\000\025G\001\231"
  41      091E295E 
  41      29001547 
  41      0199
  42              		.text
  43              		.section	.gnu.lto_ADC_SAR_2_IRQ_Interrupt.bb48c39,"",%progbits
  44 0000 789C6366 		.ascii	"x\234cf\300\004R@\\\002\304\232@\314\310\314\300\310"
  44      C0045240 
  44      5C02C49A 
  44      40CCC8CC 
  44      C0C8
  45 0012 34E11C03 		.ascii	"4\341\034\003C#\007\023##\210\301\300\310P\317\304X"
  45      43230713 
  45      232388C1 
  45      C0C850CF 
  45      C458
  46 0024 CFF892E9 		.ascii	"\317\370\222\351#\023\343\204\003\253gp\253/mhh\370"
ARM GAS  C:\Users\Luggi\AppData\Local\Temp\cc5frRuK.s 			page 3


  46      2313E384 
  46      03AB6770 
  46      AB2F6D68 
  46      68F8
  47 0036 D07493A5 		.ascii	"\320t\223\245U\342'\023\003\303g&\2101\214\313\031\325"
  47      55E22713 
  47      03C36726 
  47      88318CCB 
  47      19D5
  48 0048 19806A3E 		.ascii	"\031\200j>\266\374\275\316\315\326\002T#\000\221c\\"
  48      B6FCBDCE 
  48      CDD60254 
  48      23009163 
  48      5C
  49 0059 C1C8C608 		.ascii	"\301\310\306\010\244\327\013\035h\370\377\377\362\223"
  49      A4D70B1D 
  49      68F8FFFF 
  49      F293
  50 0067 435BB881 		.ascii	"C[\270\201\302O\200\030d\376S&&\020\315|\217\221\021"
  50      C24F8018 
  50      64FE5326 
  50      2610CD7C 
  50      8F9111
  51 007a A41064D2 		.ascii	"\244\020d\322\023&F\220\020P\201\272{j^jQbIjJ|p~iQr"
  51      13264690 
  51      105081BA 
  51      7B6A5E6A 
  51      5162496A 
  52 0095 6A4C4070 		.ascii	"jL@p\276\263i\214\243\213s|\260cP\274Q\274gP\240^2\003"
  52      BEB3698C 
  52      A38B737C 
  52      B06350BC 
  52      51BC6750 
  53 00ad 0079AB36 		.ascii	"\000y\2536k"
  53      6B
  54              		.text
  55              		.section	.gnu.lto_ADC_SAR_2_IRQ_SetVector.bb48c39,"",%progbits
  56 0000 789C6550 		.ascii	"x\234ePKhSQ\020\2353\3675V\022\212\270*\331(\224\022"
  56      4B685351 
  56      109D33F7 
  56      3556128A 
  56      B82AD928 
  57 0016 50E8A2E2 		.ascii	"P\350\242\342\276\245Bu#\332\210(\024BL\336N\015\274"
  57      BEA54275 
  57      23DA8828 
  57      14424CDE 
  57      4E0DBC
  58 0029 D6756F62 		.ascii	"\326uob4V\027\026\013R\224.\212\210\237hk\243.\352\306"
  58      34561716 
  58      0B52942E 
  58      8A889F68 
  58      6BA32EEA 
  59 003e 87B808A8 		.ascii	"\207\270\010\250-\202U\254E+F\211\212\332\022\261d!"
  59      2D8255AC 
  59      452B4689 
  59      8ADA12B1 
  59      6421
ARM GAS  C:\Users\Luggi\AppData\Local\Temp\cc5frRuK.s 			page 4


  60 0050 71E6C58D 		.ascii	"q\346\305\215x\341r\357\034\346\2349s\014\375\177\242"
  60      78E172EF 
  60      1CE69C39 
  60      730CFD7F 
  60      A2
  61 0061 72CB20EA 		.ascii	"r\313 \352\221\027\206\300c\363D\331V\006\364C\240\021"
  61      911786C0 
  61      63F344D9 
  61      5606F443 
  61      A011
  62 0073 C6083EF3 		.ascii	"\306\010>\363\032c\314/N\204cW\255\265\253\271Z\373"
  62      1A63CC2F 
  62      4E846357 
  62      ADB5ABB9 
  62      5AFB
  63 0085 A9F63A13 		.ascii	"\251\366:\023\325\270)\203k\210i\313\327\327\347#f\033"
  63      D5B82983 
  63      6B8869CB 
  63      D7D7E723 
  63      661B
  64 0097 48FE73D3 		.ascii	"H\376s\323?\237\205\253\\gl\325\362\301\205\362DHKv"
  64      3F9F85AB 
  64      5C676CD5 
  64      F2C185F2 
  64      44484B76 
  65 00ab B4FC32BA 		.ascii	"\264\3742\272\370\310t^\2616\347\277)\331\036\247\316"
  65      F8C8745E 
  65      B136E7BF 
  65      29D91EA7 
  65      CE
  66 00bc 06D76144 		.ascii	"\006\327aD\0177\020\305MDI B\021\235\332~\377}\265\350"
  66      0F3710C5 
  66      4D444920 
  66      42119DDA 
  66      7EFF7DB5 
  67 00d1 98EE40F8 		.ascii	"\230\356@\370Gqj\321\351\230\022\352\312\245\302\223"
  67      47716AD1 
  67      E99812EA 
  67      CAA5C293 
  68 00e1 882DDBFC 		.ascii	"\210-\333\374J\243\261\245\316\016n\375\253\320<BY\313"
  68      4AA3B1A5 
  68      CE0E6EFD 
  68      ABD03C42 
  68      59CB
  69 00f3 FF7E150E 		.ascii	"\377~\025\016\345\305\372&\334FG\3236\246\021\222\315"
  69      E5C5FA26 
  69      DC4647D3 
  69      36A61192 
  69      CD
  70 0104 A1C8CC66 		.ascii	"\241\310\314f\3376\032\265\247\343\325\230i\021\005"
  70      DF361AB5 
  70      A7E3D598 
  70      691105
  71 0113 810C82E1 		.ascii	"\201\014\202\341T\221^\315\342#\263\276f\011\271_g?"
  71      54915ECD 
  71      E223B3BE 
  71      6609B95F 
ARM GAS  C:\Users\Luggi\AppData\Local\Temp\cc5frRuK.s 			page 5


  71      673F
  72 0125 CD1D52FA 		.ascii	"\315\035R\372:k0\245\307\347\012\254\253\265\234Y:i"
  72      3A6B30A5 
  72      C7E70AAC 
  72      ABB59C59 
  72      3A69
  73 0137 DB74E0BB 		.ascii	"\333t\340\273\312\302\363\326\000\012\346\277\3700\372"
  73      CAC2F3D6 
  73      000AE6BF 
  73      F830FA
  74 0146 3D3289CB 		.ascii	"=2\211\313Yk\375.5:#\016\357\250C\314b\022\364\0229"
  74      596BFD2E 
  74      353A230E 
  74      EFA843CC 
  74      6212F412 
  75 015b 7B38F023 		.ascii	"{8\360#\203E\224d\310\305\331\205\361\035\212\011\277"
  75      83459464 
  75      C8C5D985 
  75      F11D8A09 
  75      BF
  76 016c BA7CFA5E 		.ascii	"\272|\372^\020\236\263[\345\276\315/\0276\376\225\333"
  76      109EB35B 
  76      E5BECD2F 
  76      1736FE95 
  76      DB
  77 017d 2E310903 		.ascii	".1\011\003\245@\355\256\250\255Kno\221\365\037\356U"
  77      A540EDAE 
  77      A8AD4B6E 
  77      6F91F51F 
  77      EE55
  78 018f B6265061 		.ascii	"\266&Pa\250uY$\326\357\036w\275\344\260\233N\3043'\274"
  78      A8755924 
  78      D6EF1E77 
  78      BDE4B09B 
  78      4EC43327 
  79 01a4 943BB82F 		.ascii	"\224;\270/\236\351\3339\330\273\253/\021\357\035Ht'"
  79      9EE9DB39 
  79      D8BBAB2F 
  79      11EF1D48 
  79      7427
  80 01b6 F60CECEF 		.ascii	"\366\014\354\357J\321\206d:\355\271CCm^\362\330A75\234"
  80      4AD18664 
  80      3AEDB943 
  80      436D5EF2 
  80      D8413735 
  81 01cb F10E248F 		.ascii	"\361\016$\217\034u\377\000\377^\270\227"
  81      1C75FF00 
  81      FF5EB897 
  82              		.text
  83              		.section	.gnu.lto_ADC_SAR_2_IRQ_GetVector.bb48c39,"",%progbits
  84 0000 789C6366 		.ascii	"x\234cf\300\004R@<\231\221\201\301\002H32302M8\307\300"
  84      C0045240 
  84      3C999181 
  84      C1024833 
  84      32333032 
  85 0018 D0C8C1C4 		.ascii	"\320\310\301\304\310\010b002\32431\3263\276d\372\310"
  85      C8086230 
ARM GAS  C:\Users\Luggi\AppData\Local\Temp\cc5frRuK.s 			page 6


  85      3032D433 
  85      31D633BE 
  85      64FAC8
  86 002b C4B873DD 		.ascii	"\304\270s\335\227\263\334/\230~21(0\000\271\273&\235"
  86      97B3DC2F 
  86      987E3231 
  86      283000B9 
  86      BB269D
  87 003e 98C106E2 		.ascii	"\230\301\006\3422\262\200\270\327\257\315\270\316\251"
  87      32B280B8 
  87      D7AFCDB8 
  87      CEA9
  88 004c BEB4A1A1 		.ascii	"\276\264\241\241\351C\323\317\212\231S\026\000e\230"
  88      E943D3CF 
  88      8A995316 
  88      006598
  89 005b 183E3331 		.ascii	"\030>310.g\224b\\\301\010\262\210q%\243:H\355\326\207"
  89      302E6794 
  89      625CC108 
  89      B2887125 
  89      A33A48ED 
  90 0071 2F56B330 		.ascii	"/V\2630k1\202\330\357W/\274\312\242\274\020\250\357"
  90      6B3182D8 
  90      EF572FBC 
  90      CAA2BC10 
  90      A8EF
  91 0083 C1A9F6D3 		.ascii	"\301\251\366\323<\015'\032Z\036\374\377/\377\223\211"
  91      3C0D271A 
  91      5A1EFCFF 
  91      2FFF9389 
  92 0093 99711523 		.ascii	"\231q\025#3\252~\020\000j\371\330\362\367:7[KCC\203"
  92      33AA7E10 
  92      006AF9D8 
  92      F2F73A37 
  92      5B4B4343 
  93 00a8 00E36A46 		.ascii	"\000\343jFe\220%@\263\3270\262\001\375\301\010\022Y"
  93      65902540 
  93      B3D730B2 
  93      01FDC108 
  93      1259
  94 00ba 2F74A0E1 		.ascii	"/t\240\341\377\377\317O&\2770ff\001\232\000\024bf\000"
  94      FFFFCF4F 
  94      26BF3066 
  94      66019A00 
  94      14626600 
  95 00ce 3987E109 		.ascii	"9\207\341\011\020\203<\366\024\310\001\322\314\267\030"
  95      10833CF6 
  95      14C801D2 
  95      CCB718
  96 00dd 9BBE753D 		.ascii	"\233\276u=\333\023\001\322\375\235\011\344\313MG\272"
  96      DB1301D2 
  96      FD9D09E4 
  96      CB4D47BA 
  97 00ed DB9940DE 		.ascii	"\333\231@\336b\351\270\325\334\300\007\262\357\376\223"
  97      62E9B8D5 
  97      DCC007B2 
  97      EFFE93
ARM GAS  C:\Users\Luggi\AppData\Local\Temp\cc5frRuK.s 			page 7


  98 00fc F31739C0 		.ascii	"\363\0279\300B`\353\257<\356|\3073\227qvcC\303\001="
  98      4260EBAF 
  98      3CEE7CC7 
  98      33977176 
  98      6343C301 
  99 0111 903BD702 		.ascii	"\220;\327\002\035\270\016\344@\306\365\214s\031\031"
  99      1DB80EE4 
  99      40C6F58C 
  99      731919
 100 0120 AE313635 		.ascii	"\256165D\202\235\003\264\027h(\003\330\222o{\270 \226"
 100      44829D03 
 100      B4176828 
 100      03D8926F 
 100      7BB82096 
 101 0134 30038D78 		.ascii	"0\003\215xq\247m\0138\354\230=@&\276=w\247\235\023b"
 101      71A76D0B 
 101      38EC983D 
 101      4026BE3D 
 101      77A79D13 
 102 0149 2207D099 		.ascii	"\"\007\320\231@=\214\033\300\346m\004\231w\217\221\021"
 102      403D8C1B 
 102      C0E66D04 
 102      99778F91 
 102      11
 103 015a AA9301E4 		.ascii	"\252\223\001\344\001F\220\303\201\336PwO\315K-J,IM\211"
 103      014690C3 
 103      81DE5077 
 103      4FCD4B2D 
 103      4A2C494D 
 104 016f 0FCE2F2D 		.ascii	"\017\316/-JN\215\011\010\316w6\215qtq\216\017v\014\212"
 104      4A4E8D09 
 104      08CE7736 
 104      8D717471 
 104      8E0F760C 
 105 0184 378AF70C 		.ascii	"7\212\367\014\012\324Kf\340+J\314\015KM.\311/\012IL"
 105      0AD44B66 
 105      E02B4ACC 
 105      0D4B4D2E 
 105      C92F0A49 
 106 0199 CA490500 		.ascii	"\312I\005\000\245\307\244+"
 106      A5C7A42B 
 107              		.text
 108              		.section	.gnu.lto_ADC_SAR_2_IRQ_SetPriority.bb48c39,"",%progbits
 109 0000 789C6590 		.ascii	"x\234e\2201H\202A\024\307\337\377>5\303\210h\252o\015"
 109      31488241 
 109      14C7DFFF 
 109      3E35C388 
 109      68AA6F0D 
 110 0014 91221A84 		.ascii	"\221\"\032\204\366\304 \332JWA\302\034\\2\304\206\226"
 110      F6C420DA 
 110      4A5741C2 
 110      1C5C32C4 
 110      8696
 111 0026 BC4FCD35 		.ascii	"\274O\3155\213\206@\\\212\312\262\254)h\352#\210\234"
 111      8B86405C 
 111      8ACAB2AC 
 111      2968EA23 
ARM GAS  C:\Users\Luggi\AppData\Local\Temp\cc5frRuK.s 			page 8


 111      889C
 112 0038 8C821024 		.ascii	"\214\202\020$\254\300\242\266\304@\034\242\336\325\330"
 112      ACC0A2B6 
 112      C4401CA2 
 112      DED5D8
 113 0047 C1E3BDBB 		.ascii	"\301\343\275\273\367\177\277\373\337i\364\177\351\034"
 113      F77FBFFB 
 113      DF69F47F 
 113      E91C
 114 0055 6E707086 		.ascii	"npp\206F\020\331\012\221a\027\200*\010\224\020H\340"
 114      4610D90A 
 114      91611780 
 114      2A089410 
 114      48E0
 115 0067 5D3405B2 		.ascii	"]4\005\262fq\313\341\332\225R~l\257\017\256\016t\004"
 115      6671CBE1 
 115      DA95527E 
 115      6CAF0FAE 
 115      0E7404
 116 007a 514BFC61 		.ascii	"QK\374a\260\017\027K\366.\236\317\255\332\010\210\353"
 116      B00F174B 
 116      F62E9ECF 
 116      ADDA0888 
 116      EB
 117 008b AA517CEA 		.ascii	"\252Q|\352q\356H\2314+%9\201\0163\013\320x\002\243:"
 117      71EE4899 
 117      342B2539 
 117      810E330B 
 117      D07802A3 
 118 00a0 8675E203 		.ascii	"\206u\342\003\302\001\234J\334L\177U\035\2664\263\373"
 118      C2019C4A 
 118      DC4C7F55 
 118      1DB634B3 
 118      FB
 119 00b1 FE983884 		.ascii	"\376\2308\204\215m\321I\277)\277\277[W\233\205!\213"
 119      8D6DD149 
 119      BF29BFBF 
 119      5B579B85 
 119      218B
 120 00c3 15507AC1 		.ascii	"\025Pz\301\223,ip(\217/\274\341\254\325\220z\310\274"
 120      932C6970 
 120      288F2FBC 
 120      E1ACD590 
 120      7AC8BC
 121 00d6 9657D464 		.ascii	"\226W\324d[\2106C\005\326\322gu\333\233\350\010\315"
 121      5B883643 
 121      05D6D267 
 121      75DB9BE8 
 121      08CD
 122 00e8 4A2842A7 		.ascii	"J(B\247\032.7\240$\334\274\276\272\313t\251\246%YN\311"
 122      1A2E37A0 
 122      24DCBCBE 
 122      BACB74A9 
 122      A625594E 
 123 00fd 5EE5E3B1 		.ascii	"^\345\343\261qsk\377=\"\265\225\367\237\247\335y\344"
 123      71736BFF 
 123      3D22B595 
ARM GAS  C:\Users\Luggi\AppData\Local\Temp\cc5frRuK.s 			page 9


 123      F79FA7DD 
 123      79E4
 124 010f 8CB4615A 		.ascii	"\214\264aZ\031\202#\3508f\014\241\204<\370\032\252\303"
 124      198223E8 
 124      38660CA1 
 124      843CF81A 
 124      AAC3
 125 0121 30733E45 		.ascii	"0s>ET\377\320\3407\261\031\266\346\232\012/\204cs\361"
 125      54FFD0E0 
 125      37B119B6 
 125      E69A0A2F 
 125      846373F1 
 126 0135 F07CD01F 		.ascii	"\360|\320\037]\212\205\302\201\031\177\324;\036\360"
 126      5D8A85C2 
 126      81197FD4 
 126      3B1EF0
 127 0144 4C7A837E 		.ascii	"Lz\203~\217/\350\016N\373f\307Bd_\214E\242\261H|\371"
 127      8F2FE80E 
 127      4EFB66C7 
 127      42645F8C 
 127      45A2B148 
 128 015a 07AF0A7B 		.ascii	"\007\257\012{^"
 128      5E
 129              		.text
 130              		.section	.gnu.lto_ADC_SAR_2_IRQ_GetPriority.bb48c39,"",%progbits
 131 0000 789C658F 		.ascii	"x\234e\217\317+\303q\030\307\237\367\363\035\246!9i"
 131      CF2BC371 
 131      18C79FF7 
 131      F31DA621 
 131      3969
 132 0012 17871D16 		.ascii	"\027\207\035\026\311a\345\017\020%\267\331\312i\265"
 132      C961E50F 
 132      1025B7D9 
 132      CA69B5
 133 0021 34DFC32E 		.ascii	"4\337\303.\246\305\301i\237\315HN\016\212\322\016\016"
 133      A6C5C169 
 133      9FCD484E 
 133      0E8AD20E 
 133      0E
 134 0032 7EFF982B 		.ascii	"~\377\230+\016\226\362\243\210l\241\304LM!\311\"\372"
 134      0E96F2A3 
 134      886CA1C4 
 134      4C4D21C9 
 134      22FA
 135 0044 1EF8FA7C 		.ascii	"\036\370\372|\306Ay\352\323\363\364\364~\277\237\327"
 135      C64179EA 
 135      D3F3F4F4 
 135      7EBF9FD7 
 136 0054 47A3FF65 		.ascii	"G\243\377e\227\257\013D.\331\241\021x\374\230(je@\015"
 136      97AF0B44 
 136      2ED9A111 
 136      78FC9828 
 136      6A65400D 
 137 0068 048A3022 		.ascii	"\004\2120\"x\340\002\343h\343+\003\347\254\020\261\227"
 137      78E002E3 
 137      68E32B03 
 137      E7AC10B1 
ARM GAS  C:\Users\Luggi\AppData\Local\Temp\cc5frRuK.s 			page 10


 137      97
 138 0079 D8E4B56D 		.ascii	"\330\344\265m\270\326`\242W&4\332Q\257r0\017'I\341\334"
 138      B8D660A2 
 138      572634DA 
 138      51AF7230 
 138      0F2749E1 
 139 008e F6ED4689 		.ascii	"\366\355F\211\326\0005'S[\217\225\216\031i\312m>\354"
 139      D6003527 
 139      535B8F95 
 139      8E1969CA 
 139      6D3EEC
 140 00a1 D9C49488 		.ascii	"\331\304\224\210\347L\263NZ\261\000\355\257[\2254\024"
 140      E74CB34E 
 140      5AB100ED 
 140      AF5B9534 
 140      14
 141 00b2 E29F17B6 		.ascii	"\342\237\027\266\322\270\020\242\032\213p\250\0032y"
 141      D2B810A2 
 141      1A8B70A8 
 141      033279
 142 00c1 09A51212 		.ascii	"\011\245\022\022j\223\254I\011\323|\275\232\030uY,L"
 142      6A93AC49 
 142      09D37CBD 
 142      9A187559 
 142      2C4C
 143 00d3 062B6CA5 		.ascii	"\006+l\245\244\274\224*\352;f\325\265K\354\274\217="
 143      A4BC942A 
 143      EA3B66D5 
 143      B54BECBC 
 143      8F3D
 144 00e5 1FBA95FB 		.ascii	"\037\272\225\373\203\325\027\366w\323#e\367l0\307\016"
 144      83D517F6 
 144      77D32365 
 144      F76C30C7 
 144      0E
 145 00f6 864495BA 		.ascii	"\206D\225\272w\223?9\265\026W\305\363\342\354m\275<"
 145      77933F39 
 145      B51657C5 
 145      F3E2EC6D 
 145      BD3C
 146 0108 81E9681C 		.ascii	"\201\351h\034\006kX\206\035+\220xXE\002t\211\241\354"
 146      066B5886 
 146      1D2B9078 
 146      58450274 
 146      89A1EC
 147 011b C81B7E02 		.ascii	"\310\033~\002\265\237\314\247\314\364f\205\012\260\224"
 147      B59FCCA7 
 147      CCF46685 
 147      0AB094
 148 012a 10D6A4F6 		.ascii	"\020\326\244\366\034\\\344\225LRDYDSf\232\177=\2440"
 148      1C5CE495 
 148      4C524459 
 148      4453669A 
 148      7F3DA430 
 149 013e A1F0E43D 		.ascii	"\241\360\344=g\273\336\253\207\273\373\365\036\2777"
 149      67BBDEAB 
 149      87BBFBF5 
ARM GAS  C:\Users\Luggi\AppData\Local\Temp\cc5frRuK.s 			page 11


 149      1EBF37
 150 014d 34100EE8 		.ascii	"4\020\016\350>\2677\324\332\354kik\365{[<~\227\277\303"
 150      3EB737D4 
 150      DAEC6B69 
 150      6BF57B5B 
 150      3C7E97BF 
 151 0162 D3D91420 		.ascii	"\323\331\024 k_8\030\012\007\373\007\277\001!\203\211"
 151      6B5F3818 
 151      0A07FB07 
 151      BF012183 
 151      89
 152 0173 13       		.ascii	"\023"
 153              		.text
 154              		.section	.gnu.lto_ADC_SAR_2_IRQ_Enable.bb48c39,"",%progbits
 155 0000 789C6366 		.ascii	"x\234cf\300\004R@|\007\2105\201\230\221\231\201\221"
 155      C0045240 
 155      7C078835 
 155      81989199 
 155      8191
 156 0012 69C23906 		.ascii	"i\3029\006\206F\016&FF\020\203\201\221\241\236\211\261"
 156      86460E26 
 156      46461083 
 156      8191A19E 
 156      89B1
 157 0024 9EF125D3 		.ascii	"\236\361%\323G&\306\011\007V\317\340V_\332\320\320\360"
 157      4726C609 
 157      0756CFE0 
 157      565FDAD0 
 157      D0F0
 158 0036 61D35CC9 		.ascii	"a\323\\\311V\211\237L\014\014\237\231 \3060.gTg\000"
 158      56899F4C 
 158      0C0C9F99 
 158      20C6302E 
 158      67546700 
 159 004a AAF9D8F2 		.ascii	"\252\371\330\362\367:7[\013P\215\000D\216q\005#\033"
 159      F73A375B 
 159      0B508D00 
 159      448E7105 
 159      231B
 160 005c 23905E2F 		.ascii	"#\220^/t\240\341\377\377\315\337\246\274\260faf`x\002"
 160      74A0E1FF 
 160      FFCDDFA6 
 160      BCB06661 
 160      66607802 
 161 0070 940359F0 		.ascii	"\224\003Y\360\224\211\011D3\337b<\364a\303\367\026N"
 161      94890944 
 161      33DF623C 
 161      F461C3F7 
 161      164E
 162 0082 9072A031 		.ascii	"\220r\2401\237^7\314ey\301\364\223\211\261\341Ps\003"
 162      9F5E37CC 
 162      6579C1F4 
 162      9389B1E1 
 162      507303
 163 0095 1FC8E4FB 		.ascii	"\037\310\344\373O\316_\344\000\0131\200\270_>-\232\304"
 163      4FCE5FE4 
 163      000B3180 
ARM GAS  C:\Users\Luggi\AppData\Local\Temp\cc5frRuK.s 			page 12


 163      B85F3E2D 
 163      9AC4
 164 00a7 3B977176 		.ascii	";\227qvcK\343\001\326\237LL\214+\031\245\030W1\002\275"
 164      634BE301 
 164      D69F4C4C 
 164      8C2B19A5 
 164      18573102 
 165 00bc C3B89A71 		.ascii	"\303\270\232q.#P\305\222\213\367/2\20340\26100\256\001"
 165      2E2350C5 
 165      928BF72F 
 165      32833430 
 165      B13030AE 
 166 00d1 CADC636C 		.ascii	"\312\334cl<p?\030d\003\310\305O\200\006\001m\006\272"
 166      3C703F18 
 166      6403C8C5 
 166      4F800601 
 166      6D06BA
 167 00e4 43DD3D35 		.ascii	"C\335=5/\265(\261$5%>8\277\264(95& 8\337\3314\306\321"
 167      2FB528B1 
 167      2435253E 
 167      38BFB428 
 167      39352620 
 168 00fe C5393ED8 		.ascii	"\3059>\3301(\336(\3363(P/\231\001\000\277\267_\235"
 168      3128DE28 
 168      DE332850 
 168      2F990100 
 168      BFB75F9D 
 169              		.text
 170              		.section	.gnu.lto_ADC_SAR_2_IRQ_GetState.bb48c39,"",%progbits
 171 0000 789C6550 		.ascii	"x\234eP;HCA\020\334\331{\211\342\037\013\221W\330\006"
 171      3B484341 
 171      10DCD97B 
 171      89E21F0B 
 171      9157D806 
 172 0014 4114143B 		.ascii	"A\024\024;\233\020A\3544i\003AbZ\205\240\265\027\023"
 172      9B1041EC 
 172      34690341 
 172      625A85A0 
 172      B51713
 173 0027 45C44202 		.ascii	"E\304B\002\202(i\004\377\277\302\312O!\251,\202\"*\242"
 173      82286904 
 173      FFBFC2CA 
 173      4F21A92C 
 173      82222AA2 
 174 003b 606CA228 		.ascii	"`l\242(6jDM\241q/\261\021\017n\367nwfvXE\377O\233\334"
 174      366A444D 
 174      A1712FB1 
 174      110F6EF7 
 174      6E776676 
 175 0055 20881A25 		.ascii	" \210\032%\303A\340\351c\242H)\263u\320@\272L\235\267"
 175      C341E0E9 
 175      63A24829 
 175      B375D040 
 175      BA4C9DB7 
 176 0069 90AE50B0 		.ascii	"\220\256P\260\212e\0130\017\002\215\260\2620\202G~a"
 176      8A650B30 
 176      0F028DB0 
ARM GAS  C:\Users\Luggi\AppData\Local\Temp\cc5frRuK.s 			page 13


 176      B2308247 
 176      7E61
 177 007b A476BFCF 		.ascii	"\244v\277\317\340Z\324z\364yt\347\246|\254>\307DY&4"
 177      E05AD47A 
 177      F47974E7 
 177      A67CAC3E 
 177      C7445926 
 178 0090 D968B40D 		.ascii	"\331h\264\015|\031.\022\340K\354\353\262\334\031\323"
 178      7C192E12 
 178      E04BECEB 
 178      B2DC19D3 
 179 00a0 5AD798BE 		.ascii	"Z\327\230\2764V\340\224\341\264]{\250\363\371ljf\302"
 179      3456E094 
 179      E1B45D7B 
 179      A8F3F96C 
 179      6A66C2
 180 00b3 E5708084 		.ascii	"\345p\200\204\257$\3002\201(#P3\366\216\331du\215\344"
 180      AF24C032 
 180      81282350 
 180      33F68ED9 
 180      64758DE4 
 181 00c7 FB64FAAA 		.ascii	"\373d\372\252\303\260?X\211\360\353\223NX\017\234c\326"
 181      C3B03F58 
 181      89F0EB93 
 181      4E580F9C 
 181      63D6
 182 00d9 C9A8AE32 		.ascii	"\311\250\2562\263n3'\247\245\205\022\231\357\333\353"
 182      B36E3327 
 182      A7A58512 
 182      99EFDBEB 
 183 00e9 42BC3281 		.ascii	"B\2742\201\371H\0149VX\205\2155\2107\254#\001\272F\364"
 183      F9480C39 
 183      5658858D 
 183      358837AC 
 183      2301BA46 
 184 00fe 733CE528 		.ascii	"s<\345(\012ZE\315\275\370\321\254\323\010\210\015l\010"
 184      0A5A45CD 
 184      BDF8D1AC 
 184      D308880D 
 184      6C08
 185 0110 F602B1AB 		.ascii	"\366\002\261\253h\335/F\000\221\245\375\251\222\002"
 185      68DD2F46 
 185      0091A5FD 
 185      A99202
 186 011f 4064368D 		.ascii	"@d6\215\030\031\257\212\316[\324\035[\005\253i\240H"
 186      1819AF8A 
 186      CE5BD41D 
 186      5B05AB69 
 186      A048
 187 0131 10CC3D20 		.ascii	"\020\314= \254\323\271\245h\265a\311\022\261\005\233"
 187      ACD3B9A5 
 187      68B561C9 
 187      12B1059B 
 188 0141 FF98353B 		.ascii	"\377\2305;\331\206\255\214\020\214\202T\\]\241\201P"
 188      D986AD8C 
 188      108C8254 
 188      5C5DA181 
ARM GAS  C:\Users\Luggi\AppData\Local\Temp\cc5frRuK.s 			page 14


 188      50
 189 0152 B86F28D4 		.ascii	"\270o(\324\037\360\015\016\207\203!\177\217o\320\323"
 189      1FF00D0E 
 189      8783217F 
 189      8F6FD0D3 
 190 0162 EE77777A 		.ascii	"\356wwz\002>\2677\320\032\350\366\3666\007\351\007e"
 190      023EB737 
 190      D01AE8F6 
 190      F63607E9 
 190      0765
 191 0174 C08A51   		.ascii	"\300\212Q"
 192              		.text
 193              		.section	.gnu.lto_ADC_SAR_2_IRQ_Disable.bb48c39,"",%progbits
 194 0000 789C6366 		.ascii	"x\234cf\300\004R@|\007\2105\201\230\221\231\201\221"
 194      C0045240 
 194      7C078835 
 194      81989199 
 194      8191
 195 0012 69C23906 		.ascii	"i\3029\006\206F\016&FF\020\203\201\221\241\236\211\261"
 195      86460E26 
 195      46461083 
 195      8191A19E 
 195      89B1
 196 0024 9EF125D3 		.ascii	"\236\361%\323G&\306\011\007V\317\340V_\332\320\320\360"
 196      4726C609 
 196      0756CFE0 
 196      565FDAD0 
 196      D0F0
 197 0036 E1D276C9 		.ascii	"\341\322v\311V\211\237L\014\014\237\231 \3060.gTg\000"
 197      56899F4C 
 197      0C0C9F99 
 197      20C6302E 
 197      67546700 
 198 004a AAF9D8F2 		.ascii	"\252\371\330\362\367:7[\013P\215\000D\216q\005#\033"
 198      F73A375B 
 198      0B508D00 
 198      448E7105 
 198      231B
 199 005c 23905E2F 		.ascii	"#\220^/t\240\341\377\377\315\367\247\2560bef`x\002\224"
 199      74A0E1FF 
 199      FFCDF7A7 
 199      AE306265 
 199      66607802 
 200 0071 0359F094 		.ascii	"\003Y\360\224\211\011D3\337b<\364a\303\223VN\220r\240"
 200      89094433 
 200      DF623CF4 
 200      61C39356 
 200      4E9072A0 
 201 0085 3113DFB7 		.ascii	"1\023\337\267\237\345z\301\364\223\211\261\341ps\003"
 201      9FE57AC1 
 201      F49389B1 
 201      E1707303 
 202 0095 1FC8E4FB 		.ascii	"\037\310\344\373O\316_\344\000\0131\200\270\027[\032"
 202      4FCE5FE4 
 202      000B3180 
 202      B8175B1A 
 203 00a5 FEB2CE65 		.ascii	"\376\262\316e\234\335\330\322x\200\365'\023\023\343"
ARM GAS  C:\Users\Luggi\AppData\Local\Temp\cc5frRuK.s 			page 15


 203      9CDDD8D2 
 203      7880F527 
 203      1313E3
 204 00b4 4A4629C6 		.ascii	"JF)\306U\214@\3570\256f\234\313\010T\261\344\342\375"
 204      558C40EF 
 204      30AE669C 
 204      CB0854B1 
 204      E4E2FD
 205 00c7 8BCC200D 		.ascii	"\213\314 \015L,\014\214k\2002\367\030\033\017L\016\007"
 205      4C2C0C8C 
 205      6B8032F7 
 205      181B0F4C 
 205      0E07
 206 00d9 D90072F1 		.ascii	"\331\000r\361\023\240A@\233\201\356PwO\315K-J,IM\211"
 206      13A04140 
 206      9B81EE50 
 206      774FCD4B 
 206      2D4A2C49 
 207 00ef 0FCE2F2D 		.ascii	"\017\316/-JN\215\011\010\316w6\215qtq\216\017v\014\212"
 207      4A4E8D09 
 207      08CE7736 
 207      8D717471 
 207      8E0F760C 
 208 0104 378AF70C 		.ascii	"7\212\367\014\012\324Kf\000\000_k^\260"
 208      0AD44B66 
 208      00005F6B 
 208      5EB0
 209              		.text
 210              		.section	.gnu.lto_ADC_SAR_2_IRQ_Start.bb48c39,"",%progbits
 211 0000 789C6D8F 		.ascii	"x\234m\217=K\303P\024\206\317{b\323B\027q\354\037\010"
 211      3D4BC350 
 211      1486CF7B 
 211      62D34217 
 211      71EC1F08 
 212 0014 2E0E823F 		.ascii	".\016\202?\240T\024'k\263\026\202\324\254\026\212\216"
 212      A0541427 
 212      6BB31682 
 212      D4AC168A 
 212      8E
 213 0025 A137D8C1 		.ascii	"\2417\330\301I\352\"\016\342\"\342G\265\202\037\263"
 213      49EA220E 
 213      E222E247 
 213      B5821FB3 
 214 0035 717154D0 		.ascii	"qqT\320\301\245\210\203\202\342b\311 A\244\236\2338"
 214      C1A58883 
 214      82E262C9 
 214      2041A49E 
 214      9B38
 215 0047 08E6C2E5 		.ascii	"\010\346\302\345^x\237\363\234s\014\372\177\012rgA4"
 215      5E789FF3 
 215      9C730CFA 
 215      7F0A7267 
 215      4134
 216 0059 2A2F0C02 		.ascii	"*/\014\002\267o\210\374\034\003\372C\240&\243\2117\356"
 216      B76F88FC 
 216      1C03FA43 
 216      A026A389 
ARM GAS  C:\Users\Luggi\AppData\Local\Temp\cc5frRuK.s 			page 16


 216      37EE
 217 006b 33DA4167 		.ascii	"3\332Ag3o\355*\245>\356n\375r\200\210\211BN<\330\203"
 217      336FED2A 
 217      A53EEE6E 
 217      FD728088 
 217      89424E3C 
 218 0081 4502F55B 		.ascii	"E\002\365[\337\017y\263%\320p\222a\037\246\370\351d"
 218      DF0F79B3 
 218      25D07092 
 218      611FA6F8 
 218      E964
 219 0093 245083C1 		.ascii	"$P\203\301\331\345\325\271i\022=K\244\033\2740\353\327"
 219      D9E5D5B9 
 219      69123D4B 
 219      A41BBC30 
 219      EBD7
 220 00a5 E8612558 		.ascii	"\350a%X\277f\015k\313\366\375Z\227\275/\265\252r\021"
 220      BF660D6B 
 220      CBF6FD5A 
 220      97BD2FB5 
 220      AA7211
 221 00b8 236411E0 		.ascii	"#d\021\340\000\036E\202\367\320\0126\314T\322\010%'"
 221      001E4582 
 221      F7D00A36 
 221      CC54D208 
 221      2527
 222 00ca 1C0AF927 		.ascii	"\034\012\371'J\024F\\\201\016\274\210\207b\311V\272"
 222      4A14465C 
 222      810EBC88 
 222      8762C956 
 222      BA
 223 00db 24134A4E 		.ascii	"$\023JN8J$\237;O\357x\345\210\315,\341\030\205\210\263"
 223      384A249F 
 223      3B4FEF78 
 223      E588CD2C 
 223      E1188588 
 224 00f0 A4873D4D 		.ascii	"\244\207=M/\226F\031)\356\376\316\372\010?\270\230\212"
 224      2F964619 
 224      29EEFECE 
 224      FA083FB8 
 224      988A
 225 0102 49D24B43 		.ascii	"I\322KC/+#Z\323\356\242\333\230_r\027\034\273\276\334"
 225      2F2B235A 
 225      D3EEA2DB 
 225      985F7217 
 225      1CBBBEDC 
 226 0116 A8B9D5B2 		.ascii	"\250\271\325\262]/MT\213\223%\307.V\234qg\24627V\243"
 226      5D2F4D54 
 226      8B9325C7 
 226      2E569C71 
 226      67A63237 
 227 012c 1FAAEA83 		.ascii	"\037\252\352\203\257"
 227      AF
 228              		.text
 229              		.section	.gnu.lto_ADC_SAR_2_IRQ_StartEx.bb48c39,"",%progbits
 230 0000 789C6D8F 		.ascii	"x\234m\217K(\204Q\024\307\317\377\3341\3370\026\262"
 230      4B288451 
ARM GAS  C:\Users\Luggi\AppData\Local\Temp\cc5frRuK.s 			page 17


 230      14C7CFFF 
 230      DC31DF30 
 230      16B2
 231 0012 D2AC6C34 		.ascii	"\322\254l4e\241(+\033\242d\307\314VM2\337\226\032,'"
 231      65A1282B 
 231      1BA264C7 
 231      CC564D32 
 231      DF961A2C 
 232 0027 17A3D878 		.ascii	"\027\243\330x\225\232\225\215d\274\306c#\217\305\227"
 232      959A958D 
 232      64BCC663 
 232      238FC597 
 233 0037 0D1B1624 		.ascii	"\015\033\026$&\222\005\345\265\240O\351K\342\334agn"
 233      269205E5 
 233      B5A04FE9 
 233      4BE2DC61 
 233      676E
 234 0049 DDCE39F7 		.ascii	"\335\3169\367\376\316\377\374\217\242\377'$w\026D\265"
 234      FECEFFFC 
 234      8FA2FF27 
 234      24771644 
 234      B5
 235 005a 12A1083C 		.ascii	"\022\241\010<uB4\024`\300$\004\032d\014\342\221\337"
 235      75423414 
 235      60C02404 
 235      1A640CE2 
 235      91DF
 236 006c 1853CE4A 		.ascii	"\030S\316J:\030^\320Z\277\016\357U\214VxL\344\362\257"
 236      3A185ED0 
 236      5ABF0EEF 
 236      558C5678 
 236      4CE4F2AF 
 237 0080 0C161136 		.ascii	"\014\026\0216\310sn\262TU\203$\337\311\276\037\007\037"
 237      C8736EB2 
 237      54558324 
 237      DFC9BE1F 
 237      071F
 238 0092 D863549A 		.ascii	"\330cT\232rw\346(\3557%\373L\3714~~\240\252\346\265"
 238      7277E628 
 238      ED3725FB 
 238      4CF9347E 
 238      7EA0AAE6 
 239 00a7 1E76725B 		.ascii	"\036vr[\272\321\347\261B\006J\364\260\204\020\226\021"
 239      BAD1E7B1 
 239      42064AF4 
 239      B0841096 
 239      11
 240 00b8 227922AC 		.ascii	"\"y\"\254\240\312\340o\251\257\213\240?%\263\313~gb"
 240      A0CAE06F 
 240      A9AF8BA0 
 240      3F25B3CB 
 240      7E6762
 241 00cb 157EB14D 		.ascii	"\025~\261M\353\345\216\376\376v_\2463\015\260\024\362"
 241      EBE58EFE 
 241      FE765FA6 
 241      330DB014 
 241      F2
ARM GAS  C:\Users\Luggi\AppData\Local\Temp\cc5frRuK.s 			page 18


 242 00dc 3CDD0961 		.ascii	"<\335\011a\354\3373\233\250\2561\342l\037\262\3511b"
 242      ECDF339B 
 242      A8AE31E2 
 242      6C1FB2E9 
 242      3162
 243 00ee 73671359 		.ascii	"sg\023YN~\3521\035\360\330\347\262\350`\015I\031XD\327"
 243      4E7EEA31 
 243      1DF0D8E7 
 243      B2E8600D 
 243      49195844 
 244 0103 4839FB56 		.ascii	"H9\373VA\322\357\212\034!+\344\007+\217\255<|Z\030\016"
 244      41D2EF8A 
 244      1C212BE4 
 244      072B8FAD 
 244      3C7C5A18 
 245 0118 B8E29EB0 		.ascii	"\270\342\236\260.\260|}\314\337>\303,_l\0216\020\362"
 245      2EB07C7D 
 245      CCDF3EC3 
 245      2C5F6C11 
 245      3610F2
 246 012b B8848CA9 		.ascii	"\270\204\214\251\313\302\315\342\311'\315\233\177\236"
 246      CBC2CDE2 
 246      C927CD9B 
 246      7F9E
 247 0139 6E30E45C 		.ascii	"n0\344\\\265\346I2\313\301,%V\302\255v\217\235\350\352"
 247      B5E64932 
 247      CBC12C25 
 247      56C2AD76 
 247      8F9DE8EA 
 248 014d B7E3B168 		.ascii	"\267\343\261h\357@\242\333\356l\217\3666\327w6\2654"
 248      EF40A2DB 
 248      EE6C8FF6 
 248      36D77736 
 248      B534
 249 015f C7A24D91 		.ascii	"\307\242M\221X]\254-\322Q\323MVW<\236\260\373\372~\000"
 249      585DAC2D 
 249      D251D34D 
 249      56573C9E 
 249      B0FBFA7E 
 250 0174 E4C59EAB 		.ascii	"\344\305\236\253"
 251              		.text
 252              		.section	.gnu.lto_ADC_SAR_2_IRQ_Stop.bb48c39,"",%progbits
 253 0000 789C6366 		.ascii	"x\234cf\300\004R@\374\002\2105\201\230\221\231\201\221"
 253      C0045240 
 253      FC028835 
 253      81989199 
 253      8191
 254 0012 69C23906 		.ascii	"i\3029\006\206F\016&FF\020\203\201\221\241\236\211\261"
 254      86460E26 
 254      46461083 
 254      8191A19E 
 254      89B1
 255 0024 9EF125D3 		.ascii	"\236\361%\323G&\306\011\007V\317\340V_\332\320\320\360"
 255      4726C609 
 255      0756CFE0 
 255      565FDAD0 
 255      D0F0
ARM GAS  C:\Users\Luggi\AppData\Local\Temp\cc5frRuK.s 			page 19


 256 0036 E1D14589 		.ascii	"\341\321E\211V\211\237L\014\014\237\231 \3060.gTg\000"
 256      56899F4C 
 256      0C0C9F99 
 256      20C6302E 
 256      67546700 
 257 004a AAF9D8F2 		.ascii	"\252\371\330\362\367:7[\013P\215\000D\216q\005#\033"
 257      F73A375B 
 257      0B508D00 
 257      448E7105 
 257      231B
 258 005c 23905E2F 		.ascii	"#\220^/t\240\341\377\377\317\307'\255Pgba`x\002\224"
 258      74A0E1FF 
 258      FFCFC727 
 258      AD506762 
 258      61607802 
 259 0071 0359F094 		.ascii	"\003Y\360\224\211\011D3\337al>\260\371\024\023H5\310"
 259      89094433 
 259      DF616C3E 
 259      B0F91413 
 259      4835C8
 260 0084 987997FB 		.ascii	"\230y\227\373\3261\325\376n\350h\340\370\311\304\370"
 260      D631D5FE 
 260      6EE868E0 
 260      F8C9C4F8 
 261 0094 99096802 		.ascii	"\231\011h\002\343J\306Z\206\237@\345w\030[\016\354\340"
 261      E34AC65A 
 261      869F40E5 
 261      77185B0E 
 261      ECE0
 262 00a6 C2AA92F9 		.ascii	"\302\252\222\3713P\236\201q\025P%\222\024\304\010f\260"
 262      33509E81 
 262      71155025 
 262      9214C408 
 262      66B0
 263 00b8 0EC6D58C 		.ascii	"\016\306\325\214\265?\201\016\270\307\330x`\267\027"
 263      B53F810E 
 263      B8C7D878 
 263      60B717
 264 00c7 588801E4 		.ascii	"X\210\001\344\032F\220+\200z\325\335S\363R\213\022K"
 264      1A46902B 
 264      807AD5DD 
 264      53F3528B 
 264      124B
 265 00d9 5253E283 		.ascii	"RS\342\203\363K\213\222Sc\002\202\363\235Mc\034]\234"
 265      F34B8B92 
 265      53630282 
 265      F39D4D63 
 265      1C5D9C
 266 00ec E3831D83 		.ascii	"\343\203\035\203\342\215\342=\203\002\365\222\031\000"
 266      E28DE23D 
 266      8302F592 
 266      1900
 267 00fa 95086054 		.ascii	"\225\010`T"
 268              		.text
 269              		.section	.gnu.lto_ADC_SAR_2_IRQ_SetPending.bb48c39,"",%progbits
 270 0000 789C6366 		.ascii	"x\234cf\300\004R@|\007\2105\201\230\221\231\201\221"
 270      C0045240 
ARM GAS  C:\Users\Luggi\AppData\Local\Temp\cc5frRuK.s 			page 20


 270      7C078835 
 270      81989199 
 270      8191
 271 0012 69C23906 		.ascii	"i\3029\006\206F\016&FF\020\203\201\221\241\236\211\261"
 271      86460E26 
 271      46461083 
 271      8191A19E 
 271      89B1
 272 0024 9EF125D3 		.ascii	"\236\361%\323G&\306\011\007V\317\340V_\332\320\320\360"
 272      4726C609 
 272      0756CFE0 
 272      565FDAD0 
 272      D0F0
 273 0036 A169BF64 		.ascii	"\241i\277d\253\304O&\006\206\317L\020c\030\2273\252"
 273      ABC44F26 
 273      0686CF4C 
 273      10631897 
 273      33AA
 274 0048 3300D57C 		.ascii	"3\000\325|l\371{\235\233\255\005\250F\000\"\307\270"
 274      6CF97B9D 
 274      9BAD05A8 
 274      460022C7 
 274      B8
 275 0059 82918D11 		.ascii	"\202\221\215\021H\257\027:\320\360\377\377\347?S_\330"
 275      48AF173A 
 275      D0F0FFFF 
 275      E73F535F 
 275      D8
 276 006a B1323330 		.ascii	"\261230<\001\312\201,x\312\304\004\242\231o1\036\372"
 276      3C01CA81 
 276      2C78CAC4 
 276      04A2996F 
 276      311EFA
 277 007d B0E16F2B 		.ascii	"\260\341o+'H9\320\230-\267\326>\344x\301\364\223\211"
 277      274839D0 
 277      982DB7D6 
 277      3EE478C1 
 277      F49389
 278 0090 B1E14873 		.ascii	"\261\341Hs\003\037\310\344\373O\316_\204\0101\200\270"
 278      031FC8E4 
 278      FB4FCE5F 
 278      84083180 
 278      B8
 279 00a1 539B677D 		.ascii	"S\233g}\344\230\3138\273\261\245\361\000\353O&&\306"
 279      E498CB38 
 279      BBB1A5F1 
 279      00EB4F26 
 279      26C6
 280 00b3 958C528C 		.ascii	"\225\214R\214\253\030\201\336a\\\3158\227\021\250b\311"
 280      AB1881DE 
 280      615CCD38 
 280      9711A862 
 280      C9
 281 00c4 C5FB1799 		.ascii	"\305\373\027\231A\032\230X\030\030\327\000e\35616\036"
 281      411A9858 
 281      1818D700 
 281      65EE3136 
ARM GAS  C:\Users\Luggi\AppData\Local\Temp\cc5frRuK.s 			page 21


 281      1E
 282 00d5 F81E0EB2 		.ascii	"\370\036\016\262\001\344\342'@\203\2006\003\335\241"
 282      01E4E227 
 282      40838036 
 282      03DDA1
 283 00e4 EE9E9A97 		.ascii	"\356\236\232\227Z\224X\222\232\022\037\234_Z\224\234"
 283      5A945892 
 283      9A121F9C 
 283      5F5A949C 
 284 00f4 1A13109C 		.ascii	"\032\023\020\234\357l\032\343\350\342\034\037\354\030"
 284      EF6C1AE3 
 284      E8E21C1F 
 284      EC18
 285 0102 146F14EF 		.ascii	"\024o\024\357\031\024\250\227\314\000\000\322(_\251"
 285      1914A897 
 285      CC0000D2 
 285      285FA9
 286              		.text
 287              		.section	.gnu.lto_ADC_SAR_2_IRQ_ClearPending.bb48c39,"",%progbits
 288 0000 789C6366 		.ascii	"x\234cf\300\004R@|\007\2105\201\230\221\231\201\221"
 288      C0045240 
 288      7C078835 
 288      81989199 
 288      8191
 289 0012 69C23906 		.ascii	"i\3029\006\206F\016&FF\020\203\201\221\241\236\211\261"
 289      86460E26 
 289      46461083 
 289      8191A19E 
 289      89B1
 290 0024 9EF125D3 		.ascii	"\236\361%\323G&\306\011\007V\317\340V_\332\320\320\360"
 290      4726C609 
 290      0756CFE0 
 290      565FDAD0 
 290      D0F0
 291 0036 61D255C9 		.ascii	"a\322U\311V\211\237L\014\014\237\231 \3060.gTg\000\252"
 291      56899F4C 
 291      0C0C9F99 
 291      20C6302E 
 291      67546700 
 292 004b F9D8F2F7 		.ascii	"\371\330\362\367:7[\013P\215\000D\216q\005#\033#\220"
 292      3A375B0B 
 292      508D0044 
 292      8E710523 
 292      1B2390
 293 005e 5E2F74A0 		.ascii	"^/t\240\341\377\377\315W\247uh\263130<\001\312\201,"
 293      E1FFFFCD 
 293      57A77568 
 293      B3313330 
 293      3C01CA81 
 294 0073 78CAC404 		.ascii	"x\312\304\004\242\231o1\036\372\360\341j\033'H9\320"
 294      A2996F31 
 294      1EFAF0E1 
 294      6A1B2748 
 294      39D0
 295 0085 98BE4973 		.ascii	"\230\276Is[y_0\375dbl8\332\334\300\0072\371\376\223"
 295      5B795F30 
 295      FD64626C 
ARM GAS  C:\Users\Luggi\AppData\Local\Temp\cc5frRuK.s 			page 22


 295      38DADCC0 
 295      0732F9FE 
 296 009a F31739C0 		.ascii	"\363\0279\300B\014 \356\234\216\031\273\331\3472\316"
 296      420C20EE 
 296      9C8E19BB 
 296      D9E732CE 
 297 00aa 6E6C693C 		.ascii	"nli<\300\372\223\211\211q%\243\024\343*F\240w\030W3"
 297      C0FA9389 
 297      897125A3 
 297      14E32A46 
 297      A0771857 
 298 00bf CE6504AA 		.ascii	"\316e\004\252Xr\361\376Ef\220\006&\026\006\3065@\231"
 298      5872F1FE 
 298      45669006 
 298      261606C6 
 298      354099
 299 00d2 7B8C8D07 		.ascii	"{\214\215\007nF\201l\000\271\370\011\320 \240\315@w"
 299      6E46816C 
 299      00B9F809 
 299      D020A0CD 
 299      4077
 300 00e4 A8BBA7E6 		.ascii	"\250\273\247\346\245\026%\226\244\246\304\007\347\227"
 300      A5162596 
 300      A4A6C407 
 300      E797
 301 00f2 1625A7C6 		.ascii	"\026%\247\306\004\004\347;\233\3068\2728\307\007;\006"
 301      0404E73B 
 301      9BC638BA 
 301      38C7073B 
 301      06
 302 0103 C51BC57B 		.ascii	"\305\033\305{\006\005\352%3\000\000\324K]\364"
 302      0605EA25 
 302      330000D4 
 302      4B5DF4
 303              		.text
 304              		.section	.gnu.lto_.symbol_nodes.bb48c39,"",%progbits
 305 0000 789C55CA 		.ascii	"x\234U\312\301\015\3020\014\205\341\347\270i\342\264"
 305      C10DC230 
 305      0C85E1E7 
 305      B869E2B4 
 306 0010 1D86095F 		.ascii	"\035\206\011_\305\211#'\316\210\023s0\0003\000\203 "
 306      C5892327 
 306      CE881373 
 306      30003300 
 306      8320
 307 0022 A22642B5 		.ascii	"\242&B\265/O\237~+\200\203\240]P\002\347'@\342r\317"
 307      2F4F9F7E 
 307      2B8083A0 
 307      5D5002E7 
 307      2740E272 
 308 0037 0803C3DF 		.ascii	"\010\003\303\337\327\352Hu\03698'F\347\314\321\331\230"
 308      D7EA4875 
 308      1E393827 
 308      46E7CCD1 
 308      D998
 309 0049 9C0BB333 		.ascii	"\234\013\2633h\316\302\342\0348\355-\013\245\031\353"
 309      68CEC2E2 
ARM GAS  C:\Users\Luggi\AppData\Local\Temp\cc5frRuK.s 			page 23


 309      1C38ED2D 
 309      0BA519EB 
 310 0059 A9E689B3 		.ascii	"\251\346\211\263{\237\271\354\2559\341\366\372\212f"
 310      7B9FB9EC 
 310      AD39E1F6 
 310      FA8A66
 311 0068 C1635BC5 		.ascii	"\301c[\305g\333\210\343\273\256\365n\275[\357\326{\351"
 311      67DB88E3 
 311      BBAEF56E 
 311      BD5BEFD6 
 311      7BE9
 312 007a BDB48E1F 		.ascii	"\275\264\216\037\257\376T\012"
 312      AFFE540A 
 313              		.text
 314              		.section	.gnu.lto_.refs.bb48c39,"",%progbits
 315 0000 789C6366 		.ascii	"x\234cf``\340f\200\000F\016&\006&F.&n&\006\000\002\015"
 315      6060E066 
 315      8000460E 
 315      26062646 
 315      2E266E26 
 316 0018 0036     		.ascii	"\0006"
 317              		.text
 318              		.section	.gnu.lto_.decls.bb48c39,"",%progbits
 319 0000 789C8D96 		.ascii	"x\234\215\226]L\024W\024\307\347\356\335]w\227-\332"
 319      5D4C1457 
 319      14C7E7EE 
 319      DD5D7797 
 319      2DDA
 320 0012 0F517982 		.ascii	"\017Qy\202\027\232&\306&\232&\276U\213F\255IC%\355\213"
 320      179A26C6 
 320      269A26BE 
 320      558B46AD 
 320      494325ED 
 321 0027 2694C2D4 		.ascii	"&\224\302\324\222\0200\313\222\224\267\021Pq\265\212"
 321      921030CB 
 321      9294B711 
 321      5071B58A 
 322 0037 A8296A55 		.ascii	"\250)jU\254X\005A\276?\026D\026\020YXE\320\345\233*"
 322      AC580541 
 322      BE3F1644 
 322      16105958 
 322      45D0E59B 
 323 004c A00886A0 		.ascii	"\240\010\206\240X-\225`\335\236{\357\214{\007\006u\222"
 323      582D9560 
 323      DD9E7BEF 
 323      8C7B0706 
 323      7592
 324 005e C3EEDC39 		.ascii	"\303\356\3349\347w\316\371\337{f\301\202 \374\200\005"
 324      E777CEF9 
 324      DF7B66C1 
 324      8220FC80 
 324      05
 325 006f C10757AD 		.ascii	"\301\007W\255I\020\252\221 \004\302Z\004\230\016,\010"
 325      4910AA91 
 325      2004C25A 
 325      04980E2C 
 325      08
ARM GAS  C:\Users\Luggi\AppData\Local\Temp\cc5frRuK.s 			page 24


 326 0080 ECB2C02E 		.ascii	"\354\262\300.\262^\010V\004V\011\346\004k\004k\006k"
 326      B25E0856 
 326      045609E6 
 326      046B046B 
 326      066B
 327 0092 016B05F3 		.ascii	"\001k\005\363\200\335\002\273\015\326\011v\027\254K"
 327      80DD02BB 
 327      0DD60976 
 327      17AC4B
 328 00a1 987F110E 		.ascii	"\230\177\021\016\222\363\010\362\367B\015?\222\307("
 328      92F308F2 
 328      F7420D3F 
 328      92C728
 329 00b0 FB91FC56 		.ascii	"\373\221\374V\260R\260n\260\036.\266R#\226\324gxG\234"
 329      B052B06E 
 329      B01E2EB6 
 329      522396D4 
 329      6778479C 
 330 00c4 5323AE51 		.ascii	"S#\256Q\216#9\353d\015\372\301\006\271\270F\215\270"
 330      8E2339EB 
 330      640DFAC1 
 330      06B9B846 
 330      8DB8
 331 00d6 66394E89 		.ascii	"f9N\211\031\224\343\276\346\342\2325\342\210vX\316\367"
 331      1994E3BE 
 331      E6E29A35 
 331      E2887658 
 331      CEF7
 332 00e8 086C94F3 		.ascii	"\010l\224\363o\321\360':\353\345<\241\0321\255\0321"
 332      6FD1F027 
 332      3AEBE53C 
 332      A11A31AD 
 332      1A31
 333 00fa 9EB7E4F0 		.ascii	"\236\267\344\360h\370\223=4\311\376d\377\363\300\306"
 333      68F8933D 
 333      34C9FE64 
 333      FFF3C0C6 
 334 010a C0CAC1C6 		.ascii	"\300\312\301\306\345\376\\\262\257Q\366'\034\262\017"
 334      E5FE5CB2 
 334      AF51F627 
 334      1CB20F
 335 0119 641F1B17 		.ascii	"d\037\033\027\250\235\234\213\000a\376~\276+\207A\216"
 335      A89D9C8B 
 335      0061FE7E 
 335      BE2B8741 
 335      8E
 336 012a 55722CC4 		.ascii	"Ur,\304\357\024\374{7\227I.\275\354\243p\2124\030\344"
 336      EF14FC7B 
 336      3797492E 
 336      BDECA370 
 336      8A3418E4 
 337 013e CC2EA4D5 		.ascii	"\314.\244\325]\015\377\256\267\370k\235\375g:\344\274"
 337      5D0DFFAE 
 337      B7F86B9D 
 337      FD673AE4 
 337      BC
 338 014f F2E256C0 		.ascii	"\362\342V\300\270\016\005ZB\310mM\226;\333\010\267V"
ARM GAS  C:\Users\Luggi\AppData\Local\Temp\cc5frRuK.s 			page 25


 338      B80E055A 
 338      42C86D4D 
 338      963BDB08 
 338      B756
 339 0161 8B9EDCD6 		.ascii	"\213\236\334\326\316\216x\365\313\216Kpe\246IK\364("
 339      CE8E78F5 
 339      CB8E4B70 
 339      65A6494B 
 339      F428
 340 0173 22085D44 		.ascii	"\"\010]D\301\350\022\012\006j\036Z\006\177\267\353\031"
 340      C1E8120A 
 340      066A1E5A 
 340      067FB7EB 
 340      19
 341 0184 E97CF6B0 		.ascii	"\351|\366\260\327\2622\037\\3$\327\022\177\206\242\351"
 341      D7B2321F 
 341      5C3324D7 
 341      127F86A2 
 341      E9
 342 0195 8EFC00AB 		.ascii	"\216\374\000\253C\222R\011\303\274\231\204q\220\313"
 342      43925209 
 342      C3BC9984 
 342      7190CB
 343 01a4 C88AF2D1 		.ascii	"\310\212\362\321J\201}\005\377#\243\207\217\006b3\""
 343      4A817D05 
 343      FF23A387 
 343      8F066233 
 343      22
 344 01b5 B119D347 		.ascii	"\261\031\323G\367.\0169#M\025O\265fn=!\345\244J\257"
 344      F72E0E39 
 344      234D154F 
 344      B5666E3D 
 344      21E5A44A 
 345 01ca 7D3E4453 		.ascii	"}>DS\243\002\204\345H\201|g\235\026\242\020\210\353"
 345      A30284E5 
 345      48817C67 
 345      9D16A210 
 345      88EB
 346 01dc 3A5AEBC6 		.ascii	":Z\353\306x\013e\014Hu\356@`\014I9}\245\322W\351\322"
 346      780B650C 
 346      4875EE40 
 346      600C4939 
 346      7DA5D257 
 347 01f2 2B9F0F53 		.ascii	"+\237\017S\300\025\016pE\001\024Q\200\323]1\202\360"
 347      C0150E70 
 347      45011451 
 347      80D35D31 
 347      82F0
 348 0204 7602D049 		.ascii	"v\002\320IO:N\231P\2305\027Z\233\352m\032\263\026J\222"
 348      4F3A4E99 
 348      50983517 
 348      5A9BEA6D 
 348      1AB3164A 
 349 0219 099542DD 		.ascii	"\011\225B\335\305o\000\244v\326\361\002\215\242\022"
 349      C56F00A4 
 349      76D6F102 
 349      8DA212
ARM GAS  C:\Users\Luggi\AppData\Local\Temp\cc5frRuK.s 			page 26


 350 0228 14C6F50A 		.ascii	"\024\306\365\012)\012&\306\363\014zx\265Q\324v\252\367"
 350      290A26C6 
 350      F30C7A78 
 350      B551D476 
 350      AAF7
 351 023a D8839AA7 		.ascii	"\330\203\232\247\206\005\365.\247z\227!Y\360\347\223"
 351      8605F52E 
 351      A77A9721 
 351      59F0E793 
 352 024a 6743B003 		.ascii	"gC\260\003\321&\257\025\317<6\220&A\250\342C\230S\012"
 352      D126AF15 
 352      CF3C3690 
 352      2641A8E2 
 352      4398530A 
 353 025e 825005D7 		.ascii	"\202P\005\327h\205\322h%mt$M\032\010\3403\222b\374)"
 353      6885D268 
 353      256D7424 
 353      4D1A08E0 
 353      339262FC 
 354 0273 AB545BEC 		.ascii	"\253T[\354z\325vG\207\377`)\233\275\347w\033!eN\361"
 354      7AD57647 
 354      87FF6029 
 354      9BBDE777 
 354      1B21654E 
 355 0288 90BBA5C5 		.ascii	"\220\273\245\305*\271%\227\317\367\245\211\204\240j"
 355      2AB92597 
 355      CFF7A589 
 355      84A06A
 356 0297 2E61B592 		.ascii	".a\265\222\320I\023v\327\357\333g\3025\214\261\373\317"
 356      D0491376 
 356      D7EFDB67 
 356      C2358CB1 
 356      FBCF
 357 02a9 DA838BE0 		.ascii	"\332\203\213\340\270\005Y(\377\220\347d\003\246\267"
 357      B8055928 
 357      FF90E764 
 357      03A6B7
 358 02b8 3EAA7C5F 		.ascii	">\252|_\337\261\031\214,a\031D\323\251,\011/\027\320"
 358      DFB1198C 
 358      2C611944 
 358      D3A92C09 
 358      2F17D0
 359 02cb CA60F419 		.ascii	"\312`\364\031\310y\015\344\014\262\320$\250\026\312"
 359      C8790DE4 
 359      0CB2D024 
 359      A816CA
 360 02da BD0AE5CA 		.ascii	"\275\012\345\312\033\224\2775MZ\207\352\220\005\325"
 360      1B94BF35 
 360      4D5A87EA 
 360      9005D5
 361 02e9 F8F78764 		.ascii	"\370\367\207d\220\017d\346\236\206L=\025\236\3700\341"
 361      900F64E6 
 361      9E864C3D 
 361      159EF830 
 361      E1
 362 02fa FFF10D5F 		.ascii	"\377\361\015_\320-(\274\213\252P\257\010\377\357\304"
 362      D02D28BC 
ARM GAS  C:\Users\Luggi\AppData\Local\Temp\cc5frRuK.s 			page 27


 362      8BAA50AF 
 362      08FFEFC4 
 363 030a F8B409BB 		.ascii	"\370\264\011\273X\013G\372Of\033e\345\217e\361\312C"
 363      580B47FA 
 363      4F661B65 
 363      E58F65F1 
 363      CA43
 364 031c 146AE084 		.ascii	"\024j\340\204hP\204h\244B\354O/\306|FR\214?e\223J\370"
 364      68508468 
 364      A442EC4F 
 364      2FC67C46 
 364      528C3F65 
 365 0333 E71DE985 		.ascii	"\347\035\351\205f\334\3172\3368\367\240\336\314\204"
 365      66DCCF32 
 365      DE38F7A0 
 365      DECC84
 366 0342 AF7E2CBA 		.ascii	"\257~,\272\330\201\246\021\350:\227\356\272\222\256"
 366      D881A611 
 366      E83A97EE 
 366      BA92AE
 367 0351 99A62BCD 		.ascii	"\231\246+\315\372{\306\210_0\304\275\323U\347L\264\350"
 367      FA7BC688 
 367      5F30C4BD 
 367      D355E74C 
 367      B4E8
 368 0363 A189563F 		.ascii	"\241\211V?\202\034\330\033\034\342\206\202h\241\210"
 368      821CD81B 
 368      1CE28682 
 368      68A188
 369 0372 B3B347BC 		.ascii	"\263\263G\274f\274_G\021\216K9%VVE\366\204\272\0127"
 369      66BC5F47 
 369      118E4B39 
 369      25565645 
 369      F684BA0A 
 370 0387 87702B88 		.ascii	"\207p+\210V\212h}vq\312\204s\030\242\263t\262\311\312"
 370      568A687D 
 370      7671CA84 
 370      7318A2B3 
 370      74B2C9CA 
 371 039b AAA8F3A8 		.ascii	"\252\250\363\250\253h\343\020m\012\302C\021\016g\373"
 371      AB68E310 
 371      6D0AC243 
 371      110E67FB 
 372 03ab 3333AE64 		.ascii	"33\256d\210\203%\216\"\246E\316\177\245\322:n\270or"
 372      8883258E 
 372      22A645CE 
 372      7FA5D23A 
 372      6EB86F72 
 373 03bf 849B0AE1 		.ascii	"\204\233\012\341\026%<\256*{i\306m\214\220\366{z5\353"
 373      16253CAE 
 373      2A7B69C6 
 373      6D8C90F6 
 373      7B7A35EB 
 374 03d3 23A7F7BC 		.ascii	"#\247\367\274\221\035b:4\355\034\240]\001\334\246\200"
 374      911D623A 
 374      34ED1CA0 
 374      5D01DCA6 
ARM GAS  C:\Users\Luggi\AppData\Local\Temp\cc5frRuK.s 			page 28


 374      80
 375 03e4 DEB2815E 		.ascii	"\336\262\201^+\036b\200\226\003\247\2731\003\034\272"
 375      2B1E6280 
 375      9603A7BB 
 375      31031CBA 
 376 03f4 A0004805 		.ascii	"\240\000H\005\035\034\240C\001tR\300\257\223Y\265\001"
 376      1D1CA043 
 376      017452C0 
 376      AF9359B5 
 376      01
 377 0405 F8390334 		.ascii	"\3709\0034:\252\012\0261\300\313\313<\340\016\007\270"
 377      3AAA0A16 
 377      31C0CBCB 
 377      3CE00E07 
 377      B8
 378 0416 A300EEB2 		.ascii	"\243\000\356\262)\272\276\327g\300\0071\005T\237\230"
 378      29BABED7 
 378      67C00731 
 378      05549F98 
 379 0426 39636180 		.ascii	"9ca\200\274B\036\340\345\000^\005\320E\001\267\367\015"
 379      BC421EE0 
 379      E5005E05 
 379      D04501B7 
 379      F70D
 380 0438 BCD2F16F 		.ascii	"\274\322\361oe\365\334w\263\327\031\371\004\347&\317"
 380      65F5DC77 
 380      B3D719F9 
 380      04E726CF 
 381 0448 D33D66DE 		.ascii	"\323=f\336\271[\345\334#;\367Pg\351\267\003\271&|\221"
 381      B95BE5DC 
 381      233BF750 
 381      67E9B703 
 381      B9267C91 
 382 045c 955631ED 		.ascii	"\225V1\355p~`\201\371M{\217\371\205\211\367\266;\272"
 382      707E6081 
 382      F94D7B8F 
 382      F98589F7 
 382      B63BBA
 383 046f CD6CE2E7 		.ascii	"\315l\342\347F\014,8\361i\365\326V\362J\356\207\011"
 383      460C2C38 
 383      F169F5D6 
 383      56F24AEE 
 383      8709
 384 0481 EAF58F7C 		.ascii	"\352\365\217|\037\222g\236<\200Z\274\236\324\001\314"
 384      1F92679E 
 384      3C805ABC 
 384      9ED401CC 
 385 0491 77D1AF9A 		.ascii	"w\321\257\232\270A\271\213A\332EFV\345\204\001\027`"
 385      B841B98B 
 385      41DA4546 
 385      56E58401 
 385      1760
 386 04a3 D56B2A94 		.ascii	"\325k*\224\275\246\356\237\232\3115\323[\362\317\352"
 386      BDA6EE9F 
 386      9AC935D3 
 386      5BF2CFEA 
 387 04b3 62B234DC 		.ascii	"b\2624\334\333su\021.\245\356\272\311c\251\276\000\024"
ARM GAS  C:\Users\Luggi\AppData\Local\Temp\cc5frRuK.s 			page 29


 387      DB737511 
 387      2EA5EEBA 
 387      C963A9BE 
 387      0014
 388 04c5 6621D50D 		.ascii	"f!\325\015\025\024\006J\010\215@\252!\177i\241re\031"
 388      1514064A 
 388      088D40AA 
 388      217F69A1 
 388      726519
 389 04d8 6F8A11FC 		.ascii	"o\212\021\374\277\024\303\320h\250\334\350=X\274O\245"
 389      BF14C3D0 
 389      68A8DCE8 
 389      3D58BC4F 
 389      A5
 390 04e9 41CEE39D 		.ascii	"A\316\343\235-\026&\345\373E\350\\e\231\263V\245\216"
 390      2D1626E5 
 390      FB45E85C 
 390      6599B356 
 390      A58E
 391 04fb D725B93A 		.ascii	"\327%\271:I\322\243Q\250\344/\177%\017\220\277\224\371"
 391      49D2A351 
 391      A8E42F7F 
 391      250F90BF 
 391      94F9
 392 050d E087DAA5 		.ascii	"\340\207\332\245\214><;k\344\225\034U)\371HV\362\021"
 392      8C3E3C3B 
 392      6BE4951C 
 392      5529F948 
 392      56F211
 393 0520 5572FAD4 		.ascii	"Ur\372\324\341'*\331\313U\277\377c\262\363\030u>S\334"
 393      E1272AD9 
 393      CB55BFFF 
 393      63B2F318 
 393      753E53DC 
 394 0534 1FCAFBBA 		.ascii	"\037\312\373\272T\276\343\262/\3714n\372\346\273\220"
 394      54BEE3B2 
 394      2FF9346E 
 394      FAE6BB90 
 395 0544 7061D9FA 		.ascii	"pa\331\372\015\341Q\221\353\267E\255\216\332\262\355"
 395      0DE15191 
 395      EBB745AD 
 395      8EDAB2ED 
 396 0554 DBA82D09 		.ascii	"\333\250-\011v\321fK\336e\377t\223\230 \332\242\355"
 396      76D1664B 
 396      DE65FF74 
 396      939820DA 
 396      A2ED
 397 0566 626C5464 		.ascii	"blTdb\262-F\334\021\021\231\030\376\305\016\225\373"
 397      62B22D46 
 397      DC111199 
 397      18FEC50E 
 397      95FB
 398 0578 AA18E143 		.ascii	"\252\030\341C\210\330 \376\024\235\034o\337\034\235"
 398      88D820FE 
 398      149D1C6F 
 398      DF1C9D
 399 0587 101B2FDA 		.ascii	"\020\033/\332\2541)qI\266\350\330X\233\230\224\024\252"
ARM GAS  C:\Users\Luggi\AppData\Local\Temp\cc5frRuK.s 			page 30


 399      AC312971 
 399      49B6E8D8 
 399      589B9894 
 399      14AA
 400 0599 8DF93C26 		.ascii	"\215\371<&\305\236\262KLZ\365\363\334\002\"E\373\367"
 400      C59EB24B 
 400      4C5AF5F3 
 400      DC022245 
 400      FBF7
 401 05ab 628C3DD1 		.ascii	"b\214=\3216g}\223\262nH\216K\260\257]1/*\302\026\227"
 401      36677D93 
 401      B26E488E 
 401      4BB0AF5D 
 401      312F2AC2 
 402 05c1 688BB3A7 		.ascii	"h\213\263\247\254\230\027\247<\371D\375dcB\364\217\361"
 402      AC9817A7 
 402      3CF944FD 
 402      646342F4 
 402      8FF1
 403 05d3 62D03CF7 		.ascii	"b\320<\367H;\224\273T\275\274!.\2118\177<'\253=\332"
 403      483B94BB 
 403      54BDBC21 
 403      2E89387F 
 403      3C27AB3D 
 404 05e8 665FAAB1 		.ascii	"f_\252\261\266\361\227\217\346\256&\356Z>\277d1!6.a"
 404      B6F1978F 
 404      E6AE26EE 
 404      5A3EBF64 
 404      3121362E 
 405 05fd 67B0FA41 		.ascii	"g\260\372Ax\274\030m\223\037\351m\342\316\265\006\370"
 405      78BC186D 
 405      931FE96D 
 405      E2CEB506 
 405      F8
 406 060e B366B591 		.ascii	"\263f\265\221\364\275f\365\377\202\253\217\213"
 406      F4BD66F5 
 406      FF82AB8F 
 406      8B
 407              		.text
 408              		.section	.gnu.lto_.symtab.bb48c39,"",%progbits
 409 0000 4144435F 		.ascii	"ADC_SAR_2_IRQ_Interrupt\000\000\000\000\000\000\000"
 409      5341525F 
 409      325F4952 
 409      515F496E 
 409      74657272 
 410 001e 00000000 		.ascii	"\000\000\000\000\000\255\000\000\000ADC_SAR_2_IRQ_S"
 410      00AD0000 
 410      00414443 
 410      5F534152 
 410      5F325F49 
 411 0036 65745665 		.ascii	"etVector\000\000\000\000\000\000\000\000\000\000\000"
 411      63746F72 
 411      00000000 
 411      00000000 
 411      000000
 412 0049 00B60000 		.ascii	"\000\266\000\000\000ADC_SAR_2_IRQ_GetVector\000\000"
 412      00414443 
ARM GAS  C:\Users\Luggi\AppData\Local\Temp\cc5frRuK.s 			page 31


 412      5F534152 
 412      5F325F49 
 412      52515F47 
 413 0067 00000000 		.ascii	"\000\000\000\000\000\000\000\000\000\000\271\000\000"
 413      00000000 
 413      0000B900 
 413      00
 414 0074 00414443 		.ascii	"\000ADC_SAR_2_IRQ_SetPriority\000\000\000\000\000\000"
 414      5F534152 
 414      5F325F49 
 414      52515F53 
 414      65745072 
 415 0094 00000000 		.ascii	"\000\000\000\000\000\000\302\000\000\000ADC_SAR_2_I"
 415      0000C200 
 415      00004144 
 415      435F5341 
 415      525F325F 
 416 00a9 52515F47 		.ascii	"RQ_GetPriority\000\000\000\000\000\000\000\000\000\000"
 416      65745072 
 416      696F7269 
 416      74790000 
 416      00000000 
 417 00c1 0000C500 		.ascii	"\000\000\305\000\000\000ADC_SAR_2_IRQ_Enable\000\000"
 417      00004144 
 417      435F5341 
 417      525F325F 
 417      4952515F 
 418 00dd 00000000 		.ascii	"\000\000\000\000\000\000\000\000\000\000\307\000\000"
 418      00000000 
 418      0000C700 
 418      00
 419 00ea 00414443 		.ascii	"\000ADC_SAR_2_IRQ_GetState\000\000\000\000\000\000\000"
 419      5F534152 
 419      5F325F49 
 419      52515F47 
 419      65745374 
 420 0108 00000000 		.ascii	"\000\000\000\000\000\311\000\000\000ADC_SAR_2_IRQ_D"
 420      00C90000 
 420      00414443 
 420      5F534152 
 420      5F325F49 
 421 0120 69736162 		.ascii	"isable\000\000\000\000\000\000\000\000\000\000\000\000"
 421      6C650000 
 421      00000000 
 421      00000000 
 421      0000
 422 0132 CB000000 		.ascii	"\313\000\000\000ADC_SAR_2_IRQ_Start\000\000\000\000"
 422      4144435F 
 422      5341525F 
 422      325F4952 
 422      515F5374 
 423 014d 00000000 		.ascii	"\000\000\000\000\000\000\000\000\315\000\000\000ADC"
 423      00000000 
 423      CD000000 
 423      414443
 424 015c 5F534152 		.ascii	"_SAR_2_IRQ_StartEx\000\000\000\000\000\000\000\000\000"
 424      5F325F49 
ARM GAS  C:\Users\Luggi\AppData\Local\Temp\cc5frRuK.s 			page 32


 424      52515F53 
 424      74617274 
 424      45780000 
 425 0177 000000CF 		.ascii	"\000\000\000\317\000\000\000ADC_SAR_2_IRQ_Stop\000\000"
 425      00000041 
 425      44435F53 
 425      41525F32 
 425      5F495251 
 426 0192 00000000 		.ascii	"\000\000\000\000\000\000\000\000\000\000\321\000\000"
 426      00000000 
 426      0000D100 
 426      00
 427 019f 00414443 		.ascii	"\000ADC_SAR_2_IRQ_SetPending\000\000\000\000\000\000"
 427      5F534152 
 427      5F325F49 
 427      52515F53 
 427      65745065 
 428 01be 00000000 		.ascii	"\000\000\000\000\000\000\323\000\000\000ADC_SAR_2_I"
 428      0000D300 
 428      00004144 
 428      435F5341 
 428      525F325F 
 429 01d3 52515F43 		.ascii	"RQ_ClearPending\000\000\000\000\000\000\000\000\000"
 429      6C656172 
 429      50656E64 
 429      696E6700 
 429      00000000 
 430 01eb 000000D5 		.ascii	"\000\000\000\325\000\000\000IntDefaultHandler\000\000"
 430      00000049 
 430      6E744465 
 430      6661756C 
 430      7448616E 
 431 0205 02000000 		.ascii	"\002\000\000\000\000\000\000\000\000\000\257\000\000"
 431      00000000 
 431      0000AF00 
 431      00
 432 0212 00       		.ascii	"\000"
 433              		.text
 434              		.section	.gnu.lto_.opts,"",%progbits
 435 0000 272D666E 		.ascii	"'-fno-trapv' '-fno-strict-overflow' '-mcpu=cortex-m"
 435      6F2D7472 
 435      61707627 
 435      20272D66 
 435      6E6F2D73 
 436 0033 33272027 		.ascii	"3' '-mthumb' '-g' '-Og' '-ffunction-sections' '-flt"
 436      2D6D7468 
 436      756D6227 
 436      20272D67 
 436      2720272D 
 437 0066 6F272027 		.ascii	"o' '-ffat-lto-objects'\000"
 437      2D666661 
 437      742D6C74 
 437      6F2D6F62 
 437      6A656374 
 438              		.text
 439              		.cfi_sections	.debug_frame
 440              		.section	.text.ADC_SAR_2_IRQ_Interrupt,"ax",%progbits
ARM GAS  C:\Users\Luggi\AppData\Local\Temp\cc5frRuK.s 			page 33


 441              		.align	2
 442              		.global	ADC_SAR_2_IRQ_Interrupt
 443              		.thumb
 444              		.thumb_func
 445              		.type	ADC_SAR_2_IRQ_Interrupt, %function
 446              	ADC_SAR_2_IRQ_Interrupt:
 447              	.LFB3:
 448              		.file 1 "Generated_Source\\PSoC5\\ADC_SAR_2_IRQ.c"
   1:Generated_Source\PSoC5/ADC_SAR_2_IRQ.c **** /*******************************************************************************
   2:Generated_Source\PSoC5/ADC_SAR_2_IRQ.c **** * File Name: ADC_SAR_2_IRQ.c  
   3:Generated_Source\PSoC5/ADC_SAR_2_IRQ.c **** * Version 1.70
   4:Generated_Source\PSoC5/ADC_SAR_2_IRQ.c **** *
   5:Generated_Source\PSoC5/ADC_SAR_2_IRQ.c **** *  Description:
   6:Generated_Source\PSoC5/ADC_SAR_2_IRQ.c **** *   API for controlling the state of an interrupt.
   7:Generated_Source\PSoC5/ADC_SAR_2_IRQ.c **** *
   8:Generated_Source\PSoC5/ADC_SAR_2_IRQ.c **** *
   9:Generated_Source\PSoC5/ADC_SAR_2_IRQ.c **** *  Note:
  10:Generated_Source\PSoC5/ADC_SAR_2_IRQ.c **** *
  11:Generated_Source\PSoC5/ADC_SAR_2_IRQ.c **** ********************************************************************************
  12:Generated_Source\PSoC5/ADC_SAR_2_IRQ.c **** * Copyright 2008-2015, Cypress Semiconductor Corporation.  All rights reserved.
  13:Generated_Source\PSoC5/ADC_SAR_2_IRQ.c **** * You may use this file only in accordance with the license, terms, conditions, 
  14:Generated_Source\PSoC5/ADC_SAR_2_IRQ.c **** * disclaimers, and limitations in the end user license agreement accompanying 
  15:Generated_Source\PSoC5/ADC_SAR_2_IRQ.c **** * the software package with which this file was provided.
  16:Generated_Source\PSoC5/ADC_SAR_2_IRQ.c **** *******************************************************************************/
  17:Generated_Source\PSoC5/ADC_SAR_2_IRQ.c **** 
  18:Generated_Source\PSoC5/ADC_SAR_2_IRQ.c **** 
  19:Generated_Source\PSoC5/ADC_SAR_2_IRQ.c **** #include <cydevice_trm.h>
  20:Generated_Source\PSoC5/ADC_SAR_2_IRQ.c **** #include <CyLib.h>
  21:Generated_Source\PSoC5/ADC_SAR_2_IRQ.c **** #include <ADC_SAR_2_IRQ.h>
  22:Generated_Source\PSoC5/ADC_SAR_2_IRQ.c **** 
  23:Generated_Source\PSoC5/ADC_SAR_2_IRQ.c **** 
  24:Generated_Source\PSoC5/ADC_SAR_2_IRQ.c **** #if !defined(ADC_SAR_2_IRQ__REMOVED) /* Check for removal by optimization */
  25:Generated_Source\PSoC5/ADC_SAR_2_IRQ.c **** 
  26:Generated_Source\PSoC5/ADC_SAR_2_IRQ.c **** /*******************************************************************************
  27:Generated_Source\PSoC5/ADC_SAR_2_IRQ.c **** *  Place your includes, defines and code here 
  28:Generated_Source\PSoC5/ADC_SAR_2_IRQ.c **** ********************************************************************************/
  29:Generated_Source\PSoC5/ADC_SAR_2_IRQ.c **** /* `#START ADC_SAR_2_IRQ_intc` */
  30:Generated_Source\PSoC5/ADC_SAR_2_IRQ.c **** 
  31:Generated_Source\PSoC5/ADC_SAR_2_IRQ.c **** /* `#END` */
  32:Generated_Source\PSoC5/ADC_SAR_2_IRQ.c **** 
  33:Generated_Source\PSoC5/ADC_SAR_2_IRQ.c **** #ifndef CYINT_IRQ_BASE
  34:Generated_Source\PSoC5/ADC_SAR_2_IRQ.c **** #define CYINT_IRQ_BASE      16
  35:Generated_Source\PSoC5/ADC_SAR_2_IRQ.c **** #endif /* CYINT_IRQ_BASE */
  36:Generated_Source\PSoC5/ADC_SAR_2_IRQ.c **** #ifndef CYINT_VECT_TABLE
  37:Generated_Source\PSoC5/ADC_SAR_2_IRQ.c **** #define CYINT_VECT_TABLE    ((cyisraddress **) CYREG_NVIC_VECT_OFFSET)
  38:Generated_Source\PSoC5/ADC_SAR_2_IRQ.c **** #endif /* CYINT_VECT_TABLE */
  39:Generated_Source\PSoC5/ADC_SAR_2_IRQ.c **** 
  40:Generated_Source\PSoC5/ADC_SAR_2_IRQ.c **** /* Declared in startup, used to set unused interrupts to. */
  41:Generated_Source\PSoC5/ADC_SAR_2_IRQ.c **** CY_ISR_PROTO(IntDefaultHandler);
  42:Generated_Source\PSoC5/ADC_SAR_2_IRQ.c **** 
  43:Generated_Source\PSoC5/ADC_SAR_2_IRQ.c **** 
  44:Generated_Source\PSoC5/ADC_SAR_2_IRQ.c **** /*******************************************************************************
  45:Generated_Source\PSoC5/ADC_SAR_2_IRQ.c **** * Function Name: ADC_SAR_2_IRQ_Start
  46:Generated_Source\PSoC5/ADC_SAR_2_IRQ.c **** ********************************************************************************
  47:Generated_Source\PSoC5/ADC_SAR_2_IRQ.c **** *
  48:Generated_Source\PSoC5/ADC_SAR_2_IRQ.c **** * Summary:
  49:Generated_Source\PSoC5/ADC_SAR_2_IRQ.c **** *  Set up the interrupt and enable it. This function disables the interrupt, 
ARM GAS  C:\Users\Luggi\AppData\Local\Temp\cc5frRuK.s 			page 34


  50:Generated_Source\PSoC5/ADC_SAR_2_IRQ.c **** *  sets the default interrupt vector, sets the priority from the value in the
  51:Generated_Source\PSoC5/ADC_SAR_2_IRQ.c **** *  Design Wide Resources Interrupt Editor, then enables the interrupt to the 
  52:Generated_Source\PSoC5/ADC_SAR_2_IRQ.c **** *  interrupt controller.
  53:Generated_Source\PSoC5/ADC_SAR_2_IRQ.c **** *
  54:Generated_Source\PSoC5/ADC_SAR_2_IRQ.c **** * Parameters:  
  55:Generated_Source\PSoC5/ADC_SAR_2_IRQ.c **** *   None
  56:Generated_Source\PSoC5/ADC_SAR_2_IRQ.c **** *
  57:Generated_Source\PSoC5/ADC_SAR_2_IRQ.c **** * Return:
  58:Generated_Source\PSoC5/ADC_SAR_2_IRQ.c **** *   None
  59:Generated_Source\PSoC5/ADC_SAR_2_IRQ.c **** *
  60:Generated_Source\PSoC5/ADC_SAR_2_IRQ.c **** *******************************************************************************/
  61:Generated_Source\PSoC5/ADC_SAR_2_IRQ.c **** void ADC_SAR_2_IRQ_Start(void)
  62:Generated_Source\PSoC5/ADC_SAR_2_IRQ.c **** {
  63:Generated_Source\PSoC5/ADC_SAR_2_IRQ.c ****     /* For all we know the interrupt is active. */
  64:Generated_Source\PSoC5/ADC_SAR_2_IRQ.c ****     ADC_SAR_2_IRQ_Disable();
  65:Generated_Source\PSoC5/ADC_SAR_2_IRQ.c **** 
  66:Generated_Source\PSoC5/ADC_SAR_2_IRQ.c ****     /* Set the ISR to point to the ADC_SAR_2_IRQ Interrupt. */
  67:Generated_Source\PSoC5/ADC_SAR_2_IRQ.c ****     ADC_SAR_2_IRQ_SetVector(&ADC_SAR_2_IRQ_Interrupt);
  68:Generated_Source\PSoC5/ADC_SAR_2_IRQ.c **** 
  69:Generated_Source\PSoC5/ADC_SAR_2_IRQ.c ****     /* Set the priority. */
  70:Generated_Source\PSoC5/ADC_SAR_2_IRQ.c ****     ADC_SAR_2_IRQ_SetPriority((uint8)ADC_SAR_2_IRQ_INTC_PRIOR_NUMBER);
  71:Generated_Source\PSoC5/ADC_SAR_2_IRQ.c **** 
  72:Generated_Source\PSoC5/ADC_SAR_2_IRQ.c ****     /* Enable it. */
  73:Generated_Source\PSoC5/ADC_SAR_2_IRQ.c ****     ADC_SAR_2_IRQ_Enable();
  74:Generated_Source\PSoC5/ADC_SAR_2_IRQ.c **** }
  75:Generated_Source\PSoC5/ADC_SAR_2_IRQ.c **** 
  76:Generated_Source\PSoC5/ADC_SAR_2_IRQ.c **** 
  77:Generated_Source\PSoC5/ADC_SAR_2_IRQ.c **** /*******************************************************************************
  78:Generated_Source\PSoC5/ADC_SAR_2_IRQ.c **** * Function Name: ADC_SAR_2_IRQ_StartEx
  79:Generated_Source\PSoC5/ADC_SAR_2_IRQ.c **** ********************************************************************************
  80:Generated_Source\PSoC5/ADC_SAR_2_IRQ.c **** *
  81:Generated_Source\PSoC5/ADC_SAR_2_IRQ.c **** * Summary:
  82:Generated_Source\PSoC5/ADC_SAR_2_IRQ.c **** *  Sets up the interrupt and enables it. This function disables the interrupt,
  83:Generated_Source\PSoC5/ADC_SAR_2_IRQ.c **** *  sets the interrupt vector based on the address passed in, sets the priority 
  84:Generated_Source\PSoC5/ADC_SAR_2_IRQ.c **** *  from the value in the Design Wide Resources Interrupt Editor, then enables 
  85:Generated_Source\PSoC5/ADC_SAR_2_IRQ.c **** *  the interrupt to the interrupt controller.
  86:Generated_Source\PSoC5/ADC_SAR_2_IRQ.c **** *  
  87:Generated_Source\PSoC5/ADC_SAR_2_IRQ.c **** *  When defining ISR functions, the CY_ISR and CY_ISR_PROTO macros should be 
  88:Generated_Source\PSoC5/ADC_SAR_2_IRQ.c **** *  used to provide consistent definition across compilers:
  89:Generated_Source\PSoC5/ADC_SAR_2_IRQ.c **** *  
  90:Generated_Source\PSoC5/ADC_SAR_2_IRQ.c **** *  Function definition example:
  91:Generated_Source\PSoC5/ADC_SAR_2_IRQ.c **** *   CY_ISR(MyISR)
  92:Generated_Source\PSoC5/ADC_SAR_2_IRQ.c **** *   {
  93:Generated_Source\PSoC5/ADC_SAR_2_IRQ.c **** *   }
  94:Generated_Source\PSoC5/ADC_SAR_2_IRQ.c **** *   Function prototype example:
  95:Generated_Source\PSoC5/ADC_SAR_2_IRQ.c **** *   CY_ISR_PROTO(MyISR);
  96:Generated_Source\PSoC5/ADC_SAR_2_IRQ.c **** *
  97:Generated_Source\PSoC5/ADC_SAR_2_IRQ.c **** * Parameters:  
  98:Generated_Source\PSoC5/ADC_SAR_2_IRQ.c **** *   address: Address of the ISR to set in the interrupt vector table.
  99:Generated_Source\PSoC5/ADC_SAR_2_IRQ.c **** *
 100:Generated_Source\PSoC5/ADC_SAR_2_IRQ.c **** * Return:
 101:Generated_Source\PSoC5/ADC_SAR_2_IRQ.c **** *   None
 102:Generated_Source\PSoC5/ADC_SAR_2_IRQ.c **** *
 103:Generated_Source\PSoC5/ADC_SAR_2_IRQ.c **** *******************************************************************************/
 104:Generated_Source\PSoC5/ADC_SAR_2_IRQ.c **** void ADC_SAR_2_IRQ_StartEx(cyisraddress address)
 105:Generated_Source\PSoC5/ADC_SAR_2_IRQ.c **** {
 106:Generated_Source\PSoC5/ADC_SAR_2_IRQ.c ****     /* For all we know the interrupt is active. */
ARM GAS  C:\Users\Luggi\AppData\Local\Temp\cc5frRuK.s 			page 35


 107:Generated_Source\PSoC5/ADC_SAR_2_IRQ.c ****     ADC_SAR_2_IRQ_Disable();
 108:Generated_Source\PSoC5/ADC_SAR_2_IRQ.c **** 
 109:Generated_Source\PSoC5/ADC_SAR_2_IRQ.c ****     /* Set the ISR to point to the ADC_SAR_2_IRQ Interrupt. */
 110:Generated_Source\PSoC5/ADC_SAR_2_IRQ.c ****     ADC_SAR_2_IRQ_SetVector(address);
 111:Generated_Source\PSoC5/ADC_SAR_2_IRQ.c **** 
 112:Generated_Source\PSoC5/ADC_SAR_2_IRQ.c ****     /* Set the priority. */
 113:Generated_Source\PSoC5/ADC_SAR_2_IRQ.c ****     ADC_SAR_2_IRQ_SetPriority((uint8)ADC_SAR_2_IRQ_INTC_PRIOR_NUMBER);
 114:Generated_Source\PSoC5/ADC_SAR_2_IRQ.c **** 
 115:Generated_Source\PSoC5/ADC_SAR_2_IRQ.c ****     /* Enable it. */
 116:Generated_Source\PSoC5/ADC_SAR_2_IRQ.c ****     ADC_SAR_2_IRQ_Enable();
 117:Generated_Source\PSoC5/ADC_SAR_2_IRQ.c **** }
 118:Generated_Source\PSoC5/ADC_SAR_2_IRQ.c **** 
 119:Generated_Source\PSoC5/ADC_SAR_2_IRQ.c **** 
 120:Generated_Source\PSoC5/ADC_SAR_2_IRQ.c **** /*******************************************************************************
 121:Generated_Source\PSoC5/ADC_SAR_2_IRQ.c **** * Function Name: ADC_SAR_2_IRQ_Stop
 122:Generated_Source\PSoC5/ADC_SAR_2_IRQ.c **** ********************************************************************************
 123:Generated_Source\PSoC5/ADC_SAR_2_IRQ.c **** *
 124:Generated_Source\PSoC5/ADC_SAR_2_IRQ.c **** * Summary:
 125:Generated_Source\PSoC5/ADC_SAR_2_IRQ.c **** *   Disables and removes the interrupt.
 126:Generated_Source\PSoC5/ADC_SAR_2_IRQ.c **** *
 127:Generated_Source\PSoC5/ADC_SAR_2_IRQ.c **** * Parameters:  
 128:Generated_Source\PSoC5/ADC_SAR_2_IRQ.c **** *   None
 129:Generated_Source\PSoC5/ADC_SAR_2_IRQ.c **** *
 130:Generated_Source\PSoC5/ADC_SAR_2_IRQ.c **** * Return:
 131:Generated_Source\PSoC5/ADC_SAR_2_IRQ.c **** *   None
 132:Generated_Source\PSoC5/ADC_SAR_2_IRQ.c **** *
 133:Generated_Source\PSoC5/ADC_SAR_2_IRQ.c **** *******************************************************************************/
 134:Generated_Source\PSoC5/ADC_SAR_2_IRQ.c **** void ADC_SAR_2_IRQ_Stop(void)
 135:Generated_Source\PSoC5/ADC_SAR_2_IRQ.c **** {
 136:Generated_Source\PSoC5/ADC_SAR_2_IRQ.c ****     /* Disable this interrupt. */
 137:Generated_Source\PSoC5/ADC_SAR_2_IRQ.c ****     ADC_SAR_2_IRQ_Disable();
 138:Generated_Source\PSoC5/ADC_SAR_2_IRQ.c **** 
 139:Generated_Source\PSoC5/ADC_SAR_2_IRQ.c ****     /* Set the ISR to point to the passive one. */
 140:Generated_Source\PSoC5/ADC_SAR_2_IRQ.c ****     ADC_SAR_2_IRQ_SetVector(&IntDefaultHandler);
 141:Generated_Source\PSoC5/ADC_SAR_2_IRQ.c **** }
 142:Generated_Source\PSoC5/ADC_SAR_2_IRQ.c **** 
 143:Generated_Source\PSoC5/ADC_SAR_2_IRQ.c **** 
 144:Generated_Source\PSoC5/ADC_SAR_2_IRQ.c **** /*******************************************************************************
 145:Generated_Source\PSoC5/ADC_SAR_2_IRQ.c **** * Function Name: ADC_SAR_2_IRQ_Interrupt
 146:Generated_Source\PSoC5/ADC_SAR_2_IRQ.c **** ********************************************************************************
 147:Generated_Source\PSoC5/ADC_SAR_2_IRQ.c **** *
 148:Generated_Source\PSoC5/ADC_SAR_2_IRQ.c **** * Summary:
 149:Generated_Source\PSoC5/ADC_SAR_2_IRQ.c **** *   The default Interrupt Service Routine for ADC_SAR_2_IRQ.
 150:Generated_Source\PSoC5/ADC_SAR_2_IRQ.c **** *
 151:Generated_Source\PSoC5/ADC_SAR_2_IRQ.c **** *   Add custom code between the coments to keep the next version of this file
 152:Generated_Source\PSoC5/ADC_SAR_2_IRQ.c **** *   from over writting your code.
 153:Generated_Source\PSoC5/ADC_SAR_2_IRQ.c **** *
 154:Generated_Source\PSoC5/ADC_SAR_2_IRQ.c **** * Parameters:  
 155:Generated_Source\PSoC5/ADC_SAR_2_IRQ.c **** *
 156:Generated_Source\PSoC5/ADC_SAR_2_IRQ.c **** * Return:
 157:Generated_Source\PSoC5/ADC_SAR_2_IRQ.c **** *   None
 158:Generated_Source\PSoC5/ADC_SAR_2_IRQ.c **** *
 159:Generated_Source\PSoC5/ADC_SAR_2_IRQ.c **** *******************************************************************************/
 160:Generated_Source\PSoC5/ADC_SAR_2_IRQ.c **** CY_ISR(ADC_SAR_2_IRQ_Interrupt)
 161:Generated_Source\PSoC5/ADC_SAR_2_IRQ.c **** {
 449              		.loc 1 161 0
 450              		.cfi_startproc
ARM GAS  C:\Users\Luggi\AppData\Local\Temp\cc5frRuK.s 			page 36


 451              		@ args = 0, pretend = 0, frame = 0
 452              		@ frame_needed = 0, uses_anonymous_args = 0
 453              		@ link register save eliminated.
 454 0000 7047     		bx	lr
 455              		.cfi_endproc
 456              	.LFE3:
 457              		.size	ADC_SAR_2_IRQ_Interrupt, .-ADC_SAR_2_IRQ_Interrupt
 458 0002 00BF     		.section	.text.ADC_SAR_2_IRQ_SetVector,"ax",%progbits
 459              		.align	2
 460              		.global	ADC_SAR_2_IRQ_SetVector
 461              		.thumb
 462              		.thumb_func
 463              		.type	ADC_SAR_2_IRQ_SetVector, %function
 464              	ADC_SAR_2_IRQ_SetVector:
 465              	.LFB4:
 162:Generated_Source\PSoC5/ADC_SAR_2_IRQ.c ****     #ifdef ADC_SAR_2_IRQ_INTERRUPT_INTERRUPT_CALLBACK
 163:Generated_Source\PSoC5/ADC_SAR_2_IRQ.c ****         ADC_SAR_2_IRQ_Interrupt_InterruptCallback();
 164:Generated_Source\PSoC5/ADC_SAR_2_IRQ.c ****     #endif /* ADC_SAR_2_IRQ_INTERRUPT_INTERRUPT_CALLBACK */ 
 165:Generated_Source\PSoC5/ADC_SAR_2_IRQ.c **** 
 166:Generated_Source\PSoC5/ADC_SAR_2_IRQ.c ****     /*  Place your Interrupt code here. */
 167:Generated_Source\PSoC5/ADC_SAR_2_IRQ.c ****     /* `#START ADC_SAR_2_IRQ_Interrupt` */
 168:Generated_Source\PSoC5/ADC_SAR_2_IRQ.c **** 
 169:Generated_Source\PSoC5/ADC_SAR_2_IRQ.c ****     /* `#END` */
 170:Generated_Source\PSoC5/ADC_SAR_2_IRQ.c **** }
 171:Generated_Source\PSoC5/ADC_SAR_2_IRQ.c **** 
 172:Generated_Source\PSoC5/ADC_SAR_2_IRQ.c **** 
 173:Generated_Source\PSoC5/ADC_SAR_2_IRQ.c **** /*******************************************************************************
 174:Generated_Source\PSoC5/ADC_SAR_2_IRQ.c **** * Function Name: ADC_SAR_2_IRQ_SetVector
 175:Generated_Source\PSoC5/ADC_SAR_2_IRQ.c **** ********************************************************************************
 176:Generated_Source\PSoC5/ADC_SAR_2_IRQ.c **** *
 177:Generated_Source\PSoC5/ADC_SAR_2_IRQ.c **** * Summary:
 178:Generated_Source\PSoC5/ADC_SAR_2_IRQ.c **** *   Change the ISR vector for the Interrupt. Note calling ADC_SAR_2_IRQ_Start
 179:Generated_Source\PSoC5/ADC_SAR_2_IRQ.c **** *   will override any effect this method would have had. To set the vector 
 180:Generated_Source\PSoC5/ADC_SAR_2_IRQ.c **** *   before the component has been started use ADC_SAR_2_IRQ_StartEx instead.
 181:Generated_Source\PSoC5/ADC_SAR_2_IRQ.c **** * 
 182:Generated_Source\PSoC5/ADC_SAR_2_IRQ.c **** *   When defining ISR functions, the CY_ISR and CY_ISR_PROTO macros should be 
 183:Generated_Source\PSoC5/ADC_SAR_2_IRQ.c **** *   used to provide consistent definition across compilers:
 184:Generated_Source\PSoC5/ADC_SAR_2_IRQ.c **** *
 185:Generated_Source\PSoC5/ADC_SAR_2_IRQ.c **** *   Function definition example:
 186:Generated_Source\PSoC5/ADC_SAR_2_IRQ.c **** *   CY_ISR(MyISR)
 187:Generated_Source\PSoC5/ADC_SAR_2_IRQ.c **** *   {
 188:Generated_Source\PSoC5/ADC_SAR_2_IRQ.c **** *   }
 189:Generated_Source\PSoC5/ADC_SAR_2_IRQ.c **** *
 190:Generated_Source\PSoC5/ADC_SAR_2_IRQ.c **** *   Function prototype example:
 191:Generated_Source\PSoC5/ADC_SAR_2_IRQ.c **** *     CY_ISR_PROTO(MyISR);
 192:Generated_Source\PSoC5/ADC_SAR_2_IRQ.c **** *
 193:Generated_Source\PSoC5/ADC_SAR_2_IRQ.c **** * Parameters:
 194:Generated_Source\PSoC5/ADC_SAR_2_IRQ.c **** *   address: Address of the ISR to set in the interrupt vector table.
 195:Generated_Source\PSoC5/ADC_SAR_2_IRQ.c **** *
 196:Generated_Source\PSoC5/ADC_SAR_2_IRQ.c **** * Return:
 197:Generated_Source\PSoC5/ADC_SAR_2_IRQ.c **** *   None
 198:Generated_Source\PSoC5/ADC_SAR_2_IRQ.c **** *
 199:Generated_Source\PSoC5/ADC_SAR_2_IRQ.c **** *******************************************************************************/
 200:Generated_Source\PSoC5/ADC_SAR_2_IRQ.c **** void ADC_SAR_2_IRQ_SetVector(cyisraddress address)
 201:Generated_Source\PSoC5/ADC_SAR_2_IRQ.c **** {
 466              		.loc 1 201 0
 467              		.cfi_startproc
ARM GAS  C:\Users\Luggi\AppData\Local\Temp\cc5frRuK.s 			page 37


 468              		@ args = 0, pretend = 0, frame = 0
 469              		@ frame_needed = 0, uses_anonymous_args = 0
 470              		@ link register save eliminated.
 471              	.LVL0:
 202:Generated_Source\PSoC5/ADC_SAR_2_IRQ.c ****     cyisraddress * ramVectorTable;
 203:Generated_Source\PSoC5/ADC_SAR_2_IRQ.c **** 
 204:Generated_Source\PSoC5/ADC_SAR_2_IRQ.c ****     ramVectorTable = (cyisraddress *) *CYINT_VECT_TABLE;
 472              		.loc 1 204 0
 473 0000 014B     		ldr	r3, .L3
 474 0002 1B68     		ldr	r3, [r3]
 475              	.LVL1:
 205:Generated_Source\PSoC5/ADC_SAR_2_IRQ.c **** 
 206:Generated_Source\PSoC5/ADC_SAR_2_IRQ.c ****     ramVectorTable[CYINT_IRQ_BASE + (uint32)ADC_SAR_2_IRQ__INTC_NUMBER] = address;
 476              		.loc 1 206 0
 477 0004 9864     		str	r0, [r3, #72]
 478 0006 7047     		bx	lr
 479              	.L4:
 480              		.align	2
 481              	.L3:
 482 0008 08ED00E0 		.word	-536810232
 483              		.cfi_endproc
 484              	.LFE4:
 485              		.size	ADC_SAR_2_IRQ_SetVector, .-ADC_SAR_2_IRQ_SetVector
 486              		.section	.text.ADC_SAR_2_IRQ_GetVector,"ax",%progbits
 487              		.align	2
 488              		.global	ADC_SAR_2_IRQ_GetVector
 489              		.thumb
 490              		.thumb_func
 491              		.type	ADC_SAR_2_IRQ_GetVector, %function
 492              	ADC_SAR_2_IRQ_GetVector:
 493              	.LFB5:
 207:Generated_Source\PSoC5/ADC_SAR_2_IRQ.c **** }
 208:Generated_Source\PSoC5/ADC_SAR_2_IRQ.c **** 
 209:Generated_Source\PSoC5/ADC_SAR_2_IRQ.c **** 
 210:Generated_Source\PSoC5/ADC_SAR_2_IRQ.c **** /*******************************************************************************
 211:Generated_Source\PSoC5/ADC_SAR_2_IRQ.c **** * Function Name: ADC_SAR_2_IRQ_GetVector
 212:Generated_Source\PSoC5/ADC_SAR_2_IRQ.c **** ********************************************************************************
 213:Generated_Source\PSoC5/ADC_SAR_2_IRQ.c **** *
 214:Generated_Source\PSoC5/ADC_SAR_2_IRQ.c **** * Summary:
 215:Generated_Source\PSoC5/ADC_SAR_2_IRQ.c **** *   Gets the "address" of the current ISR vector for the Interrupt.
 216:Generated_Source\PSoC5/ADC_SAR_2_IRQ.c **** *
 217:Generated_Source\PSoC5/ADC_SAR_2_IRQ.c **** * Parameters:
 218:Generated_Source\PSoC5/ADC_SAR_2_IRQ.c **** *   None
 219:Generated_Source\PSoC5/ADC_SAR_2_IRQ.c **** *
 220:Generated_Source\PSoC5/ADC_SAR_2_IRQ.c **** * Return:
 221:Generated_Source\PSoC5/ADC_SAR_2_IRQ.c **** *   Address of the ISR in the interrupt vector table.
 222:Generated_Source\PSoC5/ADC_SAR_2_IRQ.c **** *
 223:Generated_Source\PSoC5/ADC_SAR_2_IRQ.c **** *******************************************************************************/
 224:Generated_Source\PSoC5/ADC_SAR_2_IRQ.c **** cyisraddress ADC_SAR_2_IRQ_GetVector(void)
 225:Generated_Source\PSoC5/ADC_SAR_2_IRQ.c **** {
 494              		.loc 1 225 0
 495              		.cfi_startproc
 496              		@ args = 0, pretend = 0, frame = 0
 497              		@ frame_needed = 0, uses_anonymous_args = 0
 498              		@ link register save eliminated.
 226:Generated_Source\PSoC5/ADC_SAR_2_IRQ.c ****     cyisraddress * ramVectorTable;
 227:Generated_Source\PSoC5/ADC_SAR_2_IRQ.c **** 
ARM GAS  C:\Users\Luggi\AppData\Local\Temp\cc5frRuK.s 			page 38


 228:Generated_Source\PSoC5/ADC_SAR_2_IRQ.c ****     ramVectorTable = (cyisraddress *) *CYINT_VECT_TABLE;
 499              		.loc 1 228 0
 500 0000 014B     		ldr	r3, .L6
 501 0002 1B68     		ldr	r3, [r3]
 502              	.LVL2:
 229:Generated_Source\PSoC5/ADC_SAR_2_IRQ.c **** 
 230:Generated_Source\PSoC5/ADC_SAR_2_IRQ.c ****     return ramVectorTable[CYINT_IRQ_BASE + (uint32)ADC_SAR_2_IRQ__INTC_NUMBER];
 231:Generated_Source\PSoC5/ADC_SAR_2_IRQ.c **** }
 503              		.loc 1 231 0
 504 0004 986C     		ldr	r0, [r3, #72]
 505 0006 7047     		bx	lr
 506              	.L7:
 507              		.align	2
 508              	.L6:
 509 0008 08ED00E0 		.word	-536810232
 510              		.cfi_endproc
 511              	.LFE5:
 512              		.size	ADC_SAR_2_IRQ_GetVector, .-ADC_SAR_2_IRQ_GetVector
 513              		.section	.text.ADC_SAR_2_IRQ_SetPriority,"ax",%progbits
 514              		.align	2
 515              		.global	ADC_SAR_2_IRQ_SetPriority
 516              		.thumb
 517              		.thumb_func
 518              		.type	ADC_SAR_2_IRQ_SetPriority, %function
 519              	ADC_SAR_2_IRQ_SetPriority:
 520              	.LFB6:
 232:Generated_Source\PSoC5/ADC_SAR_2_IRQ.c **** 
 233:Generated_Source\PSoC5/ADC_SAR_2_IRQ.c **** 
 234:Generated_Source\PSoC5/ADC_SAR_2_IRQ.c **** /*******************************************************************************
 235:Generated_Source\PSoC5/ADC_SAR_2_IRQ.c **** * Function Name: ADC_SAR_2_IRQ_SetPriority
 236:Generated_Source\PSoC5/ADC_SAR_2_IRQ.c **** ********************************************************************************
 237:Generated_Source\PSoC5/ADC_SAR_2_IRQ.c **** *
 238:Generated_Source\PSoC5/ADC_SAR_2_IRQ.c **** * Summary:
 239:Generated_Source\PSoC5/ADC_SAR_2_IRQ.c **** *   Sets the Priority of the Interrupt. 
 240:Generated_Source\PSoC5/ADC_SAR_2_IRQ.c **** *
 241:Generated_Source\PSoC5/ADC_SAR_2_IRQ.c **** *   Note calling ADC_SAR_2_IRQ_Start or ADC_SAR_2_IRQ_StartEx will 
 242:Generated_Source\PSoC5/ADC_SAR_2_IRQ.c **** *   override any effect this API would have had. This API should only be called
 243:Generated_Source\PSoC5/ADC_SAR_2_IRQ.c **** *   after ADC_SAR_2_IRQ_Start or ADC_SAR_2_IRQ_StartEx has been called. 
 244:Generated_Source\PSoC5/ADC_SAR_2_IRQ.c **** *   To set the initial priority for the component, use the Design-Wide Resources
 245:Generated_Source\PSoC5/ADC_SAR_2_IRQ.c **** *   Interrupt Editor.
 246:Generated_Source\PSoC5/ADC_SAR_2_IRQ.c **** *
 247:Generated_Source\PSoC5/ADC_SAR_2_IRQ.c **** *   Note This API has no effect on Non-maskable interrupt NMI).
 248:Generated_Source\PSoC5/ADC_SAR_2_IRQ.c **** *
 249:Generated_Source\PSoC5/ADC_SAR_2_IRQ.c **** * Parameters:
 250:Generated_Source\PSoC5/ADC_SAR_2_IRQ.c **** *   priority: Priority of the interrupt, 0 being the highest priority
 251:Generated_Source\PSoC5/ADC_SAR_2_IRQ.c **** *             PSoC 3 and PSoC 5LP: Priority is from 0 to 7.
 252:Generated_Source\PSoC5/ADC_SAR_2_IRQ.c **** *             PSoC 4: Priority is from 0 to 3.
 253:Generated_Source\PSoC5/ADC_SAR_2_IRQ.c **** *
 254:Generated_Source\PSoC5/ADC_SAR_2_IRQ.c **** * Return:
 255:Generated_Source\PSoC5/ADC_SAR_2_IRQ.c **** *   None
 256:Generated_Source\PSoC5/ADC_SAR_2_IRQ.c **** *
 257:Generated_Source\PSoC5/ADC_SAR_2_IRQ.c **** *******************************************************************************/
 258:Generated_Source\PSoC5/ADC_SAR_2_IRQ.c **** void ADC_SAR_2_IRQ_SetPriority(uint8 priority)
 259:Generated_Source\PSoC5/ADC_SAR_2_IRQ.c **** {
 521              		.loc 1 259 0
 522              		.cfi_startproc
 523              		@ args = 0, pretend = 0, frame = 0
ARM GAS  C:\Users\Luggi\AppData\Local\Temp\cc5frRuK.s 			page 39


 524              		@ frame_needed = 0, uses_anonymous_args = 0
 525              		@ link register save eliminated.
 526              	.LVL3:
 260:Generated_Source\PSoC5/ADC_SAR_2_IRQ.c ****     *ADC_SAR_2_IRQ_INTC_PRIOR = priority << 5;
 527              		.loc 1 260 0
 528 0000 4001     		lsls	r0, r0, #5
 529              	.LVL4:
 530 0002 C0B2     		uxtb	r0, r0
 531 0004 014B     		ldr	r3, .L9
 532 0006 1870     		strb	r0, [r3]
 533 0008 7047     		bx	lr
 534              	.L10:
 535 000a 00BF     		.align	2
 536              	.L9:
 537 000c 02E400E0 		.word	-536812542
 538              		.cfi_endproc
 539              	.LFE6:
 540              		.size	ADC_SAR_2_IRQ_SetPriority, .-ADC_SAR_2_IRQ_SetPriority
 541              		.section	.text.ADC_SAR_2_IRQ_GetPriority,"ax",%progbits
 542              		.align	2
 543              		.global	ADC_SAR_2_IRQ_GetPriority
 544              		.thumb
 545              		.thumb_func
 546              		.type	ADC_SAR_2_IRQ_GetPriority, %function
 547              	ADC_SAR_2_IRQ_GetPriority:
 548              	.LFB7:
 261:Generated_Source\PSoC5/ADC_SAR_2_IRQ.c **** }
 262:Generated_Source\PSoC5/ADC_SAR_2_IRQ.c **** 
 263:Generated_Source\PSoC5/ADC_SAR_2_IRQ.c **** 
 264:Generated_Source\PSoC5/ADC_SAR_2_IRQ.c **** /*******************************************************************************
 265:Generated_Source\PSoC5/ADC_SAR_2_IRQ.c **** * Function Name: ADC_SAR_2_IRQ_GetPriority
 266:Generated_Source\PSoC5/ADC_SAR_2_IRQ.c **** ********************************************************************************
 267:Generated_Source\PSoC5/ADC_SAR_2_IRQ.c **** *
 268:Generated_Source\PSoC5/ADC_SAR_2_IRQ.c **** * Summary:
 269:Generated_Source\PSoC5/ADC_SAR_2_IRQ.c **** *   Gets the Priority of the Interrupt.
 270:Generated_Source\PSoC5/ADC_SAR_2_IRQ.c **** *
 271:Generated_Source\PSoC5/ADC_SAR_2_IRQ.c **** * Parameters:
 272:Generated_Source\PSoC5/ADC_SAR_2_IRQ.c **** *   None
 273:Generated_Source\PSoC5/ADC_SAR_2_IRQ.c **** *
 274:Generated_Source\PSoC5/ADC_SAR_2_IRQ.c **** * Return:
 275:Generated_Source\PSoC5/ADC_SAR_2_IRQ.c **** *   Priority of the interrupt, 0 being the highest priority
 276:Generated_Source\PSoC5/ADC_SAR_2_IRQ.c **** *    PSoC 3 and PSoC 5LP: Priority is from 0 to 7.
 277:Generated_Source\PSoC5/ADC_SAR_2_IRQ.c **** *    PSoC 4: Priority is from 0 to 3.
 278:Generated_Source\PSoC5/ADC_SAR_2_IRQ.c **** *
 279:Generated_Source\PSoC5/ADC_SAR_2_IRQ.c **** *******************************************************************************/
 280:Generated_Source\PSoC5/ADC_SAR_2_IRQ.c **** uint8 ADC_SAR_2_IRQ_GetPriority(void)
 281:Generated_Source\PSoC5/ADC_SAR_2_IRQ.c **** {
 549              		.loc 1 281 0
 550              		.cfi_startproc
 551              		@ args = 0, pretend = 0, frame = 0
 552              		@ frame_needed = 0, uses_anonymous_args = 0
 553              		@ link register save eliminated.
 282:Generated_Source\PSoC5/ADC_SAR_2_IRQ.c ****     uint8 priority;
 283:Generated_Source\PSoC5/ADC_SAR_2_IRQ.c **** 
 284:Generated_Source\PSoC5/ADC_SAR_2_IRQ.c **** 
 285:Generated_Source\PSoC5/ADC_SAR_2_IRQ.c ****     priority = *ADC_SAR_2_IRQ_INTC_PRIOR >> 5;
 554              		.loc 1 285 0
ARM GAS  C:\Users\Luggi\AppData\Local\Temp\cc5frRuK.s 			page 40


 555 0000 014B     		ldr	r3, .L12
 556 0002 1878     		ldrb	r0, [r3]	@ zero_extendqisi2
 557              	.LVL5:
 286:Generated_Source\PSoC5/ADC_SAR_2_IRQ.c **** 
 287:Generated_Source\PSoC5/ADC_SAR_2_IRQ.c ****     return priority;
 288:Generated_Source\PSoC5/ADC_SAR_2_IRQ.c **** }
 558              		.loc 1 288 0
 559 0004 4009     		lsrs	r0, r0, #5
 560              	.LVL6:
 561 0006 7047     		bx	lr
 562              	.L13:
 563              		.align	2
 564              	.L12:
 565 0008 02E400E0 		.word	-536812542
 566              		.cfi_endproc
 567              	.LFE7:
 568              		.size	ADC_SAR_2_IRQ_GetPriority, .-ADC_SAR_2_IRQ_GetPriority
 569              		.section	.text.ADC_SAR_2_IRQ_Enable,"ax",%progbits
 570              		.align	2
 571              		.global	ADC_SAR_2_IRQ_Enable
 572              		.thumb
 573              		.thumb_func
 574              		.type	ADC_SAR_2_IRQ_Enable, %function
 575              	ADC_SAR_2_IRQ_Enable:
 576              	.LFB8:
 289:Generated_Source\PSoC5/ADC_SAR_2_IRQ.c **** 
 290:Generated_Source\PSoC5/ADC_SAR_2_IRQ.c **** 
 291:Generated_Source\PSoC5/ADC_SAR_2_IRQ.c **** /*******************************************************************************
 292:Generated_Source\PSoC5/ADC_SAR_2_IRQ.c **** * Function Name: ADC_SAR_2_IRQ_Enable
 293:Generated_Source\PSoC5/ADC_SAR_2_IRQ.c **** ********************************************************************************
 294:Generated_Source\PSoC5/ADC_SAR_2_IRQ.c **** *
 295:Generated_Source\PSoC5/ADC_SAR_2_IRQ.c **** * Summary:
 296:Generated_Source\PSoC5/ADC_SAR_2_IRQ.c **** *   Enables the interrupt to the interrupt controller. Do not call this function
 297:Generated_Source\PSoC5/ADC_SAR_2_IRQ.c **** *   unless ISR_Start() has been called or the functionality of the ISR_Start() 
 298:Generated_Source\PSoC5/ADC_SAR_2_IRQ.c **** *   function, which sets the vector and the priority, has been called.
 299:Generated_Source\PSoC5/ADC_SAR_2_IRQ.c **** *
 300:Generated_Source\PSoC5/ADC_SAR_2_IRQ.c **** * Parameters:
 301:Generated_Source\PSoC5/ADC_SAR_2_IRQ.c **** *   None
 302:Generated_Source\PSoC5/ADC_SAR_2_IRQ.c **** *
 303:Generated_Source\PSoC5/ADC_SAR_2_IRQ.c **** * Return:
 304:Generated_Source\PSoC5/ADC_SAR_2_IRQ.c **** *   None
 305:Generated_Source\PSoC5/ADC_SAR_2_IRQ.c **** *
 306:Generated_Source\PSoC5/ADC_SAR_2_IRQ.c **** *******************************************************************************/
 307:Generated_Source\PSoC5/ADC_SAR_2_IRQ.c **** void ADC_SAR_2_IRQ_Enable(void)
 308:Generated_Source\PSoC5/ADC_SAR_2_IRQ.c **** {
 577              		.loc 1 308 0
 578              		.cfi_startproc
 579              		@ args = 0, pretend = 0, frame = 0
 580              		@ frame_needed = 0, uses_anonymous_args = 0
 581              		@ link register save eliminated.
 309:Generated_Source\PSoC5/ADC_SAR_2_IRQ.c ****     /* Enable the general interrupt. */
 310:Generated_Source\PSoC5/ADC_SAR_2_IRQ.c ****     *ADC_SAR_2_IRQ_INTC_SET_EN = ADC_SAR_2_IRQ__INTC_MASK;
 582              		.loc 1 310 0
 583 0000 0422     		movs	r2, #4
 584 0002 014B     		ldr	r3, .L15
 585 0004 1A60     		str	r2, [r3]
 586 0006 7047     		bx	lr
ARM GAS  C:\Users\Luggi\AppData\Local\Temp\cc5frRuK.s 			page 41


 587              	.L16:
 588              		.align	2
 589              	.L15:
 590 0008 00E100E0 		.word	-536813312
 591              		.cfi_endproc
 592              	.LFE8:
 593              		.size	ADC_SAR_2_IRQ_Enable, .-ADC_SAR_2_IRQ_Enable
 594              		.section	.text.ADC_SAR_2_IRQ_GetState,"ax",%progbits
 595              		.align	2
 596              		.global	ADC_SAR_2_IRQ_GetState
 597              		.thumb
 598              		.thumb_func
 599              		.type	ADC_SAR_2_IRQ_GetState, %function
 600              	ADC_SAR_2_IRQ_GetState:
 601              	.LFB9:
 311:Generated_Source\PSoC5/ADC_SAR_2_IRQ.c **** }
 312:Generated_Source\PSoC5/ADC_SAR_2_IRQ.c **** 
 313:Generated_Source\PSoC5/ADC_SAR_2_IRQ.c **** 
 314:Generated_Source\PSoC5/ADC_SAR_2_IRQ.c **** /*******************************************************************************
 315:Generated_Source\PSoC5/ADC_SAR_2_IRQ.c **** * Function Name: ADC_SAR_2_IRQ_GetState
 316:Generated_Source\PSoC5/ADC_SAR_2_IRQ.c **** ********************************************************************************
 317:Generated_Source\PSoC5/ADC_SAR_2_IRQ.c **** *
 318:Generated_Source\PSoC5/ADC_SAR_2_IRQ.c **** * Summary:
 319:Generated_Source\PSoC5/ADC_SAR_2_IRQ.c **** *   Gets the state (enabled, disabled) of the Interrupt.
 320:Generated_Source\PSoC5/ADC_SAR_2_IRQ.c **** *
 321:Generated_Source\PSoC5/ADC_SAR_2_IRQ.c **** * Parameters:
 322:Generated_Source\PSoC5/ADC_SAR_2_IRQ.c **** *   None
 323:Generated_Source\PSoC5/ADC_SAR_2_IRQ.c **** *
 324:Generated_Source\PSoC5/ADC_SAR_2_IRQ.c **** * Return:
 325:Generated_Source\PSoC5/ADC_SAR_2_IRQ.c **** *   1 if enabled, 0 if disabled.
 326:Generated_Source\PSoC5/ADC_SAR_2_IRQ.c **** *
 327:Generated_Source\PSoC5/ADC_SAR_2_IRQ.c **** *******************************************************************************/
 328:Generated_Source\PSoC5/ADC_SAR_2_IRQ.c **** uint8 ADC_SAR_2_IRQ_GetState(void)
 329:Generated_Source\PSoC5/ADC_SAR_2_IRQ.c **** {
 602              		.loc 1 329 0
 603              		.cfi_startproc
 604              		@ args = 0, pretend = 0, frame = 0
 605              		@ frame_needed = 0, uses_anonymous_args = 0
 606              		@ link register save eliminated.
 330:Generated_Source\PSoC5/ADC_SAR_2_IRQ.c ****     /* Get the state of the general interrupt. */
 331:Generated_Source\PSoC5/ADC_SAR_2_IRQ.c ****     return ((*ADC_SAR_2_IRQ_INTC_SET_EN & (uint32)ADC_SAR_2_IRQ__INTC_MASK) != 0u) ? 1u:0u;
 607              		.loc 1 331 0
 608 0000 044B     		ldr	r3, .L20
 609 0002 1B68     		ldr	r3, [r3]
 610 0004 13F0040F 		tst	r3, #4
 611 0008 01D0     		beq	.L19
 612 000a 0120     		movs	r0, #1
 613 000c 7047     		bx	lr
 614              	.L19:
 615 000e 0020     		movs	r0, #0
 332:Generated_Source\PSoC5/ADC_SAR_2_IRQ.c **** }
 616              		.loc 1 332 0
 617 0010 7047     		bx	lr
 618              	.L21:
 619 0012 00BF     		.align	2
 620              	.L20:
 621 0014 00E100E0 		.word	-536813312
ARM GAS  C:\Users\Luggi\AppData\Local\Temp\cc5frRuK.s 			page 42


 622              		.cfi_endproc
 623              	.LFE9:
 624              		.size	ADC_SAR_2_IRQ_GetState, .-ADC_SAR_2_IRQ_GetState
 625              		.section	.text.ADC_SAR_2_IRQ_Disable,"ax",%progbits
 626              		.align	2
 627              		.global	ADC_SAR_2_IRQ_Disable
 628              		.thumb
 629              		.thumb_func
 630              		.type	ADC_SAR_2_IRQ_Disable, %function
 631              	ADC_SAR_2_IRQ_Disable:
 632              	.LFB10:
 333:Generated_Source\PSoC5/ADC_SAR_2_IRQ.c **** 
 334:Generated_Source\PSoC5/ADC_SAR_2_IRQ.c **** 
 335:Generated_Source\PSoC5/ADC_SAR_2_IRQ.c **** /*******************************************************************************
 336:Generated_Source\PSoC5/ADC_SAR_2_IRQ.c **** * Function Name: ADC_SAR_2_IRQ_Disable
 337:Generated_Source\PSoC5/ADC_SAR_2_IRQ.c **** ********************************************************************************
 338:Generated_Source\PSoC5/ADC_SAR_2_IRQ.c **** *
 339:Generated_Source\PSoC5/ADC_SAR_2_IRQ.c **** * Summary:
 340:Generated_Source\PSoC5/ADC_SAR_2_IRQ.c **** *   Disables the Interrupt in the interrupt controller.
 341:Generated_Source\PSoC5/ADC_SAR_2_IRQ.c **** *
 342:Generated_Source\PSoC5/ADC_SAR_2_IRQ.c **** * Parameters:
 343:Generated_Source\PSoC5/ADC_SAR_2_IRQ.c **** *   None
 344:Generated_Source\PSoC5/ADC_SAR_2_IRQ.c **** *
 345:Generated_Source\PSoC5/ADC_SAR_2_IRQ.c **** * Return:
 346:Generated_Source\PSoC5/ADC_SAR_2_IRQ.c **** *   None
 347:Generated_Source\PSoC5/ADC_SAR_2_IRQ.c **** *
 348:Generated_Source\PSoC5/ADC_SAR_2_IRQ.c **** *******************************************************************************/
 349:Generated_Source\PSoC5/ADC_SAR_2_IRQ.c **** void ADC_SAR_2_IRQ_Disable(void)
 350:Generated_Source\PSoC5/ADC_SAR_2_IRQ.c **** {
 633              		.loc 1 350 0
 634              		.cfi_startproc
 635              		@ args = 0, pretend = 0, frame = 0
 636              		@ frame_needed = 0, uses_anonymous_args = 0
 637              		@ link register save eliminated.
 351:Generated_Source\PSoC5/ADC_SAR_2_IRQ.c ****     /* Disable the general interrupt. */
 352:Generated_Source\PSoC5/ADC_SAR_2_IRQ.c ****     *ADC_SAR_2_IRQ_INTC_CLR_EN = ADC_SAR_2_IRQ__INTC_MASK;
 638              		.loc 1 352 0
 639 0000 0422     		movs	r2, #4
 640 0002 014B     		ldr	r3, .L23
 641 0004 1A60     		str	r2, [r3]
 642 0006 7047     		bx	lr
 643              	.L24:
 644              		.align	2
 645              	.L23:
 646 0008 80E100E0 		.word	-536813184
 647              		.cfi_endproc
 648              	.LFE10:
 649              		.size	ADC_SAR_2_IRQ_Disable, .-ADC_SAR_2_IRQ_Disable
 650              		.section	.text.ADC_SAR_2_IRQ_Start,"ax",%progbits
 651              		.align	2
 652              		.global	ADC_SAR_2_IRQ_Start
 653              		.thumb
 654              		.thumb_func
 655              		.type	ADC_SAR_2_IRQ_Start, %function
 656              	ADC_SAR_2_IRQ_Start:
 657              	.LFB0:
  62:Generated_Source\PSoC5/ADC_SAR_2_IRQ.c ****     /* For all we know the interrupt is active. */
ARM GAS  C:\Users\Luggi\AppData\Local\Temp\cc5frRuK.s 			page 43


 658              		.loc 1 62 0
 659              		.cfi_startproc
 660              		@ args = 0, pretend = 0, frame = 0
 661              		@ frame_needed = 0, uses_anonymous_args = 0
 662 0000 08B5     		push	{r3, lr}
 663              		.cfi_def_cfa_offset 8
 664              		.cfi_offset 3, -8
 665              		.cfi_offset 14, -4
  64:Generated_Source\PSoC5/ADC_SAR_2_IRQ.c **** 
 666              		.loc 1 64 0
 667 0002 FFF7FEFF 		bl	ADC_SAR_2_IRQ_Disable
 668              	.LVL7:
  67:Generated_Source\PSoC5/ADC_SAR_2_IRQ.c **** 
 669              		.loc 1 67 0
 670 0006 0448     		ldr	r0, .L27
 671 0008 FFF7FEFF 		bl	ADC_SAR_2_IRQ_SetVector
 672              	.LVL8:
  70:Generated_Source\PSoC5/ADC_SAR_2_IRQ.c **** 
 673              		.loc 1 70 0
 674 000c 0720     		movs	r0, #7
 675 000e FFF7FEFF 		bl	ADC_SAR_2_IRQ_SetPriority
 676              	.LVL9:
  73:Generated_Source\PSoC5/ADC_SAR_2_IRQ.c **** }
 677              		.loc 1 73 0
 678 0012 FFF7FEFF 		bl	ADC_SAR_2_IRQ_Enable
 679              	.LVL10:
 680 0016 08BD     		pop	{r3, pc}
 681              	.L28:
 682              		.align	2
 683              	.L27:
 684 0018 00000000 		.word	ADC_SAR_2_IRQ_Interrupt
 685              		.cfi_endproc
 686              	.LFE0:
 687              		.size	ADC_SAR_2_IRQ_Start, .-ADC_SAR_2_IRQ_Start
 688              		.section	.text.ADC_SAR_2_IRQ_StartEx,"ax",%progbits
 689              		.align	2
 690              		.global	ADC_SAR_2_IRQ_StartEx
 691              		.thumb
 692              		.thumb_func
 693              		.type	ADC_SAR_2_IRQ_StartEx, %function
 694              	ADC_SAR_2_IRQ_StartEx:
 695              	.LFB1:
 105:Generated_Source\PSoC5/ADC_SAR_2_IRQ.c ****     /* For all we know the interrupt is active. */
 696              		.loc 1 105 0
 697              		.cfi_startproc
 698              		@ args = 0, pretend = 0, frame = 0
 699              		@ frame_needed = 0, uses_anonymous_args = 0
 700              	.LVL11:
 701 0000 10B5     		push	{r4, lr}
 702              		.cfi_def_cfa_offset 8
 703              		.cfi_offset 4, -8
 704              		.cfi_offset 14, -4
 705 0002 0446     		mov	r4, r0
 107:Generated_Source\PSoC5/ADC_SAR_2_IRQ.c **** 
 706              		.loc 1 107 0
 707 0004 FFF7FEFF 		bl	ADC_SAR_2_IRQ_Disable
 708              	.LVL12:
ARM GAS  C:\Users\Luggi\AppData\Local\Temp\cc5frRuK.s 			page 44


 110:Generated_Source\PSoC5/ADC_SAR_2_IRQ.c **** 
 709              		.loc 1 110 0
 710 0008 2046     		mov	r0, r4
 711 000a FFF7FEFF 		bl	ADC_SAR_2_IRQ_SetVector
 712              	.LVL13:
 113:Generated_Source\PSoC5/ADC_SAR_2_IRQ.c **** 
 713              		.loc 1 113 0
 714 000e 0720     		movs	r0, #7
 715 0010 FFF7FEFF 		bl	ADC_SAR_2_IRQ_SetPriority
 716              	.LVL14:
 116:Generated_Source\PSoC5/ADC_SAR_2_IRQ.c **** }
 717              		.loc 1 116 0
 718 0014 FFF7FEFF 		bl	ADC_SAR_2_IRQ_Enable
 719              	.LVL15:
 720 0018 10BD     		pop	{r4, pc}
 721              		.cfi_endproc
 722              	.LFE1:
 723              		.size	ADC_SAR_2_IRQ_StartEx, .-ADC_SAR_2_IRQ_StartEx
 724 001a 00BF     		.section	.text.ADC_SAR_2_IRQ_Stop,"ax",%progbits
 725              		.align	2
 726              		.global	ADC_SAR_2_IRQ_Stop
 727              		.thumb
 728              		.thumb_func
 729              		.type	ADC_SAR_2_IRQ_Stop, %function
 730              	ADC_SAR_2_IRQ_Stop:
 731              	.LFB2:
 135:Generated_Source\PSoC5/ADC_SAR_2_IRQ.c ****     /* Disable this interrupt. */
 732              		.loc 1 135 0
 733              		.cfi_startproc
 734              		@ args = 0, pretend = 0, frame = 0
 735              		@ frame_needed = 0, uses_anonymous_args = 0
 736 0000 08B5     		push	{r3, lr}
 737              		.cfi_def_cfa_offset 8
 738              		.cfi_offset 3, -8
 739              		.cfi_offset 14, -4
 137:Generated_Source\PSoC5/ADC_SAR_2_IRQ.c **** 
 740              		.loc 1 137 0
 741 0002 FFF7FEFF 		bl	ADC_SAR_2_IRQ_Disable
 742              	.LVL16:
 140:Generated_Source\PSoC5/ADC_SAR_2_IRQ.c **** }
 743              		.loc 1 140 0
 744 0006 0248     		ldr	r0, .L33
 745 0008 FFF7FEFF 		bl	ADC_SAR_2_IRQ_SetVector
 746              	.LVL17:
 747 000c 08BD     		pop	{r3, pc}
 748              	.L34:
 749 000e 00BF     		.align	2
 750              	.L33:
 751 0010 00000000 		.word	IntDefaultHandler
 752              		.cfi_endproc
 753              	.LFE2:
 754              		.size	ADC_SAR_2_IRQ_Stop, .-ADC_SAR_2_IRQ_Stop
 755              		.section	.text.ADC_SAR_2_IRQ_SetPending,"ax",%progbits
 756              		.align	2
 757              		.global	ADC_SAR_2_IRQ_SetPending
 758              		.thumb
 759              		.thumb_func
ARM GAS  C:\Users\Luggi\AppData\Local\Temp\cc5frRuK.s 			page 45


 760              		.type	ADC_SAR_2_IRQ_SetPending, %function
 761              	ADC_SAR_2_IRQ_SetPending:
 762              	.LFB11:
 353:Generated_Source\PSoC5/ADC_SAR_2_IRQ.c **** }
 354:Generated_Source\PSoC5/ADC_SAR_2_IRQ.c **** 
 355:Generated_Source\PSoC5/ADC_SAR_2_IRQ.c **** 
 356:Generated_Source\PSoC5/ADC_SAR_2_IRQ.c **** /*******************************************************************************
 357:Generated_Source\PSoC5/ADC_SAR_2_IRQ.c **** * Function Name: ADC_SAR_2_IRQ_SetPending
 358:Generated_Source\PSoC5/ADC_SAR_2_IRQ.c **** ********************************************************************************
 359:Generated_Source\PSoC5/ADC_SAR_2_IRQ.c **** *
 360:Generated_Source\PSoC5/ADC_SAR_2_IRQ.c **** * Summary:
 361:Generated_Source\PSoC5/ADC_SAR_2_IRQ.c **** *   Causes the Interrupt to enter the pending state, a software method of
 362:Generated_Source\PSoC5/ADC_SAR_2_IRQ.c **** *   generating the interrupt.
 363:Generated_Source\PSoC5/ADC_SAR_2_IRQ.c **** *
 364:Generated_Source\PSoC5/ADC_SAR_2_IRQ.c **** * Parameters:
 365:Generated_Source\PSoC5/ADC_SAR_2_IRQ.c **** *   None
 366:Generated_Source\PSoC5/ADC_SAR_2_IRQ.c **** *
 367:Generated_Source\PSoC5/ADC_SAR_2_IRQ.c **** * Return:
 368:Generated_Source\PSoC5/ADC_SAR_2_IRQ.c **** *   None
 369:Generated_Source\PSoC5/ADC_SAR_2_IRQ.c **** *
 370:Generated_Source\PSoC5/ADC_SAR_2_IRQ.c **** * Side Effects:
 371:Generated_Source\PSoC5/ADC_SAR_2_IRQ.c **** *   If interrupts are enabled and the interrupt is set up properly, the ISR is
 372:Generated_Source\PSoC5/ADC_SAR_2_IRQ.c **** *   entered (depending on the priority of this interrupt and other pending 
 373:Generated_Source\PSoC5/ADC_SAR_2_IRQ.c **** *   interrupts).
 374:Generated_Source\PSoC5/ADC_SAR_2_IRQ.c **** *
 375:Generated_Source\PSoC5/ADC_SAR_2_IRQ.c **** *******************************************************************************/
 376:Generated_Source\PSoC5/ADC_SAR_2_IRQ.c **** void ADC_SAR_2_IRQ_SetPending(void)
 377:Generated_Source\PSoC5/ADC_SAR_2_IRQ.c **** {
 763              		.loc 1 377 0
 764              		.cfi_startproc
 765              		@ args = 0, pretend = 0, frame = 0
 766              		@ frame_needed = 0, uses_anonymous_args = 0
 767              		@ link register save eliminated.
 378:Generated_Source\PSoC5/ADC_SAR_2_IRQ.c ****     *ADC_SAR_2_IRQ_INTC_SET_PD = ADC_SAR_2_IRQ__INTC_MASK;
 768              		.loc 1 378 0
 769 0000 0422     		movs	r2, #4
 770 0002 014B     		ldr	r3, .L36
 771 0004 1A60     		str	r2, [r3]
 772 0006 7047     		bx	lr
 773              	.L37:
 774              		.align	2
 775              	.L36:
 776 0008 00E200E0 		.word	-536813056
 777              		.cfi_endproc
 778              	.LFE11:
 779              		.size	ADC_SAR_2_IRQ_SetPending, .-ADC_SAR_2_IRQ_SetPending
 780              		.section	.text.ADC_SAR_2_IRQ_ClearPending,"ax",%progbits
 781              		.align	2
 782              		.global	ADC_SAR_2_IRQ_ClearPending
 783              		.thumb
 784              		.thumb_func
 785              		.type	ADC_SAR_2_IRQ_ClearPending, %function
 786              	ADC_SAR_2_IRQ_ClearPending:
 787              	.LFB12:
 379:Generated_Source\PSoC5/ADC_SAR_2_IRQ.c **** }
 380:Generated_Source\PSoC5/ADC_SAR_2_IRQ.c **** 
 381:Generated_Source\PSoC5/ADC_SAR_2_IRQ.c **** 
ARM GAS  C:\Users\Luggi\AppData\Local\Temp\cc5frRuK.s 			page 46


 382:Generated_Source\PSoC5/ADC_SAR_2_IRQ.c **** /*******************************************************************************
 383:Generated_Source\PSoC5/ADC_SAR_2_IRQ.c **** * Function Name: ADC_SAR_2_IRQ_ClearPending
 384:Generated_Source\PSoC5/ADC_SAR_2_IRQ.c **** ********************************************************************************
 385:Generated_Source\PSoC5/ADC_SAR_2_IRQ.c **** *
 386:Generated_Source\PSoC5/ADC_SAR_2_IRQ.c **** * Summary:
 387:Generated_Source\PSoC5/ADC_SAR_2_IRQ.c **** *   Clears a pending interrupt in the interrupt controller.
 388:Generated_Source\PSoC5/ADC_SAR_2_IRQ.c **** *
 389:Generated_Source\PSoC5/ADC_SAR_2_IRQ.c **** *   Note Some interrupt sources are clear-on-read and require the block 
 390:Generated_Source\PSoC5/ADC_SAR_2_IRQ.c **** *   interrupt/status register to be read/cleared with the appropriate block API 
 391:Generated_Source\PSoC5/ADC_SAR_2_IRQ.c **** *   (GPIO, UART, and so on). Otherwise the ISR will continue to remain in 
 392:Generated_Source\PSoC5/ADC_SAR_2_IRQ.c **** *   pending state even though the interrupt itself is cleared using this API.
 393:Generated_Source\PSoC5/ADC_SAR_2_IRQ.c **** *
 394:Generated_Source\PSoC5/ADC_SAR_2_IRQ.c **** * Parameters:
 395:Generated_Source\PSoC5/ADC_SAR_2_IRQ.c **** *   None
 396:Generated_Source\PSoC5/ADC_SAR_2_IRQ.c **** *
 397:Generated_Source\PSoC5/ADC_SAR_2_IRQ.c **** * Return:
 398:Generated_Source\PSoC5/ADC_SAR_2_IRQ.c **** *   None
 399:Generated_Source\PSoC5/ADC_SAR_2_IRQ.c **** *
 400:Generated_Source\PSoC5/ADC_SAR_2_IRQ.c **** *******************************************************************************/
 401:Generated_Source\PSoC5/ADC_SAR_2_IRQ.c **** void ADC_SAR_2_IRQ_ClearPending(void)
 402:Generated_Source\PSoC5/ADC_SAR_2_IRQ.c **** {
 788              		.loc 1 402 0
 789              		.cfi_startproc
 790              		@ args = 0, pretend = 0, frame = 0
 791              		@ frame_needed = 0, uses_anonymous_args = 0
 792              		@ link register save eliminated.
 403:Generated_Source\PSoC5/ADC_SAR_2_IRQ.c ****     *ADC_SAR_2_IRQ_INTC_CLR_PD = ADC_SAR_2_IRQ__INTC_MASK;
 793              		.loc 1 403 0
 794 0000 0422     		movs	r2, #4
 795 0002 014B     		ldr	r3, .L39
 796 0004 1A60     		str	r2, [r3]
 797 0006 7047     		bx	lr
 798              	.L40:
 799              		.align	2
 800              	.L39:
 801 0008 80E200E0 		.word	-536812928
 802              		.cfi_endproc
 803              	.LFE12:
 804              		.size	ADC_SAR_2_IRQ_ClearPending, .-ADC_SAR_2_IRQ_ClearPending
 805              		.text
 806              	.Letext0:
 807              		.file 2 "Generated_Source\\PSoC5/cytypes.h"