ARM GAS  C:\Users\Luggi\AppData\Local\Temp\ccmud0fg.s 			page 1


   1              		.syntax unified
   2              		.cpu cortex-m3
   3              		.fpu softvfp
   4              		.eabi_attribute 20, 1
   5              		.eabi_attribute 21, 1
   6              		.eabi_attribute 23, 3
   7              		.eabi_attribute 24, 1
   8              		.eabi_attribute 25, 1
   9              		.eabi_attribute 26, 1
  10              		.eabi_attribute 30, 1
  11              		.eabi_attribute 34, 1
  12              		.eabi_attribute 18, 4
  13              		.thumb
  14              		.file	"ADC_SAR_Seq_1_IRQ.c"
  15              		.text
  16              	.Ltext0:
  17              		.section	.gnu.lto_.profile.304933b6,"",%progbits
  18 0000 789C6366 		.ascii	"x\234cf```e\200\000F\206\311\214:\000\002q\000\312"
  18      60606065 
  18      80004686 
  18      C98C3A00 
  18      027100CA 
  19              		.text
  20              		.section	.gnu.lto_.inline.304933b6,"",%progbits
  21 0000 789C858E 		.ascii	"x\234\205\216\315\015\200 \014F?\240\340\177<zt\001"
  21      CD0D8020 
  21      0C463FA0 
  21      E07F3C7A 
  21      7401
  22 0012 CF1E1DC1 		.ascii	"\317\036\035\301\331\034\301Q\034\301\221l!!jM\344\320"
  22      D91CC151 
  22      1CC1916C 
  22      21216A4D 
  22      E4D0
  23 0024 368F07FD 		.ascii	"6\217\007\375\034\276\317lR\357\000g\015,\217a\037\245"
  23      1CBECF6C 
  23      52EF0067 
  23      0D2C8F61 
  23      1FA5
  24 0036 C1C01313 		.ascii	"\301\300\023\023\332\307\214\254FN\220a\231\337\237"
  24      DAC78CAC 
  24      464E9061 
  24      99DF9F
  25 0045 7DC23C90 		.ascii	"}\302<\220\334\221\326=\3101\312\252\354C\021\030\225"
  25      DC91D63D 
  25      C831CAAA 
  25      EC431118 
  25      95
  26 0056 C79251A1 		.ascii	"\307\222Q\241\255\022\325\364\312WK\242F\202\246\032"
  26      AD12D5F4 
  26      CA574BA2 
  26      4682A61A 
  27 0066 41F5EB6D 		.ascii	"A\365\353mk$5\302\360\024o\277\264:@\247\021.\001\316"
  27      6B2435C2 
  27      F0146FBF 
  27      B43A40A7 
  27      112E01CE 
ARM GAS  C:\Users\Luggi\AppData\Local\Temp\ccmud0fg.s 			page 2


  28 007a 15AA     		.ascii	"\025\252"
  29              		.text
  30              		.section	.gnu.lto_.jmpfuncs.304933b6,"",%progbits
  31 0000 789C6366 		.ascii	"x\234cf\300\016&Bi^ f\004\202z&\006\006f\020\315\302"
  31      C00E2642 
  31      695E2066 
  31      04827A26 
  31      06066610 
  32 0016 C0C0CAC0 		.ascii	"\300\300\312\300\300\306\300\300\316\300\300\001\222"
  32      C0C6C0C0 
  32      CEC0C001 
  32      92
  33 0023 64FAC8C4 		.ascii	"d\372\310\304\370}\361\203\327\214/\230~2\001E\031\227"
  33      F87DF183 
  33      D78C2F98 
  33      7E320145 
  33      1997
  34 0035 334A4144 		.ascii	"3JAD\347]\356[\307T\373\273\241\243\201\343'\023\343"
  34      E75DEE5B 
  34      C754FBBB 
  34      A1A381E3 
  34      2713E3
  35 0048 672690EA 		.ascii	"g&\220\352\025\214\265\014\014\234 \023\201j J\231\313"
  35      158CB50C 
  35      0C9C2013 
  35      816A204A 
  35      99CB
  36 005a 1980525C 		.ascii	"\031\200R\\\014\33051\002\305W\2024\361@\034\003\000"
  36      0CD83531 
  36      02C55782 
  36      34F1401C 
  36      0300
  37 006c 01121DD7 		.ascii	"\001\022\035\327"
  38              		.text
  39              		.section	.gnu.lto_.pureconst.304933b6,"",%progbits
  40 0000 789C6366 		.ascii	"x\234cf``\220f\200\000^\006\006F)&Vf)\026)V)6)v)\016"
  40      60609066 
  40      80005E06 
  40      06462926 
  40      56662916 
  41 001c 094E092E 		.ascii	"\011N\011.\011\036)^)\000\025G\001\231"
  41      091E295E 
  41      29001547 
  41      0199
  42              		.text
  43              		.section	.gnu.lto_ADC_SAR_Seq_1_IRQ_Interrupt.304933b6,"",%progbits
  44 0000 789C6366 		.ascii	"x\234cf\300\004R@\\\002\304\272@\314\310\314\300\310"
  44      C0045240 
  44      5C02C4BA 
  44      40CCC8CC 
  44      C0C8
  45 0012 34E11C03 		.ascii	"4\341\034\003C#\007\023##\210\301\300\310P\317\304X"
  45      43230713 
  45      232388C1 
  45      C0C850CF 
  45      C458
  46 0024 CFF892E9 		.ascii	"\317\370\222\351#\023\343\204\003\253gp\253/mhh\370"
ARM GAS  C:\Users\Luggi\AppData\Local\Temp\ccmud0fg.s 			page 3


  46      2313E384 
  46      03AB6770 
  46      AB2F6D68 
  46      68F8
  47 0036 D07493A5 		.ascii	"\320t\223\245U\342'\023\003\303g&\2101\214\313\031\325"
  47      55E22713 
  47      03C36726 
  47      88318CCB 
  47      19D5
  48 0048 19806A3E 		.ascii	"\031\200j>\266\374\275\316\315\326\002T#\000\221c\\"
  48      B6FCBDCE 
  48      CDD60254 
  48      23009163 
  48      5C
  49 0059 C1C8C608 		.ascii	"\301\310\306\010\244\327\013\035h\370\377\377\362\223"
  49      A4D70B1D 
  49      68F8FFFF 
  49      F293
  50 0067 435BB881 		.ascii	"C[\270\201\302O\200\030d\376S&&\020\315|\217\221\021"
  50      C24F8018 
  50      64FE5326 
  50      2610CD7C 
  50      8F9111
  51 007a A41064D2 		.ascii	"\244\020d\322\023&F\220\020P\201\266{j^jQbIjJ|p~iQr"
  51      13264690 
  51      105081B6 
  51      7B6A5E6A 
  51      5162496A 
  52 0095 6A4C4070 		.ascii	"jL@p\276\263i\214\243\213s|\260cP|pja\274a\274gP\240"
  52      BEB3698C 
  52      A38B737C 
  52      B063507C 
  52      706A61BC 
  53 00ae 5E320300 		.ascii	"^2\003\000^\3167\372"
  53      5ECE37FA 
  54              		.text
  55              		.section	.gnu.lto_ADC_SAR_Seq_1_IRQ_SetVector.304933b6,"",%progbits
  56 0000 789C6550 		.ascii	"x\234ePMH\224Q\024}\347\276\317\311\230A\244\225\314"
  56      4D489451 
  56      147DE7BE 
  56      CFC99841 
  56      A495CC
  57 0013 A6406416 		.ascii	"\246@d\026\302@D\255\023\205l\023\345H\024\010\037\323"
  57      C24044AD 
  57      13856C13 
  57      E5481408 
  57      1FD3
  58 0025 CCB7AB86 		.ascii	"\314\267\253\206>u\355\233irR\027IAH\341B$\372\031\323"
  58      3E75ED9B 
  58      69725217 
  58      494148E1 
  58      4224FA19 
  59 003a 9C6A619B 		.ascii	"\234ja\233>\242\305@\245DY$\222F\223LF?2\221\314\"\246"
  59      3EA2C540 
  59      A5445924 
  59      9246934C 
  59      463F3291 
ARM GAS  C:\Users\Luggi\AppData\Local\Temp\ccmud0fg.s 			page 4


  60 0051 7BBF6913 		.ascii	"{\277i\023=x\274w\017\367\234{\356\321\352\377\023\346"
  60      3D78BC77 
  60      0FF79C7B 
  60      EED1EAFF 
  60      13E6
  61 0063 5B84525D 		.ascii	"[\204R]\374B+\320\370\242R\351F\002\344\243\240\206"
  61      FC422BD0 
  61      F8A252E9 
  61      4602E4A3 
  61      A086
  62 0075 0843F84C 		.ascii	"\010C\370L[\204q/?\021\214\3340\306\374\310TZ.\264T"
  62      5B84712F 
  62      3F118CDC 
  62      30C6FCC8 
  62      545A2EB4 
  63 008a 49A90AD5 		.ascii	"I\251\012\325ep\023\021i\371\362\356RHG\241\370\277"
  63      65701311 
  63      69F9F2EE 
  63      524847A1 
  63      F8BF
  64 009c 30FBF345 		.ascii	"0\373\363E\260LU\302\036)\037].N\004\244$K\312\315\221"
  64      B04C55C2 
  64      1E291F5D 
  64      2E4E04A4 
  64      244BCACD 
  65 00b1 E527BA6D 		.ascii	"\345'\272m\332\230\214\267V0\007\255*i\334\202f=\334"
  65      DA988CB7 
  65      563007AD 
  65      2A69DC82 
  65      663DDC
  66 00c4 46187710 		.ascii	"F\030w\020V\014)\344\321&\355\017?\224\363\226>\340"
  66      560C29E4 
  66      D126ED0F 
  66      3F94F396 
  66      3EE0
  67 00d6 0B7FCF4F 		.ascii	"\013\177\317O-[\255SL]\277\226{\0262E\223]\257\325v"
  67      2D5BAD53 
  67      4C5DBF96 
  67      7B163245 
  67      935DAFD5 
  68 00eb 57C9C2CC 		.ascii	"W\311\302\314\277\012\365\303\224\255\354\357\267\301"
  68      BF0AF5C3 
  68      94ADECEF 
  68      B7C1
  69 00f9 4096AD37 		.ascii	"@\226\2557\343.Z\353\2661\213\000o\016A\346vy\246V\253"
  69      E32E5AEB 
  69      B6318B00 
  69      6F0E41E6 
  69      7679A656 
  70 010e 3CBF528E 		.ascii	"<\277R\216\350\006V`H\303\037\256J\334+Y|\"\222W\257"
  70      E8065660 
  70      48C31FAE 
  70      4ADC2B59 
  70      7C229257 
  71 0123 20F36B74 		.ascii	" \363ktc\341\204\320\267I\202)<\035\313\221\254\326"
  71      63E184D0 
  71      B7498229 
ARM GAS  C:\Users\Luggi\AppData\Local\Temp\ccmud0fg.s 			page 5


  71      3C1DCB91 
  71      ACD6
  72 0135 7071E5BC 		.ascii	"pq\345\274i\222\201k\245\245\227\215>\344\317\177\375"
  72      6992816B 
  72      A5A5978D 
  72      3EE4CF7F 
  72      FD
  73 0146 71E45B68 		.ascii	"q\344[h\022\327\323\306xQ1:\307\016\357\211C\314c\022"
  73      12D7D3C6 
  73      7851313A 
  73      C70EEF89 
  73      43CC6312 
  74 015a EA0D32E6 		.ascii	"\352\0152\346\244\357\207\007\263\250\342!W\347\227"
  74      A4EF8707 
  74      B3A8E221 
  74      57E797
  75 0169 5EED138C 		.ascii	"^\355\023\214\371\345\325\341\007~xV\267\310}]\\\315"
  75      F9E5D5E1 
  75      077E7856 
  75      B7C87D5D 
  75      5CCD
  76 017b EDFC2BD7 		.ascii	"\355\374+\327\31611\003\005_\355>\253msn\357\221\366"
  76      CE313103 
  76      055FED3E 
  76      AB6D736E 
  76      EF91F6
  77 018e 1E1F11B6 		.ascii	"\036\037\021\266$P\"\210u^\244\375\220s\326q\343\003"
  77      24502288 
  77      755EA4FD 
  77      9073D671 
  77      E303
  78 01a0 4ED28EA5 		.ascii	"N\322\216\245\006\335\204\323w4\226\352\334\337\327"
  78      06DD84D3 
  78      773496EA 
  78      DCDFD7
  79 01af D1D569C7 		.ascii	"\321\325i\307:z\354\230s\316\336k\037\3569\026M\250"
  79      3A7AEC98 
  79      73CEDE6B 
  79      1FEE3916 
  79      4DA8
  80 01c1 1DF164D2 		.ascii	"\035\361d\322u\372\373\233\334\370\231\343Nb \345\366"
  80      75FAFB9B 
  80      DCF899E3 
  80      4E6220E5 
  80      F6
  81 01d2 C64F9D76 		.ascii	"\306O\235v\376\000-\267\272r"
  81      FE002DB7 
  81      BA72
  82              		.text
  83              		.section	.gnu.lto_ADC_SAR_Seq_1_IRQ_GetVector.304933b6,"",%progbits
  84 0000 789C6366 		.ascii	"x\234cf\300\004R@<\231\221\201\301\006H32302M8\307\300"
  84      C0045240 
  84      3C999181 
  84      C1064833 
  84      32333032 
  85 0018 D0C8C1C4 		.ascii	"\320\310\301\304\310\010b002\32431\3263\276d\372\310"
  85      C8086230 
ARM GAS  C:\Users\Luggi\AppData\Local\Temp\ccmud0fg.s 			page 6


  85      3032D433 
  85      31D633BE 
  85      64FAC8
  86 002b C4B873DD 		.ascii	"\304\270s\335\227\263\334/\230~21(0\000\271\273&\235"
  86      97B3DC2F 
  86      987E3231 
  86      283000B9 
  86      BB269D
  87 003e 98C106E2 		.ascii	"\230\301\006\3422\262\200\270\327\257\315\270\316\251"
  87      32B280B8 
  87      D7AFCDB8 
  87      CEA9
  88 004c BEB4A1A1 		.ascii	"\276\264\241\241\351C\323\317\212\231S\026\000e\230"
  88      E943D3CF 
  88      8A995316 
  88      006598
  89 005b 183E3331 		.ascii	"\030>310.g\224b\\\301\010\262\210q%\243:H\355\326\207"
  89      302E6794 
  89      625CC108 
  89      B2887125 
  89      A33A48ED 
  90 0071 2F56B330 		.ascii	"/V\2630\3531\202\330\357W/\274\312\242\274\020\250\357"
  90      EB3182D8 
  90      EF572FBC 
  90      CAA2BC10 
  90      A8EF
  91 0083 C1A9F6D3 		.ascii	"\301\251\366\323<\015'\032Z\036\374\377/\377\223\211"
  91      3C0D271A 
  91      5A1EFCFF 
  91      2FFF9389 
  92 0093 99711523 		.ascii	"\231q\025#3\252~\020\000j\371\330\362\367:7[KCC\203"
  92      33AA7E10 
  92      006AF9D8 
  92      F2F73A37 
  92      5B4B4343 
  93 00a8 00E36A46 		.ascii	"\000\343jFe\220%@\263\3270\262\001\375\301\010\022Y"
  93      65902540 
  93      B3D730B2 
  93      01FDC108 
  93      1259
  94 00ba 2F74A0E1 		.ascii	"/t\240\341\377\377\317O&\2770ff\001\232\000\024bf\000"
  94      FFFFCF4F 
  94      26BF3066 
  94      66019A00 
  94      14626600 
  95 00ce 3987E109 		.ascii	"9\207\341\011\020\203<\366\024\310\001\322\314\267\030"
  95      10833CF6 
  95      14C801D2 
  95      CCB718
  96 00dd 9BBE753D 		.ascii	"\233\276u=\333\023\001\322\375\235\011\344\313MG\272"
  96      DB1301D2 
  96      FD9D09E4 
  96      CB4D47BA 
  97 00ed DB9940DE 		.ascii	"\333\231@\336b\351\270\325\334\300\007\262\357\376\223"
  97      62E9B8D5 
  97      DCC007B2 
  97      EFFE93
ARM GAS  C:\Users\Luggi\AppData\Local\Temp\ccmud0fg.s 			page 7


  98 00fc F31739C0 		.ascii	"\363\0279\300B`\353\257<\356|\3073\227qvcC\303\001="
  98      4260EBAF 
  98      3CEE7CC7 
  98      33977176 
  98      6343C301 
  99 0111 903BD702 		.ascii	"\220;\327\002\035\270\016\344@\306\365\214s\031\031"
  99      1DB80EE4 
  99      40C6F58C 
  99      731919
 100 0120 AE313635 		.ascii	"\256165D\202\235\003\264\027h(\003\330\222o{\270 \226"
 100      44829D03 
 100      B4176828 
 100      03D8926F 
 100      7BB82096 
 101 0134 30038D78 		.ascii	"0\003\215xq\247m\0138\354\230=@&\276=w\247\235\023b"
 101      71A76D0B 
 101      38EC983D 
 101      4026BE3D 
 101      77A79D13 
 102 0149 2207D099 		.ascii	"\"\007\320\231@=\214\033\300\346m\004\231w\217\221\021"
 102      403D8C1B 
 102      C0E66D04 
 102      99778F91 
 102      11
 103 015a AA9301E4 		.ascii	"\252\223\001\344\001F\220\303\201\336\320vO\315K-J,"
 103      014690C3 
 103      81DED076 
 103      4FCD4B2D 
 103      4A2C
 104 016c 494D890F 		.ascii	"IM\211\017\316/-JN\215\011\010\316w6\215qtq\216\017"
 104      CE2F2D4A 
 104      4E8D0908 
 104      CE77368D 
 104      7174718E 
 105 0181 760C8A0F 		.ascii	"v\014\212\017N-\2147\214\367\014\012\324Kf\340+J\314"
 105      4E2D8C37 
 105      8CF70C0A 
 105      D44B66E0 
 105      2B4ACC
 106 0194 0D4B4D2E 		.ascii	"\015KM.\311/\012IL\312I\005\000M)\245\276"
 106      C92F0A49 
 106      4CCA4905 
 106      004D29A5 
 106      BE
 107              		.text
 108              		.section	.gnu.lto_ADC_SAR_Seq_1_IRQ_SetPriority.304933b6,"",%progbits
 109 0000 789C6590 		.ascii	"x\234e\220;H\003A\020\206\347\337\313\305HD\304J\257"
 109      3B480341 
 109      1086E7DF 
 109      CBC54844 
 109      C44AAF
 110 0013 95104409 		.ascii	"\225\020D\011\210hmP\020;MZ\341\220xE\032\243!\026V"
 110      88686D50 
 110      103B4D5A 
 110      E1907845 
 110      1AA32116 
 111 0028 D9D333AD 		.ascii	"\331\3233\255\017D\004\261Q|F\243\225`\345!\004S)\012"
ARM GAS  C:\Users\Luggi\AppData\Local\Temp\ccmud0fg.s 			page 8


 111      0F4404B1 
 111      517C46A3 
 111      9560E521 
 111      0453290A 
 112 003c 1208E203 		.ascii	"\022\010\342\003\242h\247D\220\024\242\263Z\2720\314"
 112      A268A744 
 112      9014A2B3 
 112      5ABA30CC 
 113 004c EECC3FDF 		.ascii	"\356\314?\337\376\273\032\375_\006G'\210\2729C#\210"
 113      FEBB1AFD 
 113      5F064727 
 113      88BA3943 
 113      2388
 114 005e F90B22DB 		.ascii	"\371\013\"\333'\000\265!PZ \215W\361.0\357fW\374\301"
 114      2700B521 
 114      505A208D 
 114      57F12E30 
 114      EF6657FC 
 115 0073 4D29E5DB 		.ascii	"M)\345\333\372B\363lSU\020U\304\037\006\333\010\262"
 115      FA42F36C 
 115      53551055 
 115      C41F06DB 
 115      08B2
 116 0085 64EBF4F1 		.ascii	"d\353\364\361D\327B \336\027\355\354C]`C\312i\267\224"
 116      44D74220 
 116      DE17EDEC 
 116      435D6043 
 116      CA69B794 
 117 0099 933DA832 		.ascii	"\223=\2502s\007\032O\240\335@\253A\\ \354\"\240\304"
 117      73071A4F 
 117      A0DD40AB 
 117      415C20EC 
 117      22A0C4
 118 00ac EFCE57D1 		.ascii	"\357\316W\321\357u\230\335\360\307\304\036\274l\213"
 118      EF7598DD 
 118      F0C7C41E 
 118      BC6C8B
 119 00bb 0E1B5DF9 		.ascii	"\016\033]\371\375]\311/\355\264xt@\351\005O\262\244"
 119      FD5DC92F 
 119      EDB47874 
 119      40E9054F 
 119      B2A4
 120 00cd CCA13C3E 		.ascii	"\314\241<>\361\201\263V\302\314m\346\271\260\0145\372"
 120      F181B356 
 120      C2CC6DE6 
 120      B9B00C35 
 120      FA
 121 00de 29C42753 		.ascii	")\304'S\005\346\234\343;\357\213\250\012M'daP\011g\213"
 121      05E69CE3 
 121      3BEF8BA8 
 121      0A4D2764 
 121      61500967 
 122 00f3 BF126E9E 		.ascii	"\277\022n\236\347\25735\252\351\231.\314\310ze\344\276"
 122      E7AF3335 
 122      AAE9992E 
 122      CCC87A65 
 122      E4BE
ARM GAS  C:\Users\Luggi\AppData\Local\Temp\ccmud0fg.s 			page 9


 123 0105 7C79E5FB 		.ascii	"|y\345\373-\221:\312\233\217\243\3325\254\332\216\355"
 123      2D913ACA 
 123      9B8FA3DA 
 123      35ACDA8E 
 123      ED
 124 0116 EA0CC13E 		.ascii	"\352\014\301>\014\0340\206\220\303\032\370\032\272\203"
 124      0C1C3086 
 124      90C31AF8 
 124      1ABA83
 125 0125 EDAE4614 		.ascii	"\355\256F\024Q}D\231\037\305n\330[[\2775f%GR\326\250"
 125      517D4499 
 125      1FC56ED8 
 125      5B5BBF35 
 125      66254752 
 126 013b 194D4C26 		.ascii	"\031ML&c\326\360`4\321\3335\034\356\3535\243\341\210"
 126      63D6F060 
 126      34D1DB35 
 126      1CEEEB35 
 126      A3E188
 127 014e 19B526CC 		.ascii	"\031\265&\314\016s 2\024\212\221o<\031O$\343\251\251"
 127      0E732032 
 127      148A916F 
 127      3C194F24 
 127      E3A9A9
 128 0161 1F0FDF7D 		.ascii	"\037\017\337}\027"
 128      17
 129              		.text
 130              		.section	.gnu.lto_ADC_SAR_Seq_1_IRQ_GetPriority.304933b6,"",%progbits
 131 0000 789C658F 		.ascii	"x\234e\217M(Da\024\206\317{\356\030\243A\262\322l,,"
 131      4D284461 
 131      1486CF7B 
 131      EE18A341 
 131      B2D26C2C 
 132 0015 2691A2D8 		.ascii	"&\221\242\330\213\222\035s\313j\352\246q\027\2631\334"
 132      8B921D73 
 132      CB6AEAA6 
 132      7117B331 
 132      DC
 133 0026 5858F966 		.ascii	"XX\371f\014\311\312BQ\262\260\360\377\273\235\2610)"
 133      0CC9CA42 
 133      51B2B0F0 
 133      FFBB9DB1 
 133      3029
 134 0038 3F458450 		.ascii	"?E\204P\362[\024\222hD\263\340\372\276\031\013\345\324"
 134      F25B1492 
 134      6844B3E0 
 134      FABE190B 
 134      E5D4
 135 004a D7399DDE 		.ascii	"\3279\235\336\367=\317\247\321\377\362\310\327\002\242"
 135      F73DCFA7 
 135      D1FFF2C8 
 135      D702A2
 136 0059 1AD9A111 		.ascii	"\032\331\241\021xx\237(\354b@\015\004\352e\364\342\221"
 136      78789F28 
 136      EC62400D 
 136      04EA65F4 
 136      E291
ARM GAS  C:\Users\Luggi\AppData\Local\Temp\ccmud0fg.s 			page 10


 137 006b DF187BB1 		.ascii	"\337\030{\261\357cx\247\204\210\274FF/\335\375E)&J2"
 137      EF6378A7 
 137      8488BC46 
 137      462FDDFD 
 137      4529264A 
 138 0080 A1DC8352 		.ascii	"\241\334\203R\225\203\031xI\012\247\327ocYZ\005\324"
 138      95831978 
 138      490AA7D7 
 138      6F63595A 
 138      05D4
 139 0092 BC92587B 		.ascii	"\274\222X{\312+\231\224\246\233\370\343\226[\214\211"
 139      CA2B9994 
 139      A69BF8E3 
 139      965B8C89 
 140 00a2 E88D6D17 		.ascii	"\350\215m\027K+f\241\375u\253\222\206\267\350\327\231"
 140      4B2B66A1 
 140      FD75AB92 
 140      86B7E8D7 
 140      99
 141 00b3 DB191542 		.ascii	"\333\031\025B\024`\016%\352\200L\236\207SBBmV\012\023"
 141      14600E25 
 141      EA804C9E 
 141      87534242 
 141      6D560A13 
 142 00c7 C2B69317 		.ascii	"\302\266\223\027#\203U\016\007S\212\025\266R\322\235"
 142      2383550E 
 142      07538A15 
 142      B652D29D 
 143 00d7 942AEA7B 		.ascii	"\224*\352{f\325\265sl|\014\275\3546)\367'\253/lo\036"
 143      66D5B573 
 143      6C7C0CBD 
 143      EC3629F7 
 143      27AB2F6C 
 144 00ed 0D643F70 		.ascii	"\015d?p\2129\262\323'\362\325\275\353\273\203CWz\225"
 144      8A39B2D3 
 144      27F2D5BD 
 144      EBBB8343 
 144      577A95
 145 0100 3E2F4EDE 		.ascii	">/N\336Ws&0\036\216\"\305\032\026\340\301\"$\036\226"
 145      57732630 
 145      1E8E22C5 
 145      1A16E0C1 
 145      22241E96 
 146 0114 30013A47 		.ascii	"0\001:G\337\325\300;2\201Z&\363\371x<\236\253\002\034"
 146      DFD5C03B 
 146      32815A26 
 146      F3F9783C 
 146      9EAB021C 
 147 0128 598465A9 		.ascii	"Y\204e\251=\005\247y%\223\024\321\025\302\011\373\210"
 147      3D05A779 
 147      259314D1 
 147      15C209FB 
 147      88
 148 0139 7F3DA430 		.ascii	"\177=\2440\241\360\344\275\262\006\263\335\264Z\273"
 148      A1F0E4BD 
 148      B206B3DD 
 148      B45ABB
ARM GAS  C:\Users\Luggi\AppData\Local\Temp\ccmud0fg.s 			page 11


 149 0148 CC36430F 		.ascii	"\3146C\017u[\001\323\337\244\207\352\252\375\265\365"
 149      755B01D3 
 149      DFA487EA 
 149      AAFDB5F5 
 150 0158 75865EEB 		.ascii	"u\206^\3533t\263\323\2504\032}\315\025\001ruX\301\220"
 150      3374B3D3 
 150      A8341A7D 
 150      CD150172 
 150      7558C190 
 151 016c 15ECEAF9 		.ascii	"\025\354\352\371\001Z\034\212\246"
 151      015A1C8A 
 151      A6
 152              		.text
 153              		.section	.gnu.lto_ADC_SAR_Seq_1_IRQ_Enable.304933b6,"",%progbits
 154 0000 789C6366 		.ascii	"x\234cf\300\004R@|\007\210u\201\230\221\231\201\221"
 154      C0045240 
 154      7C078875 
 154      81989199 
 154      8191
 155 0012 69C23906 		.ascii	"i\3029\006\206F\016&FF\020\203\201\221\241\236\211\261"
 155      86460E26 
 155      46461083 
 155      8191A19E 
 155      89B1
 156 0024 9EF125D3 		.ascii	"\236\361%\323G&\306\011\007V\317\340V_\332\320\320\360"
 156      4726C609 
 156      0756CFE0 
 156      565FDAD0 
 156      D0F0
 157 0036 61D35CC9 		.ascii	"a\323\\\311V\211\237L\014\014\237\231 \3060.gTg\000"
 157      56899F4C 
 157      0C0C9F99 
 157      20C6302E 
 157      67546700 
 158 004a AAF9D8F2 		.ascii	"\252\371\330\362\367:7[\013P\215\000D\216q\005#\033"
 158      F73A375B 
 158      0B508D00 
 158      448E7105 
 158      231B
 159 005c 23905E2F 		.ascii	"#\220^/t\240\341\377\377\315\337\246\274\260faf`x\002"
 159      74A0E1FF 
 159      FFCDDFA6 
 159      BCB06661 
 159      66607802 
 160 0070 940359F0 		.ascii	"\224\003Y\360\224\211\011D3\337b<\364a\303\367#\234"
 160      94890944 
 160      33DF623C 
 160      F461C3F7 
 160      239C
 161 0082 20E54063 		.ascii	" \345@c>\275n\230\313\362\202\351'\023c\303\241\346"
 161      3EBD6E98 
 161      CBF282E9 
 161      271363C3 
 161      A1E6
 162 0094 063E90C9 		.ascii	"\006>\220\311\367\237\234\277\310\001\026b\000q\277"
 162      F79F9CBF 
 162      C8011662 
ARM GAS  C:\Users\Luggi\AppData\Local\Temp\ccmud0fg.s 			page 12


 162      0071BF
 163 00a3 7C5A3489 		.ascii	"|Z4\211w.\343\354\306\226\306\003\254?\231\230\030W"
 163      772EE3EC 
 163      C696C603 
 163      AC3F9998 
 163      1857
 164 00b5 324A31AE 		.ascii	"2J1\256b\004z\207q5\343\\F\240\212%\027\357_d\006i`"
 164      62047A87 
 164      7135E35C 
 164      46A08A25 
 164      17EF5F64 
 165 00cc 6261605C 		.ascii	"ba`\\\003\224\271\307\330x\340~0\310\006\220\213\237"
 165      0394B9C7 
 165      D878E07E 
 165      30C80690 
 165      8B9F
 166 00de 000D02DA 		.ascii	"\000\015\002\332\014t\207\266{j^jQbIjJ|p~iQrjL@p\276"
 166      0C7487B6 
 166      7B6A5E6A 
 166      5162496A 
 166      4A7C707E 
 167 00fa B3698CA3 		.ascii	"\263i\214\243\213s|\260cP|pja\274a\274gP\240^2\003\000"
 167      8B737CB0 
 167      63507C70 
 167      6A61BC61 
 167      BC6750A0 
 168 0112 73D1616C 		.ascii	"s\321al"
 169              		.text
 170              		.section	.gnu.lto_ADC_SAR_Seq_1_IRQ_GetState.304933b6,"",%progbits
 171 0000 789C6550 		.ascii	"x\234ePK(\204Q\024>\337\271\377\214\311;\013\351_\330"
 171      4B288451 
 171      143EDFB9 
 171      FF8CC93B 
 171      0BE95FD8 
 172 0014 4EF24AB2 		.ascii	"N\362J\262\263\021%;\314V\375i\374[\"\326\356\230!\311"
 172      B311253B 
 172      CC56FD69 
 172      FC5B22D6 
 172      EE9821C9 
 173 0028 424A8966 		.ascii	"BJ\211f\243\2147\013+\217\205\254,&\232\220(l\020\261"
 173      A38C370B 
 173      2B8F85AC 
 173      2C269A90 
 173      286C10B1 
 174 003c F00AB3F0 		.ascii	"\360\012\263\3608w\306Fn\335s\356=\347\373\276\363u"
 174      3877C646 
 174      6EDD73EE 
 174      3DE7FBBE 
 174      F375
 175 004e 14FD3FD5 		.ascii	"\024\375?\325r\203 *\227\014\017\201\307\366\211B>f"
 175      7283202A 
 175      970C0F81 
 175      C7F68942 
 175      3E66
 176 0060 6BBB9874 		.ascii	"k\273\230t\246:\252$\235\255`\245\313\026`\036\004\352"
 176      A63AAA24 
 176      9DAD60A5 
ARM GAS  C:\Users\Luggi\AppData\Local\Temp\ccmud0fg.s 			page 13


 176      CB16601E 
 176      04EA
 177 0072 6765A11F 		.ascii	"ge\241\037w\374\304\210o|\035\302?\253\365\300\343\300"
 177      77FCC488 
 177      6F7C1DC2 
 177      3FABF5C0 
 177      E3C0
 178 0084 FA79D660 		.ascii	"\372y\326`Q\222\211^\230Pf\243\3046\3609\370I\200O\221"
 178      5192895E 
 178      985066A3 
 178      C436F039 
 178      F849804F 
 179 0099 CF932C6F 		.ascii	"\317\223,oDk\235o\372\322\230\207W\206\323Z\301\216"
 179      446B9D6F 
 179      FAD29887 
 179      5786D35A 
 179      C18E
 180 00ab FEFE7E89 		.ascii	"\376\376~\211O\014\373=\036\220\360\225\004X&\020]\011"
 180      4F0CFB3D 
 180      1E90F095 
 180      04582610 
 180      5D09
 181 00bd D48CBD66 		.ascii	"\324\214\275f6Y\235a\367m\344\342\264\326\260\337Y\211"
 181      36599D61 
 181      F76DE4E2 
 181      B4D6B0DF 
 181      5989
 182 00cf F0F3BD8E 		.ascii	"\360\363\275\216Z\267\234d\326\273a\235kf]^\035$|\251"
 182      5AB79C64 
 182      D6BB619D 
 182      6B665D5E 
 182      1D247CA9 
 183 00e3 1299EFEB 		.ascii	"\022\231\357\353\363\314xN\024\323\241\010\222\254\260"
 183      F3CC784E 
 183      14D3A108 
 183      92ACB0
 184 00f2 001B8B10 		.ascii	"\000\033\213\020oXB\024t\206\360\307\320\203'-h\245"
 184      6F584214 
 184      7486F0C7 
 184      D083272D 
 184      68A5
 185 0104 3537C7F7 		.ascii	"57\307\367&\275F@l`Y\260\307\210\234\206\013\1771\002"
 185      26BD4640 
 185      6C6059B0 
 185      C7889C86 
 185      0B7F3102 
 186 0118 08C5B646 		.ascii	"\010\305\266F3R\000\221Y1bd\274*:\252T\327l\245\254"
 186      33520091 
 186      59316264 
 186      BC2A3AAA 
 186      54D76CA5 
 187 012d 5E006982 		.ascii	"^\000i\202`n\000a%\246b\341<\303\222%b\0256\3771kv\262"
 187      606E0061 
 187      25A662E1 
 187      3CC39225 
 187      621536FF 
 188 0145 065B1921 		.ascii	"\006[\031!\030\005\251\2246\272\235nO{\257\333\341\004"
ARM GAS  C:\Users\Luggi\AppData\Local\Temp\ccmud0fg.s 			page 14


 188      1805A994 
 188      36BA9D6E 
 188      4F7BAFDB 
 188      E104
 189 0157 BAFA7A82 		.ascii	"\272\372z\202n[s\240\253\276\246\255\256\241\336\011"
 189      6E5B73A0 
 189      ABBEA6AD 
 189      AEA1DE09 
 190 0167 D4B53A01 		.ascii	"\324\265:\001\267\333\251r\232Z[*\202\364\003\267*\214"
 190      B7DBA972 
 190      9A5A5B2A 
 190      82F403B7 
 190      2A8C
 191 0179 00       		.ascii	"\000"
 192              		.text
 193              		.section	.gnu.lto_ADC_SAR_Seq_1_IRQ_Disable.304933b6,"",%progbits
 194 0000 789C6366 		.ascii	"x\234cf\300\004R@|\007\210u\201\230\221\231\201\221"
 194      C0045240 
 194      7C078875 
 194      81989199 
 194      8191
 195 0012 69C23906 		.ascii	"i\3029\006\206F\016&FF\020\203\201\221\241\236\211\261"
 195      86460E26 
 195      46461083 
 195      8191A19E 
 195      89B1
 196 0024 9EF125D3 		.ascii	"\236\361%\323G&\306\011\007V\317\340V_\332\320\320\360"
 196      4726C609 
 196      0756CFE0 
 196      565FDAD0 
 196      D0F0
 197 0036 E1D276C9 		.ascii	"\341\322v\311V\211\237L\014\014\237\231 \3060.gTg\000"
 197      56899F4C 
 197      0C0C9F99 
 197      20C6302E 
 197      67546700 
 198 004a AAF9D8F2 		.ascii	"\252\371\330\362\367:7[\013P\215\000D\216q\005#\033"
 198      F73A375B 
 198      0B508D00 
 198      448E7105 
 198      231B
 199 005c 23905E2F 		.ascii	"#\220^/t\240\341\377\377\315\367\247\2560bef`x\002\224"
 199      74A0E1FF 
 199      FFCDF7A7 
 199      AE306265 
 199      66607802 
 200 0071 0359F094 		.ascii	"\003Y\360\224\211\011D3\337b<\364a\303\223\243\234 "
 200      89094433 
 200      DF623CF4 
 200      61C393A3 
 200      9C20
 201 0083 E5406326 		.ascii	"\345@c&\276o?\313\365\202\351'\023c\303\341\346\006"
 201      BE6F3FCB 
 201      F582E927 
 201      1363C3E1 
 201      E606
 202 0095 3E90C9F7 		.ascii	">\220\311\367\237\234\277\310\001\026b\000q/\2664\374"
ARM GAS  C:\Users\Luggi\AppData\Local\Temp\ccmud0fg.s 			page 15


 202      9F9CBFC8 
 202      01166200 
 202      712FB634 
 202      FC
 203 00a6 659DCB38 		.ascii	"e\235\3138\273\261\245\361\000\353O&&\306\225\214R\214"
 203      BBB1A5F1 
 203      00EB4F26 
 203      26C6958C 
 203      528C
 204 00b8 AB1881DE 		.ascii	"\253\030\201\336a\\\3158\227\021\250b\311\305\373\027"
 204      615CCD38 
 204      9711A862 
 204      C9C5FB17 
 205 00c8 99411A98 		.ascii	"\231A\032\230X\030\030\327\000e\35616\036\230\034\016"
 205      581818D7 
 205      0065EE31 
 205      361E981C 
 205      0E
 206 00d9 B201E4E2 		.ascii	"\262\001\344\342'@\203\2006\003\335\241\355\236\232"
 206      27408380 
 206      3603DDA1 
 206      ED9E9A
 207 00e8 975A9458 		.ascii	"\227Z\224X\222\232\022\037\234_Z\224\234\032\023\020"
 207      929A121F 
 207      9C5F5A94 
 207      9C1A1310 
 208 00f8 9CEF6C1A 		.ascii	"\234\357l\032\343\350\342\034\037\354\030\024\037\234"
 208      E3E8E21C 
 208      1FEC1814 
 208      1F9C
 209 0106 5A186F18 		.ascii	"Z\030o\030\357\031\024\250\227\314\000\000\017\321`"
 209      EF1914A8 
 209      97CC0000 
 209      0FD160
 210 0115 7F       		.ascii	"\177"
 211              		.text
 212              		.section	.gnu.lto_ADC_SAR_Seq_1_IRQ_Start.304933b6,"",%progbits
 213 0000 789C6D8F 		.ascii	"x\234m\217=K\003A\020\206\347\2353\233@\032\261\314"
 213      3D4B0341 
 213      1086E79D 
 213      339B401A 
 213      B1CC
 214 0012 1F48210A 		.ascii	"\037H!\012\026\376\200\020Q\254\214\2716pH\274\326`"
 214      16FE8010 
 214      51AC8CB9 
 214      367048BC 
 214      D660
 215 0024 D0F2C81D 		.ascii	"\320\362\310\035^a%\261\021\013\261\021\361#\032\301"
 215      5E6125B1 
 215      110BB111 
 215      F1231AC1 
 216 0034 8FDAB3B1 		.ascii	"\217\332\263\261T\320\302&\210\205\202bc\270B\016\221"
 216      54D0C226 
 216      88858262 
 216      63B8420E 
 216      91
 217 0045 387B6721 		.ascii	"8{g!\230\205e\027\336g\236\2311\350\377\311\311\235"
ARM GAS  C:\Users\Luggi\AppData\Local\Temp\ccmud0fg.s 			page 16


 217      98856517 
 217      DE679E99 
 217      31E8FFC9 
 217      C99D
 218 0057 01D188BC 		.ascii	"\001\321\210\2740\010\334\274!\3622\014\350\017\201"
 218      3008DCBC 
 218      21F2320C 
 218      E80F81
 219 0066 1A8C06DE 		.ascii	"\032\214\006\336\270\313h\006\255\315l~\327u\335\217"
 219      B8CB6806 
 219      ADCD6C7E 
 219      D775DD8F 
 220 0076 BB5BAF14 		.ascii	"\273[\257\024 b\242\220\023\017\366\220'\201\272\376"
 220      2062A290 
 220      130FF690 
 220      2781BAFE 
 221 0086 F74356F9 		.ascii	"\367CV\371\002\015&\031\366\241\304O'C\201\333\353\235"
 221      020D2619 
 221      F6A1C44F 
 221      274381DB 
 221      EB9D
 222 0098 5D5E9D2B 		.ascii	"]^\235+E\364,\221n\360\302\254_\243\203\225`\375\232"
 222      45F42C91 
 222      6EF0C2AC 
 222      5FA38395 
 222      60FD9A
 223 00ab 35AC2DDB 		.ascii	"5\254-\333\367kmv\276\334U7\0231B\026\001\016\340P$"
 223      F76B6D76 
 223      BEDC5537 
 223      13314216 
 223      010EE050 
 224 00c0 78077EB0 		.ascii	"x\007~\260\241\372\222F(9\341P\310?Q\2420\342\012\264"
 224      A1FA9246 
 224      2839E150 
 224      C83F51A2 
 224      30E20AB4 
 225 00d4 E0443C10 		.ascii	"\340D<\020K\266\372KR\241\344\204\243D\362\271\363\364"
 225      4BB6FA4B 
 225      52A1E484 
 225      A344F2B9 
 225      F3F4
 226 00e6 8E578E58 		.ascii	"\216W\216X\245\011\307\310E\234&=\354i\377bi\224\222"
 226      A509C7C8 
 226      459C263D 
 226      EC69FF62 
 226      699492
 227 00f9 E2F6EFAC 		.ascii	"\342\366\357\254\217\360\202\213\311\230$\2754\364\262"
 227      8FF0828B 
 227      C99824BD 
 227      34F4B2
 228 0108 32E2F094 		.ascii	"2\342\360\224\275`\327\347\226\354y\313\254-\327\253"
 228      BD60D7E7 
 228      96EC79CB 
 228      AC2DD7AB 
 229 0118 76A564D6 		.ascii	"v\245d\326\212\343\225\302D\3212\013e\313\264\027\255"
 229      8AE395C2 
 229      44D1320B 
ARM GAS  C:\Users\Luggi\AppData\Local\Temp\ccmud0fg.s 			page 17


 229      65CBB417 
 229      AD
 230 0129 316BBA3C 		.ascii	"1k\272<;Z\245\037\310\230\205>"
 230      3B5AA51F 
 230      C898853E 
 231              		.text
 232              		.section	.gnu.lto_ADC_SAR_Seq_1_IRQ_StartEx.304933b6,"",%progbits
 233 0000 789C6D8F 		.ascii	"x\234m\217K(\204Q\024\307\317\377\3341\3370\026\262"
 233      4B288451 
 233      14C7CFFF 
 233      DC31DF30 
 233      16B2
 234 0012 D2AC6C64 		.ascii	"\322\254ld\241\224\205\225\015Q\262cf\253\276d\276-"
 234      A1948595 
 234      0D51B263 
 234      66ABBE64 
 234      BE2D
 235 0024 192CE562 		.ascii	"\031,\345b\024\033\257R\263\262\221\214\327xl\344\261"
 235      141BAF52 
 235      B3B2918C 
 235      D7786CE4 
 235      B1
 236 0035 F8B261C3 		.ascii	"\370\262a\303\202\204<\262\240\274\026\364)}I\234;\354"
 236      82843CB2 
 236      A0BC16F4 
 236      297D499C 
 236      3BEC
 237 0047 CCADDB39 		.ascii	"\314\255\3339\347\336\337\371\237\377Q\364\377D\344"
 237      E7DEDFF9 
 237      9FFF51F4 
 237      FF44E4
 238 0056 4E83A85A 		.ascii	"N\203\250Z\"\024\201'\216\210\006B\014\230\204@\375"
 238      22148127 
 238      8E880642 
 238      0C988440 
 238      FD
 239 0067 8C7E3CF2 		.ascii	"\214~<\362\033c\302]J\205\313\347\264\326\257\203;%"
 239      1B63C25D 
 239      4A85CBE7 
 239      B4D6AF83 
 239      3B25
 240 0079 C3253E13 		.ascii	"\303%>\023y\374+\203y\224\033\344\371b\274PU\202$\337"
 240      79FC2B83 
 240      79941BE4 
 240      F962BC50 
 240      558224DF 
 241 008d CABC1F86 		.ascii	"\312\274\037\206\037\330g\224\232r{\352 \0254%\007L"
 241      1FD86794 
 241      9A727BEA 
 241      20153425 
 241      074C
 242 009f F9347ABA 		.ascii	"\3714z\272\247\312f\265\036t\2577tm\300g\2054\224\350"
 242      A7CA66B5 
 242      1E74AF37 
 242      746DC067 
 242      853494E8 
 243 00b3 6101112C 		.ascii	"a\001\021,\"B\362DXB\231\301\337\222_g\341`Rf\027\375"
ARM GAS  C:\Users\Luggi\AppData\Local\Temp\ccmud0fg.s 			page 18


 243      2242F244 
 243      584299C1 
 243      DF925F67 
 243      E1605266 
 244 00c9 CEC43282 		.ascii	"\316\3042\202b\233V\213]\375\375\355\275L\246k`)dy\272"
 244      629B568B 
 244      5DFDFDED 
 244      BD4CA66B 
 244      60296479 
 245 00de 13C2D8BF 		.ascii	"\023\302\330\277g6Q]a\310\335\334g\323c\304fN\3062\334"
 245      6736515D 
 245      61C8DDDC 
 245      67D363C4 
 245      664EC632 
 246 00f3 F7A94774 		.ascii	"\367\251Gt\310\347\200\307\242\203\025\364\311\300<"
 246      C8E780C7 
 246      A28315F4 
 246      C9C03C
 247 0102 BA42D2DD 		.ascii	"\272B\322\335\265r\222AO\344\010\031!?X\371le\341\343"
 247      B5729241 
 247      4FE40819 
 247      213F58F9 
 247      6C65E1E3 
 248 0116 DC70C813 		.ascii	"\334p\310\023\367\204U\201\345\353c\366\366\031f\371"
 248      F7845581 
 248      E5EB63F6 
 248      F61966F9 
 249 0126 7C8BB086 		.ascii	"|\213\260\206\210\317\005dL\235\347n\026O\001i^\377"
 249      88CF0564 
 249      4C9DE76E 
 249      164F0169 
 249      5EFF
 250 0138 F3748301 		.ascii	"\363t\203\001\367\2621K\222Y\016f)\261R\321\350t8\211"
 250      F7B2314B 
 250      92590E66 
 250      29B152D1 
 250      E8743889 
 251 014c B61E276E 		.ascii	"\266\036'n\307:{\023\355Nks\254\263\276\272\265\256"
 251      C73A7B13 
 251      ED4E6B73 
 251      ACB3BEBA 
 251      B5AE
 252 015e A1DE8ED5 		.ascii	"\241\336\216\325E\355\230\323eW\331M\321\226\312v\262"
 252      45ED98D3 
 252      6557D94D 
 252      D196CA76 
 252      B2
 253 016f DAE2F184 		.ascii	"\332\342\361\204\323\335\375\003|r\240B"
 253      D3DDFD03 
 253      7C72A042 
 254              		.text
 255              		.section	.gnu.lto_ADC_SAR_Seq_1_IRQ_Stop.304933b6,"",%progbits
 256 0000 789C6366 		.ascii	"x\234cf\300\004R@\374\002\210u\201\230\221\231\201\221"
 256      C0045240 
 256      FC028875 
 256      81989199 
 256      8191
ARM GAS  C:\Users\Luggi\AppData\Local\Temp\ccmud0fg.s 			page 19


 257 0012 69C23906 		.ascii	"i\3029\006\206F\016&FF\020\203\201\221\241\236\211\261"
 257      86460E26 
 257      46461083 
 257      8191A19E 
 257      89B1
 258 0024 9EF125D3 		.ascii	"\236\361%\323G&\306\011\007V\317\340V_\332\320\320\360"
 258      4726C609 
 258      0756CFE0 
 258      565FDAD0 
 258      D0F0
 259 0036 E1D14589 		.ascii	"\341\321E\211V\211\237L\014\014\237\231 \3060.gTg\000"
 259      56899F4C 
 259      0C0C9F99 
 259      20C6302E 
 259      67546700 
 260 004a AAF9D8F2 		.ascii	"\252\371\330\362\367:7[\013P\215\000D\216q\005#\033"
 260      F73A375B 
 260      0B508D00 
 260      448E7105 
 260      231B
 261 005c 23905E2F 		.ascii	"#\220^/t\240\341\377\377\317\307'\255Pgba`x\002\224"
 261      74A0E1FF 
 261      FFCFC727 
 261      AD506762 
 261      61607802 
 262 0071 0359F094 		.ascii	"\003Y\360\224\211\011D3\337al>\260\371\024\023H5\310"
 262      89094433 
 262      DF616C3E 
 262      B0F91413 
 262      4835C8
 263 0084 987997FB 		.ascii	"\230y\227\373\3261\325\376n\350h\340\370\311\304\370"
 263      D631D5FE 
 263      6EE868E0 
 263      F8C9C4F8 
 264 0094 99096802 		.ascii	"\231\011h\002\343J\306Z\206\237@\345w\030[\016\354\340"
 264      E34AC65A 
 264      869F40E5 
 264      77185B0E 
 264      ECE0
 265 00a6 C2AA92F9 		.ascii	"\302\252\222\3713P\236\201q\025P%\222\024\304\010f\260"
 265      33509E81 
 265      71155025 
 265      9214C408 
 265      66B0
 266 00b8 0EC6D58C 		.ascii	"\016\306\325\214\265?\201\016\270\307\330x`\267\027"
 266      B53F810E 
 266      B8C7D878 
 266      60B717
 267 00c7 588801E4 		.ascii	"X\210\001\344\032F\220+\200z\265\335S\363R\213\022K"
 267      1A46902B 
 267      807AB5DD 
 267      53F3528B 
 267      124B
 268 00d9 5253E283 		.ascii	"RS\342\203\363K\213\222Sc\002\202\363\235Mc\034]\234"
 268      F34B8B92 
 268      53630282 
 268      F39D4D63 
ARM GAS  C:\Users\Luggi\AppData\Local\Temp\ccmud0fg.s 			page 20


 268      1C5D9C
 269 00ec E3831D83 		.ascii	"\343\203\035\203\342\203S\013\343\015\343=\203\002\365"
 269      E283530B 
 269      E30DE33D 
 269      8302F5
 270 00fb 92190023 		.ascii	"\222\031\000#\256a\343"
 270      AE61E3
 271              		.text
 272              		.section	.gnu.lto_ADC_SAR_Seq_1_IRQ_SetPending.304933b6,"",%progbits
 273 0000 789C6366 		.ascii	"x\234cf\300\004R@|\007\210u\201\230\221\231\201\221"
 273      C0045240 
 273      7C078875 
 273      81989199 
 273      8191
 274 0012 69C23906 		.ascii	"i\3029\006\206F\016&FF\020\203\201\221\241\236\211\261"
 274      86460E26 
 274      46461083 
 274      8191A19E 
 274      89B1
 275 0024 9EF125D3 		.ascii	"\236\361%\323G&\306\011\007V\317\340V_\332\320\320\360"
 275      4726C609 
 275      0756CFE0 
 275      565FDAD0 
 275      D0F0
 276 0036 A169BF64 		.ascii	"\241i\277d\253\304O&\006\206\317L\020c\030\2273\252"
 276      ABC44F26 
 276      0686CF4C 
 276      10631897 
 276      33AA
 277 0048 3300D57C 		.ascii	"3\000\325|l\371{\235\233\255\005\250F\000\"\307\270"
 277      6CF97B9D 
 277      9BAD05A8 
 277      460022C7 
 277      B8
 278 0059 82918D11 		.ascii	"\202\221\215\021H\257\027:\320\360\377\377\347?S_\330"
 278      48AF173A 
 278      D0F0FFFF 
 278      E73F535F 
 278      D8
 279 006a B1323330 		.ascii	"\261230<\001\312\201,x\312\304\004\242\231o1\036\372"
 279      3C01CA81 
 279      2C78CAC4 
 279      04A2996F 
 279      311EFA
 280 007d B0E1EF51 		.ascii	"\260\341\357QN\220r\2401[n\255}\310\361\202\351'\023"
 280      4E9072A0 
 280      315B6EAD 
 280      7DC8F182 
 280      E92713
 281 0090 63C391E6 		.ascii	"c\303\221\346\006>\220\311\367\237\234\277\010\021b"
 281      063E90C9 
 281      F79F9CBF 
 281      081162
 282 009f 0071A736 		.ascii	"\000q\2476\317\372\3101\227qvcK\343\001\326\237LL\214"
 282      CFFAC831 
 282      97717663 
 282      4BE301D6 
ARM GAS  C:\Users\Luggi\AppData\Local\Temp\ccmud0fg.s 			page 21


 282      9F4C4C8C 
 283 00b3 2B19A518 		.ascii	"+\031\245\030W1\002\275\303\270\232q.#P\305\222\213"
 283      573102BD 
 283      C3B89A71 
 283      2E2350C5 
 283      928B
 284 00c5 F72F3283 		.ascii	"\367/2\20340\26100\256\001\312\334cl<\360=\034d\003"
 284      3430B130 
 284      30AE01CA 
 284      DC636C3C 
 284      F03D1C64 
 285 00da C8C54F80 		.ascii	"\310\305O\200\006\001m\006\272C\333=5/\265(\261$5%>"
 285      06016D06 
 285      BA43DB3D 
 285      352FB528 
 285      B1243525 
 286 00ef 38BFB428 		.ascii	"8\277\264(95& 8\337\3314\306\321\3059>\3301(>8\2650"
 286      39352620 
 286      38DFD934 
 286      C6D1C539 
 286      3ED83128 
 287 0107 DE30DE33 		.ascii	"\3360\3363(P/\231\001\000\206rax"
 287      28502F99 
 287      01008672 
 287      6178
 288              		.text
 289              		.section	.gnu.lto_ADC_SAR_Seq_1_IRQ_ClearPending.304933b6,"",%progbits
 290 0000 789C6366 		.ascii	"x\234cf\300\004R@|\007\210u\201\230\221\231\201\221"
 290      C0045240 
 290      7C078875 
 290      81989199 
 290      8191
 291 0012 69C23906 		.ascii	"i\3029\006\206F\016&FF\020\203\201\221\241\236\211\261"
 291      86460E26 
 291      46461083 
 291      8191A19E 
 291      89B1
 292 0024 9EF125D3 		.ascii	"\236\361%\323G&\306\011\007V\317\340V_\332\320\320\360"
 292      4726C609 
 292      0756CFE0 
 292      565FDAD0 
 292      D0F0
 293 0036 61D255C9 		.ascii	"a\322U\311V\211\237L\014\014\237\231 \3060.gTg\000\252"
 293      56899F4C 
 293      0C0C9F99 
 293      20C6302E 
 293      67546700 
 294 004b F9D8F2F7 		.ascii	"\371\330\362\367:7[\013P\215\000D\216q\005#\033#\220"
 294      3A375B0B 
 294      508D0044 
 294      8E710523 
 294      1B2390
 295 005e 5E2F74A0 		.ascii	"^/t\240\341\377\377\315W\247uh\263130<\001\312\201,"
 295      E1FFFFCD 
 295      57A77568 
 295      B3313330 
 295      3C01CA81 
ARM GAS  C:\Users\Luggi\AppData\Local\Temp\ccmud0fg.s 			page 22


 296 0073 78CAC404 		.ascii	"x\312\304\004\242\231o1\036\372\360\341\3521N\220r\240"
 296      A2996F31 
 296      1EFAF0E1 
 296      EA314E90 
 296      72A0
 297 0085 317D93E6 		.ascii	"1}\223\346\266\362\276`\372\311\304\330p\264\271\201"
 297      B6F2BE60 
 297      FAC9C4D8 
 297      70B4B981 
 298 0095 0F64F2FD 		.ascii	"\017d\362\375'\347/r\200\205\030@\3349\0353v\263\317"
 298      27E72F72 
 298      80851840 
 298      DC391D33 
 298      76B3CF
 299 00a8 659CDDD8 		.ascii	"e\234\335\330\322x\200\365'\023\023\343JF)\306U\214"
 299      D27880F5 
 299      271313E3 
 299      4A4629C6 
 299      558C
 300 00ba 40EF30AE 		.ascii	"@\3570\256f\234\313\010T\261\344\342\375\213\314 \015"
 300      669CCB08 
 300      54B1E4E2 
 300      FD8BCC20 
 300      0D
 301 00cb 4C2C0C8C 		.ascii	"L,\014\214k\2002\367\030\033\017\334\214\002\331\000"
 301      6B8032F7 
 301      181B0FDC 
 301      8C02D900 
 302 00db 72F113A0 		.ascii	"r\361\023\240A@\233\201\356\320vO\315K-J,IM\211\017"
 302      41409B81 
 302      EED0764F 
 302      CD4B2D4A 
 302      2C494D89 
 303 00f0 CE2F2D4A 		.ascii	"\316/-JN\215\011\010\316w6\215qtq\216\017v\014\212\017"
 303      4E8D0908 
 303      CE77368D 
 303      7174718E 
 303      0F760C8A 
 304 0105 4E2D8C37 		.ascii	"N-\2147\214\367\014\012\324Kf\000\000\201\301_\303"
 304      8CF70C0A 
 304      D44B6600 
 304      0081C15F 
 304      C3
 305              		.text
 306              		.section	.gnu.lto_.symbol_nodes.304933b6,"",%progbits
 307 0000 789C55CA 		.ascii	"x\234U\312\301\015\3020\014\205\341\347\270i\342\264"
 307      C10DC230 
 307      0C85E1E7 
 307      B869E2B4 
 308 0010 1D86095F 		.ascii	"\035\206\011_\305\211#'\316\210\023s0\0003\000\203 "
 308      C5892327 
 308      CE881373 
 308      30003300 
 308      8320
 309 0022 A22642B5 		.ascii	"\242&B\265/O\237~+\200\203\240]P\002\347'@\342r\317"
 309      2F4F9F7E 
 309      2B8083A0 
ARM GAS  C:\Users\Luggi\AppData\Local\Temp\ccmud0fg.s 			page 23


 309      5D5002E7 
 309      2740E272 
 310 0037 0803C3DF 		.ascii	"\010\003\303\337\327\352Hu\03698'F\347\314\321\331\230"
 310      D7EA4875 
 310      1E393827 
 310      46E7CCD1 
 310      D998
 311 0049 9C0BB333 		.ascii	"\234\013\2633h\316\302\342\0348\355-\013\245\031\353"
 311      68CEC2E2 
 311      1C38ED2D 
 311      0BA519EB 
 312 0059 A9E689B3 		.ascii	"\251\346\211\263{\237\271\354\2559\341\366\372\212f"
 312      7B9FB9EC 
 312      AD39E1F6 
 312      FA8A66
 313 0068 C1635BC5 		.ascii	"\301c[\305g\333\210\343\273\256\365n\275[\357\326{\351"
 313      67DB88E3 
 313      BBAEF56E 
 313      BD5BEFD6 
 313      7BE9
 314 007a BDB48E1F 		.ascii	"\275\264\216\037\257\376T\012"
 314      AFFE540A 
 315              		.text
 316              		.section	.gnu.lto_.refs.304933b6,"",%progbits
 317 0000 789C6366 		.ascii	"x\234cf``\340f\200\000F\016&\006&F.&n&\006\000\002\015"
 317      6060E066 
 317      8000460E 
 317      26062646 
 317      2E266E26 
 318 0018 0036     		.ascii	"\0006"
 319              		.text
 320              		.section	.gnu.lto_.decls.304933b6,"",%progbits
 321 0000 789C8D56 		.ascii	"x\234\215VmLSW\030\276\247\247-\245Tp\177\320\261\217"
 321      6D4C5357 
 321      18BEA7A7 
 321      2DA55470 
 321      7FD0B18F 
 322 0014 C01F9665 		.ascii	"\300\037\226e\306e\232%\376\233\016\015:\223\005%\333"
 322      C6659A25 
 322      FE9B0E0D 
 322      3A930525 
 322      DB
 323 0025 1F4D1883 		.ascii	"\037M\030\203;GB\212+%\031\311~\\A\306\307\234c\014"
 323      3B47428A 
 323      2B2519C9 
 323      7E5C41C6 
 323      C79C630C 
 324 0039 33363725 		.ascii	"367%\002N\220/\021*\005\231\005D\212\265\012\362%\024"
 324      024E902F 
 324      112A0599 
 324      05448AB5 
 324      0AF22514 
 325 004d C7876099 		.ascii	"\307\207`\231\370\301t\232\031\321\356=\347\334kO\345"
 325      F8C1749A 
 325      19D1EE3D 
 325      E7DC6B4F 
 325      E5
ARM GAS  C:\Users\Luggi\AppData\Local\Temp\ccmud0fg.s 			page 24


 326 005e A2DEE46D 		.ascii	"\242\336\344m\357\275\347}\236\347}\237\363\321bA\020"
 326      EFBDE77D 
 326      9EE77D9F 
 326      F3D16241 
 326      10
 327 006f 3EC382E0 		.ascii	">\303\202\340\203\313n\020\204y$\010\241\360.\016B\003"
 327      83CB6E10 
 327      84792408 
 327      A1F02E0E 
 327      4203
 328 0081 110E715C 		.ascii	"\021\016q\\`\027y_\003Q\007a\203\260Ct@tAtC\364@\270"
 328      6017795F 
 328      03510761 
 328      83B04374 
 328      40744174 
 329 0099 20DC1097 		.ascii	" \334\020\227 \372 \372!\006\205\305\027\341A\262\216"
 329      20FA20FA 
 329      210685C5 
 329      17E141B2 
 329      8E
 330 00aa 20DFD7A8 		.ascii	" \337\327\250\344\021\035\275\234G\364M\020\015\020"
 330      E4111DBD 
 330      9C47F44D 
 330      100D10
 331 00b9 4310C31C 		.ascii	"C\020\303\034\326\246\202%\365\351^\200\263\253\340"
 331      D6A68225 
 331      F5E95E80 
 331      B3ABE0
 332 00c8 3A641CD1 		.ascii	":d\034\321l\223=\030\205\030\343p\035*\270.\031\247"
 332      6C933D18 
 332      8518E370 
 332      1D2AB82E 
 332      19A7
 333 00da 60C664DC 		.ascii	"`\306d\334G\034\256K\005G\274\303\262\336u\210\031."
 333      471CAE4B 
 333      0547BCC3 
 333      B2DE7588 
 333      192E
 334 00ec BF5B259F 		.ascii	"\277[%\237\370\254\225u\242T0=*\030\327s4\\*\371d\016"
 334      F8AC9575 
 334      A254303D 
 334      2A18D773 
 334      345C2AF9 
 335 0102 0D723E99 		.ascii	"\015r>\231\377J\010/D#\304\254\334\237C\316\325\313"
 335      FF4A082F 
 335      4423C4AC 
 335      DC9F43CE 
 335      D5CB
 336 0114 F98487CC 		.ascii	"\371\204\207\314\003\231\307\216%j'\353\"DX<\237/\322"
 336      0399C78E 
 336      256A27EB 
 336      2244583C 
 336      9F2FD2
 337 0127 D0C95845 		.ascii	"\320\311XEc)\376>\301?w\317r\222K+\347(<u*\034d\315"
 337      6329FE3E 
 337      C13F77CF 
 337      72924B2B 
ARM GAS  C:\Users\Luggi\AppData\Local\Temp\ccmud0fg.s 			page 25


 337      E7283C75 
 338 013f 2EE555BF 		.ascii	".\345U\277J\376\340s\362\325\326\376?\032d\257\375\327"
 338      4AFEE073 
 338      F2D5D6FE 
 338      3F1A64AF 
 338      FDD7
 339 0151 1D32AB41 		.ascii	"\0352\253A\241\306H\362\330R\344,\321\303\243\311\250"
 339      A1C648F2 
 339      D852E42C 
 339      D1C3A3C9 
 339      A8
 340 0162 258FAD8F 		.ascii	"%\217\255\217\246\006\264+\016Hp\025fK\313\265(.\034"
 340      A606B42B 
 340      0E487015 
 340      664BCBB5 
 340      282E1C
 341 0175 FD8122D0 		.ascii	"\375\201\"\3201\024\001\254\225h\005|\356\3202\246\262"
 341      311401AC 
 341      9568057C 
 341      EED032A6 
 341      B2
 342 0186 92C901E3 		.ascii	"\222\311\001\343\252*H\315\223\034\313\375\012u\017"
 342      AA2A48CD 
 342      931CCBFD 
 342      0A750F
 343 0195 7AAB424C 		.ascii	"z\253BL\005\222\224E8\2027\023\030Gr\034\231P\025Z%"
 343      05929445 
 343      38823713 
 343      1847721C 
 343      9950155A 
 344 01aa B05BC8CF 		.ascii	"\260[\310\317\261\337\273o\300\301\210`\307\313\216"
 344      B1DFBB6F 
 344      C0C18860 
 344      C7CB8E
 345 01b9 DDD4471E 		.ascii	"\335\324G\036\222\346\353\347\335\205[\177\221J\263"
 345      92E6EBE7 
 345      DD855B7F 
 345      914AB3
 346 01c8 A4273E1F 		.ascii	"\244'>\037\242\322\250\032a\031)\220{\326i\015\212\004"
 346      A2D2A81A 
 346      61192990 
 346      7BD6690D 
 346      8A04
 347 01da DCE04FAD 		.ascii	"\334\340O\255N\214\267Q\016\217\324\346\014\005\216"
 347      4E8CB751 
 347      0E8FD4E6 
 347      0C058E
 348 01e9 09A974A4 		.ascii	"\011\251t\244A\372p\257\264\340\363aJP\313\021\324*"
 348      41FA70AF 
 348      B4E0F361 
 348      4A50CB11 
 348      D42A
 349 01fb 047594C0 		.ascii	"\004u\224\300\356l\232B8\211\020h\244\333\275\007\015"
 349      EE6C9A42 
 349      38891068 
 349      A4DBBD07 
 349      0D
ARM GAS  C:\Users\Luggi\AppData\Local\Temp\ccmud0fg.s 			page 26


 350 020c 28DA540E 		.ascii	"(\332T\016\255\315\317vzM5\222d@\015Pw\375S\002R;\353"
 350      ADCDCF76 
 350      7A4D3592 
 350      64400D50 
 350      77FD5302 
 351 0223 788946D1 		.ascii	"x\211F\321\011\024\315\365\012\022\325s\263\225:-\034"
 351      0914CDF5 
 351      0A12D573 
 351      B3953A2D 
 351      1C
 352 0234 6D946A07 		.ascii	"m\224j\007\365\333{\255\345\216nI\277\033\251\337'\221"
 352      F5DB7BAD 
 352      E58E6E49 
 352      BF1BA9DF 
 352      2791
 353 0246 6C78B5BB 		.ascii	"lx\265\27357\010\027!\332eK\347\221\273\230t\011N\325"
 353      35370817 
 353      21DA654B 
 353      E791BB98 
 353      74094ED5 
 354 025a EFC79C55 		.ascii	"\357\307\234U\200BM\\\247MJ\2476\332\351T\266\344\011"
 354      80424D5C 
 354      A74D4AA7 
 354      36DAE954 
 354      B6E409
 355 026d E1254935 		.ascii	"\341%I5~\315S\001s\334\333z\312\255\307\265L\322y\362"
 355      7ECD5301 
 355      73DCDB7A 
 355      CAADC7B5 
 355      4CD279F2 
 356 0281 FB9C1090 		.ascii	"\373\234\020\220,\255\237pvw\233$\247\344\360\371>0"
 356      2CAD9F70 
 356      76779B24 
 356      A7E4F0F9 
 356      3E30
 357 0293 10086AE6 		.ascii	"\020\010j\346\004\233\025A;\025\034:\223\233k\300\347"
 357      049B1541 
 357      3B151C3A 
 357      939B6BC0 
 357      E7
 358 02a4 19C79EA3 		.ascii	"\031\307\236\243\255\373\202`\275\205\033)\377~\327"
 358      ADFB8260 
 358      BD851B29 
 358      FF7ED7
 359 02b3 AFED983E 		.ascii	"\257\355\230>\372\250\365##\305\01712F\347\021S\347"
 359      FAA8F523 
 359      23C50F31 
 359      3246E711 
 359      53E7
 360 02c5 8B24BC52 		.ascii	"\213$\274R@\253\"\320\333\340\347\237\340g\270\221\212"
 360      40AB22D0 
 360      DBE0E79F 
 360      E067B891 
 360      8A
 361 02d6 A05628F7 		.ascii	"\240V(\3674\224+\317P\325\326li=jCF\324\342\237 \242"
 361      34942BCF 
 361      50D5D66C 
ARM GAS  C:\Users\Luggi\AppData\Local\Temp\ccmud0fg.s 			page 27


 361      693D6A43 
 361      46D4E29F 
 362 02ec 20AFC8C2 		.ascii	" \257\310\302\234\366B-u\236\3440\347\357\373&+4K:\357"
 362      9CF6422D 
 362      759EE430 
 362      E7EFFB26 
 362      2B344B3A 
 363 0301 A02E9C51 		.ascii	"\240.\234Q\234\277\367m\373\3250\334\313Z\3604\271\306"
 363      9CBFF76D 
 363      FBD530DC 
 363      CB5AF034 
 363      B9C6
 364 0313 91EC7C71 		.ascii	"\221\354|q\021\357<\240P;gD\273bD\0075\"\177o=\346\025"
 364      11EF3CA0 
 364      503B6744 
 364      BB624407 
 364      35227F6F 
 365 032a 49317EC9 		.ascii	"I1~\311\316\000\343\357vz\346\264\3706S\254\332\343"
 365      CE00E3EF 
 365      767AE6B4 
 365      F83653AC 
 365      DAE3
 366 033c EE3431E3 		.ascii	"\35641\343\233\377\026\035lES\004:\313\311\235U\344"
 366      9BFF161D 
 366      6C455304 
 366      3ACBC99D 
 366      55E4
 367 034e BAA85C45 		.ascii	"\272\250\\E_\307[x\237\2062d\337Z\270\246\2475O\314"
 367      5FC75B78 
 367      9F863264 
 367      DF5AB8A6 
 367      A7354FCC 
 368 0362 F5F819C8 		.ascii	"\365\370\031\310\202=\3071\234S\030\272)C\377o\307\274"
 368      823DC731 
 368      9C5318BA 
 368      2943FF6F 
 368      C7BC
 369 0374 CB7005A3 		.ascii	"\313p\005\243x\322<\363\243\216\025Q2\027X\204\223\243"
 369      78D23CF3 
 369      A38E1551 
 369      32175884 
 369      93A3
 370 0386 702A143D 		.ascii	"p*\024=\224\302a\257<\022\206\035\214\342\350\251\352"
 370      94C261AF 
 370      3C12861D 
 370      8CE2E8A9 
 370      EA
 371 0397 29E6DC44 		.ascii	")\346\334D\233+\260\212\363\034\305y\205\302E)J\372"
 371      9B2BB08A 
 371      F31CC579 
 371      85C24529 
 371      4AFA
 372 03a9 CA2FE8F1 		.ascii	"\312/\350\361(\243\350).\220\202h\025\245\217\033\244"
 372      28A3E829 
 372      2E908268 
 372      15A58F1B 
 372      A4
ARM GAS  C:\Users\Luggi\AppData\Local\Temp\ccmud0fg.s 			page 28


 373 03ba F5DCE6BE 		.ascii	"\365\334\346\276\3001\\P\030\334\224\341FNi~\030\276"
 373      C0315C50 
 373      18DC94E1 
 373      464E697E 
 373      18BE
 374 03cc CB181A17 		.ascii	"\313\030\032\027nz\2271\206+ez\266\206\351\236\271\310"
 374      6E7A9731 
 374      862B657A 
 374      B686E99E 
 374      B9C8
 375 03de 115C5408 		.ascii	"\021\\T\010.Q\202KS\266\015x\037\246x\257\335\346b>"
 375      2E51824B 
 375      53B60D78 
 375      1FA678AF 
 375      DDE6623E 
 376 03f2 94EEAF50 		.ascii	"\224\356\257P\360\244\200^\016\337\253\340\373(\336"
 376      F0A4805E 
 376      0EDFABE0 
 376      FB28DE
 377 0401 9D7FD816 		.ascii	"\235\177\330\026\202\313\030\301\375\307E\3370\374\177"
 377      82CB18C1 
 377      FDC745DF 
 377      30FC7F
 378 0410 C779FC65 		.ascii	"\307y\374e\016\177Y\301\367S|\341\360t](v0\374\357S"
 378      0E7F59C1 
 378      F7537CE1 
 378      F0745D28 
 378      7630FCEF 
 379 0425 8FF3D96A 		.ascii	"\217\363\331j(\255\254\341\011\0068\202\001\205`\220"
 379      28ADACE1 
 379      09063882 
 379      01856090 
 380 0435 3590EB59 		.ascii	"5\220\353Y\320\360gr\340\246\037b\207\031\371\206\344"
 380      D0F06772 
 380      E0A61F62 
 380      8719F986 
 380      E4
 381 0446 4ED79D9C 		.ascii	"N\327\235\234`>y( yXN\036\246\311\322\317\337\225\033"
 381      603E7928 
 381      2079584E 
 381      1EA6C9D2 
 381      CFDF951B 
 382 045a F0382BAD 		.ascii	"\3608+\255\351A\201}\231\0216o\366Kl^\330\356\003\027"
 382      E941817D 
 382      9911366F 
 382      F64B6C5E 
 382      D8EE0317 
 383 046e 0B8682D9 		.ascii	"\013\206\202\331v\177\026\341Yr\273g\2371\365\220\003"
 383      767F16E1 
 383      5972BB67 
 383      9F31F590 
 383      03
 384 047f 7914B6CF 		.ascii	"y\024\266\317\025\377~\037A\362\206'\003P\313\200+\313"
 384      15FF7E1F 
 384      41F28627 
 384      0350CB80 
 384      2BCB
ARM GAS  C:\Users\Luggi\AppData\Local\Temp\ccmud0fg.s 			page 29


 385 0491 83F92E46 		.ascii	"\203\371.F\003\266\333\230\334\305\030\355\"\257\310"
 385      03B6DB98 
 385      DCC518ED 
 385      22AFC8
 386 04a0 36A7C3D3 		.ascii	"6\247\303\3238\340\214\212bg\324\370\301\207\345\301"
 386      38E08C8A 
 386      6267D4F8 
 386      C187E5C1 
 387 04b0 F491FC55 		.ascii	"\364\221\374U\015#\257&\257\014\237\016\3027h\272\346"
 387      0D23AF26 
 387      AF0C9F0E 
 387      C23768BA 
 387      E6
 388 04c1 5671962F 		.ascii	"Vq\226/\004E\033Iu\023\3255\241\022BS 5\341/-J\256,"
 388      04451B49 
 388      7513D535 
 388      A1124253 
 388      2035E12F 
 389 04d9 EF693182 		.ascii	"\357i1\202\377wb\022\032\215\222\033\375\013^\216Sk"
 389      FF776212 
 389      1A8D921B 
 389      FD0B5E8E 
 389      536B
 390 04eb 90FD405F 		.ascii	"\220\375@_\267\221Y\371r\010\215\343d\341#\223R\307"
 390      B79159F9 
 390      72088DE3 
 390      64E12393 
 390      52C7
 391 04fd 9313E51A 		.ascii	"\223\023\345\032I\322\242\031\250\344\252\277\222k\310"
 391      49D2A219 
 391      A8E4AABF 
 391      926BC8
 392 050c 5FCA62E2 		.ascii	"_\312b\342i\365Rf\246\017?\322\363N\316\0048y]v\362"
 392      69F55266 
 392      A60F3FD2 
 392      F34ECE04 
 392      38795D76 
 393 0521 3A75F2C1 		.ascii	":u\362\301\301\037n\007\330\336\030\360\353\357\225"
 393      C11F6E07 
 393      D8DE18F0 
 393      EBEF95
 394 0530 93BD34F9 		.ascii	"\223\2754\371P\375h\024\237\353\010\310\235\225s\311"
 394      50FD6814 
 394      9FEB08C8 
 394      9D9573C9 
 395 0540 B73EF6E3 		.ascii	"\267>\366\343O\"c\204\3276l\214I\210\337\260=!^\374"
 395      4F226384 
 395      D7366C8C 
 395      4988DFB0 
 395      3D215EFC 
 396 0554 2AE1BD84 		.ascii	"*\341\275\204-\333\267%l1[E\213%c\267\365\235X\321,"
 396      2DDBB725 
 396      6C315B45 
 396      8B2563B7 
 396      F59D58D1 
 397 0569 5A12AD62 		.ascii	"Z\022\255brB|Z\206%I\334\031\027\237\026\363\376\316"
 397      72427C5A 
ARM GAS  C:\Users\Luggi\AppData\Local\Temp\ccmud0fg.s 			page 30


 397      862549DC 
 397      19179F16 
 397      F3FECE
 398 057c 4590D549 		.ascii	"E\220\325I\302+\200\332(~\221\230\221j\335\234hNN\025"
 398      C22B80DA 
 398      287E9198 
 398      916ADD9C 
 398      684E4E15 
 399 0590 2DA6A4CC 		.ascii	"-\246\244\314\224tKbr\262ELO\217R\247z7)\323\232\271"
 399      94744B62 
 399      72B2454C 
 399      4F8F52A7 
 399      7A3729D3 
 400 05a6 5B4C5FFD 		.ascii	"[L_\375\245Z!\361\242\365S1\311\232fQ\031\213U\306t"
 400      A55A21F1 
 400      A2F55331 
 400      C99A6651 
 400      198B55C6 
 401 05bb 192966EB 		.ascii	"\031)f\353\2727T\321q\226\2244K\2125Se4\326?\272r\361"
 401      BA3754D1 
 401      71969434 
 401      4B8A3553 
 401      6534D63F 
 402 05d2 E82673E2 		.ascii	"\350&s\342\347\251b\204*,\336\012m\274\272xhcJ:\001"
 402      E7A96284 
 402      2A2CDE0A 
 402      6DBCBA78 
 402      68634A3A 
 403 05e7 AD50A9C4 		.ascii	"\255P\251\304\232h\261\252 \350\373M_\207\253\215\244"
 403      9A68B1AA 
 403      20E8FB4D 
 403      5F87AB8D 
 403      A4
 404 05f8 ED7E5DBD 		.ascii	"\355~]\275%\321\234\234b\336\365\346\342\301\230T1\321"
 404      25D19C9C 
 404      62DEF5E6 
 404      E2C19854 
 404      31D1
 405 060a 220F6B2D 		.ascii	"\"\017k-\342\256u:\370X\273FO\374Y\273\346\177\314\341"
 405      E2AE753A 
 405      F858BB46 
 405      4FFC59BB 
 405      E67FCCE1 
 406 061e A683     		.ascii	"\246\203"
 407              		.text
 408              		.section	.gnu.lto_.symtab.304933b6,"",%progbits
 409 0000 4144435F 		.ascii	"ADC_SAR_Seq_1_IRQ_Interrupt\000\000\000\000\000\000"
 409      5341525F 
 409      5365715F 
 409      315F4952 
 409      515F496E 
 410 0021 00000000 		.ascii	"\000\000\000\000\000\000\255\000\000\000ADC_SAR_Seq"
 410      0000AD00 
 410      00004144 
 410      435F5341 
 410      525F5365 
 411 0036 5F315F49 		.ascii	"_1_IRQ_SetVector\000\000\000\000\000\000\000\000\000"
ARM GAS  C:\Users\Luggi\AppData\Local\Temp\ccmud0fg.s 			page 31


 411      52515F53 
 411      65745665 
 411      63746F72 
 411      00000000 
 412 004f 000000B6 		.ascii	"\000\000\000\266\000\000\000ADC_SAR_Seq_1_IRQ_GetVe"
 412      00000041 
 412      44435F53 
 412      41525F53 
 412      65715F31 
 413 006d 63746F72 		.ascii	"ctor\000\000\000\000\000\000\000\000\000\000\000\000"
 413      00000000 
 413      00000000 
 413      00000000 
 414 007d B9000000 		.ascii	"\271\000\000\000ADC_SAR_Seq_1_IRQ_SetPriority\000\000"
 414      4144435F 
 414      5341525F 
 414      5365715F 
 414      315F4952 
 415 00a0 00000000 		.ascii	"\000\000\000\000\000\000\000\000\000\000\302\000\000"
 415      00000000 
 415      0000C200 
 415      00
 416 00ad 00414443 		.ascii	"\000ADC_SAR_Seq_1_IRQ_GetPriority\000\000\000\000\000"
 416      5F534152 
 416      5F536571 
 416      5F315F49 
 416      52515F47 
 417 00d0 00000000 		.ascii	"\000\000\000\000\000\000\000\305\000\000\000ADC_SAR"
 417      000000C5 
 417      00000041 
 417      44435F53 
 417      4152
 418 00e2 5F536571 		.ascii	"_Seq_1_IRQ_Enable\000\000\000\000\000\000\000\000\000"
 418      5F315F49 
 418      52515F45 
 418      6E61626C 
 418      65000000 
 419 00fc 000000C7 		.ascii	"\000\000\000\307\000\000\000ADC_SAR_Seq_1_IRQ_GetSt"
 419      00000041 
 419      44435F53 
 419      41525F53 
 419      65715F31 
 420 011a 61746500 		.ascii	"ate\000\000\000\000\000\000\000\000\000\000\000\000"
 420      00000000 
 420      00000000 
 420      000000
 421 0129 C9000000 		.ascii	"\311\000\000\000ADC_SAR_Seq_1_IRQ_Disable\000\000\000"
 421      4144435F 
 421      5341525F 
 421      5365715F 
 421      315F4952 
 422 0149 00000000 		.ascii	"\000\000\000\000\000\000\000\000\000\313\000\000\000"
 422      00000000 
 422      00CB0000 
 422      00
 423 0156 4144435F 		.ascii	"ADC_SAR_Seq_1_IRQ_Start\000\000\000\000\000\000\000"
 423      5341525F 
ARM GAS  C:\Users\Luggi\AppData\Local\Temp\ccmud0fg.s 			page 32


 423      5365715F 
 423      315F4952 
 423      515F5374 
 424 0174 00000000 		.ascii	"\000\000\000\000\000\315\000\000\000ADC_SAR_Seq_1_I"
 424      00CD0000 
 424      00414443 
 424      5F534152 
 424      5F536571 
 425 018c 52515F53 		.ascii	"RQ_StartEx\000\000\000\000\000\000\000\000\000\000\000"
 425      74617274 
 425      45780000 
 425      00000000 
 425      00000000 
 426 01a1 00CF0000 		.ascii	"\000\317\000\000\000ADC_SAR_Seq_1_IRQ_Stop\000\000\000"
 426      00414443 
 426      5F534152 
 426      5F536571 
 426      5F315F49 
 427 01bf 00000000 		.ascii	"\000\000\000\000\000\000\000\000\000\321\000\000\000"
 427      00000000 
 427      00D10000 
 427      00
 428 01cc 4144435F 		.ascii	"ADC_SAR_Seq_1_IRQ_SetPending\000\000\000\000\000\000"
 428      5341525F 
 428      5365715F 
 428      315F4952 
 428      515F5365 
 429 01ee 00000000 		.ascii	"\000\000\000\000\000\000\323\000\000\000ADC_SAR_Seq"
 429      0000D300 
 429      00004144 
 429      435F5341 
 429      525F5365 
 430 0203 5F315F49 		.ascii	"_1_IRQ_ClearPending\000\000\000\000\000\000\000\000"
 430      52515F43 
 430      6C656172 
 430      50656E64 
 430      696E6700 
 431 021e 00000000 		.ascii	"\000\000\000\000\325\000\000\000IntDefaultHandler\000"
 431      D5000000 
 431      496E7444 
 431      65666175 
 431      6C744861 
 432 0238 00020000 		.ascii	"\000\002\000\000\000\000\000\000\000\000\000\257\000"
 432      00000000 
 432      000000AF 
 432      00
 433 0245 0000     		.ascii	"\000\000"
 434              		.text
 435              		.section	.gnu.lto_.opts,"",%progbits
 436 0000 272D666E 		.ascii	"'-fno-trapv' '-fno-strict-overflow' '-mcpu=cortex-m"
 436      6F2D7472 
 436      61707627 
 436      20272D66 
 436      6E6F2D73 
 437 0033 33272027 		.ascii	"3' '-mthumb' '-g' '-Og' '-ffunction-sections' '-flt"
 437      2D6D7468 
 437      756D6227 
ARM GAS  C:\Users\Luggi\AppData\Local\Temp\ccmud0fg.s 			page 33


 437      20272D67 
 437      2720272D 
 438 0066 6F272027 		.ascii	"o' '-ffat-lto-objects'\000"
 438      2D666661 
 438      742D6C74 
 438      6F2D6F62 
 438      6A656374 
 439              		.text
 440              		.cfi_sections	.debug_frame
 441              		.section	.text.ADC_SAR_Seq_1_IRQ_Interrupt,"ax",%progbits
 442              		.align	2
 443              		.global	ADC_SAR_Seq_1_IRQ_Interrupt
 444              		.thumb
 445              		.thumb_func
 446              		.type	ADC_SAR_Seq_1_IRQ_Interrupt, %function
 447              	ADC_SAR_Seq_1_IRQ_Interrupt:
 448              	.LFB3:
 449              		.file 1 "Generated_Source\\PSoC5\\ADC_SAR_Seq_1_IRQ.c"
   1:Generated_Source\PSoC5/ADC_SAR_Seq_1_IRQ.c **** /*******************************************************************************
   2:Generated_Source\PSoC5/ADC_SAR_Seq_1_IRQ.c **** * File Name: ADC_SAR_Seq_1_IRQ.c  
   3:Generated_Source\PSoC5/ADC_SAR_Seq_1_IRQ.c **** * Version 1.70
   4:Generated_Source\PSoC5/ADC_SAR_Seq_1_IRQ.c **** *
   5:Generated_Source\PSoC5/ADC_SAR_Seq_1_IRQ.c **** *  Description:
   6:Generated_Source\PSoC5/ADC_SAR_Seq_1_IRQ.c **** *   API for controlling the state of an interrupt.
   7:Generated_Source\PSoC5/ADC_SAR_Seq_1_IRQ.c **** *
   8:Generated_Source\PSoC5/ADC_SAR_Seq_1_IRQ.c **** *
   9:Generated_Source\PSoC5/ADC_SAR_Seq_1_IRQ.c **** *  Note:
  10:Generated_Source\PSoC5/ADC_SAR_Seq_1_IRQ.c **** *
  11:Generated_Source\PSoC5/ADC_SAR_Seq_1_IRQ.c **** ********************************************************************************
  12:Generated_Source\PSoC5/ADC_SAR_Seq_1_IRQ.c **** * Copyright 2008-2015, Cypress Semiconductor Corporation.  All rights reserved.
  13:Generated_Source\PSoC5/ADC_SAR_Seq_1_IRQ.c **** * You may use this file only in accordance with the license, terms, conditions, 
  14:Generated_Source\PSoC5/ADC_SAR_Seq_1_IRQ.c **** * disclaimers, and limitations in the end user license agreement accompanying 
  15:Generated_Source\PSoC5/ADC_SAR_Seq_1_IRQ.c **** * the software package with which this file was provided.
  16:Generated_Source\PSoC5/ADC_SAR_Seq_1_IRQ.c **** *******************************************************************************/
  17:Generated_Source\PSoC5/ADC_SAR_Seq_1_IRQ.c **** 
  18:Generated_Source\PSoC5/ADC_SAR_Seq_1_IRQ.c **** 
  19:Generated_Source\PSoC5/ADC_SAR_Seq_1_IRQ.c **** #include <cydevice_trm.h>
  20:Generated_Source\PSoC5/ADC_SAR_Seq_1_IRQ.c **** #include <CyLib.h>
  21:Generated_Source\PSoC5/ADC_SAR_Seq_1_IRQ.c **** #include <ADC_SAR_Seq_1_IRQ.h>
  22:Generated_Source\PSoC5/ADC_SAR_Seq_1_IRQ.c **** 
  23:Generated_Source\PSoC5/ADC_SAR_Seq_1_IRQ.c **** 
  24:Generated_Source\PSoC5/ADC_SAR_Seq_1_IRQ.c **** #if !defined(ADC_SAR_Seq_1_IRQ__REMOVED) /* Check for removal by optimization */
  25:Generated_Source\PSoC5/ADC_SAR_Seq_1_IRQ.c **** 
  26:Generated_Source\PSoC5/ADC_SAR_Seq_1_IRQ.c **** /*******************************************************************************
  27:Generated_Source\PSoC5/ADC_SAR_Seq_1_IRQ.c **** *  Place your includes, defines and code here 
  28:Generated_Source\PSoC5/ADC_SAR_Seq_1_IRQ.c **** ********************************************************************************/
  29:Generated_Source\PSoC5/ADC_SAR_Seq_1_IRQ.c **** /* `#START ADC_SAR_Seq_1_IRQ_intc` */
  30:Generated_Source\PSoC5/ADC_SAR_Seq_1_IRQ.c **** 
  31:Generated_Source\PSoC5/ADC_SAR_Seq_1_IRQ.c **** /* `#END` */
  32:Generated_Source\PSoC5/ADC_SAR_Seq_1_IRQ.c **** 
  33:Generated_Source\PSoC5/ADC_SAR_Seq_1_IRQ.c **** #ifndef CYINT_IRQ_BASE
  34:Generated_Source\PSoC5/ADC_SAR_Seq_1_IRQ.c **** #define CYINT_IRQ_BASE      16
  35:Generated_Source\PSoC5/ADC_SAR_Seq_1_IRQ.c **** #endif /* CYINT_IRQ_BASE */
  36:Generated_Source\PSoC5/ADC_SAR_Seq_1_IRQ.c **** #ifndef CYINT_VECT_TABLE
  37:Generated_Source\PSoC5/ADC_SAR_Seq_1_IRQ.c **** #define CYINT_VECT_TABLE    ((cyisraddress **) CYREG_NVIC_VECT_OFFSET)
  38:Generated_Source\PSoC5/ADC_SAR_Seq_1_IRQ.c **** #endif /* CYINT_VECT_TABLE */
  39:Generated_Source\PSoC5/ADC_SAR_Seq_1_IRQ.c **** 
ARM GAS  C:\Users\Luggi\AppData\Local\Temp\ccmud0fg.s 			page 34


  40:Generated_Source\PSoC5/ADC_SAR_Seq_1_IRQ.c **** /* Declared in startup, used to set unused interrupts to. */
  41:Generated_Source\PSoC5/ADC_SAR_Seq_1_IRQ.c **** CY_ISR_PROTO(IntDefaultHandler);
  42:Generated_Source\PSoC5/ADC_SAR_Seq_1_IRQ.c **** 
  43:Generated_Source\PSoC5/ADC_SAR_Seq_1_IRQ.c **** 
  44:Generated_Source\PSoC5/ADC_SAR_Seq_1_IRQ.c **** /*******************************************************************************
  45:Generated_Source\PSoC5/ADC_SAR_Seq_1_IRQ.c **** * Function Name: ADC_SAR_Seq_1_IRQ_Start
  46:Generated_Source\PSoC5/ADC_SAR_Seq_1_IRQ.c **** ********************************************************************************
  47:Generated_Source\PSoC5/ADC_SAR_Seq_1_IRQ.c **** *
  48:Generated_Source\PSoC5/ADC_SAR_Seq_1_IRQ.c **** * Summary:
  49:Generated_Source\PSoC5/ADC_SAR_Seq_1_IRQ.c **** *  Set up the interrupt and enable it. This function disables the interrupt, 
  50:Generated_Source\PSoC5/ADC_SAR_Seq_1_IRQ.c **** *  sets the default interrupt vector, sets the priority from the value in the
  51:Generated_Source\PSoC5/ADC_SAR_Seq_1_IRQ.c **** *  Design Wide Resources Interrupt Editor, then enables the interrupt to the 
  52:Generated_Source\PSoC5/ADC_SAR_Seq_1_IRQ.c **** *  interrupt controller.
  53:Generated_Source\PSoC5/ADC_SAR_Seq_1_IRQ.c **** *
  54:Generated_Source\PSoC5/ADC_SAR_Seq_1_IRQ.c **** * Parameters:  
  55:Generated_Source\PSoC5/ADC_SAR_Seq_1_IRQ.c **** *   None
  56:Generated_Source\PSoC5/ADC_SAR_Seq_1_IRQ.c **** *
  57:Generated_Source\PSoC5/ADC_SAR_Seq_1_IRQ.c **** * Return:
  58:Generated_Source\PSoC5/ADC_SAR_Seq_1_IRQ.c **** *   None
  59:Generated_Source\PSoC5/ADC_SAR_Seq_1_IRQ.c **** *
  60:Generated_Source\PSoC5/ADC_SAR_Seq_1_IRQ.c **** *******************************************************************************/
  61:Generated_Source\PSoC5/ADC_SAR_Seq_1_IRQ.c **** void ADC_SAR_Seq_1_IRQ_Start(void)
  62:Generated_Source\PSoC5/ADC_SAR_Seq_1_IRQ.c **** {
  63:Generated_Source\PSoC5/ADC_SAR_Seq_1_IRQ.c ****     /* For all we know the interrupt is active. */
  64:Generated_Source\PSoC5/ADC_SAR_Seq_1_IRQ.c ****     ADC_SAR_Seq_1_IRQ_Disable();
  65:Generated_Source\PSoC5/ADC_SAR_Seq_1_IRQ.c **** 
  66:Generated_Source\PSoC5/ADC_SAR_Seq_1_IRQ.c ****     /* Set the ISR to point to the ADC_SAR_Seq_1_IRQ Interrupt. */
  67:Generated_Source\PSoC5/ADC_SAR_Seq_1_IRQ.c ****     ADC_SAR_Seq_1_IRQ_SetVector(&ADC_SAR_Seq_1_IRQ_Interrupt);
  68:Generated_Source\PSoC5/ADC_SAR_Seq_1_IRQ.c **** 
  69:Generated_Source\PSoC5/ADC_SAR_Seq_1_IRQ.c ****     /* Set the priority. */
  70:Generated_Source\PSoC5/ADC_SAR_Seq_1_IRQ.c ****     ADC_SAR_Seq_1_IRQ_SetPriority((uint8)ADC_SAR_Seq_1_IRQ_INTC_PRIOR_NUMBER);
  71:Generated_Source\PSoC5/ADC_SAR_Seq_1_IRQ.c **** 
  72:Generated_Source\PSoC5/ADC_SAR_Seq_1_IRQ.c ****     /* Enable it. */
  73:Generated_Source\PSoC5/ADC_SAR_Seq_1_IRQ.c ****     ADC_SAR_Seq_1_IRQ_Enable();
  74:Generated_Source\PSoC5/ADC_SAR_Seq_1_IRQ.c **** }
  75:Generated_Source\PSoC5/ADC_SAR_Seq_1_IRQ.c **** 
  76:Generated_Source\PSoC5/ADC_SAR_Seq_1_IRQ.c **** 
  77:Generated_Source\PSoC5/ADC_SAR_Seq_1_IRQ.c **** /*******************************************************************************
  78:Generated_Source\PSoC5/ADC_SAR_Seq_1_IRQ.c **** * Function Name: ADC_SAR_Seq_1_IRQ_StartEx
  79:Generated_Source\PSoC5/ADC_SAR_Seq_1_IRQ.c **** ********************************************************************************
  80:Generated_Source\PSoC5/ADC_SAR_Seq_1_IRQ.c **** *
  81:Generated_Source\PSoC5/ADC_SAR_Seq_1_IRQ.c **** * Summary:
  82:Generated_Source\PSoC5/ADC_SAR_Seq_1_IRQ.c **** *  Sets up the interrupt and enables it. This function disables the interrupt,
  83:Generated_Source\PSoC5/ADC_SAR_Seq_1_IRQ.c **** *  sets the interrupt vector based on the address passed in, sets the priority 
  84:Generated_Source\PSoC5/ADC_SAR_Seq_1_IRQ.c **** *  from the value in the Design Wide Resources Interrupt Editor, then enables 
  85:Generated_Source\PSoC5/ADC_SAR_Seq_1_IRQ.c **** *  the interrupt to the interrupt controller.
  86:Generated_Source\PSoC5/ADC_SAR_Seq_1_IRQ.c **** *  
  87:Generated_Source\PSoC5/ADC_SAR_Seq_1_IRQ.c **** *  When defining ISR functions, the CY_ISR and CY_ISR_PROTO macros should be 
  88:Generated_Source\PSoC5/ADC_SAR_Seq_1_IRQ.c **** *  used to provide consistent definition across compilers:
  89:Generated_Source\PSoC5/ADC_SAR_Seq_1_IRQ.c **** *  
  90:Generated_Source\PSoC5/ADC_SAR_Seq_1_IRQ.c **** *  Function definition example:
  91:Generated_Source\PSoC5/ADC_SAR_Seq_1_IRQ.c **** *   CY_ISR(MyISR)
  92:Generated_Source\PSoC5/ADC_SAR_Seq_1_IRQ.c **** *   {
  93:Generated_Source\PSoC5/ADC_SAR_Seq_1_IRQ.c **** *   }
  94:Generated_Source\PSoC5/ADC_SAR_Seq_1_IRQ.c **** *   Function prototype example:
  95:Generated_Source\PSoC5/ADC_SAR_Seq_1_IRQ.c **** *   CY_ISR_PROTO(MyISR);
  96:Generated_Source\PSoC5/ADC_SAR_Seq_1_IRQ.c **** *
ARM GAS  C:\Users\Luggi\AppData\Local\Temp\ccmud0fg.s 			page 35


  97:Generated_Source\PSoC5/ADC_SAR_Seq_1_IRQ.c **** * Parameters:  
  98:Generated_Source\PSoC5/ADC_SAR_Seq_1_IRQ.c **** *   address: Address of the ISR to set in the interrupt vector table.
  99:Generated_Source\PSoC5/ADC_SAR_Seq_1_IRQ.c **** *
 100:Generated_Source\PSoC5/ADC_SAR_Seq_1_IRQ.c **** * Return:
 101:Generated_Source\PSoC5/ADC_SAR_Seq_1_IRQ.c **** *   None
 102:Generated_Source\PSoC5/ADC_SAR_Seq_1_IRQ.c **** *
 103:Generated_Source\PSoC5/ADC_SAR_Seq_1_IRQ.c **** *******************************************************************************/
 104:Generated_Source\PSoC5/ADC_SAR_Seq_1_IRQ.c **** void ADC_SAR_Seq_1_IRQ_StartEx(cyisraddress address)
 105:Generated_Source\PSoC5/ADC_SAR_Seq_1_IRQ.c **** {
 106:Generated_Source\PSoC5/ADC_SAR_Seq_1_IRQ.c ****     /* For all we know the interrupt is active. */
 107:Generated_Source\PSoC5/ADC_SAR_Seq_1_IRQ.c ****     ADC_SAR_Seq_1_IRQ_Disable();
 108:Generated_Source\PSoC5/ADC_SAR_Seq_1_IRQ.c **** 
 109:Generated_Source\PSoC5/ADC_SAR_Seq_1_IRQ.c ****     /* Set the ISR to point to the ADC_SAR_Seq_1_IRQ Interrupt. */
 110:Generated_Source\PSoC5/ADC_SAR_Seq_1_IRQ.c ****     ADC_SAR_Seq_1_IRQ_SetVector(address);
 111:Generated_Source\PSoC5/ADC_SAR_Seq_1_IRQ.c **** 
 112:Generated_Source\PSoC5/ADC_SAR_Seq_1_IRQ.c ****     /* Set the priority. */
 113:Generated_Source\PSoC5/ADC_SAR_Seq_1_IRQ.c ****     ADC_SAR_Seq_1_IRQ_SetPriority((uint8)ADC_SAR_Seq_1_IRQ_INTC_PRIOR_NUMBER);
 114:Generated_Source\PSoC5/ADC_SAR_Seq_1_IRQ.c **** 
 115:Generated_Source\PSoC5/ADC_SAR_Seq_1_IRQ.c ****     /* Enable it. */
 116:Generated_Source\PSoC5/ADC_SAR_Seq_1_IRQ.c ****     ADC_SAR_Seq_1_IRQ_Enable();
 117:Generated_Source\PSoC5/ADC_SAR_Seq_1_IRQ.c **** }
 118:Generated_Source\PSoC5/ADC_SAR_Seq_1_IRQ.c **** 
 119:Generated_Source\PSoC5/ADC_SAR_Seq_1_IRQ.c **** 
 120:Generated_Source\PSoC5/ADC_SAR_Seq_1_IRQ.c **** /*******************************************************************************
 121:Generated_Source\PSoC5/ADC_SAR_Seq_1_IRQ.c **** * Function Name: ADC_SAR_Seq_1_IRQ_Stop
 122:Generated_Source\PSoC5/ADC_SAR_Seq_1_IRQ.c **** ********************************************************************************
 123:Generated_Source\PSoC5/ADC_SAR_Seq_1_IRQ.c **** *
 124:Generated_Source\PSoC5/ADC_SAR_Seq_1_IRQ.c **** * Summary:
 125:Generated_Source\PSoC5/ADC_SAR_Seq_1_IRQ.c **** *   Disables and removes the interrupt.
 126:Generated_Source\PSoC5/ADC_SAR_Seq_1_IRQ.c **** *
 127:Generated_Source\PSoC5/ADC_SAR_Seq_1_IRQ.c **** * Parameters:  
 128:Generated_Source\PSoC5/ADC_SAR_Seq_1_IRQ.c **** *   None
 129:Generated_Source\PSoC5/ADC_SAR_Seq_1_IRQ.c **** *
 130:Generated_Source\PSoC5/ADC_SAR_Seq_1_IRQ.c **** * Return:
 131:Generated_Source\PSoC5/ADC_SAR_Seq_1_IRQ.c **** *   None
 132:Generated_Source\PSoC5/ADC_SAR_Seq_1_IRQ.c **** *
 133:Generated_Source\PSoC5/ADC_SAR_Seq_1_IRQ.c **** *******************************************************************************/
 134:Generated_Source\PSoC5/ADC_SAR_Seq_1_IRQ.c **** void ADC_SAR_Seq_1_IRQ_Stop(void)
 135:Generated_Source\PSoC5/ADC_SAR_Seq_1_IRQ.c **** {
 136:Generated_Source\PSoC5/ADC_SAR_Seq_1_IRQ.c ****     /* Disable this interrupt. */
 137:Generated_Source\PSoC5/ADC_SAR_Seq_1_IRQ.c ****     ADC_SAR_Seq_1_IRQ_Disable();
 138:Generated_Source\PSoC5/ADC_SAR_Seq_1_IRQ.c **** 
 139:Generated_Source\PSoC5/ADC_SAR_Seq_1_IRQ.c ****     /* Set the ISR to point to the passive one. */
 140:Generated_Source\PSoC5/ADC_SAR_Seq_1_IRQ.c ****     ADC_SAR_Seq_1_IRQ_SetVector(&IntDefaultHandler);
 141:Generated_Source\PSoC5/ADC_SAR_Seq_1_IRQ.c **** }
 142:Generated_Source\PSoC5/ADC_SAR_Seq_1_IRQ.c **** 
 143:Generated_Source\PSoC5/ADC_SAR_Seq_1_IRQ.c **** 
 144:Generated_Source\PSoC5/ADC_SAR_Seq_1_IRQ.c **** /*******************************************************************************
 145:Generated_Source\PSoC5/ADC_SAR_Seq_1_IRQ.c **** * Function Name: ADC_SAR_Seq_1_IRQ_Interrupt
 146:Generated_Source\PSoC5/ADC_SAR_Seq_1_IRQ.c **** ********************************************************************************
 147:Generated_Source\PSoC5/ADC_SAR_Seq_1_IRQ.c **** *
 148:Generated_Source\PSoC5/ADC_SAR_Seq_1_IRQ.c **** * Summary:
 149:Generated_Source\PSoC5/ADC_SAR_Seq_1_IRQ.c **** *   The default Interrupt Service Routine for ADC_SAR_Seq_1_IRQ.
 150:Generated_Source\PSoC5/ADC_SAR_Seq_1_IRQ.c **** *
 151:Generated_Source\PSoC5/ADC_SAR_Seq_1_IRQ.c **** *   Add custom code between the coments to keep the next version of this file
 152:Generated_Source\PSoC5/ADC_SAR_Seq_1_IRQ.c **** *   from over writting your code.
 153:Generated_Source\PSoC5/ADC_SAR_Seq_1_IRQ.c **** *
ARM GAS  C:\Users\Luggi\AppData\Local\Temp\ccmud0fg.s 			page 36


 154:Generated_Source\PSoC5/ADC_SAR_Seq_1_IRQ.c **** * Parameters:  
 155:Generated_Source\PSoC5/ADC_SAR_Seq_1_IRQ.c **** *
 156:Generated_Source\PSoC5/ADC_SAR_Seq_1_IRQ.c **** * Return:
 157:Generated_Source\PSoC5/ADC_SAR_Seq_1_IRQ.c **** *   None
 158:Generated_Source\PSoC5/ADC_SAR_Seq_1_IRQ.c **** *
 159:Generated_Source\PSoC5/ADC_SAR_Seq_1_IRQ.c **** *******************************************************************************/
 160:Generated_Source\PSoC5/ADC_SAR_Seq_1_IRQ.c **** CY_ISR(ADC_SAR_Seq_1_IRQ_Interrupt)
 161:Generated_Source\PSoC5/ADC_SAR_Seq_1_IRQ.c **** {
 450              		.loc 1 161 0
 451              		.cfi_startproc
 452              		@ args = 0, pretend = 0, frame = 0
 453              		@ frame_needed = 0, uses_anonymous_args = 0
 454              		@ link register save eliminated.
 455 0000 7047     		bx	lr
 456              		.cfi_endproc
 457              	.LFE3:
 458              		.size	ADC_SAR_Seq_1_IRQ_Interrupt, .-ADC_SAR_Seq_1_IRQ_Interrupt
 459 0002 00BF     		.section	.text.ADC_SAR_Seq_1_IRQ_SetVector,"ax",%progbits
 460              		.align	2
 461              		.global	ADC_SAR_Seq_1_IRQ_SetVector
 462              		.thumb
 463              		.thumb_func
 464              		.type	ADC_SAR_Seq_1_IRQ_SetVector, %function
 465              	ADC_SAR_Seq_1_IRQ_SetVector:
 466              	.LFB4:
 162:Generated_Source\PSoC5/ADC_SAR_Seq_1_IRQ.c ****     #ifdef ADC_SAR_Seq_1_IRQ_INTERRUPT_INTERRUPT_CALLBACK
 163:Generated_Source\PSoC5/ADC_SAR_Seq_1_IRQ.c ****         ADC_SAR_Seq_1_IRQ_Interrupt_InterruptCallback();
 164:Generated_Source\PSoC5/ADC_SAR_Seq_1_IRQ.c ****     #endif /* ADC_SAR_Seq_1_IRQ_INTERRUPT_INTERRUPT_CALLBACK */ 
 165:Generated_Source\PSoC5/ADC_SAR_Seq_1_IRQ.c **** 
 166:Generated_Source\PSoC5/ADC_SAR_Seq_1_IRQ.c ****     /*  Place your Interrupt code here. */
 167:Generated_Source\PSoC5/ADC_SAR_Seq_1_IRQ.c ****     /* `#START ADC_SAR_Seq_1_IRQ_Interrupt` */
 168:Generated_Source\PSoC5/ADC_SAR_Seq_1_IRQ.c **** 
 169:Generated_Source\PSoC5/ADC_SAR_Seq_1_IRQ.c ****     /* `#END` */
 170:Generated_Source\PSoC5/ADC_SAR_Seq_1_IRQ.c **** }
 171:Generated_Source\PSoC5/ADC_SAR_Seq_1_IRQ.c **** 
 172:Generated_Source\PSoC5/ADC_SAR_Seq_1_IRQ.c **** 
 173:Generated_Source\PSoC5/ADC_SAR_Seq_1_IRQ.c **** /*******************************************************************************
 174:Generated_Source\PSoC5/ADC_SAR_Seq_1_IRQ.c **** * Function Name: ADC_SAR_Seq_1_IRQ_SetVector
 175:Generated_Source\PSoC5/ADC_SAR_Seq_1_IRQ.c **** ********************************************************************************
 176:Generated_Source\PSoC5/ADC_SAR_Seq_1_IRQ.c **** *
 177:Generated_Source\PSoC5/ADC_SAR_Seq_1_IRQ.c **** * Summary:
 178:Generated_Source\PSoC5/ADC_SAR_Seq_1_IRQ.c **** *   Change the ISR vector for the Interrupt. Note calling ADC_SAR_Seq_1_IRQ_Start
 179:Generated_Source\PSoC5/ADC_SAR_Seq_1_IRQ.c **** *   will override any effect this method would have had. To set the vector 
 180:Generated_Source\PSoC5/ADC_SAR_Seq_1_IRQ.c **** *   before the component has been started use ADC_SAR_Seq_1_IRQ_StartEx instead.
 181:Generated_Source\PSoC5/ADC_SAR_Seq_1_IRQ.c **** * 
 182:Generated_Source\PSoC5/ADC_SAR_Seq_1_IRQ.c **** *   When defining ISR functions, the CY_ISR and CY_ISR_PROTO macros should be 
 183:Generated_Source\PSoC5/ADC_SAR_Seq_1_IRQ.c **** *   used to provide consistent definition across compilers:
 184:Generated_Source\PSoC5/ADC_SAR_Seq_1_IRQ.c **** *
 185:Generated_Source\PSoC5/ADC_SAR_Seq_1_IRQ.c **** *   Function definition example:
 186:Generated_Source\PSoC5/ADC_SAR_Seq_1_IRQ.c **** *   CY_ISR(MyISR)
 187:Generated_Source\PSoC5/ADC_SAR_Seq_1_IRQ.c **** *   {
 188:Generated_Source\PSoC5/ADC_SAR_Seq_1_IRQ.c **** *   }
 189:Generated_Source\PSoC5/ADC_SAR_Seq_1_IRQ.c **** *
 190:Generated_Source\PSoC5/ADC_SAR_Seq_1_IRQ.c **** *   Function prototype example:
 191:Generated_Source\PSoC5/ADC_SAR_Seq_1_IRQ.c **** *     CY_ISR_PROTO(MyISR);
 192:Generated_Source\PSoC5/ADC_SAR_Seq_1_IRQ.c **** *
 193:Generated_Source\PSoC5/ADC_SAR_Seq_1_IRQ.c **** * Parameters:
ARM GAS  C:\Users\Luggi\AppData\Local\Temp\ccmud0fg.s 			page 37


 194:Generated_Source\PSoC5/ADC_SAR_Seq_1_IRQ.c **** *   address: Address of the ISR to set in the interrupt vector table.
 195:Generated_Source\PSoC5/ADC_SAR_Seq_1_IRQ.c **** *
 196:Generated_Source\PSoC5/ADC_SAR_Seq_1_IRQ.c **** * Return:
 197:Generated_Source\PSoC5/ADC_SAR_Seq_1_IRQ.c **** *   None
 198:Generated_Source\PSoC5/ADC_SAR_Seq_1_IRQ.c **** *
 199:Generated_Source\PSoC5/ADC_SAR_Seq_1_IRQ.c **** *******************************************************************************/
 200:Generated_Source\PSoC5/ADC_SAR_Seq_1_IRQ.c **** void ADC_SAR_Seq_1_IRQ_SetVector(cyisraddress address)
 201:Generated_Source\PSoC5/ADC_SAR_Seq_1_IRQ.c **** {
 467              		.loc 1 201 0
 468              		.cfi_startproc
 469              		@ args = 0, pretend = 0, frame = 0
 470              		@ frame_needed = 0, uses_anonymous_args = 0
 471              		@ link register save eliminated.
 472              	.LVL0:
 202:Generated_Source\PSoC5/ADC_SAR_Seq_1_IRQ.c ****     cyisraddress * ramVectorTable;
 203:Generated_Source\PSoC5/ADC_SAR_Seq_1_IRQ.c **** 
 204:Generated_Source\PSoC5/ADC_SAR_Seq_1_IRQ.c ****     ramVectorTable = (cyisraddress *) *CYINT_VECT_TABLE;
 473              		.loc 1 204 0
 474 0000 014B     		ldr	r3, .L3
 475 0002 1B68     		ldr	r3, [r3]
 476              	.LVL1:
 205:Generated_Source\PSoC5/ADC_SAR_Seq_1_IRQ.c **** 
 206:Generated_Source\PSoC5/ADC_SAR_Seq_1_IRQ.c ****     ramVectorTable[CYINT_IRQ_BASE + (uint32)ADC_SAR_Seq_1_IRQ__INTC_NUMBER] = address;
 477              		.loc 1 206 0
 478 0004 9864     		str	r0, [r3, #72]
 479 0006 7047     		bx	lr
 480              	.L4:
 481              		.align	2
 482              	.L3:
 483 0008 08ED00E0 		.word	-536810232
 484              		.cfi_endproc
 485              	.LFE4:
 486              		.size	ADC_SAR_Seq_1_IRQ_SetVector, .-ADC_SAR_Seq_1_IRQ_SetVector
 487              		.section	.text.ADC_SAR_Seq_1_IRQ_GetVector,"ax",%progbits
 488              		.align	2
 489              		.global	ADC_SAR_Seq_1_IRQ_GetVector
 490              		.thumb
 491              		.thumb_func
 492              		.type	ADC_SAR_Seq_1_IRQ_GetVector, %function
 493              	ADC_SAR_Seq_1_IRQ_GetVector:
 494              	.LFB5:
 207:Generated_Source\PSoC5/ADC_SAR_Seq_1_IRQ.c **** }
 208:Generated_Source\PSoC5/ADC_SAR_Seq_1_IRQ.c **** 
 209:Generated_Source\PSoC5/ADC_SAR_Seq_1_IRQ.c **** 
 210:Generated_Source\PSoC5/ADC_SAR_Seq_1_IRQ.c **** /*******************************************************************************
 211:Generated_Source\PSoC5/ADC_SAR_Seq_1_IRQ.c **** * Function Name: ADC_SAR_Seq_1_IRQ_GetVector
 212:Generated_Source\PSoC5/ADC_SAR_Seq_1_IRQ.c **** ********************************************************************************
 213:Generated_Source\PSoC5/ADC_SAR_Seq_1_IRQ.c **** *
 214:Generated_Source\PSoC5/ADC_SAR_Seq_1_IRQ.c **** * Summary:
 215:Generated_Source\PSoC5/ADC_SAR_Seq_1_IRQ.c **** *   Gets the "address" of the current ISR vector for the Interrupt.
 216:Generated_Source\PSoC5/ADC_SAR_Seq_1_IRQ.c **** *
 217:Generated_Source\PSoC5/ADC_SAR_Seq_1_IRQ.c **** * Parameters:
 218:Generated_Source\PSoC5/ADC_SAR_Seq_1_IRQ.c **** *   None
 219:Generated_Source\PSoC5/ADC_SAR_Seq_1_IRQ.c **** *
 220:Generated_Source\PSoC5/ADC_SAR_Seq_1_IRQ.c **** * Return:
 221:Generated_Source\PSoC5/ADC_SAR_Seq_1_IRQ.c **** *   Address of the ISR in the interrupt vector table.
 222:Generated_Source\PSoC5/ADC_SAR_Seq_1_IRQ.c **** *
ARM GAS  C:\Users\Luggi\AppData\Local\Temp\ccmud0fg.s 			page 38


 223:Generated_Source\PSoC5/ADC_SAR_Seq_1_IRQ.c **** *******************************************************************************/
 224:Generated_Source\PSoC5/ADC_SAR_Seq_1_IRQ.c **** cyisraddress ADC_SAR_Seq_1_IRQ_GetVector(void)
 225:Generated_Source\PSoC5/ADC_SAR_Seq_1_IRQ.c **** {
 495              		.loc 1 225 0
 496              		.cfi_startproc
 497              		@ args = 0, pretend = 0, frame = 0
 498              		@ frame_needed = 0, uses_anonymous_args = 0
 499              		@ link register save eliminated.
 226:Generated_Source\PSoC5/ADC_SAR_Seq_1_IRQ.c ****     cyisraddress * ramVectorTable;
 227:Generated_Source\PSoC5/ADC_SAR_Seq_1_IRQ.c **** 
 228:Generated_Source\PSoC5/ADC_SAR_Seq_1_IRQ.c ****     ramVectorTable = (cyisraddress *) *CYINT_VECT_TABLE;
 500              		.loc 1 228 0
 501 0000 014B     		ldr	r3, .L6
 502 0002 1B68     		ldr	r3, [r3]
 503              	.LVL2:
 229:Generated_Source\PSoC5/ADC_SAR_Seq_1_IRQ.c **** 
 230:Generated_Source\PSoC5/ADC_SAR_Seq_1_IRQ.c ****     return ramVectorTable[CYINT_IRQ_BASE + (uint32)ADC_SAR_Seq_1_IRQ__INTC_NUMBER];
 231:Generated_Source\PSoC5/ADC_SAR_Seq_1_IRQ.c **** }
 504              		.loc 1 231 0
 505 0004 986C     		ldr	r0, [r3, #72]
 506 0006 7047     		bx	lr
 507              	.L7:
 508              		.align	2
 509              	.L6:
 510 0008 08ED00E0 		.word	-536810232
 511              		.cfi_endproc
 512              	.LFE5:
 513              		.size	ADC_SAR_Seq_1_IRQ_GetVector, .-ADC_SAR_Seq_1_IRQ_GetVector
 514              		.section	.text.ADC_SAR_Seq_1_IRQ_SetPriority,"ax",%progbits
 515              		.align	2
 516              		.global	ADC_SAR_Seq_1_IRQ_SetPriority
 517              		.thumb
 518              		.thumb_func
 519              		.type	ADC_SAR_Seq_1_IRQ_SetPriority, %function
 520              	ADC_SAR_Seq_1_IRQ_SetPriority:
 521              	.LFB6:
 232:Generated_Source\PSoC5/ADC_SAR_Seq_1_IRQ.c **** 
 233:Generated_Source\PSoC5/ADC_SAR_Seq_1_IRQ.c **** 
 234:Generated_Source\PSoC5/ADC_SAR_Seq_1_IRQ.c **** /*******************************************************************************
 235:Generated_Source\PSoC5/ADC_SAR_Seq_1_IRQ.c **** * Function Name: ADC_SAR_Seq_1_IRQ_SetPriority
 236:Generated_Source\PSoC5/ADC_SAR_Seq_1_IRQ.c **** ********************************************************************************
 237:Generated_Source\PSoC5/ADC_SAR_Seq_1_IRQ.c **** *
 238:Generated_Source\PSoC5/ADC_SAR_Seq_1_IRQ.c **** * Summary:
 239:Generated_Source\PSoC5/ADC_SAR_Seq_1_IRQ.c **** *   Sets the Priority of the Interrupt. 
 240:Generated_Source\PSoC5/ADC_SAR_Seq_1_IRQ.c **** *
 241:Generated_Source\PSoC5/ADC_SAR_Seq_1_IRQ.c **** *   Note calling ADC_SAR_Seq_1_IRQ_Start or ADC_SAR_Seq_1_IRQ_StartEx will 
 242:Generated_Source\PSoC5/ADC_SAR_Seq_1_IRQ.c **** *   override any effect this API would have had. This API should only be called
 243:Generated_Source\PSoC5/ADC_SAR_Seq_1_IRQ.c **** *   after ADC_SAR_Seq_1_IRQ_Start or ADC_SAR_Seq_1_IRQ_StartEx has been called. 
 244:Generated_Source\PSoC5/ADC_SAR_Seq_1_IRQ.c **** *   To set the initial priority for the component, use the Design-Wide Resources
 245:Generated_Source\PSoC5/ADC_SAR_Seq_1_IRQ.c **** *   Interrupt Editor.
 246:Generated_Source\PSoC5/ADC_SAR_Seq_1_IRQ.c **** *
 247:Generated_Source\PSoC5/ADC_SAR_Seq_1_IRQ.c **** *   Note This API has no effect on Non-maskable interrupt NMI).
 248:Generated_Source\PSoC5/ADC_SAR_Seq_1_IRQ.c **** *
 249:Generated_Source\PSoC5/ADC_SAR_Seq_1_IRQ.c **** * Parameters:
 250:Generated_Source\PSoC5/ADC_SAR_Seq_1_IRQ.c **** *   priority: Priority of the interrupt, 0 being the highest priority
 251:Generated_Source\PSoC5/ADC_SAR_Seq_1_IRQ.c **** *             PSoC 3 and PSoC 5LP: Priority is from 0 to 7.
 252:Generated_Source\PSoC5/ADC_SAR_Seq_1_IRQ.c **** *             PSoC 4: Priority is from 0 to 3.
ARM GAS  C:\Users\Luggi\AppData\Local\Temp\ccmud0fg.s 			page 39


 253:Generated_Source\PSoC5/ADC_SAR_Seq_1_IRQ.c **** *
 254:Generated_Source\PSoC5/ADC_SAR_Seq_1_IRQ.c **** * Return:
 255:Generated_Source\PSoC5/ADC_SAR_Seq_1_IRQ.c **** *   None
 256:Generated_Source\PSoC5/ADC_SAR_Seq_1_IRQ.c **** *
 257:Generated_Source\PSoC5/ADC_SAR_Seq_1_IRQ.c **** *******************************************************************************/
 258:Generated_Source\PSoC5/ADC_SAR_Seq_1_IRQ.c **** void ADC_SAR_Seq_1_IRQ_SetPriority(uint8 priority)
 259:Generated_Source\PSoC5/ADC_SAR_Seq_1_IRQ.c **** {
 522              		.loc 1 259 0
 523              		.cfi_startproc
 524              		@ args = 0, pretend = 0, frame = 0
 525              		@ frame_needed = 0, uses_anonymous_args = 0
 526              		@ link register save eliminated.
 527              	.LVL3:
 260:Generated_Source\PSoC5/ADC_SAR_Seq_1_IRQ.c ****     *ADC_SAR_Seq_1_IRQ_INTC_PRIOR = priority << 5;
 528              		.loc 1 260 0
 529 0000 4001     		lsls	r0, r0, #5
 530              	.LVL4:
 531 0002 C0B2     		uxtb	r0, r0
 532 0004 014B     		ldr	r3, .L9
 533 0006 1870     		strb	r0, [r3]
 534 0008 7047     		bx	lr
 535              	.L10:
 536 000a 00BF     		.align	2
 537              	.L9:
 538 000c 02E400E0 		.word	-536812542
 539              		.cfi_endproc
 540              	.LFE6:
 541              		.size	ADC_SAR_Seq_1_IRQ_SetPriority, .-ADC_SAR_Seq_1_IRQ_SetPriority
 542              		.section	.text.ADC_SAR_Seq_1_IRQ_GetPriority,"ax",%progbits
 543              		.align	2
 544              		.global	ADC_SAR_Seq_1_IRQ_GetPriority
 545              		.thumb
 546              		.thumb_func
 547              		.type	ADC_SAR_Seq_1_IRQ_GetPriority, %function
 548              	ADC_SAR_Seq_1_IRQ_GetPriority:
 549              	.LFB7:
 261:Generated_Source\PSoC5/ADC_SAR_Seq_1_IRQ.c **** }
 262:Generated_Source\PSoC5/ADC_SAR_Seq_1_IRQ.c **** 
 263:Generated_Source\PSoC5/ADC_SAR_Seq_1_IRQ.c **** 
 264:Generated_Source\PSoC5/ADC_SAR_Seq_1_IRQ.c **** /*******************************************************************************
 265:Generated_Source\PSoC5/ADC_SAR_Seq_1_IRQ.c **** * Function Name: ADC_SAR_Seq_1_IRQ_GetPriority
 266:Generated_Source\PSoC5/ADC_SAR_Seq_1_IRQ.c **** ********************************************************************************
 267:Generated_Source\PSoC5/ADC_SAR_Seq_1_IRQ.c **** *
 268:Generated_Source\PSoC5/ADC_SAR_Seq_1_IRQ.c **** * Summary:
 269:Generated_Source\PSoC5/ADC_SAR_Seq_1_IRQ.c **** *   Gets the Priority of the Interrupt.
 270:Generated_Source\PSoC5/ADC_SAR_Seq_1_IRQ.c **** *
 271:Generated_Source\PSoC5/ADC_SAR_Seq_1_IRQ.c **** * Parameters:
 272:Generated_Source\PSoC5/ADC_SAR_Seq_1_IRQ.c **** *   None
 273:Generated_Source\PSoC5/ADC_SAR_Seq_1_IRQ.c **** *
 274:Generated_Source\PSoC5/ADC_SAR_Seq_1_IRQ.c **** * Return:
 275:Generated_Source\PSoC5/ADC_SAR_Seq_1_IRQ.c **** *   Priority of the interrupt, 0 being the highest priority
 276:Generated_Source\PSoC5/ADC_SAR_Seq_1_IRQ.c **** *    PSoC 3 and PSoC 5LP: Priority is from 0 to 7.
 277:Generated_Source\PSoC5/ADC_SAR_Seq_1_IRQ.c **** *    PSoC 4: Priority is from 0 to 3.
 278:Generated_Source\PSoC5/ADC_SAR_Seq_1_IRQ.c **** *
 279:Generated_Source\PSoC5/ADC_SAR_Seq_1_IRQ.c **** *******************************************************************************/
 280:Generated_Source\PSoC5/ADC_SAR_Seq_1_IRQ.c **** uint8 ADC_SAR_Seq_1_IRQ_GetPriority(void)
 281:Generated_Source\PSoC5/ADC_SAR_Seq_1_IRQ.c **** {
ARM GAS  C:\Users\Luggi\AppData\Local\Temp\ccmud0fg.s 			page 40


 550              		.loc 1 281 0
 551              		.cfi_startproc
 552              		@ args = 0, pretend = 0, frame = 0
 553              		@ frame_needed = 0, uses_anonymous_args = 0
 554              		@ link register save eliminated.
 282:Generated_Source\PSoC5/ADC_SAR_Seq_1_IRQ.c ****     uint8 priority;
 283:Generated_Source\PSoC5/ADC_SAR_Seq_1_IRQ.c **** 
 284:Generated_Source\PSoC5/ADC_SAR_Seq_1_IRQ.c **** 
 285:Generated_Source\PSoC5/ADC_SAR_Seq_1_IRQ.c ****     priority = *ADC_SAR_Seq_1_IRQ_INTC_PRIOR >> 5;
 555              		.loc 1 285 0
 556 0000 014B     		ldr	r3, .L12
 557 0002 1878     		ldrb	r0, [r3]	@ zero_extendqisi2
 558              	.LVL5:
 286:Generated_Source\PSoC5/ADC_SAR_Seq_1_IRQ.c **** 
 287:Generated_Source\PSoC5/ADC_SAR_Seq_1_IRQ.c ****     return priority;
 288:Generated_Source\PSoC5/ADC_SAR_Seq_1_IRQ.c **** }
 559              		.loc 1 288 0
 560 0004 4009     		lsrs	r0, r0, #5
 561              	.LVL6:
 562 0006 7047     		bx	lr
 563              	.L13:
 564              		.align	2
 565              	.L12:
 566 0008 02E400E0 		.word	-536812542
 567              		.cfi_endproc
 568              	.LFE7:
 569              		.size	ADC_SAR_Seq_1_IRQ_GetPriority, .-ADC_SAR_Seq_1_IRQ_GetPriority
 570              		.section	.text.ADC_SAR_Seq_1_IRQ_Enable,"ax",%progbits
 571              		.align	2
 572              		.global	ADC_SAR_Seq_1_IRQ_Enable
 573              		.thumb
 574              		.thumb_func
 575              		.type	ADC_SAR_Seq_1_IRQ_Enable, %function
 576              	ADC_SAR_Seq_1_IRQ_Enable:
 577              	.LFB8:
 289:Generated_Source\PSoC5/ADC_SAR_Seq_1_IRQ.c **** 
 290:Generated_Source\PSoC5/ADC_SAR_Seq_1_IRQ.c **** 
 291:Generated_Source\PSoC5/ADC_SAR_Seq_1_IRQ.c **** /*******************************************************************************
 292:Generated_Source\PSoC5/ADC_SAR_Seq_1_IRQ.c **** * Function Name: ADC_SAR_Seq_1_IRQ_Enable
 293:Generated_Source\PSoC5/ADC_SAR_Seq_1_IRQ.c **** ********************************************************************************
 294:Generated_Source\PSoC5/ADC_SAR_Seq_1_IRQ.c **** *
 295:Generated_Source\PSoC5/ADC_SAR_Seq_1_IRQ.c **** * Summary:
 296:Generated_Source\PSoC5/ADC_SAR_Seq_1_IRQ.c **** *   Enables the interrupt to the interrupt controller. Do not call this function
 297:Generated_Source\PSoC5/ADC_SAR_Seq_1_IRQ.c **** *   unless ISR_Start() has been called or the functionality of the ISR_Start() 
 298:Generated_Source\PSoC5/ADC_SAR_Seq_1_IRQ.c **** *   function, which sets the vector and the priority, has been called.
 299:Generated_Source\PSoC5/ADC_SAR_Seq_1_IRQ.c **** *
 300:Generated_Source\PSoC5/ADC_SAR_Seq_1_IRQ.c **** * Parameters:
 301:Generated_Source\PSoC5/ADC_SAR_Seq_1_IRQ.c **** *   None
 302:Generated_Source\PSoC5/ADC_SAR_Seq_1_IRQ.c **** *
 303:Generated_Source\PSoC5/ADC_SAR_Seq_1_IRQ.c **** * Return:
 304:Generated_Source\PSoC5/ADC_SAR_Seq_1_IRQ.c **** *   None
 305:Generated_Source\PSoC5/ADC_SAR_Seq_1_IRQ.c **** *
 306:Generated_Source\PSoC5/ADC_SAR_Seq_1_IRQ.c **** *******************************************************************************/
 307:Generated_Source\PSoC5/ADC_SAR_Seq_1_IRQ.c **** void ADC_SAR_Seq_1_IRQ_Enable(void)
 308:Generated_Source\PSoC5/ADC_SAR_Seq_1_IRQ.c **** {
 578              		.loc 1 308 0
 579              		.cfi_startproc
ARM GAS  C:\Users\Luggi\AppData\Local\Temp\ccmud0fg.s 			page 41


 580              		@ args = 0, pretend = 0, frame = 0
 581              		@ frame_needed = 0, uses_anonymous_args = 0
 582              		@ link register save eliminated.
 309:Generated_Source\PSoC5/ADC_SAR_Seq_1_IRQ.c ****     /* Enable the general interrupt. */
 310:Generated_Source\PSoC5/ADC_SAR_Seq_1_IRQ.c ****     *ADC_SAR_Seq_1_IRQ_INTC_SET_EN = ADC_SAR_Seq_1_IRQ__INTC_MASK;
 583              		.loc 1 310 0
 584 0000 0422     		movs	r2, #4
 585 0002 014B     		ldr	r3, .L15
 586 0004 1A60     		str	r2, [r3]
 587 0006 7047     		bx	lr
 588              	.L16:
 589              		.align	2
 590              	.L15:
 591 0008 00E100E0 		.word	-536813312
 592              		.cfi_endproc
 593              	.LFE8:
 594              		.size	ADC_SAR_Seq_1_IRQ_Enable, .-ADC_SAR_Seq_1_IRQ_Enable
 595              		.section	.text.ADC_SAR_Seq_1_IRQ_GetState,"ax",%progbits
 596              		.align	2
 597              		.global	ADC_SAR_Seq_1_IRQ_GetState
 598              		.thumb
 599              		.thumb_func
 600              		.type	ADC_SAR_Seq_1_IRQ_GetState, %function
 601              	ADC_SAR_Seq_1_IRQ_GetState:
 602              	.LFB9:
 311:Generated_Source\PSoC5/ADC_SAR_Seq_1_IRQ.c **** }
 312:Generated_Source\PSoC5/ADC_SAR_Seq_1_IRQ.c **** 
 313:Generated_Source\PSoC5/ADC_SAR_Seq_1_IRQ.c **** 
 314:Generated_Source\PSoC5/ADC_SAR_Seq_1_IRQ.c **** /*******************************************************************************
 315:Generated_Source\PSoC5/ADC_SAR_Seq_1_IRQ.c **** * Function Name: ADC_SAR_Seq_1_IRQ_GetState
 316:Generated_Source\PSoC5/ADC_SAR_Seq_1_IRQ.c **** ********************************************************************************
 317:Generated_Source\PSoC5/ADC_SAR_Seq_1_IRQ.c **** *
 318:Generated_Source\PSoC5/ADC_SAR_Seq_1_IRQ.c **** * Summary:
 319:Generated_Source\PSoC5/ADC_SAR_Seq_1_IRQ.c **** *   Gets the state (enabled, disabled) of the Interrupt.
 320:Generated_Source\PSoC5/ADC_SAR_Seq_1_IRQ.c **** *
 321:Generated_Source\PSoC5/ADC_SAR_Seq_1_IRQ.c **** * Parameters:
 322:Generated_Source\PSoC5/ADC_SAR_Seq_1_IRQ.c **** *   None
 323:Generated_Source\PSoC5/ADC_SAR_Seq_1_IRQ.c **** *
 324:Generated_Source\PSoC5/ADC_SAR_Seq_1_IRQ.c **** * Return:
 325:Generated_Source\PSoC5/ADC_SAR_Seq_1_IRQ.c **** *   1 if enabled, 0 if disabled.
 326:Generated_Source\PSoC5/ADC_SAR_Seq_1_IRQ.c **** *
 327:Generated_Source\PSoC5/ADC_SAR_Seq_1_IRQ.c **** *******************************************************************************/
 328:Generated_Source\PSoC5/ADC_SAR_Seq_1_IRQ.c **** uint8 ADC_SAR_Seq_1_IRQ_GetState(void)
 329:Generated_Source\PSoC5/ADC_SAR_Seq_1_IRQ.c **** {
 603              		.loc 1 329 0
 604              		.cfi_startproc
 605              		@ args = 0, pretend = 0, frame = 0
 606              		@ frame_needed = 0, uses_anonymous_args = 0
 607              		@ link register save eliminated.
 330:Generated_Source\PSoC5/ADC_SAR_Seq_1_IRQ.c ****     /* Get the state of the general interrupt. */
 331:Generated_Source\PSoC5/ADC_SAR_Seq_1_IRQ.c ****     return ((*ADC_SAR_Seq_1_IRQ_INTC_SET_EN & (uint32)ADC_SAR_Seq_1_IRQ__INTC_MASK) != 0u) ? 1u:0u;
 608              		.loc 1 331 0
 609 0000 044B     		ldr	r3, .L20
 610 0002 1B68     		ldr	r3, [r3]
 611 0004 13F0040F 		tst	r3, #4
 612 0008 01D0     		beq	.L19
 613 000a 0120     		movs	r0, #1
ARM GAS  C:\Users\Luggi\AppData\Local\Temp\ccmud0fg.s 			page 42


 614 000c 7047     		bx	lr
 615              	.L19:
 616 000e 0020     		movs	r0, #0
 332:Generated_Source\PSoC5/ADC_SAR_Seq_1_IRQ.c **** }
 617              		.loc 1 332 0
 618 0010 7047     		bx	lr
 619              	.L21:
 620 0012 00BF     		.align	2
 621              	.L20:
 622 0014 00E100E0 		.word	-536813312
 623              		.cfi_endproc
 624              	.LFE9:
 625              		.size	ADC_SAR_Seq_1_IRQ_GetState, .-ADC_SAR_Seq_1_IRQ_GetState
 626              		.section	.text.ADC_SAR_Seq_1_IRQ_Disable,"ax",%progbits
 627              		.align	2
 628              		.global	ADC_SAR_Seq_1_IRQ_Disable
 629              		.thumb
 630              		.thumb_func
 631              		.type	ADC_SAR_Seq_1_IRQ_Disable, %function
 632              	ADC_SAR_Seq_1_IRQ_Disable:
 633              	.LFB10:
 333:Generated_Source\PSoC5/ADC_SAR_Seq_1_IRQ.c **** 
 334:Generated_Source\PSoC5/ADC_SAR_Seq_1_IRQ.c **** 
 335:Generated_Source\PSoC5/ADC_SAR_Seq_1_IRQ.c **** /*******************************************************************************
 336:Generated_Source\PSoC5/ADC_SAR_Seq_1_IRQ.c **** * Function Name: ADC_SAR_Seq_1_IRQ_Disable
 337:Generated_Source\PSoC5/ADC_SAR_Seq_1_IRQ.c **** ********************************************************************************
 338:Generated_Source\PSoC5/ADC_SAR_Seq_1_IRQ.c **** *
 339:Generated_Source\PSoC5/ADC_SAR_Seq_1_IRQ.c **** * Summary:
 340:Generated_Source\PSoC5/ADC_SAR_Seq_1_IRQ.c **** *   Disables the Interrupt in the interrupt controller.
 341:Generated_Source\PSoC5/ADC_SAR_Seq_1_IRQ.c **** *
 342:Generated_Source\PSoC5/ADC_SAR_Seq_1_IRQ.c **** * Parameters:
 343:Generated_Source\PSoC5/ADC_SAR_Seq_1_IRQ.c **** *   None
 344:Generated_Source\PSoC5/ADC_SAR_Seq_1_IRQ.c **** *
 345:Generated_Source\PSoC5/ADC_SAR_Seq_1_IRQ.c **** * Return:
 346:Generated_Source\PSoC5/ADC_SAR_Seq_1_IRQ.c **** *   None
 347:Generated_Source\PSoC5/ADC_SAR_Seq_1_IRQ.c **** *
 348:Generated_Source\PSoC5/ADC_SAR_Seq_1_IRQ.c **** *******************************************************************************/
 349:Generated_Source\PSoC5/ADC_SAR_Seq_1_IRQ.c **** void ADC_SAR_Seq_1_IRQ_Disable(void)
 350:Generated_Source\PSoC5/ADC_SAR_Seq_1_IRQ.c **** {
 634              		.loc 1 350 0
 635              		.cfi_startproc
 636              		@ args = 0, pretend = 0, frame = 0
 637              		@ frame_needed = 0, uses_anonymous_args = 0
 638              		@ link register save eliminated.
 351:Generated_Source\PSoC5/ADC_SAR_Seq_1_IRQ.c ****     /* Disable the general interrupt. */
 352:Generated_Source\PSoC5/ADC_SAR_Seq_1_IRQ.c ****     *ADC_SAR_Seq_1_IRQ_INTC_CLR_EN = ADC_SAR_Seq_1_IRQ__INTC_MASK;
 639              		.loc 1 352 0
 640 0000 0422     		movs	r2, #4
 641 0002 014B     		ldr	r3, .L23
 642 0004 1A60     		str	r2, [r3]
 643 0006 7047     		bx	lr
 644              	.L24:
 645              		.align	2
 646              	.L23:
 647 0008 80E100E0 		.word	-536813184
 648              		.cfi_endproc
 649              	.LFE10:
ARM GAS  C:\Users\Luggi\AppData\Local\Temp\ccmud0fg.s 			page 43


 650              		.size	ADC_SAR_Seq_1_IRQ_Disable, .-ADC_SAR_Seq_1_IRQ_Disable
 651              		.section	.text.ADC_SAR_Seq_1_IRQ_Start,"ax",%progbits
 652              		.align	2
 653              		.global	ADC_SAR_Seq_1_IRQ_Start
 654              		.thumb
 655              		.thumb_func
 656              		.type	ADC_SAR_Seq_1_IRQ_Start, %function
 657              	ADC_SAR_Seq_1_IRQ_Start:
 658              	.LFB0:
  62:Generated_Source\PSoC5/ADC_SAR_Seq_1_IRQ.c ****     /* For all we know the interrupt is active. */
 659              		.loc 1 62 0
 660              		.cfi_startproc
 661              		@ args = 0, pretend = 0, frame = 0
 662              		@ frame_needed = 0, uses_anonymous_args = 0
 663 0000 08B5     		push	{r3, lr}
 664              		.cfi_def_cfa_offset 8
 665              		.cfi_offset 3, -8
 666              		.cfi_offset 14, -4
  64:Generated_Source\PSoC5/ADC_SAR_Seq_1_IRQ.c **** 
 667              		.loc 1 64 0
 668 0002 FFF7FEFF 		bl	ADC_SAR_Seq_1_IRQ_Disable
 669              	.LVL7:
  67:Generated_Source\PSoC5/ADC_SAR_Seq_1_IRQ.c **** 
 670              		.loc 1 67 0
 671 0006 0448     		ldr	r0, .L27
 672 0008 FFF7FEFF 		bl	ADC_SAR_Seq_1_IRQ_SetVector
 673              	.LVL8:
  70:Generated_Source\PSoC5/ADC_SAR_Seq_1_IRQ.c **** 
 674              		.loc 1 70 0
 675 000c 0720     		movs	r0, #7
 676 000e FFF7FEFF 		bl	ADC_SAR_Seq_1_IRQ_SetPriority
 677              	.LVL9:
  73:Generated_Source\PSoC5/ADC_SAR_Seq_1_IRQ.c **** }
 678              		.loc 1 73 0
 679 0012 FFF7FEFF 		bl	ADC_SAR_Seq_1_IRQ_Enable
 680              	.LVL10:
 681 0016 08BD     		pop	{r3, pc}
 682              	.L28:
 683              		.align	2
 684              	.L27:
 685 0018 00000000 		.word	ADC_SAR_Seq_1_IRQ_Interrupt
 686              		.cfi_endproc
 687              	.LFE0:
 688              		.size	ADC_SAR_Seq_1_IRQ_Start, .-ADC_SAR_Seq_1_IRQ_Start
 689              		.section	.text.ADC_SAR_Seq_1_IRQ_StartEx,"ax",%progbits
 690              		.align	2
 691              		.global	ADC_SAR_Seq_1_IRQ_StartEx
 692              		.thumb
 693              		.thumb_func
 694              		.type	ADC_SAR_Seq_1_IRQ_StartEx, %function
 695              	ADC_SAR_Seq_1_IRQ_StartEx:
 696              	.LFB1:
 105:Generated_Source\PSoC5/ADC_SAR_Seq_1_IRQ.c ****     /* For all we know the interrupt is active. */
 697              		.loc 1 105 0
 698              		.cfi_startproc
 699              		@ args = 0, pretend = 0, frame = 0
 700              		@ frame_needed = 0, uses_anonymous_args = 0
ARM GAS  C:\Users\Luggi\AppData\Local\Temp\ccmud0fg.s 			page 44


 701              	.LVL11:
 702 0000 10B5     		push	{r4, lr}
 703              		.cfi_def_cfa_offset 8
 704              		.cfi_offset 4, -8
 705              		.cfi_offset 14, -4
 706 0002 0446     		mov	r4, r0
 107:Generated_Source\PSoC5/ADC_SAR_Seq_1_IRQ.c **** 
 707              		.loc 1 107 0
 708 0004 FFF7FEFF 		bl	ADC_SAR_Seq_1_IRQ_Disable
 709              	.LVL12:
 110:Generated_Source\PSoC5/ADC_SAR_Seq_1_IRQ.c **** 
 710              		.loc 1 110 0
 711 0008 2046     		mov	r0, r4
 712 000a FFF7FEFF 		bl	ADC_SAR_Seq_1_IRQ_SetVector
 713              	.LVL13:
 113:Generated_Source\PSoC5/ADC_SAR_Seq_1_IRQ.c **** 
 714              		.loc 1 113 0
 715 000e 0720     		movs	r0, #7
 716 0010 FFF7FEFF 		bl	ADC_SAR_Seq_1_IRQ_SetPriority
 717              	.LVL14:
 116:Generated_Source\PSoC5/ADC_SAR_Seq_1_IRQ.c **** }
 718              		.loc 1 116 0
 719 0014 FFF7FEFF 		bl	ADC_SAR_Seq_1_IRQ_Enable
 720              	.LVL15:
 721 0018 10BD     		pop	{r4, pc}
 722              		.cfi_endproc
 723              	.LFE1:
 724              		.size	ADC_SAR_Seq_1_IRQ_StartEx, .-ADC_SAR_Seq_1_IRQ_StartEx
 725 001a 00BF     		.section	.text.ADC_SAR_Seq_1_IRQ_Stop,"ax",%progbits
 726              		.align	2
 727              		.global	ADC_SAR_Seq_1_IRQ_Stop
 728              		.thumb
 729              		.thumb_func
 730              		.type	ADC_SAR_Seq_1_IRQ_Stop, %function
 731              	ADC_SAR_Seq_1_IRQ_Stop:
 732              	.LFB2:
 135:Generated_Source\PSoC5/ADC_SAR_Seq_1_IRQ.c ****     /* Disable this interrupt. */
 733              		.loc 1 135 0
 734              		.cfi_startproc
 735              		@ args = 0, pretend = 0, frame = 0
 736              		@ frame_needed = 0, uses_anonymous_args = 0
 737 0000 08B5     		push	{r3, lr}
 738              		.cfi_def_cfa_offset 8
 739              		.cfi_offset 3, -8
 740              		.cfi_offset 14, -4
 137:Generated_Source\PSoC5/ADC_SAR_Seq_1_IRQ.c **** 
 741              		.loc 1 137 0
 742 0002 FFF7FEFF 		bl	ADC_SAR_Seq_1_IRQ_Disable
 743              	.LVL16:
 140:Generated_Source\PSoC5/ADC_SAR_Seq_1_IRQ.c **** }
 744              		.loc 1 140 0
 745 0006 0248     		ldr	r0, .L33
 746 0008 FFF7FEFF 		bl	ADC_SAR_Seq_1_IRQ_SetVector
 747              	.LVL17:
 748 000c 08BD     		pop	{r3, pc}
 749              	.L34:
 750 000e 00BF     		.align	2
ARM GAS  C:\Users\Luggi\AppData\Local\Temp\ccmud0fg.s 			page 45


 751              	.L33:
 752 0010 00000000 		.word	IntDefaultHandler
 753              		.cfi_endproc
 754              	.LFE2:
 755              		.size	ADC_SAR_Seq_1_IRQ_Stop, .-ADC_SAR_Seq_1_IRQ_Stop
 756              		.section	.text.ADC_SAR_Seq_1_IRQ_SetPending,"ax",%progbits
 757              		.align	2
 758              		.global	ADC_SAR_Seq_1_IRQ_SetPending
 759              		.thumb
 760              		.thumb_func
 761              		.type	ADC_SAR_Seq_1_IRQ_SetPending, %function
 762              	ADC_SAR_Seq_1_IRQ_SetPending:
 763              	.LFB11:
 353:Generated_Source\PSoC5/ADC_SAR_Seq_1_IRQ.c **** }
 354:Generated_Source\PSoC5/ADC_SAR_Seq_1_IRQ.c **** 
 355:Generated_Source\PSoC5/ADC_SAR_Seq_1_IRQ.c **** 
 356:Generated_Source\PSoC5/ADC_SAR_Seq_1_IRQ.c **** /*******************************************************************************
 357:Generated_Source\PSoC5/ADC_SAR_Seq_1_IRQ.c **** * Function Name: ADC_SAR_Seq_1_IRQ_SetPending
 358:Generated_Source\PSoC5/ADC_SAR_Seq_1_IRQ.c **** ********************************************************************************
 359:Generated_Source\PSoC5/ADC_SAR_Seq_1_IRQ.c **** *
 360:Generated_Source\PSoC5/ADC_SAR_Seq_1_IRQ.c **** * Summary:
 361:Generated_Source\PSoC5/ADC_SAR_Seq_1_IRQ.c **** *   Causes the Interrupt to enter the pending state, a software method of
 362:Generated_Source\PSoC5/ADC_SAR_Seq_1_IRQ.c **** *   generating the interrupt.
 363:Generated_Source\PSoC5/ADC_SAR_Seq_1_IRQ.c **** *
 364:Generated_Source\PSoC5/ADC_SAR_Seq_1_IRQ.c **** * Parameters:
 365:Generated_Source\PSoC5/ADC_SAR_Seq_1_IRQ.c **** *   None
 366:Generated_Source\PSoC5/ADC_SAR_Seq_1_IRQ.c **** *
 367:Generated_Source\PSoC5/ADC_SAR_Seq_1_IRQ.c **** * Return:
 368:Generated_Source\PSoC5/ADC_SAR_Seq_1_IRQ.c **** *   None
 369:Generated_Source\PSoC5/ADC_SAR_Seq_1_IRQ.c **** *
 370:Generated_Source\PSoC5/ADC_SAR_Seq_1_IRQ.c **** * Side Effects:
 371:Generated_Source\PSoC5/ADC_SAR_Seq_1_IRQ.c **** *   If interrupts are enabled and the interrupt is set up properly, the ISR is
 372:Generated_Source\PSoC5/ADC_SAR_Seq_1_IRQ.c **** *   entered (depending on the priority of this interrupt and other pending 
 373:Generated_Source\PSoC5/ADC_SAR_Seq_1_IRQ.c **** *   interrupts).
 374:Generated_Source\PSoC5/ADC_SAR_Seq_1_IRQ.c **** *
 375:Generated_Source\PSoC5/ADC_SAR_Seq_1_IRQ.c **** *******************************************************************************/
 376:Generated_Source\PSoC5/ADC_SAR_Seq_1_IRQ.c **** void ADC_SAR_Seq_1_IRQ_SetPending(void)
 377:Generated_Source\PSoC5/ADC_SAR_Seq_1_IRQ.c **** {
 764              		.loc 1 377 0
 765              		.cfi_startproc
 766              		@ args = 0, pretend = 0, frame = 0
 767              		@ frame_needed = 0, uses_anonymous_args = 0
 768              		@ link register save eliminated.
 378:Generated_Source\PSoC5/ADC_SAR_Seq_1_IRQ.c ****     *ADC_SAR_Seq_1_IRQ_INTC_SET_PD = ADC_SAR_Seq_1_IRQ__INTC_MASK;
 769              		.loc 1 378 0
 770 0000 0422     		movs	r2, #4
 771 0002 014B     		ldr	r3, .L36
 772 0004 1A60     		str	r2, [r3]
 773 0006 7047     		bx	lr
 774              	.L37:
 775              		.align	2
 776              	.L36:
 777 0008 00E200E0 		.word	-536813056
 778              		.cfi_endproc
 779              	.LFE11:
 780              		.size	ADC_SAR_Seq_1_IRQ_SetPending, .-ADC_SAR_Seq_1_IRQ_SetPending
 781              		.section	.text.ADC_SAR_Seq_1_IRQ_ClearPending,"ax",%progbits
ARM GAS  C:\Users\Luggi\AppData\Local\Temp\ccmud0fg.s 			page 46


 782              		.align	2
 783              		.global	ADC_SAR_Seq_1_IRQ_ClearPending
 784              		.thumb
 785              		.thumb_func
 786              		.type	ADC_SAR_Seq_1_IRQ_ClearPending, %function
 787              	ADC_SAR_Seq_1_IRQ_ClearPending:
 788              	.LFB12:
 379:Generated_Source\PSoC5/ADC_SAR_Seq_1_IRQ.c **** }
 380:Generated_Source\PSoC5/ADC_SAR_Seq_1_IRQ.c **** 
 381:Generated_Source\PSoC5/ADC_SAR_Seq_1_IRQ.c **** 
 382:Generated_Source\PSoC5/ADC_SAR_Seq_1_IRQ.c **** /*******************************************************************************
 383:Generated_Source\PSoC5/ADC_SAR_Seq_1_IRQ.c **** * Function Name: ADC_SAR_Seq_1_IRQ_ClearPending
 384:Generated_Source\PSoC5/ADC_SAR_Seq_1_IRQ.c **** ********************************************************************************
 385:Generated_Source\PSoC5/ADC_SAR_Seq_1_IRQ.c **** *
 386:Generated_Source\PSoC5/ADC_SAR_Seq_1_IRQ.c **** * Summary:
 387:Generated_Source\PSoC5/ADC_SAR_Seq_1_IRQ.c **** *   Clears a pending interrupt in the interrupt controller.
 388:Generated_Source\PSoC5/ADC_SAR_Seq_1_IRQ.c **** *
 389:Generated_Source\PSoC5/ADC_SAR_Seq_1_IRQ.c **** *   Note Some interrupt sources are clear-on-read and require the block 
 390:Generated_Source\PSoC5/ADC_SAR_Seq_1_IRQ.c **** *   interrupt/status register to be read/cleared with the appropriate block API 
 391:Generated_Source\PSoC5/ADC_SAR_Seq_1_IRQ.c **** *   (GPIO, UART, and so on). Otherwise the ISR will continue to remain in 
 392:Generated_Source\PSoC5/ADC_SAR_Seq_1_IRQ.c **** *   pending state even though the interrupt itself is cleared using this API.
 393:Generated_Source\PSoC5/ADC_SAR_Seq_1_IRQ.c **** *
 394:Generated_Source\PSoC5/ADC_SAR_Seq_1_IRQ.c **** * Parameters:
 395:Generated_Source\PSoC5/ADC_SAR_Seq_1_IRQ.c **** *   None
 396:Generated_Source\PSoC5/ADC_SAR_Seq_1_IRQ.c **** *
 397:Generated_Source\PSoC5/ADC_SAR_Seq_1_IRQ.c **** * Return:
 398:Generated_Source\PSoC5/ADC_SAR_Seq_1_IRQ.c **** *   None
 399:Generated_Source\PSoC5/ADC_SAR_Seq_1_IRQ.c **** *
 400:Generated_Source\PSoC5/ADC_SAR_Seq_1_IRQ.c **** *******************************************************************************/
 401:Generated_Source\PSoC5/ADC_SAR_Seq_1_IRQ.c **** void ADC_SAR_Seq_1_IRQ_ClearPending(void)
 402:Generated_Source\PSoC5/ADC_SAR_Seq_1_IRQ.c **** {
 789              		.loc 1 402 0
 790              		.cfi_startproc
 791              		@ args = 0, pretend = 0, frame = 0
 792              		@ frame_needed = 0, uses_anonymous_args = 0
 793              		@ link register save eliminated.
 403:Generated_Source\PSoC5/ADC_SAR_Seq_1_IRQ.c ****     *ADC_SAR_Seq_1_IRQ_INTC_CLR_PD = ADC_SAR_Seq_1_IRQ__INTC_MASK;
 794              		.loc 1 403 0
 795 0000 0422     		movs	r2, #4
 796 0002 014B     		ldr	r3, .L39
 797 0004 1A60     		str	r2, [r3]
 798 0006 7047     		bx	lr
 799              	.L40:
 800              		.align	2
 801              	.L39:
 802 0008 80E200E0 		.word	-536812928
 803              		.cfi_endproc
 804              	.LFE12:
 805              		.size	ADC_SAR_Seq_1_IRQ_ClearPending, .-ADC_SAR_Seq_1_IRQ_ClearPending
 806              		.text
 807              	.Letext0:
 808              		.file 2 "Generated_Source\\PSoC5/cytypes.h"