ARM GAS  C:\Users\Luggi\AppData\Local\Temp\cc74KHxU.s 			page 1


   1              		.syntax unified
   2              		.cpu cortex-m3
   3              		.fpu softvfp
   4              		.eabi_attribute 20, 1
   5              		.eabi_attribute 21, 1
   6              		.eabi_attribute 23, 3
   7              		.eabi_attribute 24, 1
   8              		.eabi_attribute 25, 1
   9              		.eabi_attribute 26, 1
  10              		.eabi_attribute 30, 1
  11              		.eabi_attribute 34, 1
  12              		.eabi_attribute 18, 4
  13              		.thumb
  14              		.file	"ADC_SAR_2_theACLK.c"
  15              		.text
  16              	.Ltext0:
  17              		.section	.gnu.lto_.profile.bb48de6,"",%progbits
  18 0000 789C6366 		.ascii	"x\234cf```c\200\000F\206\353\214+\030\001\005R\001\214"
  18      60606063 
  18      80004686 
  18      EB8C2B18 
  18      01055201 
  19              		.text
  20              		.section	.gnu.lto_.inline.bb48de6,"",%progbits
  21 0000 789C6366 		.ascii	"x\234cf\300\016\272\030!47\003\003'\007#\003\023\317"
  21      C00EBA18 
  21      21343703 
  21      03270723 
  21      0313CF
  22 0013 835806B6 		.ascii	"\203X\006\266\005\362L 1FL!&\006\031m\240\220\321\234"
  22      05F24C20 
  22      31464C21 
  22      2606196D 
  22      A090D19C 
  23 0027 0E56B818 		.ascii	"\016V\270\0303\0037;#3C\306G&\306\306e\273{\330_0\375"
  23      3303373B 
  23      233343C6 
  23      4726C6C6 
  23      65BB7BD8 
  24 003e 0489332E 		.ascii	"\004\2113.g\224b`\310\204P@[X\201b`-,\013\344\005\030"
  24      67946260 
  24      C8845040 
  24      5B588162 
  24      602D2C0B 
  25 0055 D8CEC870 		.ascii	"\330\316\310p0\260-\021b\001\231\300\302\300\302\014"
  25      30B02D11 
  25      620199C0 
  25      C2C0C20C 
  26 0065 3495E902 		.ascii	"4\225\351\002?\334PV\006v6FF\220>f\266\017z\020a\240"
  26      3FDC5056 
  26      06763646 
  26      46903E66 
  26      B60F7A10 
  27 007b 3C58391B 		.ascii	"<X9\033\003\007;\272\034\320P\260\034;\003+\013\320"
  27      03073BBA 
  27      1CD050B0 
  27      1C3B032B 
ARM GAS  C:\Users\Luggi\AppData\Local\Temp\cc74KHxU.s 			page 2


  27      0BD0
  28 008d 2820176E 		.ascii	"( \027n\024\007\246\020'\303a\006[F6T7\003\315c\\\001"
  28      1407A610 
  28      27C36106 
  28      5B463654 
  28      3703CD63 
  29 00a3 71338862 		.ascii	"q3\210b\2048\2351\003\356\003\240\235\014,9oV\260@\314"
  29      84389D31 
  29      03EE03A0 
  29      9D0C2C39 
  29      6F56B040 
  30 00b8 E198C2E5 		.ascii	"\341\230\302\345\300\300\362\202\275\001\034\204L\334"
  30      C0C0F282 
  30      BD011C84 
  30      4CDC
  31 00c6 30828B41 		.ascii	"0\202\213AU\031\024\036\030\001 \260\"\017\252\363\216"
  31      5519141E 
  31      180120B0 
  31      220FAAF3 
  31      8E
  32 00d7 AC0083D0 		.ascii	"\254\000\203\3206\240\347\205\256\010p\240\352f\000"
  32      36A0E785 
  32      AE0870A0 
  32      EA6600
  33 00e6 0066D635 		.ascii	"\000f\3265\011"
  33      09
  34              		.text
  35              		.section	.gnu.lto_.jmpfuncs.bb48de6,"",%progbits
  36 0000 789C6D8A 		.ascii	"x\234m\212[\012\000 \014\303R\347\333\343x\300]]\007"
  36      5B0A0020 
  36      0CC352E7 
  36      DBE378C0 
  36      5D5D07
  37 0013 7E5A4803 		.ascii	"~ZH\003\245\306?\373y]\004\011L\222g(\341\032\325\240"
  37      A5C63FFB 
  37      795D0409 
  37      4C926728 
  37      E11AD5A0 
  38 0027 C34892B9 		.ascii	"\303H\222\271\303\214\355\336\017O\350\003\206"
  38      C38CEDDE 
  38      0F4FE803 
  38      86
  39              		.text
  40              		.section	.gnu.lto_.pureconst.bb48de6,"",%progbits
  41 0000 789C6366 		.ascii	"x\234cf``\020g\200\000n\006)F)&)f)\026)V)6)v)\016)N"
  41      60601067 
  41      80006E06 
  41      29462926 
  41      29662916 
  42 001e 292E2900 		.ascii	").)\000\022T\001{"
  42      1254017B 
  43              		.text
  44              		.section	.gnu.lto_ADC_SAR_2_theACLK_Start.bb48de6,"",%progbits
  45 0000 789C6366 		.ascii	"x\234cf\300\004R@\274\211\221\201A\027H32302M8\307\300"
  45      C0045240 
  45      BC899181 
  45      41174833 
ARM GAS  C:\Users\Luggi\AppData\Local\Temp\cc74KHxU.s 			page 3


  45      32333032 
  46 0018 D0C8C1C4 		.ascii	"\320\310\301\304\310\010b002\32431\3263\276d\372\310"
  46      C8086230 
  46      3032D433 
  46      31D633BE 
  46      64FAC8
  47 002b C438E1C0 		.ascii	"\3048\341\300\352\031\334\352K\033\032\032>\\:\335\030"
  47      EA19DCEA 
  47      4B1B1A1A 
  47      3E5C3ADD 
  47      18
  48 003c 7080F127 		.ascii	"p\200\361'\023\003\303g&\2109\214\313\031\325\031\200"
  48      1303C367 
  48      2688398C 
  48      CB19D519 
  48      80
  49 004d 8A3EB6FC 		.ascii	"\212>\266\374\275\316\315\326\002T$\000\221c\\\301\310"
  49      BDCECDD6 
  49      02542400 
  49      91635CC1 
  49      C8
  50 005e 06349F61 		.ascii	"\0064\237a\275\320\201\206\377\3777\257?x\205\221\203"
  50      BDD08186 
  50      FFFF37AF 
  50      3F788591 
  50      83
  51 006f 89E12713 		.ascii	"\211\341'\023\3202 \301\012\"\330@\004\003\303\023\240"
  51      D03220C1 
  51      0A22D840 
  51      0403C313 
  51      A0
  52 0080 7290A54F 		.ascii	"r\220\245O\231\230@4\363-\306C\337\272\216]c\007\231"
  52      99984034 
  52      F32DC643 
  52      DFBA8E5D 
  52      630799
  53 0093 F09D09EC 		.ascii	"\360\235\011\354\202\356\375\2778_0\375dbZ\324\336\330"
  53      82EEFDBF 
  53      385F30FD 
  53      64625AD4 
  53      DED8
  54 00a5 C002B2EF 		.ascii	"\300\002\262\357\376\223\363\0279\300B\014 \356\306"
  54      FE93F317 
  54      39C0420C 
  54      20EEC6
  55 00b4 8D1D3F38 		.ascii	"\215\035?8\3472\316nl\001\272\216\231q%\243\024\343"
  55      E732CE6E 
  55      6C01BA8E 
  55      997125A3 
  55      14E3
  56 00c6 2A46A01F 		.ascii	"*F\240\037\031W3\316ed\270\305\330\374\205\015b\034"
  56      195733CE 
  56      6564B8C5 
  56      D8FC850D 
  56      621C
  57 00d8 33C4C45D 		.ascii	"3\304\304]\223N\314`\003igda`\\\003T\011\264t\022#H"
  57      934ECC60 
ARM GAS  C:\Users\Luggi\AppData\Local\Temp\cc74KHxU.s 			page 4


  57      03696764 
  57      61605C03 
  57      5409B474 
  58 00ef 093EC3D6 		.ascii	"\011>\303\326\002\015\003\032\301\000v\341\271cP\027"
  58      020D031A 
  58      C10076E1 
  58      B9635017 
  59 00ff B202B5AC 		.ascii	"\262\002\265\254\236r\37307\3309\233`.\354\334\276\356"
  59      9E72FB30 
  59      37D8399B 
  59      602EECDC 
  59      BEEE
  60 0111 0317C294 		.ascii	"\003\027\302\224upS\326\2439\011d\004\206\033p\352\336"
  60      757053D6 
  60      A3390964 
  60      04861B70 
  60      EADE
  61 0123 0076031B 		.ascii	"\000v\003\033\303=\306\306\003WYA\252A\321\360\004\030"
  61      C33DC6C6 
  61      03575941 
  61      AA41D1F0 
  61      0418
  62 0135 90C0B003 		.ascii	"\220\300\260\003\006\206\266{j^jQbIjJ|p~iQrjL@p\276"
  62      0686B67B 
  62      6A5E6A51 
  62      62496A4A 
  62      7C707E69 
  63 0150 B3698CA3 		.ascii	"\263i\214\243\213s|\260cP\274Q|IF\252\243\263\217\267"
  63      8B737CB0 
  63      6350BC51 
  63      7C4946AA 
  63      A3B38FB7 
  64 0164 5E320300 		.ascii	"^2\003\000\232\242\242\351"
  64      9AA2A2E9 
  65              		.text
  66              		.section	.gnu.lto_ADC_SAR_2_theACLK_Stop.bb48de6,"",%progbits
  67 0000 789C6366 		.ascii	"x\234cf\300\004R@\274\231\221\201A\027H32302M8\307\300"
  67      C0045240 
  67      BC999181 
  67      41174833 
  67      32333032 
  68 0018 D0C8C1C4 		.ascii	"\320\310\301\304\310\010b002\32431\3263\276d\372\310"
  68      C8086230 
  68      3032D433 
  68      31D633BE 
  68      64FAC8
  69 002b C438E1C0 		.ascii	"\3048\341\300\352\031\334\352K\033\032\032>|\332(\321"
  69      EA19DCEA 
  69      4B1B1A1A 
  69      3E7CDA28 
  69      D1
  70 003c 2AF19389 		.ascii	"*\361\223\211\201\3413\023\304\030\306\345\214\352\014"
  70      81E13313 
  70      C418C6E5 
  70      8CEA0C
  71 004b 40351F5B 		.ascii	"@5\037[\376^\347fk\001\252\021\200\3101\256`d\003\032"
  71      FE5EE766 
ARM GAS  C:\Users\Luggi\AppData\Local\Temp\cc74KHxU.s 			page 5


  71      6B01AA11 
  71      80C831AE 
  71      6064031A 
  72 005f CFB05EE8 		.ascii	"\317\260^\350@\303\377\377\233\317L\354Pg\344`b\370"
  72      40C3FFFF 
  72      9BCF4CEC 
  72      5067E460 
  72      62F8
  73 0071 C904B40C 		.ascii	"\311\004\264\014H\260\202\0106\020\301\300\360\004\250"
  73      48B08208 
  73      3610C1C0 
  73      F004A8
  74 0080 1E64E953 		.ascii	"\036d\351S&&\020\315|\213\361\320\267\256k3\253@F|g"
  74      262610CD 
  74      7C8BF1D0 
  74      B7AE6B33 
  74      AB40467C 
  75 0095 02BBA07B 		.ascii	"\002\273\240{\377/\316\027L?\231\230\026\26576\260\200"
  75      FF2FCE17 
  75      4C3F9998 
  75      16B53736 
  75      B080
  76 00a7 2CBCFFE4 		.ascii	",\274\377\344\374E\016\260\020\003\210\273qc\307\017"
  76      FC450EB0 
  76      100388BB 
  76      7163C70F 
  77 00b7 CEB98CB3 		.ascii	"\316\271\214\263\033[\030\177213\256d\224b\\\305\010"
  77      1B5B187F 
  77      323133AE 
  77      6494625C 
  77      C508
  78 00c9 F423E36A 		.ascii	"\364#\343j\306\271\214\014\267\030\233\177\260A\214"
  78      C6B98C0C 
  78      B7189B7F 
  78      B0418C
  79 00d8 638698B8 		.ascii	"c\206\230\270\374\350\363\203\274 \355\314\277\031\031"
  79      FCE8F383 
  79      BC20EDCC 
  79      BF1919
  80 00e7 18D70095 		.ascii	"\030\327\000\225\002m\235\304\010R\203\317\264\265@"
  80      026D9DC4 
  80      085283CF 
  80      B4B540
  81 00f6 D3806630 		.ascii	"\323\200f0\200\235xof\005\304LV\240\226\325Sn\037\346"
  81      809D786F 
  81      6605C44C 
  81      56A096D5 
  81      536E1FE6 
  82 010a 06BB6713 		.ascii	"\006\273g\023\314\211\235\333\327}\340B\230\262\016"
  82      CC899DDB 
  82      D77DE042 
  82      98B20E
  83 0119 6ECA7A34 		.ascii	"n\312z47\201\214\300p\003N\335\033\300n`c\270\307\330"
  83      37818CC0 
  83      70034EDD 
  83      1BC06E60 
  83      63B8C7D8 
ARM GAS  C:\Users\Luggi\AppData\Local\Temp\cc74KHxU.s 			page 6


  84 012d 7860A71B 		.ascii	"x`\247\033H5(\"\236\000C\022\030x\300\320\320vO\315"
  84      48352822 
  84      9E004312 
  84      1878C0D0 
  84      D0764FCD 
  85 0141 4B2D4A2C 		.ascii	"K-J,IM\211\017\316/-JN\215\011\010\316w6\215qtq\216"
  85      494D890F 
  85      CE2F2D4A 
  85      4E8D0908 
  85      CE77368D 
  86 0159 0F760C8A 		.ascii	"\017v\014\2127\212/\311Hut\366\361\326Kf\000\000>\231"
  86      378A2FC9 
  86      487574F6 
  86      F1D64B66 
  86      00003E99 
  87 016d A40B     		.ascii	"\244\013"
  88              		.text
  89              		.section	.gnu.lto_ADC_SAR_2_theACLK_StopBlock.bb48de6,"",%progbits
  90 0000 789C8D94 		.ascii	"x\234\215\224]LTG\024\307\347\314\375\332e\221\017\341"
  90      5D4C5447 
  90      14C7E7CC 
  90      FDDA6591 
  90      0FE1
  91 0012 81FAD03E 		.ascii	"\201\372\320>\230\324\007\023L\032M\372J i\322\372`"
  91      98D40713 
  91      4C1A4DFA 
  91      4A2069D2 
  91      FA60
  92 0024 E0A5261A 		.ascii	"\340\245&\032\242\262IM\0321D}\360\241\334\013\253\""
  92      A2B2494D 
  92      1A31447D 
  92      F0A1DC0B 
  92      AB22
  93 0036 2529A051 		.ascii	"%)\240Q\252\245Dm\313*\365c\321\212\210\037\013\010"
  93      AAA5446D 
  93      CB2AF563 
  93      D18A881F 
  93      0B08
  94 0048 ABA2D835 		.ascii	"\253\242\3305\210\021\023$\312Zh\332f\011-\260*l\317"
  94      88111324 
  94      CA5A68DA 
  94      66092DB0 
  94      2A6CCF
  95 005b 99B97B81 		.ascii	"\231\271{\2015\0307\331\271\367\316\234\363\233\377"
  95      351837D9 
  95      B9F7CE9C 
  95      F39BFF
  96 006a 9C8F51D8 		.ascii	"\234\217Q\330\333\277\315\370_\2573\366)>\301\305\200"
  96      DBBFCDF8 
  96      5FAF33F6 
  96      293EC1C5 
  96      80
  97 007b D7F63366 		.ascii	"\327\3663f\2718W\006\32603E\277\366!3S\025P\345\264"
  97      B9385706 
  97      D6303345 
  97      BFF62133 
  97      531550E5 
ARM GAS  C:\Users\Luggi\AppData\Local\Temp\cc74KHxU.s 			page 7


  98 0090 CA8D9A10 		.ascii	"\312\215\232\020\303y\315g\340\274!\347\3634\320\345"
  98      C379CD67 
  98      E0BC21E7 
  98      F334D0E5 
  99 00a0 BA0E402F 		.ascii	"\272\016@/\014X9WTC\323\241\234\253r\243q>\301\2416"
  99      0C583957 
  99      5443D3A1 
  99      9CAB72A3 
  99      713EC1A1 
 100 00b5 D8D2E059 		.ascii	"\330\322\340Y\365\263i\232\321\256\366\234}91\316\330"
 100      F5B3699A 
 100      D1AEF69C 
 100      7D3931CE 
 100      D8
 101 00c6 249706D0 		.ascii	"$\227\006\320\014\253\030\332L\370f\037{t\037\332d\310"
 101      0CAB18DA 
 101      4CF8661F 
 101      7B741FDA 
 101      64C8
 102 00d8 35F0830E 		.ascii	"5\360\203\016\370\3005\253\367@@Sr\201\354\372\236\317"
 102      F8C035AB 
 102      F7404053 
 102      7281ECFA 
 102      9ECF
 103 00ea 4CA68EF1 		.ascii	"L\246\216\361\030\207\014\372<\3668\362\257B\237\234"
 103      18870CFA 
 103      3CF638F2 
 103      AF429F9C 
 104 00fa D3E7606B 		.ascii	"\323\347`k\263\037V\2360\315\212\221'\225\325\251\246"
 104      B31F569E 
 104      30CD8A91 
 104      2795D5A9 
 104      A6
 105 010b DFF48DC4 		.ascii	"\337\364\215\304\343\037\305\270\002\247AA.\234\201"
 105      E31FC5B8 
 105      02A74141 
 105      2E9C81
 106 011a 15D0022B 		.ascii	"\025\320\002+\3548\300\257\260\362\374\362\240\031\217"
 106      EC38C0AF 
 106      B0F2FCF2 
 106      A0198F
 107 0129 4FBEAC1B 		.ascii	"O\276\254\033\373\230\347(,\306U\225\006\027\015n\032"
 107      FB98E728 
 107      2CC65595 
 107      06170D6E 
 107      1A
 108 013a 3CC22C8D 		.ascii	"<\302,\215^\323i\310\240!\223\206,\032\262i`l\024Ew"
 108      5ED369C8 
 108      A0219386 
 108      2C1AB269 
 108      606C1445 
 109 014f 7B580485 		.ascii	"{X\004\205t{\224!\350\232\252\236\372a-\235b\232+\024"
 109      747B9421 
 109      E89AAA9E 
 109      FA612D9D 
 109      629A2B14 
 110 0163 846F6FBE 		.ascii	"\204oo\276r\223R\355\344\001\313TI\355\263\321\007a"
ARM GAS  C:\Users\Luggi\AppData\Local\Temp\cc74KHxU.s 			page 8


 110      729352ED 
 110      E401CB54 
 110      49EDB3D1 
 110      0761
 111 0175 979862F4 		.ascii	"\227\230b\364\031\010T\315\270\033\341\270\345\203\030"
 111      190854CD 
 111      B81BE1B8 
 111      E58318
 112 0184 D7E12C2A 		.ascii	"\327\341,*=GJ\341<4\002\033\202\312\231\375\003\252"
 112      3D474AE1 
 112      3C34021B 
 112      82CA99FD 
 112      03AA
 113 0196 04A64BE6 		.ascii	"\004\246K\346\325\372\333\015:\001P2\\@\333G\340{R\271"
 113      D5FADB0D 
 113      3A015032 
 113      5C40DB47 
 113      E07B52B9 
 114 01aa D5B6A1C8 		.ascii	"\325\266\241\310\375\322Qc\010\003\304\004\354cG\270"
 114      FDD25163 
 114      0803C404 
 114      EC6347B8 
 115 01ba C27C0649 		.ascii	"\302|\006I\214F\377\016k\213\203OG\025\261G\207V\320"
 115      8C46FF0E 
 115      6B8B834F 
 115      4715B147 
 115      8756D0
 116 01cd 7131FEBD 		.ascii	"q1\376\275\271N\210\264L[\367\235\223\177\376\303\205"
 116      B94E88B4 
 116      4C5BF79D 
 116      937FFEC3 
 116      85
 117 01de 502BF801 		.ascii	"P+\370\001I\275\350H\275\204R\027\236\2140\277\341\012"
 117      49BDE848 
 117      BD845217 
 117      9E8C30BF 
 117      E10A
 118 01f0 6D76E13F 		.ascii	"mv\341?\313\260\231\365\025C{\005\2636\301<z\332\367"
 118      CBB099F5 
 118      15437B05 
 118      B336C13C 
 118      7ADAF7
 119 0203 68D942E6 		.ascii	"h\331B\346e\207\331&\231?\205\237\205E\252u<\354\025"
 119      6587D926 
 119      993F859F 
 119      8545AA75 
 119      3CEC15
 120 0216 9B199D67 		.ascii	"\233\031\235g6\335\015\367q\001=\234\200\036\252;\324"
 120      36DD0DF7 
 120      71013D9C 
 120      801EAA3B 
 120      D4
 121 0227 93B610DA 		.ascii	"\223\266\020\332\356@\257\"4\241l\252z\356\307\235D"
 121      EE40AF22 
 121      34A16CAA 
 121      7AEEC79D 
 121      44
ARM GAS  C:\Users\Luggi\AppData\Local\Temp\cc74KHxU.s 			page 9


 122 0238 99E62EF4 		.ascii	"\231\346.\364\032>\333\336 6\322\252\022\240\236~\263"
 122      1A3EDBDE 
 122      2036D2AA 
 122      12A09E7E 
 122      B3
 123 0249 06E653D3 		.ascii	"\006\346S\323\341`\256%R\243K\177\267D4\215\317\215"
 123      E160AE25 
 123      52A34B7F 
 123      B744348D 
 123      CF8D
 124 025b A9426B39 		.ascii	"\251Bk9\203\353r\227z\260\205.\011\273\201\263\210\220"
 124      83EB7297 
 124      7AB0852E 
 124      09BB81B3 
 124      8890
 125 026d 92FA9BBE 		.ascii	"\222\372\233\276\224H\017\272\234:37\254\021\317\250"
 125      94480FBA 
 125      9C3A3337 
 125      AC11CFA8 
 126 027d B2928BC7 		.ascii	"\262\222\213\307\020\305c\015\274\370\316\260\217\232"
 126      10C5630D 
 126      BCF8CEB0 
 126      8F9A
 127 028b 1BE32EB8 		.ascii	"\033\343.\270\211\330\240\300v\222\306A\25007\022\220"
 127      89D8A0C0 
 127      7692C641 
 127      A8303712 
 127      90
 128 029c 128C50A1 		.ascii	"\022\214P\241(0[\247\330\242\254\211\206\016\021=w\205"
 128      28305BA7 
 128      D8A2AC89 
 128      860E113D 
 128      7785
 129 02ae 99BC835B 		.ascii	"\231\274\203[\354\020=\021.L\250N\201.\304w\013\374"
 129      EC103D11 
 129      2E4CA84E 
 129      812EC477 
 129      0BFC
 130 02c0 2DA1DA23 		.ascii	"-\241\332#\3231\033\326l\340;\212\244G&t\372Mh_\272"
 130      D3311BD6 
 130      6CE03B8A 
 130      A4472674 
 130      FA4D685F 
 131 02d5 0892C1A0 		.ascii	"\010\222\301\240W\024g\004\013\025\257\022\273}\232"
 131      57146704 
 131      0B15AF12 
 131      BB7D9A
 132 02e4 0A6504D2 		.ascii	"\012e\004\322\026\341`1,\3444\307_\2124W\245G\250q\254"
 132      16E16031 
 132      2CE434C7 
 132      5F8A3457 
 132      A547A871 
 133 02f9 55E44005 		.ascii	"U\344@\005\006\267\023\315\361\215m\343t\303(\006\020"
 133      06B713CD 
 133      F18D6DE3 
 133      74C32806 
 133      10
ARM GAS  C:\Users\Luggi\AppData\Local\Temp\cc74KHxU.s 			page 10


 134 030a 6F378860 		.ascii	"o7\210`\027\312\256\230\252\036\364\313dM\363\214w\365"
 134      17CAAE98 
 134      AA1EF4CB 
 134      644DF38C 
 134      77F5
 135 031c E59DA4E4 		.ascii	"\345\235\244\344gJ\373\346\236?:\227\211s\275\306\235"
 135      674AFBE6 
 135      9E3F3A97 
 135      8973BDC6 
 135      9D
 136 032d EF26657F 		.ascii	"\357&e\177IZ\237\210c\246\314\376\260\377\210\255 \013"
 136      495A9F88 
 136      63A6CCFE 
 136      B0FF88AD 
 136      200B
 137 033f 7D5A0E3F 		.ascii	"}Z\016?\355\366\210\212lM\334\035\007\333\316ES\346"
 137      EDF6888A 
 137      6C4DDC1D 
 137      07DBCE45 
 137      53E6
 138 0351 31F71CCC 		.ascii	"1\367\034\314\375$Q\331\210xK\304\222\336\375BD\266"
 138      FD2451D9 
 138      88784BC4 
 138      92DEFD42 
 138      44B6
 139 0363 4C66E8E1 		.ascii	"Lf\350\341{$\363\301\202F\252\257\273\307m\017\247b"
 139      7B24F3C1 
 139      8246AAAF 
 139      BBC76D0F 
 139      A762
 140 0375 DD4EC5CE 		.ascii	"\335N\305\316\227\250\250\240\337\235\012\012\333\025"
 140      97A8A8A0 
 140      DF9D0A0A 
 140      DB15
 141 0383 44F9D7E9 		.ascii	"D\371\327\351\366\034\006+\330\366\271\274\205(C\200"
 141      F61C062B 
 141      D8F6B9BC 
 141      85284380 
 142 0393 9378BDAE 		.ascii	"\223x\275\256\376\314\273\303[\266e\227\267\244\270"
 142      FECCBBC3 
 142      5BB66597 
 142      B7A4B8
 143 03a2 A87477D9 		.ascii	"\250tw\3316\357\246\015E\245\371\3536\345\025\344\027"
 143      36EFA60D 
 143      45A5F9EB 
 143      36E515E4 
 143      17
 144 03b3 17E51516 		.ascii	"\027\345\025\026\177R\274\353+o^\376\372/r\267\261\224"
 144      7F52BCEB 
 144      2B6F5EFE 
 144      FA2F72B7 
 144      B194
 145 03c5 D2AF4B0A 		.ascii	"\322\257K\012\266\357\331^\342-\373\037\240\234Oo"
 145      B6EFD95E 
 145      E22DFB1F 
 145      A09C4F6F 
 146              		.text
ARM GAS  C:\Users\Luggi\AppData\Local\Temp\cc74KHxU.s 			page 11


 147              		.section	.gnu.lto_ADC_SAR_2_theACLK_StandbyPower.bb48de6,"",%progbits
 148 0000 789C8D91 		.ascii	"x\234\215\221AHTA\030\307\277\377\314\274\267\217]\203"
 148      41485441 
 148      18C7BFFF 
 148      CCBCB78F 
 148      5D83
 149 0012 E8247BF0 		.ascii	"\350${\360&\"\311\012I\307\240e\003\017v\210\366*,\242"
 149      2622C90A 
 149      49C7A065 
 149      030F7688 
 149      F62A2CA2 
 150 0026 0F3A25D8 		.ascii	"\017:%\330vv^\276\210\242\203,\025BH\2074\253\325\265"
 150      76765EBE 
 150      88A2832C 
 150      15424887 
 150      34ABD5B5 
 151 003a F42096C4 		.ascii	"\364 \226\304V\004\235\214\3020\224\362\262\222ur),"
 151      56049D8C 
 151      C23094F2 
 151      B2927572 
 151      292C
 152 004c 09D9BE99 		.ascii	"\011\331\276\231\261S >\230o\276\371\370\177\277\371"
 152      B153203E 
 152      986FBEF9 
 152      F87FBFF9 
 153 005c CFF724FD 		.ascii	"\317\367$\375\377\235\342\225\021D]\274\303'\210\321"
 153      FF9DE295 
 153      11445DBC 
 153      C32788D1 
 154 006c 65A22810 		.ascii	"e\242(\020B.\265\220N\252\225N\322M\022\236+\253\177"
 154      422EB590 
 154      4EAA954E 
 154      D24D129E 
 154      2BAB7F
 155 007f 89079884 		.ascii	"\211\007\230\204@\303B*\017\303\370&\352\002\243\325"
 155      40C3422A 
 155      0FC3F826 
 155      EA02A3D5 
 156 008f F258AA6D 		.ascii	"\362X\252mRk\275\375a\265\371j\363.\223\177\010w\023"
 156      526BBDFD 
 156      61B5F96A 
 156      F32E937F 
 156      087713
 157 00a2 A6D0C692 		.ascii	"\246\320\306\222xbgO\311\014\210\363\305\317/\352M\255"
 157      7862674F 
 157      C90C88F3 
 157      C5CF2FEA 
 157      4DAD
 158 00b4 F7B5BE52 		.ascii	"\367\265\276R]\257\350\323\330\025\300CH\356@G\032\355"
 158      5DAFE8D3 
 158      D815C043 
 158      48EE4047 
 158      1AED
 159 00c6 69E202E1 		.ascii	"i\342\002\341\021Z\215\270\036\357\255\246\374\230\331"
 159      115A8DB8 
 159      1EEFADA6 
 159      FC98D9
ARM GAS  C:\Users\Luggi\AppData\Local\Temp\cc74KHxU.s 			page 12


 160 00d5 471D138F 		.ascii	"G\035\023\217\341\203\367\331cU\335h\314o\224\266\272"
 160      E183F7D9 
 160      6355DD68 
 160      CC6F94B6 
 160      BA
 161 00e6 449209AC 		.ascii	"D\222\011\254W\334)<\023\022&\004&\020\325x\031\327"
 161      57DC293C 
 161      13122604 
 161      2610D578 
 161      19D7
 162 00f8 9B7CE05D 		.ascii	"\233|\340]~D\374i\244q;a@\277\204\361\037=x~3\261%\254"
 162      7E44FC69 
 162      A4713B61 
 162      40BF84F1 
 162      1F3D787E 
 163 0110 1A65A4AD 		.ascii	"\032e\244\255\361M!i\251E\256\341\325\316\215\345\351"
 163      F14D2169 
 163      A945AEE1 
 163      D5CE8DE5 
 163      E9
 164 0121 3B7072C5 		.ascii	";pr\305\362\362\255\365\327)#\227s\327\"\255\214\313"
 164      F2F2ADF5 
 164      D7292397 
 164      73D722AD 
 164      8CCB
 165 0133 8DDABBF7 		.ascii	"\215\332\273\367\201-\2219^_\250l'\307q7\212\371q\012"
 165      812D9139 
 165      5E5FA86C 
 165      27C77137 
 165      8AF9710A 
 166 0147 D34863C6 		.ascii	"\323Hc\306`Q\3018h\015#\277}\207\363\034q\352\315\327"
 166      6051C138 
 166      680D23BF 
 166      7D87F31C 
 166      71EACDD7 
 167 015b 97474CBB 		.ascii	"\227GL\273\372\303/\237e)_[\262W\036D{\3024fX\263\212"
 167      FAC32F9F 
 167      65295F5B 
 167      B2571E44 
 167      7BC23466 
 168 0172 563A9DD9 		.ascii	"V:\235\331\357\035\216\2358\250\365\351\276\221\237"
 168      EF1D8E9D 
 168      38A8F5E9 
 168      BE919F
 169 0181 FB4602A7 		.ascii	"\373F\002\247\177Vz;\346\333I(\302\334a}\314[\037\201"
 169      7F567A3B 
 169      E6DB4928 
 169      C2DC617D 
 169      CC5B1F81 
 170 0195 F5E1D919 		.ascii	"\365\341\331\031\177AT\275\327c\372\314(k\374?\271\312"
 170      7F4154BD 
 170      D763FACC 
 170      286BFC3F 
 170      B9CA
 171 01a7 D33DDE1D 		.ascii	"\323=\336\035^\014\207\372\212\341@!?xy\250?\354=\227"
 171      5E0C87FA 
 171      8AE14021 
ARM GAS  C:\Users\Luggi\AppData\Local\Temp\cc74KHxU.s 			page 13


 171      3F7879A8 
 171      3FEC3D97 
 172 01bb 1FCC9DEC 		.ascii	"\037\314\235\354\315\236\311\025\362\331\363\205\023"
 172      CD9EC915 
 172      F2D9F385 
 172      13
 173 01c8 85E28530 		.ascii	"\205\342\2050\233;\333\223\351'\357R\221\205\177\001"
 173      9B3BDB93 
 173      E927EF52 
 173      91857F01 
 174 01d8 05E9D03F 		.ascii	"\005\351\320?"
 175              		.text
 176              		.section	.gnu.lto_ADC_SAR_2_theACLK_GetDividerRegister.bb48de6,"",%progbits
 177 0000 789C6366 		.ascii	"x\234cf\300\004R@\374\003\210u\201\230\221\231\201\221"
 177      C0045240 
 177      FC038875 
 177      81989199 
 177      8191
 178 0012 69C23906 		.ascii	"i\3029\006\206F\016&FF\020\203\201\221\241\236\211\261"
 178      86460E26 
 178      46461083 
 178      8191A19E 
 178      89B1
 179 0024 9EF125D3 		.ascii	"\236\361%\323G&\306\323\217~|\346y\301\364\223\211A"
 179      4726C6D3 
 179      8F7E7CE6 
 179      79C1F493 
 179      8941
 180 0036 8001C89D 		.ascii	"\200\001\310\235u\375\351\027f\020\227\221\011\304\335"
 180      75FDE917 
 180      66109791 
 180      09C4DD
 181 0045 FDF9DC23 		.ascii	"\375\371\334#6\365\245\015\015M\037&\315N\2341e\001"
 181      36F5A50D 
 181      0D4D1F26 
 181      CD4E9C31 
 181      6501
 182 0057 E34F2626 		.ascii	"\343O&&\206\317L\014\214\313\031\245\030W0\202,b\\\311"
 182      86CF4C0C 
 182      8CCB19A5 
 182      18573082 
 182      2C625CC9 
 183 006b A80E52FB 		.ascii	"\250\016R\373\261\345\357un\266\226\206\206\006\001"
 183      B1E5EF75 
 183      6EB69686 
 183      860601
 184 007a 900AA0C4 		.ascii	"\220\012\240\304*F6F \275^\350@\303\377\377\233\337"
 184      2A463646 
 184      20BD5EE8 
 184      40C3FFFF 
 184      9BDF
 185 008c 4EE93067 		.ascii	"N\3510gafb\000\231\300\360\004\210Any\012\344\000i\346"
 185      61666200 
 185      99C0F004 
 185      88416E79 
 185      0AE40069 
 186 00a1 5B8C87BE 		.ascii	"[\214\207\276u\335;\313\005\322\363\235\011\344\260"
ARM GAS  C:\Users\Luggi\AppData\Local\Temp\cc74KHxU.s 			page 14


 186      75DD3BCB 
 186      05D2F39D 
 186      09E4B0
 187 00b0 C5ABFEDD 		.ascii	"\305\253\376\335c\005\271\204\271\243\261\261\201\005"
 187      6305B984 
 187      B9A3B1B1 
 187      8105
 188 00be 64C3FD27 		.ascii	"d\303\375'\347/r\200\205\030@\334\306+\217\373\331\347"
 188      E72F7280 
 188      851840DC 
 188      C62B8FFB 
 188      D9E7
 189 00d0 32CE6E6C 		.ascii	"2\316nli< \363\223\211\205q5\320Mk@nb\\\3138\227\221"
 189      693C20F3 
 189      93898571 
 189      35D04D6B 
 189      406E625C 
 190 00e8 E11E6363 		.ascii	"\341\036cc\0037\324@\006\220\225\214 \253\200Lm\367"
 190      0337D440 
 190      0690958C 
 190      20AB804C 
 190      6DF7
 191 00fa D4BCD4A2 		.ascii	"\324\274\324\242\304\222\324\224\370\340\374\322\242"
 191      C492D494 
 191      F8E0FCD2 
 191      A2
 192 0107 E4D49880 		.ascii	"\344\324\230\200\340|g\323\030G\027\347\370`\307\240"
 192      E07C67D3 
 192      184717E7 
 192      F860C7A0 
 193 0117 78A3F892 		.ascii	"x\243\370\222\214TGg\037o\275d\006\000\321\001k\256"
 193      8C544767 
 193      1F6FBD64 
 193      0600D101 
 193      6BAE
 194              		.text
 195              		.section	.gnu.lto_ADC_SAR_2_theACLK_SetModeRegister.bb48de6,"",%progbits
 196 0000 789C7D91 		.ascii	"x\234}\221\337+lQ\024\307\327w\357\2313\303H7O\314\273"
 196      DF2B6C51 
 196      14C7D777 
 196      EF9933C3 
 196      48374FCC 
 197 0015 269107E5 		.ascii	"&\221\007\345\341\276\231;\312\003J\246<\251I\234r\023"
 197      E1BE993B 
 197      CA034AA6 
 197      3CA9499C 
 197      7213
 198 0027 53EE78E5 		.ascii	"S\356x\345\034\306\213'?\"%\245\344\367\257\007\177"
 198      1CC68B27 
 198      3F2225A5 
 198      E4F7AF07 
 198      7F
 199 0038 80D394BC 		.ascii	"\200\323\224\274h\244n\311<\214\322(\324-\342b\224\306"
 199      68A46EC9 
 199      3C8CD228 
 199      D42DE262 
 199      94C6
ARM GAS  C:\Users\Luggi\AppData\Local\Temp\cc74KHxU.s 			page 15


 200 004a 5A661E94 		.ascii	"Zf\036\224\262k\357\275\276k\177\327\247u\326\321\364"
 200      B26BEFBD 
 200      BE6B7FD7 
 200      A775D6D1 
 200      F4
 201 005b 75F97927 		.ascii	"u\371y'@\364\223oh\202\232L\022\331^\005H@\240\021\205"
 201      40F4936F 
 201      68829A4C 
 201      12D95E05 
 201      4840A011 
 202 0070 11DCA87B 		.ascii	"\021\334\250{\205Igk\336\027X\261,\353.\261_1^\236U"
 202      8549676B 
 202      DE1758B1 
 202      2CEB2EB1 
 202      5F315E9E 
 203 0085 440F2A8F 		.ascii	"D\017*\217\301\032\002l9^\235\372g\350Z\020\307Gc\311"
 203      C11A026C 
 203      395E9DFA 
 203      67E85A10 
 203      C74763C9 
 204 0099 B4A772D9 		.ascii	"\264\247r\331\262F\235\364\256\325\200,3\327\241\271"
 204      B2469DF4 
 204      AED5802C 
 204      33D7A1B9 
 205 00a9 02357E54 		.ascii	"\0025~T\371\211\023\204\015T\212\371>\376v\3463\342"
 205      F9891384 
 205      0D548AF9 
 205      3EFE76E6 
 205      33E2
 206 00bb CCFE9167 		.ascii	"\314\376\221gb\023\006\267E{e\216\225\313=$g\257\003"
 206      621306B7 
 206      457B658E 
 206      95CB3D24 
 206      67AF03
 207 00ce EE62C535 		.ascii	"\356b\3055J\363\241]\220J\267\204\206\034\0369\274\362"
 207      4AF3A15D 
 207      904AB784 
 207      861C1E39 
 207      BCF2
 208 00e0 4C94E12D 		.ascii	"L\224\341-\315_\261\340[\247\220x\232x:\037\026\344"
 208      CD5FB1E0 
 208      5BA79078 
 208      9A783A1F 
 208      16E4
 209 00f2 B3922FB9 		.ascii	"\263\222/\271\233\231[*\271VY\345\232\260m\313%\015"
 209      9B995B2A 
 209      B95659E5 
 209      9AB06DCB 
 209      250D
 210 0104 5C644E4E 		.ascii	"\\dNN\275\037)\022yx\371\177\255t\021\013v\234\373v"
 210      BD1F2912 
 210      7978F97F 
 210      AD74110B 
 210      769CFB76 
 211 0118 630B7E6C 		.ascii	"c\013~l\203g\205\035,\202R\030M{\3628\315\304\317\332"
 211      8367851D 
 211      2C825218 
ARM GAS  C:\Users\Luggi\AppData\Local\Temp\cc74KHxU.s 			page 16


 211      4D7BF238 
 211      CDC4CFDA 
 212 012c FDCC8414 		.ascii	"\375\314\204\024\306^\214\274\226\024\363n\235\327\277"
 212      C65E8CBC 
 212      9614F36E 
 212      9DD7BF
 213 013b 4582D72F 		.ascii	"E\202\327/\271\302\342\261\3562\222\275\217\005\257"
 213      B9C2E2B1 
 213      EE3292BD 
 213      8F05AF
 214 014a E703677C 		.ascii	"\347\003g|\306y9\313:1\015\321\3375\266\307\215\261"
 214      C67939CB 
 214      3A310DD1 
 214      DF35B6C7 
 214      8DB1
 215 015c 9FD2B09D 		.ascii	"\237\322\260\235\203\016q\313\177\311\360\214y\006<"
 215      830E71CB 
 215      7FC9F08C 
 215      79063C
 216 016b 91EA2673 		.ascii	"\221\352&s\300\034\354\212\231=\221pth\260\333\354l"
 216      C01CEC8A 
 216      993D9170 
 216      7468B0DB 
 216      EC6C
 217 017d 0B4743F5 		.ascii	"\013GC\365\235\301\306P$\034l\217\324Eb\275f0\324\322"
 217      9DC1C650 
 217      241C6C8F 
 217      D44562BD 
 217      6630D4D2 
 218 0191 5CDB4DBE 		.ascii	"\\\333M\276\376h\217\371\353w\254\265\353O\337;k\206"
 218      FE688FF9 
 218      EB77ACB5 
 218      EB4FDF3B 
 218      6B86
 219 01a3 B0C6     		.ascii	"\260\306"
 220              		.text
 221              		.section	.gnu.lto_ADC_SAR_2_theACLK_ClearModeRegister.bb48de6,"",%progbits
 222 0000 789C7D50 		.ascii	"x\234}PM(DQ\030\375\316}o\236\251\221d\305\333O\022"
 222      4D284451 
 222      18FDCE7D 
 222      6F9EA991 
 222      64C5DB4F 
 223 0015 59280B56 		.ascii	"Y(\013V\306(\013\224\314\302F\2754\363\212\304\024c"
 223      C6280B94 
 223      CCC246BD 
 223      34F38AC4 
 223      1463
 224 0027 CB7B0C0B 		.ascii	"\313{\014\013+?\221\322\224\222\377\277\205\245\315"
 224      2B3F91D2 
 224      9492FFBF 
 224      85A5CD
 225 0036 A4C44223 		.ascii	"\244\304B#Ej\026C\032ER\376\307\210\370\256\267Tn\335"
 225      456A1643 
 225      1A4552FE 
 225      C788F8AE 
 225      B7546EDD 
 226 004a 7BBF7B3A 		.ascii	"{\277{:\347|\347~\012\375]:\357)\020U\361\015\205 \306"
ARM GAS  C:\Users\Luggi\AppData\Local\Temp\cc74KHxU.s 			page 17


 226      E77CE77E 
 226      0AFD5D3A 
 226      EF291055 
 226      F10D8520 
 227 005f 1344B65B 		.ascii	"\023D\266[\000\262 \320\240\300 n\305\243\300x|}\326"
 227      00B220D0 
 227      A0C0206E 
 227      C5A3C078 
 227      7C7DD6
 228 0072 53BC6859 		.ascii	"S\274hY\326\303\323n\321HaV\020=\013\307\006\313(f\312"
 228      D6C3D36E 
 228      D1486156 
 228      103D0BC7 
 228      06CB2866 
 229 0087 D1D2C4BD 		.ascii	"\321\322\304\275\246\224\203\270>\030N\244r\274\013"
 229      A69483B8 
 229      3E184EA4 
 229      72BC0B
 230 0096 963514BF 		.ascii	"\2265\024\277\331\262j\220e\317\025(\254@\231\216\022"
 230      D9B26A90 
 230      65CF1528 
 230      AC40998E 
 230      12
 231 00a7 9D1820AC 		.ascii	"\235\030 \254\302+\311\217\321\257s\217\026e\357|\307"
 231      C22BC98F 
 231      D1AF738F 
 231      1665EF7C 
 231      C7
 232 00b8 136BD038 		.ascii	"\023k\3208\026m\027\304\255\357\357\235\227\351\303"
 232      166D17C4 
 232      ADEFEF9D 
 232      97E9C3
 233 00c7 6A975BB0 		.ascii	"j\227[\260F(\220\"U\226.yh\362 J\363\226\221\257\371"
 233      46289022 
 233      55962E79 
 233      68F2204A 
 233      F39691AF 
 234 00dc C1B792C4 		.ascii	"\301\267\222\304\336\333X\"5 \2152B\346\177\230\232"
 234      DEDB5822 
 234      35208D32 
 234      42E67F98 
 234      9A
 235 00ed 99CFBD11 		.ascii	"\231\317\275\021Y\241\214\331\266\245\312\266\027\351"
 235      59A18CD9 
 235      B6A5CAB6 
 235      17E9
 236 00fb E313F72F 		.ascii	"\343\023\367/D\362\271\177\365\272\234\027\303\234\035"
 236      44F2B97F 
 236      F5BA9C17 
 236      C39C1D
 237 010a E5B42AD6 		.ascii	"\345\264*\326\241c\003<!l\"\006Jb\350c\364Tu\014\325"
 237      A163033C 
 237      216C2206 
 237      4A62E863 
 237      F454750C 
 238 011f 0C6B9218 		.ascii	"\014k\222\030~\031\375T\034\304\305 {d\026.\357 -E\016"
 238      7E19FD54 
ARM GAS  C:\Users\Luggi\AppData\Local\Temp\cc74KHxU.s 			page 18


 238      1CC4C520 
 238      7B64162E 
 238      EF202D45 
 239 0134 618BD54C 		.ascii	"a\213\325Lz\327\034\212\014\302D\206\366&!\241\377z"
 239      7AD71C8A 
 239      0CC24486 
 239      F62621A1 
 239      FF7A
 240 0146 6E734F96 		.ascii	"nsO\226P\012v\374\254U\262\345\240\323<4\376\036\177"
 240      500A76FC 
 240      AC55B2E5 
 240      A0D33C34 
 240      FE1E7F
 241 0159 B6B4DEEC 		.ascii	"\266\264\336\3541{\333#f\310\010\204\373{\203f[s \354"
 241      317BDB23 
 241      66C80884 
 241      FB7B8366 
 241      5B7320EC 
 242 016d AF6CF3D5 		.ascii	"\257l\363\325\371\215\200\257\305\2500\"\035\246\317"
 242      F98D80AF 
 242      C5A83022 
 242      1DA6CF
 243 017c DFD8501E 		.ascii	"\337\330P\036$Ow8d\326vF\232\332\373\272~\000\211X\236"
 243      244F7738 
 243      64D67646 
 243      9ADAFBBA 
 243      7E008958 
 244 0191 17       		.ascii	"\027"
 245              		.text
 246              		.section	.gnu.lto_ADC_SAR_2_theACLK_GetModeRegister.bb48de6,"",%progbits
 247 0000 789C6366 		.ascii	"x\234cf\300\004R@\374\027\210u\201\230\221\231\201\221"
 247      C0045240 
 247      FC178875 
 247      81989199 
 247      8191
 248 0012 69C23906 		.ascii	"i\3029\006\206F\016&FF\020\203\201\221\241\236\211\261"
 248      86460E26 
 248      46461083 
 248      8191A19E 
 248      89B1
 249 0024 9EF125D3 		.ascii	"\236\361%\323G&\3063;\377]fT_\332\320\320\364\341\320"
 249      4726C633 
 249      3BFF5D66 
 249      545FDAD0 
 249      D0F4E1D0 
 250 0038 C5BBDCAD 		.ascii	"\305\273\334\255\022?\231\030\030>310\352H1j\202\314"
 250      123F9918 
 250      183E3331 
 250      30EA4831 
 250      6A82CC
 251 004b 615CCEA8 		.ascii	"a\\\316\250\316\000T\370\261\345\357un\266\226\206\206"
 251      CE0054F8 
 251      B1E5EF75 
 251      6EB69686 
 251      86
 252 005c 0601903C 		.ascii	"\006\001\220<Pb\005#\033#\220^/t\240\341\377\377\317"
 252      50620523 
ARM GAS  C:\Users\Luggi\AppData\Local\Temp\cc74KHxU.s 			page 19


 252      1B23905E 
 252      2F74A0E1 
 252      FFFFCF
 253 006f C7A6BD50 		.ascii	"\307\246\275Pfcab\370\311\004\264\021d\010\303\023 "
 253      66636162 
 253      F8C904B4 
 253      116408C3 
 253      1320
 254 0081 01B2EF29 		.ascii	"\001\262\357)\023\023\210f\276\305x\350[\327\267\027"
 254      13138866 
 254      BEC578E8 
 254      5BD7B717 
 255 0091 16208DDF 		.ascii	"\026 \215\337\231@\226\177\230<m\001\317\013\246\237"
 255      9940967F 
 255      983C6D01 
 255      CF0BA69F 
 256 00a1 4C4C5D8D 		.ascii	"LL]\215\215\015, k\356?9\177\221\003,\304\000\342\036"
 256      8D0D2C20 
 256      6BEE3F39 
 256      7F91032C 
 256      C400E21E 
 257 00b5 7DF47539 		.ascii	"}\364u9\337\\\306\331\215-\214?\231\230\031W2J1\256"
 257      DF5CC6D9 
 257      8D2D8C3F 
 257      99981957 
 257      324A31AE 
 258 00c9 62043A8B 		.ascii	"b\004:\213q5\343\\F\206[\214\315?\332t \3461C\214|\367"
 258      7135E35C 
 258      46865B8C 
 258      CD3FDA74 
 258      20E63143 
 259 00e0 F84F3358 		.ascii	"\370O3X?\303\017F\006\3065@\265\367\030\031\241*\300"
 259      3FC30F46 
 259      06C63540 
 259      B5F71819 
 259      A12AC0
 260 00f3 6E6204B9 		.ascii	"nb\004\271\005h\270\266{j^jQbIjJ|p~iQrjL@p\276\263i"
 260      0568B8B6 
 260      7B6A5E6A 
 260      5162496A 
 260      4A7C707E 
 261 0111 8CA38B73 		.ascii	"\214\243\213s|\260cP\274Q|IF\252\243\263\217\267^2\003"
 261      7CB06350 
 261      BC517C49 
 261      46AAA3B3 
 261      8FB75E32 
 262 0126 0027856A 		.ascii	"\000'\205j\275"
 262      BD
 263              		.text
 264              		.section	.gnu.lto_ADC_SAR_2_theACLK_GetSourceRegister.bb48de6,"",%progbits
 265 0000 789C6366 		.ascii	"x\234cf\300\004R@\374\007\210u\201\230\221\231\201\221"
 265      C0045240 
 265      FC078875 
 265      81989199 
 265      8191
 266 0012 69C23906 		.ascii	"i\3029\006\206F\016&FF\020\203\201\221\241\236\211\261"
 266      86460E26 
ARM GAS  C:\Users\Luggi\AppData\Local\Temp\cc74KHxU.s 			page 20


 266      46461083 
 266      8191A19E 
 266      89B1
 267 0024 9EF125D3 		.ascii	"\236\361%\323G&\3063;\377]fT_\332\320\320\364\241\351"
 267      4726C633 
 267      3BFF5D66 
 267      545FDAD0 
 267      D0F4A1E9 
 268 0038 EB5DEE56 		.ascii	"\353]\356V\211\237L\014\014\237\231\030\030u\244\030"
 268      899F4C0C 
 268      0C9F9918 
 268      1875A418 
 269 0048 3541E630 		.ascii	"5A\3460.gTg\000*\374\330\362\367:7[KCC\203\000H\036"
 269      2E675467 
 269      002AFCD8 
 269      F2F73A37 
 269      5B4B4343 
 270 0060 28B18291 		.ascii	"(\261\202\221\215\021H\257\027:\320\360\377\377\347"
 270      8D1148AF 
 270      173AD0F0 
 270      FFFFE7
 271 006f 2BD35F68 		.ascii	"+\323_h\261\26301\374d\002\332\0102\204\341\011\220"
 271      B1B33031 
 271      FC6402DA 
 271      083284E1 
 271      0990
 272 0081 00D9F794 		.ascii	"\000\331\367\224\211\011D3\337b<\364\255\353\332/\013"
 272      89094433 
 272      DF623CF4 
 272      ADEBDA2F 
 272      0B
 273 0092 90C6EF4C 		.ascii	"\220\306\357L \313?L\236\266\200\347\005\323O&\246\256"
 273      20CB3F4C 
 273      9EB680E7 
 273      05D34F26 
 273      A6AE
 274 00a4 C6C60616 		.ascii	"\306\306\006\026\2205\367\237\234\277\310\001\026b\000"
 274      9035F79F 
 274      9CBFC801 
 274      166200
 275 00b3 718F3EFA 		.ascii	"q\217>\372\272\234o.\343\354\306\026\306\237L\314\214"
 275      BA9C6F2E 
 275      E3ECC616 
 275      C69F4CCC 
 275      8C
 276 00c4 2B19A518 		.ascii	"+\031\245\030W1\002\235\305\270\232q.#\303-\306\346"
 276      5731029D 
 276      C5B89A71 
 276      2E23C32D 
 276      C6E6
 277 00d6 1F6D3A10 		.ascii	"\037m:\020\363\230!F~\377s\274\225\037\244\237\201\235"
 277      F3982146 
 277      7EFF73BC 
 277      951FA49F 
 277      819D
 278 00e8 81710D50 		.ascii	"\201q\015P\351=FF\250\002\260\223\030AN\001\232\255"
 278      E93D4646 
ARM GAS  C:\Users\Luggi\AppData\Local\Temp\cc74KHxU.s 			page 21


 278      A802B093 
 278      18414E01 
 278      9AAD
 279 00fa ED9E9A97 		.ascii	"\355\236\232\227Z\224X\222\232\022\037\234_Z\224\234"
 279      5A945892 
 279      9A121F9C 
 279      5F5A949C 
 280 010a 1A13109C 		.ascii	"\032\023\020\234\357l\032\343\350\342\034\037\354\030"
 280      EF6C1AE3 
 280      E8E21C1F 
 280      EC18
 281 0118 146F145F 		.ascii	"\024o\024_\222\221\352\350\354\343\255\227\314\000\000"
 281      9291EAE8 
 281      ECE3AD97 
 281      CC0000
 282 0127 717C69AD 		.ascii	"q|i\255"
 283              		.text
 284              		.section	.gnu.lto_ADC_SAR_2_theACLK_SetDividerRegister.bb48de6,"",%progbits
 285 0000 789C8D56 		.ascii	"x\234\215VkLTG\030\235o\356\336}\335\335\005\226g\320"
 285      6B4C5447 
 285      189D6FEE 
 285      DE7DDDDD 
 285      059667D0 
 286 0014 88460945 		.ascii	"\210F\011E\305&Ml\3226m$\2324M\373\243\225\246\177j"
 286      C5264D6C 
 286      D2366D24 
 286      9A344DFB 
 286      A395A67F 
 287 0029 4A2C6C52 		.ascii	"J,lRS\243\311\026\373\303\304xWV!\224(\002\"\265\"*"
 287      53A3C916 
 287      FBC3C478 
 287      57562194 
 287      280222B5 
 288 003f 3EF08960 		.ascii	">\360\211`k\025[X\255\200(\242\310K\250]\024Y\036\306"
 288      6B155B58 
 288      AD8028A2 
 288      C84BA85D 
 288      14591EC6 
 289 0053 10080AA8 		.ascii	"\020\010\012\250-t\036\367\336]\260Po\302pg\346;g\276"
 289      2D741EF7 
 289      DE5DB050 
 289      6FC27067 
 289      E63B67BE 
 290 0067 39DF99D9 		.ascii	"9\337\231\331+\240W\237\267\001\241'\022B_\222w\210"
 290      2BA0579F 
 290      B701A127 
 290      12425F92 
 290      7788
 291 0079 4280731A 		.ascii	"B\200s\032\021r\0311\026\352?@\2629\274.\010\311\026"
 291      11721931 
 291      16EA3F40 
 291      B239BC2E 
 291      08C916
 292 008c 01EB32E3 		.ascii	"\001\3532\343H\317D[\213\016\353YOd=Q\351\3619=6\260"
 292      48CF445B 
 292      8B0EEB59 
 292      4F643D51 
ARM GAS  C:\Users\Luggi\AppData\Local\Temp\cc74KHxU.s 			page 22


 292      E9F1393D 
 293 00a2 9E91F50C 		.ascii	"\236\221\365\014\020\316\351\214\352\213\011\233\331"
 293      10CEE98C 
 293      EA8B099B 
 293      D9
 294 00af 7C109B37 		.ascii	"|\020\2337c\013\353I\254')=>g\001+\207Xqdv\035\"\343"
 294      630BEB49 
 294      AC27293D 
 294      3E67012B 
 294      87587164 
 295 00c7 36B7818C 		.ascii	"6\267\201\214G\362\361D\033\004\361\371 \034\314`a\014"
 295      47F2F144 
 295      1B04F1F9 
 295      201CCC60 
 295      610C
 296 00d9 168CEDAC 		.ascii	"\026\214\355\254\027\302z!`\347Av\010\345/\2418\202"
 296      17C27A21 
 296      60E74176 
 296      08E52FA1 
 296      3882
 297 00eb B38533B6 		.ascii	"\263\2053\266\010>\236\030\246&\030\016@_\020\240\255"
 297      083E9E18 
 297      A626180E 
 297      405F10A0 
 297      AD
 298 00fc 58D0897A 		.ascii	"X\320\211z\203\321d\226,\326H[Pp\210=4\",\034\266\012"
 298      83D16496 
 298      2CD6485B 
 298      5070883D 
 298      34222C1C 
 299 0112 562E5D28 		.ascii	"V.](\3777\200\2071\344xN\025JqGeY\036\312\035\216\332"
 299      FF378087 
 299      31E4784E 
 299      154A7147 
 299      65591ECA 
 300 0129 1EF51C23 		.ascii	"\036\365\034#4\202y\000\034\2078\0222\336\333\271\327"
 300      34827900 
 300      1C873812 
 300      32DEDBB9 
 300      D7
 301 013a 242C0344 		.ascii	"$,\003D\336ov\217\217X\372\361s\014\301\264\273\257"
 301      DE6F768F 
 301      8F58FAF1 
 301      730CC1B4 
 301      BBAF
 302 014c DDF754A0 		.ascii	"\335\367T\240]\214iwOi\363C\034[\"\313\333<\217\317"
 302      5D8C6977 
 302      4F69F343 
 302      1C5B22CB 
 302      DB3C8FCF 
 303 0160 C92BC8B8 		.ascii	"\311+\310\270\000\245 \020>8\001\321p\022\242\021\031"
 303      00A52010 
 303      3E3801D1 
 303      7012A211 
 303      19
 304 0171 42700A62 		.ascii	"Bp\012bItC\306\356v\020\336a\274\375\336\226\\+Gf?\022"
 304      497443C6 
ARM GAS  C:\Users\Luggi\AppData\Local\Temp\cc74KHxU.s 			page 23


 304      EE7610DE 
 304      61BCFDDE 
 304      965C2B47 
 305 0188 49163A38 		.ascii	"I\026:8\315\201K\243!\236\302t\010\316@,\215}q\336'"
 305      CD814BA3 
 305      219EC274 
 305      08CE402C 
 305      8D7D71DE 
 306 019d 1B854486 		.ascii	"\033\205D\206\313\317:SiZx\210\340\036d\367\325Jr\241"
 306      CBCF3A53 
 306      695A7888 
 306      E01E64F7 
 306      D54A72A1 
 307 01b1 EC7E3039 		.ascii	"\354~09\031C\361g\003\361\374!\200\212\036\367\016Q"
 307      1943F167 
 307      03F1FC21 
 307      808A1EF7 
 307      0E51
 308 01c3 F888815B 		.ascii	"\370\210\201[\322\373|V\006>\270\263O\014\200\236\373"
 308      D2FB7C56 
 308      063EB8B3 
 308      4F0C809E 
 308      FB
 309 01d4 4FA8AB36 		.ascii	"O\250\2536\243\\\024>c\320\266\212\343\245\300\327\335"
 309      A35C143E 
 309      63D0B68A 
 309      E3A5C0D7 
 309      DD
 310 01e5 95916191 		.ascii	"\225\221a\221KU\260\000\025S7\254\301\207\335\377\264"
 310      4B55B000 
 310      155337AC 
 310      C187DDFF 
 310      B4
 311 01f6 4B7A3751 		.ascii	"Kz7Q:\030\312`!\224\223\277\363\260\220\253\015?\203"
 311      3A18CA60 
 311      219493BF 
 311      F3B090AB 
 311      0D3F83
 312 0209 9E185A08 		.ascii	"\236\030Z\010\234)\263{\344\311\311\221\232\274\376"
 312      9C29B37B 
 312      E4C9C991 
 312      9ABCFE
 313 0218 25BA3781 		.ascii	"%\2727\201H \352\021\2353\":k\002*\243\231\014\353%"
 313      4820EA11 
 313      9D33223A 
 313      6B022AA3 
 313      990CEB25 
 314 022c 446116FA 		.ascii	"Da\026\372j\245M\010m\354\264\211\244M\024m\250\204"
 314      6AA54D08 
 314      6DECB489 
 314      A44D146D 
 314      A884
 315 023e FA39B499 		.ascii	"\3729\264\231G\233\030\332\314\247\315\002\332,\242"
 315      479B18DA 
 315      CCA7CD02 
 315      DA2CA2
 316 024d 4D2C6DE2 		.ascii	"M,m\342\200\312\034O_\027\323f)m\022h\203P\017\3114"
ARM GAS  C:\Users\Luggi\AppData\Local\Temp\cc74KHxU.s 			page 24


 316      80CA1C4F 
 316      5F17D366 
 316      296D1268 
 316      83500FC9 
 317 0262 7B2EF291 		.ascii	"{.\362\221bg\317\025\356C\272\247\250\321J3\037\303"
 317      6267CF15 
 317      EE43BAA7 
 317      A8D14A33 
 317      1FC3
 318 0274 7AB2C103 		.ascii	"z\262\301\003\315;\317\342-/\345L\331\370\034\033F0"
 318      CD3BCFE2 
 318      2D2FE54C 
 318      D9F81C1B 
 318      4630
 319 0286 D90FFC02 		.ascii	"\331\017\374\002[\010\326\210\332\000\263-\222\364I"
 319      5B08D688 
 319      DA00B32D 
 319      92F449
 320 0295 30A2D8E2 		.ascii	"0\242\330\342\2356\2165N\307\232F\310\012\010.0\254"
 320      9D368E35 
 320      4EC79A46 
 320      C80A082E 
 320      30AC
 321 02a7 59C39EA7 		.ascii	"Y\303\236\247X#j\005wGz\337\376(\0166\321!\372\370\210"
 321      58236A05 
 321      77477ADF 
 321      FE280E36 
 321      D121FAF8 
 322 02bc B13C1142 		.ascii	"\261<\021B'\\\035\315\362^\372\202\317\232\251\303\177"
 322      275C1DCD 
 322      F25EFA82 
 322      CF9AA9C3 
 322      7F
 323 02cd A87E61A2 		.ascii	"\250~a\242\036\225\016g\270d\035-EW\317\355&#\033b\225"
 323      1E950E67 
 323      B8641D2D 
 323      4557CFED 
 323      26231B62 
 324 02e2 292FCF1C 		.ascii	")/\317\0347\025\301O.7\020\221\341WR\271\213\264rp\011"
 324      3715C14F 
 324      2E371091 
 324      E15752B9 
 324      8BB47270 
 325 02f7 8A007542 		.ascii	"\212\000uB\372\370\216\006\314\011%\316y\244\251\253"
 325      FAF88E06 
 325      CC0925CE 
 325      79A4A9AB 
 326 0307 89F95E47 		.ascii	"\211\371^GlYIb\325\034\313h\216\022\315\361^\372\330"
 326      6C594962 
 326      D51CCB68 
 326      8E12CDF1 
 326      5EFAD8
 327 031a FEB97E71 		.ascii	"\376\271~q\\\307.g\033(\202\350\010\227\025_\370\210"
 327      5CC72E67 
 327      1B2882E8 
 327      0897155F 
 327      F888
ARM GAS  C:\Users\Luggi\AppData\Local\Temp\cc74KHxU.s 			page 25


 328 032c AB0F4A02 		.ascii	"\253\017J\002\213~,\370\325\320\202-$\3707-XDwD\036"
 328      8B7E2CF8 
 328      D5D0822D 
 328      24F8372D 
 328      58447744 
 329 0341 7C4C91DD 		.ascii	"|L\221\335\0240\253G\027\215|\266\244\350\015\205+`"
 329      1430AB47 
 329      178D7CB6 
 329      A4E80D85 
 329      2B60
 330 0353 DA80F6EB 		.ascii	"\332\200\366\353\250:\005\303my\"\235&\353\224\234\234"
 330      A83A05C3 
 330      6D79229D 
 330      26EB949C 
 330      9C
 331 0364 F08A741D 		.ascii	"\360\212t\035k\246k\2724V\356\371\226G\273\014\2524"
 331      6BA66BBA 
 331      3456EEF9 
 331      9647BB0C 
 331      AA34
 332 0376 36F89D48 		.ascii	"6\370\235HS\305\244\251&\322\220\365\021\323{\264\362"
 332      53C5A4A9 
 332      26D290F5 
 332      11D37BB4 
 332      F2
 333 0387 02F01543 		.ascii	"\002\360\025C\010f(\257\340 \273#\244,\225\265\246\373"
 333      086628AF 
 333      E020BB23 
 333      A42C95B5 
 333      A6FB
 334 0399 D9719B5F 		.ascii	"\331q\233_a\217\246\360\025Ua=\307\3339\305\300\335"
 334      618FA6F0 
 334      1555613D 
 334      C7DB39C5 
 334      C0DD
 335 03ab A71D364A 		.ascii	"\247\0356J!V\003\202\253$\224\254\223\013J\3323\262"
 335      21560382 
 335      AB2494AC 
 335      930B4ADA 
 335      33B2
 336 03bd FDC192B2 		.ascii	"\375\301\222\262\263\375\032\225\375\216fu\277\307\271"
 336      B3FD1A95 
 336      FD8E6675 
 336      BFC7B9
 337 03cc 2DB341AF 		.ascii	"-\263A\257)\211<U\022\261\362\370\212\222\243\027\230"
 337      29893C55 
 337      12B1F2F8 
 337      8A92A317 
 337      98
 338 03dd 79F42B10 		.ascii	"y\364+\020\324\274n\036\265,\017+br{5\271g\024\263N"
 338      D4BC6E1E 
 338      B52C0F2B 
 338      62727B35 
 338      B96714B3 
 339 03f2 1193E66D 		.ascii	"\021\223\346mB\2316\201y\274\354\200RF)\3000f\3446\320"
 339      42993681 
 339      79BCEC80 
ARM GAS  C:\Users\Luggi\AppData\Local\Temp\cc74KHxU.s 			page 26


 339      524629C0 
 339      3066E436 
 340 0407 6D0D0DF5 		.ascii	"m\015\015\3656\033\024\336\311\037\345\345Lo\227\254"
 340      361B14DE 
 340      C91FE5E5 
 340      4C6F97AC 
 341 0417 E85D7FF8 		.ascii	"\350]\177\370\361 f+\271<\3614\267\353Zn\365d\255\300"
 341      F120662B 
 341      B93CF134 
 341      B7EB5A6E 
 341      F564ADC0 
 342 042b 3A8B64EC 		.ascii	":\213d\354\006\337\330\320\271\301t\223\302\231\273"
 342      06DFD8D0 
 342      B9C17493 
 342      C299BB
 343 043a AD7333E3 		.ascii	"\255s3\343\314Q9\367\236p\267Z\0039oj\234\015\234S;"
 343      CC5139F7 
 343      9E70B75A 
 343      03396F6A 
 343      9C0D9C53 
 344 044f 15223915 		.ascii	"\025\"9\025\267\024\316!?g\361\215\246\233\230\221\346"
 344      B714CE21 
 344      3F67F18D 
 344      A69B9891 
 344      E6
 345 0460 ABA479BB 		.ascii	"\253\244y\273\363jl\201\244\215\032\351mB\252f6\232"
 345      F36A6C81 
 345      A48D1AE9 
 345      6D42AA66 
 345      369A
 346 0472 555B95A3 		.ascii	"U[\225\243X,\222\300\274g.\025\262\225\244L\225\251"
 346      582C92C0 
 346      BC672E15 
 346      B295A44C 
 346      95A9
 347 0484 A651CE06 		.ascii	"\246Q\316\006\1771\356h<M\323,\026\305)\212\007&\372"
 347      7F31EE68 
 347      3C4DD32C 
 347      16C5298A 
 347      0726FA
 348 0497 752CD9AD 		.ascii	"u,\331\255\010\356N\257\354Ld\315\254RQ<'o\325W\234"
 348      08EE4EAF 
 348      EC4C64CD 
 348      AC52513C 
 348      276FD557 
 349 04ac 327A3633 		.ascii	"2z63\264\370/\021%\203\305\034qdO\301iv\372\364\344"
 349      B4F82F11 
 349      2583C51C 
 349      71644FC1 
 349      6976FAF4 
 350 04c1 466F25B1 		.ascii	"Fo%\261\354\360V(\333\\\034Pt\011]\025\370\321\256\264"
 350      ECF05628 
 350      DB5C1C50 
 350      74095D15 
 350      F8D1AEB4 
 351 04d5 BC7AF02D 		.ascii	"\274z\360-\250D\244\226\310-\037k\326\2546\\x\231Im"
 351      A844A496 
ARM GAS  C:\Users\Luggi\AppData\Local\Temp\cc74KHxU.s 			page 27


 351      C82D1F6B 
 351      D6AC365C 
 351      7899496D 
 352 04e9 DDA60A34 		.ascii	"\335\246\0124t\250i\265\337|m\232\371\332\331\226\214"
 352      74A869B5 
 352      DF7C6D9A 
 352      F9DAD996 
 352      8C
 353 04fa BC586379 		.ascii	"\274Xcyj\261\002-\2240\325B\367x\271\307\376\256\333"
 353      6AB1022D 
 353      9430D542 
 353      F778B9C7 
 353      FEAEDB
 354 050d 1EC41434 		.ascii	"\036\304\0244 \350`\351\370\210\351\033\336\345\307"
 354      20E860E9 
 354      F888E91B 
 354      DEE5C7
 355 051c AEAD7A33 		.ascii	"\256\255z3\317u\336\0246\230\312\325\351WG\344\341s"
 355      CF75DE14 
 355      3698CAD5 
 355      E95747E4 
 355      E173
 356 052e 38A2AEA8 		.ascii	"8\242\256\250\277\202\325\207\374.\302\237\\\235\216"
 356      BF82D587 
 356      FC2EC29F 
 356      5C9D8E
 357 053d F441459D 		.ascii	"\364AE\2359\232:=8\022\235X\016>lSd\030\315\032\254"
 357      399A3A3D 
 357      38129D58 
 357      0E3E6C53 
 357      6418CD1A 
 358 0552 AE54C2E6 		.ascii	"\256T\302\346\317v\273\337\237f\214\005<\376xM\337\025"
 358      CF76BBDF 
 358      9F668C05 
 358      3CFE784D 
 358      DF15
 359 0564 2BDBD64B 		.ascii	"+\333\326K\262\362_\323\2341#\233\227\311\270\200\313"
 359      B2F25FD3 
 359      9C31239B 
 359      97C9B880 
 359      CB
 360 0575 782DFF35 		.ascii	"x-\3775d\354R\015Nu\013\242\307\236e?q\375s\236\317"
 360      64EC520D 
 360      4E750BA2 
 360      C79E653F 
 360      71FD739E 
 361 058a A2D9967B 		.ascii	"\242\331\226{\240\351\326\242\350\026\303\021\225\271"
 361      A0E9D6A2 
 361      E816C311 
 361      95B9
 362 0598 D70BF54C 		.ascii	"\327\013\365L7r\010\037\252\272\035V\004\211\011pU\260"
 362      3772081F 
 362      AABA1D56 
 362      04890970 
 362      55B0
 363 05aa 72951494 		.ascii	"r\225\024\224\337\312W}3\223I\272\225\033\212\221\215"
 363      DFCA577D 
ARM GAS  C:\Users\Luggi\AppData\Local\Temp\cc74KHxU.s 			page 28


 363      339349BA 
 363      951B8A91 
 363      8D
 364 05bb 1C799FB3 		.ascii	"\034y\237\263\305\005T!\204z\324G._N\252\0116\313U\364"
 364      C5055421 
 364      847AD447 
 364      2E5F4EAA 
 364      0936CB55 
 365 05d0 889192CF 		.ascii	"\210\221\222\317\204^\240~*+~6\001Lx\362\211\330\003"
 365      845EA07E 
 365      2A2B7E36 
 365      014C78F2 
 365      89D803
 366 05e3 D1C1F70C 		.ascii	"\321\301\367\014d\264i\337\261t\3562R\015\037D\207\320"
 366      64B469DF 
 366      B174EE32 
 366      520D1F44 
 366      87D0
 367 05f5 D44311F9 		.ascii	"\324C\021\371\326U\212]\357\344\311\304\317f\263^M\256"
 367      D6558A5D 
 367      EFE4C9C4 
 367      CF66B35E 
 367      4DAE
 368 0607 273A1E1E 		.ascii	"':\036\036K\020~_U)\372\304\006\354(\002\221\017nb\254"
 368      4B107E5F 
 368      5529FAC4 
 368      06EC2802 
 368      910F6E62 
 369 061c 304DA7D6 		.ascii	"0M\247\326\374\377\275\312\373\002\177\027\2757\224"
 369      FCFFBDCA 
 369      FB027F17 
 369      BD3794
 370 062b 23B074B6 		.ascii	"#\260t\266R\366O\373\351I \361\364#\342\265l7\300\326"
 370      52F64FFB 
 370      E94920F1 
 370      F423E2B5 
 370      6C37C0D6 
 371 063f 4B60050D 		.ascii	"K`\005\015\247\237e^py\272VS\030\337\005\220A\3625\265"
 371      A79F655E 
 371      7079BA56 
 371      5318DF05 
 371      9041F235 
 372 0654 E443C706 		.ascii	"\344C\307\006\207sm\232#59i\343&g\212c\315\247I\033"
 372      87736D9A 
 372      23353969 
 372      E326678A 
 372      63CDA749 
 373 0669 572E5F93 		.ascii	"W._\223\270jerR\342\352\344\267\222\323\276q$\256\374"
 373      B86A6572 
 373      52E2EAE4 
 373      B792D3BE 
 373      7124AEFC 
 374 067d E4E36529 		.ascii	"\344\343e)\310\234\262\376\333U\353\276_\227\352p\032"
 374      C89CB2FE 
 374      DB55EBBE 
 374      5F97EA70 
 374      1A
ARM GAS  C:\Users\Luggi\AppData\Local\Temp\cc74KHxU.s 			page 29


 375 068e 9C8EEFD2 		.ascii	"\234\216\357\322\326:\323\014\216\015k\277^\357H5\244"
 375      D63AD30C 
 375      8E0D6BBF 
 375      5EEF4835 
 375      A4
 376 069f 6C723A93 		.ascii	"lr:\223\234)\346\215\353S\225\220\177\001\254\227MK"
 376      9C29E68D 
 376      EB539590 
 376      7F01AC97 
 376      4D4B
 377              		.text
 378              		.section	.gnu.lto_ADC_SAR_2_theACLK_SetSourceRegister.bb48de6,"",%progbits
 379 0000 789C8D54 		.ascii	"x\234\215T]h\034U\024>\347\316\356\314\354o\326\244"
 379      5D681C55 
 379      143EE7CE 
 379      EECCEC6F 
 379      D6A4
 380 0012 699AA549 		.ascii	"i\232\245I\032\226\022D\251 \010>\010MH\321\007}\020"
 380      1A961244 
 380      A920083E 
 380      084D48D1 
 380      077D10
 381 0025 F36821C8 		.ascii	"\363h!\310vA\261\030X\332\276H\311l\262\245\241\370"
 381      7641B118 
 381      58DABE48 
 381      C96CB2A5 
 381      A1F8
 382 0037 532A8462 		.ascii	"S*\204b\210TjM4\232\264i\273Q\333\332m\254A\220\264"
 382      88546A4D 
 382      349AB469 
 382      BB51DBDA 
 382      6DAC4190 
 383 004c B65663AA 		.ascii	"\266Vc\252\304\022\223\232\012\371)\033cVi\327s\356"
 383      C412939A 
 383      0AF9291B 
 383      635669D7 
 383      73EE
 384 005e 9DDD8CAB 		.ascii	"\235\335\214\253.Y\3303s\317\375\2763\337\371\316\235"
 384      2E59D833 
 384      73CFFDBE 
 384      33DFF9CE 
 384      9D
 385 006f D1E0DFBF 		.ascii	"\321\340\337\277#\364\037\322\001\236\244+\372\001\305"
 385      23F41FD2 
 385      019EA42B 
 385      FA01C5
 386 007e E12B0009 		.ascii	"\341+\000\011S\010\255\253\001,\257\316\321\257\011"
 386      5308ADAB 
 386      012CAFCE 
 386      D1AF09
 387 008d 9763E512 		.ascii	"\227c\345\022\356\363\265\274\272\361\010\255\334\350"
 387      EEF3B5BC 
 387      BAF108AD 
 387      DCE8
 388 009b 53145D18 		.ascii	"S\024]\030\022\344\225 C\230\216\225)<\222\342\225\024"
 388      12E49520 
 388      43988E95 
ARM GAS  C:\Users\Luggi\AppData\Local\Temp\cc74KHxU.s 			page 30


 388      293C92E2 
 388      9514
 389 00ad 4F9EE2CD 		.ascii	"O\236\342\315\337\370\020\371\006\020\332\205\346r\353"
 389      DFF810F9 
 389      0610DA85 
 389      E672EB
 390 00bc 86E9F1FA 		.ascii	"\206\351\361\372\260\035\357\210\273\002\017\247\007"
 390      B01DEF88 
 390      BB020FA7 
 390      07
 391 00c9 8EFA1A4E 		.ascii	"\216\372\032NX\226\2654<Y}`SV\000d\204\222\217}\330"
 391      5896B534 
 391      3C597D60 
 391      53560064 
 391      84928F7D 
 392 00de 4090ECF4 		.ascii	"@\220\354\364\314e\257\266\015\201\356O^\177\357+\334"
 392      CC65AFB6 
 392      0D81EE4F 
 392      5E7FEF2B 
 392      DC
 393 00ef 7ADCB23A 		.ascii	"z\334\262:\322s\203V#f\005b?j\304\300\207\303\370`\030"
 393      D2738356 
 393      23660562 
 393      3F6AC4C0 
 393      87C3F860 
 394 0104 2801F801 		.ascii	"(\001\370\001nepj\374\354h\231\366\270$~=\275\232\361"
 394      6E65706A 
 394      FCEC6899 
 394      F6B8247E 
 394      3DBD9AF1 
 395 0118 CF89AC10 		.ascii	"\317\211\254\020!^\276=1\273\254\361R\023\274\034\357"
 395      215EBE3D 
 395      31BBACF1 
 395      5213BC1C 
 395      EF
 396 0129 4F1C0844 		.ascii	"O\034\010D\336\245\262\267\306_?\350\267\372\255\344"
 396      DEA5B2B7 
 396      C65F3FE8 
 396      B7FAADE4 
 397 0139 AD5CAE2E 		.ascii	"\255\\\256.+\\\370\241\252>\200a\374\010\303\266\261"
 397      2B5CF8A1 
 397      AA3E8061 
 397      FC08C3B6 
 397      B1
 398 014a 44593C73 		.ascii	"DY<sj\237\326(kg\356\2759\021T\354+\363c>\353h\236\215"
 398      6A9FD628 
 398      6B67EEBD 
 398      391154EC 
 398      2BF3633E 
 399 0162 38E8D456 		.ascii	"8\350\324V\340\336M\336\233\360\351Ij:\204\037c\004"
 399      E0DE4DDE 
 399      9BF0E949 
 399      6A3A841F 
 399      6304
 400 0174 8730A29A 		.ascii	"\2070\242\232\306\223\250#\200\310g\207\312\323V.w\372"
 400      C693A823 
 400      80C86787 
ARM GAS  C:\Users\Luggi\AppData\Local\Temp\cc74KHxU.s 			page 31


 400      CAD3562E 
 400      77FA
 401 0186 76F7DC76 		.ascii	"v\367\334v=\342\002N\353\300\033\006r\223&\265\353\366"
 401      3DE2024E 
 401      EBC01B06 
 401      729326B5 
 401      EBF6
 402 0198 70F071F0 		.ascii	"p\360q\360S\320\003\034\202\034\3128\204x\243\234C\005"
 402      53D0031C 
 402      821CCA38 
 402      8478A39C 
 402      4305
 403 01aa 2F3770A8 		.ascii	"/7p\250\344\260\221C\025oTs`\347\334\2339\324\360F-"
 403      E4B09143 
 403      156F5473 
 403      60E7DC9B 
 403      39D4F046 
 404 01bf 873A0E5B 		.ascii	"\207:\016[8\324\363\006\300\014i\344Q\316\012\301W\355"
 404      38D4F306 
 404      C00C69E4 
 404      51CE0AC1 
 404      57ED
 405 01d1 27EC4CF7 		.ascii	"'\354L\367\364\004Y\365\037\302E\215\275\363\355\033"
 405      F40459F5 
 405      1FC2458D 
 405      BDF3ED1B 
 406 01e1 8362FF5F 		.ascii	"\203b\377_V\227ef\205\221\241Y\000\236\302\375\3046"
 406      56976566 
 406      8591A159 
 406      009EC2FD 
 406      C436
 407 01f3 E17B14B2 		.ascii	"\341{\024\262=\352\201\300\300\334\336\037\003\212\253"
 407      3DEA81C0 
 407      C0DCDE1F 
 407      038AAB
 408 0202 17733D19 		.ascii	"\027s=\031z\004\340\260\344z\013\334!\346\352\360\035"
 408      7A04E0B0 
 408      E47A0BDC 
 408      21E6EAF0 
 408      1D
 409 0213 26273B7F 		.ascii	"&';\177ImZ#'\336?\367\232\301\363$\225x\332\236\323"
 409      496D5A23 
 409      27DE3FF7 
 409      9AC1F324 
 409      9578DA9E 
 410 0228 ACD0A0AB 		.ascii	"\254\320\240\253A#\364\017\235\323\232\002\033\216]"
 410      4123F40F 
 410      9DD39A02 
 410      1B8E5D
 411 0237 175CAE50 		.ascii	"\027\\\256P\273\277\246^]k\242P\313G\265\316\024\320"
 411      BBBFA65E 
 411      5D6BA250 
 411      CB47B5CE 
 411      14D0
 412 0249 6EB86A68 		.ascii	"n\270jh7qt\345\320\302|7*\270I\360\245\267\272\217\311"
 412      377174E5 
 412      D0C27C37 
ARM GAS  C:\Users\Luggi\AppData\Local\Temp\cc74KHxU.s 			page 32


 412      2AB849F0 
 412      A5B7BA8F 
 413 025e 93E53F94 		.ascii	"\223\345?\224HX.\236\357\3173W\257\2312%\307\375\345"
 413      48582E9E 
 413      EFCF3357 
 413      AF993225 
 413      C7FDE5
 414 0271 F4EF7DC1 		.ascii	"\364\357}\301^\354I$\351\274\006\360,\035\245\024\227"
 414      5EEC4924 
 414      E9BC06F0 
 414      2C1DA514 
 414      97
 415 0282 C511EC45 		.ascii	"\305\021\354E\270\211\235\313\272*\347Q\025\207\217"
 415      B8899DCB 
 415      BA2AE751 
 415      15878F
 416 0291 9F487964 		.ascii	"\237Hyd3\215\200\237\020\222\236zD>\261T\261O\251\030"
 416      338D809F 
 416      10929E7A 
 416      443EB154 
 416      B14FA918 
 417 02a5 950029F1 		.ascii	"\225\000)\361\376\374\023\252\244\257\024\3453\365\374"
 417      FEFC13AA 
 417      A4AF14E5 
 417      33F5FC
 418 02b4 8EA9832B 		.ascii	"\216\251\203+\205\226\374\304aM\253\266\246\000\245"
 418      8596FCC4 
 418      614DABB6 
 418      A600A5
 419 02c3 A8C66FE9 		.ascii	"\250\306o\351?oHM\372j\316\376\321+|N\212\353\2302\024"
 419      3F6F484D 
 419      FA6ACEFE 
 419      D12B7C4E 
 419      8AEB9832 
 420 02d8 3648FE3A 		.ascii	"6H\376:\373)\223\364\240\023\022\242\354\377\364\223"
 420      FB2993F4 
 420      A01312A2 
 420      ECFFF493 
 421 02e8 4857FF53 		.ascii	"HW\377S\336y\331QH\272\257\303\2451P\303\352\033\251"
 421      DE79D951 
 421      48BAAFC3 
 421      A53150C3 
 421      EA1BA9
 422 02fb B107EF98 		.ascii	"\261\007\357\230\245\001\307\"\232<\027+\3771i\023\276"
 422      A501C722 
 422      9A3C172B 
 422      FF316913 
 422      BE
 423 030c 79409107 		.ascii	"y@\221\007F\332\355I;F\353\201%]\215\366\376\202\355"
 423      46DAED49 
 423      3B46EB81 
 423      255D8DF6 
 423      FE82ED
 424 031f 5B7929DF 		.ascii	"[y)\337.\254\371\266\220\367\255\2028N\3376P\252\330"
 424      2EACF9B6 
 424      90F7AD82 
 424      384EDF36 
ARM GAS  C:\Users\Luggi\AppData\Local\Temp\cc74KHxU.s 			page 33


 424      50AAD8
 425 0332 9FCA227F 		.ascii	"\237\312\"\1776JX\245\023RE\331\365\372\363\271\364"
 425      364A58A5 
 425      135245D9 
 425      F5FAF3B9 
 425      F4
 426 0343 A74A4D7C 		.ascii	"\247JM|l1\257\244\272\224\364\213\366\221\313\313\014"
 426      6C31AFA4 
 426      BA94F48B 
 426      F691CBCB 
 426      0C
 427 0354 2BFC9DEB 		.ascii	"+\374\235\353\313\223A\036o\340\"}?\323\353=s\227\244"
 427      CB93411E 
 427      6FE0227D 
 427      3FD3EB3D 
 427      7397A4
 428 0367 82B034D1 		.ascii	"\202\2604\321\013\327\266\333\357\307\242m\342\346R"
 428      0BD7B6DB 
 428      EFC7A26D 
 428      E2E652
 429 0376 DCD18289 		.ascii	"\334\321\202\211\267\013\322k\210\343TWK\251b\023\353"
 429      B70BD26B 
 429      88E35457 
 429      4BA96213 
 429      EB
 430 0387 8A4CDC22 		.ascii	"\212L\334\"auNH=e\327k\342\027\262\205z\331\202O~\325"
 430      61754E48 
 430      3D65D76B 
 430      E217B285 
 430      7AD9824F 
 431 039d A63091CE 		.ascii	"\2460\221\316=\317L>\0353\364\021\243,}\215\036z*\366"
 431      3DCF4C3E 
 431      1D33F411 
 431      A32C7D8D 
 431      1E7A2AF6 
 432 03b1 4A2CFEC2 		.ascii	"J,\376\302\236\330\256\326\226\266\275\361hl\347\263"
 432      9ED8AED6 
 432      96B6BDF1 
 432      686CE7B3 
 433 03c1 2D6DCD8F 		.ascii	"-m\315\217\355l\332\321\334\332\322\364\\\353\243\255"
 433      ED6CDAD1 
 433      DCDAD2F4 
 433      5CEBA3AD 
 434 03d1 7B5E8C35 		.ascii	"{^\21455?\363\364\266(x\242\273_V #\2727\036\337\361"
 434      353FF3F4 
 434      B62878A2 
 434      BB5F5620 
 434      23BA371E 
 435 03e7 D23EBD6D 		.ascii	"\322>\275m\367\256\226x\364o\035Yg\301"
 435      F7AE9678 
 435      F46F1D59 
 435      67C1
 436              		.text
 437              		.section	.gnu.lto_.symbol_nodes.bb48de6,"",%progbits
 438 0000 789C55C7 		.ascii	"x\234U\307\273\015\2000\020\004\321\265\317\306\347"
 438      BB0D8030 
 438      1004D1B5 
ARM GAS  C:\Users\Luggi\AppData\Local\Temp\cc74KHxU.s 			page 34


 438      CFC6E7
 439 000f 6B7A5B20 		.ascii	"kz[ \"F\024D@\005\210B\020\342\023\260\223\214\236\001"
 439      22461444 
 439      40058842 
 439      10E213B0 
 439      938C9E01 
 440 0023 D8F09541 		.ascii	"\330\360\225A`\\\001\022\323\354\310\211I\234\231\305"
 440      605C0112 
 440      D3ECC889 
 440      499C99C5 
 441 0033 46135716 		.ascii	"F\023W\026\361\300*n\034\304\316&\016\272\270\260\213"
 441      F1C02A6E 
 441      1CC4CE26 
 441      0EBAB8B0 
 441      8B
 442 0044 3BE36FEB 		.ascii	";\343o\353\216e?\223\365\202\343~\224\327\341\217q\001"
 442      8E653F93 
 442      F582E37E 
 442      94D7E18F 
 442      7101
 443 0056 DBE8393B 		.ascii	"\333\3509;"
 444              		.text
 445              		.section	.gnu.lto_.refs.bb48de6,"",%progbits
 446 0000 789C6366 		.ascii	"x\234cf```d\200\002\000\000=\000\005"
 446      60606064 
 446      80020000 
 446      3D0005
 447              		.text
 448              		.section	.gnu.lto_.decls.bb48de6,"",%progbits
 449 0000 789C8D55 		.ascii	"x\234\215U}LSW\024\177\267\367Q\240t\310_\260\260d\253"
 449      7D4C5357 
 449      147FB7F7 
 449      51A074C8 
 449      5FB0B064 
 450 0015 D9425C66 		.ascii	"\331B\\f\\X2\343\177\033\303\204%\314\205H\366\227&"
 450      5C5832E3 
 450      7F1BC384 
 450      25CC8548 
 450      F69726
 451 0028 C4C18B92 		.ascii	"\304\301\213\222\0310\265n\341\257=>\024D'\352\374\032"
 451      1930B56E 
 451      E1AF3D3E 
 451      144427EA 
 451      FC1A
 452 003a D9B44144 		.ascii	"\331\264ADD)\235\300\244\200B\345\243@\013\226\217!"
 452      44299DC0 
 452      A48042E5 
 452      A3400B96 
 452      8F21
 453 004c 5FF25120 		.ascii	"_\362Q \232l#\365cN\007\263;\367\336\367\326\327\366"
 453      9A6C23F5 
 453      634E07B3 
 453      3BF7DEF7 
 453      D6D7F6
 454 005f 3178C969 		.ascii	"1x\311i{\357;\277\3379\347w\316\275\305\034\307m\302"
 454      7BEF3BBF 
 454      DF39E777 
ARM GAS  C:\Users\Luggi\AppData\Local\Temp\cc74KHxU.s 			page 35


 454      CEBDC51C 
 454      C76DC2
 455 0072 1CE78367 		.ascii	"\034\347\203g.\234\343\206\020\307\351a/\015L\003\026"
 455      2E9CE386 
 455      10C7E961 
 455      2F0D4C03 
 455      16
 456 0083 0B66E0D8 		.ascii	"\013f\340\330\023\005v\003\314\002f\005\263\201u\200"
 456      13057603 
 456      CC026605 
 456      B3817580 
 457 0093 758139C0 		.ascii	"u\2019\300\372\300\\`\203`\303\\\350C\260\274\304Mx"
 457      FAC05C60 
 457      8360C35C 
 457      E843B0BC 
 457      C44D78
 458 00a6 C7C046A5 		.ascii	"\307\300F\245wHz\037\374X\326\300XT0V)W\202\211\346"
 458      77487A1F 
 458      FC58D6C0 
 458      58543056 
 458      29578289 
 459 00bb 583DED41 		.ascii	"X=\355A\370i\260\007`3`S\012>\253\012\037\2513L\342"
 459      F869B007 
 459      60336053 
 459      0A3EAB0A 
 459      1FA9334C 
 460 00d0 6B58250F 		.ascii	"kX%\017\233\012\256C\302)s\220\343\312\270\016\025\034"
 460      9B0AAE43 
 460      C2297390 
 460      E3CAB80E 
 460      151C
 461 00e2 D1531B14 		.ascii	"\321S\033\024\317\243\022\263K\005\353XG\256\016\025"
 461      CFA312B3 
 461      4B05EB58 
 461      47AE0E15 
 462 00f2 1CE91DFF 		.ascii	"\034\351\035\377?\230>\025\214k\015\214K\005Cfc\003"
 462      3F983E15 
 462      8C6B0D8C 
 462      4B054366 
 462      6303
 463 0104 17DA9B06 		.ascii	"\027\332\233\006\011Kx\346\301z\300\026\300\354\022"
 463      094B78E6 
 463      C17AC016 
 463      C0EC12
 464 0113 AF810BEC 		.ascii	"\257\201\013\354\025\226\270H\0145\015\207%~Y\207\340"
 464      1596B848 
 464      0C350D87 
 464      257E5987 
 464      E0
 465 0124 39F028F8 		.ascii	"9\360(\370\345x\206\240\032\260\304\323\261J-\2175\310"
 465      E57886A0 
 465      1AB0C4D3 
 465      B14A2D8F 
 465      35C8
 466 0136 6679D61F 		.ascii	"fy\326\037\365H\203\242u\006\262l>\335sA\013K\275\216"
 466      F54883A2 
 466      7506B26C 
ARM GAS  C:\Users\Luggi\AppData\Local\Temp\cc74KHxU.s 			page 36


 466      3EDD7341 
 466      0B4BBD8E 
 467 014a 27CB9665 		.ascii	"'\313\226e\317\010\037wV\204\347d\241\030\303\243\264"
 467      CF081F77 
 467      5684E764 
 467      A118C3A3 
 467      B4
 468 015b 587415C5 		.ascii	"Xt\025\305\243j\024\017\012]Cq\360\271\213gL\245\363"
 468      A36A140F 
 468      0A5D4371 
 468      F0B98B67 
 468      4CA5F3
 469 016e 15DD3CD6 		.ascii	"\025\335<\326 \362\373\362\205\271\021\335\346\032\200"
 469      20F2FBF2 
 469      85B911DD 
 469      E61A80
 470 017d 9588ED6E 		.ascii	"\225\210\355n\354\017\267\342=u)\334pQ4[\275\275\315"
 470      EC0FB7E2 
 470      3D7529DC 
 470      7051345B 
 470      BDBDCD
 471 0190 E37AB147 		.ascii	"\343z\261Gl\367\371>\242T\250\006at\035m\246\342\303"
 471      6CF7F93E 
 471      A254A806 
 471      61741D6D 
 471      A6E2C3
 472 01a3 6FD6851B 		.ascii	"o\326\205\033\310\000\260+\327\232\317h\360\016\312"
 472      C800B02B 
 472      D79ACF68 
 472      F00ECA
 473 01b2 3D63698A 		.ascii	"=ci\212\241\014\346\262\313Z\206\247\360Z\005\274V\206"
 473      A10CE6B2 
 473      CB5A86A7 
 473      F05A05BC 
 473      5686
 474 01c4 5B28BCA6 		.ascii	"[(\274\246\245\242\224\307Y\024\336\370]\376\303h\206"
 474      A5A294C7 
 474      5914DEF8 
 474      5DFEC368 
 474      86
 475 01d5 7705E0EB 		.ascii	"w\005\340\353\024\370:\031o\245\370\321\266\342\342"
 475      14F83A19 
 475      6FA5F8D1 
 475      B6E2E2
 476 01e4 082C224A 		.ascii	"\010,\"J\220_\325r<\034$\212\325\321\212N8\313\355\230"
 476      905FD572 
 476      3C1C248A 
 476      D5D18A4E 
 476      38CBED98 
 477 01f8 2E7DE4B5 		.ascii	".}\344\265f|\374\314K\214t\011%\242X zO\213\370u\016"
 477      667CFCCC 
 477      4B8C7409 
 477      25A25820 
 477      7A4F8BF8 
 478 020e 6D8E47EF 		.ascii	"m\216G\357\306s\250\021%\200\033\015\202n\202\212\365"
 478      C673A811 
 478      25801B0D 
ARM GAS  C:\Users\Luggi\AppData\Local\Temp\cc74KHxU.s 			page 37


 478      826E828A 
 478      F5
 479 021f A0622568 		.ascii	"\240b%h\344=\321U\223Z(~\214\032\220\016\375\374_\032"
 479      E43DD155 
 479      935A287E 
 479      8C1A900E 
 479      FDFC5F1A 
 480 0233 3482A4DB 		.ascii	"4\202\244\333\311\303\366\223<\017\367\031\365\331E"
 480      C9C3F693 
 480      3C0FF719 
 480      F5D945
 481 0242 9BF3A76F 		.ascii	"\233\363\247o\356\212f\325\346\334\242\315\371\005I"
 481      EE8A66D5 
 481      E6DCA2CD 
 481      F90549
 482 0251 DD71B75D 		.ascii	"\335q\267]]\340q5+\341\\\376\313n\215\324\205\277K\361"
 482      5DE07135 
 482      2BE15CFE 
 482      CB6E8DD4 
 482      85BF4BF1 
 483 0265 0FA2B940 		.ascii	"\017\242\271@|\345\203\374\011\0125)\204h\222\205\260"
 483      7CE583FC 
 483      090A3529 
 483      84689285 
 483      B0
 484 0276 51219C9E 		.ascii	"Q!\234\236\027O\365tZb\010O\371\375\305g\230N\213\206"
 484      174FF574 
 484      5A62084F 
 484      F9FDC567 
 484      984E8B86 
 485 028a 2C7F7AB2 		.ascii	",\177z\262\324\032\211\035\2012\031\230L\347\177{\321"
 485      D41A891D 
 485      81321998 
 485      4CE77F7B 
 485      D1
 486 029b 1041973E 		.ascii	"\020A\227>\037&:U\271\377*\217F\011:&\300\"\023\240"
 486      1F263A55 
 486      B9FF2A8F 
 486      46093A26 
 486      C02213A0 
 487 02af 1D8A6BF5 		.ascii	"\035\212k\365\013`\220\004\240Z\212\205b\330&\0165C"
 487      0B609004 
 487      A05A8A85 
 487      62D8260E 
 487      3543
 488 02c1 852D5021 		.ascii	"\205-P!j\0035\015\222\232\267a\363\016lB\240e\317\260"
 488      6A03350D 
 488      929AB761 
 488      F30E6C42 
 488      A065CFB0 
 489 02d5 2D4015C2 		.ascii	"-@\025\302\351\227\305\0360\263\313K^\267\036\017\260"
 489      E997C51E 
 489      30B3CB4B 
 489      5EB71E0F 
 489      B0
 490 02e6 8CCD8D33 		.ascii	"\214\315\2153\025<\2502\013\252\334\374^\257P\005@\350"
 490      153CA832 
ARM GAS  C:\Users\Luggi\AppData\Local\Temp\cc74KHxU.s 			page 38


 490      0BAADCFC 
 490      5EAF5005 
 490      40E8
 491 02f8 AE4295BB 		.ascii	"\256B\225\273\262*\035T\225\233\346\225T\374\224\221"
 491      B22A1D54 
 491      959BE695 
 491      54FC9491 
 492 0308 0C5C9E5F 		.ascii	"\014\\\236_\342\251\264\263?:\205\366\"q\205\324Ku\355"
 492      E2A9B4B3 
 492      3F3A85F6 
 492      227185D4 
 492      4B75ED
 493 031b 543074CA 		.ascii	"T0t\312\014]\214\341q\323\031\204\317\262\303S\337z"
 493      0C5D8CE1 
 493      71D31984 
 493      CFB2C353 
 493      DF7A
 494 032d A42D824D 		.ascii	"\244-\202M\350\314uyB\011A\267\202\240[&pP\202\243E"
 494      E8CC7579 
 494      420941B7 
 494      82A05B26 
 494      705082A3 
 495 0342 56AC2CBA 		.ascii	"V\254,\272!\240\350\236\200\242\353\272\313\232\242"
 495      21A0E89E 
 495      80A2EBBA 
 495      CB9AA2
 496 0351 B08D05FB 		.ascii	"\260\215\005\373\375\324\275\016\026l\366\370\037\376"
 496      FDD4BD0E 
 496      166CF6F8 
 496      1FFE
 497 035f 7C01817A 		.ascii	"|\001\201z\025\341z\345p}4\334\302b}\261\026O2\212W"
 497      15E17AE5 
 497      707D34DC 
 497      C2627DB1 
 497      164F328A 
 498 0374 F5B3CF23 		.ascii	"\365\263\317#\251n\346\352:9_B\340T\0208e\002\027%P"
 498      A96EE6EA 
 498      3A395F42 
 498      E0541038 
 498      65021725 
 499 0389 9BE797E3 		.ascii	"\233\347\227\343\375\3175t\217\264\254\037\321\315\332"
 499      FDCF3574 
 499      8FB4AC1F 
 499      D1CDDA
 500 0398 6B8EB3E1 		.ascii	"k\216\263\341\253\016\371=Z\330\200<\344\227\356\034"
 500      AB0EF93D 
 500      5AD8803C 
 500      E497EE1C 
 501 03a8 E98FC63E 		.ascii	"\351\217\306>\226\326\223\326\011\227\216Uv\324\341"
 501      96D693D6 
 501      09978E55 
 501      76D4E1
 502 03b7 AF0C20C8 		.ascii	"\257\014 \310\255H\314-'6H\023\2735\327U\202p%\246\024"
 502      AD48CC2D 
 502      27364813 
 502      BB35D755 
 502      827025A6 
ARM GAS  C:\Users\Luggi\AppData\Local\Temp\cc74KHxU.s 			page 39


 503 03cc 13C726EC 		.ascii	"\023\307&\354R'\234\265\312N\014)\010\206d\202aJ \236"
 503      52279CB5 
 503      CA4E0C29 
 503      08866482 
 503      614A209E 
 504 03e0 3F561981 		.ascii	"?V\031\201{\030A\343\363R\333k\272\0222\273k_\005p("
 504      7B1841E3 
 504      F352DB6B 
 504      BA1232BB 
 504      6B5F0570 
 505 03f5 46064A47 		.ascii	"F\006JG#\331\345\021\214\270\277\352\345q\270M\337+"
 505      23D9E511 
 505      8CB8BFEA 
 505      E571B84D 
 505      DF2B
 506 0407 8A116814 		.ascii	"\212\021h\024T\033\361\037\236_\221\377\372\030q\026"
 506      541BF11F 
 506      9E5F91FF 
 506      FA187116 
 507 0417 4C627D29 		.ascii	"Lb})9F\240b\344\247\324\327/\343\030\322\323\012\340"
 507      3946A062 
 507      E4A7D4D7 
 507      2FE318D2 
 507      D30AE0
 508 042a 9BFC250C 		.ascii	"\233\374%\014LNc\334\317*\350\034;\327\257g\025\254"
 508      4C4E63DC 
 508      CF2AE81C 
 508      3BD7AF67 
 508      15AC
 509 043c EF006ACA 		.ascii	"\357\000j\312\252\362]\341\322\3016\377\223\030\201"
 509      AAF25DE1 
 509      D2C136FF 
 509      931881
 510 044b A620D6B8 		.ascii	"\246 \326\270?\257\011\344?\325\241\244\223\352\247"
 510      3FAF09E4 
 510      3FD5A1A4 
 510      93EAA7
 511 045a DA3ADD3C 		.ascii	"\332:\335<\024%\247Q\262\036\204\333\356)\217R\226\374"
 511      1425A751 
 511      B21E84DB 
 511      EE298F52 
 511      96FC
 512 046c 20A0E469 		.ascii	" \240\344i\251\344iZr\247\353\366C\255\322y*\300yFr"
 512      A9E4695A 
 512      72A7EBF6 
 512      43ADD279 
 512      2AC07946 
 513 0481 9E21CED8 		.ascii	"\236!\316\3302\330vQ\203\342\343u\027\340\337\355\305"
 513      32D87651 
 513      83E2E375 
 513      17E0DFED 
 513      C5
 514 0492 5BC80305 		.ascii	"[\310\003\005\221\237\355\217|\276o}\354)\013\247\333"
 514      919FED8F 
 514      7CBE6F7D 
 514      EC290BA7 
 514      DB
ARM GAS  C:\Users\Luggi\AppData\Local\Temp\cc74KHxU.s 			page 40


 515 04a3 25646EBD 		.ascii	"%dn\275\005\212>rt\237Cs@>K\322\207%\271:+\274=\001"
 515      058A3E72 
 515      749F4373 
 515      403E4BD2 
 515      8725B93A 
 516 04bb D992F3E3 		.ascii	"\331\222\363\343O`^J`\236f\333d\353+\332\240t\266\007"
 516      4F605E4A 
 516      609E66DB 
 516      64EB2BDA 
 516      A074B607 
 517 04cf 382F48CE 		.ascii	"8/H\316\344;.i{rFz\322\316\214\0172L\373\204\244\344"
 517      E43B2E69 
 517      7B72467A 
 517      D2CE8C0F 
 517      324CFB84 
 518 04e5 CF5233D2 		.ascii	"\317R3\322M{\214&m\312\347_\030\222\271\367R\204\034"
 518      4D7B8C26 
 518      6DCAE75F 
 518      1892B9F7 
 518      52841C
 519 04f8 C1B8C724 		.ascii	"\301\270\307$de\244\347\0362f\012\273\323\322s\223?"
 519      6465A4E7 
 519      1E32660A 
 519      BBD3D273 
 519      933F
 520 050a DC1D82DA 		.ascii	"\334\035\202\332\222\311\305\252Q\345\036xC}\373\223"
 520      92C9C5AA 
 520      51E51E78 
 520      437DFB93 
 521 051a FDB9995F 		.ascii	"\375\271\231_\205\035\312\3161m\333\250\036\344\375"
 521      851DCACE 
 521      316DDBA8 
 521      1EE4FD
 522 0529 CC3C53DE 		.ascii	"\314<S\336\001\341\340\226}\334\233\252Y\346d}\231\227"
 522      01E1E096 
 522      7DDC9BAA 
 522      59E6647D 
 522      9997
 523 053b 96FB8D60 		.ascii	"\226\373\215`\324\022\232\304\255\357\204z\245\010\246"
 523      D4129AC4 
 523      ADEF847A 
 523      A508A6
 524 054a EDD95F67 		.ascii	"\355\331_gg\011\306\235\302\336\354\203&\301\270Q\205"
 524      6709C69D 
 524      C2DEEC83 
 524      26C1B851 
 524      85
 525 055b 4A30EDC8 		.ascii	"J0\355\310\315\022d\217\267C=\222\367\013{\214J\037"
 525      CD12648F 
 525      B7433D92 
 525      F70B7B8C 
 525      4A1F
 526 056d 15969435 		.ascii	"\025\226\2245Y\300\203\325'\373\250$\234\036\222\260"
 526      59C083D5 
 526      27FBA824 
 526      9C1E92B0 
 527 057d 0A517A30 		.ascii	"\012Qz0\021o\024\366n\013\203\217\304\255\377\002\015"
ARM GAS  C:\Users\Luggi\AppData\Local\Temp\cc74KHxU.s 			page 41


 527      116F14F6 
 527      6E0B838F 
 527      C4ADFF02 
 527      0D
 528 058e C8545D   		.ascii	"\310T]"
 529              		.text
 530              		.section	.gnu.lto_.symtab.bb48de6,"",%progbits
 531 0000 4144435F 		.ascii	"ADC_SAR_2_theACLK_Start\000\000\000\000\000\000\000"
 531      5341525F 
 531      325F7468 
 531      6541434C 
 531      4B5F5374 
 532 001e 00000000 		.ascii	"\000\000\000\000\000\254\000\000\000ADC_SAR_2_theAC"
 532      00AC0000 
 532      00414443 
 532      5F534152 
 532      5F325F74 
 533 0036 4C4B5F53 		.ascii	"LK_Stop\000\000\000\000\000\000\000\000\000\000\000"
 533      746F7000 
 533      00000000 
 533      00000000 
 533      0000
 534 0048 00AE0000 		.ascii	"\000\256\000\000\000ADC_SAR_2_theACLK_StopBlock\000"
 534      00414443 
 534      5F534152 
 534      5F325F74 
 534      68654143 
 535 0069 00000000 		.ascii	"\000\000\000\000\000\000\000\000\000\000\000\260\000"
 535      00000000 
 535      000000B0 
 535      00
 536 0076 00004144 		.ascii	"\000\000ADC_SAR_2_theACLK_StandbyPower\000\000\000\000"
 536      435F5341 
 536      525F325F 
 536      74686541 
 536      434C4B5F 
 537 009a 00000000 		.ascii	"\000\000\000\000\000\000\000\000\271\000\000\000ADC"
 537      00000000 
 537      B9000000 
 537      414443
 538 00a9 5F534152 		.ascii	"_SAR_2_theACLK_GetDividerRegister\000\000\000\000\000"
 538      5F325F74 
 538      68654143 
 538      4C4B5F47 
 538      65744469 
 539 00cf 00000000 		.ascii	"\000\000\000\000\000\000\000\303\000\000\000ADC_SAR"
 539      000000C3 
 539      00000041 
 539      44435F53 
 539      4152
 540 00e1 5F325F74 		.ascii	"_2_theACLK_SetModeRegister\000\000\000\000\000\000\000"
 540      68654143 
 540      4C4B5F53 
 540      65744D6F 
 540      64655265 
 541 0102 00000000 		.ascii	"\000\000\000\000\000\305\000\000\000ADC_SAR_2_theAC"
 541      00C50000 
ARM GAS  C:\Users\Luggi\AppData\Local\Temp\cc74KHxU.s 			page 42


 541      00414443 
 541      5F534152 
 541      5F325F74 
 542 011a 4C4B5F43 		.ascii	"LK_ClearModeRegister\000\000\000\000\000\000\000\000"
 542      6C656172 
 542      4D6F6465 
 542      52656769 
 542      73746572 
 543 0136 00000000 		.ascii	"\000\000\000\000\307\000\000\000ADC_SAR_2_theACLK_G"
 543      C7000000 
 543      4144435F 
 543      5341525F 
 543      325F7468 
 544 0151 65744D6F 		.ascii	"etModeRegister\000\000\000\000\000\000\000\000\000\000"
 544      64655265 
 544      67697374 
 544      65720000 
 544      00000000 
 545 0169 0000CA00 		.ascii	"\000\000\312\000\000\000ADC_SAR_2_theACLK_GetSource"
 545      00004144 
 545      435F5341 
 545      525F325F 
 545      74686541 
 546 018a 52656769 		.ascii	"Register\000\000\000\000\000\000\000\000\000\000\000"
 546      73746572 
 546      00000000 
 546      00000000 
 546      000000
 547 019d 00CC0000 		.ascii	"\000\314\000\000\000ADC_SAR_2_theACLK_SetDividerReg"
 547      00414443 
 547      5F534152 
 547      5F325F74 
 547      68654143 
 548 01c1 69737465 		.ascii	"ister\000\000\000\000\000\000\000\000\000\000\000\000"
 548      72000000 
 548      00000000 
 548      00000000 
 548      00
 549 01d2 D1000000 		.ascii	"\321\000\000\000ADC_SAR_2_theACLK_SetSourceRegister"
 549      4144435F 
 549      5341525F 
 549      325F7468 
 549      6541434C 
 550 01f9 00000000 		.ascii	"\000\000\000\000\000\000\000\000\000\000\000\000\323"
 550      00000000 
 550      00000000 
 550      D3
 551 0206 000000   		.ascii	"\000\000\000"
 552              		.text
 553              		.section	.gnu.lto_.opts,"",%progbits
 554 0000 272D666E 		.ascii	"'-fno-trapv' '-fno-strict-overflow' '-mcpu=cortex-m"
 554      6F2D7472 
 554      61707627 
 554      20272D66 
 554      6E6F2D73 
 555 0033 33272027 		.ascii	"3' '-mthumb' '-g' '-Og' '-ffunction-sections' '-flt"
 555      2D6D7468 
ARM GAS  C:\Users\Luggi\AppData\Local\Temp\cc74KHxU.s 			page 43


 555      756D6227 
 555      20272D67 
 555      2720272D 
 556 0066 6F272027 		.ascii	"o' '-ffat-lto-objects'\000"
 556      2D666661 
 556      742D6C74 
 556      6F2D6F62 
 556      6A656374 
 557              		.text
 558              		.cfi_sections	.debug_frame
 559              		.section	.text.ADC_SAR_2_theACLK_Start,"ax",%progbits
 560              		.align	2
 561              		.global	ADC_SAR_2_theACLK_Start
 562              		.thumb
 563              		.thumb_func
 564              		.type	ADC_SAR_2_theACLK_Start, %function
 565              	ADC_SAR_2_theACLK_Start:
 566              	.LFB0:
 567              		.file 1 "Generated_Source\\PSoC5\\ADC_SAR_2_theACLK.c"
   1:Generated_Source\PSoC5/ADC_SAR_2_theACLK.c **** /*******************************************************************************
   2:Generated_Source\PSoC5/ADC_SAR_2_theACLK.c **** * File Name: ADC_SAR_2_theACLK.c
   3:Generated_Source\PSoC5/ADC_SAR_2_theACLK.c **** * Version 2.10
   4:Generated_Source\PSoC5/ADC_SAR_2_theACLK.c **** *
   5:Generated_Source\PSoC5/ADC_SAR_2_theACLK.c **** *  Description:
   6:Generated_Source\PSoC5/ADC_SAR_2_theACLK.c **** *   This file provides the source code to the API for the clock component.
   7:Generated_Source\PSoC5/ADC_SAR_2_theACLK.c **** *
   8:Generated_Source\PSoC5/ADC_SAR_2_theACLK.c **** *  Note:
   9:Generated_Source\PSoC5/ADC_SAR_2_theACLK.c **** *
  10:Generated_Source\PSoC5/ADC_SAR_2_theACLK.c **** ********************************************************************************
  11:Generated_Source\PSoC5/ADC_SAR_2_theACLK.c **** * Copyright 2008-2012, Cypress Semiconductor Corporation.  All rights reserved.
  12:Generated_Source\PSoC5/ADC_SAR_2_theACLK.c **** * You may use this file only in accordance with the license, terms, conditions, 
  13:Generated_Source\PSoC5/ADC_SAR_2_theACLK.c **** * disclaimers, and limitations in the end user license agreement accompanying 
  14:Generated_Source\PSoC5/ADC_SAR_2_theACLK.c **** * the software package with which this file was provided.
  15:Generated_Source\PSoC5/ADC_SAR_2_theACLK.c **** *******************************************************************************/
  16:Generated_Source\PSoC5/ADC_SAR_2_theACLK.c **** 
  17:Generated_Source\PSoC5/ADC_SAR_2_theACLK.c **** #include <cydevice_trm.h>
  18:Generated_Source\PSoC5/ADC_SAR_2_theACLK.c **** #include "ADC_SAR_2_theACLK.h"
  19:Generated_Source\PSoC5/ADC_SAR_2_theACLK.c **** 
  20:Generated_Source\PSoC5/ADC_SAR_2_theACLK.c **** /* Clock Distribution registers. */
  21:Generated_Source\PSoC5/ADC_SAR_2_theACLK.c **** #define CLK_DIST_LD              (* (reg8 *) CYREG_CLKDIST_LD)
  22:Generated_Source\PSoC5/ADC_SAR_2_theACLK.c **** #define CLK_DIST_BCFG2           (* (reg8 *) CYREG_CLKDIST_BCFG2)
  23:Generated_Source\PSoC5/ADC_SAR_2_theACLK.c **** #define BCFG2_MASK               (0x80u)
  24:Generated_Source\PSoC5/ADC_SAR_2_theACLK.c **** #define CLK_DIST_DMASK           (* (reg8 *) CYREG_CLKDIST_DMASK)
  25:Generated_Source\PSoC5/ADC_SAR_2_theACLK.c **** #define CLK_DIST_AMASK           (* (reg8 *) CYREG_CLKDIST_AMASK)
  26:Generated_Source\PSoC5/ADC_SAR_2_theACLK.c **** 
  27:Generated_Source\PSoC5/ADC_SAR_2_theACLK.c **** #define HAS_CLKDIST_LD_DISABLE   (CY_PSOC3 || CY_PSOC5LP)
  28:Generated_Source\PSoC5/ADC_SAR_2_theACLK.c **** 
  29:Generated_Source\PSoC5/ADC_SAR_2_theACLK.c **** 
  30:Generated_Source\PSoC5/ADC_SAR_2_theACLK.c **** /*******************************************************************************
  31:Generated_Source\PSoC5/ADC_SAR_2_theACLK.c **** * Function Name: ADC_SAR_2_theACLK_Start
  32:Generated_Source\PSoC5/ADC_SAR_2_theACLK.c **** ********************************************************************************
  33:Generated_Source\PSoC5/ADC_SAR_2_theACLK.c **** *
  34:Generated_Source\PSoC5/ADC_SAR_2_theACLK.c **** * Summary:
  35:Generated_Source\PSoC5/ADC_SAR_2_theACLK.c **** *  Starts the clock. Note that on startup, clocks may be already running if the
  36:Generated_Source\PSoC5/ADC_SAR_2_theACLK.c **** *  "Start on Reset" option is enabled in the DWR.
  37:Generated_Source\PSoC5/ADC_SAR_2_theACLK.c **** *
  38:Generated_Source\PSoC5/ADC_SAR_2_theACLK.c **** * Parameters:
ARM GAS  C:\Users\Luggi\AppData\Local\Temp\cc74KHxU.s 			page 44


  39:Generated_Source\PSoC5/ADC_SAR_2_theACLK.c **** *  None
  40:Generated_Source\PSoC5/ADC_SAR_2_theACLK.c **** *
  41:Generated_Source\PSoC5/ADC_SAR_2_theACLK.c **** * Returns:
  42:Generated_Source\PSoC5/ADC_SAR_2_theACLK.c **** *  None
  43:Generated_Source\PSoC5/ADC_SAR_2_theACLK.c **** *
  44:Generated_Source\PSoC5/ADC_SAR_2_theACLK.c **** *******************************************************************************/
  45:Generated_Source\PSoC5/ADC_SAR_2_theACLK.c **** void ADC_SAR_2_theACLK_Start(void) 
  46:Generated_Source\PSoC5/ADC_SAR_2_theACLK.c **** {
 568              		.loc 1 46 0
 569              		.cfi_startproc
 570              		@ args = 0, pretend = 0, frame = 0
 571              		@ frame_needed = 0, uses_anonymous_args = 0
 572              		@ link register save eliminated.
  47:Generated_Source\PSoC5/ADC_SAR_2_theACLK.c ****     /* Set the bit to enable the clock. */
  48:Generated_Source\PSoC5/ADC_SAR_2_theACLK.c ****     ADC_SAR_2_theACLK_CLKEN |= ADC_SAR_2_theACLK_CLKEN_MASK;
 573              		.loc 1 48 0
 574 0000 054A     		ldr	r2, .L2
 575 0002 1378     		ldrb	r3, [r2]	@ zero_extendqisi2
 576 0004 43F00403 		orr	r3, r3, #4
 577 0008 1370     		strb	r3, [r2]
  49:Generated_Source\PSoC5/ADC_SAR_2_theACLK.c **** 	ADC_SAR_2_theACLK_CLKSTBY |= ADC_SAR_2_theACLK_CLKSTBY_MASK;
 578              		.loc 1 49 0
 579 000a 1032     		adds	r2, r2, #16
 580 000c 1378     		ldrb	r3, [r2]	@ zero_extendqisi2
 581 000e 43F00403 		orr	r3, r3, #4
 582 0012 1370     		strb	r3, [r2]
 583 0014 7047     		bx	lr
 584              	.L3:
 585 0016 00BF     		.align	2
 586              	.L2:
 587 0018 A2430040 		.word	1073759138
 588              		.cfi_endproc
 589              	.LFE0:
 590              		.size	ADC_SAR_2_theACLK_Start, .-ADC_SAR_2_theACLK_Start
 591              		.section	.text.ADC_SAR_2_theACLK_Stop,"ax",%progbits
 592              		.align	2
 593              		.global	ADC_SAR_2_theACLK_Stop
 594              		.thumb
 595              		.thumb_func
 596              		.type	ADC_SAR_2_theACLK_Stop, %function
 597              	ADC_SAR_2_theACLK_Stop:
 598              	.LFB1:
  50:Generated_Source\PSoC5/ADC_SAR_2_theACLK.c **** }
  51:Generated_Source\PSoC5/ADC_SAR_2_theACLK.c **** 
  52:Generated_Source\PSoC5/ADC_SAR_2_theACLK.c **** 
  53:Generated_Source\PSoC5/ADC_SAR_2_theACLK.c **** /*******************************************************************************
  54:Generated_Source\PSoC5/ADC_SAR_2_theACLK.c **** * Function Name: ADC_SAR_2_theACLK_Stop
  55:Generated_Source\PSoC5/ADC_SAR_2_theACLK.c **** ********************************************************************************
  56:Generated_Source\PSoC5/ADC_SAR_2_theACLK.c **** *
  57:Generated_Source\PSoC5/ADC_SAR_2_theACLK.c **** * Summary:
  58:Generated_Source\PSoC5/ADC_SAR_2_theACLK.c **** *  Stops the clock and returns immediately. This API does not require the
  59:Generated_Source\PSoC5/ADC_SAR_2_theACLK.c **** *  source clock to be running but may return before the hardware is actually
  60:Generated_Source\PSoC5/ADC_SAR_2_theACLK.c **** *  disabled. If the settings of the clock are changed after calling this
  61:Generated_Source\PSoC5/ADC_SAR_2_theACLK.c **** *  function, the clock may glitch when it is started. To avoid the clock
  62:Generated_Source\PSoC5/ADC_SAR_2_theACLK.c **** *  glitch, use the StopBlock function.
  63:Generated_Source\PSoC5/ADC_SAR_2_theACLK.c **** *
  64:Generated_Source\PSoC5/ADC_SAR_2_theACLK.c **** * Parameters:
ARM GAS  C:\Users\Luggi\AppData\Local\Temp\cc74KHxU.s 			page 45


  65:Generated_Source\PSoC5/ADC_SAR_2_theACLK.c **** *  None
  66:Generated_Source\PSoC5/ADC_SAR_2_theACLK.c **** *
  67:Generated_Source\PSoC5/ADC_SAR_2_theACLK.c **** * Returns:
  68:Generated_Source\PSoC5/ADC_SAR_2_theACLK.c **** *  None
  69:Generated_Source\PSoC5/ADC_SAR_2_theACLK.c **** *
  70:Generated_Source\PSoC5/ADC_SAR_2_theACLK.c **** *******************************************************************************/
  71:Generated_Source\PSoC5/ADC_SAR_2_theACLK.c **** void ADC_SAR_2_theACLK_Stop(void) 
  72:Generated_Source\PSoC5/ADC_SAR_2_theACLK.c **** {
 599              		.loc 1 72 0
 600              		.cfi_startproc
 601              		@ args = 0, pretend = 0, frame = 0
 602              		@ frame_needed = 0, uses_anonymous_args = 0
 603              		@ link register save eliminated.
  73:Generated_Source\PSoC5/ADC_SAR_2_theACLK.c ****     /* Clear the bit to disable the clock. */
  74:Generated_Source\PSoC5/ADC_SAR_2_theACLK.c ****     ADC_SAR_2_theACLK_CLKEN &= (uint8)(~ADC_SAR_2_theACLK_CLKEN_MASK);
 604              		.loc 1 74 0
 605 0000 054A     		ldr	r2, .L5
 606 0002 1378     		ldrb	r3, [r2]	@ zero_extendqisi2
 607 0004 03F0FB03 		and	r3, r3, #251
 608 0008 1370     		strb	r3, [r2]
  75:Generated_Source\PSoC5/ADC_SAR_2_theACLK.c **** 	ADC_SAR_2_theACLK_CLKSTBY &= (uint8)(~ADC_SAR_2_theACLK_CLKSTBY_MASK);
 609              		.loc 1 75 0
 610 000a 1032     		adds	r2, r2, #16
 611 000c 1378     		ldrb	r3, [r2]	@ zero_extendqisi2
 612 000e 03F0FB03 		and	r3, r3, #251
 613 0012 1370     		strb	r3, [r2]
 614 0014 7047     		bx	lr
 615              	.L6:
 616 0016 00BF     		.align	2
 617              	.L5:
 618 0018 A2430040 		.word	1073759138
 619              		.cfi_endproc
 620              	.LFE1:
 621              		.size	ADC_SAR_2_theACLK_Stop, .-ADC_SAR_2_theACLK_Stop
 622              		.section	.text.ADC_SAR_2_theACLK_StopBlock,"ax",%progbits
 623              		.align	2
 624              		.global	ADC_SAR_2_theACLK_StopBlock
 625              		.thumb
 626              		.thumb_func
 627              		.type	ADC_SAR_2_theACLK_StopBlock, %function
 628              	ADC_SAR_2_theACLK_StopBlock:
 629              	.LFB2:
  76:Generated_Source\PSoC5/ADC_SAR_2_theACLK.c **** }
  77:Generated_Source\PSoC5/ADC_SAR_2_theACLK.c **** 
  78:Generated_Source\PSoC5/ADC_SAR_2_theACLK.c **** 
  79:Generated_Source\PSoC5/ADC_SAR_2_theACLK.c **** #if(CY_PSOC3 || CY_PSOC5LP)
  80:Generated_Source\PSoC5/ADC_SAR_2_theACLK.c **** 
  81:Generated_Source\PSoC5/ADC_SAR_2_theACLK.c **** 
  82:Generated_Source\PSoC5/ADC_SAR_2_theACLK.c **** /*******************************************************************************
  83:Generated_Source\PSoC5/ADC_SAR_2_theACLK.c **** * Function Name: ADC_SAR_2_theACLK_StopBlock
  84:Generated_Source\PSoC5/ADC_SAR_2_theACLK.c **** ********************************************************************************
  85:Generated_Source\PSoC5/ADC_SAR_2_theACLK.c **** *
  86:Generated_Source\PSoC5/ADC_SAR_2_theACLK.c **** * Summary:
  87:Generated_Source\PSoC5/ADC_SAR_2_theACLK.c **** *  Stops the clock and waits for the hardware to actually be disabled before
  88:Generated_Source\PSoC5/ADC_SAR_2_theACLK.c **** *  returning. This ensures that the clock is never truncated (high part of the
  89:Generated_Source\PSoC5/ADC_SAR_2_theACLK.c **** *  cycle will terminate before the clock is disabled and the API returns).
  90:Generated_Source\PSoC5/ADC_SAR_2_theACLK.c **** *  Note that the source clock must be running or this API will never return as
ARM GAS  C:\Users\Luggi\AppData\Local\Temp\cc74KHxU.s 			page 46


  91:Generated_Source\PSoC5/ADC_SAR_2_theACLK.c **** *  a stopped clock cannot be disabled.
  92:Generated_Source\PSoC5/ADC_SAR_2_theACLK.c **** *
  93:Generated_Source\PSoC5/ADC_SAR_2_theACLK.c **** * Parameters:
  94:Generated_Source\PSoC5/ADC_SAR_2_theACLK.c **** *  None
  95:Generated_Source\PSoC5/ADC_SAR_2_theACLK.c **** *
  96:Generated_Source\PSoC5/ADC_SAR_2_theACLK.c **** * Returns:
  97:Generated_Source\PSoC5/ADC_SAR_2_theACLK.c **** *  None
  98:Generated_Source\PSoC5/ADC_SAR_2_theACLK.c **** *
  99:Generated_Source\PSoC5/ADC_SAR_2_theACLK.c **** *******************************************************************************/
 100:Generated_Source\PSoC5/ADC_SAR_2_theACLK.c **** void ADC_SAR_2_theACLK_StopBlock(void) 
 101:Generated_Source\PSoC5/ADC_SAR_2_theACLK.c **** {
 630              		.loc 1 101 0
 631              		.cfi_startproc
 632              		@ args = 0, pretend = 0, frame = 0
 633              		@ frame_needed = 0, uses_anonymous_args = 0
 634              		@ link register save eliminated.
 102:Generated_Source\PSoC5/ADC_SAR_2_theACLK.c ****     if ((ADC_SAR_2_theACLK_CLKEN & ADC_SAR_2_theACLK_CLKEN_MASK) != 0u)
 635              		.loc 1 102 0
 636 0000 164B     		ldr	r3, .L10
 637 0002 1B78     		ldrb	r3, [r3]	@ zero_extendqisi2
 638 0004 13F0040F 		tst	r3, #4
 639 0008 27D0     		beq	.L7
 640              	.LBB2:
 103:Generated_Source\PSoC5/ADC_SAR_2_theACLK.c ****     {
 104:Generated_Source\PSoC5/ADC_SAR_2_theACLK.c **** #if HAS_CLKDIST_LD_DISABLE
 105:Generated_Source\PSoC5/ADC_SAR_2_theACLK.c ****         uint16 oldDivider;
 106:Generated_Source\PSoC5/ADC_SAR_2_theACLK.c **** 
 107:Generated_Source\PSoC5/ADC_SAR_2_theACLK.c ****         CLK_DIST_LD = 0u;
 641              		.loc 1 107 0
 642 000a 1549     		ldr	r1, .L10+4
 643 000c 0023     		movs	r3, #0
 644 000e 0B70     		strb	r3, [r1]
 108:Generated_Source\PSoC5/ADC_SAR_2_theACLK.c **** 
 109:Generated_Source\PSoC5/ADC_SAR_2_theACLK.c ****         /* Clear all the mask bits except ours. */
 110:Generated_Source\PSoC5/ADC_SAR_2_theACLK.c **** #if defined(ADC_SAR_2_theACLK__CFG3)
 111:Generated_Source\PSoC5/ADC_SAR_2_theACLK.c ****         CLK_DIST_AMASK = ADC_SAR_2_theACLK_CLKEN_MASK;
 112:Generated_Source\PSoC5/ADC_SAR_2_theACLK.c ****         CLK_DIST_DMASK = 0x00u;
 113:Generated_Source\PSoC5/ADC_SAR_2_theACLK.c **** #else
 114:Generated_Source\PSoC5/ADC_SAR_2_theACLK.c ****         CLK_DIST_DMASK = ADC_SAR_2_theACLK_CLKEN_MASK;
 645              		.loc 1 114 0
 646 0010 0420     		movs	r0, #4
 647 0012 144A     		ldr	r2, .L10+8
 648 0014 1070     		strb	r0, [r2]
 115:Generated_Source\PSoC5/ADC_SAR_2_theACLK.c ****         CLK_DIST_AMASK = 0x00u;
 649              		.loc 1 115 0
 650 0016 0432     		adds	r2, r2, #4
 651 0018 1370     		strb	r3, [r2]
 116:Generated_Source\PSoC5/ADC_SAR_2_theACLK.c **** #endif /* ADC_SAR_2_theACLK__CFG3 */
 117:Generated_Source\PSoC5/ADC_SAR_2_theACLK.c **** 
 118:Generated_Source\PSoC5/ADC_SAR_2_theACLK.c ****         /* Clear mask of bus clock. */
 119:Generated_Source\PSoC5/ADC_SAR_2_theACLK.c ****         CLK_DIST_BCFG2 &= (uint8)(~BCFG2_MASK);
 652              		.loc 1 119 0
 653 001a 0C3A     		subs	r2, r2, #12
 654 001c 1378     		ldrb	r3, [r2]	@ zero_extendqisi2
 655 001e 03F07F03 		and	r3, r3, #127
 656 0022 1370     		strb	r3, [r2]
 120:Generated_Source\PSoC5/ADC_SAR_2_theACLK.c **** 
ARM GAS  C:\Users\Luggi\AppData\Local\Temp\cc74KHxU.s 			page 47


 121:Generated_Source\PSoC5/ADC_SAR_2_theACLK.c ****         oldDivider = CY_GET_REG16(ADC_SAR_2_theACLK_DIV_PTR);
 657              		.loc 1 121 0
 658 0024 104B     		ldr	r3, .L10+12
 659 0026 1A88     		ldrh	r2, [r3]
 660 0028 92B2     		uxth	r2, r2
 661              	.LVL0:
 122:Generated_Source\PSoC5/ADC_SAR_2_theACLK.c ****         CY_SET_REG16(CYREG_CLKDIST_WRK0, oldDivider);
 662              		.loc 1 122 0
 663 002a 863B     		subs	r3, r3, #134
 664 002c 1A80     		strh	r2, [r3]	@ movhi
 123:Generated_Source\PSoC5/ADC_SAR_2_theACLK.c ****         CLK_DIST_LD = CYCLK_LD_DISABLE | CYCLK_LD_SYNC_EN | CYCLK_LD_LOAD;
 665              		.loc 1 123 0
 666 002e 0723     		movs	r3, #7
 667 0030 0B70     		strb	r3, [r1]
 668              	.L9:
 124:Generated_Source\PSoC5/ADC_SAR_2_theACLK.c **** 
 125:Generated_Source\PSoC5/ADC_SAR_2_theACLK.c ****         /* Wait for clock to be disabled */
 126:Generated_Source\PSoC5/ADC_SAR_2_theACLK.c ****         while ((CLK_DIST_LD & CYCLK_LD_LOAD) != 0u) { }
 669              		.loc 1 126 0 discriminator 1
 670 0032 0B4B     		ldr	r3, .L10+4
 671 0034 1B78     		ldrb	r3, [r3]	@ zero_extendqisi2
 672 0036 13F0010F 		tst	r3, #1
 673 003a FAD1     		bne	.L9
 127:Generated_Source\PSoC5/ADC_SAR_2_theACLK.c **** #endif /* HAS_CLKDIST_LD_DISABLE */
 128:Generated_Source\PSoC5/ADC_SAR_2_theACLK.c **** 
 129:Generated_Source\PSoC5/ADC_SAR_2_theACLK.c ****         /* Clear the bit to disable the clock. */
 130:Generated_Source\PSoC5/ADC_SAR_2_theACLK.c ****         ADC_SAR_2_theACLK_CLKEN &= (uint8)(~ADC_SAR_2_theACLK_CLKEN_MASK);
 674              		.loc 1 130 0
 675 003c 0749     		ldr	r1, .L10
 676 003e 0B78     		ldrb	r3, [r1]	@ zero_extendqisi2
 677 0040 03F0FB03 		and	r3, r3, #251
 678 0044 0B70     		strb	r3, [r1]
 131:Generated_Source\PSoC5/ADC_SAR_2_theACLK.c ****         ADC_SAR_2_theACLK_CLKSTBY &= (uint8)(~ADC_SAR_2_theACLK_CLKSTBY_MASK);
 679              		.loc 1 131 0
 680 0046 1031     		adds	r1, r1, #16
 681 0048 0B78     		ldrb	r3, [r1]	@ zero_extendqisi2
 682 004a 03F0FB03 		and	r3, r3, #251
 683 004e 0B70     		strb	r3, [r1]
 132:Generated_Source\PSoC5/ADC_SAR_2_theACLK.c **** 
 133:Generated_Source\PSoC5/ADC_SAR_2_theACLK.c **** #if HAS_CLKDIST_LD_DISABLE
 134:Generated_Source\PSoC5/ADC_SAR_2_theACLK.c ****         /* Clear the disable bit */
 135:Generated_Source\PSoC5/ADC_SAR_2_theACLK.c ****         CLK_DIST_LD = 0x00u;
 684              		.loc 1 135 0
 685 0050 0021     		movs	r1, #0
 686 0052 034B     		ldr	r3, .L10+4
 687 0054 1970     		strb	r1, [r3]
 136:Generated_Source\PSoC5/ADC_SAR_2_theACLK.c ****         CY_SET_REG16(ADC_SAR_2_theACLK_DIV_PTR, oldDivider);
 688              		.loc 1 136 0
 689 0056 8733     		adds	r3, r3, #135
 690 0058 1A80     		strh	r2, [r3]	@ movhi
 691              	.LVL1:
 692              	.L7:
 693 005a 7047     		bx	lr
 694              	.L11:
 695              		.align	2
 696              	.L10:
 697 005c A2430040 		.word	1073759138
ARM GAS  C:\Users\Luggi\AppData\Local\Temp\cc74KHxU.s 			page 48


 698 0060 01400040 		.word	1073758209
 699 0064 10400040 		.word	1073758224
 700 0068 88400040 		.word	1073758344
 701              	.LBE2:
 702              		.cfi_endproc
 703              	.LFE2:
 704              		.size	ADC_SAR_2_theACLK_StopBlock, .-ADC_SAR_2_theACLK_StopBlock
 705              		.section	.text.ADC_SAR_2_theACLK_StandbyPower,"ax",%progbits
 706              		.align	2
 707              		.global	ADC_SAR_2_theACLK_StandbyPower
 708              		.thumb
 709              		.thumb_func
 710              		.type	ADC_SAR_2_theACLK_StandbyPower, %function
 711              	ADC_SAR_2_theACLK_StandbyPower:
 712              	.LFB3:
 137:Generated_Source\PSoC5/ADC_SAR_2_theACLK.c **** #endif /* HAS_CLKDIST_LD_DISABLE */
 138:Generated_Source\PSoC5/ADC_SAR_2_theACLK.c ****     }
 139:Generated_Source\PSoC5/ADC_SAR_2_theACLK.c **** }
 140:Generated_Source\PSoC5/ADC_SAR_2_theACLK.c **** #endif /* (CY_PSOC3 || CY_PSOC5LP) */
 141:Generated_Source\PSoC5/ADC_SAR_2_theACLK.c **** 
 142:Generated_Source\PSoC5/ADC_SAR_2_theACLK.c **** 
 143:Generated_Source\PSoC5/ADC_SAR_2_theACLK.c **** /*******************************************************************************
 144:Generated_Source\PSoC5/ADC_SAR_2_theACLK.c **** * Function Name: ADC_SAR_2_theACLK_StandbyPower
 145:Generated_Source\PSoC5/ADC_SAR_2_theACLK.c **** ********************************************************************************
 146:Generated_Source\PSoC5/ADC_SAR_2_theACLK.c **** *
 147:Generated_Source\PSoC5/ADC_SAR_2_theACLK.c **** * Summary:
 148:Generated_Source\PSoC5/ADC_SAR_2_theACLK.c **** *  Sets whether the clock is active in standby mode.
 149:Generated_Source\PSoC5/ADC_SAR_2_theACLK.c **** *
 150:Generated_Source\PSoC5/ADC_SAR_2_theACLK.c **** * Parameters:
 151:Generated_Source\PSoC5/ADC_SAR_2_theACLK.c **** *  state:  0 to disable clock during standby, nonzero to enable.
 152:Generated_Source\PSoC5/ADC_SAR_2_theACLK.c **** *
 153:Generated_Source\PSoC5/ADC_SAR_2_theACLK.c **** * Returns:
 154:Generated_Source\PSoC5/ADC_SAR_2_theACLK.c **** *  None
 155:Generated_Source\PSoC5/ADC_SAR_2_theACLK.c **** *
 156:Generated_Source\PSoC5/ADC_SAR_2_theACLK.c **** *******************************************************************************/
 157:Generated_Source\PSoC5/ADC_SAR_2_theACLK.c **** void ADC_SAR_2_theACLK_StandbyPower(uint8 state) 
 158:Generated_Source\PSoC5/ADC_SAR_2_theACLK.c **** {
 713              		.loc 1 158 0
 714              		.cfi_startproc
 715              		@ args = 0, pretend = 0, frame = 0
 716              		@ frame_needed = 0, uses_anonymous_args = 0
 717              		@ link register save eliminated.
 718              	.LVL2:
 159:Generated_Source\PSoC5/ADC_SAR_2_theACLK.c ****     if(state == 0u)
 719              		.loc 1 159 0
 720 0000 28B9     		cbnz	r0, .L13
 160:Generated_Source\PSoC5/ADC_SAR_2_theACLK.c ****     {
 161:Generated_Source\PSoC5/ADC_SAR_2_theACLK.c ****         ADC_SAR_2_theACLK_CLKSTBY &= (uint8)(~ADC_SAR_2_theACLK_CLKSTBY_MASK);
 721              		.loc 1 161 0
 722 0002 064A     		ldr	r2, .L15
 723 0004 1378     		ldrb	r3, [r2]	@ zero_extendqisi2
 724 0006 03F0FB03 		and	r3, r3, #251
 725 000a 1370     		strb	r3, [r2]
 726 000c 7047     		bx	lr
 727              	.L13:
 162:Generated_Source\PSoC5/ADC_SAR_2_theACLK.c ****     }
 163:Generated_Source\PSoC5/ADC_SAR_2_theACLK.c ****     else
ARM GAS  C:\Users\Luggi\AppData\Local\Temp\cc74KHxU.s 			page 49


 164:Generated_Source\PSoC5/ADC_SAR_2_theACLK.c ****     {
 165:Generated_Source\PSoC5/ADC_SAR_2_theACLK.c ****         ADC_SAR_2_theACLK_CLKSTBY |= ADC_SAR_2_theACLK_CLKSTBY_MASK;
 728              		.loc 1 165 0
 729 000e 034A     		ldr	r2, .L15
 730 0010 1378     		ldrb	r3, [r2]	@ zero_extendqisi2
 731 0012 43F00403 		orr	r3, r3, #4
 732 0016 1370     		strb	r3, [r2]
 733 0018 7047     		bx	lr
 734              	.L16:
 735 001a 00BF     		.align	2
 736              	.L15:
 737 001c B2430040 		.word	1073759154
 738              		.cfi_endproc
 739              	.LFE3:
 740              		.size	ADC_SAR_2_theACLK_StandbyPower, .-ADC_SAR_2_theACLK_StandbyPower
 741              		.section	.text.ADC_SAR_2_theACLK_GetDividerRegister,"ax",%progbits
 742              		.align	2
 743              		.global	ADC_SAR_2_theACLK_GetDividerRegister
 744              		.thumb
 745              		.thumb_func
 746              		.type	ADC_SAR_2_theACLK_GetDividerRegister, %function
 747              	ADC_SAR_2_theACLK_GetDividerRegister:
 748              	.LFB5:
 166:Generated_Source\PSoC5/ADC_SAR_2_theACLK.c ****     }
 167:Generated_Source\PSoC5/ADC_SAR_2_theACLK.c **** }
 168:Generated_Source\PSoC5/ADC_SAR_2_theACLK.c **** 
 169:Generated_Source\PSoC5/ADC_SAR_2_theACLK.c **** 
 170:Generated_Source\PSoC5/ADC_SAR_2_theACLK.c **** /*******************************************************************************
 171:Generated_Source\PSoC5/ADC_SAR_2_theACLK.c **** * Function Name: ADC_SAR_2_theACLK_SetDividerRegister
 172:Generated_Source\PSoC5/ADC_SAR_2_theACLK.c **** ********************************************************************************
 173:Generated_Source\PSoC5/ADC_SAR_2_theACLK.c **** *
 174:Generated_Source\PSoC5/ADC_SAR_2_theACLK.c **** * Summary:
 175:Generated_Source\PSoC5/ADC_SAR_2_theACLK.c **** *  Modifies the clock divider and, thus, the frequency. When the clock divider
 176:Generated_Source\PSoC5/ADC_SAR_2_theACLK.c **** *  register is set to zero or changed from zero, the clock will be temporarily
 177:Generated_Source\PSoC5/ADC_SAR_2_theACLK.c **** *  disabled in order to change the SSS mode bit. If the clock is enabled when
 178:Generated_Source\PSoC5/ADC_SAR_2_theACLK.c **** *  SetDividerRegister is called, then the source clock must be running.
 179:Generated_Source\PSoC5/ADC_SAR_2_theACLK.c **** *
 180:Generated_Source\PSoC5/ADC_SAR_2_theACLK.c **** * Parameters:
 181:Generated_Source\PSoC5/ADC_SAR_2_theACLK.c **** *  clkDivider:  Divider register value (0-65,535). This value is NOT the
 182:Generated_Source\PSoC5/ADC_SAR_2_theACLK.c **** *    divider; the clock hardware divides by clkDivider plus one. For example,
 183:Generated_Source\PSoC5/ADC_SAR_2_theACLK.c **** *    to divide the clock by 2, this parameter should be set to 1.
 184:Generated_Source\PSoC5/ADC_SAR_2_theACLK.c **** *  restart:  If nonzero, restarts the clock divider: the current clock cycle
 185:Generated_Source\PSoC5/ADC_SAR_2_theACLK.c **** *   will be truncated and the new divide value will take effect immediately. If
 186:Generated_Source\PSoC5/ADC_SAR_2_theACLK.c **** *   zero, the new divide value will take effect at the end of the current clock
 187:Generated_Source\PSoC5/ADC_SAR_2_theACLK.c **** *   cycle.
 188:Generated_Source\PSoC5/ADC_SAR_2_theACLK.c **** *
 189:Generated_Source\PSoC5/ADC_SAR_2_theACLK.c **** * Returns:
 190:Generated_Source\PSoC5/ADC_SAR_2_theACLK.c **** *  None
 191:Generated_Source\PSoC5/ADC_SAR_2_theACLK.c **** *
 192:Generated_Source\PSoC5/ADC_SAR_2_theACLK.c **** *******************************************************************************/
 193:Generated_Source\PSoC5/ADC_SAR_2_theACLK.c **** void ADC_SAR_2_theACLK_SetDividerRegister(uint16 clkDivider, uint8 restart)
 194:Generated_Source\PSoC5/ADC_SAR_2_theACLK.c ****                                 
 195:Generated_Source\PSoC5/ADC_SAR_2_theACLK.c **** {
 196:Generated_Source\PSoC5/ADC_SAR_2_theACLK.c ****     uint8 enabled;
 197:Generated_Source\PSoC5/ADC_SAR_2_theACLK.c **** 
 198:Generated_Source\PSoC5/ADC_SAR_2_theACLK.c ****     uint8 currSrc = ADC_SAR_2_theACLK_GetSourceRegister();
 199:Generated_Source\PSoC5/ADC_SAR_2_theACLK.c ****     uint16 oldDivider = ADC_SAR_2_theACLK_GetDividerRegister();
ARM GAS  C:\Users\Luggi\AppData\Local\Temp\cc74KHxU.s 			page 50


 200:Generated_Source\PSoC5/ADC_SAR_2_theACLK.c **** 
 201:Generated_Source\PSoC5/ADC_SAR_2_theACLK.c ****     if (clkDivider != oldDivider)
 202:Generated_Source\PSoC5/ADC_SAR_2_theACLK.c ****     {
 203:Generated_Source\PSoC5/ADC_SAR_2_theACLK.c ****         enabled = ADC_SAR_2_theACLK_CLKEN & ADC_SAR_2_theACLK_CLKEN_MASK;
 204:Generated_Source\PSoC5/ADC_SAR_2_theACLK.c **** 
 205:Generated_Source\PSoC5/ADC_SAR_2_theACLK.c ****         if ((currSrc == (uint8)CYCLK_SRC_SEL_CLK_SYNC_D) && ((oldDivider == 0u) || (clkDivider == 0
 206:Generated_Source\PSoC5/ADC_SAR_2_theACLK.c ****         {
 207:Generated_Source\PSoC5/ADC_SAR_2_theACLK.c ****             /* Moving to/from SSS requires correct ordering to prevent halting the clock    */
 208:Generated_Source\PSoC5/ADC_SAR_2_theACLK.c ****             if (oldDivider == 0u)
 209:Generated_Source\PSoC5/ADC_SAR_2_theACLK.c ****             {
 210:Generated_Source\PSoC5/ADC_SAR_2_theACLK.c ****                 /* Moving away from SSS, set the divider first so when SSS is cleared we    */
 211:Generated_Source\PSoC5/ADC_SAR_2_theACLK.c ****                 /* don't halt the clock.  Using the shadow load isn't required as the       */
 212:Generated_Source\PSoC5/ADC_SAR_2_theACLK.c ****                 /* divider is ignored while SSS is set.                                     */
 213:Generated_Source\PSoC5/ADC_SAR_2_theACLK.c ****                 CY_SET_REG16(ADC_SAR_2_theACLK_DIV_PTR, clkDivider);
 214:Generated_Source\PSoC5/ADC_SAR_2_theACLK.c ****                 ADC_SAR_2_theACLK_MOD_SRC &= (uint8)(~CYCLK_SSS);
 215:Generated_Source\PSoC5/ADC_SAR_2_theACLK.c ****             }
 216:Generated_Source\PSoC5/ADC_SAR_2_theACLK.c ****             else
 217:Generated_Source\PSoC5/ADC_SAR_2_theACLK.c ****             {
 218:Generated_Source\PSoC5/ADC_SAR_2_theACLK.c ****                 /* Moving to SSS, set SSS which then ignores the divider and we can set     */
 219:Generated_Source\PSoC5/ADC_SAR_2_theACLK.c ****                 /* it without bothering with the shadow load.                               */
 220:Generated_Source\PSoC5/ADC_SAR_2_theACLK.c ****                 ADC_SAR_2_theACLK_MOD_SRC |= CYCLK_SSS;
 221:Generated_Source\PSoC5/ADC_SAR_2_theACLK.c ****                 CY_SET_REG16(ADC_SAR_2_theACLK_DIV_PTR, clkDivider);
 222:Generated_Source\PSoC5/ADC_SAR_2_theACLK.c ****             }
 223:Generated_Source\PSoC5/ADC_SAR_2_theACLK.c ****         }
 224:Generated_Source\PSoC5/ADC_SAR_2_theACLK.c ****         else
 225:Generated_Source\PSoC5/ADC_SAR_2_theACLK.c ****         {
 226:Generated_Source\PSoC5/ADC_SAR_2_theACLK.c **** 			
 227:Generated_Source\PSoC5/ADC_SAR_2_theACLK.c ****             if (enabled != 0u)
 228:Generated_Source\PSoC5/ADC_SAR_2_theACLK.c ****             {
 229:Generated_Source\PSoC5/ADC_SAR_2_theACLK.c ****                 CLK_DIST_LD = 0x00u;
 230:Generated_Source\PSoC5/ADC_SAR_2_theACLK.c **** 
 231:Generated_Source\PSoC5/ADC_SAR_2_theACLK.c ****                 /* Clear all the mask bits except ours. */
 232:Generated_Source\PSoC5/ADC_SAR_2_theACLK.c **** #if defined(ADC_SAR_2_theACLK__CFG3)
 233:Generated_Source\PSoC5/ADC_SAR_2_theACLK.c ****                 CLK_DIST_AMASK = ADC_SAR_2_theACLK_CLKEN_MASK;
 234:Generated_Source\PSoC5/ADC_SAR_2_theACLK.c ****                 CLK_DIST_DMASK = 0x00u;
 235:Generated_Source\PSoC5/ADC_SAR_2_theACLK.c **** #else
 236:Generated_Source\PSoC5/ADC_SAR_2_theACLK.c ****                 CLK_DIST_DMASK = ADC_SAR_2_theACLK_CLKEN_MASK;
 237:Generated_Source\PSoC5/ADC_SAR_2_theACLK.c ****                 CLK_DIST_AMASK = 0x00u;
 238:Generated_Source\PSoC5/ADC_SAR_2_theACLK.c **** #endif /* ADC_SAR_2_theACLK__CFG3 */
 239:Generated_Source\PSoC5/ADC_SAR_2_theACLK.c ****                 /* Clear mask of bus clock. */
 240:Generated_Source\PSoC5/ADC_SAR_2_theACLK.c ****                 CLK_DIST_BCFG2 &= (uint8)(~BCFG2_MASK);
 241:Generated_Source\PSoC5/ADC_SAR_2_theACLK.c **** 
 242:Generated_Source\PSoC5/ADC_SAR_2_theACLK.c ****                 /* If clock is currently enabled, disable it if async or going from N-to-1*/
 243:Generated_Source\PSoC5/ADC_SAR_2_theACLK.c ****                 if (((ADC_SAR_2_theACLK_MOD_SRC & CYCLK_SYNC) == 0u) || (clkDivider == 0u))
 244:Generated_Source\PSoC5/ADC_SAR_2_theACLK.c ****                 {
 245:Generated_Source\PSoC5/ADC_SAR_2_theACLK.c **** #if HAS_CLKDIST_LD_DISABLE
 246:Generated_Source\PSoC5/ADC_SAR_2_theACLK.c ****                     CY_SET_REG16(CYREG_CLKDIST_WRK0, oldDivider);
 247:Generated_Source\PSoC5/ADC_SAR_2_theACLK.c ****                     CLK_DIST_LD = CYCLK_LD_DISABLE|CYCLK_LD_SYNC_EN|CYCLK_LD_LOAD;
 248:Generated_Source\PSoC5/ADC_SAR_2_theACLK.c **** 
 249:Generated_Source\PSoC5/ADC_SAR_2_theACLK.c ****                     /* Wait for clock to be disabled */
 250:Generated_Source\PSoC5/ADC_SAR_2_theACLK.c ****                     while ((CLK_DIST_LD & CYCLK_LD_LOAD) != 0u) { }
 251:Generated_Source\PSoC5/ADC_SAR_2_theACLK.c **** #endif /* HAS_CLKDIST_LD_DISABLE */
 252:Generated_Source\PSoC5/ADC_SAR_2_theACLK.c **** 
 253:Generated_Source\PSoC5/ADC_SAR_2_theACLK.c ****                     ADC_SAR_2_theACLK_CLKEN &= (uint8)(~ADC_SAR_2_theACLK_CLKEN_MASK);
 254:Generated_Source\PSoC5/ADC_SAR_2_theACLK.c **** 
 255:Generated_Source\PSoC5/ADC_SAR_2_theACLK.c **** #if HAS_CLKDIST_LD_DISABLE
 256:Generated_Source\PSoC5/ADC_SAR_2_theACLK.c ****                     /* Clear the disable bit */
ARM GAS  C:\Users\Luggi\AppData\Local\Temp\cc74KHxU.s 			page 51


 257:Generated_Source\PSoC5/ADC_SAR_2_theACLK.c ****                     CLK_DIST_LD = 0x00u;
 258:Generated_Source\PSoC5/ADC_SAR_2_theACLK.c **** #endif /* HAS_CLKDIST_LD_DISABLE */
 259:Generated_Source\PSoC5/ADC_SAR_2_theACLK.c ****                 }
 260:Generated_Source\PSoC5/ADC_SAR_2_theACLK.c ****             }
 261:Generated_Source\PSoC5/ADC_SAR_2_theACLK.c **** 
 262:Generated_Source\PSoC5/ADC_SAR_2_theACLK.c ****             /* Load divide value. */
 263:Generated_Source\PSoC5/ADC_SAR_2_theACLK.c ****             if ((ADC_SAR_2_theACLK_CLKEN & ADC_SAR_2_theACLK_CLKEN_MASK) != 0u)
 264:Generated_Source\PSoC5/ADC_SAR_2_theACLK.c ****             {
 265:Generated_Source\PSoC5/ADC_SAR_2_theACLK.c ****                 /* If the clock is still enabled, use the shadow registers */
 266:Generated_Source\PSoC5/ADC_SAR_2_theACLK.c ****                 CY_SET_REG16(CYREG_CLKDIST_WRK0, clkDivider);
 267:Generated_Source\PSoC5/ADC_SAR_2_theACLK.c **** 
 268:Generated_Source\PSoC5/ADC_SAR_2_theACLK.c ****                 CLK_DIST_LD = (CYCLK_LD_LOAD | ((restart != 0u) ? CYCLK_LD_SYNC_EN : 0x00u));
 269:Generated_Source\PSoC5/ADC_SAR_2_theACLK.c ****                 while ((CLK_DIST_LD & CYCLK_LD_LOAD) != 0u) { }
 270:Generated_Source\PSoC5/ADC_SAR_2_theACLK.c ****             }
 271:Generated_Source\PSoC5/ADC_SAR_2_theACLK.c ****             else
 272:Generated_Source\PSoC5/ADC_SAR_2_theACLK.c ****             {
 273:Generated_Source\PSoC5/ADC_SAR_2_theACLK.c ****                 /* If the clock is disabled, set the divider directly */
 274:Generated_Source\PSoC5/ADC_SAR_2_theACLK.c ****                 CY_SET_REG16(ADC_SAR_2_theACLK_DIV_PTR, clkDivider);
 275:Generated_Source\PSoC5/ADC_SAR_2_theACLK.c **** 				ADC_SAR_2_theACLK_CLKEN |= enabled;
 276:Generated_Source\PSoC5/ADC_SAR_2_theACLK.c ****             }
 277:Generated_Source\PSoC5/ADC_SAR_2_theACLK.c ****         }
 278:Generated_Source\PSoC5/ADC_SAR_2_theACLK.c ****     }
 279:Generated_Source\PSoC5/ADC_SAR_2_theACLK.c **** }
 280:Generated_Source\PSoC5/ADC_SAR_2_theACLK.c **** 
 281:Generated_Source\PSoC5/ADC_SAR_2_theACLK.c **** 
 282:Generated_Source\PSoC5/ADC_SAR_2_theACLK.c **** /*******************************************************************************
 283:Generated_Source\PSoC5/ADC_SAR_2_theACLK.c **** * Function Name: ADC_SAR_2_theACLK_GetDividerRegister
 284:Generated_Source\PSoC5/ADC_SAR_2_theACLK.c **** ********************************************************************************
 285:Generated_Source\PSoC5/ADC_SAR_2_theACLK.c **** *
 286:Generated_Source\PSoC5/ADC_SAR_2_theACLK.c **** * Summary:
 287:Generated_Source\PSoC5/ADC_SAR_2_theACLK.c **** *  Gets the clock divider register value.
 288:Generated_Source\PSoC5/ADC_SAR_2_theACLK.c **** *
 289:Generated_Source\PSoC5/ADC_SAR_2_theACLK.c **** * Parameters:
 290:Generated_Source\PSoC5/ADC_SAR_2_theACLK.c **** *  None
 291:Generated_Source\PSoC5/ADC_SAR_2_theACLK.c **** *
 292:Generated_Source\PSoC5/ADC_SAR_2_theACLK.c **** * Returns:
 293:Generated_Source\PSoC5/ADC_SAR_2_theACLK.c **** *  Divide value of the clock minus 1. For example, if the clock is set to
 294:Generated_Source\PSoC5/ADC_SAR_2_theACLK.c **** *  divide by 2, the return value will be 1.
 295:Generated_Source\PSoC5/ADC_SAR_2_theACLK.c **** *
 296:Generated_Source\PSoC5/ADC_SAR_2_theACLK.c **** *******************************************************************************/
 297:Generated_Source\PSoC5/ADC_SAR_2_theACLK.c **** uint16 ADC_SAR_2_theACLK_GetDividerRegister(void) 
 298:Generated_Source\PSoC5/ADC_SAR_2_theACLK.c **** {
 749              		.loc 1 298 0
 750              		.cfi_startproc
 751              		@ args = 0, pretend = 0, frame = 0
 752              		@ frame_needed = 0, uses_anonymous_args = 0
 753              		@ link register save eliminated.
 299:Generated_Source\PSoC5/ADC_SAR_2_theACLK.c ****     return CY_GET_REG16(ADC_SAR_2_theACLK_DIV_PTR);
 754              		.loc 1 299 0
 755 0000 014B     		ldr	r3, .L18
 756 0002 1888     		ldrh	r0, [r3]
 300:Generated_Source\PSoC5/ADC_SAR_2_theACLK.c **** }
 757              		.loc 1 300 0
 758 0004 80B2     		uxth	r0, r0
 759 0006 7047     		bx	lr
 760              	.L19:
 761              		.align	2
ARM GAS  C:\Users\Luggi\AppData\Local\Temp\cc74KHxU.s 			page 52


 762              	.L18:
 763 0008 88400040 		.word	1073758344
 764              		.cfi_endproc
 765              	.LFE5:
 766              		.size	ADC_SAR_2_theACLK_GetDividerRegister, .-ADC_SAR_2_theACLK_GetDividerRegister
 767              		.section	.text.ADC_SAR_2_theACLK_SetModeRegister,"ax",%progbits
 768              		.align	2
 769              		.global	ADC_SAR_2_theACLK_SetModeRegister
 770              		.thumb
 771              		.thumb_func
 772              		.type	ADC_SAR_2_theACLK_SetModeRegister, %function
 773              	ADC_SAR_2_theACLK_SetModeRegister:
 774              	.LFB6:
 301:Generated_Source\PSoC5/ADC_SAR_2_theACLK.c **** 
 302:Generated_Source\PSoC5/ADC_SAR_2_theACLK.c **** 
 303:Generated_Source\PSoC5/ADC_SAR_2_theACLK.c **** /*******************************************************************************
 304:Generated_Source\PSoC5/ADC_SAR_2_theACLK.c **** * Function Name: ADC_SAR_2_theACLK_SetModeRegister
 305:Generated_Source\PSoC5/ADC_SAR_2_theACLK.c **** ********************************************************************************
 306:Generated_Source\PSoC5/ADC_SAR_2_theACLK.c **** *
 307:Generated_Source\PSoC5/ADC_SAR_2_theACLK.c **** * Summary:
 308:Generated_Source\PSoC5/ADC_SAR_2_theACLK.c **** *  Sets flags that control the operating mode of the clock. This function only
 309:Generated_Source\PSoC5/ADC_SAR_2_theACLK.c **** *  changes flags from 0 to 1; flags that are already 1 will remain unchanged.
 310:Generated_Source\PSoC5/ADC_SAR_2_theACLK.c **** *  To clear flags, use the ClearModeRegister function. The clock must be
 311:Generated_Source\PSoC5/ADC_SAR_2_theACLK.c **** *  disabled before changing the mode.
 312:Generated_Source\PSoC5/ADC_SAR_2_theACLK.c **** *
 313:Generated_Source\PSoC5/ADC_SAR_2_theACLK.c **** * Parameters:
 314:Generated_Source\PSoC5/ADC_SAR_2_theACLK.c **** *  clkMode: Bit mask containing the bits to set. For PSoC 3 and PSoC 5,
 315:Generated_Source\PSoC5/ADC_SAR_2_theACLK.c **** *   clkMode should be a set of the following optional bits or'ed together.
 316:Generated_Source\PSoC5/ADC_SAR_2_theACLK.c **** *   - CYCLK_EARLY Enable early phase mode. Rising edge of output clock will
 317:Generated_Source\PSoC5/ADC_SAR_2_theACLK.c **** *                 occur when the divider count reaches half of the divide
 318:Generated_Source\PSoC5/ADC_SAR_2_theACLK.c **** *                 value.
 319:Generated_Source\PSoC5/ADC_SAR_2_theACLK.c **** *   - CYCLK_DUTY  Enable 50% duty cycle output. When enabled, the output clock
 320:Generated_Source\PSoC5/ADC_SAR_2_theACLK.c **** *                 is asserted for approximately half of its period. When
 321:Generated_Source\PSoC5/ADC_SAR_2_theACLK.c **** *                 disabled, the output clock is asserted for one period of the
 322:Generated_Source\PSoC5/ADC_SAR_2_theACLK.c **** *                 source clock.
 323:Generated_Source\PSoC5/ADC_SAR_2_theACLK.c **** *   - CYCLK_SYNC  Enable output synchronization to master clock. This should
 324:Generated_Source\PSoC5/ADC_SAR_2_theACLK.c **** *                 be enabled for all synchronous clocks.
 325:Generated_Source\PSoC5/ADC_SAR_2_theACLK.c **** *   See the Technical Reference Manual for details about setting the mode of
 326:Generated_Source\PSoC5/ADC_SAR_2_theACLK.c **** *   the clock. Specifically, see the CLKDIST.DCFG.CFG2 register.
 327:Generated_Source\PSoC5/ADC_SAR_2_theACLK.c **** *
 328:Generated_Source\PSoC5/ADC_SAR_2_theACLK.c **** * Returns:
 329:Generated_Source\PSoC5/ADC_SAR_2_theACLK.c **** *  None
 330:Generated_Source\PSoC5/ADC_SAR_2_theACLK.c **** *
 331:Generated_Source\PSoC5/ADC_SAR_2_theACLK.c **** *******************************************************************************/
 332:Generated_Source\PSoC5/ADC_SAR_2_theACLK.c **** void ADC_SAR_2_theACLK_SetModeRegister(uint8 modeBitMask) 
 333:Generated_Source\PSoC5/ADC_SAR_2_theACLK.c **** {
 775              		.loc 1 333 0
 776              		.cfi_startproc
 777              		@ args = 0, pretend = 0, frame = 0
 778              		@ frame_needed = 0, uses_anonymous_args = 0
 779              		@ link register save eliminated.
 780              	.LVL3:
 334:Generated_Source\PSoC5/ADC_SAR_2_theACLK.c ****     ADC_SAR_2_theACLK_MOD_SRC |= modeBitMask & (uint8)ADC_SAR_2_theACLK_MODE_MASK;
 781              		.loc 1 334 0
 782 0000 034B     		ldr	r3, .L21
 783 0002 1A78     		ldrb	r2, [r3]	@ zero_extendqisi2
 784 0004 00F0F800 		and	r0, r0, #248
ARM GAS  C:\Users\Luggi\AppData\Local\Temp\cc74KHxU.s 			page 53


 785              	.LVL4:
 786 0008 1043     		orrs	r0, r0, r2
 787 000a 1870     		strb	r0, [r3]
 788 000c 7047     		bx	lr
 789              	.L22:
 790 000e 00BF     		.align	2
 791              	.L21:
 792 0010 8A400040 		.word	1073758346
 793              		.cfi_endproc
 794              	.LFE6:
 795              		.size	ADC_SAR_2_theACLK_SetModeRegister, .-ADC_SAR_2_theACLK_SetModeRegister
 796              		.section	.text.ADC_SAR_2_theACLK_ClearModeRegister,"ax",%progbits
 797              		.align	2
 798              		.global	ADC_SAR_2_theACLK_ClearModeRegister
 799              		.thumb
 800              		.thumb_func
 801              		.type	ADC_SAR_2_theACLK_ClearModeRegister, %function
 802              	ADC_SAR_2_theACLK_ClearModeRegister:
 803              	.LFB7:
 335:Generated_Source\PSoC5/ADC_SAR_2_theACLK.c **** }
 336:Generated_Source\PSoC5/ADC_SAR_2_theACLK.c **** 
 337:Generated_Source\PSoC5/ADC_SAR_2_theACLK.c **** 
 338:Generated_Source\PSoC5/ADC_SAR_2_theACLK.c **** /*******************************************************************************
 339:Generated_Source\PSoC5/ADC_SAR_2_theACLK.c **** * Function Name: ADC_SAR_2_theACLK_ClearModeRegister
 340:Generated_Source\PSoC5/ADC_SAR_2_theACLK.c **** ********************************************************************************
 341:Generated_Source\PSoC5/ADC_SAR_2_theACLK.c **** *
 342:Generated_Source\PSoC5/ADC_SAR_2_theACLK.c **** * Summary:
 343:Generated_Source\PSoC5/ADC_SAR_2_theACLK.c **** *  Clears flags that control the operating mode of the clock. This function
 344:Generated_Source\PSoC5/ADC_SAR_2_theACLK.c **** *  only changes flags from 1 to 0; flags that are already 0 will remain
 345:Generated_Source\PSoC5/ADC_SAR_2_theACLK.c **** *  unchanged. To set flags, use the SetModeRegister function. The clock must be
 346:Generated_Source\PSoC5/ADC_SAR_2_theACLK.c **** *  disabled before changing the mode.
 347:Generated_Source\PSoC5/ADC_SAR_2_theACLK.c **** *
 348:Generated_Source\PSoC5/ADC_SAR_2_theACLK.c **** * Parameters:
 349:Generated_Source\PSoC5/ADC_SAR_2_theACLK.c **** *  clkMode: Bit mask containing the bits to clear. For PSoC 3 and PSoC 5,
 350:Generated_Source\PSoC5/ADC_SAR_2_theACLK.c **** *   clkMode should be a set of the following optional bits or'ed together.
 351:Generated_Source\PSoC5/ADC_SAR_2_theACLK.c **** *   - CYCLK_EARLY Enable early phase mode. Rising edge of output clock will
 352:Generated_Source\PSoC5/ADC_SAR_2_theACLK.c **** *                 occur when the divider count reaches half of the divide
 353:Generated_Source\PSoC5/ADC_SAR_2_theACLK.c **** *                 value.
 354:Generated_Source\PSoC5/ADC_SAR_2_theACLK.c **** *   - CYCLK_DUTY  Enable 50% duty cycle output. When enabled, the output clock
 355:Generated_Source\PSoC5/ADC_SAR_2_theACLK.c **** *                 is asserted for approximately half of its period. When
 356:Generated_Source\PSoC5/ADC_SAR_2_theACLK.c **** *                 disabled, the output clock is asserted for one period of the
 357:Generated_Source\PSoC5/ADC_SAR_2_theACLK.c **** *                 source clock.
 358:Generated_Source\PSoC5/ADC_SAR_2_theACLK.c **** *   - CYCLK_SYNC  Enable output synchronization to master clock. This should
 359:Generated_Source\PSoC5/ADC_SAR_2_theACLK.c **** *                 be enabled for all synchronous clocks.
 360:Generated_Source\PSoC5/ADC_SAR_2_theACLK.c **** *   See the Technical Reference Manual for details about setting the mode of
 361:Generated_Source\PSoC5/ADC_SAR_2_theACLK.c **** *   the clock. Specifically, see the CLKDIST.DCFG.CFG2 register.
 362:Generated_Source\PSoC5/ADC_SAR_2_theACLK.c **** *
 363:Generated_Source\PSoC5/ADC_SAR_2_theACLK.c **** * Returns:
 364:Generated_Source\PSoC5/ADC_SAR_2_theACLK.c **** *  None
 365:Generated_Source\PSoC5/ADC_SAR_2_theACLK.c **** *
 366:Generated_Source\PSoC5/ADC_SAR_2_theACLK.c **** *******************************************************************************/
 367:Generated_Source\PSoC5/ADC_SAR_2_theACLK.c **** void ADC_SAR_2_theACLK_ClearModeRegister(uint8 modeBitMask) 
 368:Generated_Source\PSoC5/ADC_SAR_2_theACLK.c **** {
 804              		.loc 1 368 0
 805              		.cfi_startproc
 806              		@ args = 0, pretend = 0, frame = 0
 807              		@ frame_needed = 0, uses_anonymous_args = 0
ARM GAS  C:\Users\Luggi\AppData\Local\Temp\cc74KHxU.s 			page 54


 808              		@ link register save eliminated.
 809              	.LVL5:
 369:Generated_Source\PSoC5/ADC_SAR_2_theACLK.c ****     ADC_SAR_2_theACLK_MOD_SRC &= (uint8)(~modeBitMask) | (uint8)(~(uint8)(ADC_SAR_2_theACLK_MODE_MA
 810              		.loc 1 369 0
 811 0000 044B     		ldr	r3, .L24
 812 0002 1A78     		ldrb	r2, [r3]	@ zero_extendqisi2
 813 0004 C043     		mvns	r0, r0
 814              	.LVL6:
 815 0006 C0B2     		uxtb	r0, r0
 816 0008 40F00700 		orr	r0, r0, #7
 817 000c 1040     		ands	r0, r0, r2
 818 000e 1870     		strb	r0, [r3]
 819 0010 7047     		bx	lr
 820              	.L25:
 821 0012 00BF     		.align	2
 822              	.L24:
 823 0014 8A400040 		.word	1073758346
 824              		.cfi_endproc
 825              	.LFE7:
 826              		.size	ADC_SAR_2_theACLK_ClearModeRegister, .-ADC_SAR_2_theACLK_ClearModeRegister
 827              		.section	.text.ADC_SAR_2_theACLK_GetModeRegister,"ax",%progbits
 828              		.align	2
 829              		.global	ADC_SAR_2_theACLK_GetModeRegister
 830              		.thumb
 831              		.thumb_func
 832              		.type	ADC_SAR_2_theACLK_GetModeRegister, %function
 833              	ADC_SAR_2_theACLK_GetModeRegister:
 834              	.LFB8:
 370:Generated_Source\PSoC5/ADC_SAR_2_theACLK.c **** }
 371:Generated_Source\PSoC5/ADC_SAR_2_theACLK.c **** 
 372:Generated_Source\PSoC5/ADC_SAR_2_theACLK.c **** 
 373:Generated_Source\PSoC5/ADC_SAR_2_theACLK.c **** /*******************************************************************************
 374:Generated_Source\PSoC5/ADC_SAR_2_theACLK.c **** * Function Name: ADC_SAR_2_theACLK_GetModeRegister
 375:Generated_Source\PSoC5/ADC_SAR_2_theACLK.c **** ********************************************************************************
 376:Generated_Source\PSoC5/ADC_SAR_2_theACLK.c **** *
 377:Generated_Source\PSoC5/ADC_SAR_2_theACLK.c **** * Summary:
 378:Generated_Source\PSoC5/ADC_SAR_2_theACLK.c **** *  Gets the clock mode register value.
 379:Generated_Source\PSoC5/ADC_SAR_2_theACLK.c **** *
 380:Generated_Source\PSoC5/ADC_SAR_2_theACLK.c **** * Parameters:
 381:Generated_Source\PSoC5/ADC_SAR_2_theACLK.c **** *  None
 382:Generated_Source\PSoC5/ADC_SAR_2_theACLK.c **** *
 383:Generated_Source\PSoC5/ADC_SAR_2_theACLK.c **** * Returns:
 384:Generated_Source\PSoC5/ADC_SAR_2_theACLK.c **** *  Bit mask representing the enabled mode bits. See the SetModeRegister and
 385:Generated_Source\PSoC5/ADC_SAR_2_theACLK.c **** *  ClearModeRegister descriptions for details about the mode bits.
 386:Generated_Source\PSoC5/ADC_SAR_2_theACLK.c **** *
 387:Generated_Source\PSoC5/ADC_SAR_2_theACLK.c **** *******************************************************************************/
 388:Generated_Source\PSoC5/ADC_SAR_2_theACLK.c **** uint8 ADC_SAR_2_theACLK_GetModeRegister(void) 
 389:Generated_Source\PSoC5/ADC_SAR_2_theACLK.c **** {
 835              		.loc 1 389 0
 836              		.cfi_startproc
 837              		@ args = 0, pretend = 0, frame = 0
 838              		@ frame_needed = 0, uses_anonymous_args = 0
 839              		@ link register save eliminated.
 390:Generated_Source\PSoC5/ADC_SAR_2_theACLK.c ****     return ADC_SAR_2_theACLK_MOD_SRC & (uint8)(ADC_SAR_2_theACLK_MODE_MASK);
 840              		.loc 1 390 0
 841 0000 024B     		ldr	r3, .L27
 842 0002 1878     		ldrb	r0, [r3]	@ zero_extendqisi2
ARM GAS  C:\Users\Luggi\AppData\Local\Temp\cc74KHxU.s 			page 55


 391:Generated_Source\PSoC5/ADC_SAR_2_theACLK.c **** }
 843              		.loc 1 391 0
 844 0004 00F0F800 		and	r0, r0, #248
 845 0008 7047     		bx	lr
 846              	.L28:
 847 000a 00BF     		.align	2
 848              	.L27:
 849 000c 8A400040 		.word	1073758346
 850              		.cfi_endproc
 851              	.LFE8:
 852              		.size	ADC_SAR_2_theACLK_GetModeRegister, .-ADC_SAR_2_theACLK_GetModeRegister
 853              		.section	.text.ADC_SAR_2_theACLK_GetSourceRegister,"ax",%progbits
 854              		.align	2
 855              		.global	ADC_SAR_2_theACLK_GetSourceRegister
 856              		.thumb
 857              		.thumb_func
 858              		.type	ADC_SAR_2_theACLK_GetSourceRegister, %function
 859              	ADC_SAR_2_theACLK_GetSourceRegister:
 860              	.LFB10:
 392:Generated_Source\PSoC5/ADC_SAR_2_theACLK.c **** 
 393:Generated_Source\PSoC5/ADC_SAR_2_theACLK.c **** 
 394:Generated_Source\PSoC5/ADC_SAR_2_theACLK.c **** /*******************************************************************************
 395:Generated_Source\PSoC5/ADC_SAR_2_theACLK.c **** * Function Name: ADC_SAR_2_theACLK_SetSourceRegister
 396:Generated_Source\PSoC5/ADC_SAR_2_theACLK.c **** ********************************************************************************
 397:Generated_Source\PSoC5/ADC_SAR_2_theACLK.c **** *
 398:Generated_Source\PSoC5/ADC_SAR_2_theACLK.c **** * Summary:
 399:Generated_Source\PSoC5/ADC_SAR_2_theACLK.c **** *  Sets the input source of the clock. The clock must be disabled before
 400:Generated_Source\PSoC5/ADC_SAR_2_theACLK.c **** *  changing the source. The old and new clock sources must be running.
 401:Generated_Source\PSoC5/ADC_SAR_2_theACLK.c **** *
 402:Generated_Source\PSoC5/ADC_SAR_2_theACLK.c **** * Parameters:
 403:Generated_Source\PSoC5/ADC_SAR_2_theACLK.c **** *  clkSource:  For PSoC 3 and PSoC 5 devices, clkSource should be one of the
 404:Generated_Source\PSoC5/ADC_SAR_2_theACLK.c **** *   following input sources:
 405:Generated_Source\PSoC5/ADC_SAR_2_theACLK.c **** *   - CYCLK_SRC_SEL_SYNC_DIG
 406:Generated_Source\PSoC5/ADC_SAR_2_theACLK.c **** *   - CYCLK_SRC_SEL_IMO
 407:Generated_Source\PSoC5/ADC_SAR_2_theACLK.c **** *   - CYCLK_SRC_SEL_XTALM
 408:Generated_Source\PSoC5/ADC_SAR_2_theACLK.c **** *   - CYCLK_SRC_SEL_ILO
 409:Generated_Source\PSoC5/ADC_SAR_2_theACLK.c **** *   - CYCLK_SRC_SEL_PLL
 410:Generated_Source\PSoC5/ADC_SAR_2_theACLK.c **** *   - CYCLK_SRC_SEL_XTALK
 411:Generated_Source\PSoC5/ADC_SAR_2_theACLK.c **** *   - CYCLK_SRC_SEL_DSI_G
 412:Generated_Source\PSoC5/ADC_SAR_2_theACLK.c **** *   - CYCLK_SRC_SEL_DSI_D/CYCLK_SRC_SEL_DSI_A
 413:Generated_Source\PSoC5/ADC_SAR_2_theACLK.c **** *   See the Technical Reference Manual for details on clock sources.
 414:Generated_Source\PSoC5/ADC_SAR_2_theACLK.c **** *
 415:Generated_Source\PSoC5/ADC_SAR_2_theACLK.c **** * Returns:
 416:Generated_Source\PSoC5/ADC_SAR_2_theACLK.c **** *  None
 417:Generated_Source\PSoC5/ADC_SAR_2_theACLK.c **** *
 418:Generated_Source\PSoC5/ADC_SAR_2_theACLK.c **** *******************************************************************************/
 419:Generated_Source\PSoC5/ADC_SAR_2_theACLK.c **** void ADC_SAR_2_theACLK_SetSourceRegister(uint8 clkSource) 
 420:Generated_Source\PSoC5/ADC_SAR_2_theACLK.c **** {
 421:Generated_Source\PSoC5/ADC_SAR_2_theACLK.c ****     uint16 currDiv = ADC_SAR_2_theACLK_GetDividerRegister();
 422:Generated_Source\PSoC5/ADC_SAR_2_theACLK.c ****     uint8 oldSrc = ADC_SAR_2_theACLK_GetSourceRegister();
 423:Generated_Source\PSoC5/ADC_SAR_2_theACLK.c **** 
 424:Generated_Source\PSoC5/ADC_SAR_2_theACLK.c ****     if (((oldSrc != ((uint8)CYCLK_SRC_SEL_CLK_SYNC_D)) && 
 425:Generated_Source\PSoC5/ADC_SAR_2_theACLK.c ****         (clkSource == ((uint8)CYCLK_SRC_SEL_CLK_SYNC_D))) && (currDiv == 0u))
 426:Generated_Source\PSoC5/ADC_SAR_2_theACLK.c ****     {
 427:Generated_Source\PSoC5/ADC_SAR_2_theACLK.c ****         /* Switching to Master and divider is 1, set SSS, which will output master, */
 428:Generated_Source\PSoC5/ADC_SAR_2_theACLK.c ****         /* then set the source so we are consistent.                                */
 429:Generated_Source\PSoC5/ADC_SAR_2_theACLK.c ****         ADC_SAR_2_theACLK_MOD_SRC |= CYCLK_SSS;
ARM GAS  C:\Users\Luggi\AppData\Local\Temp\cc74KHxU.s 			page 56


 430:Generated_Source\PSoC5/ADC_SAR_2_theACLK.c ****         ADC_SAR_2_theACLK_MOD_SRC =
 431:Generated_Source\PSoC5/ADC_SAR_2_theACLK.c ****             (ADC_SAR_2_theACLK_MOD_SRC & (uint8)(~ADC_SAR_2_theACLK_SRC_SEL_MSK)) | clkSource;
 432:Generated_Source\PSoC5/ADC_SAR_2_theACLK.c ****     }
 433:Generated_Source\PSoC5/ADC_SAR_2_theACLK.c ****     else if (((oldSrc == ((uint8)CYCLK_SRC_SEL_CLK_SYNC_D)) && 
 434:Generated_Source\PSoC5/ADC_SAR_2_theACLK.c ****             (clkSource != ((uint8)CYCLK_SRC_SEL_CLK_SYNC_D))) && (currDiv == 0u))
 435:Generated_Source\PSoC5/ADC_SAR_2_theACLK.c ****     {
 436:Generated_Source\PSoC5/ADC_SAR_2_theACLK.c ****         /* Switching from Master to not and divider is 1, set source, so we don't   */
 437:Generated_Source\PSoC5/ADC_SAR_2_theACLK.c ****         /* lock when we clear SSS.                                                  */
 438:Generated_Source\PSoC5/ADC_SAR_2_theACLK.c ****         ADC_SAR_2_theACLK_MOD_SRC =
 439:Generated_Source\PSoC5/ADC_SAR_2_theACLK.c ****             (ADC_SAR_2_theACLK_MOD_SRC & (uint8)(~ADC_SAR_2_theACLK_SRC_SEL_MSK)) | clkSource;
 440:Generated_Source\PSoC5/ADC_SAR_2_theACLK.c ****         ADC_SAR_2_theACLK_MOD_SRC &= (uint8)(~CYCLK_SSS);
 441:Generated_Source\PSoC5/ADC_SAR_2_theACLK.c ****     }
 442:Generated_Source\PSoC5/ADC_SAR_2_theACLK.c ****     else
 443:Generated_Source\PSoC5/ADC_SAR_2_theACLK.c ****     {
 444:Generated_Source\PSoC5/ADC_SAR_2_theACLK.c ****         ADC_SAR_2_theACLK_MOD_SRC =
 445:Generated_Source\PSoC5/ADC_SAR_2_theACLK.c ****             (ADC_SAR_2_theACLK_MOD_SRC & (uint8)(~ADC_SAR_2_theACLK_SRC_SEL_MSK)) | clkSource;
 446:Generated_Source\PSoC5/ADC_SAR_2_theACLK.c ****     }
 447:Generated_Source\PSoC5/ADC_SAR_2_theACLK.c **** }
 448:Generated_Source\PSoC5/ADC_SAR_2_theACLK.c **** 
 449:Generated_Source\PSoC5/ADC_SAR_2_theACLK.c **** 
 450:Generated_Source\PSoC5/ADC_SAR_2_theACLK.c **** /*******************************************************************************
 451:Generated_Source\PSoC5/ADC_SAR_2_theACLK.c **** * Function Name: ADC_SAR_2_theACLK_GetSourceRegister
 452:Generated_Source\PSoC5/ADC_SAR_2_theACLK.c **** ********************************************************************************
 453:Generated_Source\PSoC5/ADC_SAR_2_theACLK.c **** *
 454:Generated_Source\PSoC5/ADC_SAR_2_theACLK.c **** * Summary:
 455:Generated_Source\PSoC5/ADC_SAR_2_theACLK.c **** *  Gets the input source of the clock.
 456:Generated_Source\PSoC5/ADC_SAR_2_theACLK.c **** *
 457:Generated_Source\PSoC5/ADC_SAR_2_theACLK.c **** * Parameters:
 458:Generated_Source\PSoC5/ADC_SAR_2_theACLK.c **** *  None
 459:Generated_Source\PSoC5/ADC_SAR_2_theACLK.c **** *
 460:Generated_Source\PSoC5/ADC_SAR_2_theACLK.c **** * Returns:
 461:Generated_Source\PSoC5/ADC_SAR_2_theACLK.c **** *  The input source of the clock. See SetSourceRegister for details.
 462:Generated_Source\PSoC5/ADC_SAR_2_theACLK.c **** *
 463:Generated_Source\PSoC5/ADC_SAR_2_theACLK.c **** *******************************************************************************/
 464:Generated_Source\PSoC5/ADC_SAR_2_theACLK.c **** uint8 ADC_SAR_2_theACLK_GetSourceRegister(void) 
 465:Generated_Source\PSoC5/ADC_SAR_2_theACLK.c **** {
 861              		.loc 1 465 0
 862              		.cfi_startproc
 863              		@ args = 0, pretend = 0, frame = 0
 864              		@ frame_needed = 0, uses_anonymous_args = 0
 865              		@ link register save eliminated.
 466:Generated_Source\PSoC5/ADC_SAR_2_theACLK.c ****     return ADC_SAR_2_theACLK_MOD_SRC & ADC_SAR_2_theACLK_SRC_SEL_MSK;
 866              		.loc 1 466 0
 867 0000 024B     		ldr	r3, .L30
 868 0002 1878     		ldrb	r0, [r3]	@ zero_extendqisi2
 467:Generated_Source\PSoC5/ADC_SAR_2_theACLK.c **** }
 869              		.loc 1 467 0
 870 0004 00F00700 		and	r0, r0, #7
 871 0008 7047     		bx	lr
 872              	.L31:
 873 000a 00BF     		.align	2
 874              	.L30:
 875 000c 8A400040 		.word	1073758346
 876              		.cfi_endproc
 877              	.LFE10:
 878              		.size	ADC_SAR_2_theACLK_GetSourceRegister, .-ADC_SAR_2_theACLK_GetSourceRegister
 879              		.section	.text.ADC_SAR_2_theACLK_SetDividerRegister,"ax",%progbits
ARM GAS  C:\Users\Luggi\AppData\Local\Temp\cc74KHxU.s 			page 57


 880              		.align	2
 881              		.global	ADC_SAR_2_theACLK_SetDividerRegister
 882              		.thumb
 883              		.thumb_func
 884              		.type	ADC_SAR_2_theACLK_SetDividerRegister, %function
 885              	ADC_SAR_2_theACLK_SetDividerRegister:
 886              	.LFB4:
 195:Generated_Source\PSoC5/ADC_SAR_2_theACLK.c ****     uint8 enabled;
 887              		.loc 1 195 0
 888              		.cfi_startproc
 889              		@ args = 0, pretend = 0, frame = 0
 890              		@ frame_needed = 0, uses_anonymous_args = 0
 891              	.LVL7:
 892 0000 70B5     		push	{r4, r5, r6, lr}
 893              		.cfi_def_cfa_offset 16
 894              		.cfi_offset 4, -16
 895              		.cfi_offset 5, -12
 896              		.cfi_offset 6, -8
 897              		.cfi_offset 14, -4
 898 0002 0446     		mov	r4, r0
 899 0004 0D46     		mov	r5, r1
 198:Generated_Source\PSoC5/ADC_SAR_2_theACLK.c ****     uint16 oldDivider = ADC_SAR_2_theACLK_GetDividerRegister();
 900              		.loc 1 198 0
 901 0006 FFF7FEFF 		bl	ADC_SAR_2_theACLK_GetSourceRegister
 902              	.LVL8:
 903 000a 0646     		mov	r6, r0
 904              	.LVL9:
 199:Generated_Source\PSoC5/ADC_SAR_2_theACLK.c **** 
 905              		.loc 1 199 0
 906 000c FFF7FEFF 		bl	ADC_SAR_2_theACLK_GetDividerRegister
 907              	.LVL10:
 201:Generated_Source\PSoC5/ADC_SAR_2_theACLK.c ****     {
 908              		.loc 1 201 0
 909 0010 8442     		cmp	r4, r0
 910 0012 57D0     		beq	.L32
 203:Generated_Source\PSoC5/ADC_SAR_2_theACLK.c **** 
 911              		.loc 1 203 0
 912 0014 2C4B     		ldr	r3, .L45
 913 0016 1B78     		ldrb	r3, [r3]	@ zero_extendqisi2
 914 0018 03F00403 		and	r3, r3, #4
 915 001c DAB2     		uxtb	r2, r3
 916              	.LVL11:
 205:Generated_Source\PSoC5/ADC_SAR_2_theACLK.c ****         {
 917              		.loc 1 205 0
 918 001e 96B9     		cbnz	r6, .L34
 205:Generated_Source\PSoC5/ADC_SAR_2_theACLK.c ****         {
 919              		.loc 1 205 0 is_stmt 0 discriminator 1
 920 0020 00B1     		cbz	r0, .L35
 205:Generated_Source\PSoC5/ADC_SAR_2_theACLK.c ****         {
 921              		.loc 1 205 0 discriminator 2
 922 0022 84B9     		cbnz	r4, .L34
 923              	.L35:
 208:Generated_Source\PSoC5/ADC_SAR_2_theACLK.c ****             {
 924              		.loc 1 208 0 is_stmt 1
 925 0024 38B9     		cbnz	r0, .L36
 213:Generated_Source\PSoC5/ADC_SAR_2_theACLK.c ****                 ADC_SAR_2_theACLK_MOD_SRC &= (uint8)(~CYCLK_SSS);
 926              		.loc 1 213 0
ARM GAS  C:\Users\Luggi\AppData\Local\Temp\cc74KHxU.s 			page 58


 927 0026 294B     		ldr	r3, .L45+4
 928 0028 1C80     		strh	r4, [r3]	@ movhi
 214:Generated_Source\PSoC5/ADC_SAR_2_theACLK.c ****             }
 929              		.loc 1 214 0
 930 002a 294A     		ldr	r2, .L45+8
 931              	.LVL12:
 932 002c 1378     		ldrb	r3, [r2]	@ zero_extendqisi2
 933 002e 03F0BF03 		and	r3, r3, #191
 934 0032 1370     		strb	r3, [r2]
 935 0034 70BD     		pop	{r4, r5, r6, pc}
 936              	.LVL13:
 937              	.L36:
 220:Generated_Source\PSoC5/ADC_SAR_2_theACLK.c ****                 CY_SET_REG16(ADC_SAR_2_theACLK_DIV_PTR, clkDivider);
 938              		.loc 1 220 0
 939 0036 264A     		ldr	r2, .L45+8
 940              	.LVL14:
 941 0038 1378     		ldrb	r3, [r2]	@ zero_extendqisi2
 942              	.LVL15:
 943 003a 43F04003 		orr	r3, r3, #64
 944 003e 1370     		strb	r3, [r2]
 221:Generated_Source\PSoC5/ADC_SAR_2_theACLK.c ****             }
 945              		.loc 1 221 0
 946 0040 224B     		ldr	r3, .L45+4
 947 0042 1C80     		strh	r4, [r3]	@ movhi
 948 0044 70BD     		pop	{r4, r5, r6, pc}
 949              	.LVL16:
 950              	.L34:
 227:Generated_Source\PSoC5/ADC_SAR_2_theACLK.c ****             {
 951              		.loc 1 227 0
 952 0046 22B3     		cbz	r2, .L37
 229:Generated_Source\PSoC5/ADC_SAR_2_theACLK.c **** 
 953              		.loc 1 229 0
 954 0048 0023     		movs	r3, #0
 955 004a 2249     		ldr	r1, .L45+12
 956 004c 0B70     		strb	r3, [r1]
 236:Generated_Source\PSoC5/ADC_SAR_2_theACLK.c ****                 CLK_DIST_AMASK = 0x00u;
 957              		.loc 1 236 0
 958 004e 0426     		movs	r6, #4
 959              	.LVL17:
 960 0050 0F31     		adds	r1, r1, #15
 961 0052 0E70     		strb	r6, [r1]
 237:Generated_Source\PSoC5/ADC_SAR_2_theACLK.c **** #endif /* ADC_SAR_2_theACLK__CFG3 */
 962              		.loc 1 237 0
 963 0054 0431     		adds	r1, r1, #4
 964 0056 0B70     		strb	r3, [r1]
 240:Generated_Source\PSoC5/ADC_SAR_2_theACLK.c **** 
 965              		.loc 1 240 0
 966 0058 0C39     		subs	r1, r1, #12
 967 005a 0B78     		ldrb	r3, [r1]	@ zero_extendqisi2
 968 005c 03F07F03 		and	r3, r3, #127
 969 0060 0B70     		strb	r3, [r1]
 243:Generated_Source\PSoC5/ADC_SAR_2_theACLK.c ****                 {
 970              		.loc 1 243 0
 971 0062 1B4B     		ldr	r3, .L45+8
 972 0064 1B78     		ldrb	r3, [r3]	@ zero_extendqisi2
 973 0066 13F0080F 		tst	r3, #8
 974 006a 00D0     		beq	.L38
ARM GAS  C:\Users\Luggi\AppData\Local\Temp\cc74KHxU.s 			page 59


 243:Generated_Source\PSoC5/ADC_SAR_2_theACLK.c ****                 {
 975              		.loc 1 243 0 is_stmt 0 discriminator 1
 976 006c 8CB9     		cbnz	r4, .L37
 977              	.L38:
 246:Generated_Source\PSoC5/ADC_SAR_2_theACLK.c ****                     CLK_DIST_LD = CYCLK_LD_DISABLE|CYCLK_LD_SYNC_EN|CYCLK_LD_LOAD;
 978              		.loc 1 246 0 is_stmt 1
 979 006e 1A4B     		ldr	r3, .L45+16
 980 0070 1880     		strh	r0, [r3]	@ movhi
 247:Generated_Source\PSoC5/ADC_SAR_2_theACLK.c **** 
 981              		.loc 1 247 0
 982 0072 0721     		movs	r1, #7
 983 0074 013B     		subs	r3, r3, #1
 984 0076 1970     		strb	r1, [r3]
 985              	.L39:
 250:Generated_Source\PSoC5/ADC_SAR_2_theACLK.c **** #endif /* HAS_CLKDIST_LD_DISABLE */
 986              		.loc 1 250 0 discriminator 1
 987 0078 164B     		ldr	r3, .L45+12
 988 007a 1B78     		ldrb	r3, [r3]	@ zero_extendqisi2
 989 007c 13F0010F 		tst	r3, #1
 990 0080 FAD1     		bne	.L39
 253:Generated_Source\PSoC5/ADC_SAR_2_theACLK.c **** 
 991              		.loc 1 253 0
 992 0082 1149     		ldr	r1, .L45
 993 0084 0B78     		ldrb	r3, [r1]	@ zero_extendqisi2
 994 0086 03F0FB03 		and	r3, r3, #251
 995 008a 0B70     		strb	r3, [r1]
 257:Generated_Source\PSoC5/ADC_SAR_2_theACLK.c **** #endif /* HAS_CLKDIST_LD_DISABLE */
 996              		.loc 1 257 0
 997 008c 0021     		movs	r1, #0
 998 008e 114B     		ldr	r3, .L45+12
 999 0090 1970     		strb	r1, [r3]
 1000              	.L37:
 263:Generated_Source\PSoC5/ADC_SAR_2_theACLK.c ****             {
 1001              		.loc 1 263 0
 1002 0092 0D4B     		ldr	r3, .L45
 1003 0094 1B78     		ldrb	r3, [r3]	@ zero_extendqisi2
 1004 0096 13F0040F 		tst	r3, #4
 1005 009a 0DD0     		beq	.L40
 266:Generated_Source\PSoC5/ADC_SAR_2_theACLK.c **** 
 1006              		.loc 1 266 0
 1007 009c 0E4B     		ldr	r3, .L45+16
 1008 009e 1C80     		strh	r4, [r3]	@ movhi
 268:Generated_Source\PSoC5/ADC_SAR_2_theACLK.c ****                 while ((CLK_DIST_LD & CYCLK_LD_LOAD) != 0u) { }
 1009              		.loc 1 268 0
 1010 00a0 0DB1     		cbz	r5, .L43
 1011 00a2 0322     		movs	r2, #3
 1012              	.LVL18:
 1013 00a4 00E0     		b	.L41
 1014              	.LVL19:
 1015              	.L43:
 1016 00a6 0122     		movs	r2, #1
 1017              	.LVL20:
 1018              	.L41:
 268:Generated_Source\PSoC5/ADC_SAR_2_theACLK.c ****                 while ((CLK_DIST_LD & CYCLK_LD_LOAD) != 0u) { }
 1019              		.loc 1 268 0 is_stmt 0 discriminator 4
 1020 00a8 0A4B     		ldr	r3, .L45+12
 1021 00aa 1A70     		strb	r2, [r3]
ARM GAS  C:\Users\Luggi\AppData\Local\Temp\cc74KHxU.s 			page 60


 1022              	.L42:
 269:Generated_Source\PSoC5/ADC_SAR_2_theACLK.c ****             }
 1023              		.loc 1 269 0 is_stmt 1 discriminator 1
 1024 00ac 094B     		ldr	r3, .L45+12
 1025 00ae 1B78     		ldrb	r3, [r3]	@ zero_extendqisi2
 1026 00b0 13F0010F 		tst	r3, #1
 1027 00b4 FAD1     		bne	.L42
 1028 00b6 70BD     		pop	{r4, r5, r6, pc}
 1029              	.LVL21:
 1030              	.L40:
 274:Generated_Source\PSoC5/ADC_SAR_2_theACLK.c **** 				ADC_SAR_2_theACLK_CLKEN |= enabled;
 1031              		.loc 1 274 0
 1032 00b8 044B     		ldr	r3, .L45+4
 1033 00ba 1C80     		strh	r4, [r3]	@ movhi
 275:Generated_Source\PSoC5/ADC_SAR_2_theACLK.c ****             }
 1034              		.loc 1 275 0
 1035 00bc 0249     		ldr	r1, .L45
 1036 00be 0B78     		ldrb	r3, [r1]	@ zero_extendqisi2
 1037 00c0 1343     		orrs	r3, r3, r2
 1038 00c2 0B70     		strb	r3, [r1]
 1039              	.LVL22:
 1040              	.L32:
 1041 00c4 70BD     		pop	{r4, r5, r6, pc}
 1042              	.L46:
 1043 00c6 00BF     		.align	2
 1044              	.L45:
 1045 00c8 A2430040 		.word	1073759138
 1046 00cc 88400040 		.word	1073758344
 1047 00d0 8A400040 		.word	1073758346
 1048 00d4 01400040 		.word	1073758209
 1049 00d8 02400040 		.word	1073758210
 1050              		.cfi_endproc
 1051              	.LFE4:
 1052              		.size	ADC_SAR_2_theACLK_SetDividerRegister, .-ADC_SAR_2_theACLK_SetDividerRegister
 1053              		.section	.text.ADC_SAR_2_theACLK_SetSourceRegister,"ax",%progbits
 1054              		.align	2
 1055              		.global	ADC_SAR_2_theACLK_SetSourceRegister
 1056              		.thumb
 1057              		.thumb_func
 1058              		.type	ADC_SAR_2_theACLK_SetSourceRegister, %function
 1059              	ADC_SAR_2_theACLK_SetSourceRegister:
 1060              	.LFB9:
 420:Generated_Source\PSoC5/ADC_SAR_2_theACLK.c ****     uint16 currDiv = ADC_SAR_2_theACLK_GetDividerRegister();
 1061              		.loc 1 420 0
 1062              		.cfi_startproc
 1063              		@ args = 0, pretend = 0, frame = 0
 1064              		@ frame_needed = 0, uses_anonymous_args = 0
 1065              	.LVL23:
 1066 0000 38B5     		push	{r3, r4, r5, lr}
 1067              		.cfi_def_cfa_offset 16
 1068              		.cfi_offset 3, -16
 1069              		.cfi_offset 4, -12
 1070              		.cfi_offset 5, -8
 1071              		.cfi_offset 14, -4
 1072 0002 0446     		mov	r4, r0
 421:Generated_Source\PSoC5/ADC_SAR_2_theACLK.c ****     uint8 oldSrc = ADC_SAR_2_theACLK_GetSourceRegister();
 1073              		.loc 1 421 0
ARM GAS  C:\Users\Luggi\AppData\Local\Temp\cc74KHxU.s 			page 61


 1074 0004 FFF7FEFF 		bl	ADC_SAR_2_theACLK_GetDividerRegister
 1075              	.LVL24:
 1076 0008 0546     		mov	r5, r0
 1077              	.LVL25:
 422:Generated_Source\PSoC5/ADC_SAR_2_theACLK.c **** 
 1078              		.loc 1 422 0
 1079 000a FFF7FEFF 		bl	ADC_SAR_2_theACLK_GetSourceRegister
 1080              	.LVL26:
 424:Generated_Source\PSoC5/ADC_SAR_2_theACLK.c ****         (clkSource == ((uint8)CYCLK_SRC_SEL_CLK_SYNC_D))) && (currDiv == 0u))
 1081              		.loc 1 424 0
 1082 000e 0346     		mov	r3, r0
 1083 0010 60B1     		cbz	r0, .L48
 424:Generated_Source\PSoC5/ADC_SAR_2_theACLK.c ****         (clkSource == ((uint8)CYCLK_SRC_SEL_CLK_SYNC_D))) && (currDiv == 0u))
 1084              		.loc 1 424 0 is_stmt 0 discriminator 1
 1085 0012 5CB9     		cbnz	r4, .L48
 425:Generated_Source\PSoC5/ADC_SAR_2_theACLK.c ****     {
 1086              		.loc 1 425 0 is_stmt 1
 1087 0014 55B9     		cbnz	r5, .L48
 429:Generated_Source\PSoC5/ADC_SAR_2_theACLK.c ****         ADC_SAR_2_theACLK_MOD_SRC =
 1088              		.loc 1 429 0
 1089 0016 104A     		ldr	r2, .L52
 1090 0018 1378     		ldrb	r3, [r2]	@ zero_extendqisi2
 1091 001a 43F04003 		orr	r3, r3, #64
 1092 001e 1370     		strb	r3, [r2]
 431:Generated_Source\PSoC5/ADC_SAR_2_theACLK.c ****     }
 1093              		.loc 1 431 0
 1094 0020 1378     		ldrb	r3, [r2]	@ zero_extendqisi2
 430:Generated_Source\PSoC5/ADC_SAR_2_theACLK.c ****             (ADC_SAR_2_theACLK_MOD_SRC & (uint8)(~ADC_SAR_2_theACLK_SRC_SEL_MSK)) | clkSource;
 1095              		.loc 1 430 0
 1096 0022 03F0F803 		and	r3, r3, #248
 1097 0026 1C43     		orrs	r4, r4, r3
 1098 0028 1470     		strb	r4, [r2]
 1099 002a 38BD     		pop	{r3, r4, r5, pc}
 1100              	.LVL27:
 1101              	.L48:
 433:Generated_Source\PSoC5/ADC_SAR_2_theACLK.c ****             (clkSource != ((uint8)CYCLK_SRC_SEL_CLK_SYNC_D))) && (currDiv == 0u))
 1102              		.loc 1 433 0
 1103 002c 63B9     		cbnz	r3, .L50
 433:Generated_Source\PSoC5/ADC_SAR_2_theACLK.c ****             (clkSource != ((uint8)CYCLK_SRC_SEL_CLK_SYNC_D))) && (currDiv == 0u))
 1104              		.loc 1 433 0 is_stmt 0 discriminator 1
 1105 002e 5CB1     		cbz	r4, .L50
 434:Generated_Source\PSoC5/ADC_SAR_2_theACLK.c ****     {
 1106              		.loc 1 434 0 is_stmt 1
 1107 0030 55B9     		cbnz	r5, .L50
 439:Generated_Source\PSoC5/ADC_SAR_2_theACLK.c ****         ADC_SAR_2_theACLK_MOD_SRC &= (uint8)(~CYCLK_SSS);
 1108              		.loc 1 439 0
 1109 0032 094A     		ldr	r2, .L52
 1110 0034 1378     		ldrb	r3, [r2]	@ zero_extendqisi2
 438:Generated_Source\PSoC5/ADC_SAR_2_theACLK.c ****             (ADC_SAR_2_theACLK_MOD_SRC & (uint8)(~ADC_SAR_2_theACLK_SRC_SEL_MSK)) | clkSource;
 1111              		.loc 1 438 0
 1112 0036 03F0F803 		and	r3, r3, #248
 1113 003a 1C43     		orrs	r4, r4, r3
 1114 003c 1470     		strb	r4, [r2]
 440:Generated_Source\PSoC5/ADC_SAR_2_theACLK.c ****     }
 1115              		.loc 1 440 0
 1116 003e 1378     		ldrb	r3, [r2]	@ zero_extendqisi2
 1117 0040 03F0BF03 		and	r3, r3, #191
ARM GAS  C:\Users\Luggi\AppData\Local\Temp\cc74KHxU.s 			page 62


 1118 0044 1370     		strb	r3, [r2]
 1119 0046 38BD     		pop	{r3, r4, r5, pc}
 1120              	.LVL28:
 1121              	.L50:
 445:Generated_Source\PSoC5/ADC_SAR_2_theACLK.c ****     }
 1122              		.loc 1 445 0
 1123 0048 034A     		ldr	r2, .L52
 1124 004a 1378     		ldrb	r3, [r2]	@ zero_extendqisi2
 444:Generated_Source\PSoC5/ADC_SAR_2_theACLK.c ****             (ADC_SAR_2_theACLK_MOD_SRC & (uint8)(~ADC_SAR_2_theACLK_SRC_SEL_MSK)) | clkSource;
 1125              		.loc 1 444 0
 1126 004c 03F0F803 		and	r3, r3, #248
 1127 0050 1C43     		orrs	r4, r4, r3
 1128 0052 1470     		strb	r4, [r2]
 1129 0054 38BD     		pop	{r3, r4, r5, pc}
 1130              	.LVL29:
 1131              	.L53:
 1132 0056 00BF     		.align	2
 1133              	.L52:
 1134 0058 8A400040 		.word	1073758346
 1135              		.cfi_endproc
 1136              	.LFE9:
 1137              		.size	ADC_SAR_2_theACLK_SetSourceRegister, .-ADC_SAR_2_theACLK_SetSourceRegister
 1138              		.text
 1139              	.Letext0:
 1140              		.file 2 "Generated_Source\\PSoC5/cytypes.h"