ARM GAS  C:\Users\Luggi\AppData\Local\Temp\ccMT3Vh5.s 			page 1


   1              		.syntax unified
   2              		.cpu cortex-m3
   3              		.fpu softvfp
   4              		.eabi_attribute 20, 1
   5              		.eabi_attribute 21, 1
   6              		.eabi_attribute 23, 3
   7              		.eabi_attribute 24, 1
   8              		.eabi_attribute 25, 1
   9              		.eabi_attribute 26, 1
  10              		.eabi_attribute 30, 1
  11              		.eabi_attribute 34, 1
  12              		.eabi_attribute 18, 4
  13              		.thumb
  14              		.file	"ADC_DelSig_1_IRQ.c"
  15              		.text
  16              	.Ltext0:
  17              		.section	.gnu.lto_.profile.304b41d4,"",%progbits
  18 0000 789C6366 		.ascii	"x\234cf```e\200\000F\206\311\214:\000\002q\000\312"
  18      60606065 
  18      80004686 
  18      C98C3A00 
  18      027100CA 
  19              		.text
  20              		.section	.gnu.lto_.inline.304b41d4,"",%progbits
  21 0000 789C858E 		.ascii	"x\234\205\216\315\015\200 \014F?\240\340\177<zt\001"
  21      CD0D8020 
  21      0C463FA0 
  21      E07F3C7A 
  21      7401
  22 0012 CF1E1DC1 		.ascii	"\317\036\035\301\331\034\301Q\034\301\221l!!jM\344\320"
  22      D91CC151 
  22      1CC1916C 
  22      21216A4D 
  22      E4D0
  23 0024 368F07FD 		.ascii	"6\217\007\375\034\276\317lR\357\000g\015,\217a\037\245"
  23      1CBECF6C 
  23      52EF0067 
  23      0D2C8F61 
  23      1FA5
  24 0036 C1C01313 		.ascii	"\301\300\023\023\332\307\214\254FN\220a\231\337\237"
  24      DAC78CAC 
  24      464E9061 
  24      99DF9F
  25 0045 7DC23C90 		.ascii	"}\302<\220\334\221\326=\3101\312\252\354C\021\030\225"
  25      DC91D63D 
  25      C831CAAA 
  25      EC431118 
  25      95
  26 0056 C79251A1 		.ascii	"\307\222Q\241\255\022\325\364\312WK\242F\202\246\032"
  26      AD12D5F4 
  26      CA574BA2 
  26      4682A61A 
  27 0066 41F5EB6D 		.ascii	"A\365\353mk$5\302\360\024o\277\264:@\247\021.\001\316"
  27      6B2435C2 
  27      F0146FBF 
  27      B43A40A7 
  27      112E01CE 
ARM GAS  C:\Users\Luggi\AppData\Local\Temp\ccMT3Vh5.s 			page 2


  28 007a 15AA     		.ascii	"\025\252"
  29              		.text
  30              		.section	.gnu.lto_.jmpfuncs.304b41d4,"",%progbits
  31 0000 789C6366 		.ascii	"x\234cf\300\016&Bi^ f\004\202z&\006\006f\020\315\302"
  31      C00E2642 
  31      695E2066 
  31      04827A26 
  31      06066610 
  32 0016 C0C0CAC0 		.ascii	"\300\300\312\300\300\306\300\300\316\300\300\001\222"
  32      C0C6C0C0 
  32      CEC0C001 
  32      92
  33 0023 64FAC8C4 		.ascii	"d\372\310\304\370}\361\203\327\214/\230~2\001E\031\227"
  33      F87DF183 
  33      D78C2F98 
  33      7E320145 
  33      1997
  34 0035 334A4144 		.ascii	"3JAD\347]\356[\307T\373\273\241\243\201\343'\023\343"
  34      E75DEE5B 
  34      C754FBBB 
  34      A1A381E3 
  34      2713E3
  35 0048 672690EA 		.ascii	"g&\220\352\025\214\265\014\014\234 \023\201j J\231\313"
  35      158CB50C 
  35      0C9C2013 
  35      816A204A 
  35      99CB
  36 005a 1980525C 		.ascii	"\031\200R\\\014\33051\002\305W\2024\361@\034\003\000"
  36      0CD83531 
  36      02C55782 
  36      34F1401C 
  36      0300
  37 006c 01121DD7 		.ascii	"\001\022\035\327"
  38              		.text
  39              		.section	.gnu.lto_.pureconst.304b41d4,"",%progbits
  40 0000 789C6366 		.ascii	"x\234cf``\220f\200\000^\006\006F)&Vf)\026)V)6)v)\016"
  40      60609066 
  40      80005E06 
  40      06462926 
  40      56662916 
  41 001c 094E092E 		.ascii	"\011N\011.\011\036)^)\000\025G\001\231"
  41      091E295E 
  41      29001547 
  41      0199
  42              		.text
  43              		.section	.gnu.lto_ADC_DelSig_1_IRQ_Interrupt.304b41d4,"",%progbits
  44 0000 789C6366 		.ascii	"x\234cf\300\004R@\\\002\304:@\314\310\314\300\3104\341"
  44      C0045240 
  44      5C02C43A 
  44      40CCC8CC 
  44      C0C834E1 
  45 0014 1C034323 		.ascii	"\034\003C#\007\023##\210\301\300\310P\317\304X\317\370"
  45      07132323 
  45      88C1C0C8 
  45      50CFC458 
  45      CFF8
  46 0026 92E92313 		.ascii	"\222\351#\023\343\204\003\253gp\253/mhh\370\320t\223"
ARM GAS  C:\Users\Luggi\AppData\Local\Temp\ccMT3Vh5.s 			page 3


  46      E38403AB 
  46      6770AB2F 
  46      6D6868F8 
  46      D07493
  47 0039 A555E227 		.ascii	"\245U\342'\023\003\303g&\2101\214\313\031\325\031\200"
  47      1303C367 
  47      2688318C 
  47      CB19D519 
  47      80
  48 004a 6A3EB6FC 		.ascii	"j>\266\374\275\316\315\326\002T#\000\221c\\\301\310"
  48      BDCECDD6 
  48      02542300 
  48      91635CC1 
  48      C8
  49 005b C608A4D7 		.ascii	"\306\010\244\327\013\035h\370\377\377\362\223C[\270"
  49      0B1D68F8 
  49      FFFFF293 
  49      435BB8
  50 006a 81C24F80 		.ascii	"\201\302O\200\030d\376S&&\020\315|\217\221\021\244\020"
  50      1864FE53 
  50      262610CD 
  50      7C8F9111 
  50      A410
  51 007c 64D21326 		.ascii	"d\322\023&F\220\020P\201\226{j^jQbIjJ|p~iQrjL@p\276"
  51      46901050 
  51      81967B6A 
  51      5E6A5162 
  51      496A4A7C 
  52 009a B3698CA3 		.ascii	"\263i\214\243\213s\274KjNpfz\274a\274gP\240^2\003\000"
  52      8B73BC4B 
  52      6A4E7066 
  52      7ABC61BC 
  52      6750A05E 
  53 00b1 273D37C2 		.ascii	"'=7\302"
  54              		.text
  55              		.section	.gnu.lto_ADC_DelSig_1_IRQ_SetVector.304b41d4,"",%progbits
  56 0000 789C6550 		.ascii	"x\234ePMH\224Q\024\275\347\275\317I\230A\243\225\314"
  56      4D489451 
  56      14BDE7BD 
  56      CF499841 
  56      A395CC
  57 0013 A64064C0 		.ascii	"\246@d\300H\210p_\214\020m\244\232\210\002a\230f>\""
  57      4888705F 
  57      8C106DA4 
  57      9A880261 
  57      98663E22 
  58 0027 B0063E6D 		.ascii	"\260\006>m\355\233iD\255\205R\020\222\270\220\210\312"
  58      ED9B6944 
  58      AD855210 
  58      92B89088 
  58      CA
  59 0038 297FA622 		.ascii	")\177\246\"l\323\327\317\302\350G\202,ra\212\243L\012"
  59      6CD3D7CF 
  59      C2E84782 
  59      2C72618A 
  59      A34C0A
  60 004b 957CA1CC 		.ascii	"\225|\241\314\"\246{\277q\023=x\274w\017\367\234{\356"
ARM GAS  C:\Users\Luggi\AppData\Local\Temp\ccMT3Vh5.s 			page 4


  60      22A67BBF 
  60      71133D78 
  60      BC770FF7 
  60      9C7BEE
  61 005e D1F4FF09 		.ascii	"\321\364\377\011\363}\003\242(\277\320\0045\364\201"
  61      F37D03A2 
  61      28BFD004 
  61      35F481
  62 006d 2853AB00 		.ascii	"(S\253\000\371\020\250G\241\007\337\325\246\302\220"
  62      F910A847 
  62      A107DFD5 
  62      A6C290
  63 007c 9B1F0E46 		.ascii	"\233\037\016F\356\030c~e\275\206\336\206\262\"\362T"
  63      EE18637E 
  63      65BD86DE 
  63      86B222F2 
  63      54
  64 008d 55067711 		.ascii	"U\006w\021\221\226\215\257\203!}\000\304\377\231\211"
  64      91968DAF 
  64      83217D00 
  64      C4FF9989 
  65 009d DFEF8325 		.ascii	"\337\357\203%UV\330'\345\263\353\263\303\001)\225%\345"
  65      5556D827 
  65      E5B3EBB3 
  65      C3012995 
  65      25E5
  66 00af FAC0FC4B 		.ascii	"\372\300\374K\335t\333\230\254\273X0\207\255\262\322"
  66      DD74DB98 
  66      ACBB5830 
  66      87ADB2D2 
  67 00bf B807CD7A 		.ascii	"\270\007\315z\270\2170\306\021&\206\010y4I\373\223\345"
  67      B88F30C6 
  67      11268608 
  67      793449FB 
  67      93E5
  68 00d1 52DED2AD 		.ascii	"R\336\322\255\276\360\317\374\330\274\3258\306\324\245"
  68      BEF0CFFC 
  68      D8BCD538 
  68      C6D4A5
  69 00e0 5B7D6F43 		.ascii	"[}oCf\326\344\226*\225\275ee\341\301\277\012\325\303"
  69      66D6E496 
  69      2A95BD65 
  69      65E1C1BF 
  69      0AD5C3
  70 00f3 94CDDC9F 		.ascii	"\224\315\334\237/\301@\216\255\357\306C4Vmc\002\001"
  70      2FC1408E 
  70      ADEFC643 
  70      34566D63 
  70      0201
  71 0105 DE1C824C 		.ascii	"\336\034\202L\356qM\245\342\275\273Q\212\350\032V`H"
  71      EE714DA5 
  71      E2BDBB51 
  71      8AE81A56 
  71      6048
  72 0117 C31F4E45 		.ascii	"\303\037NE\356\225,V\225\222W/ \273uum\346\214\320\267"
  72      EE952C56 
  72      9592572F 
ARM GAS  C:\Users\Luggi\AppData\Local\Temp\ccMT3Vh5.s 			page 5


  72      20BB7575 
  72      6DE68CD0 
  73 012c 95045378 		.ascii	"\225\004Sx}\255O\311j5\375\013WL\235\014\374V\234\373"
  73      7DAD4FC9 
  73      6A35FD0B 
  73      574C9D0C 
  73      FC569CFB 
  74 0140 58EB43FE 		.ascii	"X\353C\376\374O+\003?B\243\030\311\030\343\266\210\321"
  74      FC4F2B03 
  74      3F42A318 
  74      C918E3B6 
  74      88D1
  75 0152 49763825 		.ascii	"Iv8%\0161\215Q\320gd\315Y\337\017\017fQ\342!7\247\347"
  75      0E318D51 
  75      D06764CD 
  75      59DF0F0F 
  75      6651E221 
  76 0169 5E1D128C 		.ascii	"^\035\022\214\371O\275\027\343\365\"g=\366#\310\215"
  76      F94FBD17 
  76      E3F52267 
  76      3DF623C8 
  76      8D
  77 017a 6C78F53B 		.ascii	"lx\365;z\3739'\246\240\340\313=b\271m\016n\021\031\367"
  77      7AFB3927 
  77      A6A0E0CB 
  77      3D62B96D 
  77      0E6E1119 
  78 018f 79BBD025 		.ascii	"y\273\320%\202\242\202x\347M\232\217\332\227l'\321m"
  78      82A28278 
  78      E74D9A8F 
  78      DA976C27 
  78      D16D
  79 01a1 A7E2B1F4 		.ascii	"\247\342\261\364e'iw\034\217\245\243\255\035G\332\242"
  79      65276977 
  79      1C8FA5A3 
  79      AD1D47DA 
  79      A2
  80 01b2 F136BB33 		.ascii	"\3616\2733v\341|\374`\374\330\311\023-I\332\225H\245"
  80      76E17CFC 
  80      60FCD8C9 
  80      132D49DA 
  80      9548A5
  81 01c5 1CBBABAB 		.ascii	"\034\273\253\253\316I\\<m'\273\323\316\251\304\271N"
  81      CE495C3C 
  81      6D27BBD3 
  81      CEA9C4B9 
  81      4E
  82 01d6 FB2F33AD 		.ascii	"\373/3\255\272\232"
  82      BA9A
  83              		.text
  84              		.section	.gnu.lto_ADC_DelSig_1_IRQ_GetVector.304b41d4,"",%progbits
  85 0000 789C6550 		.ascii	"x\234ePO(\344Q\034\377~\336\3735\215?!G\027\312AmQ\222"
  85      4F28E451 
  85      1CFF7EDE 
  85      FB358D3F 
  85      214717CA 
  86 0018 D39E364A 		.ascii	"\323\2366Jn\030\211R\323\030\277\266-LM\324\336<\263"
ARM GAS  C:\Users\Luggi\AppData\Local\Temp\ccMT3Vh5.s 			page 6


  86      6E188952 
  86      D318BFB6 
  86      2D4C4DD4 
  86      DE3CB3
  87 002b 531617E1 		.ascii	"S\026\027\341@\323\024\007\3713\026\273\221l\016\266"
  87      40D31407 
  87      F93316BB 
  87      916C0EB6 
  88 003b 1C44BB52 		.ascii	"\034D\273R\230r\300\266c\233MY\232\3156\007\215\357"
  88      9872C0B6 
  88      639B4D59 
  88      9ACD3607 
  88      8DEF
  89 004d F7C7455E 		.ascii	"\367\307E^\275\336\367\373}\357\363\357iz\271\212xO"
  89      BDDEF7FB 
  89      7DEFF3EF 
  89      697AB98A 
  89      784F
  90 005f 80E8359F 		.ascii	"\200\3505\237\320\0045\372\203h\300\255\000)\010\324"
  90      D00435FA 
  90      8368C0AD 
  90      002908D4 
  91 006f AFD08F3F 		.ascii	"\257\320\217?\352Vas\371\337\367\234\244J+*!n\277\216"
  91      EA566173 
  91      F9DFF79C 
  91      A44A2B2A 
  91      216EBF8E 
  92 0083 ED4EBAA4 		.ascii	"\355N\272\244\205%m\374d2\236U6kL\350&\224~?51\3157"
  92      85256DFC 
  92      64329E55 
  92      366B4CE8 
  92      26947E3F 
  93 009b 8A528A30 		.ascii	"\212R\2120\207\"\314C\204\260\2002y\273\3763\031\263"
  93      8722CC43 
  93      84B08032 
  93      79BBFE33 
  93      19B3
  94 00ad 7439A4FE 		.ascii	"t9\244\376\033\2339\266Jg\030w\2617\270\237kvM\370\""
  94      1B9B39B6 
  94      4A671877 
  94      B137B89F 
  94      6B764DF8 
  95 00c2 93294E2B 		.ascii	"\223)N+\215E\350\347xY\014\271\015\337\307s\\acL\001"
  95      8D45E8E7 
  95      78590CB9 
  95      0DDFC773 
  95      5C61634C 
  96 00d7 62281511 		.ascii	"b(\025\021\346^\202\213s@&+\205\333&\223I%\306\223U"
  96      E65E828B 
  96      7340262B 
  96      85DB2693 
  96      4925C693 
  97 00ec DA62061E 		.ascii	"\332b\006\036i\022;\224\340-\301.\271\341S\237\"t7\374"
  97      69123B94 
  97      E02DC12E 
  97      B9E1539F 
  97      227437FC 
ARM GAS  C:\Users\Luggi\AppData\Local\Temp\ccMT3Vh5.s 			page 7


  98 0100 7BAB55D0 		.ascii	"{\253U\320\377\225\244\374\26232\250$\226\365\361\364"
  98      FF95A4FC 
  98      B23332A8 
  98      2496F5F1 
  98      F4
  99 0111 83C913BD 		.ascii	"\203\311\023\275\363\304\301\241\333\0319\362G\277\206"
  99      F3C4C1A1 
  99      DB1939F2 
  99      47BF86
 100 0120 AE73A388 		.ascii	"\256s\243\210\014\030\263]!>?\261\301e1\210\025DA'\010"
 100      0C18B35D 
 100      213E3FB1 
 100      C1653188 
 100      15444127 
 101 0135 9936C70E 		.ascii	"\2316\307\016\3532)9\"w[\331\217\"\232)6R\337\026\363"
 101      EB322939 
 101      22775BD9 
 101      8F229A29 
 101      3652DF16 
 102 014a 8551AF39 		.ascii	"\205Q\2579\237\020\216\\\245\362\037)\335\354\223AX"
 102      9F108E5C 
 102      A5F21F29 
 102      DDEC9341 
 102      58
 103 015b 75083F0B 		.ascii	"u\010?\013\341\031\360\004%I\000q\3169^\325\331=v\320"
 103      E119F004 
 103      25490071 
 103      CE395ED5 
 103      D93D76D0 
 104 016f D76B777A 		.ascii	"\327kwz=\201\276\240\337no\360\004j\252\333\337\324"
 104      3D81BEA0 
 104      DF6E6FF0 
 104      046AAADB 
 104      DFD4
 105 0181 D6786BED 		.ascii	"\326xk\355.\317\273\267\336Jo}Sc\205\237\362\202\276"
 105      2ECFBBB7 
 105      DE4A6F7D 
 105      5363859F 
 105      F282BE
 106 0194 EE16DBDF 		.ascii	"\356\026\333\337\033\0106\373:\272\354\007_,\245\370"
 106      1B0836FB 
 106      3ABAEC07 
 106      5F2CA5F8 
 107              		.text
 108              		.section	.gnu.lto_ADC_DelSig_1_IRQ_SetPriority.304b41d4,"",%progbits
 109 0000 789C6590 		.ascii	"x\234e\220?HBQ\024\306\317w\237\212`D4\325[C\244\250"
 109      3F484251 
 109      14C6CF77 
 109      9F8A6044 
 109      34D55B43 
 110 0016 20C2BD50 		.ascii	" \302\275P\210\266\312Ux\204=B\210\014\261\241\311\367"
 110      88B6CA55 
 110      78843D42 
 110      880CB1A1 
 110      C9F7
 111 0028 D25ACB70 		.ascii	"\322Z\313p\010\304\245\350\257f[\320\324#\010\244\241"
 111      08C4A5E8 
ARM GAS  C:\Users\Luggi\AppData\Local\Temp\ccMT3Vh5.s 			page 8


 111      AF665BD0 
 111      D42308A4 
 111      A1
 112 0039 681225AC 		.ascii	"h\022%\254\300\244\226J\034\302!\352\\\035\273p8\367"
 112      C0A4964A 
 112      1CC221EA 
 112      5C1DBB70 
 112      38F7
 113 004b 9EF39DDF 		.ascii	"\236\363\235\337\375\356U\350\377R9\306A\344\345\014"
 113      FDEE55E8 
 113      FF5239C6 
 113      41E4E50C 
 114 005b 8520B6EF 		.ascii	"\205 \266\357\210L\247\000\344\206@q\2018\336EC`\333"
 114      884CA700 
 114      E4864071 
 114      8138DE45 
 114      4360DB
 115 006e CAEDBA3C 		.ascii	"\312\355\272<\007\206a|\355\245\3727\372Z\202\250):"
 115      0786617C 
 115      EDA5FA37 
 115      FA5A82A8 
 115      293A
 116 0080 181CC1C3 		.ascii	"\030\034\301\303\222\303\253\227K\2732\002\342}\311"
 116      92C3AB97 
 116      4BBB3202 
 116      E27DC9
 117 008f CC3D77B9 		.ascii	"\314=w\271\367\015c\335*\027\214\011\264\230y\014\205"
 117      F70D63DD 
 117      2A178C09 
 117      B498790C 
 117      85
 118 00a0 2730AC62 		.ascii	"'0\254bP%.\020N\340\226\342F\362\247\344r$\231\335\323"
 118      50252E10 
 118      4EE096E2 
 118      46F2A7E4 
 118      722499DD 
 119 00b5 61E2140E 		.ascii	"a\342\024\016\266E\347\275\226\361\373\333\274I\037"
 119      B645E7BD 
 119      96F1FBDB 
 119      BC491F
 120 00c4 0FD8EC80 		.ascii	"\017\330\354\200\324\013\236dI\215Cz|\345\003g\245\202"
 120      D40B9E64 
 120      498D437A 
 120      7CE50367 
 120      A582
 121 00d6 C4E366BD 		.ascii	"\304\343f\275\230\206\034\375\026\342\233\251\002[\311"
 121      98861CFD 
 121      16E29BA9 
 121      025BC9
 122 00e5 8BAAE34D 		.ascii	"\213\252\343M\264\204b'\344\240R\005\327;m\0117?\352"
 122      B4846227 
 122      E4A05205 
 122      D73B6D09 
 122      373FEA
 123 00f8 B729976C 		.ascii	"\267)\227l\332\262\305\204\321-\215<\325\356\037\234"
 123      DAB2C584 
 123      D12D8D3C 
ARM GAS  C:\Users\Luggi\AppData\Local\Temp\ccMT3Vh5.s 			page 9


 123      D5EE1F9C 
 124 0108 ED12B58F 		.ascii	"\355\022\265\217\345\374\247+\213\214\2314-;C\220\207"
 124      E5FCA72B 
 124      8B8C9934 
 124      2D3B4390 
 124      87
 125 0119 8A33C610 		.ascii	"\2123\306\020\012\310\202\257\241*L+3'\211\362#j\374"
 125      0AC882AF 
 125      A12A4C2B 
 125      332789F2 
 125      236AFC
 126 012c 2876C3DE 		.ascii	"(v\303\336\206\246\364e=:\037\323\027\264@d5\032\322"
 126      86A6F465 
 126      3D3A1FD3 
 126      17B44064 
 126      351AD2
 127 013f 83338188 		.ascii	"\2033\201\210\317\033\234\364\3734\277\276\024\010/"
 127      CF1B9CF4 
 127      FB34BFBE 
 127      14082F
 128 014e 6A63DAF4 		.ascii	"jc\332\364\334\354h\210\234+\321p$\032\216\255\375\001"
 128      DCEC6888 
 128      9C2BD170 
 128      241A8EAD 
 128      FD01
 129 0160 F27D7DA1 		.ascii	"\362}}\241"
 130              		.text
 131              		.section	.gnu.lto_ADC_DelSig_1_IRQ_GetPriority.304b41d4,"",%progbits
 132 0000 789C658F 		.ascii	"x\234e\217\317+\303q\030\307\237\367\363\035\255\276"
 132      CF2BC371 
 132      18C79FF7 
 132      F31DADBE 
 133 0010 484EDAC5 		.ascii	"HN\332\305a\207E(\312\037 JnX9\255\226\346\233V2\255"
 133      61874528 
 133      CA1F204A 
 133      6E5839AD 
 133      96E69B56 
 134 0026 3938F98C 		.ascii	"98\371\214\221\234(E\255\035\034\374\036\316\346`9H"
 134      919C2845 
 134      AD1D1CFC 
 134      1ECEE660 
 134      3948
 135 0038 885811B1 		.ascii	"\210X\021\261M!\244!\242\035\370\372|\306Ay\352\323"
 135      4D21A421 
 135      A21DF8FA 
 135      7CC64179 
 135      EAD3
 136 004a F3F4F47E 		.ascii	"\363\364\364~\277\237\327G\243\377e\223\257\035Du\262"
 136      BF9FD747 
 136      A3FF6593 
 136      AF1D4475 
 136      B2
 137 005b 4323F0F8 		.ascii	"C#\360\370\001Q\320\312\200\032\0104\300\030\300=\277"
 137      0151D0CA 
 137      801A0834 
 137      C018C03D 
 137      BF
ARM GAS  C:\Users\Luggi\AppData\Local\Temp\ccMT3Vh5.s 			page 10


 138 006c 30F6D7BF 		.ascii	"0\366\327\277\022p\314\0121\370<8u\251\017\227f\231"
 138      1270CC0A 
 138      31F83C38 
 138      75A90F97 
 138      6699
 139 007e E8950995 		.ascii	"\350\225\011\2256\224\253\034\314\303AR8\267y\265\236"
 139      3694AB1C 
 139      CCC34152 
 139      38B779B5 
 139      9E
 140 008f A75541CD 		.ascii	"\247UA\315k\361\215\207B\373\2144\245c\367\333\272\230"
 140      6BF18D87 
 140      42FB8C34 
 140      A563F7DB 
 140      BA98
 141 00a1 16A1B469 		.ascii	"\026\241\264i\226I+\026\240\375u\253\222\206\227\320"
 141      96492B16 
 141      A0FD75AB 
 141      928697D0 
 142 00b1 E7A99E1F 		.ascii	"\347\251\236\037\022B\024c\021vu@&/!_BBm\326J\342\302"
 142      12421463 
 142      11767540 
 142      262F215F 
 142      42426DD6 
 143 00c8 345F2F26 		.ascii	"4_/&Gk-\026\246,+l\245\244k)U\3247\314\252k\347\330"
 143      476B2D16 
 143      A62C2B6C 
 143      A5A46B29 
 143      55D437CC 
 144 00e0 7A1FCBEC 		.ascii	"z\037\313\354\265(\367\007\253/dnw'\364;\3162Gv\206"
 144      B528F707 
 144      AB2F646E 
 144      7727F43B 
 144      CE324776 
 145 00f5 4491BA97 		.ascii	"D\221\272\227\272><\262\346V\271\363\251\263\350\223"
 145      BA3E3CB2 
 145      E656B9F3 
 145      A9B3E893 
 146 0105 1E413818 		.ascii	"\036A8\030B\2265,\303\206($\036V\020\001\235c(9\362"
 146      4296352C 
 146      C3862824 
 146      1E561001 
 146      9D632839 
 147 011a 869F40ED 		.ascii	"\206\237@\355'\3631\021\216\025\250\000K\036aUjO\300"
 147      27F33111 
 147      8E15A800 
 147      4B1E6155 
 147      6A4FC0
 148 012d 395EC924 		.ascii	"9^\311$E\224D0n\036\363\257\207\024&\024\236\274W\321"
 148      45944430 
 148      6E1EF3AF 
 148      87142614 
 148      9EBC57D1 
 149 0141 64F418FE 		.ascii	"d\364\030\376\216\200\321\351v\372\372\374\036\303\325"
 149      8E80D1E9 
 149      76FAFAFC 
 149      1EC3D5
ARM GAS  C:\Users\Luggi\AppData\Local\Temp\ccMT3Vh5.s 			page 11


 150 0150 E2F435D4 		.ascii	"\342\3645\324\271\352\033\033\334\215F\267\323\333\345"
 150      B9EA1B1B 
 150      DC8D46B7 
 150      D3DBE5
 151 015f AE7137B7 		.ascii	"\256q7\267\265V{\310\332\353\367\372\374\336@\3777X"
 151      B5567BC8 
 151      DAEBF7FA 
 151      FCDE40FF 
 151      3758
 152 0171 498B33   		.ascii	"I\2133"
 153              		.text
 154              		.section	.gnu.lto_ADC_DelSig_1_IRQ_Enable.304b41d4,"",%progbits
 155 0000 789C6366 		.ascii	"x\234cf\300\004R@\374\000\210u\200\230\221\231\201\221"
 155      C0045240 
 155      FC008875 
 155      80989199 
 155      8191
 156 0012 69C23906 		.ascii	"i\3029\006\206F\016&FF\020\203\201\221\241\236\211\261"
 156      86460E26 
 156      46461083 
 156      8191A19E 
 156      89B1
 157 0024 9EF125D3 		.ascii	"\236\361%\323G&\306\011\007V\317\340V_\332\320\320\360"
 157      4726C609 
 157      0756CFE0 
 157      565FDAD0 
 157      D0F0
 158 0036 61D35CC9 		.ascii	"a\323\\\311V\211\237L\014\014\237\231 \3060.gTg\000"
 158      56899F4C 
 158      0C0C9F99 
 158      20C6302E 
 158      67546700 
 159 004a AAF9D8F2 		.ascii	"\252\371\330\362\367:7[\013P\215\000D\216q\005#\033"
 159      F73A375B 
 159      0B508D00 
 159      448E7105 
 159      231B
 160 005c 23905E2F 		.ascii	"#\220^/t\240\341\377\377\315\337\246\274\260faf`x\002"
 160      74A0E1FF 
 160      FFCDDFA6 
 160      BCB06661 
 160      66607802 
 161 0070 940359F0 		.ascii	"\224\003Y\360\224\211\011D3\337b<\364a\303\367-\234"
 161      94890944 
 161      33DF623C 
 161      F461C3F7 
 161      2D9C
 162 0082 20E54063 		.ascii	" \345@c>\275n\230\313\362\202\351'\023c\303\241\346"
 162      3EBD6E98 
 162      CBF282E9 
 162      271363C3 
 162      A1E6
 163 0094 063E90C9 		.ascii	"\006>\220\311\367\237\234\277\310\001\026b\000q\277"
 163      F79F9CBF 
 163      C8011662 
 163      0071BF
 164 00a3 7C5A3489 		.ascii	"|Z4\211w.\343\354\306\226\306\003\254?\231\230\030W"
ARM GAS  C:\Users\Luggi\AppData\Local\Temp\ccMT3Vh5.s 			page 12


 164      772EE3EC 
 164      C696C603 
 164      AC3F9998 
 164      1857
 165 00b5 324A31AE 		.ascii	"2J1\256b\004z\207q5\343\\F\240\212\371\033\347\267\360"
 165      62047A87 
 165      7135E35C 
 165      46A08AF9 
 165      1BE7B7F0 
 166 00c9 81343001 		.ascii	"\20140\001]\323\300\304\300\270\006({\217\261\361\300"
 166      5DD3C0C4 
 166      C0B80628 
 166      7B8FB1F1 
 166      C0
 167 00da FD60902D 		.ascii	"\375`\220- W?\001\032\006\264\035\350\026-\367\324\274"
 167      20573F01 
 167      1A06B41D 
 167      E8162DF7 
 167      D4BC
 168 00ec D4A2C492 		.ascii	"\324\242\304\222\324\224\370\340\374\322\242\344\324"
 168      D494F8E0 
 168      FCD2A2E4 
 168      D4
 169 00f9 9880E07C 		.ascii	"\230\200\340|g\323\030G\027\347x\227\324\234\340\314"
 169      67D31847 
 169      17E77897 
 169      D49CE0CC 
 170 0109 F478C378 		.ascii	"\364x\303x\317\240@\275d\006\000\233`b\177"
 170      CFA040BD 
 170      6406009B 
 170      60627F
 171              		.text
 172              		.section	.gnu.lto_ADC_DelSig_1_IRQ_GetState.304b41d4,"",%progbits
 173 0000 789C6550 		.ascii	"x\234ePM(\204Q\024\275\347\276o\206\374g!}\013\333\211"
 173      4D288451 
 173      14BDE7BE 
 173      6F86FC67 
 173      217D0BDB 
 174 0015 6492EC6C 		.ascii	"d\222\354lD\311\016\263U\223\306\227\224(\261\2367f"
 174      44C90EB3 
 174      5593C697 
 174      9428B19E 
 174      3766
 175 0027 48B290B2 		.ascii	"H\262\220\262\241\331(\377\177\013+\261\220\265H\376"
 175      A1D928FF 
 175      7F0B2BB1 
 175      90B548FE 
 176 0037 A2B01922 		.ascii	"\242\260\031\"\0333#\214b\3347c#\257\336\273\357\335"
 176      1B33238C 
 176      62DC3763 
 176      23AFDEBB 
 176      EFDD
 177 0049 7BCEB9E7 		.ascii	"{\316\271\347]E\377W\235\354\036\020UK\204\213\300S"
 177      5D45FF57 
 177      9DEC1E10 
 177      554B848B 
 177      C053
ARM GAS  C:\Users\Luggi\AppData\Local\Temp\ccMT3Vh5.s 			page 13


 178 005b 4744A15C 		.ascii	"GD\241\\fk\257\202t\236:\363\222.P\260\262i\0130\027"
 178      666BAF82 
 178      749E3AF3 
 178      922E50B0 
 178      B2690B30 
 179 0070 02055959 		.ascii	"\002\005YY\010\342\211\343\214\303\235\357Sx\026\264"
 179      08E289E3 
 179      8CC39DEF 
 179      537816B4 
 180 0080 1E7919D9 		.ascii	"\036y\031\331\276\311\037-O1Q\222\011\3256*m\003_\202"
 180      BEC91F2D 
 180      4F315192 
 180      09D5362A 
 180      6D035F82 
 181 0094 8704188F 		.ascii	"\207\004\030\217|]\346\273#Z\353\022S\227\3022\334\322"
 181      7C5DE6BB 
 181      235AEB12 
 181      5397C232 
 181      DCD2
 182 00a6 9CB64AF7 		.ascii	"\234\266J\367u:\235<\234\031\367\270\\ \341+9`\231\203"
 182      753A9D3C 
 182      9C19F7B8 
 182      5C20E12B 
 182      39609983 
 183 00ba 282650D3 		.ascii	"(&P\323\366\236\331Du\215\203\267\211\333\253\006\303"
 183      F69ED944 
 183      758D83B7 
 183      89DBAB06 
 183      C3
 184 00cb 7E6725C2 		.ascii	"~g%\302\211g\035\265\0369\305\254\017\302\272\310\364"
 184      89671DB5 
 184      1E39C5AC 
 184      0FC2BAC8 
 184      F4
 185 00dc BA8B1D9F 		.ascii	"\272\213\035\237\344fRd\236\257\211\371\351\302(\346"
 185      E4665264 
 185      9EAF89F9 
 185      E9C228E6 
 186 00ec 4211A458 		.ascii	"B\021\244Xa\0056V!\336\260\206(\350\032\341\217\261"
 186      61053656 
 186      21DEB086 
 186      28E81AE1 
 186      8FB1
 187 00fe 982B2B68 		.ascii	"\230++he5O??.2\002\020\277Z~\263.\370sD\256\302e\277"
 187      65354F3F 
 187      3F2E3202 
 187      10BF5A7E 
 187      B32EF873 
 188 0117 38018516 		.ascii	"8\001\205\026w's2 \221\3320\202d\374*:\363\252{\266"
 188      77277332 
 188      2091DA30 
 188      8264FC2A 
 188      3AF3AA7B 
 189 012c 32766F81 		.ascii	"2vo\201,A0\017\200\260Nf\027\303\305\206%\203\304&l"
 189      2C41300F 
 189      80B04E66 
 189      17C3C586 
ARM GAS  C:\Users\Luggi\AppData\Local\Temp\ccMT3Vh5.s 			page 14


 189      2583C426 
 190 0141 FE63D8CC 		.ascii	"\376c\330\314e\013\2662B0\012\222\251jq\372\235\301"
 190      650BB632 
 190      42300A92 
 190      A96A71FA 
 190      9DC1
 191 0153 AE21A7DB 		.ascii	"\256!\247\333\357\033\030\036\0148\235m\276\201\246"
 191      EF1B181E 
 191      0C389D6D 
 191      BE81A6
 192 0162 FACEC6E6 		.ascii	"\372\316\306\346&\177\263\323\347\353\355\361\327\372"
 192      267FB3D3 
 192      E7EBEDF1 
 192      D7FA
 193 0170 5B3BDA6B 		.ascii	"[;\332k\002\364\003\231*\216\263"
 193      02F40399 
 193      2A8EB3
 194              		.text
 195              		.section	.gnu.lto_ADC_DelSig_1_IRQ_Disable.304b41d4,"",%progbits
 196 0000 789C6366 		.ascii	"x\234cf\300\004R@\374\000\210u\200\230\221\231\201\221"
 196      C0045240 
 196      FC008875 
 196      80989199 
 196      8191
 197 0012 69C23906 		.ascii	"i\3029\006\206F\016&FF\020\203\201\221\241\236\211\261"
 197      86460E26 
 197      46461083 
 197      8191A19E 
 197      89B1
 198 0024 9EF125D3 		.ascii	"\236\361%\323G&\306\011\007V\317\340V_\332\320\320\360"
 198      4726C609 
 198      0756CFE0 
 198      565FDAD0 
 198      D0F0
 199 0036 E1D276C9 		.ascii	"\341\322v\311V\211\237L\014\014\237\231 \3060.gTg\000"
 199      56899F4C 
 199      0C0C9F99 
 199      20C6302E 
 199      67546700 
 200 004a AAF9D8F2 		.ascii	"\252\371\330\362\367:7[\013P\215\000D\216q\005#\033"
 200      F73A375B 
 200      0B508D00 
 200      448E7105 
 200      231B
 201 005c 23905E2F 		.ascii	"#\220^/t\240\341\377\377\315\367\247\2560bef`x\002\224"
 201      74A0E1FF 
 201      FFCDF7A7 
 201      AE306265 
 201      66607802 
 202 0071 0359F094 		.ascii	"\003Y\360\224\211\011D3\337b<\364a\303\223\255\234 "
 202      89094433 
 202      DF623CF4 
 202      61C393AD 
 202      9C20
 203 0083 E5406326 		.ascii	"\345@c&\276o?\313\365\202\351'\023c\303\341\346\006"
 203      BE6F3FCB 
 203      F582E927 
ARM GAS  C:\Users\Luggi\AppData\Local\Temp\ccMT3Vh5.s 			page 15


 203      1363C3E1 
 203      E606
 204 0095 3E90C9F7 		.ascii	">\220\311\367\237\234\277\310\001\026b\000q/\2664\374"
 204      9F9CBFC8 
 204      01166200 
 204      712FB634 
 204      FC
 205 00a6 659DCB38 		.ascii	"e\235\3138\273\261\245\361\000\353O&&\306\225\214R\214"
 205      BBB1A5F1 
 205      00EB4F26 
 205      26C6958C 
 205      528C
 206 00b8 AB1881DE 		.ascii	"\253\030\201\336a\\\3158\227\021\250b\376\306\371-|"
 206      615CCD38 
 206      9711A862 
 206      FEC6F92D 
 206      7C
 207 00c9 200D4C40 		.ascii	" \015L@\3274010\256\001\312\336cl<09\034d\013\310\325"
 207      D7343031 
 207      30AE01CA 
 207      DE636C3C 
 207      30391C64 
 208 00e0 4F808601 		.ascii	"O\200\206\001m\007\272E\313=5/\265(\261$5%>8\277\264"
 208      6D07BA45 
 208      CB3D352F 
 208      B528B124 
 208      35253E38 
 209 00f6 28393526 		.ascii	"(95& 8\337\3314\306\321\3059\336%5'83=\3360\3363(P/"
 209      2038DFD9 
 209      34C6D1C5 
 209      39DE2535 
 209      2738333D 
 210 0111 99010035 		.ascii	"\231\001\0005\271a\222"
 210      B96192
 211              		.text
 212              		.section	.gnu.lto_ADC_DelSig_1_IRQ_Start.304b41d4,"",%progbits
 213 0000 789C6366 		.ascii	"x\234cf\300\004R@\354\317\310\300\240\003\244\031\231"
 213      C0045240 
 213      ECCFC8C0 
 213      A003A419 
 213      99
 214 0011 19189926 		.ascii	"\031\030\231&\234c`h\344`bd\0041\030\030\031\352\231"
 214      9C636068 
 214      E4606264 
 214      04311818 
 214      19EA99
 215 0024 18EB195F 		.ascii	"\030\353\031_2}db\234p`\365\014n\365\245\015\015\015"
 215      327D6462 
 215      9C7060F5 
 215      0C6EF5A5 
 215      0D0D0D
 216 0037 1F2E9D6F 		.ascii	"\037.\235o\0148\300\370\223\211\201\3413\023\304\034"
 216      0C38C0F8 
 216      938981E1 
 216      3313C41C 
 217 0047 C6E58CEA 		.ascii	"\306\345\214\352\014@E\037[\376^\347fk\001*\022\200"
 217      0C40451F 
ARM GAS  C:\Users\Luggi\AppData\Local\Temp\ccMT3Vh5.s 			page 16


 217      5BFE5EE7 
 217      666B012A 
 217      1280
 218 0059 C831AE60 		.ascii	"\3101\256`d\003\232\317\260^\350@\303\377\377\233\367"
 218      64039ACF 
 218      B05EE840 
 218      C3FFFF9B 
 218      F7
 219 006a 1FDCC2C6 		.ascii	"\037\334\302\306\306\300\360\004(\005\262\340)\023\023"
 219      C6C0F004 
 219      2805B2E0 
 219      291313
 220 0079 8866BEC3 		.ascii	"\210f\276\303\330|`\3421&\220b\220)\363.\367\255c\252"
 220      D87C60E2 
 220      31269062 
 220      9029F32E 
 220      F7AD63AA 
 221 008d FDDDD0D1 		.ascii	"\375\335\320\321\300\361\223\211\3613\023\320\000\306"
 221      C0F19389 
 221      F13313D0 
 221      00C6
 222 009b 958CB50C 		.ascii	"\225\214\265\014?\201\312\3570\266\034\230\306\206U"
 222      3F81CAEF 
 222      30B61C98 
 222      C68655
 223 00aa 25F367A0 		.ascii	"%\363g\240<\003\343*\240J$)\210\021\314`\035\214\253"
 223      3C03E32A 
 223      A04A2429 
 223      8811CC60 
 223      1D8CAB
 224 00bd 196B7F32 		.ascii	"\031k\1772\261\200\015\231\203\335\020\326\317@y\006"
 224      B1800D99 
 224      83DD10D6 
 224      CF407906 
 225 00cd C6351043 		.ascii	"\3065\020C\276/~\360\232\361\005\323O&6v\006\306\265"
 225      BE2F7EF0 
 225      9AF105D3 
 225      4F263676 
 225      06C6B5
 226 00e0 8C523F99 		.ascii	"\214R?\231\330\031@\216\335\204]3\320\"V\240\346uP\267"
 226      D819408E 
 226      DD845D33 
 226      D02256A0 
 226      E67550B7 
 227 00f4 DE636C3C 		.ascii	"\336cl<\260\325\015\254\222\001\344iF\220g\201N\324"
 227      B0D50DAC 
 227      9201E469 
 227      46906781 
 227      4ED4
 228 0106 724FCD4B 		.ascii	"rO\315K-J,IM\211\017\316/-JN\215\011\010\316w6\215q"
 228      2D4A2C49 
 228      4D890FCE 
 228      2F2D4A4E 
 228      8D0908CE 
 229 011e 74718E77 		.ascii	"tq\216wI\315\011\316L\2177\214\367\014\012\324Kf\000"
 229      49CD09CE 
 229      4C8F378C 
ARM GAS  C:\Users\Luggi\AppData\Local\Temp\ccMT3Vh5.s 			page 17


 229      F70C0AD4 
 229      4B6600
 230 0131 0042E885 		.ascii	"\000B\350\205\006"
 230      06
 231              		.text
 232              		.section	.gnu.lto_ADC_DelSig_1_IRQ_StartEx.304b41d4,"",%progbits
 233 0000 789C6D8F 		.ascii	"x\234m\217M(DQ\024\307\317\377\3341o\030\013YiV6R\212"
 233      4D284451 
 233      14C7CFFF 
 233      DC316F18 
 233      0B596956 
 234 0017 52AC6C88 		.ascii	"R\254l\210\222\035f\253&\231\227\224\250\301R.F\261"
 234      921D66AB 
 234      26999794 
 234      A8C1522E 
 234      46B1
 235 0029 61286565 		.ascii	"a(ee#\371\036\037\033\371X\274l\330\260 !\223,(_\013"
 235      23F91E1F 
 235      1BF958BC 
 235      6CD8B020 
 235      21932C28 
 236 003f 7A4A2F89 		.ascii	"zJ/\211s\207\235\271u;\347\334\373;\377\363?\212\376"
 236      73879DB9 
 236      753BE7DC 
 236      FB3BFFF3 
 236      3F8AFE
 237 0052 9F90DC69 		.ascii	"\237\220\334i\020UH\204\"p\342\204h0\300\200I\0104\300"
 237      10554884 
 237      2270E284 
 237      6830C080 
 237      490834C0 
 238 0066 18C023BF 		.ascii	"\030\300#\2771\022\316\312L\260x^k\375:\264W0R\3401"
 238      3112CECA 
 238      4CB0785E 
 238      6BFD3AB4 
 238      573052E0 
 239 007b 91CBBF32 		.ascii	"\221\313\2772X@\261A\236\257&rU)H\362\235\344\373q\360"
 239      5840B141 
 239      9EAF2672 
 239      552948F2 
 239      9DE4FB71 
 240 0090 813D46A1 		.ascii	"\201=F\241)w\247\216f\374\246d\237)\237\306\316\017"
 240      2977A78E 
 240      66FCA664 
 240      9F299FC6 
 240      CE0F
 241 00a2 54D19CD6 		.ascii	"T\321\234\326CNjKW\373<VX\204\022=,!\204e\204H\236\010"
 241      434E6A4B 
 241      57FB3C56 
 241      5884123D 
 241      2C218465 
 242 00ba 2B2832F8 		.ascii	"+(2\370[\374\353\"\350\217\313\354\274\337\231X\205"
 242      5BFCEB22 
 242      E88FCBEC 
 242      BCDF9958 
 242      85
 243 00cb 5F6CD37A 		.ascii	"_l\323z\276\243\277\277\335\227\311\305*X\012i\236\356"
ARM GAS  C:\Users\Luggi\AppData\Local\Temp\ccMT3Vh5.s 			page 18


 243      BEA3BFBF 
 243      DD97C9C5 
 243      2A580A69 
 243      9EEE
 244 00dd 8430F6EF 		.ascii	"\2040\366\357\231MT)\014;\333\207lz\214\330\354\331"
 244      994D5429 
 244      0C3BDB87 
 244      6C7A8CD8 
 244      ECD9
 245 00ef 7892FB3F 		.ascii	"x\222\373?\365\250\016x\354sYt\260\206~\031\230E)\304"
 245      F5A80E78 
 245      EC735974 
 245      B0867E19 
 245      984529C4 
 246 0103 9D7D2B23 		.ascii	"\235}+#\351wE\216\220\024\362\203\225\307V\032>\315"
 246      E977458E 
 246      9014F283 
 246      95C7561A 
 246      3ECD
 247 0115 0C075C71 		.ascii	"\014\007\\qOX\027X\276>\346n\237a\226\317\266\010\033"
 247      4F581758 
 247      BE3EE66E 
 247      9F6196CF 
 247      B6081B
 248 0128 08799C43 		.ascii	"\010y\234C\306\324e\346f\361\344\223\346\315?O7\030"
 248      C6D465E6 
 248      66F1E493 
 248      E6CD3F4F 
 248      3718
 249 013a 74AEEBD3 		.ascii	"t\256\353\323$\231\345`\226\022+%\365v\227\035k\355"
 249      2499E560 
 249      96122B25 
 249      F576971D 
 249      6BED
 250 014c B5A39170 		.ascii	"\265\243\221pw_\254\315ni\014w\327V\266\324\324\325"
 250      775FACCD 
 250      6E690C77 
 250      D756B6D4 
 250      D4D5
 251 015e 46EAECCE 		.ascii	"F\352\354\316pG{\244<\322\320\334T\326FVk4\032\263{"
 251      70477BA4 
 251      3CD2D0DC 
 251      54D64656 
 251      6B341AB3 
 252 0173 7A7E00D9 		.ascii	"z~\000\331\217\240\010"
 252      8FA008
 253              		.text
 254              		.section	.gnu.lto_ADC_DelSig_1_IRQ_Stop.304b41d4,"",%progbits
 255 0000 789C6366 		.ascii	"x\234cf\300\004R@\374\002\210u\200\230\221\231\201\221"
 255      C0045240 
 255      FC028875 
 255      80989199 
 255      8191
 256 0012 69C23906 		.ascii	"i\3029\006\206F\016&FF\020\203\201\221\241\236\211\261"
 256      86460E26 
 256      46461083 
 256      8191A19E 
ARM GAS  C:\Users\Luggi\AppData\Local\Temp\ccMT3Vh5.s 			page 19


 256      89B1
 257 0024 9EF125D3 		.ascii	"\236\361%\323G&\306\011\007V\317\340V_\332\320\320\360"
 257      4726C609 
 257      0756CFE0 
 257      565FDAD0 
 257      D0F0
 258 0036 E1D14589 		.ascii	"\341\321E\211V\211\237L\014\014\237\231 \3060.gTg\000"
 258      56899F4C 
 258      0C0C9F99 
 258      20C6302E 
 258      67546700 
 259 004a AAF9D8F2 		.ascii	"\252\371\330\362\367:7[\013P\215\000D\216q\005#\033"
 259      F73A375B 
 259      0B508D00 
 259      448E7105 
 259      231B
 260 005c 23905E2F 		.ascii	"#\220^/t\240\341\377\377\317\307'\255Pgba`x\002\224"
 260      74A0E1FF 
 260      FFCFC727 
 260      AD506762 
 260      61607802 
 261 0071 0359F094 		.ascii	"\003Y\360\224\211\011D3\337al>\260\371\024\023H5\310"
 261      89094433 
 261      DF616C3E 
 261      B0F91413 
 261      4835C8
 262 0084 987997FB 		.ascii	"\230y\227\373\3261\325\376n\350h\340\370\311\304\370"
 262      D631D5FE 
 262      6EE868E0 
 262      F8C9C4F8 
 263 0094 99096802 		.ascii	"\231\011h\002\343J\306Z\206\237@\345w\030[\016\354\340"
 263      E34AC65A 
 263      869F40E5 
 263      77185B0E 
 263      ECE0
 264 00a6 C2AA92F9 		.ascii	"\302\252\222\3713P\236\201q\025P%\222\024\304\010f\260"
 264      33509E81 
 264      71155025 
 264      9214C408 
 264      66B0
 265 00b8 0EC6D58C 		.ascii	"\016\306\325\214\265?\201\016\270\307\330x`\267\027"
 265      B53F810E 
 265      B8C7D878 
 265      60B717
 266 00c7 588801E4 		.ascii	"X\210\001\344\032F\220+\200z\265\334S\363R\213\022K"
 266      1A46902B 
 266      807AB5DC 
 266      53F3528B 
 266      124B
 267 00d9 5253E283 		.ascii	"RS\342\203\363K\213\222Sc\002\202\363\235Mc\034]\234"
 267      F34B8B92 
 267      53630282 
 267      F39D4D63 
 267      1C5D9C
 268 00ec E35D5273 		.ascii	"\343]Rs\2023\323\343\015\343=\203\002\365\222\031\000"
 268      8233D3E3 
 268      0DE33D83 
ARM GAS  C:\Users\Luggi\AppData\Local\Temp\ccMT3Vh5.s 			page 20


 268      02F59219 
 268      00
 269 00fd C1B161AB 		.ascii	"\301\261a\253"
 270              		.text
 271              		.section	.gnu.lto_ADC_DelSig_1_IRQ_SetPending.304b41d4,"",%progbits
 272 0000 789C6366 		.ascii	"x\234cf\300\004R@\374\000\210u\200\230\221\231\201\221"
 272      C0045240 
 272      FC008875 
 272      80989199 
 272      8191
 273 0012 69C23906 		.ascii	"i\3029\006\206F\016&FF\020\203\201\221\241\236\211\261"
 273      86460E26 
 273      46461083 
 273      8191A19E 
 273      89B1
 274 0024 9EF125D3 		.ascii	"\236\361%\323G&\306\011\007V\317\340V_\332\320\320\360"
 274      4726C609 
 274      0756CFE0 
 274      565FDAD0 
 274      D0F0
 275 0036 A169BF64 		.ascii	"\241i\277d\253\304O&\006\206\317L\020c\030\2273\252"
 275      ABC44F26 
 275      0686CF4C 
 275      10631897 
 275      33AA
 276 0048 3300D57C 		.ascii	"3\000\325|l\371{\235\233\255\005\250F\000\"\307\270"
 276      6CF97B9D 
 276      9BAD05A8 
 276      460022C7 
 276      B8
 277 0059 82918D11 		.ascii	"\202\221\215\021H\257\027:\320\360\377\377\347?S_\330"
 277      48AF173A 
 277      D0F0FFFF 
 277      E73F535F 
 277      D8
 278 006a B1323330 		.ascii	"\261230<\001\312\201,x\312\304\004\242\231o1\036\372"
 278      3C01CA81 
 278      2C78CAC4 
 278      04A2996F 
 278      311EFA
 279 007d B0E1EF56 		.ascii	"\260\341\357VN\220r\2401[n\255}\310\361\202\351'\023"
 279      4E9072A0 
 279      315B6EAD 
 279      7DC8F182 
 279      E92713
 280 0090 63C391E6 		.ascii	"c\303\221\346\006>\220\311\367\237\234\277\010\021b"
 280      063E90C9 
 280      F79F9CBF 
 280      081162
 281 009f 0071A736 		.ascii	"\000q\2476\317\372\3101\227qvcK\343\001\326\237LL\214"
 281      CFFAC831 
 281      97717663 
 281      4BE301D6 
 281      9F4C4C8C 
 282 00b3 2B19A518 		.ascii	"+\031\245\030W1\002\275\303\270\232q.#P\305\374\215"
 282      573102BD 
 282      C3B89A71 
ARM GAS  C:\Users\Luggi\AppData\Local\Temp\ccMT3Vh5.s 			page 21


 282      2E2350C5 
 282      FC8D
 283 00c5 F35BF840 		.ascii	"\363[\370@\032\230\200\256i`b`\\\003\224\275\307\330"
 283      1A9880AE 
 283      69606260 
 283      5C0394BD 
 283      C7D8
 284 00d7 78E07B38 		.ascii	"x\340{8\310\026\220\253\237\000\015\003\332\016t\213"
 284      C81690AB 
 284      9F000D03 
 284      DA0E748B 
 285 00e7 967B6A5E 		.ascii	"\226{j^jQbIjJ|p~iQrjL@p\276\263i\214\243\213s\274Kj"
 285      6A516249 
 285      6A4A7C70 
 285      7E695172 
 285      6A4C4070 
 286 0105 4E70667A 		.ascii	"Npfz\274a\274gP\240^2\003\000\255\265b\213"
 286      BC61BC67 
 286      50A05E32 
 286      0300ADB5 
 286      628B
 287              		.text
 288              		.section	.gnu.lto_ADC_DelSig_1_IRQ_ClearPending.304b41d4,"",%progbits
 289 0000 789C6366 		.ascii	"x\234cf\300\004R@\374\000\210u\200\230\221\231\201\221"
 289      C0045240 
 289      FC008875 
 289      80989199 
 289      8191
 290 0012 69C23906 		.ascii	"i\3029\006\206F\016&FF\020\203\201\221\241\236\211\261"
 290      86460E26 
 290      46461083 
 290      8191A19E 
 290      89B1
 291 0024 9EF125D3 		.ascii	"\236\361%\323G&\306\011\007V\317\340V_\332\320\320\360"
 291      4726C609 
 291      0756CFE0 
 291      565FDAD0 
 291      D0F0
 292 0036 61D255C9 		.ascii	"a\322U\311V\211\237L\014\014\237\231 \3060.gTg\000\252"
 292      56899F4C 
 292      0C0C9F99 
 292      20C6302E 
 292      67546700 
 293 004b F9D8F2F7 		.ascii	"\371\330\362\367:7[\013P\215\000D\216q\005#\033#\220"
 293      3A375B0B 
 293      508D0044 
 293      8E710523 
 293      1B2390
 294 005e 5E2F74A0 		.ascii	"^/t\240\341\377\377\315W\247uh\263130<\001\312\201,"
 294      E1FFFFCD 
 294      57A77568 
 294      B3313330 
 294      3C01CA81 
 295 0073 78CAC404 		.ascii	"x\312\304\004\242\231o1\036\372\360\341\3526N\220r\240"
 295      A2996F31 
 295      1EFAF0E1 
 295      EA364E90 
ARM GAS  C:\Users\Luggi\AppData\Local\Temp\ccMT3Vh5.s 			page 22


 295      72A0
 296 0085 317D93E6 		.ascii	"1}\223\346\266\362\276`\372\311\304\330p\264\271\201"
 296      B6F2BE60 
 296      FAC9C4D8 
 296      70B4B981 
 297 0095 0F64F2FD 		.ascii	"\017d\362\375'\347/r\200\205\030@\3349\0353v\263\317"
 297      27E72F72 
 297      80851840 
 297      DC391D33 
 297      76B3CF
 298 00a8 659CDDD8 		.ascii	"e\234\335\330\322x\200\365'\023\023\343JF)\306U\214"
 298      D27880F5 
 298      271313E3 
 298      4A4629C6 
 298      558C
 299 00ba 40EF30AE 		.ascii	"@\3570\256f\234\313\010T1\177\343\374\026>\220\006&"
 299      669CCB08 
 299      54317FE3 
 299      FC163E90 
 299      0626
 300 00cc A06B1A98 		.ascii	"\240k\032\230\030\030\327\000e\35716\036\270\031\005"
 300      1818D700 
 300      65EF3136 
 300      1EB81905 
 301 00dc B205E4EA 		.ascii	"\262\005\344\352'@\303\200\266\003\335\242\345\236\232"
 301      2740C380 
 301      B603DDA2 
 301      E59E9A
 302 00eb 975A9458 		.ascii	"\227Z\224X\222\232\022\037\234_Z\224\234\032\023\020"
 302      929A121F 
 302      9C5F5A94 
 302      9C1A1310 
 303 00fb 9CEF6C1A 		.ascii	"\234\357l\032\343\350\342\034\357\222\232\023\234\231"
 303      E3E8E21C 
 303      EF929A13 
 303      9C99
 304 0109 1E6F18EF 		.ascii	"\036o\030\357\031\024\250\227\314\000\000\244Q`\326"
 304      1914A897 
 304      CC0000A4 
 304      5160D6
 305              		.text
 306              		.section	.gnu.lto_.symbol_nodes.304b41d4,"",%progbits
 307 0000 789C55CA 		.ascii	"x\234U\312\301\015\3020\014\205\341\347\270i\342\264"
 307      C10DC230 
 307      0C85E1E7 
 307      B869E2B4 
 308 0010 1D86095F 		.ascii	"\035\206\011_\305\211#'\316\210\023s0\0003\000\203 "
 308      C5892327 
 308      CE881373 
 308      30003300 
 308      8320
 309 0022 A22642B5 		.ascii	"\242&B\265/O\237~+\200\203\240]P\002\347'@\342r\317"
 309      2F4F9F7E 
 309      2B8083A0 
 309      5D5002E7 
 309      2740E272 
 310 0037 0803C3DF 		.ascii	"\010\003\303\337\327\352Hu\03698'F\347\314\321\331\230"
ARM GAS  C:\Users\Luggi\AppData\Local\Temp\ccMT3Vh5.s 			page 23


 310      D7EA4875 
 310      1E393827 
 310      46E7CCD1 
 310      D998
 311 0049 9C0BB333 		.ascii	"\234\013\2633h\316\302\342\0348\355-\013\245\031\353"
 311      68CEC2E2 
 311      1C38ED2D 
 311      0BA519EB 
 312 0059 A9E689B3 		.ascii	"\251\346\211\263{\237\271\354\2559\341\366\372\212f"
 312      7B9FB9EC 
 312      AD39E1F6 
 312      FA8A66
 313 0068 C1635BC5 		.ascii	"\301c[\305g\333\210\343\273\256\365n\275[\357\326{\351"
 313      67DB88E3 
 313      BBAEF56E 
 313      BD5BEFD6 
 313      7BE9
 314 007a BDB48E1F 		.ascii	"\275\264\216\037\257\376T\012"
 314      AFFE540A 
 315              		.text
 316              		.section	.gnu.lto_.refs.304b41d4,"",%progbits
 317 0000 789C6366 		.ascii	"x\234cf``\340f\200\000F\016&\006&F.&n&\006\000\002\015"
 317      6060E066 
 317      8000460E 
 317      26062646 
 317      2E266E26 
 318 0018 0036     		.ascii	"\0006"
 319              		.text
 320              		.section	.gnu.lto_.decls.304b41d4,"",%progbits
 321 0000 789C8D96 		.ascii	"x\234\215\226\177LSW\024\307\337\355mk)\025\334\037"
 321      7F4C5357 
 321      14C7DFED 
 321      6D6B2915 
 321      DC1F
 322 0012 43C7B604 		.ascii	"C\307\266\004\376!\331b\\\246Y\342\376\232\033\030t"
 322      FE21D962 
 322      5CA659E2 
 322      FE9A1B18 
 322      74
 323 0023 261B1BD9 		.ascii	"&\033\033\331\376\321\204u\360\346H\010\230R\222\361"
 323      FED18475 
 323      F0E64808 
 323      985292F1 
 324 0033 DF136420 		.ascii	"\337\023d \333\260\303\237S\2438\301\011X@\004\244 "
 324      DBB0C39F 
 324      53A338C1 
 324      09584004 
 324      A420
 325 0045 5A10A458 		.ascii	"Z\020\244XD\320R~kA\020\030\212\270L7'\332\235{\337"
 325      44D0527E 
 325      6B411018 
 325      8AB84C37 
 325      27DA9D7B 
 326 005a 7BF6D6BE 		.ascii	"{\366\326\276\252/9\355{\357\236\3639\347|\357\217\026"
 326      AA2F39ED 
 326      7BEF9EF3 
 326      39E77CEF 
ARM GAS  C:\Users\Luggi\AppData\Local\Temp\ccMT3Vh5.s 			page 24


 326      8F16
 327 006c 731CF70D 		.ascii	"s\034\367\015\3468/\\M:\216\233@\034\027\006\357\022"
 327      E6382F5C 
 327      4D3A8E9B 
 327      401C1706 
 327      EF12
 328 007e C0546011 		.ascii	"\300T`\021`\225\234x\221\367V\260j\260\0060\033X\033"
 328      60959C78 
 328      91F756B0 
 328      6AB00630 
 328      1B581B
 329 0091 58075827 		.ascii	"X\007X'X\027\230\023\354\012\330U\260>\260\353`\375"
 329      58179813 
 329      EC0AD855 
 329      B03EB0EB 
 329      60FD
 330 00a3 5CE04538 		.ascii	"\\\340E8H\312\303I\367V\005?\222G+\371\221\374\006\260"
 330      48CAC349 
 330      F756053F 
 330      92472BF9 
 330      91FC06B0 
 331 00b7 5A3037D8 		.ascii	"Z07\330\000\023\333\240\020K\352\323\274$\316\246\020"
 331      0013DBA0 
 331      104BEAD3 
 331      BC24CEA6 
 331      10
 332 00c8 D726C591 		.ascii	"\327&\305\221\234-\222\006\303`\243L\\\233B\\\207\024"
 332      9C2D9206 
 332      C360A34C 
 332      5C9B425C 
 332      8714
 333 00da 27C78C4A 		.ascii	"'\307\214Jq\2372q\035\012qD;,\345\273\0156\305\370w"
 333      719F3271 
 333      1D0A7144 
 333      3B2CE5BB 
 333      0D36C5F8 
 334 00ef 2AF8139D 		.ascii	"*\370\023\235\325R\236h\205\230.\205\030\347\013r8\025"
 334      D5529E68 
 334      85982E85 
 334      18E70B72 
 334      3815
 335 0101 FCC91CEA 		.ascii	"\374\311\034\352$\1772\377\345`\323`u`3R\177v\311W+"
 335      247F32FF 
 335      E560D360 
 335      75603352 
 335      7F76C957 
 336 0116 F9130E99 		.ascii	"\371\023\016\231\0072\217mAj'\353\"\224\013\234\317"
 336      07328F6D 
 336      416A27EB 
 336      22940B9C 
 336      CF
 337 0127 97E5D048 		.ascii	"\227\345\320H\261r\216`\374>\3167w\3173\311\245\226"
 337      B1728E60 
 337      FC3ECE37 
 337      77CF33C9 
 337      A596
 338 0139 7C644EB5 		.ascii	"|dN\265\002\203\254\331`Z]W\360\357\177\201\277\322"
ARM GAS  C:\Users\Luggi\AppData\Local\Temp\ccMT3Vh5.s 			page 25


 338      0283ACD9 
 338      605A5D57 
 338      F0EF7F81 
 338      BFD2
 339 014b DABFAF42 		.ascii	"\332\277\257B\266\252\277\257\204\316\250P\230>\212"
 339      B6AABFAF 
 339      84CEA850 
 339      983E8A
 340 015a 3C36153B 		.ascii	"<6\025;\016h\341\321\240W\223\307\346\307\023.\365\362"
 340      0E68E1D1 
 340      A05793C7 
 340      E6C7132E 
 340      F5F2
 341 016c BD025C96 		.ascii	"\275\002\\\226\\a\231\032%D\240?P$:\211\"\201Z\216\226"
 341      5C61991A 
 341      2544A03F 
 341      50243A89 
 341      22815A8E 
 342 0181 C3E766B5 		.ascii	"\303\347f\265H:~`\334\245_Y\001\256\005\202}\231/C\365"
 342      483A7E60 
 342      DCA55F59 
 342      01AE0582 
 342      7D992F43 
 343 0196 C3DE8A50 		.ascii	"\303\336\212PC\241 \344\020F\310\006\022\306@*\221\001"
 343      43A120E4 
 343      1046C806 
 343      12C6402A 
 343      9101
 344 01a8 55A0959C 		.ascii	"U\240\225\234x\013\376\303\267J#p\010\"\241w{\317/\350"
 344      780BFEC3 
 344      B74A2370 
 344      0822A177 
 344      7BCF2FE8 
 345 01bc A28E080B 		.ascii	"\242\216\010\0135\013\335\226M\277\011%9\302S\257\027"
 345      350BDD96 
 345      4DBF0925 
 345      39C253AF 
 345      17
 346 01cd D1CCE814 		.ascii	"\321\314\350\024\302R G\356\305F\255(\012\342\372w7"
 346      C2522047 
 346      EEC546AD 
 346      280AE2FA 
 346      7737
 347 01df 3B30FE9C 		.ascii	";0\376\2342F\204\026G\0300<B\311P\255\360\311\016a\321"
 347      32468416 
 347      4718303C 
 347      42C950AD 
 347      F0C90E61 
 348 01f4 EBC51450 		.ascii	"\353\305\024P\305\000\252d@5\005\330\034\365\023\010"
 348      C500AA64 
 348      403505D8 
 348      1CF51308 
 349 0204 1B094025 		.ascii	"\033\011@%\314\367\036\322\241\030C)t\266p\343\342\264"
 349      CCF71ED2 
 349      A1184329 
 349      74B670E3 
 349      E2B4
ARM GAS  C:\Users\Luggi\AppData\Local\Temp\ccMT3Vh5.s 			page 26


 350 0216 C12A083A 		.ascii	"\301*\010:T\013e\327<\003\220\322\305\206\203\364\211"
 350      540B65D7 
 350      3C0390D2 
 350      C58683F4 
 350      89
 351 0227 4EA318A6 		.ascii	"N\243\030\246UHqjn\246\\\243\206\223\215\2426S\271\247"
 351      5548716A 
 351      6EA65CA3 
 351      86938DA2 
 351      3653B9A7 
 352 023b 6F35DDD3 		.ascii	"o5\335\323\004\225\273\216\312}\006Iz\337\031\353\361"
 352      0495BB8E 
 352      CA7D0649 
 352      7ADF19EB 
 352      F1
 353 024c E8B005D1 		.ascii	"\350\260\005\321.\313\034u\177\206\220.A\251\232\"\314"
 353      2ECB1C75 
 353      7F86902E 
 353      41A99A22 
 353      CC
 354 025d 480551A8 		.ascii	"H\005Q\250\236\351\264^\356\264\201v:\221+\214\204\262"
 354      9EE9B45E 
 354      EEB48176 
 354      3A912B8C 
 354      84B2
 355 026f 294935BE 		.ascii	")I5\276\234g\375\246x\261\370\304\207\270R\314\330l"
 355      9C67FDA6 
 355      78B1F8C4 
 355      87B852CC 
 355      D86C
 356 0281 69778543 		.ascii	"iw\205C\306\222\032\217\243\263\323 8\004\273\327\373"
 356      C6921A8F 
 356      A3B3D320 
 356      3804BBD7 
 356      FB
 357 0292 918E44A0 		.ascii	"\221\216D\240F&_\243\234\317F\363\271/\344\347\353\360"
 357      46265FA3 
 357      9CCF46F3 
 357      B92FE4E7 
 357      EBF0
 358 02a4 2591B1FD 		.ascii	"%\221\261\375D\363\317K`\265E\350)\276\310y\260\025"
 358      44F3CF4B 
 358      60B545E8 
 358      29BEC879 
 358      B015
 359 02b6 D3472F55 		.ascii	"\323G/U~hh\317#\214\3641\005D\323\205b\001\257\340\320"
 359      7E6868CF 
 359      238CF431 
 359      0544D385 
 359      6201AFE0 
 360 02cb CA48F40E 		.ascii	"\312H\364\016\310y\036\344\214\320\323$\250\031\252"
 360      C8791EE4 
 360      8CD0D324 
 360      A819AA
 361 02da 3D07D54A 		.ascii	"=\007\325J\023T\261)WX\207Z\220\0365\371\346\207d\220"
 361      1354B129 
 361      5758875A 
ARM GAS  C:\Users\Luggi\AppData\Local\Temp\ccMT3Vh5.s 			page 27


 361      901E35F9 
 361      E6876490 
 362 02ee D6A325AF 		.ascii	"\326\243%\257\325\242\246\302\023\037Q\370\007\336\361"
 362      D5A2A6C2 
 362      131F51F8 
 362      07DEF1
 363 02fd 325550E1 		.ascii	"2UP\341\355T\204\013\262\360\177\355\354\0366\340n\261"
 363      ED54840B 
 363      B2F07FED 
 363      EC1E36E0 
 363      6EB1
 364 030f 855D83F3 		.ascii	"\205]\203\363\243jI\370=\305\254\360\020\205Z\031!Z"
 364      A36A49F8 
 364      3DC5ACF0 
 364      10855A19 
 364      215A
 365 0321 6521DAA8 		.ascii	"e!\332\250\020;w\324`6#)\306\227\362\242\237\356\336"
 365      103B77D4 
 365      60362329 
 365      C697F2A2 
 365      9FEEDE
 366 0334 B2E94935 		.ascii	"\262\351I5\236\0253Z\272+lZQ\370\306Y\336..h\032\201"
 366      9E15335A 
 366      BA2B6C5A 
 366      51F8C659 
 366      DE2E2E68 
 367 034a DA9974ED 		.ascii	"\332\231t\355r\272\016\232\256}\367\330\264\006\377"
 367      72BA0E9A 
 367      AE7DF7D8 
 367      B406FF
 368 0359 A8A2883C 		.ascii	"\250\242\210<\353>\273\226\026\355\231\353\362!\310"
 368      EB3EBB96 
 368      16ED99EB 
 368      F221C8
 369 0368 82BDC420 		.ascii	"\202\275\304 .\311\210N\212\260n\237\377=\034\037\021"
 369      2EC9884E 
 369      8AB06E9F 
 369      FF3D1C1F 
 369      11
 370 0379 1163076F 		.ascii	"\021c\007oN.\021\25380\347_\205\203A8dD\027E\374Rt\374"
 370      4E2E11AB 
 370      3830E75F 
 370      85834138 
 370      64441745 
 371 0391 811A378A 		.ascii	"\201\0327\212\010\317\261\302c\342\232\365\2648\375"
 371      08CFB1C2 
 371      63E29AF5 
 371      B438FD
 372 03a0 ABB8CC20 		.ascii	"\253\270\314 .\313\010'E<\271\321lC\270OD\034\236p\237"
 372      2ECB0827 
 372      453CB9D1 
 372      6C43B84F 
 372      441C9E70 
 373 03b5 D4D32A4A 		.ascii	"\324\323*J\236\324\012\353\230\315\335\315\020\272e"
 373      9ED40AEB 
 373      98CDDDCD 
 373      10BA65
ARM GAS  C:\Users\Luggi\AppData\Local\Temp\ccMT3Vh5.s 			page 28


 374 03c4 C2154AF8 		.ascii	"\302\025J\3705\357\237*-Yg\2040\273\3175+\366Q2x\\+"
 374      35EF9F2A 
 374      2D596784 
 374      30BBCF35 
 374      2BF65132 
 375 03db 2E62BA67 		.ascii	".b\272gz\030@\217\014\270J\001\207\357\3146.\305\333"
 375      7A18408F 
 375      0CB84A01 
 375      87EFCC36 
 375      2EC5DB
 376 03ee 3105E44F 		.ascii	"1\005\344O\336q\206\212\200\2422\031@*\350e\000\275"
 376      DE71868A 
 376      80A23219 
 376      402AE865 
 376      00BD
 377 0400 32A08F02 		.ascii	"2\240\217\002\316.\376w\017\341\375\"\340~C\376\240"
 377      CE2EFE77 
 377      0FE1FD22 
 377      E07E43FE 
 377      A0
 378 0411 4604FC5B 		.ascii	"F\004\374[\311\002\2561\200k2\340:\005\034\255*\334"
 378      C902AE31 
 378      806B32E0 
 378      3A051CAD 
 378      2ADC
 379 0423 1D8ECF88 		.ascii	"\035\216\317\210\200\322\241\363\016qA\224\224[Y\200"
 379      80D2A1F3 
 379      0E714194 
 379      945B5980 
 380 0433 8B01B864 		.ascii	"\213\001\270d@?\005\\\315\037YT\261\207\262\377\266"
 380      403F055C 
 380      CD1F5954 
 380      B187B2FF 
 380      B6
 381 0444 778BC719 		.ascii	"w\213\307\031\371\006\347\213\316{y!\254\263\333\317"
 381      F906E78B 
 381      CE7B7921 
 381      ACB3DBCF 
 382 0454 7940721E 		.ascii	"y@r\036\240\316\302\376\237Ju\270O,\255\376a\241m\251"
 382      A0CEC2FE 
 382      9F4A75B8 
 382      4F2CADFE 
 382      61A16DA9 
 383 0468 1EF66FEE 		.ascii	"\036\366o\356+\354_\330\361\256\236Bw\210\270\343\237"
 383      2BEC5FD8 
 383      F1AE9E42 
 383      7788B8E3 
 383      9F
 384 0479 8F1809BA 		.ascii	"\217\030\011\272\343s/\030\272\310\221<\014;h\320\267"
 384      E3732F18 
 384      BAC8913C 
 384      0C3B68D0 
 384      B7
 385 048a E58790B4 		.ascii	"\345\207\220\264\347\311\000\324\342r\346\214`\266\213"
 385      E7C900D4 
 385      E272E68C 
 385      60B68B
ARM GAS  C:\Users\Luggi\AppData\Local\Temp\ccMT3Vh5.s 			page 29


 386 0499 61BF1D37 		.ascii	"a\277\0357*u1J\273((n\230\323`7\366;\246\242\305c\352"
 386      2A75314A 
 386      BB28286E 
 386      98D36037 
 386      F63BA6A2 
 387 04b0 E6A147A5 		.ascii	"\346\241G\245!\364\221\374W\015'\257\306\007\007\316"
 387      21F491FC 
 387      570D27AF 
 387      C60707CE 
 388 04c0 2DC1A3D4 		.ascii	"-\301\243\324]uwO\2167\024\305\350Iu\236S\3260\001\241"
 388      5D75774F 
 388      8E3714C5 
 388      E849759E 
 388      53D63001 
 389 04d5 0948E5F1 		.ascii	"\011H\345\361\225\026-UV\360\254\030\316\367K1\016\215"
 389      95162D55 
 389      56F0AC18 
 389      CEF74B31 
 389      0E8D
 390 04e7 464B8DDE 		.ascii	"FK\215\336\200\2277\2514\310\266\267\257S/J\371j\021"
 390      809737A9 
 390      34C8B6B7 
 390      AF532F4A 
 390      F96A11
 391 04fa 2AFB19CB 		.ascii	"*\373\031\313c\203\\\307\323\323\245*AP\243)\250d\314"
 391      63835CC7 
 391      D3D3A52A 
 391      4150A329 
 391      A864CC
 392 050d 57C92DE4 		.ascii	"W\311-\344+%\020<\251\\\312\324\344\321\307ZV\311)?"
 392      2B25103C 
 392      A95CCAD4 
 392      E4D1C75A 
 392      56C9293F 
 393 0521 256F4B4A 		.ascii	"%oKJ\336\246J><\264k\336O\366:\277\237\377i\311y\232"
 393      DEA64A3E 
 393      3CB46BDE 
 393      4FF63ABF 
 393      9FFF69C9 
 394 0537 3A1FA919 		.ascii	":\037\251\031\216f}\355~\2763\222/\371\326\306\177\366"
 394      8E667DED 
 394      7EBE3392 
 394      2FF9D6C6 
 394      7FF6
 395 0549 55542C17 		.ascii	"UT,\027\371q\\lR\034\237\226\230\2725\351\375\244\215"
 395      F9715C6C 
 395      521C9F96 
 395      98BA35E9 
 395      FDA48D
 396 055c 5F7E91B4 		.ascii	"_~\221\2641\335\314\233LY\333\314\357\306\363\351\274"
 396      31DDCC9B 
 396      4C59DBCC 
 396      EFC6F3E9 
 396      BC
 397 056d C968E653 		.ascii	"\311h\346S\222\0223\262L\311\374\226\204\304\214\330"
 397      921233B2 
 397      4CC9FC96 
ARM GAS  C:\Users\Luggi\AppData\Local\Temp\ccMT3Vh5.s 			page 30


 397      84C48CD8 
 398 057d 0FB63C1F 		.ascii	"\017\266<\037\261*\231{\015\202\342\370\357\214Yi\346"
 398      B12A997B 
 398      0D82E2F8 
 398      EF8C5969 
 398      E6
 399 058e 0DC6F494 		.ascii	"\015\306\364\2244\336dH\316N\3154\031SRL|ff\2642\351"
 399      34DE6448 
 399      CE4ECD34 
 399      1953524C 
 399      7C6666B4 
 400 05a4 BDE46C73 		.ascii	"\275\344ls\3666>s\325\367\012e$\362\346\257\371ds\206"
 400      F6363E73 
 400      D5F70A65 
 400      24F2E6AF 
 400      F9647386 
 401 05b8 2970285E 		.ascii	")p(^\036\322d\245\246\233\327\276\245\024\233`J\315"
 401      1ED264A5 
 401      A69BD7BE 
 401      A5149B60 
 401      4ACD
 402 05ca 30A59AB3 		.ascii	"0\245\232\263\003\007\343}\203\313\003\006\327\247\033"
 402      0307E37D 
 402      83CB0306 
 402      D7A71B
 403 05d9 BF4DE3DF 		.ascii	"\277M\343\337P\012J4C\003+\002F\342R3IHD`\021f\243\311"
 403      500A4A34 
 403      43032B02 
 403      46E25233 
 403      49484460 
 404 05f1 1CE84F5F 		.ascii	"\034\350O_\257\377\341u\205\201\214mo*\266\302\247\247"
 404      AFFFE175 
 404      85818C6D 
 404      6F2AB6C2 
 404      A7A7
 405 0603 A4A66F7D 		.ascii	"\244\246o};`,6\2157\232\244Q\265\211\337\272V\003\037"
 405      3B602C36 
 405      8D379AA4 
 405      51B589DF 
 405      BA56031F 
 406 0617 6B566B89 		.ascii	"kVk\211*kV\377\017b\024\244\010"
 406      2A6B56FF 
 406      0F6214A4 
 406      08
 407              		.text
 408              		.section	.gnu.lto_.symtab.304b41d4,"",%progbits
 409 0000 4144435F 		.ascii	"ADC_DelSig_1_IRQ_Interrupt\000\000\000\000\000\000\000"
 409      44656C53 
 409      69675F31 
 409      5F495251 
 409      5F496E74 
 410 0021 00000000 		.ascii	"\000\000\000\000\000\255\000\000\000ADC_DelSig_1_IR"
 410      00AD0000 
 410      00414443 
 410      5F44656C 
 410      5369675F 
 411 0039 515F5365 		.ascii	"Q_SetVector\000\000\000\000\000\000\000\000\000\000"
ARM GAS  C:\Users\Luggi\AppData\Local\Temp\ccMT3Vh5.s 			page 31


 411      74566563 
 411      746F7200 
 411      00000000 
 411      00000000 
 412 004e 0000B600 		.ascii	"\000\000\266\000\000\000ADC_DelSig_1_IRQ_GetVector\000"
 412      00004144 
 412      435F4465 
 412      6C536967 
 412      5F315F49 
 413 006f 00000000 		.ascii	"\000\000\000\000\000\000\000\000\000\000\000\271\000"
 413      00000000 
 413      000000B9 
 413      00
 414 007c 00004144 		.ascii	"\000\000ADC_DelSig_1_IRQ_SetPriority\000\000\000\000"
 414      435F4465 
 414      6C536967 
 414      5F315F49 
 414      52515F53 
 415 009e 00000000 		.ascii	"\000\000\000\000\000\000\000\000\302\000\000\000ADC"
 415      00000000 
 415      C2000000 
 415      414443
 416 00ad 5F44656C 		.ascii	"_DelSig_1_IRQ_GetPriority\000\000\000\000\000\000\000"
 416      5369675F 
 416      315F4952 
 416      515F4765 
 416      74507269 
 417 00cd 00000000 		.ascii	"\000\000\000\000\000\305\000\000\000ADC_DelSig_1_IR"
 417      00C50000 
 417      00414443 
 417      5F44656C 
 417      5369675F 
 418 00e5 515F456E 		.ascii	"Q_Enable\000\000\000\000\000\000\000\000\000\000\000"
 418      61626C65 
 418      00000000 
 418      00000000 
 418      000000
 419 00f8 00C70000 		.ascii	"\000\307\000\000\000ADC_DelSig_1_IRQ_GetState\000\000"
 419      00414443 
 419      5F44656C 
 419      5369675F 
 419      315F4952 
 420 0118 00000000 		.ascii	"\000\000\000\000\000\000\000\000\000\000\311\000\000"
 420      00000000 
 420      0000C900 
 420      00
 421 0125 00414443 		.ascii	"\000ADC_DelSig_1_IRQ_Disable\000\000\000\000\000\000"
 421      5F44656C 
 421      5369675F 
 421      315F4952 
 421      515F4469 
 422 0144 00000000 		.ascii	"\000\000\000\000\000\000\313\000\000\000ADC_DelSig_"
 422      0000CB00 
 422      00004144 
 422      435F4465 
 422      6C536967 
 423 0159 315F4952 		.ascii	"1_IRQ_Start\000\000\000\000\000\000\000\000\000\000"
ARM GAS  C:\Users\Luggi\AppData\Local\Temp\ccMT3Vh5.s 			page 32


 423      515F5374 
 423      61727400 
 423      00000000 
 423      00000000 
 424 016e 0000CD00 		.ascii	"\000\000\315\000\000\000ADC_DelSig_1_IRQ_StartEx\000"
 424      00004144 
 424      435F4465 
 424      6C536967 
 424      5F315F49 
 425 018d 00000000 		.ascii	"\000\000\000\000\000\000\000\000\000\000\000\317\000"
 425      00000000 
 425      000000CF 
 425      00
 426 019a 00004144 		.ascii	"\000\000ADC_DelSig_1_IRQ_Stop\000\000\000\000\000\000"
 426      435F4465 
 426      6C536967 
 426      5F315F49 
 426      52515F53 
 427 01b7 00000000 		.ascii	"\000\000\000\000\000\000\321\000\000\000ADC_DelSig_"
 427      0000D100 
 427      00004144 
 427      435F4465 
 427      6C536967 
 428 01cc 315F4952 		.ascii	"1_IRQ_SetPending\000\000\000\000\000\000\000\000\000"
 428      515F5365 
 428      7450656E 
 428      64696E67 
 428      00000000 
 429 01e5 000000D3 		.ascii	"\000\000\000\323\000\000\000ADC_DelSig_1_IRQ_ClearP"
 429      00000041 
 429      44435F44 
 429      656C5369 
 429      675F315F 
 430 0203 656E6469 		.ascii	"ending\000\000\000\000\000\000\000\000\000\000\000\000"
 430      6E670000 
 430      00000000 
 430      00000000 
 430      0000
 431 0215 D5000000 		.ascii	"\325\000\000\000IntDefaultHandler\000\000\002\000\000"
 431      496E7444 
 431      65666175 
 431      6C744861 
 431      6E646C65 
 432 022f 00000000 		.ascii	"\000\000\000\000\000\000\000\257\000\000\000"
 432      000000AF 
 432      000000
 433              		.text
 434              		.section	.gnu.lto_.opts,"",%progbits
 435 0000 272D666E 		.ascii	"'-fno-trapv' '-fno-strict-overflow' '-mcpu=cortex-m"
 435      6F2D7472 
 435      61707627 
 435      20272D66 
 435      6E6F2D73 
 436 0033 33272027 		.ascii	"3' '-mthumb' '-g' '-Og' '-ffunction-sections' '-flt"
 436      2D6D7468 
 436      756D6227 
 436      20272D67 
ARM GAS  C:\Users\Luggi\AppData\Local\Temp\ccMT3Vh5.s 			page 33


 436      2720272D 
 437 0066 6F272027 		.ascii	"o' '-ffat-lto-objects'\000"
 437      2D666661 
 437      742D6C74 
 437      6F2D6F62 
 437      6A656374 
 438              		.text
 439              		.cfi_sections	.debug_frame
 440              		.section	.text.ADC_DelSig_1_IRQ_Interrupt,"ax",%progbits
 441              		.align	2
 442              		.global	ADC_DelSig_1_IRQ_Interrupt
 443              		.thumb
 444              		.thumb_func
 445              		.type	ADC_DelSig_1_IRQ_Interrupt, %function
 446              	ADC_DelSig_1_IRQ_Interrupt:
 447              	.LFB3:
 448              		.file 1 "Generated_Source\\PSoC5\\ADC_DelSig_1_IRQ.c"
   1:Generated_Source\PSoC5/ADC_DelSig_1_IRQ.c **** /*******************************************************************************
   2:Generated_Source\PSoC5/ADC_DelSig_1_IRQ.c **** * File Name: ADC_DelSig_1_IRQ.c  
   3:Generated_Source\PSoC5/ADC_DelSig_1_IRQ.c **** * Version 1.70
   4:Generated_Source\PSoC5/ADC_DelSig_1_IRQ.c **** *
   5:Generated_Source\PSoC5/ADC_DelSig_1_IRQ.c **** *  Description:
   6:Generated_Source\PSoC5/ADC_DelSig_1_IRQ.c **** *   API for controlling the state of an interrupt.
   7:Generated_Source\PSoC5/ADC_DelSig_1_IRQ.c **** *
   8:Generated_Source\PSoC5/ADC_DelSig_1_IRQ.c **** *
   9:Generated_Source\PSoC5/ADC_DelSig_1_IRQ.c **** *  Note:
  10:Generated_Source\PSoC5/ADC_DelSig_1_IRQ.c **** *
  11:Generated_Source\PSoC5/ADC_DelSig_1_IRQ.c **** ********************************************************************************
  12:Generated_Source\PSoC5/ADC_DelSig_1_IRQ.c **** * Copyright 2008-2015, Cypress Semiconductor Corporation.  All rights reserved.
  13:Generated_Source\PSoC5/ADC_DelSig_1_IRQ.c **** * You may use this file only in accordance with the license, terms, conditions, 
  14:Generated_Source\PSoC5/ADC_DelSig_1_IRQ.c **** * disclaimers, and limitations in the end user license agreement accompanying 
  15:Generated_Source\PSoC5/ADC_DelSig_1_IRQ.c **** * the software package with which this file was provided.
  16:Generated_Source\PSoC5/ADC_DelSig_1_IRQ.c **** *******************************************************************************/
  17:Generated_Source\PSoC5/ADC_DelSig_1_IRQ.c **** 
  18:Generated_Source\PSoC5/ADC_DelSig_1_IRQ.c **** 
  19:Generated_Source\PSoC5/ADC_DelSig_1_IRQ.c **** #include <cydevice_trm.h>
  20:Generated_Source\PSoC5/ADC_DelSig_1_IRQ.c **** #include <CyLib.h>
  21:Generated_Source\PSoC5/ADC_DelSig_1_IRQ.c **** #include <ADC_DelSig_1_IRQ.h>
  22:Generated_Source\PSoC5/ADC_DelSig_1_IRQ.c **** 
  23:Generated_Source\PSoC5/ADC_DelSig_1_IRQ.c **** 
  24:Generated_Source\PSoC5/ADC_DelSig_1_IRQ.c **** #if !defined(ADC_DelSig_1_IRQ__REMOVED) /* Check for removal by optimization */
  25:Generated_Source\PSoC5/ADC_DelSig_1_IRQ.c **** 
  26:Generated_Source\PSoC5/ADC_DelSig_1_IRQ.c **** /*******************************************************************************
  27:Generated_Source\PSoC5/ADC_DelSig_1_IRQ.c **** *  Place your includes, defines and code here 
  28:Generated_Source\PSoC5/ADC_DelSig_1_IRQ.c **** ********************************************************************************/
  29:Generated_Source\PSoC5/ADC_DelSig_1_IRQ.c **** /* `#START ADC_DelSig_1_IRQ_intc` */
  30:Generated_Source\PSoC5/ADC_DelSig_1_IRQ.c **** 
  31:Generated_Source\PSoC5/ADC_DelSig_1_IRQ.c **** /* `#END` */
  32:Generated_Source\PSoC5/ADC_DelSig_1_IRQ.c **** 
  33:Generated_Source\PSoC5/ADC_DelSig_1_IRQ.c **** #ifndef CYINT_IRQ_BASE
  34:Generated_Source\PSoC5/ADC_DelSig_1_IRQ.c **** #define CYINT_IRQ_BASE      16
  35:Generated_Source\PSoC5/ADC_DelSig_1_IRQ.c **** #endif /* CYINT_IRQ_BASE */
  36:Generated_Source\PSoC5/ADC_DelSig_1_IRQ.c **** #ifndef CYINT_VECT_TABLE
  37:Generated_Source\PSoC5/ADC_DelSig_1_IRQ.c **** #define CYINT_VECT_TABLE    ((cyisraddress **) CYREG_NVIC_VECT_OFFSET)
  38:Generated_Source\PSoC5/ADC_DelSig_1_IRQ.c **** #endif /* CYINT_VECT_TABLE */
  39:Generated_Source\PSoC5/ADC_DelSig_1_IRQ.c **** 
  40:Generated_Source\PSoC5/ADC_DelSig_1_IRQ.c **** /* Declared in startup, used to set unused interrupts to. */
ARM GAS  C:\Users\Luggi\AppData\Local\Temp\ccMT3Vh5.s 			page 34


  41:Generated_Source\PSoC5/ADC_DelSig_1_IRQ.c **** CY_ISR_PROTO(IntDefaultHandler);
  42:Generated_Source\PSoC5/ADC_DelSig_1_IRQ.c **** 
  43:Generated_Source\PSoC5/ADC_DelSig_1_IRQ.c **** 
  44:Generated_Source\PSoC5/ADC_DelSig_1_IRQ.c **** /*******************************************************************************
  45:Generated_Source\PSoC5/ADC_DelSig_1_IRQ.c **** * Function Name: ADC_DelSig_1_IRQ_Start
  46:Generated_Source\PSoC5/ADC_DelSig_1_IRQ.c **** ********************************************************************************
  47:Generated_Source\PSoC5/ADC_DelSig_1_IRQ.c **** *
  48:Generated_Source\PSoC5/ADC_DelSig_1_IRQ.c **** * Summary:
  49:Generated_Source\PSoC5/ADC_DelSig_1_IRQ.c **** *  Set up the interrupt and enable it. This function disables the interrupt, 
  50:Generated_Source\PSoC5/ADC_DelSig_1_IRQ.c **** *  sets the default interrupt vector, sets the priority from the value in the
  51:Generated_Source\PSoC5/ADC_DelSig_1_IRQ.c **** *  Design Wide Resources Interrupt Editor, then enables the interrupt to the 
  52:Generated_Source\PSoC5/ADC_DelSig_1_IRQ.c **** *  interrupt controller.
  53:Generated_Source\PSoC5/ADC_DelSig_1_IRQ.c **** *
  54:Generated_Source\PSoC5/ADC_DelSig_1_IRQ.c **** * Parameters:  
  55:Generated_Source\PSoC5/ADC_DelSig_1_IRQ.c **** *   None
  56:Generated_Source\PSoC5/ADC_DelSig_1_IRQ.c **** *
  57:Generated_Source\PSoC5/ADC_DelSig_1_IRQ.c **** * Return:
  58:Generated_Source\PSoC5/ADC_DelSig_1_IRQ.c **** *   None
  59:Generated_Source\PSoC5/ADC_DelSig_1_IRQ.c **** *
  60:Generated_Source\PSoC5/ADC_DelSig_1_IRQ.c **** *******************************************************************************/
  61:Generated_Source\PSoC5/ADC_DelSig_1_IRQ.c **** void ADC_DelSig_1_IRQ_Start(void)
  62:Generated_Source\PSoC5/ADC_DelSig_1_IRQ.c **** {
  63:Generated_Source\PSoC5/ADC_DelSig_1_IRQ.c ****     /* For all we know the interrupt is active. */
  64:Generated_Source\PSoC5/ADC_DelSig_1_IRQ.c ****     ADC_DelSig_1_IRQ_Disable();
  65:Generated_Source\PSoC5/ADC_DelSig_1_IRQ.c **** 
  66:Generated_Source\PSoC5/ADC_DelSig_1_IRQ.c ****     /* Set the ISR to point to the ADC_DelSig_1_IRQ Interrupt. */
  67:Generated_Source\PSoC5/ADC_DelSig_1_IRQ.c ****     ADC_DelSig_1_IRQ_SetVector(&ADC_DelSig_1_IRQ_Interrupt);
  68:Generated_Source\PSoC5/ADC_DelSig_1_IRQ.c **** 
  69:Generated_Source\PSoC5/ADC_DelSig_1_IRQ.c ****     /* Set the priority. */
  70:Generated_Source\PSoC5/ADC_DelSig_1_IRQ.c ****     ADC_DelSig_1_IRQ_SetPriority((uint8)ADC_DelSig_1_IRQ_INTC_PRIOR_NUMBER);
  71:Generated_Source\PSoC5/ADC_DelSig_1_IRQ.c **** 
  72:Generated_Source\PSoC5/ADC_DelSig_1_IRQ.c ****     /* Enable it. */
  73:Generated_Source\PSoC5/ADC_DelSig_1_IRQ.c ****     ADC_DelSig_1_IRQ_Enable();
  74:Generated_Source\PSoC5/ADC_DelSig_1_IRQ.c **** }
  75:Generated_Source\PSoC5/ADC_DelSig_1_IRQ.c **** 
  76:Generated_Source\PSoC5/ADC_DelSig_1_IRQ.c **** 
  77:Generated_Source\PSoC5/ADC_DelSig_1_IRQ.c **** /*******************************************************************************
  78:Generated_Source\PSoC5/ADC_DelSig_1_IRQ.c **** * Function Name: ADC_DelSig_1_IRQ_StartEx
  79:Generated_Source\PSoC5/ADC_DelSig_1_IRQ.c **** ********************************************************************************
  80:Generated_Source\PSoC5/ADC_DelSig_1_IRQ.c **** *
  81:Generated_Source\PSoC5/ADC_DelSig_1_IRQ.c **** * Summary:
  82:Generated_Source\PSoC5/ADC_DelSig_1_IRQ.c **** *  Sets up the interrupt and enables it. This function disables the interrupt,
  83:Generated_Source\PSoC5/ADC_DelSig_1_IRQ.c **** *  sets the interrupt vector based on the address passed in, sets the priority 
  84:Generated_Source\PSoC5/ADC_DelSig_1_IRQ.c **** *  from the value in the Design Wide Resources Interrupt Editor, then enables 
  85:Generated_Source\PSoC5/ADC_DelSig_1_IRQ.c **** *  the interrupt to the interrupt controller.
  86:Generated_Source\PSoC5/ADC_DelSig_1_IRQ.c **** *  
  87:Generated_Source\PSoC5/ADC_DelSig_1_IRQ.c **** *  When defining ISR functions, the CY_ISR and CY_ISR_PROTO macros should be 
  88:Generated_Source\PSoC5/ADC_DelSig_1_IRQ.c **** *  used to provide consistent definition across compilers:
  89:Generated_Source\PSoC5/ADC_DelSig_1_IRQ.c **** *  
  90:Generated_Source\PSoC5/ADC_DelSig_1_IRQ.c **** *  Function definition example:
  91:Generated_Source\PSoC5/ADC_DelSig_1_IRQ.c **** *   CY_ISR(MyISR)
  92:Generated_Source\PSoC5/ADC_DelSig_1_IRQ.c **** *   {
  93:Generated_Source\PSoC5/ADC_DelSig_1_IRQ.c **** *   }
  94:Generated_Source\PSoC5/ADC_DelSig_1_IRQ.c **** *   Function prototype example:
  95:Generated_Source\PSoC5/ADC_DelSig_1_IRQ.c **** *   CY_ISR_PROTO(MyISR);
  96:Generated_Source\PSoC5/ADC_DelSig_1_IRQ.c **** *
  97:Generated_Source\PSoC5/ADC_DelSig_1_IRQ.c **** * Parameters:  
ARM GAS  C:\Users\Luggi\AppData\Local\Temp\ccMT3Vh5.s 			page 35


  98:Generated_Source\PSoC5/ADC_DelSig_1_IRQ.c **** *   address: Address of the ISR to set in the interrupt vector table.
  99:Generated_Source\PSoC5/ADC_DelSig_1_IRQ.c **** *
 100:Generated_Source\PSoC5/ADC_DelSig_1_IRQ.c **** * Return:
 101:Generated_Source\PSoC5/ADC_DelSig_1_IRQ.c **** *   None
 102:Generated_Source\PSoC5/ADC_DelSig_1_IRQ.c **** *
 103:Generated_Source\PSoC5/ADC_DelSig_1_IRQ.c **** *******************************************************************************/
 104:Generated_Source\PSoC5/ADC_DelSig_1_IRQ.c **** void ADC_DelSig_1_IRQ_StartEx(cyisraddress address)
 105:Generated_Source\PSoC5/ADC_DelSig_1_IRQ.c **** {
 106:Generated_Source\PSoC5/ADC_DelSig_1_IRQ.c ****     /* For all we know the interrupt is active. */
 107:Generated_Source\PSoC5/ADC_DelSig_1_IRQ.c ****     ADC_DelSig_1_IRQ_Disable();
 108:Generated_Source\PSoC5/ADC_DelSig_1_IRQ.c **** 
 109:Generated_Source\PSoC5/ADC_DelSig_1_IRQ.c ****     /* Set the ISR to point to the ADC_DelSig_1_IRQ Interrupt. */
 110:Generated_Source\PSoC5/ADC_DelSig_1_IRQ.c ****     ADC_DelSig_1_IRQ_SetVector(address);
 111:Generated_Source\PSoC5/ADC_DelSig_1_IRQ.c **** 
 112:Generated_Source\PSoC5/ADC_DelSig_1_IRQ.c ****     /* Set the priority. */
 113:Generated_Source\PSoC5/ADC_DelSig_1_IRQ.c ****     ADC_DelSig_1_IRQ_SetPriority((uint8)ADC_DelSig_1_IRQ_INTC_PRIOR_NUMBER);
 114:Generated_Source\PSoC5/ADC_DelSig_1_IRQ.c **** 
 115:Generated_Source\PSoC5/ADC_DelSig_1_IRQ.c ****     /* Enable it. */
 116:Generated_Source\PSoC5/ADC_DelSig_1_IRQ.c ****     ADC_DelSig_1_IRQ_Enable();
 117:Generated_Source\PSoC5/ADC_DelSig_1_IRQ.c **** }
 118:Generated_Source\PSoC5/ADC_DelSig_1_IRQ.c **** 
 119:Generated_Source\PSoC5/ADC_DelSig_1_IRQ.c **** 
 120:Generated_Source\PSoC5/ADC_DelSig_1_IRQ.c **** /*******************************************************************************
 121:Generated_Source\PSoC5/ADC_DelSig_1_IRQ.c **** * Function Name: ADC_DelSig_1_IRQ_Stop
 122:Generated_Source\PSoC5/ADC_DelSig_1_IRQ.c **** ********************************************************************************
 123:Generated_Source\PSoC5/ADC_DelSig_1_IRQ.c **** *
 124:Generated_Source\PSoC5/ADC_DelSig_1_IRQ.c **** * Summary:
 125:Generated_Source\PSoC5/ADC_DelSig_1_IRQ.c **** *   Disables and removes the interrupt.
 126:Generated_Source\PSoC5/ADC_DelSig_1_IRQ.c **** *
 127:Generated_Source\PSoC5/ADC_DelSig_1_IRQ.c **** * Parameters:  
 128:Generated_Source\PSoC5/ADC_DelSig_1_IRQ.c **** *   None
 129:Generated_Source\PSoC5/ADC_DelSig_1_IRQ.c **** *
 130:Generated_Source\PSoC5/ADC_DelSig_1_IRQ.c **** * Return:
 131:Generated_Source\PSoC5/ADC_DelSig_1_IRQ.c **** *   None
 132:Generated_Source\PSoC5/ADC_DelSig_1_IRQ.c **** *
 133:Generated_Source\PSoC5/ADC_DelSig_1_IRQ.c **** *******************************************************************************/
 134:Generated_Source\PSoC5/ADC_DelSig_1_IRQ.c **** void ADC_DelSig_1_IRQ_Stop(void)
 135:Generated_Source\PSoC5/ADC_DelSig_1_IRQ.c **** {
 136:Generated_Source\PSoC5/ADC_DelSig_1_IRQ.c ****     /* Disable this interrupt. */
 137:Generated_Source\PSoC5/ADC_DelSig_1_IRQ.c ****     ADC_DelSig_1_IRQ_Disable();
 138:Generated_Source\PSoC5/ADC_DelSig_1_IRQ.c **** 
 139:Generated_Source\PSoC5/ADC_DelSig_1_IRQ.c ****     /* Set the ISR to point to the passive one. */
 140:Generated_Source\PSoC5/ADC_DelSig_1_IRQ.c ****     ADC_DelSig_1_IRQ_SetVector(&IntDefaultHandler);
 141:Generated_Source\PSoC5/ADC_DelSig_1_IRQ.c **** }
 142:Generated_Source\PSoC5/ADC_DelSig_1_IRQ.c **** 
 143:Generated_Source\PSoC5/ADC_DelSig_1_IRQ.c **** 
 144:Generated_Source\PSoC5/ADC_DelSig_1_IRQ.c **** /*******************************************************************************
 145:Generated_Source\PSoC5/ADC_DelSig_1_IRQ.c **** * Function Name: ADC_DelSig_1_IRQ_Interrupt
 146:Generated_Source\PSoC5/ADC_DelSig_1_IRQ.c **** ********************************************************************************
 147:Generated_Source\PSoC5/ADC_DelSig_1_IRQ.c **** *
 148:Generated_Source\PSoC5/ADC_DelSig_1_IRQ.c **** * Summary:
 149:Generated_Source\PSoC5/ADC_DelSig_1_IRQ.c **** *   The default Interrupt Service Routine for ADC_DelSig_1_IRQ.
 150:Generated_Source\PSoC5/ADC_DelSig_1_IRQ.c **** *
 151:Generated_Source\PSoC5/ADC_DelSig_1_IRQ.c **** *   Add custom code between the coments to keep the next version of this file
 152:Generated_Source\PSoC5/ADC_DelSig_1_IRQ.c **** *   from over writting your code.
 153:Generated_Source\PSoC5/ADC_DelSig_1_IRQ.c **** *
 154:Generated_Source\PSoC5/ADC_DelSig_1_IRQ.c **** * Parameters:  
ARM GAS  C:\Users\Luggi\AppData\Local\Temp\ccMT3Vh5.s 			page 36


 155:Generated_Source\PSoC5/ADC_DelSig_1_IRQ.c **** *
 156:Generated_Source\PSoC5/ADC_DelSig_1_IRQ.c **** * Return:
 157:Generated_Source\PSoC5/ADC_DelSig_1_IRQ.c **** *   None
 158:Generated_Source\PSoC5/ADC_DelSig_1_IRQ.c **** *
 159:Generated_Source\PSoC5/ADC_DelSig_1_IRQ.c **** *******************************************************************************/
 160:Generated_Source\PSoC5/ADC_DelSig_1_IRQ.c **** CY_ISR(ADC_DelSig_1_IRQ_Interrupt)
 161:Generated_Source\PSoC5/ADC_DelSig_1_IRQ.c **** {
 449              		.loc 1 161 0
 450              		.cfi_startproc
 451              		@ args = 0, pretend = 0, frame = 0
 452              		@ frame_needed = 0, uses_anonymous_args = 0
 453              		@ link register save eliminated.
 454 0000 7047     		bx	lr
 455              		.cfi_endproc
 456              	.LFE3:
 457              		.size	ADC_DelSig_1_IRQ_Interrupt, .-ADC_DelSig_1_IRQ_Interrupt
 458 0002 00BF     		.section	.text.ADC_DelSig_1_IRQ_SetVector,"ax",%progbits
 459              		.align	2
 460              		.global	ADC_DelSig_1_IRQ_SetVector
 461              		.thumb
 462              		.thumb_func
 463              		.type	ADC_DelSig_1_IRQ_SetVector, %function
 464              	ADC_DelSig_1_IRQ_SetVector:
 465              	.LFB4:
 162:Generated_Source\PSoC5/ADC_DelSig_1_IRQ.c ****     #ifdef ADC_DelSig_1_IRQ_INTERRUPT_INTERRUPT_CALLBACK
 163:Generated_Source\PSoC5/ADC_DelSig_1_IRQ.c ****         ADC_DelSig_1_IRQ_Interrupt_InterruptCallback();
 164:Generated_Source\PSoC5/ADC_DelSig_1_IRQ.c ****     #endif /* ADC_DelSig_1_IRQ_INTERRUPT_INTERRUPT_CALLBACK */ 
 165:Generated_Source\PSoC5/ADC_DelSig_1_IRQ.c **** 
 166:Generated_Source\PSoC5/ADC_DelSig_1_IRQ.c ****     /*  Place your Interrupt code here. */
 167:Generated_Source\PSoC5/ADC_DelSig_1_IRQ.c ****     /* `#START ADC_DelSig_1_IRQ_Interrupt` */
 168:Generated_Source\PSoC5/ADC_DelSig_1_IRQ.c **** 
 169:Generated_Source\PSoC5/ADC_DelSig_1_IRQ.c ****     /* `#END` */
 170:Generated_Source\PSoC5/ADC_DelSig_1_IRQ.c **** }
 171:Generated_Source\PSoC5/ADC_DelSig_1_IRQ.c **** 
 172:Generated_Source\PSoC5/ADC_DelSig_1_IRQ.c **** 
 173:Generated_Source\PSoC5/ADC_DelSig_1_IRQ.c **** /*******************************************************************************
 174:Generated_Source\PSoC5/ADC_DelSig_1_IRQ.c **** * Function Name: ADC_DelSig_1_IRQ_SetVector
 175:Generated_Source\PSoC5/ADC_DelSig_1_IRQ.c **** ********************************************************************************
 176:Generated_Source\PSoC5/ADC_DelSig_1_IRQ.c **** *
 177:Generated_Source\PSoC5/ADC_DelSig_1_IRQ.c **** * Summary:
 178:Generated_Source\PSoC5/ADC_DelSig_1_IRQ.c **** *   Change the ISR vector for the Interrupt. Note calling ADC_DelSig_1_IRQ_Start
 179:Generated_Source\PSoC5/ADC_DelSig_1_IRQ.c **** *   will override any effect this method would have had. To set the vector 
 180:Generated_Source\PSoC5/ADC_DelSig_1_IRQ.c **** *   before the component has been started use ADC_DelSig_1_IRQ_StartEx instead.
 181:Generated_Source\PSoC5/ADC_DelSig_1_IRQ.c **** * 
 182:Generated_Source\PSoC5/ADC_DelSig_1_IRQ.c **** *   When defining ISR functions, the CY_ISR and CY_ISR_PROTO macros should be 
 183:Generated_Source\PSoC5/ADC_DelSig_1_IRQ.c **** *   used to provide consistent definition across compilers:
 184:Generated_Source\PSoC5/ADC_DelSig_1_IRQ.c **** *
 185:Generated_Source\PSoC5/ADC_DelSig_1_IRQ.c **** *   Function definition example:
 186:Generated_Source\PSoC5/ADC_DelSig_1_IRQ.c **** *   CY_ISR(MyISR)
 187:Generated_Source\PSoC5/ADC_DelSig_1_IRQ.c **** *   {
 188:Generated_Source\PSoC5/ADC_DelSig_1_IRQ.c **** *   }
 189:Generated_Source\PSoC5/ADC_DelSig_1_IRQ.c **** *
 190:Generated_Source\PSoC5/ADC_DelSig_1_IRQ.c **** *   Function prototype example:
 191:Generated_Source\PSoC5/ADC_DelSig_1_IRQ.c **** *     CY_ISR_PROTO(MyISR);
 192:Generated_Source\PSoC5/ADC_DelSig_1_IRQ.c **** *
 193:Generated_Source\PSoC5/ADC_DelSig_1_IRQ.c **** * Parameters:
 194:Generated_Source\PSoC5/ADC_DelSig_1_IRQ.c **** *   address: Address of the ISR to set in the interrupt vector table.
ARM GAS  C:\Users\Luggi\AppData\Local\Temp\ccMT3Vh5.s 			page 37


 195:Generated_Source\PSoC5/ADC_DelSig_1_IRQ.c **** *
 196:Generated_Source\PSoC5/ADC_DelSig_1_IRQ.c **** * Return:
 197:Generated_Source\PSoC5/ADC_DelSig_1_IRQ.c **** *   None
 198:Generated_Source\PSoC5/ADC_DelSig_1_IRQ.c **** *
 199:Generated_Source\PSoC5/ADC_DelSig_1_IRQ.c **** *******************************************************************************/
 200:Generated_Source\PSoC5/ADC_DelSig_1_IRQ.c **** void ADC_DelSig_1_IRQ_SetVector(cyisraddress address)
 201:Generated_Source\PSoC5/ADC_DelSig_1_IRQ.c **** {
 466              		.loc 1 201 0
 467              		.cfi_startproc
 468              		@ args = 0, pretend = 0, frame = 0
 469              		@ frame_needed = 0, uses_anonymous_args = 0
 470              		@ link register save eliminated.
 471              	.LVL0:
 202:Generated_Source\PSoC5/ADC_DelSig_1_IRQ.c ****     cyisraddress * ramVectorTable;
 203:Generated_Source\PSoC5/ADC_DelSig_1_IRQ.c **** 
 204:Generated_Source\PSoC5/ADC_DelSig_1_IRQ.c ****     ramVectorTable = (cyisraddress *) *CYINT_VECT_TABLE;
 472              		.loc 1 204 0
 473 0000 024B     		ldr	r3, .L3
 474 0002 1B68     		ldr	r3, [r3]
 475              	.LVL1:
 205:Generated_Source\PSoC5/ADC_DelSig_1_IRQ.c **** 
 206:Generated_Source\PSoC5/ADC_DelSig_1_IRQ.c ****     ramVectorTable[CYINT_IRQ_BASE + (uint32)ADC_DelSig_1_IRQ__INTC_NUMBER] = address;
 476              		.loc 1 206 0
 477 0004 C3F8B400 		str	r0, [r3, #180]
 478 0008 7047     		bx	lr
 479              	.L4:
 480 000a 00BF     		.align	2
 481              	.L3:
 482 000c 08ED00E0 		.word	-536810232
 483              		.cfi_endproc
 484              	.LFE4:
 485              		.size	ADC_DelSig_1_IRQ_SetVector, .-ADC_DelSig_1_IRQ_SetVector
 486              		.section	.text.ADC_DelSig_1_IRQ_GetVector,"ax",%progbits
 487              		.align	2
 488              		.global	ADC_DelSig_1_IRQ_GetVector
 489              		.thumb
 490              		.thumb_func
 491              		.type	ADC_DelSig_1_IRQ_GetVector, %function
 492              	ADC_DelSig_1_IRQ_GetVector:
 493              	.LFB5:
 207:Generated_Source\PSoC5/ADC_DelSig_1_IRQ.c **** }
 208:Generated_Source\PSoC5/ADC_DelSig_1_IRQ.c **** 
 209:Generated_Source\PSoC5/ADC_DelSig_1_IRQ.c **** 
 210:Generated_Source\PSoC5/ADC_DelSig_1_IRQ.c **** /*******************************************************************************
 211:Generated_Source\PSoC5/ADC_DelSig_1_IRQ.c **** * Function Name: ADC_DelSig_1_IRQ_GetVector
 212:Generated_Source\PSoC5/ADC_DelSig_1_IRQ.c **** ********************************************************************************
 213:Generated_Source\PSoC5/ADC_DelSig_1_IRQ.c **** *
 214:Generated_Source\PSoC5/ADC_DelSig_1_IRQ.c **** * Summary:
 215:Generated_Source\PSoC5/ADC_DelSig_1_IRQ.c **** *   Gets the "address" of the current ISR vector for the Interrupt.
 216:Generated_Source\PSoC5/ADC_DelSig_1_IRQ.c **** *
 217:Generated_Source\PSoC5/ADC_DelSig_1_IRQ.c **** * Parameters:
 218:Generated_Source\PSoC5/ADC_DelSig_1_IRQ.c **** *   None
 219:Generated_Source\PSoC5/ADC_DelSig_1_IRQ.c **** *
 220:Generated_Source\PSoC5/ADC_DelSig_1_IRQ.c **** * Return:
 221:Generated_Source\PSoC5/ADC_DelSig_1_IRQ.c **** *   Address of the ISR in the interrupt vector table.
 222:Generated_Source\PSoC5/ADC_DelSig_1_IRQ.c **** *
 223:Generated_Source\PSoC5/ADC_DelSig_1_IRQ.c **** *******************************************************************************/
ARM GAS  C:\Users\Luggi\AppData\Local\Temp\ccMT3Vh5.s 			page 38


 224:Generated_Source\PSoC5/ADC_DelSig_1_IRQ.c **** cyisraddress ADC_DelSig_1_IRQ_GetVector(void)
 225:Generated_Source\PSoC5/ADC_DelSig_1_IRQ.c **** {
 494              		.loc 1 225 0
 495              		.cfi_startproc
 496              		@ args = 0, pretend = 0, frame = 0
 497              		@ frame_needed = 0, uses_anonymous_args = 0
 498              		@ link register save eliminated.
 226:Generated_Source\PSoC5/ADC_DelSig_1_IRQ.c ****     cyisraddress * ramVectorTable;
 227:Generated_Source\PSoC5/ADC_DelSig_1_IRQ.c **** 
 228:Generated_Source\PSoC5/ADC_DelSig_1_IRQ.c ****     ramVectorTable = (cyisraddress *) *CYINT_VECT_TABLE;
 499              		.loc 1 228 0
 500 0000 024B     		ldr	r3, .L6
 501 0002 1B68     		ldr	r3, [r3]
 502              	.LVL2:
 229:Generated_Source\PSoC5/ADC_DelSig_1_IRQ.c **** 
 230:Generated_Source\PSoC5/ADC_DelSig_1_IRQ.c ****     return ramVectorTable[CYINT_IRQ_BASE + (uint32)ADC_DelSig_1_IRQ__INTC_NUMBER];
 231:Generated_Source\PSoC5/ADC_DelSig_1_IRQ.c **** }
 503              		.loc 1 231 0
 504 0004 D3F8B400 		ldr	r0, [r3, #180]
 505 0008 7047     		bx	lr
 506              	.L7:
 507 000a 00BF     		.align	2
 508              	.L6:
 509 000c 08ED00E0 		.word	-536810232
 510              		.cfi_endproc
 511              	.LFE5:
 512              		.size	ADC_DelSig_1_IRQ_GetVector, .-ADC_DelSig_1_IRQ_GetVector
 513              		.section	.text.ADC_DelSig_1_IRQ_SetPriority,"ax",%progbits
 514              		.align	2
 515              		.global	ADC_DelSig_1_IRQ_SetPriority
 516              		.thumb
 517              		.thumb_func
 518              		.type	ADC_DelSig_1_IRQ_SetPriority, %function
 519              	ADC_DelSig_1_IRQ_SetPriority:
 520              	.LFB6:
 232:Generated_Source\PSoC5/ADC_DelSig_1_IRQ.c **** 
 233:Generated_Source\PSoC5/ADC_DelSig_1_IRQ.c **** 
 234:Generated_Source\PSoC5/ADC_DelSig_1_IRQ.c **** /*******************************************************************************
 235:Generated_Source\PSoC5/ADC_DelSig_1_IRQ.c **** * Function Name: ADC_DelSig_1_IRQ_SetPriority
 236:Generated_Source\PSoC5/ADC_DelSig_1_IRQ.c **** ********************************************************************************
 237:Generated_Source\PSoC5/ADC_DelSig_1_IRQ.c **** *
 238:Generated_Source\PSoC5/ADC_DelSig_1_IRQ.c **** * Summary:
 239:Generated_Source\PSoC5/ADC_DelSig_1_IRQ.c **** *   Sets the Priority of the Interrupt. 
 240:Generated_Source\PSoC5/ADC_DelSig_1_IRQ.c **** *
 241:Generated_Source\PSoC5/ADC_DelSig_1_IRQ.c **** *   Note calling ADC_DelSig_1_IRQ_Start or ADC_DelSig_1_IRQ_StartEx will 
 242:Generated_Source\PSoC5/ADC_DelSig_1_IRQ.c **** *   override any effect this API would have had. This API should only be called
 243:Generated_Source\PSoC5/ADC_DelSig_1_IRQ.c **** *   after ADC_DelSig_1_IRQ_Start or ADC_DelSig_1_IRQ_StartEx has been called. 
 244:Generated_Source\PSoC5/ADC_DelSig_1_IRQ.c **** *   To set the initial priority for the component, use the Design-Wide Resources
 245:Generated_Source\PSoC5/ADC_DelSig_1_IRQ.c **** *   Interrupt Editor.
 246:Generated_Source\PSoC5/ADC_DelSig_1_IRQ.c **** *
 247:Generated_Source\PSoC5/ADC_DelSig_1_IRQ.c **** *   Note This API has no effect on Non-maskable interrupt NMI).
 248:Generated_Source\PSoC5/ADC_DelSig_1_IRQ.c **** *
 249:Generated_Source\PSoC5/ADC_DelSig_1_IRQ.c **** * Parameters:
 250:Generated_Source\PSoC5/ADC_DelSig_1_IRQ.c **** *   priority: Priority of the interrupt, 0 being the highest priority
 251:Generated_Source\PSoC5/ADC_DelSig_1_IRQ.c **** *             PSoC 3 and PSoC 5LP: Priority is from 0 to 7.
 252:Generated_Source\PSoC5/ADC_DelSig_1_IRQ.c **** *             PSoC 4: Priority is from 0 to 3.
 253:Generated_Source\PSoC5/ADC_DelSig_1_IRQ.c **** *
ARM GAS  C:\Users\Luggi\AppData\Local\Temp\ccMT3Vh5.s 			page 39


 254:Generated_Source\PSoC5/ADC_DelSig_1_IRQ.c **** * Return:
 255:Generated_Source\PSoC5/ADC_DelSig_1_IRQ.c **** *   None
 256:Generated_Source\PSoC5/ADC_DelSig_1_IRQ.c **** *
 257:Generated_Source\PSoC5/ADC_DelSig_1_IRQ.c **** *******************************************************************************/
 258:Generated_Source\PSoC5/ADC_DelSig_1_IRQ.c **** void ADC_DelSig_1_IRQ_SetPriority(uint8 priority)
 259:Generated_Source\PSoC5/ADC_DelSig_1_IRQ.c **** {
 521              		.loc 1 259 0
 522              		.cfi_startproc
 523              		@ args = 0, pretend = 0, frame = 0
 524              		@ frame_needed = 0, uses_anonymous_args = 0
 525              		@ link register save eliminated.
 526              	.LVL3:
 260:Generated_Source\PSoC5/ADC_DelSig_1_IRQ.c ****     *ADC_DelSig_1_IRQ_INTC_PRIOR = priority << 5;
 527              		.loc 1 260 0
 528 0000 4001     		lsls	r0, r0, #5
 529              	.LVL4:
 530 0002 C0B2     		uxtb	r0, r0
 531 0004 014B     		ldr	r3, .L9
 532 0006 1870     		strb	r0, [r3]
 533 0008 7047     		bx	lr
 534              	.L10:
 535 000a 00BF     		.align	2
 536              	.L9:
 537 000c 1DE400E0 		.word	-536812515
 538              		.cfi_endproc
 539              	.LFE6:
 540              		.size	ADC_DelSig_1_IRQ_SetPriority, .-ADC_DelSig_1_IRQ_SetPriority
 541              		.section	.text.ADC_DelSig_1_IRQ_GetPriority,"ax",%progbits
 542              		.align	2
 543              		.global	ADC_DelSig_1_IRQ_GetPriority
 544              		.thumb
 545              		.thumb_func
 546              		.type	ADC_DelSig_1_IRQ_GetPriority, %function
 547              	ADC_DelSig_1_IRQ_GetPriority:
 548              	.LFB7:
 261:Generated_Source\PSoC5/ADC_DelSig_1_IRQ.c **** }
 262:Generated_Source\PSoC5/ADC_DelSig_1_IRQ.c **** 
 263:Generated_Source\PSoC5/ADC_DelSig_1_IRQ.c **** 
 264:Generated_Source\PSoC5/ADC_DelSig_1_IRQ.c **** /*******************************************************************************
 265:Generated_Source\PSoC5/ADC_DelSig_1_IRQ.c **** * Function Name: ADC_DelSig_1_IRQ_GetPriority
 266:Generated_Source\PSoC5/ADC_DelSig_1_IRQ.c **** ********************************************************************************
 267:Generated_Source\PSoC5/ADC_DelSig_1_IRQ.c **** *
 268:Generated_Source\PSoC5/ADC_DelSig_1_IRQ.c **** * Summary:
 269:Generated_Source\PSoC5/ADC_DelSig_1_IRQ.c **** *   Gets the Priority of the Interrupt.
 270:Generated_Source\PSoC5/ADC_DelSig_1_IRQ.c **** *
 271:Generated_Source\PSoC5/ADC_DelSig_1_IRQ.c **** * Parameters:
 272:Generated_Source\PSoC5/ADC_DelSig_1_IRQ.c **** *   None
 273:Generated_Source\PSoC5/ADC_DelSig_1_IRQ.c **** *
 274:Generated_Source\PSoC5/ADC_DelSig_1_IRQ.c **** * Return:
 275:Generated_Source\PSoC5/ADC_DelSig_1_IRQ.c **** *   Priority of the interrupt, 0 being the highest priority
 276:Generated_Source\PSoC5/ADC_DelSig_1_IRQ.c **** *    PSoC 3 and PSoC 5LP: Priority is from 0 to 7.
 277:Generated_Source\PSoC5/ADC_DelSig_1_IRQ.c **** *    PSoC 4: Priority is from 0 to 3.
 278:Generated_Source\PSoC5/ADC_DelSig_1_IRQ.c **** *
 279:Generated_Source\PSoC5/ADC_DelSig_1_IRQ.c **** *******************************************************************************/
 280:Generated_Source\PSoC5/ADC_DelSig_1_IRQ.c **** uint8 ADC_DelSig_1_IRQ_GetPriority(void)
 281:Generated_Source\PSoC5/ADC_DelSig_1_IRQ.c **** {
 549              		.loc 1 281 0
ARM GAS  C:\Users\Luggi\AppData\Local\Temp\ccMT3Vh5.s 			page 40


 550              		.cfi_startproc
 551              		@ args = 0, pretend = 0, frame = 0
 552              		@ frame_needed = 0, uses_anonymous_args = 0
 553              		@ link register save eliminated.
 282:Generated_Source\PSoC5/ADC_DelSig_1_IRQ.c ****     uint8 priority;
 283:Generated_Source\PSoC5/ADC_DelSig_1_IRQ.c **** 
 284:Generated_Source\PSoC5/ADC_DelSig_1_IRQ.c **** 
 285:Generated_Source\PSoC5/ADC_DelSig_1_IRQ.c ****     priority = *ADC_DelSig_1_IRQ_INTC_PRIOR >> 5;
 554              		.loc 1 285 0
 555 0000 014B     		ldr	r3, .L12
 556 0002 1878     		ldrb	r0, [r3]	@ zero_extendqisi2
 557              	.LVL5:
 286:Generated_Source\PSoC5/ADC_DelSig_1_IRQ.c **** 
 287:Generated_Source\PSoC5/ADC_DelSig_1_IRQ.c ****     return priority;
 288:Generated_Source\PSoC5/ADC_DelSig_1_IRQ.c **** }
 558              		.loc 1 288 0
 559 0004 4009     		lsrs	r0, r0, #5
 560              	.LVL6:
 561 0006 7047     		bx	lr
 562              	.L13:
 563              		.align	2
 564              	.L12:
 565 0008 1DE400E0 		.word	-536812515
 566              		.cfi_endproc
 567              	.LFE7:
 568              		.size	ADC_DelSig_1_IRQ_GetPriority, .-ADC_DelSig_1_IRQ_GetPriority
 569              		.section	.text.ADC_DelSig_1_IRQ_Enable,"ax",%progbits
 570              		.align	2
 571              		.global	ADC_DelSig_1_IRQ_Enable
 572              		.thumb
 573              		.thumb_func
 574              		.type	ADC_DelSig_1_IRQ_Enable, %function
 575              	ADC_DelSig_1_IRQ_Enable:
 576              	.LFB8:
 289:Generated_Source\PSoC5/ADC_DelSig_1_IRQ.c **** 
 290:Generated_Source\PSoC5/ADC_DelSig_1_IRQ.c **** 
 291:Generated_Source\PSoC5/ADC_DelSig_1_IRQ.c **** /*******************************************************************************
 292:Generated_Source\PSoC5/ADC_DelSig_1_IRQ.c **** * Function Name: ADC_DelSig_1_IRQ_Enable
 293:Generated_Source\PSoC5/ADC_DelSig_1_IRQ.c **** ********************************************************************************
 294:Generated_Source\PSoC5/ADC_DelSig_1_IRQ.c **** *
 295:Generated_Source\PSoC5/ADC_DelSig_1_IRQ.c **** * Summary:
 296:Generated_Source\PSoC5/ADC_DelSig_1_IRQ.c **** *   Enables the interrupt to the interrupt controller. Do not call this function
 297:Generated_Source\PSoC5/ADC_DelSig_1_IRQ.c **** *   unless ISR_Start() has been called or the functionality of the ISR_Start() 
 298:Generated_Source\PSoC5/ADC_DelSig_1_IRQ.c **** *   function, which sets the vector and the priority, has been called.
 299:Generated_Source\PSoC5/ADC_DelSig_1_IRQ.c **** *
 300:Generated_Source\PSoC5/ADC_DelSig_1_IRQ.c **** * Parameters:
 301:Generated_Source\PSoC5/ADC_DelSig_1_IRQ.c **** *   None
 302:Generated_Source\PSoC5/ADC_DelSig_1_IRQ.c **** *
 303:Generated_Source\PSoC5/ADC_DelSig_1_IRQ.c **** * Return:
 304:Generated_Source\PSoC5/ADC_DelSig_1_IRQ.c **** *   None
 305:Generated_Source\PSoC5/ADC_DelSig_1_IRQ.c **** *
 306:Generated_Source\PSoC5/ADC_DelSig_1_IRQ.c **** *******************************************************************************/
 307:Generated_Source\PSoC5/ADC_DelSig_1_IRQ.c **** void ADC_DelSig_1_IRQ_Enable(void)
 308:Generated_Source\PSoC5/ADC_DelSig_1_IRQ.c **** {
 577              		.loc 1 308 0
 578              		.cfi_startproc
 579              		@ args = 0, pretend = 0, frame = 0
ARM GAS  C:\Users\Luggi\AppData\Local\Temp\ccMT3Vh5.s 			page 41


 580              		@ frame_needed = 0, uses_anonymous_args = 0
 581              		@ link register save eliminated.
 309:Generated_Source\PSoC5/ADC_DelSig_1_IRQ.c ****     /* Enable the general interrupt. */
 310:Generated_Source\PSoC5/ADC_DelSig_1_IRQ.c ****     *ADC_DelSig_1_IRQ_INTC_SET_EN = ADC_DelSig_1_IRQ__INTC_MASK;
 582              		.loc 1 310 0
 583 0000 4FF00052 		mov	r2, #536870912
 584 0004 014B     		ldr	r3, .L15
 585 0006 1A60     		str	r2, [r3]
 586 0008 7047     		bx	lr
 587              	.L16:
 588 000a 00BF     		.align	2
 589              	.L15:
 590 000c 00E100E0 		.word	-536813312
 591              		.cfi_endproc
 592              	.LFE8:
 593              		.size	ADC_DelSig_1_IRQ_Enable, .-ADC_DelSig_1_IRQ_Enable
 594              		.section	.text.ADC_DelSig_1_IRQ_GetState,"ax",%progbits
 595              		.align	2
 596              		.global	ADC_DelSig_1_IRQ_GetState
 597              		.thumb
 598              		.thumb_func
 599              		.type	ADC_DelSig_1_IRQ_GetState, %function
 600              	ADC_DelSig_1_IRQ_GetState:
 601              	.LFB9:
 311:Generated_Source\PSoC5/ADC_DelSig_1_IRQ.c **** }
 312:Generated_Source\PSoC5/ADC_DelSig_1_IRQ.c **** 
 313:Generated_Source\PSoC5/ADC_DelSig_1_IRQ.c **** 
 314:Generated_Source\PSoC5/ADC_DelSig_1_IRQ.c **** /*******************************************************************************
 315:Generated_Source\PSoC5/ADC_DelSig_1_IRQ.c **** * Function Name: ADC_DelSig_1_IRQ_GetState
 316:Generated_Source\PSoC5/ADC_DelSig_1_IRQ.c **** ********************************************************************************
 317:Generated_Source\PSoC5/ADC_DelSig_1_IRQ.c **** *
 318:Generated_Source\PSoC5/ADC_DelSig_1_IRQ.c **** * Summary:
 319:Generated_Source\PSoC5/ADC_DelSig_1_IRQ.c **** *   Gets the state (enabled, disabled) of the Interrupt.
 320:Generated_Source\PSoC5/ADC_DelSig_1_IRQ.c **** *
 321:Generated_Source\PSoC5/ADC_DelSig_1_IRQ.c **** * Parameters:
 322:Generated_Source\PSoC5/ADC_DelSig_1_IRQ.c **** *   None
 323:Generated_Source\PSoC5/ADC_DelSig_1_IRQ.c **** *
 324:Generated_Source\PSoC5/ADC_DelSig_1_IRQ.c **** * Return:
 325:Generated_Source\PSoC5/ADC_DelSig_1_IRQ.c **** *   1 if enabled, 0 if disabled.
 326:Generated_Source\PSoC5/ADC_DelSig_1_IRQ.c **** *
 327:Generated_Source\PSoC5/ADC_DelSig_1_IRQ.c **** *******************************************************************************/
 328:Generated_Source\PSoC5/ADC_DelSig_1_IRQ.c **** uint8 ADC_DelSig_1_IRQ_GetState(void)
 329:Generated_Source\PSoC5/ADC_DelSig_1_IRQ.c **** {
 602              		.loc 1 329 0
 603              		.cfi_startproc
 604              		@ args = 0, pretend = 0, frame = 0
 605              		@ frame_needed = 0, uses_anonymous_args = 0
 606              		@ link register save eliminated.
 330:Generated_Source\PSoC5/ADC_DelSig_1_IRQ.c ****     /* Get the state of the general interrupt. */
 331:Generated_Source\PSoC5/ADC_DelSig_1_IRQ.c ****     return ((*ADC_DelSig_1_IRQ_INTC_SET_EN & (uint32)ADC_DelSig_1_IRQ__INTC_MASK) != 0u) ? 1u:0u;
 607              		.loc 1 331 0
 608 0000 044B     		ldr	r3, .L20
 609 0002 1B68     		ldr	r3, [r3]
 610 0004 13F0005F 		tst	r3, #536870912
 611 0008 01D0     		beq	.L19
 612 000a 0120     		movs	r0, #1
 613 000c 7047     		bx	lr
ARM GAS  C:\Users\Luggi\AppData\Local\Temp\ccMT3Vh5.s 			page 42


 614              	.L19:
 615 000e 0020     		movs	r0, #0
 332:Generated_Source\PSoC5/ADC_DelSig_1_IRQ.c **** }
 616              		.loc 1 332 0
 617 0010 7047     		bx	lr
 618              	.L21:
 619 0012 00BF     		.align	2
 620              	.L20:
 621 0014 00E100E0 		.word	-536813312
 622              		.cfi_endproc
 623              	.LFE9:
 624              		.size	ADC_DelSig_1_IRQ_GetState, .-ADC_DelSig_1_IRQ_GetState
 625              		.section	.text.ADC_DelSig_1_IRQ_Disable,"ax",%progbits
 626              		.align	2
 627              		.global	ADC_DelSig_1_IRQ_Disable
 628              		.thumb
 629              		.thumb_func
 630              		.type	ADC_DelSig_1_IRQ_Disable, %function
 631              	ADC_DelSig_1_IRQ_Disable:
 632              	.LFB10:
 333:Generated_Source\PSoC5/ADC_DelSig_1_IRQ.c **** 
 334:Generated_Source\PSoC5/ADC_DelSig_1_IRQ.c **** 
 335:Generated_Source\PSoC5/ADC_DelSig_1_IRQ.c **** /*******************************************************************************
 336:Generated_Source\PSoC5/ADC_DelSig_1_IRQ.c **** * Function Name: ADC_DelSig_1_IRQ_Disable
 337:Generated_Source\PSoC5/ADC_DelSig_1_IRQ.c **** ********************************************************************************
 338:Generated_Source\PSoC5/ADC_DelSig_1_IRQ.c **** *
 339:Generated_Source\PSoC5/ADC_DelSig_1_IRQ.c **** * Summary:
 340:Generated_Source\PSoC5/ADC_DelSig_1_IRQ.c **** *   Disables the Interrupt in the interrupt controller.
 341:Generated_Source\PSoC5/ADC_DelSig_1_IRQ.c **** *
 342:Generated_Source\PSoC5/ADC_DelSig_1_IRQ.c **** * Parameters:
 343:Generated_Source\PSoC5/ADC_DelSig_1_IRQ.c **** *   None
 344:Generated_Source\PSoC5/ADC_DelSig_1_IRQ.c **** *
 345:Generated_Source\PSoC5/ADC_DelSig_1_IRQ.c **** * Return:
 346:Generated_Source\PSoC5/ADC_DelSig_1_IRQ.c **** *   None
 347:Generated_Source\PSoC5/ADC_DelSig_1_IRQ.c **** *
 348:Generated_Source\PSoC5/ADC_DelSig_1_IRQ.c **** *******************************************************************************/
 349:Generated_Source\PSoC5/ADC_DelSig_1_IRQ.c **** void ADC_DelSig_1_IRQ_Disable(void)
 350:Generated_Source\PSoC5/ADC_DelSig_1_IRQ.c **** {
 633              		.loc 1 350 0
 634              		.cfi_startproc
 635              		@ args = 0, pretend = 0, frame = 0
 636              		@ frame_needed = 0, uses_anonymous_args = 0
 637              		@ link register save eliminated.
 351:Generated_Source\PSoC5/ADC_DelSig_1_IRQ.c ****     /* Disable the general interrupt. */
 352:Generated_Source\PSoC5/ADC_DelSig_1_IRQ.c ****     *ADC_DelSig_1_IRQ_INTC_CLR_EN = ADC_DelSig_1_IRQ__INTC_MASK;
 638              		.loc 1 352 0
 639 0000 4FF00052 		mov	r2, #536870912
 640 0004 014B     		ldr	r3, .L23
 641 0006 1A60     		str	r2, [r3]
 642 0008 7047     		bx	lr
 643              	.L24:
 644 000a 00BF     		.align	2
 645              	.L23:
 646 000c 80E100E0 		.word	-536813184
 647              		.cfi_endproc
 648              	.LFE10:
 649              		.size	ADC_DelSig_1_IRQ_Disable, .-ADC_DelSig_1_IRQ_Disable
ARM GAS  C:\Users\Luggi\AppData\Local\Temp\ccMT3Vh5.s 			page 43


 650              		.section	.text.ADC_DelSig_1_IRQ_Start,"ax",%progbits
 651              		.align	2
 652              		.global	ADC_DelSig_1_IRQ_Start
 653              		.thumb
 654              		.thumb_func
 655              		.type	ADC_DelSig_1_IRQ_Start, %function
 656              	ADC_DelSig_1_IRQ_Start:
 657              	.LFB0:
  62:Generated_Source\PSoC5/ADC_DelSig_1_IRQ.c ****     /* For all we know the interrupt is active. */
 658              		.loc 1 62 0
 659              		.cfi_startproc
 660              		@ args = 0, pretend = 0, frame = 0
 661              		@ frame_needed = 0, uses_anonymous_args = 0
 662 0000 08B5     		push	{r3, lr}
 663              		.cfi_def_cfa_offset 8
 664              		.cfi_offset 3, -8
 665              		.cfi_offset 14, -4
  64:Generated_Source\PSoC5/ADC_DelSig_1_IRQ.c **** 
 666              		.loc 1 64 0
 667 0002 FFF7FEFF 		bl	ADC_DelSig_1_IRQ_Disable
 668              	.LVL7:
  67:Generated_Source\PSoC5/ADC_DelSig_1_IRQ.c **** 
 669              		.loc 1 67 0
 670 0006 0448     		ldr	r0, .L27
 671 0008 FFF7FEFF 		bl	ADC_DelSig_1_IRQ_SetVector
 672              	.LVL8:
  70:Generated_Source\PSoC5/ADC_DelSig_1_IRQ.c **** 
 673              		.loc 1 70 0
 674 000c 0720     		movs	r0, #7
 675 000e FFF7FEFF 		bl	ADC_DelSig_1_IRQ_SetPriority
 676              	.LVL9:
  73:Generated_Source\PSoC5/ADC_DelSig_1_IRQ.c **** }
 677              		.loc 1 73 0
 678 0012 FFF7FEFF 		bl	ADC_DelSig_1_IRQ_Enable
 679              	.LVL10:
 680 0016 08BD     		pop	{r3, pc}
 681              	.L28:
 682              		.align	2
 683              	.L27:
 684 0018 00000000 		.word	ADC_DelSig_1_IRQ_Interrupt
 685              		.cfi_endproc
 686              	.LFE0:
 687              		.size	ADC_DelSig_1_IRQ_Start, .-ADC_DelSig_1_IRQ_Start
 688              		.section	.text.ADC_DelSig_1_IRQ_StartEx,"ax",%progbits
 689              		.align	2
 690              		.global	ADC_DelSig_1_IRQ_StartEx
 691              		.thumb
 692              		.thumb_func
 693              		.type	ADC_DelSig_1_IRQ_StartEx, %function
 694              	ADC_DelSig_1_IRQ_StartEx:
 695              	.LFB1:
 105:Generated_Source\PSoC5/ADC_DelSig_1_IRQ.c ****     /* For all we know the interrupt is active. */
 696              		.loc 1 105 0
 697              		.cfi_startproc
 698              		@ args = 0, pretend = 0, frame = 0
 699              		@ frame_needed = 0, uses_anonymous_args = 0
 700              	.LVL11:
ARM GAS  C:\Users\Luggi\AppData\Local\Temp\ccMT3Vh5.s 			page 44


 701 0000 10B5     		push	{r4, lr}
 702              		.cfi_def_cfa_offset 8
 703              		.cfi_offset 4, -8
 704              		.cfi_offset 14, -4
 705 0002 0446     		mov	r4, r0
 107:Generated_Source\PSoC5/ADC_DelSig_1_IRQ.c **** 
 706              		.loc 1 107 0
 707 0004 FFF7FEFF 		bl	ADC_DelSig_1_IRQ_Disable
 708              	.LVL12:
 110:Generated_Source\PSoC5/ADC_DelSig_1_IRQ.c **** 
 709              		.loc 1 110 0
 710 0008 2046     		mov	r0, r4
 711 000a FFF7FEFF 		bl	ADC_DelSig_1_IRQ_SetVector
 712              	.LVL13:
 113:Generated_Source\PSoC5/ADC_DelSig_1_IRQ.c **** 
 713              		.loc 1 113 0
 714 000e 0720     		movs	r0, #7
 715 0010 FFF7FEFF 		bl	ADC_DelSig_1_IRQ_SetPriority
 716              	.LVL14:
 116:Generated_Source\PSoC5/ADC_DelSig_1_IRQ.c **** }
 717              		.loc 1 116 0
 718 0014 FFF7FEFF 		bl	ADC_DelSig_1_IRQ_Enable
 719              	.LVL15:
 720 0018 10BD     		pop	{r4, pc}
 721              		.cfi_endproc
 722              	.LFE1:
 723              		.size	ADC_DelSig_1_IRQ_StartEx, .-ADC_DelSig_1_IRQ_StartEx
 724 001a 00BF     		.section	.text.ADC_DelSig_1_IRQ_Stop,"ax",%progbits
 725              		.align	2
 726              		.global	ADC_DelSig_1_IRQ_Stop
 727              		.thumb
 728              		.thumb_func
 729              		.type	ADC_DelSig_1_IRQ_Stop, %function
 730              	ADC_DelSig_1_IRQ_Stop:
 731              	.LFB2:
 135:Generated_Source\PSoC5/ADC_DelSig_1_IRQ.c ****     /* Disable this interrupt. */
 732              		.loc 1 135 0
 733              		.cfi_startproc
 734              		@ args = 0, pretend = 0, frame = 0
 735              		@ frame_needed = 0, uses_anonymous_args = 0
 736 0000 08B5     		push	{r3, lr}
 737              		.cfi_def_cfa_offset 8
 738              		.cfi_offset 3, -8
 739              		.cfi_offset 14, -4
 137:Generated_Source\PSoC5/ADC_DelSig_1_IRQ.c **** 
 740              		.loc 1 137 0
 741 0002 FFF7FEFF 		bl	ADC_DelSig_1_IRQ_Disable
 742              	.LVL16:
 140:Generated_Source\PSoC5/ADC_DelSig_1_IRQ.c **** }
 743              		.loc 1 140 0
 744 0006 0248     		ldr	r0, .L33
 745 0008 FFF7FEFF 		bl	ADC_DelSig_1_IRQ_SetVector
 746              	.LVL17:
 747 000c 08BD     		pop	{r3, pc}
 748              	.L34:
 749 000e 00BF     		.align	2
 750              	.L33:
ARM GAS  C:\Users\Luggi\AppData\Local\Temp\ccMT3Vh5.s 			page 45


 751 0010 00000000 		.word	IntDefaultHandler
 752              		.cfi_endproc
 753              	.LFE2:
 754              		.size	ADC_DelSig_1_IRQ_Stop, .-ADC_DelSig_1_IRQ_Stop
 755              		.section	.text.ADC_DelSig_1_IRQ_SetPending,"ax",%progbits
 756              		.align	2
 757              		.global	ADC_DelSig_1_IRQ_SetPending
 758              		.thumb
 759              		.thumb_func
 760              		.type	ADC_DelSig_1_IRQ_SetPending, %function
 761              	ADC_DelSig_1_IRQ_SetPending:
 762              	.LFB11:
 353:Generated_Source\PSoC5/ADC_DelSig_1_IRQ.c **** }
 354:Generated_Source\PSoC5/ADC_DelSig_1_IRQ.c **** 
 355:Generated_Source\PSoC5/ADC_DelSig_1_IRQ.c **** 
 356:Generated_Source\PSoC5/ADC_DelSig_1_IRQ.c **** /*******************************************************************************
 357:Generated_Source\PSoC5/ADC_DelSig_1_IRQ.c **** * Function Name: ADC_DelSig_1_IRQ_SetPending
 358:Generated_Source\PSoC5/ADC_DelSig_1_IRQ.c **** ********************************************************************************
 359:Generated_Source\PSoC5/ADC_DelSig_1_IRQ.c **** *
 360:Generated_Source\PSoC5/ADC_DelSig_1_IRQ.c **** * Summary:
 361:Generated_Source\PSoC5/ADC_DelSig_1_IRQ.c **** *   Causes the Interrupt to enter the pending state, a software method of
 362:Generated_Source\PSoC5/ADC_DelSig_1_IRQ.c **** *   generating the interrupt.
 363:Generated_Source\PSoC5/ADC_DelSig_1_IRQ.c **** *
 364:Generated_Source\PSoC5/ADC_DelSig_1_IRQ.c **** * Parameters:
 365:Generated_Source\PSoC5/ADC_DelSig_1_IRQ.c **** *   None
 366:Generated_Source\PSoC5/ADC_DelSig_1_IRQ.c **** *
 367:Generated_Source\PSoC5/ADC_DelSig_1_IRQ.c **** * Return:
 368:Generated_Source\PSoC5/ADC_DelSig_1_IRQ.c **** *   None
 369:Generated_Source\PSoC5/ADC_DelSig_1_IRQ.c **** *
 370:Generated_Source\PSoC5/ADC_DelSig_1_IRQ.c **** * Side Effects:
 371:Generated_Source\PSoC5/ADC_DelSig_1_IRQ.c **** *   If interrupts are enabled and the interrupt is set up properly, the ISR is
 372:Generated_Source\PSoC5/ADC_DelSig_1_IRQ.c **** *   entered (depending on the priority of this interrupt and other pending 
 373:Generated_Source\PSoC5/ADC_DelSig_1_IRQ.c **** *   interrupts).
 374:Generated_Source\PSoC5/ADC_DelSig_1_IRQ.c **** *
 375:Generated_Source\PSoC5/ADC_DelSig_1_IRQ.c **** *******************************************************************************/
 376:Generated_Source\PSoC5/ADC_DelSig_1_IRQ.c **** void ADC_DelSig_1_IRQ_SetPending(void)
 377:Generated_Source\PSoC5/ADC_DelSig_1_IRQ.c **** {
 763              		.loc 1 377 0
 764              		.cfi_startproc
 765              		@ args = 0, pretend = 0, frame = 0
 766              		@ frame_needed = 0, uses_anonymous_args = 0
 767              		@ link register save eliminated.
 378:Generated_Source\PSoC5/ADC_DelSig_1_IRQ.c ****     *ADC_DelSig_1_IRQ_INTC_SET_PD = ADC_DelSig_1_IRQ__INTC_MASK;
 768              		.loc 1 378 0
 769 0000 4FF00052 		mov	r2, #536870912
 770 0004 014B     		ldr	r3, .L36
 771 0006 1A60     		str	r2, [r3]
 772 0008 7047     		bx	lr
 773              	.L37:
 774 000a 00BF     		.align	2
 775              	.L36:
 776 000c 00E200E0 		.word	-536813056
 777              		.cfi_endproc
 778              	.LFE11:
 779              		.size	ADC_DelSig_1_IRQ_SetPending, .-ADC_DelSig_1_IRQ_SetPending
 780              		.section	.text.ADC_DelSig_1_IRQ_ClearPending,"ax",%progbits
 781              		.align	2
ARM GAS  C:\Users\Luggi\AppData\Local\Temp\ccMT3Vh5.s 			page 46


 782              		.global	ADC_DelSig_1_IRQ_ClearPending
 783              		.thumb
 784              		.thumb_func
 785              		.type	ADC_DelSig_1_IRQ_ClearPending, %function
 786              	ADC_DelSig_1_IRQ_ClearPending:
 787              	.LFB12:
 379:Generated_Source\PSoC5/ADC_DelSig_1_IRQ.c **** }
 380:Generated_Source\PSoC5/ADC_DelSig_1_IRQ.c **** 
 381:Generated_Source\PSoC5/ADC_DelSig_1_IRQ.c **** 
 382:Generated_Source\PSoC5/ADC_DelSig_1_IRQ.c **** /*******************************************************************************
 383:Generated_Source\PSoC5/ADC_DelSig_1_IRQ.c **** * Function Name: ADC_DelSig_1_IRQ_ClearPending
 384:Generated_Source\PSoC5/ADC_DelSig_1_IRQ.c **** ********************************************************************************
 385:Generated_Source\PSoC5/ADC_DelSig_1_IRQ.c **** *
 386:Generated_Source\PSoC5/ADC_DelSig_1_IRQ.c **** * Summary:
 387:Generated_Source\PSoC5/ADC_DelSig_1_IRQ.c **** *   Clears a pending interrupt in the interrupt controller.
 388:Generated_Source\PSoC5/ADC_DelSig_1_IRQ.c **** *
 389:Generated_Source\PSoC5/ADC_DelSig_1_IRQ.c **** *   Note Some interrupt sources are clear-on-read and require the block 
 390:Generated_Source\PSoC5/ADC_DelSig_1_IRQ.c **** *   interrupt/status register to be read/cleared with the appropriate block API 
 391:Generated_Source\PSoC5/ADC_DelSig_1_IRQ.c **** *   (GPIO, UART, and so on). Otherwise the ISR will continue to remain in 
 392:Generated_Source\PSoC5/ADC_DelSig_1_IRQ.c **** *   pending state even though the interrupt itself is cleared using this API.
 393:Generated_Source\PSoC5/ADC_DelSig_1_IRQ.c **** *
 394:Generated_Source\PSoC5/ADC_DelSig_1_IRQ.c **** * Parameters:
 395:Generated_Source\PSoC5/ADC_DelSig_1_IRQ.c **** *   None
 396:Generated_Source\PSoC5/ADC_DelSig_1_IRQ.c **** *
 397:Generated_Source\PSoC5/ADC_DelSig_1_IRQ.c **** * Return:
 398:Generated_Source\PSoC5/ADC_DelSig_1_IRQ.c **** *   None
 399:Generated_Source\PSoC5/ADC_DelSig_1_IRQ.c **** *
 400:Generated_Source\PSoC5/ADC_DelSig_1_IRQ.c **** *******************************************************************************/
 401:Generated_Source\PSoC5/ADC_DelSig_1_IRQ.c **** void ADC_DelSig_1_IRQ_ClearPending(void)
 402:Generated_Source\PSoC5/ADC_DelSig_1_IRQ.c **** {
 788              		.loc 1 402 0
 789              		.cfi_startproc
 790              		@ args = 0, pretend = 0, frame = 0
 791              		@ frame_needed = 0, uses_anonymous_args = 0
 792              		@ link register save eliminated.
 403:Generated_Source\PSoC5/ADC_DelSig_1_IRQ.c ****     *ADC_DelSig_1_IRQ_INTC_CLR_PD = ADC_DelSig_1_IRQ__INTC_MASK;
 793              		.loc 1 403 0
 794 0000 4FF00052 		mov	r2, #536870912
 795 0004 014B     		ldr	r3, .L39
 796 0006 1A60     		str	r2, [r3]
 797 0008 7047     		bx	lr
 798              	.L40:
 799 000a 00BF     		.align	2
 800              	.L39:
 801 000c 80E200E0 		.word	-536812928
 802              		.cfi_endproc
 803              	.LFE12:
 804              		.size	ADC_DelSig_1_IRQ_ClearPending, .-ADC_DelSig_1_IRQ_ClearPending
 805              		.text
 806              	.Letext0:
 807              		.file 2 "Generated_Source\\PSoC5/cytypes.h"