ARM GAS  C:\Users\Luggi\AppData\Local\Temp\ccYV2Nmq.s 			page 1


   1              		.syntax unified
   2              		.cpu cortex-m3
   3              		.fpu softvfp
   4              		.eabi_attribute 20, 1
   5              		.eabi_attribute 21, 1
   6              		.eabi_attribute 23, 3
   7              		.eabi_attribute 24, 1
   8              		.eabi_attribute 25, 1
   9              		.eabi_attribute 26, 1
  10              		.eabi_attribute 30, 1
  11              		.eabi_attribute 34, 1
  12              		.eabi_attribute 18, 4
  13              		.thumb
  14              		.file	"ADC_DelSig_1_PM.c"
  15              		.text
  16              	.Ltext0:
  17              		.section	.gnu.lto_.profile.304b4173,"",%progbits
  18 0000 789C6366 		.ascii	"x\234cf```a\200\000F\206\020e\000\001?\000\200"
  18      60606061 
  18      80004686 
  18      10650001 
  18      3F0080
  19              		.text
  20              		.section	.gnu.lto_.inline.304b4173,"",%progbits
  21 0000 789C6366 		.ascii	"x\234cf\300\016\322\2414\013\003\003+\013#\003\023\313"
  21      C00ED2A1 
  21      340B0303 
  21      2B0B2303 
  21      13CB
  22 0012 027906B6 		.ascii	"\002y\006\266\005\362L 1&L!f\006\021q\240\220\334\206"
  22      05F24C20 
  22      31264C21 
  22      66061171 
  22      A090DC86 
  23 0026 7AB81023 		.ascii	"z\270\020#\027\214`a\340\025\003J\362\315p\307\"\011"
  23      178C6061 
  23      E015034A 
  23      F2CD70C7 
  23      2209
  24 0038 261800E8 		.ascii	"&\030\000\350-\007\367"
  24      2D07F7
  25              		.text
  26              		.section	.gnu.lto_.jmpfuncs.304b4173,"",%progbits
  27 0000 789C6366 		.ascii	"x\234cf\300\016\204\2414\013\0203100\303\330@\000\000"
  27      C00E84A1 
  27      340B1033 
  27      313030C3 
  27      D8400000 
  28 0014 03770024 		.ascii	"\003w\000$"
  29              		.text
  30              		.section	.gnu.lto_.pureconst.304b4173,"",%progbits
  31 0000 789C6366 		.ascii	"x\234cf``\340d\200\000\026\006)&)f)\026\011\000\002"
  31      6060E064 
  31      80001606 
  31      29262966 
  31      29160900 
  32 0015 CF0080   		.ascii	"\317\000\200"
ARM GAS  C:\Users\Luggi\AppData\Local\Temp\ccYV2Nmq.s 			page 2


  33              		.text
  34              		.section	.gnu.lto_ADC_DelSig_1_SaveConfig.304b4173,"",%progbits
  35 0000 789C658F 		.ascii	"x\234e\217\275K\003A\020\305\347M.\341$\215Z\246\261"
  35      BD4B0341 
  35      10C5E74D 
  35      2EE1248D 
  35      5AA6B1
  36 0013 1411050B 		.ascii	"\024\021\005\013\301J\220\004\254\204@\332@\220x\210"
  36      C14A9004 
  36      AC8440DA 
  36      40907888 
  37 0023 20068296 		.ascii	" \006\202\226\342\236\\!\026\032,D0\332\211\037\211"
  37      E29E5C21 
  37      161A2C44 
  37      30DA891F 
  37      89
  38 0034 06C43FE0 		.ascii	"\006\304?\340\264\020AP4\205\240\240(\021\324\312\030"
  38      B4104150 
  38      3485A0A0 
  38      2811D4CA 
  38      18
  39 0045 881E12E3 		.ascii	"\210\036\022\343l\322\010.,\2633\363\3667\363|\364\377"
  39      6CD2082E 
  39      2CB333F3 
  39      F637F37C 
  39      F4FF
  40 0057 84E40E82 		.ascii	"\204\344\016\202\250[\"|\004\316\\\020\331&\003\372"
  40      A85B227C 
  40      04CE5C10 
  40      D92603FA 
  41 0067 41A039C6 		.ascii	"A\2409\306\034^\271\314\310\270\271\265`\347\226R\352"
  41      1C5EB9CC 
  41      C8B8B9B5 
  41      60E79652 
  41      EA
  42 0078 FDE9DC8E 		.ascii	"\375\351\334\216\272\360\230\250\302M\016\266\321I\""
  42      BAF098A8 
  42      C24D0EB6 
  42      D14922
  43 0087 2A3BB59B 		.ascii	"*;\265\233`\300\021Qk\263\207\035\004\204O\205vW\325"
  43      60C01151 
  43      6BB3871D 
  43      04844F85 
  43      7657D5
  44 009a EB95C2F1 		.ascii	"\353\225\302\3615\014&\217\245V\222\276\236\362\314"
  44      350C268F 
  44      A55692BE 
  44      9EF2CC
  45 00a9 ACA3EF16 		.ascii	"\254\243\357\026'\325\305\323\325\026\375\345\223\365"
  45      27D5C5D3 
  45      D516FDE5 
  45      93F5
  46 00b7 C8B7B3FB 		.ascii	"\310\267\263\373\266\027\366\230U\326V\206\346?\224"
  46      B617F698 
  46      55D65686 
  46      E63F94
  47 00c6 2EAFCC46 		.ascii	".\257\314F\211tZ=\272\37327\260n;\262\215\017\273\010"
ARM GAS  C:\Users\Luggi\AppData\Local\Temp\ccYV2Nmq.s 			page 3


  47      89745A3D 
  47      BAFB3237 
  47      B06E3BB2 
  47      8D0FBB08 
  48 00da 610FE209 		.ascii	"a\017\342\0119l\200n1\277\362\330\241q\"\335,.\035\360"
  48      396C806E 
  48      31BFF2D8 
  48      A17122DD 
  48      2C2E1DF0 
  49 00ee ECB75A50 		.ascii	"\354\267ZP\246\307FM\357\366\227g4\322\035\333\311B"
  49      A6C7464D 
  49      EFF69767 
  49      34D21DDB 
  49      C942
  50 0100 F39456F9 		.ascii	"\363\224V\371\221\307,\3665Pz?\371\345\303@ON\254\271"
  50      91C72CF6 
  50      35507A3F 
  50      F9E5C340 
  50      4F4EACB9 
  51 0114 031E0770 		.ascii	"\003\036\007p \302\217\206}\024\320#\013\323=l\267\350"
  51      20C28F86 
  51      7D14D023 
  51      0BD33D6C 
  51      B7E8
  52 0126 D7F374B5 		.ascii	"\327\363t\265$\036\305\226(\272\206\255)+=:m\215%b\251"
  52      241EC596 
  52      28BA86AD 
  52      292B3D3A 
  52      6D8D2562 
  53 013b 9974D28A 		.ascii	"\231t\322\212Gc\251p\177|(\022ND\254\311\330\304x\242"
  53      4763A970 
  53      7F7C2812 
  53      4E44ACC9 
  53      D8C478A2 
  54 014f 2F111DE9 		.ascii	"/\021\035\351M\322/\320\317\202\006"
  54      4DD22FD0 
  54      CF8206
  55              		.text
  56              		.section	.gnu.lto_ADC_DelSig_1_RestoreConfig.304b4173,"",%progbits
  57 0000 789C658F 		.ascii	"x\234e\217OH\002Q\020\306gfU\026$\250N\341\241c\022"
  57      4F480251 
  57      10C66766 
  57      551624A8 
  57      4EE1A163 
  58 0015 62D0A153 		.ascii	"b\320\241S\247P\352\024\010^\205%l\211 \022\244\216"
  58      A750EA14 
  58      085E8525 
  58      6C892012 
  58      A48E
  59 0027 E2DBD8A0 		.ascii	"\342\333\330\240SY\247 \013:D\226\246\364\367\274t\362"
  59      5359A720 
  59      0B3A4496 
  59      A6F4F7BC 
  59      74F2
  60 0039 20457408 		.ascii	" Et\010\014\214\300\240:\245A\265\204\331\274\365\024"
  60      0C8CC0A0 
  60      3AA541B5 
ARM GAS  C:\Users\Luggi\AppData\Local\Temp\ccYV2Nmq.s 			page 4


  60      84D9BCF5 
  60      14
  61 004a 3D78CC7B 		.ascii	"=x\314{3\337|\277\031\005\376\037\037\337Q\004\010p"
  61      33DF7CBF 
  61      1905FE1F 
  61      1FDF5104 
  61      0870
  62 005c 44059032 		.ascii	"D\005\2202W\000\206J\210\362\001\010i\3024\276P\203"
  62      5700864A 
  62      88F20108 
  62      69C234BE 
  62      5083
  63 006e 3063E537 		.ascii	"0c\3457\275\376=!\304[\363\270o\271\317&\200w\352\330"
  63      BDFE3D21 
  63      C45BF3B8 
  63      6FB9CF26 
  63      8077EAD8 
  64 0082 E03EFA81 		.ascii	"\340>\372\2015\015\263u\347\365\230\254\351\356\324"
  64      350DB375 
  64      E7F598AC 
  64      E9EED4
  65 0091 30871EB6 		.ascii	"0\207\036\266\207R\257%\332\355\323\312zy\000]\0046"
  65      8752AF25 
  65      DAEDD3CA 
  65      7A79005D 
  65      0436
  66 00a3 71B2CE02 		.ascii	"q\262\316\002Iy\"\222Q\251\342\322E\243\262\333%{>I"
  66      49792292 
  66      51A9E2D2 
  66      45A3B2DB 
  66      257B3E49 
  67 00b7 22776E57 		.ascii	"\"wnW\213\224\372\026+B\265\211Z\322\220\263\017\365"
  67      8B94FA16 
  67      2B42B589 
  67      5AD290B3 
  67      0FF5
  68 00c9 EB1BF599 		.ascii	"\353\033\365\2318\343|s\206\231\305m\3342\204T)x\200"
  68      38E37C73 
  68      8699C56D 
  68      DC328454 
  68      297880
  69 00dc 293C449F 		.ascii	")<D\237S\373)\254\235x\202\001\233\\\230gM\323\031\027"
  69      53FB29AC 
  69      9D788201 
  69      9B5C9867 
  69      4DD31917 
  70 00f0 0B18842A 		.ascii	"\013\030\204*^n<\366K\024\313^\313\265\036i\350\026"
  70      5E6E3CF6 
  70      4B14CB5E 
  70      CBB51E69 
  70      E816
  71 0102 5943B8FE 		.ascii	"YC\270\3760\334\216\317\307\331\375\227*\031\246a\271"
  71      30DC8ECF 
  71      C7D9FD97 
  71      2A19A661 
  71      B9
  72 0113 6DF2E011 		.ascii	"m\362\340\021\372\260(!Xb_\236\026jhX\347\343\322P2"
ARM GAS  C:\Users\Luggi\AppData\Local\Temp\ccYV2Nmq.s 			page 5


  72      FAB02821 
  72      58625F9E 
  72      166A6858 
  72      E7E3D250 
  73 0128 EABC20EF 		.ascii	"\352\274 \357\304\274\301\011}^ON-\350\323Z4\261\230"
  73      C4BCC109 
  73      7D5E4F4E 
  73      2DE8D35A 
  73      34B198
  74 013b 8CEBB148 		.ascii	"\214\353\261H4\021\032\211\215\205CZX\237\213\316\316"
  74      34111A89 
  74      8D85435A 
  74      589F8BCE 
  74      CE
  75 014c 68C35A64 		.ascii	"h\303Zdr(\016\277\002\272\177\221"
  75      72280EBF 
  75      02BA7F91 
  76              		.text
  77              		.section	.gnu.lto_ADC_DelSig_1_Sleep.304b4173,"",%progbits
  78 0000 789C8553 		.ascii	"x\234\205S_HSa\024?\347\273\177\347\004\255^\206\017"
  78      5F485361 
  78      143FE7BB 
  78      7FE704AD 
  78      5E860F
  79 0013 BE8E088B 		.ascii	"\276\216\010\213\036z\221\010B\301\247@\360U\030a#\202"
  79      1E7A9108 
  79      42C1A740 
  79      F0551861 
  79      2382
  80 0025 50907A14 		.ascii	"P\220z\024\357\332\252\021a\332KQ[Oe\346\314?\323\262"
  80      EFDAAA11 
  80      61DA4B51 
  80      5B4F65E6 
  80      CC3FD3B2 
  81 0039 526B44B0 		.ascii	"RkD\260\2404\2442\262P\210I\026\031\323\241m\204\332"
  81      A034A432 
  81      B2508849 
  81      1619D3A1 
  81      6D84DA
  82 004c 39DF9DDB 		.ascii	"9\337\235\333\320Z\027\356\371\276\363}\277\363;\277"
  82      D05A17EE 
  82      F9BEF37D 
  82      BFF33BBF 
  83 005c 73CEBD0A 		.ascii	"s\316\275\012\354|\274\364n(\000\373hE\007\240\350\234"
  83      EC7CBCF4 
  83      6E2800FB 
  83      684507A0 
  83      E89C
  84 006e 02F09942 		.ascii	"\002\360\231B(A7X%\006\333RE\250\005\236*\264w\007\310"
  84      28413758 
  84      2506DB52 
  84      45A8059E 
  84      2AB47707 
  85 0083 D3C72BC9 		.ascii	"\323\307+\311\323P\267Ct4\355\215\261\2651\021y\003"
  85      D350B743 
  85      7434ED8D 
  85      B1B53111 
ARM GAS  C:\Users\Luggi\AppData\Local\Temp\ccYV2Nmq.s 			page 6


  85      7903
  86 0095 08ED4251 		.ascii	"\010\355BQ5\3350\261\035\277\211e\201\235\261\310u\247"
  86      35DD30B1 
  86      1DBF8965 
  86      819DB1C8 
  86      75A7
  87 00a7 FB8E6559 		.ascii	"\373\216eY\311\225Q\327yWF\000\244\204\255\010\357\242"
  87      C99551D7 
  87      79574600 
  87      A484AD08 
  87      EFA2
  88 00b9 1B08B31C 		.ascii	"\033\010\263\034X\377\340\324\003\204)\267\357\260\007"
  88      58FFE0D4 
  88      038429B7 
  88      EFB007
  89 00c8 75A47560 		.ascii	"u\244u`w\314\332\334\034Nt\005\217`\231\012\031\201"
  89      77CCDADC 
  89      1C4E7405 
  89      8F60990A 
  89      1981
  90 00da 1A1B9D8D 		.ascii	"\032\033\235\215\301\306\301\246\204\015@\202\"Y\304"
  90      C1C6C1A6 
  90      840D4082 
  90      2259C4
  91 00e9 8210BC2A 		.ascii	"\202\020\274*\263\370|\355\322L(\212\314\366K\250\224"
  91      B3F87CED 
  91      D24C288A 
  91      CCF64BA8 
  91      94
  92 00fa 2831796D 		.ascii	"(1ymBY\024\031!z/\372,\225s\317'\336L\233\362\010\330"
  92      42591419 
  92      217A2FFA 
  92      2C9573CF 
  92      27DE4C9B 
  93 0111 FD39B534 		.ascii	"\3759\2654\343\014\343M_\0003B\301{X\201\275XA\212\""
  93      E30CE34D 
  93      5F003342 
  93      C17B5881 
  93      BD58418A 
  94 0126 18469845 		.ascii	"\030F\230E\177\372\302\017\227M\350\2609\343\341\305"
  94      7FFAC20F 
  94      974DE8B0 
  94      39E3E1C5 
  95 0136 A8CA0488 		.ascii	"\250\312\004\210\200}\204}\217\201\217\376\312,\206"
  95      807D847D 
  95      8F818FFE 
  95      CA2C86
  96 0145 00BEEEB1 		.ascii	"\000\276\356\261\313\206\004\020\315}&\003\026\251@"
  96      CB860410 
  96      CD7D2603 
  96      16A940
  97 0154 D06D6B9C 		.ascii	"\320mk\234\313i\324\213)\350\337\241@\263#^}I\247Je"
  97      CB69D48B 
  97      29E8DFA1 
  97      40B3235E 
  97      7D49A74A 
  98 0169 8272C081 		.ascii	"\202r\300\201-\005\221\216I%\013+\310\252\302\213=\224"
ARM GAS  C:\Users\Luggi\AppData\Local\Temp\ccYV2Nmq.s 			page 7


  98      2D05918E 
  98      49250B2B 
  98      C8AAC28B 
  98      3D94
  99 017b F55C72F0 		.ascii	"\365\\r\360k\227\223\257)\376\326\333\216~\321\366\333"
  99      6B9793AF 
  99      29FED6DB 
  99      8E7ED1F6 
  99      DB
 100 018c 0A5A6646 		.ascii	"\012ZfF\250\353<\200\302\306\250\322\355\361\005B\310"
 100      A8EB3C80 
 100      C2C6A8D2 
 100      EDF10542 
 100      C8
 101 019d B22C4669 		.ascii	"\262,Fi8\210m8\304\264t\267\321w%\252WEh~\261\303\031"
 101      38886D38 
 101      C4B474B7 
 101      D17725AA 
 101      5745687E 
 102 01b4 A1639480 		.ascii	"\241c\224\200+r\3068\214U\004\230\276\321\355/c.\232"
 102      2B72C638 
 102      8C550498 
 102      BED1ED2F 
 102      632E9A
 103 01c7 2A8E5094 		.ascii	"*\216P\224\254{#Tm\013,!\310\367\227s\273\344\030\254"
 103      AC7B2354 
 103      6D0B2C21 
 103      C8F79773 
 103      BBE418AC 
 104 01db 5076326B 		.ascii	"Pv2k#\237\322f\276\021\017r\215x\230o\204j\023\030\304"
 104      239FD266 
 104      BE110F72 
 104      8D78986F 
 104      846A1318 
 105 01f0 91EF7D73 		.ascii	"\221\357}s\366\260\240l\015V\235\\\366\325\241\245\351"
 105      F6B0A06C 
 105      0D569D5C 
 105      F6D5A1A5 
 105      E9
 106 0201 E2656FAF 		.ascii	"\342eo\257s\364\257u\232\\\312\243|\231\217e\231\035"
 106      73F4AF75 
 106      9A5CCAA3 
 106      7C998F65 
 106      991D
 107 0213 FDB753B2 		.ascii	"\375\267S\262LT\000\237\310\344\013B\347\216\177F\177"
 107      4C54009F 
 107      C8E40B42 
 107      E78E7F46 
 107      7F
 108 0224 6C225ECA 		.ascii	"l\"^\312\231a{j#%\277\2141l\243\357\330\2241\006\274"
 108      99617B6A 
 108      2325BF8C 
 108      316CA3EF 
 108      D8943106 
 109 0239 AE96534A 		.ascii	"\256\226SJ\256\376gJ\333\345\216\027\031\313D^\357S"
 109      AEFE674A 
 109      DBE58E17 
ARM GAS  C:\Users\Luggi\AppData\Local\Temp\ccYV2Nmq.s 			page 8


 109      19CB445E 
 109      EF53
 110 024b A9373762 		.ascii	"\25177b\235\216\236e\365\232\362\347a\301\363q\361/"
 110      9D8E9E65 
 110      F59AF2E7 
 110      61C1F371 
 110      F12F
 111 025d C1C482B1 		.ascii	"\301\304\202\261\254\3409\364\305\226\353$\022\370/"
 111      ACE039F4 
 111      C596EB24 
 111      12F82F
 112 026c 442620C0 		.ascii	"D& \300\336:o\263\267\365\370\031\357\011OC\313\331"
 112      DE3A6FB3 
 112      B7F5F819 
 112      EF094F43 
 112      CBD9
 113 027e D6266F63 		.ascii	"\326&oc}CK\315\241\306\243\2655\236Z\357\351\206S'="
 113      7D434BCD 
 113      A1C6A3B5 
 113      359E5AEF 
 113      E9865327 
 114 0293 073DF5C7 		.ascii	"\007=\365\307\3667\301\037\031o}\256"
 114      F637C11F 
 114      196F7DAE 
 115              		.text
 116              		.section	.gnu.lto_ADC_DelSig_1_Wakeup.304b4173,"",%progbits
 117 0000 789C7551 		.ascii	"x\234uQ\317KTQ\024>\337\271\357=\237\215D\270\222\026"
 117      CF4B5451 
 117      143EDFB9 
 117      EF3D9F8D 
 117      44B89216 
 118 0014 B395108D 		.ascii	"\263\225\020\215\026\375\001\245\020\024\2010[a\020"
 118      16FD01A5 
 118      10148130 
 118      5B6110
 119 0023 7B44100A 		.ascii	"{D\020\012R\313\301\373\234)ZDJ\253\260\037\273\312"
 119      52CBC1FB 
 119      9C295A44 
 119      4AABB01F 
 119      BBCA
 120 0035 DFE6182D 		.ascii	"\337\346\030-l3\353Y$&6dQ\033\005\203\240&\003\033\302"
 120      6C33EB59 
 120      24263664 
 120      511B0583 
 120      A026031B 
 121 004a EC9CFB04 		.ascii	"\354\234\373\004\007k\036\274{\356=\367\373\276\363"
 121      076B1EBC 
 121      7BEE3DF7 
 121      FBBEF3
 122 0059 7D5C43FF 		.ascii	"}\\C\377~\347\345\277\304D\035R\021\020x\374\015Q\034"
 122      7EE7E5BF 
 122      C4441D52 
 122      111078FC 
 122      0D511C
 123 006c 329BE534 		.ascii	"2\233\3454\331c\376\273\323d[\014{u'\017~\002\362\001"
 123      D963FEBB 
 123      D3645B0C 
ARM GAS  C:\Users\Luggi\AppData\Local\Temp\ccYV2Nmq.s 			page 9


 123      7B75270F 
 123      7E02F201 
 124 0080 DD106884 		.ascii	"\335\020h\204\215\347c\004_\270\312\030/\315<H\265?"
 124      8DE76304 
 124      5FB8CA18 
 124      2FCD3C48 
 124      B53F
 125 0092 B5D67E7F 		.ascii	"\265\326~\177\273\326v\253\255&\362;\234\214\303s\264"
 125      BBD676AB 
 125      AD26F23B 
 125      9C8CC373 
 125      B4
 126 00a3 9360AA85 		.ascii	"\223`\252\205\275J*(\010\346Dr\207I\004\220\272\320"
 126      BD4A2A28 
 126      08E64472 
 126      87490490 
 126      BAD0
 127 00b5 5AB2FBFB 		.ascii	"Z\262\373\373K+\367\267\273\270\331\243\032\213)YB]"
 127      4B2BF7B7 
 127      BBB8D9A3 
 127      1A8B2959 
 127      425D
 128 00c7 883605AA 		.ascii	"\2106\005\252#\267\230\265\232\217\310\227V\313\254"
 128      23B798B5 
 128      9A8FC897 
 128      56CBAC
 129 00d6 64557DB2 		.ascii	"dU}\262vo\236s\277\355\035\033\326\230w\224\201)\344"
 129      766F9E73 
 129      BFED1D1B 
 129      D6987794 
 129      8129E4
 130 00e9 846B6803 		.ascii	"\204kh\003\243\257\252\353\305&\305\356\262w\024\355"
 130      A3AFAAEB 
 130      C526C5EE 
 130      B27714ED 
 131 00f9 EDA90BE9 		.ascii	"\355\251\013\351~\336\\Y\015\267Y:\3568\031\027\036"
 131      7EDE5C59 
 131      0DB7593A 
 131      EE381917 
 131      1E
 132 010a E1311EC6 		.ascii	"\3411\036\306VQ>\246\221\303\014N\272\273?\263c\305"
 132      56513EA6 
 132      91C30C4E 
 132      BABB3FB3 
 132      63C5
 133 011c A0B3A3C6 		.ascii	"\240\263\243\306\001f\005\363\303e\304\034:i\035\205"
 133      016605F3 
 133      C365C41C 
 133      3A691D85 
 134 012c F7F9F4E1 		.ascii	"\367\371\364\341\250\370\331\353\273M*\252\216\346\225"
 134      A8F8D9EB 
 134      BB4D2AAA 
 134      8EE695
 135 013b 4E1AC2D0 		.ascii	"N\032\302\320r\332e\370Pni\224AD\261P\227a\2612\332"
 135      72DA65F8 
 135      506E6994 
 135      4144B150 
ARM GAS  C:\Users\Luggi\AppData\Local\Temp\ccYV2Nmq.s 			page 10


 135      9761B132 
 136 0150 9C08070D 		.ascii	"\234\010\007\0153\0345\375\342\377\246\027\017M\027"
 136      331C35FD 
 136      E2FFA617 
 136      0F4D17
 137 015f C5F406F2 		.ascii	"\305\364\006\362\277n\177\365\023\3610\321\237\250l"
 137      BF6E7FF5 
 137      13F130D1 
 137      9FA86C
 138 016e FD34CE38 		.ascii	"\3754\3168\023\226D\302%\033<\300\324E\361\350[\312"
 138      139644C2 
 138      251B3CC0 
 138      D445F1E8 
 138      5BCA
 139 0180 45A9968F 		.ascii	"E\251\226\2177\212bd\320\313\203(\312\361\335\033~B"
 139      378A6264 
 139      D0CB8328 
 139      CAF1DD1B 
 139      7E42
 140 0192 5CDABDE8 		.ascii	"\\\332\275\3508\244/\014\355\212\253S\027\242\301h\270"
 140      38A42F0C 
 140      ED8AAB53 
 140      17A2C168 
 140      B8
 141 01a3 FF467425 		.ascii	"\377Ft%\233\031\2729<\020\365\365f\206\272\317\366\235"
 141      9B19BA39 
 141      3C10F5F5 
 141      6686BACF 
 141      F69D
 142 01b5 EBE9CEF6 		.ascii	"\353\351\316\366D\3273\327\256f\317d{/w\015\320_\356"
 142      44D733D7 
 142      AE66CF64 
 142      7B2F770D 
 142      D05FEE
 143 01c8 46DD36   		.ascii	"F\3356"
 144              		.text
 145              		.section	.gnu.lto_.symbol_nodes.304b4173,"",%progbits
 146 0000 789C55C8 		.ascii	"x\234U\310\261\015\3020\030\005\341\363\377l\207-X\202"
 146      B10DC230 
 146      1805E1F3 
 146      FF6C872D 
 146      5882
 147 0012 FD5E0A4B 		.ascii	"\375^\012KiS\321!E\331!\013PP\322\3222\000+\200@\202"
 147      6953D121 
 147      45D9210B 
 147      5050D2D2 
 147      32002B80 
 148 0028 C25CF79D 		.ascii	"\302\\\367\235\200\023\277\"\031\346+\330\034\227\035"
 148      8013BF22 
 148      19E62BD8 
 148      1C971D
 149 0037 0596B022 		.ascii	"\005\226\260\"\234\372\035r\3749[\275Sq\376\232q\374"
 149      9CFA1D72 
 149      FC395BBD 
 149      5371FE9A 
 149      71FC
 150 0049 7070E959 		.ascii	"pp\351Y];J\2056=%\301yz\354\225\203\365\376J\312\003"
ARM GAS  C:\Users\Luggi\AppData\Local\Temp\ccYV2Nmq.s 			page 11


 150      5D3B4A85 
 150      363D25C1 
 150      797AEC95 
 150      83F5FE4A 
 151 005f 6D3B2857 		.ascii	"m;(W\332\345\026\274\001\0003';"
 151      DAE516BC 
 151      01003327 
 151      3B
 152              		.text
 153              		.section	.gnu.lto_.refs.304b4173,"",%progbits
 154 0000 789C6366 		.ascii	"x\234cf``\220c\200\000F\006FF&F& \311\314\314\310\310"
 154      60609063 
 154      80004606 
 154      46462646 
 154      2620C9CC 
 155 0017 CEC8C8CD 		.ascii	"\316\310\310\315\310\310\313\304\302\000\022be\000\000"
 155      C8C8CBC4 
 155      C2001262 
 155      650000
 156 0026 08B50066 		.ascii	"\010\265\000f"
 157              		.text
 158              		.section	.gnu.lto_.decls.304b4173,"",%progbits
 159 0000 789C8D94 		.ascii	"x\234\215\224mlSU\030\307\317\323\323\275\264+s\272"
 159      6D6C5355 
 159      18C7CFD3 
 159      D3BDB42B 
 159      73BA
 160 0012 64D37E9A 		.ascii	"d\323~\232#i\204L\022M$\373\246P\014&\213\246a,~pIS"
 160      2369844C 
 160      124D24FB 
 160      A6500C26 
 160      8BA6612C 
 161 002a CA652E2C 		.ascii	"\312e.,\333R:\222};\333\214\314\2012Q\330\006B\256\016"
 161      DB523A92 
 161      7D3BDB8C 
 161      CC813251 
 161      D80642AE 
 162 003f D48DAE7B 		.ascii	"\324\215\256{\177c@\213\260\255e\354\205m\316MD+\223"
 162      7F63408B 
 162      B0AD65EC 
 162      856DCE4D 
 162      442B93
 163 0052 84185D8A 		.ascii	"\204\030]\212.\200\021S\237s\356-\275]\250r\222\247"
 163      2E801153 
 163      9F73EE2D 
 163      BD5DA872 
 163      92A7
 164 0064 F79EDEE7 		.ascii	"\367\236\336\347\377{\236\363\334\177K\011!\014\010"
 164      FF7B9EF3 
 164      DC7F4B09 
 164      210C08
 165 0073 89E03A91 		.ascii	"\211\340:\221D\210\003\357\361Bl$\266R0<\030^\214.\214"
 165      448803EF 
 165      F1426C24 
 165      B652303C 
 165      185E8C2E 
 166 0088 1E8C3E8C 		.ascii	"\036\214>\214\001\214!\014\224\220k$~yT\035\347da\\"
ARM GAS  C:\Users\Luggi\AppData\Local\Temp\ccYV2Nmq.s 			page 12


 166      018C210C 
 166      94906B24 
 166      7E79541D 
 166      E764615C 
 167 009c C798C698 		.ascii	"\307\230\306\230\305\010`\370T\335\230z\365$\340x\327"
 167      C50860F8 
 167      54DD987A 
 167      F524E078 
 167      D7
 168 00ad 70B4FA28 		.ascii	"p\264\372(S\313\361&\340\360\276\015\377\323\317\034"
 168      53CBF126 
 168      E0F0BE0D 
 168      FFD3CF1C 
 169 00bd 469BAABF 		.ascii	"F\233\252\277\202AU]\337\177\364\327\263\246\277(c\355"
 169      8241555D 
 169      DF7FF4D7 
 169      B3A6BF28 
 169      63ED
 170 00cf 39394FAF 		.ascii	"99O\257\346{\325\271\015$`\336\325\301\260wu2\355\216"
 170      E67BD5B9 
 170      0D2460DE 
 170      D5C1B077 
 170      7532ED8E 
 171 00e3 0ED28D39 		.ascii	"\016\322\2159|{\356H\2409\031\267&\243\236oG\376\276"
 171      7C7BEE48 
 171      A03919B7 
 171      26A39E6F 
 171      47FEBE
 172 00f6 35AFCF3E 		.ascii	"5\257\317>\312p5\326\261\014=\330\262\340+0\303\327"
 172      CA7035D6 
 172      B10C3DD8 
 172      B2E02B30 
 172      C3D7
 173 0108 6046621B 		.ascii	"`Fb\033d\343\347;z\2054\345=\365 \235\352\200\337\267"
 173      64E3E73B 
 173      7A8534E5 
 173      3DF5209D 
 173      EA80DFB7 
 174 011c 36FF3C6F 		.ascii	"6\377<o\314kGY=\363\317\320X\271\361q\317\2621\347\024"
 174      CC6B4759 
 174      3DF3CFD0 
 174      58B9F171 
 174      CFB231E7 
 175 0131 0B758583 		.ascii	"\013u\205\203\347\227L,\300\374\221\310\253\002\005"
 175      E7974C2C 
 175      C0FC91C8 
 175      AB0205
 176 0140 ED40E12C 		.ascii	"\355@\341,\344\361L~/$\340\201\034\224\365\375.\377"
 176      E4F14C7E 
 176      2F24E081 
 176      1C94F5FD 
 176      2EFF
 177 0152 66A40582 		.ascii	"f\244\005\202\335S\363\307/\012B>\334\232\254\000\204"
 177      DD53F3C7 
 177      2F0A423E 
 177      DC9AAC00 
 177      84
ARM GAS  C:\Users\Luggi\AppData\Local\Temp\ccYV2Nmq.s 			page 13


 178 0163 BE43A3EF 		.ascii	"\276C\243\357\210\352\275B\177\366\356\352\205\247\350"
 178      88EABD42 
 178      7FF6EEEA 
 178      85A7E8
 179 0172 1EA1FFFE 		.ascii	"\036\241\377\376\320d\213\011\365r\227\354\213\323w"
 179      D0648B09 
 179      F57297EC 
 179      8BD377
 180 0181 6AF49D51 		.ascii	"j\364\235Q}\227\320\037\233\270_\003\264Z\350\373\017"
 180      7D97D01F 
 180      9BB85F03 
 180      B45AE8FB 
 180      0F
 181 0192 36BDA8C8 		.ascii	"6\275\250\310O\236\321\312\2735\362\356\250\274Gi\277"
 181      4F9ED1CA 
 181      BB35F2EE 
 181      A8BC4769 
 181      BF
 182 01a3 31386EA0 		.ascii	"18n\240\037\202\320\017\326\015\325\353y\377\254\313"
 182      1F82D00F 
 182      D60DD5EB 
 182      79FFACCB 
 183 01b3 77FB4793 		.ascii	"w\373G\223\254\035A\257\206\321\033e\364\011\306\312"
 183      AC1D41AF 
 183      86D11B65 
 183      F409C6CA 
 184 01c3 27BD8B7A 		.ascii	"'\275\213z:\2460\032\332F\227\015\202!\377\323\303\266"
 184      3AA6301A 
 184      DA46970D 
 184      8221FFD3 
 184      C3B6
 185 01d5 BEC71E46 		.ascii	"\276\307\036F\"T\020\3725\204\376(a@\020N\\\034\375"
 185      225410FA 
 185      3584FE28 
 185      6140104E 
 185      5C1CFD
 186 01e8 22858614 		.ascii	"\"\205\206\024\302tx\345\014(\204\223\255\357\347h\316"
 186      C27478E5 
 186      0C288493 
 186      ADEFE768 
 186      CE
 187 01f9 31A8210C 		.ascii	"1\250!\014F\011C\2020q\353\301\237&a\226\014\3168\376"
 187      46094382 
 187      3071EBC1 
 187      9F266196 
 187      0CCE38FE 
 188 020d DDED552A 		.ascii	"\335\355U*\314\242\343\333\233\235\236_)]U\370\013\276"
 188      CCA2E3DB 
 188      9B9D9E5F 
 188      295D55F8 
 188      0BBE
 189 021f 030752E9 		.ascii	"\003\007R\351a\305\0165_\216\034J\301\304,\2430\301"
 189      61C50E35 
 189      5F8E1C4A 
 189      C1C42CA3 
 189      30C1
 190 0231 4713C72F 		.ascii	"G\023\307/Q\261\215\360\307\272\245\245O\377\242`\264"
ARM GAS  C:\Users\Luggi\AppData\Local\Temp\ccYV2Nmq.s 			page 14


 190      51B18DF0 
 190      C7BAA5A5 
 190      4FFFA260 
 190      B4
 191 0242 D43356CB 		.ascii	"\3243V\313\302G\030}\226@\236\0316\230\011\370\301\202"
 191      C247187D 
 191      96409E19 
 191      369809F8 
 191      C182
 192 0254 69A21FB8 		.ascii	"i\242\037\270\200\306\273\210\306;\215\266\012w\004"
 192      80C6BB88 
 192      C63B8DB6 
 192      0A7704
 193 0263 DB0BEAD8 		.ascii	"\333\013\352\330k\340\003#\234\177\324\261\250\240Z"
 193      6BE00323 
 193      9C7FD4B1 
 193      A8A05A
 194 0272 CDE79D6B 		.ascii	"\315\347\235kN\245\203J\007-\241\207K&zYl\364\213+3"
 194      4EA5834A 
 194      072DA187 
 194      4B267A59 
 194      6CF48B2B 
 195 0287 DD299099 		.ascii	"\335)\220\231k\311\375X8[F\016\201a\304\237\023\276"
 195      6BC9FD58 
 195      385B460E 
 195      8161C49F 
 195      13BE
 196 0299 BE0C999C 		.ascii	"\276\014\231\234\007\243X\374\012\344\302\030\344\012"
 196      07A358FC 
 196      0AE4C218 
 196      E40A
 197 02a7 A88CFD85 		.ascii	"\250\214\375\205}\243\013\353\232X\310\017\242\364%"
 197      7DA30BEB 
 197      9A58C80F 
 197      A2F425
 198 02b6 2CCDD3D5 		.ascii	",\315\323\325v_\340\362\215\370!\232\014-\276\234\312"
 198      765FE0F2 
 198      8DF8219A 
 198      0C2DBE9C 
 198      CA
 199 02c7 9F92E83C 		.ascii	"\237\222\350<\311#L\350\306@\261\277\206\012\3067\217"
 199      C9234CE8 
 199      C640B1BF 
 199      860AC637 
 199      8F
 200 02d8 61E499C5 		.ascii	"a\344\231\305!t\215\307\002w\322\301\222)p?$\003\004"
 200      21748DC7 
 200      0277D2C1 
 200      9229703F 
 200      240304
 201 02eb 30712476 		.ascii	"0q$v^N\027\353q'\201q<@\242\303\340P&\027\203\255I4"
 201      5E4E17EB 
 201      71278171 
 201      3C40A2C3 
 201      E0502617 
 202 0303 A8BE237F 		.ascii	"\250\276#\177\307\234\362\216\362\371\366\247\300\267"
 202      C79CF28E 
ARM GAS  C:\Users\Luggi\AppData\Local\Temp\ccYV2Nmq.s 			page 15


 202      F2F9F6A7 
 202      C0B7
 203 0311 57759BFB 		.ascii	"Wu\233\373X\275\234!jr)\177\001(\207\253\310\3463\215"
 203      58BD9C21 
 203      6A72297F 
 203      012887AB 
 203      C8E6338D 
 204 0325 B42CA7AD 		.ascii	"\264,\247\255\377\23419\034\\\364\350j\230\\\313\030"
 204      FF9C3139 
 204      1C5CF4E8 
 204      6A985CCB 
 204      18
 205 0336 77911004 		.ascii	"w\221\020\004\225&5c\015r3\301\004l&p\015\326#\2005"
 205      95263563 
 205      0D7233C1 
 205      046C2670 
 205      0DD62380 
 206 034b 1D3C9D4A 		.ascii	"\035<\235Jo*\365\373\3575\014\2573\242\005\352\236\300"
 206      6F2AF5FB 
 206      EF350CAF 
 206      33A205EA 
 206      9EC0
 207 035d 023899F9 		.ascii	"\0028\231\371\251\206\005\203b\232\265\212\231\204\246"
 207      A9860583 
 207      629AB58A 
 207      9984A6
 208 036c F9C0670A 		.ascii	"\371\300g\0122\226\012\3238\366\311\330\024\247 f\233"
 208      32960AD3 
 208      38F6C9D8 
 208      14A72066 
 208      9B
 209 037d F989DA1B 		.ascii	"\371\211\332\033\324\324\300\255\210\177y\2067Dn\354"
 209      D4D4C0AD 
 209      887F7986 
 209      37446EEC 
 210 038d 3FEF3A98 		.ascii	"?\357:\230\304\017\002\257\230|4p\3773\320&\363\223"
 210      C40F02AF 
 210      987C3470 
 210      FF33D026 
 210      F393
 211 039f C79267D5 		.ascii	"\307\222g\325\344Y\221\334yo\246=M\233\314\177m\261"
 211      E45991DC 
 211      796FA63D 
 211      4D9BCC7F 
 211      6DB1
 212 03b1 E4393045 		.ascii	"\34490E\373\301[\222\275e\233\325\276M*+,-\261\277d"
 212      FBC15B92 
 212      BD659BD5 
 212      BE4D2A2B 
 212      2C2DB1BF 
 213 03c6 2F74EC97 		.ascii	"/t\354\227\254\025\345{JK\222\267\277U\224c%\033\266"
 213      AC15E57B 
 213      4A4B92B7 
 213      BF559463 
 213      251BB6
 214 03d9 4BE592CB 		.ascii	"K\345\222\313\341\226v\333\013+\252\\N\251\330VXa}\245"
 214      E19676DB 
ARM GAS  C:\Users\Luggi\AppData\Local\Temp\ccYV2Nmq.s 			page 16


 214      0B2BAA5C 
 214      4EA9D856 
 214      58617DA5 
 215 03ed 384E657B 		.ascii	"8Ne{s\223\223\230\343\276\332!\355sW\270T\3263\3615"
 215      73939398 
 215      E3BEDA21 
 215      ED7357B8 
 215      54D633F1 
 216 0402 CA24A932 		.ascii	"\312$\25123\356\253\267\035{\245\252\312\247\343\323"
 216      33EEABB7 
 216      1D7BA5AA 
 216      CAA7E3D3 
 217 0412 DC159596 		.ascii	"\334\025\225\226'\250\276\351]\362\334\032\241\303\345"
 217      27A8BEE9 
 217      5DF2DC1A 
 217      A1C3E5
 218 0421 C6C2FB25 		.ascii	"\306\302\373%\227;\276\314\353\345\216]eR|\243[\267"
 218      973BBECC 
 218      EBE58E5D 
 218      65527CA3 
 218      5BB7
 219 0433 580B8A6C 		.ascii	"X\013\212l\366\302\235;\212\254;\223\252J\313\335\371"
 219      F6C29D3B 
 219      8AAC3B93 
 219      AA4ACBDD 
 219      F9
 220 0444 CF27A8EA 		.ascii	"\317'\250\352\254vWWJ\373\260`\232$HX\311-%\355\226"
 220      AC765757 
 220      4AFBB060 
 220      9A244858 
 220      C92D25ED 
 221 0459 9C4E577C 		.ascii	"\234NW|\241]\016\347\336\252J\275K*\311\377\027Z\242"
 221      A15D0EE7 
 221      DEAA4ABD 
 221      4B2AC9FF 
 221      175AA2
 222 046c 55FB     		.ascii	"U\373"
 223              		.text
 224              		.section	.gnu.lto_.symtab.304b4173,"",%progbits
 225 0000 4144435F 		.ascii	"ADC_DelSig_1_SaveConfig\000\000\000\000\000\000\000"
 225      44656C53 
 225      69675F31 
 225      5F536176 
 225      65436F6E 
 226 001e 00000000 		.ascii	"\000\000\000\000\000\254\000\000\000ADC_DelSig_1_Re"
 226      00AC0000 
 226      00414443 
 226      5F44656C 
 226      5369675F 
 227 0036 73746F72 		.ascii	"storeConfig\000\000\000\000\000\000\000\000\000\000"
 227      65436F6E 
 227      66696700 
 227      00000000 
 227      00000000 
 228 004b 0000AE00 		.ascii	"\000\000\256\000\000\000ADC_DelSig_1_Sleep\000\000\000"
 228      00004144 
 228      435F4465 
ARM GAS  C:\Users\Luggi\AppData\Local\Temp\ccYV2Nmq.s 			page 17


 228      6C536967 
 228      5F315F53 
 229 0066 00000000 		.ascii	"\000\000\000\000\000\000\000\000\000\260\000\000\000"
 229      00000000 
 229      00B00000 
 229      00
 230 0073 4144435F 		.ascii	"ADC_DelSig_1_Wakeup\000\000\000\000\000\000\000\000"
 230      44656C53 
 230      69675F31 
 230      5F57616B 
 230      65757000 
 231 008e 00000000 		.ascii	"\000\000\000\000\262\000\000\000ADC_DelSig_1_Stop\000"
 231      B2000000 
 231      4144435F 
 231      44656C53 
 231      69675F31 
 232 00a8 00020000 		.ascii	"\000\002\000\000\000\000\000\000\000\000\000\264\000"
 232      00000000 
 232      000000B4 
 232      00
 233 00b5 00004144 		.ascii	"\000\000ADC_DelSig_1_StartConvert\000\000\002\000\000"
 233      435F4465 
 233      6C536967 
 233      5F315F53 
 233      74617274 
 234 00d5 00000000 		.ascii	"\000\000\000\000\000\000\000\266\000\000\000ADC_Del"
 234      000000B6 
 234      00000041 
 234      44435F44 
 234      656C
 235 00e7 5369675F 		.ascii	"Sig_1_Enable\000\000\002\000\000\000\000\000\000\000"
 235      315F456E 
 235      61626C65 
 235      00000200 
 235      00000000 
 236 00fd 0000B800 		.ascii	"\000\000\270\000\000\000"
 236      0000
 237              		.text
 238              		.section	.gnu.lto_.opts,"",%progbits
 239 0000 272D666E 		.ascii	"'-fno-trapv' '-fno-strict-overflow' '-mcpu=cortex-m"
 239      6F2D7472 
 239      61707627 
 239      20272D66 
 239      6E6F2D73 
 240 0033 33272027 		.ascii	"3' '-mthumb' '-g' '-Og' '-ffunction-sections' '-flt"
 240      2D6D7468 
 240      756D6227 
 240      20272D67 
 240      2720272D 
 241 0066 6F272027 		.ascii	"o' '-ffat-lto-objects'\000"
 241      2D666661 
 241      742D6C74 
 241      6F2D6F62 
 241      6A656374 
 242              		.text
 243              		.cfi_sections	.debug_frame
 244              		.section	.text.ADC_DelSig_1_SaveConfig,"ax",%progbits
ARM GAS  C:\Users\Luggi\AppData\Local\Temp\ccYV2Nmq.s 			page 18


 245              		.align	2
 246              		.global	ADC_DelSig_1_SaveConfig
 247              		.thumb
 248              		.thumb_func
 249              		.type	ADC_DelSig_1_SaveConfig, %function
 250              	ADC_DelSig_1_SaveConfig:
 251              	.LFB0:
 252              		.file 1 "Generated_Source\\PSoC5\\ADC_DelSig_1_PM.c"
   1:Generated_Source\PSoC5/ADC_DelSig_1_PM.c **** /*******************************************************************************
   2:Generated_Source\PSoC5/ADC_DelSig_1_PM.c **** * File Name: ADC_DelSig_1_PM.c
   3:Generated_Source\PSoC5/ADC_DelSig_1_PM.c **** * Version 3.20
   4:Generated_Source\PSoC5/ADC_DelSig_1_PM.c **** *
   5:Generated_Source\PSoC5/ADC_DelSig_1_PM.c **** * Description:
   6:Generated_Source\PSoC5/ADC_DelSig_1_PM.c **** *  This file provides the power manager source code to the API for the
   7:Generated_Source\PSoC5/ADC_DelSig_1_PM.c **** *  Delta-Sigma ADC Component.
   8:Generated_Source\PSoC5/ADC_DelSig_1_PM.c **** *
   9:Generated_Source\PSoC5/ADC_DelSig_1_PM.c **** * Note:
  10:Generated_Source\PSoC5/ADC_DelSig_1_PM.c **** *
  11:Generated_Source\PSoC5/ADC_DelSig_1_PM.c **** ********************************************************************************
  12:Generated_Source\PSoC5/ADC_DelSig_1_PM.c **** * Copyright 2008-2015, Cypress Semiconductor Corporation.  All rights reserved.
  13:Generated_Source\PSoC5/ADC_DelSig_1_PM.c **** * You may use this file only in accordance with the license, terms, conditions,
  14:Generated_Source\PSoC5/ADC_DelSig_1_PM.c **** * disclaimers, and limitations in the end user license agreement accompanying
  15:Generated_Source\PSoC5/ADC_DelSig_1_PM.c **** * the software package with which this file was provided.
  16:Generated_Source\PSoC5/ADC_DelSig_1_PM.c **** *******************************************************************************/
  17:Generated_Source\PSoC5/ADC_DelSig_1_PM.c **** 
  18:Generated_Source\PSoC5/ADC_DelSig_1_PM.c **** #include "ADC_DelSig_1.h"
  19:Generated_Source\PSoC5/ADC_DelSig_1_PM.c **** 
  20:Generated_Source\PSoC5/ADC_DelSig_1_PM.c **** static ADC_DelSig_1_BACKUP_STRUCT ADC_DelSig_1_backup =
  21:Generated_Source\PSoC5/ADC_DelSig_1_PM.c **** {
  22:Generated_Source\PSoC5/ADC_DelSig_1_PM.c ****     ADC_DelSig_1_DISABLED,
  23:Generated_Source\PSoC5/ADC_DelSig_1_PM.c ****     ADC_DelSig_1_CFG1_DEC_CR
  24:Generated_Source\PSoC5/ADC_DelSig_1_PM.c **** };
  25:Generated_Source\PSoC5/ADC_DelSig_1_PM.c **** 
  26:Generated_Source\PSoC5/ADC_DelSig_1_PM.c **** 
  27:Generated_Source\PSoC5/ADC_DelSig_1_PM.c **** /*******************************************************************************
  28:Generated_Source\PSoC5/ADC_DelSig_1_PM.c **** * Function Name: ADC_DelSig_1_SaveConfig
  29:Generated_Source\PSoC5/ADC_DelSig_1_PM.c **** ********************************************************************************
  30:Generated_Source\PSoC5/ADC_DelSig_1_PM.c **** *
  31:Generated_Source\PSoC5/ADC_DelSig_1_PM.c **** * Summary:
  32:Generated_Source\PSoC5/ADC_DelSig_1_PM.c **** *  Save the register configuration which are not retention.
  33:Generated_Source\PSoC5/ADC_DelSig_1_PM.c **** *
  34:Generated_Source\PSoC5/ADC_DelSig_1_PM.c **** * Parameters:
  35:Generated_Source\PSoC5/ADC_DelSig_1_PM.c **** *  None
  36:Generated_Source\PSoC5/ADC_DelSig_1_PM.c **** *
  37:Generated_Source\PSoC5/ADC_DelSig_1_PM.c **** * Return:
  38:Generated_Source\PSoC5/ADC_DelSig_1_PM.c **** *  None
  39:Generated_Source\PSoC5/ADC_DelSig_1_PM.c **** *
  40:Generated_Source\PSoC5/ADC_DelSig_1_PM.c **** * Global variables:
  41:Generated_Source\PSoC5/ADC_DelSig_1_PM.c **** *  ADC_DelSig_1_backup:  This global structure variable is used to store
  42:Generated_Source\PSoC5/ADC_DelSig_1_PM.c **** *  configuration registers which are non retention whenever user wants to go
  43:Generated_Source\PSoC5/ADC_DelSig_1_PM.c **** *  sleep mode by calling Sleep() API.
  44:Generated_Source\PSoC5/ADC_DelSig_1_PM.c **** *
  45:Generated_Source\PSoC5/ADC_DelSig_1_PM.c **** *******************************************************************************/
  46:Generated_Source\PSoC5/ADC_DelSig_1_PM.c **** void ADC_DelSig_1_SaveConfig(void) 
  47:Generated_Source\PSoC5/ADC_DelSig_1_PM.c **** {
 253              		.loc 1 47 0
 254              		.cfi_startproc
ARM GAS  C:\Users\Luggi\AppData\Local\Temp\ccYV2Nmq.s 			page 19


 255              		@ args = 0, pretend = 0, frame = 0
 256              		@ frame_needed = 0, uses_anonymous_args = 0
 257              		@ link register save eliminated.
  48:Generated_Source\PSoC5/ADC_DelSig_1_PM.c ****     ADC_DelSig_1_backup.deccr = ADC_DelSig_1_DEC_CR_REG;
 258              		.loc 1 48 0
 259 0000 024B     		ldr	r3, .L2
 260 0002 1A78     		ldrb	r2, [r3]	@ zero_extendqisi2
 261 0004 024B     		ldr	r3, .L2+4
 262 0006 5A70     		strb	r2, [r3, #1]
 263 0008 7047     		bx	lr
 264              	.L3:
 265 000a 00BF     		.align	2
 266              	.L2:
 267 000c 004E0040 		.word	1073761792
 268 0010 00000000 		.word	.LANCHOR0
 269              		.cfi_endproc
 270              	.LFE0:
 271              		.size	ADC_DelSig_1_SaveConfig, .-ADC_DelSig_1_SaveConfig
 272              		.section	.text.ADC_DelSig_1_RestoreConfig,"ax",%progbits
 273              		.align	2
 274              		.global	ADC_DelSig_1_RestoreConfig
 275              		.thumb
 276              		.thumb_func
 277              		.type	ADC_DelSig_1_RestoreConfig, %function
 278              	ADC_DelSig_1_RestoreConfig:
 279              	.LFB1:
  49:Generated_Source\PSoC5/ADC_DelSig_1_PM.c **** }
  50:Generated_Source\PSoC5/ADC_DelSig_1_PM.c **** 
  51:Generated_Source\PSoC5/ADC_DelSig_1_PM.c **** 
  52:Generated_Source\PSoC5/ADC_DelSig_1_PM.c **** /*******************************************************************************
  53:Generated_Source\PSoC5/ADC_DelSig_1_PM.c **** * Function Name: ADC_DelSig_1_RestoreConfig
  54:Generated_Source\PSoC5/ADC_DelSig_1_PM.c **** ********************************************************************************
  55:Generated_Source\PSoC5/ADC_DelSig_1_PM.c **** *
  56:Generated_Source\PSoC5/ADC_DelSig_1_PM.c **** * Summary:
  57:Generated_Source\PSoC5/ADC_DelSig_1_PM.c **** *  Restore the register configurations which are not retention.
  58:Generated_Source\PSoC5/ADC_DelSig_1_PM.c **** *
  59:Generated_Source\PSoC5/ADC_DelSig_1_PM.c **** * Parameters:
  60:Generated_Source\PSoC5/ADC_DelSig_1_PM.c **** *  None
  61:Generated_Source\PSoC5/ADC_DelSig_1_PM.c **** *
  62:Generated_Source\PSoC5/ADC_DelSig_1_PM.c **** * Return:
  63:Generated_Source\PSoC5/ADC_DelSig_1_PM.c **** *  None
  64:Generated_Source\PSoC5/ADC_DelSig_1_PM.c **** *
  65:Generated_Source\PSoC5/ADC_DelSig_1_PM.c **** * Global variables:
  66:Generated_Source\PSoC5/ADC_DelSig_1_PM.c **** *  ADC_DelSig_1_backup:  This global structure variable is used to restore
  67:Generated_Source\PSoC5/ADC_DelSig_1_PM.c **** *  configuration registers which are non retention whenever user wants to switch
  68:Generated_Source\PSoC5/ADC_DelSig_1_PM.c **** *  to active power mode by calling Wakeup() API.
  69:Generated_Source\PSoC5/ADC_DelSig_1_PM.c **** *
  70:Generated_Source\PSoC5/ADC_DelSig_1_PM.c **** *******************************************************************************/
  71:Generated_Source\PSoC5/ADC_DelSig_1_PM.c **** void ADC_DelSig_1_RestoreConfig(void) 
  72:Generated_Source\PSoC5/ADC_DelSig_1_PM.c **** {
 280              		.loc 1 72 0
 281              		.cfi_startproc
 282              		@ args = 0, pretend = 0, frame = 0
 283              		@ frame_needed = 0, uses_anonymous_args = 0
 284              		@ link register save eliminated.
  73:Generated_Source\PSoC5/ADC_DelSig_1_PM.c ****     ADC_DelSig_1_DEC_CR_REG = ADC_DelSig_1_backup.deccr;
 285              		.loc 1 73 0
ARM GAS  C:\Users\Luggi\AppData\Local\Temp\ccYV2Nmq.s 			page 20


 286 0000 024B     		ldr	r3, .L5
 287 0002 5A78     		ldrb	r2, [r3, #1]	@ zero_extendqisi2
 288 0004 024B     		ldr	r3, .L5+4
 289 0006 1A70     		strb	r2, [r3]
 290 0008 7047     		bx	lr
 291              	.L6:
 292 000a 00BF     		.align	2
 293              	.L5:
 294 000c 00000000 		.word	.LANCHOR0
 295 0010 004E0040 		.word	1073761792
 296              		.cfi_endproc
 297              	.LFE1:
 298              		.size	ADC_DelSig_1_RestoreConfig, .-ADC_DelSig_1_RestoreConfig
 299              		.section	.text.ADC_DelSig_1_Sleep,"ax",%progbits
 300              		.align	2
 301              		.global	ADC_DelSig_1_Sleep
 302              		.thumb
 303              		.thumb_func
 304              		.type	ADC_DelSig_1_Sleep, %function
 305              	ADC_DelSig_1_Sleep:
 306              	.LFB2:
  74:Generated_Source\PSoC5/ADC_DelSig_1_PM.c **** }
  75:Generated_Source\PSoC5/ADC_DelSig_1_PM.c **** 
  76:Generated_Source\PSoC5/ADC_DelSig_1_PM.c **** 
  77:Generated_Source\PSoC5/ADC_DelSig_1_PM.c **** /*******************************************************************************
  78:Generated_Source\PSoC5/ADC_DelSig_1_PM.c **** * Function Name: ADC_DelSig_1_Sleep
  79:Generated_Source\PSoC5/ADC_DelSig_1_PM.c **** ********************************************************************************
  80:Generated_Source\PSoC5/ADC_DelSig_1_PM.c **** *
  81:Generated_Source\PSoC5/ADC_DelSig_1_PM.c **** * Summary:
  82:Generated_Source\PSoC5/ADC_DelSig_1_PM.c **** *  Stops the operation of the block and saves the user configuration.
  83:Generated_Source\PSoC5/ADC_DelSig_1_PM.c **** *
  84:Generated_Source\PSoC5/ADC_DelSig_1_PM.c **** * Parameters:
  85:Generated_Source\PSoC5/ADC_DelSig_1_PM.c **** *  None
  86:Generated_Source\PSoC5/ADC_DelSig_1_PM.c **** *
  87:Generated_Source\PSoC5/ADC_DelSig_1_PM.c **** * Return:
  88:Generated_Source\PSoC5/ADC_DelSig_1_PM.c **** *  None
  89:Generated_Source\PSoC5/ADC_DelSig_1_PM.c **** *
  90:Generated_Source\PSoC5/ADC_DelSig_1_PM.c **** * Global variables:
  91:Generated_Source\PSoC5/ADC_DelSig_1_PM.c **** *  ADC_DelSig_1_backup:  The structure field 'enableState' is modified
  92:Generated_Source\PSoC5/ADC_DelSig_1_PM.c **** *  depending on the enable state of the block before entering to sleep mode.
  93:Generated_Source\PSoC5/ADC_DelSig_1_PM.c **** *
  94:Generated_Source\PSoC5/ADC_DelSig_1_PM.c **** *******************************************************************************/
  95:Generated_Source\PSoC5/ADC_DelSig_1_PM.c **** void ADC_DelSig_1_Sleep(void) 
  96:Generated_Source\PSoC5/ADC_DelSig_1_PM.c **** {
 307              		.loc 1 96 0
 308              		.cfi_startproc
 309              		@ args = 0, pretend = 0, frame = 0
 310              		@ frame_needed = 0, uses_anonymous_args = 0
 311 0000 08B5     		push	{r3, lr}
 312              		.cfi_def_cfa_offset 8
 313              		.cfi_offset 3, -8
 314              		.cfi_offset 14, -4
  97:Generated_Source\PSoC5/ADC_DelSig_1_PM.c ****     /* Save ADC enable state */
  98:Generated_Source\PSoC5/ADC_DelSig_1_PM.c ****     if((ADC_DelSig_1_ACT_PWR_DEC_EN == (ADC_DelSig_1_PWRMGR_DEC_REG & ADC_DelSig_1_ACT_PWR_DEC_EN))
 315              		.loc 1 98 0
 316 0002 0F4B     		ldr	r3, .L12
 317 0004 1B78     		ldrb	r3, [r3]	@ zero_extendqisi2
ARM GAS  C:\Users\Luggi\AppData\Local\Temp\ccYV2Nmq.s 			page 21


 318 0006 13F0010F 		tst	r3, #1
 319 000a 12D0     		beq	.L8
  99:Generated_Source\PSoC5/ADC_DelSig_1_PM.c ****        (ADC_DelSig_1_ACT_PWR_DSM_EN == (ADC_DelSig_1_PWRMGR_DSM_REG & ADC_DelSig_1_ACT_PWR_DSM_EN))
 320              		.loc 1 99 0 discriminator 1
 321 000c 0C4B     		ldr	r3, .L12
 322 000e 1B78     		ldrb	r3, [r3]	@ zero_extendqisi2
  98:Generated_Source\PSoC5/ADC_DelSig_1_PM.c ****        (ADC_DelSig_1_ACT_PWR_DSM_EN == (ADC_DelSig_1_PWRMGR_DSM_REG & ADC_DelSig_1_ACT_PWR_DSM_EN))
 323              		.loc 1 98 0 discriminator 1
 324 0010 13F0100F 		tst	r3, #16
 325 0014 0DD0     		beq	.L8
 100:Generated_Source\PSoC5/ADC_DelSig_1_PM.c ****     {
 101:Generated_Source\PSoC5/ADC_DelSig_1_PM.c ****         /* Component is enabled */
 102:Generated_Source\PSoC5/ADC_DelSig_1_PM.c ****         ADC_DelSig_1_backup.enableState = ADC_DelSig_1_ENABLED;
 326              		.loc 1 102 0
 327 0016 0122     		movs	r2, #1
 328 0018 0A4B     		ldr	r3, .L12+4
 329 001a 1A70     		strb	r2, [r3]
 103:Generated_Source\PSoC5/ADC_DelSig_1_PM.c ****         if((ADC_DelSig_1_DEC_CR_REG & ADC_DelSig_1_DEC_START_CONV) != 0u)
 330              		.loc 1 103 0
 331 001c 0A4B     		ldr	r3, .L12+8
 332 001e 1B78     		ldrb	r3, [r3]	@ zero_extendqisi2
 333 0020 13F0010F 		tst	r3, #1
 334 0024 02D0     		beq	.L9
 104:Generated_Source\PSoC5/ADC_DelSig_1_PM.c ****         {   
 105:Generated_Source\PSoC5/ADC_DelSig_1_PM.c ****             /* Conversion is started */
 106:Generated_Source\PSoC5/ADC_DelSig_1_PM.c ****             ADC_DelSig_1_backup.enableState |= ADC_DelSig_1_STARTED;
 335              		.loc 1 106 0
 336 0026 0322     		movs	r2, #3
 337 0028 064B     		ldr	r3, .L12+4
 338 002a 1A70     		strb	r2, [r3]
 339              	.L9:
 107:Generated_Source\PSoC5/ADC_DelSig_1_PM.c ****         }
 108:Generated_Source\PSoC5/ADC_DelSig_1_PM.c **** 		
 109:Generated_Source\PSoC5/ADC_DelSig_1_PM.c ****         /* Stop the configuration */
 110:Generated_Source\PSoC5/ADC_DelSig_1_PM.c ****         ADC_DelSig_1_Stop();
 340              		.loc 1 110 0
 341 002c FFF7FEFF 		bl	ADC_DelSig_1_Stop
 342              	.LVL0:
 343 0030 02E0     		b	.L10
 344              	.L8:
 111:Generated_Source\PSoC5/ADC_DelSig_1_PM.c ****     }
 112:Generated_Source\PSoC5/ADC_DelSig_1_PM.c ****     else
 113:Generated_Source\PSoC5/ADC_DelSig_1_PM.c ****     {
 114:Generated_Source\PSoC5/ADC_DelSig_1_PM.c ****         /* Component is disabled */
 115:Generated_Source\PSoC5/ADC_DelSig_1_PM.c ****         ADC_DelSig_1_backup.enableState = ADC_DelSig_1_DISABLED;
 345              		.loc 1 115 0
 346 0032 0022     		movs	r2, #0
 347 0034 034B     		ldr	r3, .L12+4
 348 0036 1A70     		strb	r2, [r3]
 349              	.L10:
 116:Generated_Source\PSoC5/ADC_DelSig_1_PM.c ****     }
 117:Generated_Source\PSoC5/ADC_DelSig_1_PM.c **** 
 118:Generated_Source\PSoC5/ADC_DelSig_1_PM.c ****     /* Save the user configuration */
 119:Generated_Source\PSoC5/ADC_DelSig_1_PM.c ****     ADC_DelSig_1_SaveConfig();
 350              		.loc 1 119 0
 351 0038 FFF7FEFF 		bl	ADC_DelSig_1_SaveConfig
 352              	.LVL1:
ARM GAS  C:\Users\Luggi\AppData\Local\Temp\ccYV2Nmq.s 			page 22


 353 003c 08BD     		pop	{r3, pc}
 354              	.L13:
 355 003e 00BF     		.align	2
 356              	.L12:
 357 0040 AA430040 		.word	1073759146
 358 0044 00000000 		.word	.LANCHOR0
 359 0048 004E0040 		.word	1073761792
 360              		.cfi_endproc
 361              	.LFE2:
 362              		.size	ADC_DelSig_1_Sleep, .-ADC_DelSig_1_Sleep
 363              		.section	.text.ADC_DelSig_1_Wakeup,"ax",%progbits
 364              		.align	2
 365              		.global	ADC_DelSig_1_Wakeup
 366              		.thumb
 367              		.thumb_func
 368              		.type	ADC_DelSig_1_Wakeup, %function
 369              	ADC_DelSig_1_Wakeup:
 370              	.LFB3:
 120:Generated_Source\PSoC5/ADC_DelSig_1_PM.c **** }
 121:Generated_Source\PSoC5/ADC_DelSig_1_PM.c **** 
 122:Generated_Source\PSoC5/ADC_DelSig_1_PM.c **** 
 123:Generated_Source\PSoC5/ADC_DelSig_1_PM.c **** /*******************************************************************************
 124:Generated_Source\PSoC5/ADC_DelSig_1_PM.c **** * Function Name: ADC_DelSig_1_Wakeup
 125:Generated_Source\PSoC5/ADC_DelSig_1_PM.c **** ********************************************************************************
 126:Generated_Source\PSoC5/ADC_DelSig_1_PM.c **** *
 127:Generated_Source\PSoC5/ADC_DelSig_1_PM.c **** * Summary:
 128:Generated_Source\PSoC5/ADC_DelSig_1_PM.c **** *  Restores the user configuration and enables the power to the block.
 129:Generated_Source\PSoC5/ADC_DelSig_1_PM.c **** *
 130:Generated_Source\PSoC5/ADC_DelSig_1_PM.c **** * Parameters:
 131:Generated_Source\PSoC5/ADC_DelSig_1_PM.c **** *  None
 132:Generated_Source\PSoC5/ADC_DelSig_1_PM.c **** *
 133:Generated_Source\PSoC5/ADC_DelSig_1_PM.c **** * Return:
 134:Generated_Source\PSoC5/ADC_DelSig_1_PM.c **** *  None
 135:Generated_Source\PSoC5/ADC_DelSig_1_PM.c **** *
 136:Generated_Source\PSoC5/ADC_DelSig_1_PM.c **** * Global variables:
 137:Generated_Source\PSoC5/ADC_DelSig_1_PM.c **** *  ADC_DelSig_1_backup:  The structure field 'enableState' is used to
 138:Generated_Source\PSoC5/ADC_DelSig_1_PM.c **** *  restore the enable state of block after wakeup from sleep mode.
 139:Generated_Source\PSoC5/ADC_DelSig_1_PM.c **** *
 140:Generated_Source\PSoC5/ADC_DelSig_1_PM.c **** *******************************************************************************/
 141:Generated_Source\PSoC5/ADC_DelSig_1_PM.c **** void ADC_DelSig_1_Wakeup(void) 
 142:Generated_Source\PSoC5/ADC_DelSig_1_PM.c **** {
 371              		.loc 1 142 0
 372              		.cfi_startproc
 373              		@ args = 0, pretend = 0, frame = 0
 374              		@ frame_needed = 0, uses_anonymous_args = 0
 375 0000 08B5     		push	{r3, lr}
 376              		.cfi_def_cfa_offset 8
 377              		.cfi_offset 3, -8
 378              		.cfi_offset 14, -4
 143:Generated_Source\PSoC5/ADC_DelSig_1_PM.c ****     /* Restore the configuration */
 144:Generated_Source\PSoC5/ADC_DelSig_1_PM.c ****     ADC_DelSig_1_RestoreConfig();
 379              		.loc 1 144 0
 380 0002 FFF7FEFF 		bl	ADC_DelSig_1_RestoreConfig
 381              	.LVL2:
 145:Generated_Source\PSoC5/ADC_DelSig_1_PM.c **** 
 146:Generated_Source\PSoC5/ADC_DelSig_1_PM.c ****     /* Enables the component operation */
 147:Generated_Source\PSoC5/ADC_DelSig_1_PM.c ****     if(ADC_DelSig_1_backup.enableState != ADC_DelSig_1_DISABLED)
ARM GAS  C:\Users\Luggi\AppData\Local\Temp\ccYV2Nmq.s 			page 23


 382              		.loc 1 147 0
 383 0006 064B     		ldr	r3, .L17
 384 0008 1B78     		ldrb	r3, [r3]	@ zero_extendqisi2
 385 000a 43B1     		cbz	r3, .L14
 148:Generated_Source\PSoC5/ADC_DelSig_1_PM.c ****     {
 149:Generated_Source\PSoC5/ADC_DelSig_1_PM.c ****         ADC_DelSig_1_Enable();
 386              		.loc 1 149 0
 387 000c FFF7FEFF 		bl	ADC_DelSig_1_Enable
 388              	.LVL3:
 150:Generated_Source\PSoC5/ADC_DelSig_1_PM.c ****         if((ADC_DelSig_1_backup.enableState & ADC_DelSig_1_STARTED) != 0u)
 389              		.loc 1 150 0
 390 0010 034B     		ldr	r3, .L17
 391 0012 1B78     		ldrb	r3, [r3]	@ zero_extendqisi2
 392 0014 13F0020F 		tst	r3, #2
 393 0018 01D0     		beq	.L14
 151:Generated_Source\PSoC5/ADC_DelSig_1_PM.c ****         {
 152:Generated_Source\PSoC5/ADC_DelSig_1_PM.c ****             ADC_DelSig_1_StartConvert();
 394              		.loc 1 152 0
 395 001a FFF7FEFF 		bl	ADC_DelSig_1_StartConvert
 396              	.LVL4:
 397              	.L14:
 398 001e 08BD     		pop	{r3, pc}
 399              	.L18:
 400              		.align	2
 401              	.L17:
 402 0020 00000000 		.word	.LANCHOR0
 403              		.cfi_endproc
 404              	.LFE3:
 405              		.size	ADC_DelSig_1_Wakeup, .-ADC_DelSig_1_Wakeup
 406              		.data
 407              		.align	2
 408              		.set	.LANCHOR0,. + 0
 409              		.type	ADC_DelSig_1_backup, %object
 410              		.size	ADC_DelSig_1_backup, 2
 411              	ADC_DelSig_1_backup:
 412 0000 00       		.byte	0
 413 0001 38       		.byte	56
 414 0002 0000     		.text
 415              	.Letext0:
 416              		.file 2 "Generated_Source\\PSoC5\\cytypes.h"
 417              		.file 3 "Generated_Source\\PSoC5\\ADC_DelSig_1.h"