ARM GAS  C:\Users\Luggi\AppData\Local\Temp\ccWDHWXF.s 			page 1


   1              		.syntax unified
   2              		.cpu cortex-m3
   3              		.fpu softvfp
   4              		.eabi_attribute 20, 1
   5              		.eabi_attribute 21, 1
   6              		.eabi_attribute 23, 3
   7              		.eabi_attribute 24, 1
   8              		.eabi_attribute 25, 1
   9              		.eabi_attribute 26, 1
  10              		.eabi_attribute 30, 1
  11              		.eabi_attribute 34, 1
  12              		.eabi_attribute 18, 4
  13              		.thumb
  14              		.file	"ADC_DelSig_1_Ext_CP_Clk.c"
  15              		.text
  16              	.Ltext0:
  17              		.section	.gnu.lto_.profile.d236832,"",%progbits
  18 0000 789C6366 		.ascii	"x\234cf```c\200\000F\206\353\214+\030\001\005R\001\214"
  18      60606063 
  18      80004686 
  18      EB8C2B18 
  18      01055201 
  19              		.text
  20              		.section	.gnu.lto_.inline.d236832,"",%progbits
  21 0000 789C6366 		.ascii	"x\234cf\300\016\272\030!47\003\003'\007#\003\023\317"
  21      C00EBA18 
  21      21343703 
  21      03270723 
  21      0313CF
  22 0013 835806B6 		.ascii	"\203X\006\266\005\362L 1FL!&\006\031m\240\220\321\234"
  22      05F24C20 
  22      31464C21 
  22      2606196D 
  22      A090D19C 
  23 0027 0E56B818 		.ascii	"\016V\270\0303\0037;#3C\306G&\306\306e\273{\330_0\375"
  23      3303373B 
  23      233343C6 
  23      4726C6C6 
  23      65BB7BD8 
  24 003e 0489332E 		.ascii	"\004\2113.g\224b`\310\204P@[X\201b`-,\013\344\005\030"
  24      67946260 
  24      C8845040 
  24      5B588162 
  24      602D2C0B 
  25 0055 D8CEC870 		.ascii	"\330\316\310p0\260-\021b\001\231\300\302\300\302\014"
  25      30B02D11 
  25      620199C0 
  25      C2C0C20C 
  26 0065 3495E902 		.ascii	"4\225\351\002?\334PV\006v6FF\220>f\266\017z\020a\240"
  26      3FDC5056 
  26      06763646 
  26      46903E66 
  26      B60F7A10 
  27 007b 3C58391B 		.ascii	"<X9\033\003\007;\272\034\320P\260\034;\003+\013\320"
  27      03073BBA 
  27      1CD050B0 
  27      1C3B032B 
ARM GAS  C:\Users\Luggi\AppData\Local\Temp\ccWDHWXF.s 			page 2


  27      0BD0
  28 008d 2820176E 		.ascii	"( \027n\024\007\246\020'\303a\006[F6T7\003\315c\\\001"
  28      1407A610 
  28      27C36106 
  28      5B463654 
  28      3703CD63 
  29 00a3 71338862 		.ascii	"q3\210b\2048\2351\003\356\003\240\235\014,9oV\260@\314"
  29      84389D31 
  29      03EE03A0 
  29      9D0C2C39 
  29      6F56B040 
  30 00b8 E198C2E5 		.ascii	"\341\230\302\345\300\300\362\202\275\001\034\204L\334"
  30      C0C0F282 
  30      BD011C84 
  30      4CDC
  31 00c6 30828B41 		.ascii	"0\202\213AU\031\024\036\030\001 \260\"\017\252\363\216"
  31      5519141E 
  31      180120B0 
  31      220FAAF3 
  31      8E
  32 00d7 AC0083D0 		.ascii	"\254\000\203\3206\240\347\205\256\010p\240\352f\000"
  32      36A0E785 
  32      AE0870A0 
  32      EA6600
  33 00e6 0066D635 		.ascii	"\000f\3265\011"
  33      09
  34              		.text
  35              		.section	.gnu.lto_.jmpfuncs.d236832,"",%progbits
  36 0000 789C6D8A 		.ascii	"x\234m\212[\012\000 \014\303R\347\333\343x\300]]\007"
  36      5B0A0020 
  36      0CC352E7 
  36      DBE378C0 
  36      5D5D07
  37 0013 7E5A4803 		.ascii	"~ZH\003\245\306?\373y]\004\011L\222g(\341\032\325\240"
  37      A5C63FFB 
  37      795D0409 
  37      4C926728 
  37      E11AD5A0 
  38 0027 C34892B9 		.ascii	"\303H\222\271\303\214\355\336\017O\350\003\206"
  38      C38CEDDE 
  38      0F4FE803 
  38      86
  39              		.text
  40              		.section	.gnu.lto_.pureconst.d236832,"",%progbits
  41 0000 789C6366 		.ascii	"x\234cf``\020g\200\000n\006)F)&)f)\026)V)6)v)\016)N"
  41      60601067 
  41      80006E06 
  41      29462926 
  41      29662916 
  42 001e 292E2900 		.ascii	").)\000\022T\001{"
  42      1254017B 
  43              		.text
  44              		.section	.gnu.lto_ADC_DelSig_1_Ext_CP_Clk_Start.d236832,"",%progbits
  45 0000 789C7D91 		.ascii	"x\234}\221KK\002Q\024\307\3179\223\203\346&Z\372\005"
  45      4B4B0251 
  45      14C7CF39 
  45      9383E626 
ARM GAS  C:\Users\Luggi\AppData\Local\Temp\ccWDHWXF.s 			page 3


  45      5AFA05
  46 0013 DC05127D 		.ascii	"\334\005\022}\200\030\243\255\340V\030\302\206\210$"
  46      8018A3AD 
  46      E05618C2 
  46      868824
  47 0022 410CDA39 		.ascii	"A\014\3329CB\257\215D\213(\334\004=-M\203Z6\025\264"
  47      4342AF8D 
  47      448B28DC 
  47      043D2D4D 
  47      835A3615 
  48 0037 098CA210 		.ascii	"\011\214\242\020\014j\243P;%\251\014\302\316\235\351"
  48      0C6AA350 
  48      3B25A90C 
  48      C2CE9DE9 
  49 0047 01495DB8 		.ascii	"\001I]\270\347>\346\177~\347\177\317H\320><<\013\010"
  49      E73EE67F 
  49      7EE77FCF 
  49      48D03E3C 
  49      3C0B08
  50 005a D0CB2B4A 		.ascii	"\320\313+J\200\224*\002\030NB\024\033@H\020&\360\221"
  50      80942A02 
  50      184E4214 
  50      1B404810 
  50      26F091
  51 006d EA842933 		.ascii	"\352\204)3\263\344\366\256\351\272^\273:7\002&6\011"
  51      B3E4F6AE 
  51      E9BA5EBB 
  51      3A370226 
  51      3609
  52 007f E0896C0E 		.ascii	"\340\211l\016n\240\027XTO\276\227\334r\222E]\3667\334"
  52      6EA01758 
  52      544FBE97 
  52      DC729245 
  52      5DF637DC 
  53 0093 4499F990 		.ascii	"D\231\371\220\3536\365Vk?w|\215N\202&q1\016\016\021"
  53      EB36F556 
  53      6B3F777C 
  53      8D4E8226 
  53      71310E0E 
  54 00a8 6411002A 		.ascii	"d\021\000*,\027E\253Db\225\312x\362<wv\340\022\204\027"
  54      2C1745AB 
  54      446295CA 
  54      78F23C77 
  54      76E01284 
  55 00bd B21CCC1F 		.ascii	"\262\034\314\037\275\271\036\250I\264:m\350\035\242"
  55      BDB91EA8 
  55      49B43A6D 
  55      E81DA2
  56 00cc DE7DE5E2 		.ascii	"\336}\345\342\322i]\2018\346\3633\257\2564\256\030I"
  56      D2695D81 
  56      38E6F333 
  56      AFAE34AE 
  56      1849
  57 00de 7627E116 		.ascii	"v'\341\026zp\033\371\215\230\3014B\031\247\032\262\215"
  57      7A701BF9 
  57      8D98C134 
  57      4219A71A 
ARM GAS  C:\Users\Luggi\AppData\Local\Temp\ccWDHWXF.s 			page 4


  57      B28D
  58 00f0 936CE272 		.ascii	"\223l\342r\251\332\220D:\022\340\016+\271\350\002\012"
  58      A9DA9044 
  58      3A12E00E 
  58      2BB9E802 
  58      0A
  59 0101 C97FB05D 		.ascii	"\311\177\260]\2061\002,\207\305\365O\207\016N\311,\336"
  59      8631022C 
  59      87C5F54F 
  59      870E4EC9 
  59      2CDE
  60 0113 9EBA2D3B 		.ascii	"\236\272-;\205/\207\263\207\331Z\347\017%\373M\311\375"
  60      852F87B3 
  60      87D95AE7 
  60      0F25FB4D 
  60      C9FD
  61 0125 B224106D 		.ascii	"\262$\020m\036\376\314\336\263<\310p\207\206y\343\020"
  61      1EFECCDE 
  61      B33CC870 
  61      878679E3 
  61      10
  62 0136 6AF11B2A 		.ascii	"j\361\033*\334H\356\0357\3037\250\215k\261\241\2706"
  62      DC48EE1D 
  62      37C337A8 
  62      8D6BB1A1 
  62      B836
  63 0148 AC06A313 		.ascii	"\254\006\243\023\261\260\026\012\004\243J_\250\337\257"
  63      B1B0160A 
  63      04A34A5F 
  63      A8DFAF
  64 0157 A87E2D12 		.ascii	"\250~-\022\034\035Q}\352\300d\\U\002\252\022\031\353"
  64      1C1D517D 
  64      EAC0645C 
  64      5502AA12 
  64      19EB
  65 0169 09C307E7 		.ascii	"\011\303\007\347Z\245\343"
  65      5AA5E3
  66              		.text
  67              		.section	.gnu.lto_ADC_DelSig_1_Ext_CP_Clk_Stop.d236832,"",%progbits
  68 0000 789C6366 		.ascii	"x\234cf\300\004R@\274\225\221\201\301\030H32302M8\307"
  68      C0045240 
  68      BC959181 
  68      C1184833 
  68      32333032 
  69 0017 C0D0C8C1 		.ascii	"\300\320\310\301\304\310\010b002\32431\3263\276d\372"
  69      C4C80862 
  69      303032D4 
  69      3331D633 
  69      BE64FA
  70 002a C8C438E1 		.ascii	"\310\3048\341\300\352\031\334\352K\033\032\032>|\332"
  70      C0EA19DC 
  70      EA4B1B1A 
  70      1A3E7CDA 
  71 003a 28D12AF1 		.ascii	"(\321*\361\223\211\201\3413\023\304\030\306\345\214"
  71      938981E1 
  71      3313C418 
  71      C6E58C
ARM GAS  C:\Users\Luggi\AppData\Local\Temp\ccWDHWXF.s 			page 5


  72 0049 EA0C4035 		.ascii	"\352\014@5\037[\376^\347fk\001\252\021\200\3101\256"
  72      1F5BFE5E 
  72      E7666B01 
  72      AA1180C8 
  72      31AE
  73 005b 6064031A 		.ascii	"`d\003\032\317\260^\350@\303\377\377\233\317L\354Pg"
  73      CFB05EE8 
  73      40C3FFFF 
  73      9BCF4CEC 
  73      5067
  74 006d E46062F8 		.ascii	"\344`b\370\311\004\264\014H\260\202\0106\020\301\300"
  74      C904B40C 
  74      48B08208 
  74      3610C1C0 
  75 007d F004A81E 		.ascii	"\360\004\250\036d\351S&&\020\315|\213\361\320\267\256"
  75      64E95326 
  75      2610CD7C 
  75      8BF1D0B7 
  75      AE
  76 008e 6B33A731 		.ascii	"k3\2471\202\314\370\316\004vB\367\376_\234/\230~21-"
  76      82CCF8CE 
  76      047642F7 
  76      FE5F9C2F 
  76      987E3231 
  77 00a3 6A6F6C60 		.ascii	"jol`\001\331x\377\311\371\213\034`!\006\020w\343\306"
  77      01D978FF 
  77      C9F98B1C 
  77      60210610 
  77      77E3C6
  78 00b6 8E1F9C73 		.ascii	"\216\037\234s\031g7\2660\376dbf\\\311(\305\270\212\021"
  78      196737B6 
  78      30FE6462 
  78      665CC928 
  78      C5B88A11 
  79 00ca E849C6D5 		.ascii	"\350I\306\325\214s\031\031n16\377`\203\030\307\0141"
  79      8C731919 
  79      6E3136FF 
  79      608318C7 
  79      0C31
  80 00dc 71C19E7B 		.ascii	"q\301\236{\275< \355\314\177\031\031\030\327\000\225"
  80      BD3C20ED 
  80      CC7F1919 
  80      18D70095 
  81 00ec 02AD9D04 		.ascii	"\002\255\235\004\266\022\237ik\201\246\001\315`\000"
  81      B6129F69 
  81      6B81A601 
  81      CD6000
  82 00fb BBF1DECC 		.ascii	"\273\361\336\314)P7\262\002\365\254\236r\37307\330A"
  82      295037B2 
  82      02F5AC9E 
  82      72FB3037 
  82      D841
  83 010d 9B606EEC 		.ascii	"\233`n\354\334\276\356\003\027\302\230upc\326\2439\012"
  83      DCBEEE03 
  83      17C29875 
  83      7063D6A3 
  83      390A
ARM GAS  C:\Users\Luggi\AppData\Local\Temp\ccWDHWXF.s 			page 6


  84 011f 64048623 		.ascii	"d\004\206#p\352\336\000v\004\033\303=\306\306\003;\335"
  84      70EADE00 
  84      76041BC3 
  84      3DC6C603 
  84      3BDD
  85 0131 40AA4151 		.ascii	"@\252AQ\361\004\030\226\300\340\003\006\207\241{j^j"
  85      F1041896 
  85      C0E00306 
  85      87A17B6A 
  85      5E6A
  86 0143 5162496A 		.ascii	"QbIjJ|p~iQrjL@p\276\263i\214\243\213s\274KjNpfz\274"
  86      4A7C707E 
  86      6951726A 
  86      4C4070BE 
  86      B3698CA3 
  87 0161 61BC6B45 		.ascii	"a\274kEI\274s@\274sN\266^2\003\000\300@\246\230"
  87      49BC7340 
  87      BC734EB6 
  87      5E320300 
  87      C040A698 
  88              		.text
  89              		.section	.gnu.lto_ADC_DelSig_1_Ext_CP_Clk_StopBlock.d236832,"",%progbits
  90 0000 789C8D94 		.ascii	"x\234\215\224]LTG\024\307\347\314\375\332e\221\217\312"
  90      5D4C5447 
  90      14C7E7CC 
  90      FDDA6591 
  90      8FCA
  91 0012 03F5A17D 		.ascii	"\003\365\241}0\3217\033\023}51\320\2304>\030y\251\211"
  91      30D1371B 
  91      137D3531 
  91      D098343E 
  91      1879A989 
  92 0026 CDA6CAC6 		.ascii	"\315\246\312\306\220\222\322\0205\246\017\345^\270~"
  92      9092D210 
  92      35A60FE5 
  92      5EB87E
  93 0035 214D014D 		.ascii	"!M\001M\304Z\244\232T\327\242\350\256\265\024\241\272"
  93      C45AA49A 
  93      54D7A2E8 
  93      AEB514A1 
  93      BA
  94 0046 B2E256B1 		.ascii	"\262\342V\261\340\032\305\210\011\022\303\0324\332,"
  94      E01AC588 
  94      0912C31A 
  94      34DA2C
  95 0055 C102DB14 		.ascii	"\301\002\333\024\267\347\314\334\275\300\032L7\331s"
  95      B7E7CCDC 
  95      BDC01A4C 
  95      37D973
  96 0064 EF9D39F3 		.ascii	"\357\2359\363\233\377\371\230Q\330\333\277\317\360\277"
  96      9BFFF998 
  96      51D8DBBF 
  96      CFF0BF
  97 0073 51676C1D 		.ascii	"Qgl\035>\301\303\2007\0160fy8W\356\177\304\314\034\275"
  97      3EC1C380 
  97      370E3066 
  97      793857EE 
ARM GAS  C:\Users\Luggi\AppData\Local\Temp\ccWDHWXF.s 			page 7


  97      7FC4CC1C 
  98 0088 E70366E6 		.ascii	"\347\003f\346*\240\312a\225\033\0151\206\343\232m\340"
  98      2AA0CA61 
  98      951B0D31 
  98      86E39A6D 
  98      E0
  99 0099 B821C7D7 		.ascii	"\270!\307\327k\240\313y\035\200^\030\260\032\256\250"
  99      6BA0CB79 
  99      1D805E18 
  99      B01AAEA8 
 100 00a9 86A6430D 		.ascii	"\206\246C\015W\345F\317\371\004\207\306H{\213o\345O"
 100      57E546CF 
 100      F90487C6 
 100      487B8B6F 
 100      E54F
 101 00bb A669267B 		.ascii	"\246i&{\273\212\367\026\2478c\223\\:\300\031X\311\320"
 101      BB8AF716 
 101      A7386393 
 101      5C3AC019 
 101      58C9D0
 102 00ce 67C29E7D 		.ascii	"g\302\236}\350\323m\364)\220s\020\004\035\360\201s\326"
 102      E8D36DF4 
 102      29907310 
 102      041DF081 
 102      73D6
 103 00e0 CDFD214D 		.ascii	"\315\375!MY\003\344\327\377tf2w\234\2478\024\320\347"
 103      5903E4D7 
 103      FF746632 
 103      779CA738 
 103      14D0E7
 104 00f3 F70F13AF 		.ascii	"\367\017\023\257\025\372\344\234>\207\302g\202\260\374"
 104      15FAE49C 
 104      3E87C267 
 104      82B0FC
 105 0102 A469D68E 		.ascii	"\244i\326\216>\252\253\3175\203\246=\232N\177\230\342"
 105      3EAAABCF 
 105      3583A63D 
 105      9A4E7F98 
 105      E2
 106 0113 0A9C0505 		.ascii	"\012\234\005\005\271\3603,\203vX\346\344\001\316\301"
 106      B9F0332C 
 106      837658E6 
 106      E401CEC1 
 107 0123 F20BEF45 		.ascii	"\362\013\357E\314tz\362Y\323\370\012^\254\260\024WU"
 107      CC747AF2 
 107      59D3F80A 
 107      5EACB014 
 107      5755
 108 0135 321E325E 		.ascii	"2\0362^2>\341\226G\257\371d\012\310\024\222YJ\246\210"
 108      323EE196 
 108      47AFF964 
 108      0AC81492 
 108      594AA688 
 109 0149 0C636328 		.ascii	"\014cc(:\352c\011\024\022\365)\303\320;U?\365\303\032"
 109      3AEA6309 
 109      1412F529 
 109      C3D03B55 
ARM GAS  C:\Users\Luggi\AppData\Local\Temp\ccWDHWXF.s 			page 8


 109      3FF5C31A 
 110 015d 8A629A2B 		.ascii	"\212b\232+\224\204C\327\376\361\222R\355\324~\313TI"
 110      948443D7 
 110      FEF19252 
 110      EDD47ECB 
 110      5449
 111 016f ED93B1C1 		.ascii	"\355\223\261\301\270G\0141\372\014\205\016\314x[\341"
 111      B8470C31 
 111      FA0C850E 
 111      CC785BE1 
 112 017f B865438A 		.ascii	"\270eC\212\353p\036\225v\220R\270\000\255\300\206\241"
 112      EB701E95 
 112      769052B8 
 112      00ADC086 
 112      A1
 113 0190 6E66DF0D 		.ascii	"nf\337\015M\002\363%\323\215^\305\310.\242\357\003\260"
 113      4D02F325 
 113      D38D5EC5 
 113      C82EA2EF 
 113      03B0
 114 01a2 1FD56D73 		.ascii	"\037\325ms|(s\247\273\033\014\341\200\230\220\023v\202"
 114      7C2873A7 
 114      BB1B0CE1 
 114      80989013 
 114      7682
 115 01b4 2BCC3648 		.ascii	"+\3146Hb2\371*\256-L>\205*r\217\013\302\240\343d\372"
 115      6232F92A 
 115      AE2D4C3E 
 115      852A728F 
 115      0BC2A0E3 
 116 01ca 98B95688 		.ascii	"\230\271V\210\264LG\367\255S/\376\342B\250\025y\237"
 116      B44C47F7 
 116      AD532FFE 
 116      E242A815 
 116      799F
 117 01dc A45E72A5 		.ascii	"\244^r\245\376\202R\347GF\230\3138C\233]\374\3332\034"
 117      FE8252E7 
 117      474698CB 
 117      38439B5D 
 117      FCDB321C 
 118 01f0 6673EDF0 		.ascii	"fs\355\360\327\202\331\230a\036=k?X2\237\371\253\313"
 118      D782D998 
 118      611E3D6B 
 118      3F58329F 
 118      F9ABCB
 119 0203 EC94CCC1 		.ascii	"\354\224\314\301\321\350w\242\362:\006\373\233\303L"
 119      D1E877A2 
 119      F23A06FB 
 119      9BC34C
 120 0212 CE31DB6E 		.ascii	"\3161\333n\307\373\271\200\036\311@\0177\035\356\313"
 120      C7FBB980 
 120      1EC9400F 
 120      371DEECB 
 121 0222 9B0FED72 		.ascii	"\233\017\355r\241W\020\232Q6U\377\346\304WD\231\346"
 121      A157109A 
 121      513655FF 
 121      E6C45744 
ARM GAS  C:\Users\Luggi\AppData\Local\Temp\ccWDHWXF.s 			page 9


 121      99E6
 122 0234 1E5C3572 		.ascii	"\036\\5r\276\253EdU;\220\001\365\015\230\0150W\232n"
 122      BEAB4564 
 122      553B9001 
 122      F50D980D 
 122      30579A6E 
 123 0248 17D39329 		.ascii	"\027\323\223)\215.\327{%\242\355\371\233qUh\255a\360"
 123      8D2ED77B 
 123      25A2EDF9 
 123      9B715568 
 123      AD61F0
 124 025b BBDCA519 		.ascii	"\273\334\245\031\034\241\213\302\256\342(\"\244\244"
 124      1CA18BC2 
 124      AEE22822 
 124      A4A4
 125 0269 81B64F25 		.ascii	"\201\266O%\322\207K:\236\336\275\"\352h\330Vv\363\030"
 125      D2874B3A 
 125      9EDEBD22 
 125      EA68D856 
 125      76F318
 126 027c A2799E3C 		.ascii	"\242y\236<\356=\224\357\204\272*\305=p\015\261\021\201"
 126      EE3D94EF 
 126      84BA2AC5 
 126      3D700DB1 
 126      1181
 127 028e BD4E1A87 		.ascii	"\275N\032\207\240\326\334B@*0B\205\242\320l\223\342"
 127      A0D6DC42 
 127      402A3042 
 127      85A2D06C 
 127      93E2
 128 02a0 88B2265A 		.ascii	"\210\262&Z\272E\366\274\265f\366\016^\261C\362d|sFu"
 128      BA45F6BC 
 128      B566F60E 
 128      5EB143F2 
 128      647C7346 
 129 02b5 0EF4223E 		.ascii	"\016\364\">*\3607\204j\237,\307l\\s\200\357h\222>Y\320"
 129      2AF03784 
 129      6A9F2CC7 
 129      6C5C7380 
 129      EF68923E 
 130 02cb E97F637B 		.ascii	"\351\177c{\363E\222\014\0067Es&\260Q\361*q\216O\333"
 130      F345920C 
 130      06374573 
 130      26B051F1 
 130      2A718E4F 
 131 02e0 669981BC 		.ascii	"f\231\201\274\0058X\010\213\271\207\343\245\"\335U\271"
 131      05385808 
 131      8BB987E3 
 131      A522DD55 
 131      B9
 132 02f1 22D63A1E 		.ascii	"\"\326:\036\0265P\201\301\037\231\303\361\215\343\343"
 132      16355081 
 132      C11F99C3 
 132      F18DE3E3 
 133 0301 9E86314C 		.ascii	"\236\2061L \336n\220\300S(O\305T\375P\360\004H\277\202"
 133      20DE6E90 
 133      C053284F 
ARM GAS  C:\Users\Luggi\AppData\Local\Temp\ccWDHWXF.s 			page 10


 133      C554FD50 
 133      F00448BF 
 134 0316 779DCB5B 		.ascii	"w\235\313[Y\305/\224\376?\366\214|+\033u\026w\276\235"
 134      59C52F94 
 134      FE3FF68C 
 134      7C2B1B75 
 134      1677BE9D 
 135 032a 55FD4569 		.ascii	"U\375Ei\375\"\217\205\262\372#\301\260\243`)\256i?\362"
 135      FD228F85 
 135      B2FA23C1 
 135      B0A36029 
 135      AE693FF2 
 136 033e 38EA131D 		.ascii	"8\352\023\035\031\316\334\035\007;;\2229s\230;.\346"
 136      19CEDC1D 
 136      073B3B92 
 136      3973983B 
 136      2EE6
 137 0350 CF2C5145 		.ascii	"\317,QE\210xK\304\242\253\007\204\210\"Y\314\330\275"
 137      88784BC4 
 137      A2AB0784 
 137      882259CC 
 137      D8BD
 138 0362 FF51CCC1 		.ascii	"\377Q\314\301y\007\251\271\351\016wV\270\035\353\235"
 138      7907A9B9 
 138      E90E7756 
 138      B81DEB9D 
 139 0372 EB58B745 		.ascii	"\353X\267EE\007\335u;(\356t\020\325_\247\333s\004\254"
 139      4507DD75 
 139      3B28EE74 
 139      10D55FA7 
 139      DB7304AC 
 140 0386 48E727F2 		.ascii	"H\347'\362\026\242\012\001\016\342\365\272zC\340\313"
 140      16A20A01 
 140      0EE2F5BA 
 140      7A43E0CB 
 141 0396 40F5E73B 		.ascii	"@\365\347;\003\345\376\262\252]\325\333\003[7\225U\225"
 141      03E5FEB2 
 141      AA5DD5DB 
 141      035B3795 
 141      5595
 142 03a8 ACDDBABE 		.ascii	"\254\335\272\276\264\304_\032\250,\253\330\341_\355"
 142      B4C45F1A 
 142      A82CABD8 
 142      E15FED
 143 03b7 FF78CF4E 		.ascii	"\377x\317N\177\311&\177I\345\027\253\266\263\234\252"
 143      7FC9267F 
 143      49E517AB 
 143      B6B39CAA 
 144 03c7 CAF2D28A 		.ascii	"\312\362\322\212\335\025\345\201\352\377\000\267\335"
 144      DD15E581 
 144      EAFF00B7 
 144      DD
 145 03d4 52C9     		.ascii	"R\311"
 146              		.text
 147              		.section	.gnu.lto_ADC_DelSig_1_Ext_CP_Clk_StandbyPower.d236832,"",%progbits
 148 0000 789C8D91 		.ascii	"x\234\215\221OH\324A\024\307\337wf~\273?v\367\020\235"
 148      4F48D441 
ARM GAS  C:\Users\Luggi\AppData\Local\Temp\ccWDHWXF.s 			page 11


 148      14C7DF77 
 148      667EBB3F 
 148      76F7109D 
 149 0014 640FDE44 		.ascii	"d\017\336D\002Q\244:t\010\2125<t\021\366*\374\010\373"
 149      0251A43A 
 149      74088A35 
 149      3C7411F6 
 149      2AFC08FB 
 150 0028 119124D8 		.ascii	"\021\221$\330\006\335\234_\376\"\212\002\221\0041\244"
 150      06DD9C5F 
 150      FE228A02 
 150      910431A4 
 151 0038 A0FFADAD 		.ascii	"\240\377\255\255\265\036\"Zb\251\273Q\030\033Fz\331"
 151      B51E225A 
 151      62A9BB51 
 151      181B467A 
 151      D9
 152 0049 05EDE492 		.ascii	"\005\355\344\222X\036\226\355\315\214\235\002i`\346"
 152      581E96ED 
 152      CD8C9D02 
 152      6960E6
 153 0058 CD3CBEEF 		.ascii	"\315<\276\3573\337y#\351\337q\234g\257 :\306\021\011"
 153      33DF7923 
 153      E9DF719C 
 153      67AF203A 
 153      C61109
 154 006b 82985A26 		.ascii	"\202\230Z&\212|!d\245\223tJ\255\364\221\316Hx.\255\376"
 154      8A7C2164 
 154      A593744A 
 154      ADF491CE 
 154      48782EAD 
 155 0080 6E3CC06C 		.ascii	"n<\300l\0104!\244\3620\201M\321\024\230\252\026g\323"
 155      083421A4 
 155      F230814D 
 155      D11498AA 
 155      1667D3
 156 0093 DD8FB4D6 		.ascii	"\335\217\264\326[\237k\035\327:v\231\374S\270\233\360"
 156      5B9F6B1D 
 156      D73A7699 
 156      FC53B89B 
 156      F0
 157 00a4 04DD2C89 		.ascii	"\004\335,\211\037\356\264\224<\002\342\375\233\357\357"
 157      1FEEB494 
 157      3C02E2FD 
 157      9BEFEF
 158 00b3 9A99AE07 		.ascii	"\232\231\256\007Z_\255n\226\364\011\354\012\340)$W\240"
 158      5A5FAD6E 
 158      96F409EC 
 158      0AE02924 
 158      57A0
 159 00c5 278B4359 		.ascii	"'\213CY\342\004\341\031\272\214\270\031\267j\351D\314"
 159      E204E119 
 159      BA8CB819 
 159      B76AE944 
 159      CC
 160 00d6 EC038E89 		.ascii	"\354\003\216\211\347H\200\343\342\301\252n\267\227\326"
 160      E74880E3 
ARM GAS  C:\Users\Luggi\AppData\Local\Temp\ccWDHWXF.s 			page 12


 160      E2C1AA6E 
 160      B797D6
 161 00e5 A7370E8B 		.ascii	"\2477\016\213\024\023X\257\270RxfI\232\3057\013Q\235"
 161      141358AF 
 161      B8527866 
 161      499AC537 
 161      0B519D
 162 00f8 A771DDE0 		.ascii	"\247q\335\340\003G\371\005\361\327\311\366L\322\200"
 162      0347F905 
 162      F1D7C9F6 
 162      4CD280
 163 0107 7E09E33F 		.ascii	"~\011\343?z\374\366VrCX5\212\310Z\343\015!\251\322)"
 163      7AFCF656 
 163      72435835 
 163      8AC85AE3 
 163      0D21A9D2 
 164 011c 57F17EE7 		.ascii	"W\361~\347\346\362B\031N\256X^\274\363\355C\332\310"
 164      E6F24219 
 164      4EAE585E 
 164      BCF3ED43 
 164      DAC8
 165 012e 65F97AA4 		.ascii	"e\371z\244\225q\271^\377\370\311\267)2\307\033\257K"
 165      9571B95E 
 165      FFF8C9B7 
 165      2932C71B 
 165      AF4B
 166 0140 5BA979DC 		.ascii	"[\251y\334\215b~\234\302\002\262xa\260(a\036\264\212"
 166      8D627E9C 
 166      C202B278 
 166      61B02861 
 166      1EB48A
 167 0153 C9DF0987 		.ascii	"\311\337\011\207\363\034\361~e\355v\306\224\253\026"
 167      F31CF17E 
 167      65ED76C6 
 167      94AB16
 168 0162 BF7C91A5 		.ascii	"\277|\221\245|\355\264\275r?\332K\2461\303\232U\264"
 168      7CEDB4BD 
 168      723FDA4B 
 168      A631C39A 
 168      55B4
 169 0174 D2E7CCFE 		.ascii	"\322\347\314\376\350q\354\344~\245\257\366\214l\357"
 169      E871ECE4 
 169      7EA5AFF6 
 169      8C6CEF
 170 0183 19F19D7E 		.ascii	"\031\361\235~\256\326\330\226\266\023\374\031\345\377"
 170      AED6D896 
 170      B613FC19 
 170      E5FF
 171 0191 F5B1647D 		.ascii	"\365\261d}\370\326\207g{\274\206\250z\357\264\2513\255"
 171      F8D68767 
 171      7BBC86A8 
 171      7AEFB4A9 
 171      33AD
 172 01a3 ACF37F72 		.ascii	"\254\363\177r\226\273\333?\030^\014\307\317\024\302"
 172      96BBDB3F 
 172      185E0CC7 
 172      CF14C2
ARM GAS  C:\Users\Luggi\AppData\Local\Temp\ccWDHWXF.s 			page 13


 173 01b2 B3417EEC 		.ascii	"\263A~\354\362\370H8<\224\037\313\035\035>9\220\013"
 173      F2F84838 
 173      3C941FCB 
 173      1D1D3E39 
 173      900B
 174 01c4 06C2D1FC 		.ascii	"\006\302\321\374\371sA\177p\352J!\310\015\005\271\321"
 174      F973417F 
 174      70EA4A21 
 174      C80D05B9 
 174      D1
 175 01d5 0BBD23E4 		.ascii	"\013\275#\344]*\260\374\017f\011\323Y"
 175      5D2AB0FC 
 175      0F6609D3 
 175      59
 176              		.text
 177              		.section	.gnu.lto_ADC_DelSig_1_Ext_CP_Clk_GetDividerRegister.d236832,"",%progbits
 178 0000 789C6366 		.ascii	"x\234cf\300\004R@\374\003\210\215\201\230\221\231\201"
 178      C0045240 
 178      FC03888D 
 178      81989199 
 178      81
 179 0011 9169C239 		.ascii	"\221i\3029\006\206F\016&FF\020\203\201\221\241\236\211"
 179      0686460E 
 179      26464610 
 179      838191A1 
 179      9E89
 180 0023 B19EF125 		.ascii	"\261\236\361%\323G&\306\323\217~|\346y\301\364\223\211"
 180      D34726C6 
 180      D38F7E7C 
 180      E679C1F4 
 180      9389
 181 0035 418001C8 		.ascii	"A\200\001\310\235u\375\351\027f\020\227\221\011\304"
 181      9D75FDE9 
 181      17661097 
 181      9109C4
 182 0044 DDFDF9DC 		.ascii	"\335\375\371\334#6\365\245\015\015M\037&\315N\2341e"
 182      2336F5A5 
 182      0D0D4D1F 
 182      26CD4E9C 
 182      3165
 183 0056 01E34F26 		.ascii	"\001\343O&&\206\317L\014\214\313\031\245\030W0\202,"
 183      2686CF4C 
 183      0C8CCB19 
 183      A5185730 
 183      822C
 184 0068 625CC9A8 		.ascii	"b\\\311\250\016R\373\261\345\357un\266\226\206\206\006"
 184      0E52FBB1 
 184      E5EF756E 
 184      B6968686 
 184      06
 185 0079 01900AA0 		.ascii	"\001\220\012\240\304*F6F \275^\350@\303\377\377\233"
 185      C42A4636 
 185      4620BD5E 
 185      E840C3FF 
 185      FF9B
 186 008b DF4EE930 		.ascii	"\337N\3510gafb\000\231\300\360\004\210Any\012\344\000"
 186      67616662 
ARM GAS  C:\Users\Luggi\AppData\Local\Temp\ccWDHWXF.s 			page 14


 186      0099C0F0 
 186      0488416E 
 186      790AE400 
 187 009f 69E65B8C 		.ascii	"i\346[\214\207\276u\335;\313\005\322\363\235\011\344"
 187      87BE75DD 
 187      3BCB05D2 
 187      F39D09E4 
 188 00af B0758F2E 		.ascii	"\260u\217.\354b\007\271\204\271\245\261\261\201\005"
 188      EC6207B9 
 188      84B9A5B1 
 188      B18105
 189 00be 64C3FD27 		.ascii	"d\303\375'\347/r\200\205\030\300\334\333\207\272\371"
 189      E72F7280 
 189      8518C0DC 
 189      DB87BAF9 
 190 00ce E732CE6E 		.ascii	"\3472\316nli< \363\223\211\205q5\320Mk@nb\\\3138\227"
 190      6C693C20 
 190      F3938985 
 190      7135D04D 
 190      6B406E62 
 191 00e6 91E11E63 		.ascii	"\221\341\036cc\0037\324@\006\220\225\214 \253\200LC"
 191      630337D4 
 191      40069095 
 191      8C20AB80 
 191      4C43
 192 00f8 F7D4BCD4 		.ascii	"\367\324\274\324\242\304\222\324\224\370\340\374\322"
 192      A2C492D4 
 192      94F8E0FC 
 192      D2
 193 0105 A2E4D498 		.ascii	"\242\344\324\230\200\340|g\323\030G\027\347x\227\324"
 193      80E07C67 
 193      D3184717 
 193      E77897D4 
 194 0115 9CE0CCF4 		.ascii	"\234\340\314\364x\303x\327\212\222x\347\200x\347\234"
 194      78C378D7 
 194      8A9278E7 
 194      8078E79C 
 195 0125 6CBD6406 		.ascii	"l\275d\006\000\206\245n\202"
 195      0086A56E 
 195      82
 196              		.text
 197              		.section	.gnu.lto_ADC_DelSig_1_Ext_CP_Clk_SetModeRegister.d236832,"",%progbits
 198 0000 789C7D91 		.ascii	"x\234}\221\317+DQ\024\307\317\367\336\2317\303ld\305"
 198      CF2B4451 
 198      14C7CFF7 
 198      DE9937C3 
 198      6C64C5
 199 0013 EC352929 		.ascii	"\3545))\305\332\217!+\245\246\254\324K\346%\3711\305"
 199      C5DA8F21 
 199      2BA5A6AC 
 199      D44BE625 
 199      F931C5
 200 0026 28BB798F 		.ascii	"(\273y\217a\241\324PJ4\033\362\233\231\205?\3003\033"
 200      61A1D450 
 200      4A341BF2 
 200      9B99853F 
 200      C0331B
ARM GAS  C:\Users\Luggi\AppData\Local\Temp\ccWDHWXF.s 			page 15


 201 0039 1B8D9492 		.ascii	"\033\215\224\222Y\214\315(D\021a\224\306\2713\026J\271"
 201      598CCD28 
 201      44116194 
 201      C6B93316 
 201      4AB9
 202 004b 75EF3DE7 		.ascii	"u\357=\347\334\357\371\364}\347I\372\273\274\274\217"
 202      DCEFF9F4 
 202      7DE749FA 
 202      BBBCBC8F 
 203 005b 41D4CC37 		.ascii	"A\324\3147$A\304\322D\226[\000* PD \202;\361,\020\263"
 203      2441C4D2 
 203      44965B00 
 203      2A205044 
 203      20823BF1 
 204 0072 F7963DBE 		.ascii	"\367\226=\276\015\3234\237R\207\3253UyA\364\"J\030l"
 204      0DD3349F 
 204      5287D533 
 204      557941F4 
 204      224A186C 
 205 0086 C1C792D3 		.ascii	"\301\307\222\323\315\205GM6\2028>\231Ng]5\353\2469e"
 205      CD85474D 
 205      3682383E 
 205      994E675D 
 205      35EBA639 
 206 009b 3F24CC16 		.ascii	"?$\314\026\344\231\271\015\311\035\250\363\242\326K"
 206      E499B90D 
 206      C91DA8F3 
 206      A2D64B
 207 00aa 5C20ECA0 		.ascii	"\\ \354\240F\211\237\243_\227\036-\312\354\212\022\023"
 207      46899FA3 
 207      5F971E2D 
 207      CAEC8A12 
 207      13
 208 00bb BBD0D816 		.ascii	"\273\320\330\026%+m\263PxI/\335\372\234\345\202{\204"
 208      252B6DB3 
 208      5078492F 
 208      DDFA9CE5 
 208      827B84
 209 00ce E4433AA0 		.ascii	"\344C:\240:\235*\324\324\341R\207[=\023\345x+\3637\234"
 209      3A9D2AD4 
 209      D4E15287 
 209      5B3D13E5 
 209      782BF337 
 210 00e3 F02D3348 		.ascii	"\360-3H\275\315\275]\255@1\337\205\372\224x\356b^\273"
 210      BDCDBD5D 
 210      AD4031DF 
 210      85FA9478 
 210      EE625EBB 
 211 00f7 1579E198 		.ascii	"\025y\341\230\265,\323\241\034\\\347\316\316\335\305"
 211      B52CD3A1 
 211      1C5CE7CE 
 211      CEDDC5
 212 0106 12A934B1 		.ascii	"\022\2514\261\226\212\304\261jE\331\267\023{\360b\037"
 212      968AC4B1 
 212      6A45D9B7 
 212      137BF062 
 212      1F
ARM GAS  C:\Users\Luggi\AppData\Local\Temp\ccWDHWXF.s 			page 16


 213 0117 3C2B1C20 		.ascii	"<+\034 \016\312`*\353*\321$\003\177\347\316w\006d0\375"
 213      0ECA602A 
 213      EB2AD124 
 213      037FE7CE 
 213      77066430 
 214 012c A1957255 		.ascii	"\241\225rUb\334\275\375yQ\246\350\362\243\360\263x\254"
 214      62DCBDFD 
 214      7951A6E8 
 214      F2A3F0B3 
 214      78AC
 215 013e 0946B2F6 		.ascii	"\011F\262\366\365G\353*\342\264\33787W9O-\026\315\377"
 215      F547EB2A 
 215      E2B4DF38 
 215      3757394F 
 215      2D16CDFF 
 216 0152 E32BC9BE 		.ascii	"\343+\311\276XNYX\366Q\217\022\253\337\222\343\021\363"
 216      584E5958 
 216      F6518F12 
 216      ABDF92E3 
 216      11F3
 217 0164 0878200D 		.ascii	"\010x \015\235\306\2501\326\0276\202z 41\326o\364v\007"
 217      9DC6A831 
 217      D6173682 
 217      7A203431 
 217      D66FF476 
 218 0179 42FEA6DE 		.ascii	"B\376\246\336\326v\277\336n\014\007\006\007\364\006"
 218      D676BFDE 
 218      6E0C0706 
 218      07F406
 219 0188 BD6332AC 		.ascii	"\275c2\254\373\273u\377\360P}?yFBA\243m0\334\3257>\364"
 219      FBBB75FF 
 219      F0507D3F 
 219      79464241 
 219      A36D30DC 
 220 01a0 0D590EB2 		.ascii	"\015Y\016\2622"
 220      32
 221              		.text
 222              		.section	.gnu.lto_ADC_DelSig_1_Ext_CP_Clk_ClearModeRegister.d236832,"",%progbits
 223 0000 789C7D50 		.ascii	"x\234}PK(DQ\030\376\277s\357\334\231\232\215\254\230"
 223      4B284451 
 223      18FEBF73 
 223      EFDC999A 
 223      8DAC98
 224 0013 BDA4A414 		.ascii	"\275\244\244\024\033\033\217!+\245fa\243n27\311cj\214"
 224      1B1B8F21 
 224      2BA56661 
 224      A36E3237 
 224      C9636A8C 
 225 0027 B29B7B19 		.ascii	"\262\233{\031\263P\012\245D\2631y3\263\260\264\231&"
 225      B3500AA5 
 225      44B33179 
 225      33B3B0B4 
 225      9926
 226 0039 C5422345 		.ascii	"\305B#Ej\026\303b\024yd\2201J\374\307]*\247\316\371"
 226      6A16C362 
 226      14796490 
 226      314AFCC7 
ARM GAS  C:\Users\Luggi\AppData\Local\Temp\ccWDHWXF.s 			page 17


 226      5D2AA7CE 
 227 004e FFF3F57D 		.ascii	"\377\363\365}\337\377P\350\357\361\360]\000Q3G(\004"
 227      DFFF50E8 
 227      EFF1F05D 
 227      00513347 
 227      2804
 228 0060 319721B2 		.ascii	"1\227!\262\\\002\220\011\201\302\002a\334\211\202\300"
 228      5C029009 
 228      81C20261 
 228      DC8982C0 
 229 0070 5C6A67C9 		.ascii	"\\jg\311]\275f\232\346\363\313A\345tEI\020\275\012\333"
 229      5DBD669A 
 229      E6F3CB41 
 229      E5744549 
 229      10BD0ADB 
 230 0084 061BA866 		.ascii	"\006\033\250f\312\311\372\374\243\2464\2008?\232\312"
 230      CAC9FAFC 
 230      A3A63480 
 230      383F9ACA 
 231 0094 E49C5571 		.ascii	"\344\234Uq\323\234L=%\314\026\224\330s\023\012+P\353"
 231      D39C4C3D 
 231      25CC1694 
 231      D873130A 
 231      2B50EB
 232 00a7 418D8718 		.ascii	"A\215\207\030 l\241J\222\013\221\257K\267\026a\3572"
 232      206CA14A 
 232      920B91AF 
 232      4BB71661 
 232      EF32
 233 00b9 DB13DBD0 		.ascii	"\333\023\333\320\270-J\226\247\314\357\357\375\267\305"
 233      B82D4A96 
 233      A7CCEFEF 
 233      FDB7C5
 234 00c8 E326874B 		.ascii	"\343&\207K\260F(\220\"U\246\016\371h\362!\312\363\225"
 234      B0462890 
 234      2255A60E 
 234      F968F221 
 234      CAF395
 235 00db 2DDFF087 		.ascii	"-\337\360\207\243\222E\372}&\223[\206t*\0129@,\177>"
 235      A39245FA 
 235      7D26935B 
 235      86742A0A 
 235      39402C7F 
 236 00f0 ABDD8A92 		.ascii	"\253\335\212\222P\242\226e\252\262\356U\376\364\314"
 236      50A29665 
 236      AAB2EE55 
 236      FEF4CC
 237 00ff F50B91FC 		.ascii	"\365\013\221\374&V\323\341\030V\254\010w\253b\007\036"
 237      2656D3E1 
 237      1856AC08 
 237      77AB6207 
 237      1E
 238 0110 EC823784 		.ascii	"\354\2027\204=\304@YL~F\017\035\266\237ZdI\026So\321"
 238      3DC44059 
 238      4C7E460F 
 238      1DB69F5A 
 238      64491653 
ARM GAS  C:\Users\Luggi\AppData\Local\Temp\ccWDHWXF.s 			page 18


 239 0126 07D5461C 		.ascii	"\007\325F\034\014\262E1~}\017\351(\234\204\004\253\231"
 239      0CB24531 
 239      7E7D0FE9 
 239      289C8404 
 239      AB99
 240 0138 F4A1D914 		.ascii	"\364\241\331\024\331\007\023\031J/\374\366\365O\311"
 240      D9071319 
 240      4A2FFCF6 
 240      F54FC9
 241 0147 24976405 		.ascii	"$\227d\005\345`\245.z$Y\3569\317;\343\351x\326\372N"
 241      E560A52E 
 241      7A2459EE 
 241      39CF3BE3 
 241      E978D6FA 
 242 015c 63D408F6 		.ascii	"c\324\010\366\205\014\277\356\013\214\007\373\215\336"
 242      850CBFEE 
 242      0B8C07FB 
 242      8DDE
 243 016a 6E5FC0DB 		.ascii	"n_\300\333\330\333\332\356\325\333\215a\337\340\200"
 243      D8DBDAEE 
 243      D5DB8D61 
 243      DFE080
 244 0179 5EAF774C 		.ascii	"^\257wL\204to\267\356\035\036\252\353'\367H\300o\264"
 244      84746FB7 
 244      EE1D1EAA 
 244      EB27F748 
 244      C06FB4
 245 018c 0D86BAFA 		.ascii	"\015\206\272\372\306\206~\000\0052\237]"
 245      C6867E00 
 245      05329F5D 
 246              		.text
 247              		.section	.gnu.lto_ADC_DelSig_1_Ext_CP_Clk_GetModeRegister.d236832,"",%progbits
 248 0000 789C6366 		.ascii	"x\234cf\300\004R@\374\007\210\215\201\230\221\231\201"
 248      C0045240 
 248      FC07888D 
 248      81989199 
 248      81
 249 0011 9169C239 		.ascii	"\221i\3029\006\206F\016&FF\020\203\201\221\241\236\211"
 249      0686460E 
 249      26464610 
 249      838191A1 
 249      9E89
 250 0023 B19EF125 		.ascii	"\261\236\361%\323G&\3063;\377]fT_\332\320\320\364\341"
 250      D34726C6 
 250      333BFF5D 
 250      66545FDA 
 250      D0D0F4E1 
 251 0037 D0C5BBDC 		.ascii	"\320\305\273\334\255\022?\231\030\030>310\352H1j\202"
 251      AD123F99 
 251      18183E33 
 251      3130EA48 
 251      316A82
 252 004a CC615CCE 		.ascii	"\314a\\\316\250\316\000T\370\261\345\357un\266\226\206"
 252      A8CE0054 
 252      F8B1E5EF 
 252      756EB696 
 252      86
ARM GAS  C:\Users\Luggi\AppData\Local\Temp\ccWDHWXF.s 			page 19


 253 005b 86060190 		.ascii	"\206\006\001\220<Pb\005#\033#\220^/t\240\341\377\377"
 253      3C506205 
 253      231B2390 
 253      5E2F74A0 
 253      E1FFFF
 254 006e CFC7A6BD 		.ascii	"\317\307\246\275Pfcab\370\311\004\264\021d\010\303\023"
 254      50666361 
 254      62F8C904 
 254      B4116408 
 254      C313
 255 0080 2001B2EF 		.ascii	" \001\262\357)\023\023\210f\276\305x\350[\327\267\027"
 255      29131388 
 255      66BEC578 
 255      E85BD7B7 
 255      17
 256 0091 16208DDF 		.ascii	"\026 \215\337\231@\226\317}r\245\227\355\005\323O&\246"
 256      994096CF 
 256      7D72A597 
 256      ED05D34F 
 256      26A6
 257 00a3 B6C6C606 		.ascii	"\266\306\306\006\026\2205\367\237\234\277\310\001\026"
 257      169035F7 
 257      9F9CBFC8 
 257      0116
 258 00b1 620071D7 		.ascii	"b\000q\327-:T?\227qvc\013\343O&f\306\225\214R\214\253"
 258      2D3A543F 
 258      97717663 
 258      0BE34F26 
 258      66C6958C 
 259 00c8 1881AE62 		.ascii	"\030\201\256b\\\3158\227\221\341\026c\363\2176\035\210"
 259      5CCD3897 
 259      91E11663 
 259      F38F361D 
 259      88
 260 00d9 71CC1013 		.ascii	"q\314\020\023\337=\376\323\014\326\316\360\203\221\201"
 260      DF3DFED3 
 260      0CD6CEF0 
 260      839181
 261 00e8 710D50ED 		.ascii	"q\015P\355=FF\250\012\260\223\030AN\001\232m\350\236"
 261      3D4646A8 
 261      0AB09318 
 261      414E019A 
 261      6DE89E
 262 00fb 9A975A94 		.ascii	"\232\227Z\224X\222\232\022\037\234_Z\224\234\032\023"
 262      58929A12 
 262      1F9C5F5A 
 262      949C1A13 
 263 010b 109CEF6C 		.ascii	"\020\234\357l\032\343\350\342\034\357\222\232\023\234"
 263      1AE3E8E2 
 263      1CEF929A 
 263      139C
 264 0119 991E6F18 		.ascii	"\231\036o\030\357ZQ\022\357\034\020\357\234\223\255"
 264      EF5A5112 
 264      EF1C10EF 
 264      9C93AD
 265 0128 97CC0000 		.ascii	"\227\314\000\000*\336l\270"
 265      2ADE6CB8 
ARM GAS  C:\Users\Luggi\AppData\Local\Temp\ccWDHWXF.s 			page 20


 266              		.text
 267              		.section	.gnu.lto_ADC_DelSig_1_Ext_CP_Clk_GetSourceRegister.d236832,"",%progbits
 268 0000 789C6366 		.ascii	"x\234cf\300\004R@\374\033\210\215\201\230\221\231\201"
 268      C0045240 
 268      FC1B888D 
 268      81989199 
 268      81
 269 0011 9169C239 		.ascii	"\221i\3029\006\206F\016&FF\020\203\201\221\241\236\211"
 269      0686460E 
 269      26464610 
 269      838191A1 
 269      9E89
 270 0023 B19EF125 		.ascii	"\261\236\361%\323G&\3063;\377]fT_\332\320\320\364\241"
 270      D34726C6 
 270      333BFF5D 
 270      66545FDA 
 270      D0D0F4A1 
 271 0037 E9EB5DEE 		.ascii	"\351\353]\356V\211\237L\014\014\237\231\030\030u\244"
 271      56899F4C 
 271      0C0C9F99 
 271      181875A4 
 272 0047 183541E6 		.ascii	"\0305A\3460.gTg\000*\374\330\362\367:7[KCC\203\000H"
 272      302E6754 
 272      67002AFC 
 272      D8F2F73A 
 272      375B4B43 
 273 005f 1E28B182 		.ascii	"\036(\261\202\221\215\021H\257\027:\320\360\377\377"
 273      918D1148 
 273      AF173AD0 
 273      F0FFFF
 274 006e E72BD35F 		.ascii	"\347+\323_h\261\26301\374d\002\332\0102\204\341\011"
 274      68B1B330 
 274      31FC6402 
 274      DA083284 
 274      E109
 275 0080 9000D9F7 		.ascii	"\220\000\331\367\224\211\011D3\337b<\364\255\353\332"
 275      94890944 
 275      33DF623C 
 275      F4ADEBDA 
 276 0090 2F0B90C6 		.ascii	"/\013\220\306\357L \313\347>\271\322\313\366\202\351"
 276      EF4C20CB 
 276      E73EB9D2 
 276      CBF682E9 
 277 00a0 2713535B 		.ascii	"'\023S[cc\003\013\310\232\373O\316_\344\000\0131\200"
 277      6363030B 
 277      C89AFB4F 
 277      CE5FE400 
 277      0B3180
 278 00b3 B8EB161D 		.ascii	"\270\353\026\035\252\237\3138\273\261\205\361'\0233"
 278      AA9FCB38 
 278      BBB185F1 
 278      271333
 279 00c2 E34A4629 		.ascii	"\343JF)\306U\214@W1\256f\234\313\310p\213\261\371G\233"
 279      C6558C40 
 279      5731AE66 
 279      9CCBC870 
 279      8BB1F947 
ARM GAS  C:\Users\Luggi\AppData\Local\Temp\ccWDHWXF.s 			page 21


 280 00d7 0EC43866 		.ascii	"\016\3048f\210\211\337\377\034o\345\007ig`g`\\\003T"
 280      8889DFFF 
 280      1C6FE507 
 280      69676067 
 280      605C0354 
 281 00eb 7A8F9111 		.ascii	"z\217\221\021\252\000\354\"F\220K\200F\033\272\247\346"
 281      AA00EC22 
 281      46904B80 
 281      461BBAA7 
 281      E6
 282 00fc A5162596 		.ascii	"\245\026%\226\244\246\304\007\347\227\026%\247\306\004"
 282      A4A6C407 
 282      E7971625 
 282      A7C604
 283 010b 04E73B9B 		.ascii	"\004\347;\233\3068\2728\307\273\244\346\004g\246\307"
 283      C638BA38 
 283      C7BBA4E6 
 283      0467A6C7 
 284 011b 1BC6BB56 		.ascii	"\033\306\273V\224\304;\007\304;\347d\353%3\000\000o"
 284      94C43B07 
 284      C43BE764 
 284      EB253300 
 284      006F
 285 012d 256BA8   		.ascii	"%k\250"
 286              		.text
 287              		.section	.gnu.lto_ADC_DelSig_1_Ext_CP_Clk_SetDividerRegister.d236832,"",%progbits
 288 0000 789C8D56 		.ascii	"x\234\215VkLTG\030\235\357\336\275\373~\300\362\014"
 288      6B4C5447 
 288      189DEFDE 
 288      BDFB7EC0 
 288      F20C
 289 0012 1AD128A1 		.ascii	"\032\321(\241XicR\373\243M[\0156\376\254\321\246\375"
 289      58696352 
 289      FBA34D5B 
 289      0D36FEAC 
 289      D1A6FD
 290 0025 634A286C 		.ascii	"cJ(l\032#\321d\213Mcb\270\353\256B\020\025\001\221Z"
 290      1A23D164 
 290      8B4D6362 
 290      B8EBAE42 
 290      10150191 
 291 003a 11051F58 		.ascii	"\021\005\037X\025\004[\253ha\213\002\242\210\"/A\273"
 291      15045BAB 
 291      68618B02 
 291      A288222F 
 291      41BB
 292 004c 20B23C4C 		.ascii	" \262<LC\240X@\253\322y\334{w\301B\335\204\341\316\314"
 292      43A05840 
 292      ABD279DC 
 292      7B77C142 
 292      DD84E1CE 
 293 0061 77CE7C73 		.ascii	"w\316|s\2763s/\217^\377\275\017\010\015\032\020J\300"
 293      BE33732F 
 293      8F5EFFBD 
 293      0F080D1A 
 293      104AC0
 294 0074 CF108E80 		.ascii	"\317\020\216\200\313jB\310\241\3458\276\341c$\352C\352"
ARM GAS  C:\Users\Luggi\AppData\Local\Temp\ccWDHWXF.s 			page 22


 294      CB6A42C8 
 294      A1E538BE 
 294      E16324EA 
 294      43EA
 295 0086 2D4834F2 		.ascii	"-H4\362\234*=\032\367t\2445\25285\355\011\264'H=6\247"
 295      9C2A3D1A 
 295      F774A435 
 295      AA3835ED 
 295      09B42748 
 296 009d E634B4A7 		.ascii	"\3464\264\247\245=\015\2040:\255\374\240\343\364t\336"
 296      A53D0D84 
 296      303AADFC 
 296      A0E3F474 
 296      DE
 297 00ae 42E7F59C 		.ascii	"B\347\365\234\221\366\014\264g\220zl\316\010&\0061q"
 297      91F60CB4 
 297      67907A6C 
 297      CE082606 
 297      3171
 298 00c0 6199F508 		.ascii	"a\231\365\010\217\233]\032<\036\306\306W\231\301\302"
 298      8F9B5D1A 
 298      3C1EC6C6 
 298      5799C1C2 
 299 00d0 E62D5C00 		.ascii	"\346-\\\000\205\005SX\000g\245\275@\332\013\004+\013"
 299      85055358 
 299      0067A5BD 
 299      40DA0B04 
 299      2B0B
 300 00e2 B242107B 		.ascii	"\262B\020{\010\342B\031[\010e\013e\343\253\202\345\004"
 300      08E24219 
 300      5B08650B 
 300      65E3AB82 
 300      E504
 301 00f4 4300C803 		.ascii	"C\000\310\003\002\224\312\361*A\255\321\352\364\006"
 301      0294CAF1 
 301      2A41ADD1 
 301      EAF406
 302 0103 A329CC6C 		.ascii	"\243)\314l\011\010\264\006\205\006\207@*ob\322\005\261"
 302      0908B406 
 302      85068740 
 302      2A6F62D2 
 302      05B1
 303 0115 7F43DC28 		.ascii	"\177C\334(\007Y\3563\371\206\350\023\242(\216d\217\206"
 303      0759EE33 
 303      F986E813 
 303      A2288E64 
 303      8F86
 304 0127 EF0C7FC6 		.ascii	"\357\014\177\306!4\306\261\0008\005\3218d\262\277\353"
 304      2134C6B1 
 304      003805D1 
 304      3864B2BF 
 304      EB
 305 0138 A08E7F0F 		.ascii	"\240\216\177\017\020~\276\325;9f\034\344\236q\020@\272"
 305      107EBED5 
 305      3B39661C 
 305      E49E7110 
 305      40BA
ARM GAS  C:\Users\Luggi\AppData\Local\Temp\ccWDHWXF.s 			page 23


 306 014a 873ABC4F 		.ascii	"\207:\274Oy\322\3458\322=P\322\362\210\213*\026\305"
 306      79D2E538 
 306      D23D50D2 
 306      F2888B2A 
 306      16C5
 307 015c 1DEEC9F3 		.ascii	"\035\356\311\363\342J<\316C\011\360\230\017NC\004\374"
 307      E24A3CCE 
 307      4309F098 
 307      0F4E4304 
 307      FC
 308 016d 0411080F 		.ascii	"\004\021\010\017!8\003Q8\2721m\177\007\360\237P\336"
 308      21380351 
 308      38BA316D 
 308      7F07F09F 
 308      50DE
 309 017f 414F6BB6 		.ascii	"AOk\266\211!\017=\026p\026*8\313\200\313\" \206\300"
 309      89210F3D 
 309      1670162A 
 309      38CB80CB 
 309      222086C0 
 310 0193 5408CE41 		.ascii	"T\010\316A\024\211}~\301+j\3715\024\227\233q\256R\267"
 310      14897D7E 
 310      C12B6AF9 
 310      3514979B 
 310      71AE52B7 
 311 01a7 F818C6F5 		.ascii	"\370\030\306\365d\016\324\031\304|\321\32535\025I\360"
 311      640ED419 
 311      C47CD1D5 
 311      33351549 
 311      F0
 312 01b8 A5FE78F6 		.ascii	"\245\376x\366\303\200\212>\327.\201\377\214\202[\235"
 312      C3808A3E 
 312      D72E81FF 
 312      8C825B9D 
 313 01c8 035E1305 		.ascii	"\003^\023\005\037\335; \370A\317\377'\324Q\227V.\360"
 313      1FDD3B20 
 313      F841CFFF 
 313      27D45197 
 313      562EF0
 314 01db 5F52687B 		.ascii	"_Rh{\305\251\022`\353\356KK3\212%2\230\207\212\351\033"
 314      C5A91260 
 314      EBEE4B4B 
 314      338A2532 
 314      98878AE9 
 315 01f0 56E0A3AE 		.ascii	"V\340\243\256\227\035\006\265\013+\035\000e\260\030"
 315      971D06B5 
 315      0B2B1D00 
 315      65B018
 316 01ff CAF1DF05 		.ascii	"\312\361\337\005X\314\324\206\237A\215\015\315\373\317"
 316      58CCD486 
 316      9F418D0D 
 316      CDFBCF
 317 020e 9459DDE2 		.ascii	"\224Y\335\342\324\324Xm\316\340\333\252w\001K \250\021"
 317      D4D4586D 
 317      CEE0DBAA 
 317      77014B20 
 317      A811
ARM GAS  C:\Users\Luggi\AppData\Local\Temp\ccWDHWXF.s 			page 24


 318 0220 99D32232 		.ascii	"\231\323\"2\253\003\"\243\036\017\253\015\210\300\214"
 318      AB0322A3 
 318      1E0FAB0D 
 318      88C08C
 319 022f E4D1449A 		.ascii	"\344\321D\232@\322XI\023F\232p\322\020\011\325\363H"
 319      40D25849 
 319      13469A70 
 319      D21009D5 
 319      F348
 320 0241 B3803491 		.ascii	"\263\2004\221\244YH\232E\244YB\232(\322D\003\2219\206"
 320      A459489A 
 320      45A45942 
 320      9A28D244 
 320      03913986 
 321 0255 3C2E25CD 		.ascii	"<.%\3152\322\304\222\006\241>\234i\346|\344\305\305"
 321      32D2C492 
 321      06A13E9C 
 321      69E67CE4 
 321      C5C5
 322 0267 CE9CCF3F 		.ascii	"\316\234\317?\004\247\273\240\311D2\237\340\324x\203"
 322      04A7BBA0 
 322      C944329F 
 322      E0D47883 
 323 0277 475AF696 		.ascii	"GZ\366\226r\333\377\021\323E\3553N3\306\341\375\300"
 323      72DBFF11 
 323      D345ED33 
 323      4E33C6E1 
 323      FDC0
 324 0289 2FB01D63 		.ascii	"/\260\035c\265\250\0358\272E\234>\016F\004[\270\327"
 324      B5A81D38 
 324      BA459C3E 
 324      0E46045B 
 324      B8D7
 325 029b CCB0DA99 		.ascii	"\314\260\332\231X\335\030^\001\301E\212\325+\330\013"
 325      58DD185E 
 325      01C1458A 
 325      D52BD80B 
 326 02ab 04AB456D 		.ascii	"\004\253Em\340\352t\016\034\016g`\035\031\"?/6\226;"
 326      E0EA740E 
 326      1C0E6760 
 326      1D19223F 
 326      2F36963B 
 327 02bf 94EF829A 		.ascii	"\224\357\202\232\361\014\317\345/\330\254\2368|w\365"
 327      F10CCFE5 
 327      2FD8AC9E 
 327      387C77F5 
 328 02cf 731DF1A8 		.ascii	"s\035\361\250\241(\315!\252H)\272\373\3564k\351\020"
 328      A128CD21 
 328      AA4829BA 
 328      FBEE346B 
 328      E910
 329 02e1 AD4C7979 		.ascii	"\255Lyy\372\244\256\000~t\270\000\213\014\277\342\312"
 329      FAA4AE00 
 329      7E74B800 
 329      8B0CBFE2 
 329      CA
 330 02f2 5D229583 		.ascii	"]\"\225\203\313P\000\250\013\234\223\273\0329Fh`\234"
ARM GAS  C:\Users\Luggi\AppData\Local\Temp\ccWDHWXF.s 			page 25


 330      CB5000A8 
 330      0B9C93BB 
 330      1A394668 
 330      609C
 331 0304 777AAEED 		.ascii	"wz\256\355\243\307@\205+]\211c\345\034\313H\216\006"
 331      A3C74085 
 331      2B5D8963 
 331      E51CCB48 
 331      8E06
 332 0316 92E37DE7 		.ascii	"\222\343}\347\304\341\371>q\034'\257dj\010\002\353\010"
 332      C4E1F93E 
 332      711C27AF 
 332      646A0802 
 332      EB08
 333 0328 57245F78 		.ascii	"W$_x\261\253\217\032x\032\375\204\367\251\241\004\033"
 333      B1AB8F1A 
 333      781AFD84 
 333      F7A9A104 
 333      1B
 334 0339 71F05525 		.ascii	"q\360U%X@w\005\026|R\222]\3477\253F\227\264l\266\270"
 334      58407705 
 334      167C5292 
 334      5DE737AB 
 334      4697B46C 
 335 034f E02D89CB 		.ascii	"\340-\211\313oZ\203\016\253\210:y\243\3559\002\231\306"
 335      6F5A830E 
 335      AB883A79 
 335      A3ED3902 
 335      99C6
 336 0361 EB94F6DE 		.ascii	"\353\224\366\336\255\244\353\230\\\216\231\322\230\250"
 336      ADA4EB98 
 336      5C8E99D2 
 336      98A8
 337 036f 34DD0F6A 		.ascii	"4\335\017jv[di\314\360\033\226\246\212JS\215\245\301"
 337      765B6469 
 337      CCF01B96 
 337      A68A4A53 
 337      8DA5C1
 338 0382 EB23AAF7 		.ascii	"\353#\252\367x\345=`+\006bLA_\353\0365Uw\227\314ZZT"
 338      78E53D60 
 338      2B06624C 
 338      415FEB1E 
 338      35557797 
 339 039a 93EA13D8 		.ascii	"\223\352\023\330\255\010\374\273,\260\232\301\255\214"
 339      AD08FCBB 
 339      2CB09AC1 
 339      AD8C
 340 03a8 61E8DED3 		.ascii	"a\350\336\323N3a\020\252\001A\015\016\305\313d\203\234"
 340      4E336110 
 340      AA01410D 
 340      0EC5CB64 
 340      839C
 341 03ba F52C64D7 		.ascii	"\365,d\327hJV\272[\255\264\333\361\214\336\017\031\265"
 341      684A56BA 
 341      5BADB4DB 
 341      F18CDE0F 
 341      19B5
ARM GAS  C:\Users\Luggi\AppData\Local\Temp\ccWDHWXF.s 			page 26


 342 03cc 710EE475 		.ascii	"q\016\344u)\215\247R\032&\026^Q|\342\"u\216z%\202\332"
 342      298DA752 
 342      1A26165E 
 342      517CE222 
 342      758E7A25 
 343 03e2 37CCA28E 		.ascii	"7\314\242\216faBTj\217\"\365\254B\326KB\222\254u(\335"
 343      66614254 
 343      6A8F22F5 
 343      AC42D64B 
 343      4292AC75 
 344 03f8 CC537F97 		.ascii	"\314S\177\227\035\221Jh\3603\213\036\2714dS##\375-\032"
 344      1D914A68 
 344      F0338B1E 
 344      B9346453 
 344      2323FD2D 
 345 040d 8977EA07 		.ascii	"\211w\352\007q\005\325\332!JZ7\024=\031\346\350J\016"
 345      7105D5DA 
 345      214A5A37 
 345      143D19E6 
 345      E84A0E
 346 0420 770CC9ED 		.ascii	"w\014\311\355\206\222[\003^\313\277\306\002\036\273"
 346      86925B03 
 346      5ECBBFC6 
 346      021EBB
 347 042f C9F63572 		.ascii	"\311\3665r~\330\251\2238\263wtm\243\234Y2\347\301\323"
 347      7ED8A993 
 347      38B37774 
 347      6DA39C59 
 347      32E7C1D3 
 348 0443 AE36933F 		.ascii	"\2566\223?\347-\205\263\221q*'B\300'\342\266\3049\342"
 348      E72D85B3 
 348      91712A27 
 348      42C027E2 
 348      B6C439E2 
 349 0457 E32CBCD9 		.ascii	"\343,\274\331|\213\243\244\2712i\316\376\234Z\263?i"
 349      7C8BA3A4 
 349      B93269CE 
 349      FE9C5AB3 
 349      3F69
 350 0469 93427A07 		.ascii	"\223Bz\007\223\312\231\215g\324UeI\366\012\3030\317"
 350      93CA998D 
 350      67D45565 
 350      49F60AC3 
 350      30CF
 351 047b B9CBF9F4 		.ascii	"\271\313\371\364\235cH\227\231j\233\304L\360\025\343"
 351      9D634897 
 351      996A9BC4 
 351      4CF015E3 
 352 048b AEC2D33C 		.ascii	"\256\302\323<\303_\341\214\242p\350\325\240\212&\233"
 352      C35FE18C 
 352      A270E8D5 
 352      A08A269B 
 353 049b 8AE0DE8C 		.ascii	"\212\340\336\214\302\316J\326B+\025\316r\362T}\305("
 353      C2CE4AD6 
 353      422B15CE 
 353      72F2547D 
 353      C528
ARM GAS  C:\Users\Luggi\AppData\Local\Temp\ccWDHWXF.s 			page 27


 354 04ad 23E6F042 		.ascii	"#\346\360B\253r\177\274\220\022X\312\000\307\017\344"
 354      AB727FBC 
 354      901258CA 
 354      00C70FE4 
 355 04bd 9D15A8B3 		.ascii	"\235\025\250\263\360e\336\206c\351\271\255\220v\271"
 355      F065DE86 
 355      63E9B9AD 
 355      9076B9
 356 04cc D4AFE606 		.ascii	"\324\257\346\006T\303\263S\375\227\361\3653oD\305\002"
 356      54C3B353 
 356      FD97F1F5 
 356      336F44C5 
 356      02
 357 04dd 714476F9 		.ascii	"qDv\371D\213\3544\307h\376\025\252\264i\207\254\317"
 357      448BEC34 
 357      C768FE15 
 357      AAB46987 
 357      ACCF
 358 04ef C8B1E675 		.ascii	"\310\261\346u>\357\265+\336\353\240;\322\262ZM\344\310"
 358      3EEFB52B 
 358      DEEBA03B 
 358      D2B25A4D 
 358      E4C8
 359 0501 B5F27750 		.ascii	"\265\362wP\354t\007\335g\325\236xQ\277\323B\005\324"
 359      EC7407DD 
 359      67D59E78 
 359      51BFD342 
 359      05D4
 360 0513 20E8A4E9 		.ascii	" \350\244\351x\261\347\033?`g\256\275z\033\313u\301"
 360      78B1E71B 
 360      3F6067AE 
 360      BD7A1BCB 
 360      75C1
 361 0525 343698CE 		.ascii	"46\230\316\325\345\273]\005\026>\217!\352\013\006+h"
 361      D5E5BB5D 
 361      05163E8F 
 361      21EA0B06 
 361      2B68
 362 0537 79F02B11 		.ascii	"y\360+\021\0360u:\235\303\222:\363\024u\372\2700tz\005"
 362      1E30753A 
 362      9DC3923A 
 362      F31475FA 
 362      B830747A 
 363 054c 7839B324 		.ascii	"x9\263$\303x\306pu\273\024\266p\256\213\375\341\014"
 363      C378C670 
 363      75BB14B6 
 363      70AE8BFD 
 363      E10C
 364 055e 5F2C62F1 		.ascii	"_,b\361G\257z\3660\023\277\304+\3771\303\030\263\262"
 364      47AF7AF6 
 364      3013BFC4 
 364      2BFF31C3 
 364      18B3B2
 365 0571 79A88C8B 		.ascii	"y\250\214\213\230\214\327s\337@\306n\331\337D7\0139"
 365      988CD773 
 365      DF40C66E 
 365      D9DF4437 
ARM GAS  C:\Users\Luggi\AppData\Local\Temp\ccWDHWXF.s 			page 28


 365      0B39
 366 0583 F534FB57 		.ascii	"\3654\373W7>g\371,\231k\271\036E\267\353R\372\221\014"
 366      373E67F9 
 366      2C996BB9 
 366      1E45B7EB 
 366      52FA910C 
 367 0597 A17C8DA9 		.ascii	"\241|\215\251\361\031|$\353V$\011\022\351\347\252\000"
 367      F1197C24 
 367      EB562409 
 367      12E9E7AA 
 367      00
 368 05a8 E926C92B 		.ascii	"\351&\311+\277\235+\373f6\223\364J\027\024%\033;\376"
 368      BF9D2BFB 
 368      663693F4 
 368      4A171425 
 368      1B3BFE
 369 05bb 11638BF6 		.ascii	"\021c\213\366\253B \361\250\027\337\274\214T\021l\216"
 369      AB4220F1 
 369      A817DFBC 
 369      8C54116C 
 369      8E
 370 05cc 9BE83125 		.ascii	"\233\3501%\305_\010\375@\374TV\370\367+\240\302\343"
 370      C55F08FD 
 370      40FC5456 
 370      F8F72BA0 
 370      C2E3
 371 05de AFC33E88 		.ascii	"\257\303>\210\010\270\257\301\243\315\207N:\231\313"
 371      08B8AFC1 
 371      A3CD874E 
 371      3A99CB
 372 05ed 7035BC10 		.ascii	"p5\274\020\021HR\017B\3703W*v\203\235%\0233\227\315"
 372      1148520F 
 372      42F83357 
 372      2A76839D 
 372      25133397 
 373 0602 FA15B9FE 		.ascii	"\372\025\271\376T\261\360(\214\360\371\252J\322'\312"
 373      54B1F028 
 373      8CF0F9AA 
 373      4AD227CA 
 374 0612 6F47A108 		.ascii	"oG\241\010\177kcc\005+:\265\345\376\357M>\340\377J\364"
 374      7F6B6363 
 374      052B3AB5 
 374      E5FEEF4D 
 374      3EE0FF4A 
 375 0627 DCCC9378 		.ascii	"\334\314\223x\227\315U\313\301\031o\236X\034O> \336"
 375      97CD55CB 
 375      C1196F9E 
 375      581C4F3E 
 375      20DE
 376 0639 C8774374 		.ascii	"\310wCt\301XZ\321\020\362I\346\001\207\273{\035\201"
 376      C1585AD1 
 376      10F249E6 
 376      0187BB7B 
 376      1D81
 377 064b B16D001E 		.ascii	"\261m\000\036\304_R\313\327\3306\333\354\011)\266\244"
 377      C45F52CB 
 377      D7D836DB 
ARM GAS  C:\Users\Luggi\AppData\Local\Temp\ccWDHWXF.s 			page 29


 377      EC0929B6 
 377      A4
 378 065c F8F55BB6 		.ascii	"\370\365[\266\332\023m\033\326\256\337\022\267b\303"
 378      DA136D1B 
 378      D6AEDF12 
 378      B762C3
 379 066b AAD571F1 		.ascii	"\252\325q\361\253m\311\3537~\023\277<\376\323\357S\342"
 379      AB6DC9EB 
 379      377E13BF 
 379      3CFED3EF 
 379      53E2
 380 067d E3D6C6C7 		.ascii	"\343\326\306\307%oz'\021\351\023\2237\255\336\370\335"
 380      256F7A27 
 380      11E91393 
 380      37ADDEF8 
 380      DD
 381 068e C6249B5D 		.ascii	"\306$\233]c\267}\233\222`O\321\3306'|\235lK\322$n\265"
 381      63B77D9B 
 381      92604FD1 
 381      D836277C 
 381      9D6C4BD2 
 382 06a5 DBD7DB13 		.ascii	"\333\327\333\023\365[\222\223\244\220\177\001ZDN\005"
 382      F55B9293 
 382      A4907F01 
 382      5A444E05 
 383              		.text
 384              		.section	.gnu.lto_ADC_DelSig_1_Ext_CP_Clk_SetSourceRegister.d236832,"",%progbits
 385 0000 789C8D54 		.ascii	"x\234\215Toh[U\024?\347\276\344\275\227\277\215\355"
 385      6F685B55 
 385      143FE7BE 
 385      E4BD97BF 
 385      8DED
 386 0012 BAAE616D 		.ascii	"\272\256amW\302(\202(\003\375&n\322\252_\3740\350G\007"
 386      57C22882 
 386      2803FD26 
 386      6ED2AA5F 
 386      FC30E847 
 387 0027 41BA2063 		.ascii	"A\272 c\305B\330\206 \243/m\346\2128\035\373 \303RQ"
 387      C542D886 
 387      20A32F6D 
 387      E68A381D 
 387      FB20C352 
 388 003c 675DB5DA 		.ascii	"g]\265\332n\335\226\252\233.\253\243\010\243\373g\265"
 388      6EDD96AA 
 388      9B2EABA3 
 388      08A3FB67 
 388      B5
 389 004d 764A1D35 		.ascii	"vJ\0355\235\233\320v#\2456\312\026\317\271\367%}\306"
 389      9D9BD076 
 389      23A536CA 
 389      16CFB9F7 
 389      257DC6
 390 0060 111AC879 		.ascii	"\021\032\310y\357\234\373\373\235{\316\357\334w5\370"
 390      EF9CFBFB 
 390      9D7BCEEF 
 390      DC7735F8 
 391 0070 FFEF08FD 		.ascii	"\377\357\010\375\373u\200\027\351\211~@q\3702@\302\024"
ARM GAS  C:\Users\Luggi\AppData\Local\Temp\ccWDHWXF.s 			page 30


 391      FB758017 
 391      E9897E40 
 391      71F83240 
 391      C214
 392 0082 42EB6902 		.ascii	"B\353i\002\313\253\263\365k\302\345\360\\\302}\256\236"
 392      CBABB3F5 
 392      6BC2E5F0 
 392      5CC27DAE 
 392      9E
 393 0093 BDC927C8 		.ascii	"\275\311'\310s\243OQtaH\220W\202\014a:<Sx$\305+)\236"
 393      73A34F51 
 393      74614890 
 393      57820C61 
 393      3A3C5378 
 394 00ac 02C55B78 		.ascii	"\002\305[x\361!\362\013 t\012\315\345\326\015\323\343"
 394      F121F20B 
 394      20740ACD 
 394      E5D60DD3 
 394      E3
 395 00bd F56127DE 		.ascii	"\365a'\336\021\367\004\036N\017\036\3655\365[\226uw"
 395      11F7041E 
 395      4E0F1EF5 
 395      35F55B96 
 395      7577
 396 00cf 64BAF6C0 		.ascii	"d\272\366\300\206\234\000\310\012U>\036\307&\202\344"
 396      869C00C8 
 396      0A553E1E 
 396      C72682E4 
 397 00df 663317BD 		.ascii	"f3\027\275\332\223\010\364~\342\372\307\337\343\346"
 397      DA9308F4 
 397      7EE2FAC7 
 397      DFE3E6
 398 00ee 6396D595 		.ascii	"c\226\325\225^\030\262\266aN \016\240F\014|,\214\217"
 398      5E18B2B6 
 398      614E200E 
 398      A0460C7C 
 398      2C8C8F
 399 0101 86810280 		.ascii	"\206\201\002\200\237\342f\006\247&\316\214Uh\317H\342"
 399      9FE26606 
 399      A726CE8C 
 399      5568CF48 
 399      E2
 400 0112 A5D995AC 		.ascii	"\245\331\225\254\377\266\310\011\021b\367\275\251\271"
 400      FFB6C809 
 400      1162F7BD 
 400      A9B9
 401 0120 258D5D4D 		.ascii	"%\215]M\260;1\2208\020\210|HioN\034:\350\267\006\254"
 401      B03B3190 
 401      3810887C 
 401      48696F4E 
 401      1C3AE8B7 
 402 0136 E4CD7CBE 		.ascii	"\344\315|\276!'\\\370\231\312>\210a\374\034\303\266"
 402      21275CF8 
 402      99CA3E88 
 402      61FC1CC3 
 402      B6
 403 0147 B044593C 		.ascii	"\260DY<}r\237\366\274\314\235\275\377\316TP\261/\317"
ARM GAS  C:\Users\Luggi\AppData\Local\Temp\ccWDHWXF.s 			page 31


 403      7D729FF6 
 403      BCCC9DBD 
 403      FFCE5450 
 403      B12FCF
 404 015a 8FFBACA3 		.ascii	"\217\373\254\243\0056\342\220\263\266\"\367^\362\376"
 404      0536E290 
 404      B3B622F7 
 404      5EF2FE
 405 0169 944F4F52 		.ascii	"\224OOR\323!\374\002#8\214\021\3254\236@\035\001D!:"
 405      D321FC02 
 405      23388C11 
 405      D5349E40 
 405      1D014421 
 406 017e 5C99B6F2 		.ascii	"\\\231\266\362\371S\267\336\275\275U\217\270\200\303"
 406      F953B7DE 
 406      BDBD558F 
 406      B880C3
 407 018d 3AF08281 		.ascii	":\360\202\201\334\244I\355\272=l|l\374d\364\000\233"
 407      DCA449ED 
 407      BA3D6C7C 
 407      6CFC64F4 
 407      009B
 408 019f 209B0A36 		.ascii	" \233\0126!^\250dS\305\356:6\325l\326\263\251\341\205"
 408      215EA864 
 408      53C5EE3A 
 408      36D56CD6 
 408      B3A9E185 
 409 01b3 5A36AC9C 		.ascii	"Z6\254\234{#\233:^\250g\323\300f\023\233F^\000\310P"
 409      7B239B3A 
 409      5EA867D3 
 409      C066139B 
 409      465E00C8 
 410 01c8 8D3CCA39 		.ascii	"\215<\3129!\370\251\375\212\335\351\336\336 W\375\227"
 410      21F8A9FD 
 410      8ADDE9DE 
 410      DE2057FD 
 410      97
 411 01d9 705163EF 		.ascii	"pQc\357\377\360\366\220\330\377\217\325c\2319adi\026"
 411      FFF0F690 
 411      D8FF8FD5 
 411      63993961 
 411      646916
 412 01ec 8027713F 		.ascii	"\200'q?\261M\370\011\205l\217z 00\267\357\227\200\342"
 412      B14DF809 
 412      856C8F7A 
 412      203030B7 
 412      EF9780E2 
 413 0200 EAA55C4F 		.ascii	"\352\245\\O\226\266\000\034\221\\o\221;\314\\\035~\304"
 413      96B6001C 
 413      915C6F91 
 413      3BCC5C1D 
 413      7EC4
 414 0212 E474F7EF 		.ascii	"\344t\367\357\251\015\253\344\304'g\3372x\236T%\236"
 414      A90DABE4 
 414      C42767DF 
 414      32789E54 
 414      259E
ARM GAS  C:\Users\Luggi\AppData\Local\Temp\ccWDHWXF.s 			page 32


 415 0224 B2E73427 		.ascii	"\262\3474'4\350i\322\010\375s\367\254\246\300\206c\325"
 415      34E869D2 
 415      08FD73F7 
 415      ACA6C086 
 415      63D5
 416 0236 0517ABD4 		.ascii	"\005\027\253\324\352\037\251\327W\233(\346\362Q\256"
 416      EA1FA9D7 
 416      579B28E6 
 416      F251AE
 417 0245 D345B41B 		.ascii	"\323E\264\033\256\030\332\015\034[~sa~\004\025\334$"
 417      AE18DA0D 
 417      1C5B7E73 
 417      617E0415 
 417      DC24
 418 0257 785F66F2 		.ascii	"x_f\362\220\316p\377\033\211\204\345\342\371\376\226"
 418      90CE70FF 
 418      1B8984E5 
 418      E2F9FE96 
 419 0267 B972CD94 		.ascii	"\271r\315\224!9\356\241\217\306:\373\2607\221\244\343"
 419      2139EEA1 
 419      8FC63AFB 
 419      B03791A4 
 419      E3
 420 0278 1AC03374 		.ascii	"\032\3003t\222R\234\025G\261\017\341\006v/\351*\233"
 420      92529C15 
 420      47B10FE1 
 420      06762FE9 
 420      2A9B
 421 028a 47251C39 		.ascii	"G%\0349\326\237\362\310^\266\001~IH\332\364\210\334"
 421      D69FF2C8 
 421      5EB6017E 
 421      4948DAF4 
 421      88DC
 422 029c B04CAEAF 		.ascii	"\260L\256\257(\027e\000Y\340\203\371\247UF_\031\306"
 422      28176500 
 422      59E083F9 
 422      A755465F 
 422      19C6
 423 02ae D76AF7AE 		.ascii	"\327j\367\256\231\203\313\305~\374D\341\212V\354\212"
 423      9983CBC5 
 423      7EFC44E1 
 423      8A56EC8A 
 424 02be 0214A214 		.ascii	"\002\024\242\024\177\246\377\236\224\025\351+y\373G"
 424      7FA6FF9E 
 424      9415E92B 
 424      79FB47
 425 02cd DFEF5959 		.ascii	"\337\357YYZ\327\214\241\260A\022\327\331M\205\244\007"
 425      5AD78CA1 
 425      B04112D7 
 425      D94D85A4 
 425      07
 426 02de 9D901045 		.ascii	"\235\220\020E\037\336M\"]\373\337\352\316\311~BRy\035"
 426      1FDE4D22 
 426      5DFBDFEA 
 426      CEC97E42 
 426      52791D
 427 02f1 2E8C831A 		.ascii	".\214\203\032\324\361\321:{\350\2169\032\360AD\223g"
ARM GAS  C:\Users\Luggi\AppData\Local\Temp\ccWDHWXF.s 			page 33


 427      D4F1D13A 
 427      7BE88E39 
 427      1AF04144 
 427      9367
 428 0303 62F92153 		.ascii	"b\371!S6\341\352#\212<8\332iO\3311V\017\334\325\325"
 428      36E1EA23 
 428      8A3C38DA 
 428      694FD931 
 428      560FDCD5 
 429 0318 581F2CD8 		.ascii	"X\037,\330\252U\226Q\355\233U\325\026\012\252U\021\305"
 429      AA559651 
 429      ED9B55D5 
 429      160AAA55 
 429      11C5
 430 032a A9DA3A0A 		.ascii	"\251\332:\012\225\252S]\242\316z\011\253vBj(\272Fu\276"
 430      95AA535D 
 430      A2CE7A09 
 430      AB76426A 
 430      28BA4675 
 431 033f 95EAD4A8 		.ascii	"\225\352\324\250i\217/\026\012\251-S\370y\373\260\025"
 431      698F2F16 
 431      0AA92D53 
 431      F879FBB0 
 431      15
 432 0350 8A0C2BF8 		.ascii	"\212\014+\370\235\353K\323A\036m\340<]\234\3515\236"
 432      9DEB4BD3 
 432      411E6DE0 
 432      3C5D9CE9 
 432      359E
 433 0362 B60B72FF 		.ascii	"\266\013r\377\260\024\320\013\327\266\332\337\305\242"
 433      B014D00B 
 433      D7B6DADF 
 433      C5A2
 434 0370 2DE0C632 		.ascii	"-\340\3062\324\261\242\200\267\212u\327\021\305Y[=\205"
 434      D4B1A280 
 434      B78A75D7 
 434      11C5595B 
 434      3D85
 435 0382 4A056C28 		.ascii	"J\005l(\021p\223\20458!\215\024]\243\200\337\311\006"
 435      11709384 
 435      3538218D 
 435      145DA380 
 435      DFC906
 436 0395 1A65033E 		.ascii	"\032e\003>y\227\315`\"\235\177\211\211|.2tuQ\224\356"
 436      7997CD60 
 436      229D7F89 
 436      897C2E32 
 436      74755194 
 437 03aa A02D2FC4 		.ascii	"\240-/\304^\215\305_\336\023\333\031m\355\330\033o\213"
 437      5E8DC55F 
 437      DE13DB19 
 437      6DEDD81B 
 437      6F8B
 438 03bc EDD8DEDA 		.ascii	"\355\330\336\332\321\374\324\216g[\232\243-\261\366"
 438      D1FCD48E 
 438      675B9AA3 
 438      2DB1F6
ARM GAS  C:\Users\Luggi\AppData\Local\Temp\ccWDHWXF.s 			page 34


 439 03cb D65DAF44 		.ascii	"\326]\257D\267D\237{mO\264y{\264\271}\367\343m\340i"
 439      B7449F7B 
 439      6D4FB479 
 439      7BB4B97D 
 439      F7E36DE0 
 440 03e0 6BDFADA0 		.ascii	"k\337\255\240F\333\336x\274e\327>\275\243}gk\274\355"
 440      46DBDE78 
 440      BC65D73E 
 440      BDA37D67 
 440      6BBCED
 441 03f3 5F61C663 		.ascii	"_a\306c\227"
 441      97
 442              		.text
 443              		.section	.gnu.lto_.symbol_nodes.d236832,"",%progbits
 444 0000 789C55C7 		.ascii	"x\234U\307\273\015\2000\020\004\321\265\317\306\347"
 444      BB0D8030 
 444      1004D1B5 
 444      CFC6E7
 445 000f 6B7A5B20 		.ascii	"kz[ \"F\024D@\005\210B\020\342\023\260\223\214\236\001"
 445      22461444 
 445      40058842 
 445      10E213B0 
 445      938C9E01 
 446 0023 D8F09541 		.ascii	"\330\360\225A`\\\001\022\323\354\310\211I\234\231\305"
 446      605C0112 
 446      D3ECC889 
 446      499C99C5 
 447 0033 46135716 		.ascii	"F\023W\026\361\300*n\034\304\316&\016\272\270\260\213"
 447      F1C02A6E 
 447      1CC4CE26 
 447      0EBAB8B0 
 447      8B
 448 0044 3BE36FEB 		.ascii	";\343o\353\216e?\223\365\202\343~\224\327\341\217q\001"
 448      8E653F93 
 448      F582E37E 
 448      94D7E18F 
 448      7101
 449 0056 DBE8393B 		.ascii	"\333\3509;"
 450              		.text
 451              		.section	.gnu.lto_.refs.d236832,"",%progbits
 452 0000 789C6366 		.ascii	"x\234cf```d\200\002\000\000=\000\005"
 452      60606064 
 452      80020000 
 452      3D0005
 453              		.text
 454              		.section	.gnu.lto_.decls.d236832,"",%progbits
 455 0000 789C8D55 		.ascii	"x\234\215UkL\024W\024\236\273wY`\331\242\277\260\331"
 455      6B4C1457 
 455      149EBB77 
 455      5960D9A2 
 455      BFB0D9
 456 0013 B4E99A34 		.ascii	"\264\351\2324V\033c\303\217\032\377\365\001\015M\232"
 456      561B63C3 
 456      8F1AFFF5 
 456      010D4D9A 
 457 0023 36A4A43F 		.ascii	"6\244\244?\032M6\026&\224HX\263\256\266\376\352\310"
 457      1A4D3616 
ARM GAS  C:\Users\Luggi\AppData\Local\Temp\ccWDHWXF.s 			page 35


 457      26944858 
 457      B3AEB6FE 
 457      EAC8
 458 0035 A3F26AA1 		.ascii	"\243\362j\241\266[\220\264\004_\370\004V\305\312\002"
 458      B65B90B4 
 458      045FF804 
 458      56C5CA02 
 459 0045 CAC2822C 		.ascii	"\312\302\202,\354\242<\266<\312{\021\037\251%\324'V"
 459      ECA23CB6 
 459      3CCA7B11 
 459      1FA925D4 
 459      2756
 460 0057 EDF6DC7B 		.ascii	"\355\366\334{g\272\263\313\2142\311\331\231{\347|\337"
 460      67BAB3CB 
 460      8C32C9D9 
 460      997BE77C 
 460      DF
 461 0068 39E73BE7 		.ascii	"9\347;\347\316b\216\343\326c\216\013\3025\027\315qF"
 461      CE628EE3 
 461      D6638E0B 
 461      C23517CD 
 461      7146
 462 007a 0DC71960 		.ascii	"\015\307\031`/\025\014\036\271\0040\023\307\2568\260"
 462      2F150C1E 
 462      B9043013 
 462      C7AE38B0 
 463 008a 3360F560 		.ascii	"3`\365`\0160'\230\033\254\013\254\033\254\027\314\007"
 463      0E302798 
 463      1BAC0BAC 
 463      1BAC17CC 
 463      07
 464 009b 360036C4 		.ascii	"6\0006\304-\277\010V+r\023\336Q\260a\361\035\022\337"
 464      2DBF0856 
 464      2B7213DE 
 464      51B061F1 
 464      1D12DF
 465 00ae 475EF52F 		.ascii	"G^\365/\300\324+`\034b\256\004\023\317\261z\\\021\370"
 465      C0D42B60 
 465      1C62AE04 
 465      13CFB17A 
 465      5C11F8
 466 00c1 29B049B0 		.ascii	")\260I\260i\260\011\031\237C\201\217\324\031%\3625\252"
 466      69B00919 
 466      9F43818F 
 466      D41925F2 
 466      35AA
 467 00d3 E4E154C0 		.ascii	"\344\341T\300\271E\234<\007)\256\204s+\340\210\236\272"
 467      B9459C3C 
 467      0729AE84 
 467      732BE088 
 467      9EBA
 468 00e5 88780185 		.ascii	"\210x\001\205\230]\012\330\356\025\344\332\255\200#"
 468      985D0AD8 
 468      EE15E4DA 
 468      AD8023
 469 00f4 BDD33E07 		.ascii	"\275\323>\007\323\253\200\361\275\000\343S\300\220\331"
 469      D3AB80F1 
ARM GAS  C:\Users\Luggi\AppData\Local\Temp\ccWDHWXF.s 			page 36


 469      BD00E353 
 469      C090D9
 470 0103 58C52DEF 		.ascii	"X\305-\357M\243\210%<s`\036\260\353`\355\"\257\211\013"
 470      4DA38825 
 470      3C73601E 
 470      B0EB60ED 
 470      22AF890B 
 471 0117 EF1516B9 		.ascii	"\357\025\026\271H\014%\015\207D~I\207\3109\010\310\370"
 471      480C250D 
 471      87447E49 
 471      87C83908 
 471      C8F8
 472 0129 A578A688 		.ascii	"\245x\246\210\032\260\310\343V\251\345o\015r\326\337"
 472      1AB0C8E3 
 472      56A9E56F 
 472      0D72D6DF 
 473 0139 EF8BBBA5 		.ascii	"\357\213\273\245A\361z\023Y6\037\360T\352`i\320k\311"
 473      41F17A13 
 473      59361FF0 
 473      54EA6069 
 473      D06BC9
 474 014c B2E549C0 		.ascii	"\262\345I\300\257]c\027\340*\317\023VkQj\002:\216\214"
 474      AF5D6317 
 474      E02ACF13 
 474      566B516A 
 474      023A8E8C 
 475 0160 E8043282 		.ascii	"\350\0042\202B'\321\032\370\335\252eLw\356V\004tX\203"
 475      4227D11A 
 475      F8DDAA65 
 475      4C77EE56 
 475      04745883 
 476 0174 C8F391CA 		.ascii	"\310\363\221\312Y\277~\343)\200\025\012.\2276\024n\276"
 476      59BF7EE3 
 476      2980150A 
 476      2E973614 
 476      6EBE
 477 0186 64A11599 		.ascii	"d\241\025\231\252\205\032\307\342\265\3461\203\340\021"
 477      AA851AC7 
 477      E2B5E631 
 477      83E011
 478 0195 5CC1E03B 		.ascii	"\\\301\340;\224\012\235B\030\235F\033\251\370\360\314"
 478      940A9D42 
 478      189D461B 
 478      A9F8F0CC 
 479 01a5 BA700699 		.ascii	"\272p\006\231\000v\250\277\331\215\360\347\224{\244"
 479      0076A8BF 
 479      D98DF0E7 
 479      947BA4
 480 01b4 20D0124F 		.ascii	" \320\022O)j\312\216\350\030\001\305\327\311\360u\022"
 480      296ACA8E 
 480      E81801C5 
 480      D7C9F075 
 480      12
 481 01c5 BE9EE29B 		.ascii	"\276\236\342\233\353\236}\027\203\367P\374\341\207C"
 481      EB9E7D17 
 481      83F750FC 
 481      E18743
ARM GAS  C:\Users\Luggi\AppData\Local\Temp\ccWDHWXF.s 			page 37


 482 01d4 67E318DE 		.ascii	"g\343\030\336\027\206o\220\341\033$\274\203\342\207"
 482      17866F90 
 482      E11B24BC 
 482      83E287
 483 01e3 DBF6EF8F 		.ascii	"\333\366\357\217\301\225\210\022\354\253m)\215\006\215"
 483      C1958812 
 483      ECAB6D29 
 483      8D068D
 484 01f2 12F4B4A4 		.ascii	"\022\364\264\244\357\275U\355\230.\203\344\265fl\354"
 484      EFBD55ED 
 484      982E83E4 
 484      B5666CEC 
 485 0202 A7C718E9 		.ascii	"\247\307\030\351\327\025\012B\256\260x@\300/sh\243\021"
 485      D7150A42 
 485      AEB07840 
 485      C02F7368 
 485      A311
 486 0214 6D3072E8 		.ascii	"m0r\350\002Z\007n4\010:\0072\236\007\031\217\202H\213"
 486      025A076E 
 486      34083A07 
 486      329E0719 
 486      8F82488B 
 487 0228 97BB4E7D 		.ascii	"\227\273N}\224'\274\213\032\221\036\235\375?\015\032"
 487      9427BC8B 
 487      1A911E9D 
 487      FD3F0D1A 
 488 0238 4114AEBC 		.ascii	"A\024\256\274\240\275\\\253\205\017\032\365\331J\273"
 488      A0BD5CAB 
 488      850F1AF5 
 488      D94ABB
 489 0247 F320387B 		.ascii	"\363 8{L\243\332\235\213\264;\277!\261=\217\0165\314"
 489      4CA3DA9D 
 489      8BB43BBF 
 489      21B13D8F 
 489      0E35CC
 490 025a 18B08B95 		.ascii	"\030\260\213\225pba\326\037/\266\341\237b|P\250\311"
 490      706261D6 
 490      1F2FB6E1 
 490      9F627C50 
 490      A8C9
 491 026c 15FE0D42 		.ascii	"\025\376\015B\376\004\205\232dB4IB8\251\020\336\300"
 491      FE04859A 
 491      64423449 
 491      4238A910 
 491      DEC0
 492 027e D23D031D 		.ascii	"\322=\003\035\227\325\204\247jd\376>\246\343\242!\313"
 492      97D584A7 
 492      6A64FE3E 
 492      A6E3A221 
 492      CB
 493 028f 5FEF2EB4 		.ascii	"_\357.\264\306\342\371p\231LL\246\212?\227\032c\350"
 493      C6E2F970 
 493      994C4CA6 
 493      8A3F971A 
 493      63E8
 494 02a1 3218C444 		.ascii	"2\030\304D\247\332\376GU\361h\235\236\0110\317\004p"
 494      A7DAFE47 
ARM GAS  C:\Users\Luggi\AppData\Local\Temp\ccWDHWXF.s 			page 38


 494      55F1689D 
 494      9E0930CF 
 494      0470
 495 02b3 4171AD21 		.ascii	"Aq\255!\001L\242\000TK!O\210Z\317\241f\250\260\005*"
 495      014CA200 
 495      544B214F 
 495      885ACFA1 
 495      66A8B005 
 496 02c8 446DA0A6 		.ascii	"Dm\240\246IT\363\022l^\206M\010\364$0\344\014S\205p"
 496      4954F312 
 496      6C5E864D 
 496      08F42430 
 496      E40C5385 
 497 02dd 8664690F 		.ascii	"\206di\017\033\332\373\025\003\267\243\361\035\226\361"
 497      1BDAFB15 
 497      03B7A3F1 
 497      1D96F1
 498 02ec 858A6313 		.ascii	"\205\212c\023:Pe\006T9\367\243A\246\012\200P\207L\225"
 498      3A506506 
 498      5439F7A3 
 498      41A60A80 
 498      50874C95 
 499 0300 0E491537 		.ascii	"\016I\0257U\245\257\372\361$\306\025l\366\355\366\272"
 499      55A5AFFA 
 499      F124C615 
 499      6CF6EDF6 
 499      BA
 500 0311 0B5154DB 		.ascii	"\013QT\333\231_\274\274+_xJ\012\246\302v\312(:%\212"
 500      995FBCBC 
 500      2B5F784A 
 500      0AA6C276 
 500      CA283A25 
 501 0326 2E4AF1D4 		.ascii	".J\361\324\336d\217\303m\214\242\266h\356[FQ3}Z\032"
 501      DE648FC3 
 501      6D8CA2B6 
 501      68EE5B46 
 501      51337D5A 
 502 033b 51427045 		.ascii	"QBpEFpE\"\350\246\004E\371\016,\257\2721\254jOX\325"
 502      46704522 
 502      E8A60445 
 502      F90E2CAF 
 502      BA31AC6A 
 503 0352 77AB830F 		.ascii	"w\253\203\017\264\3706\013\326\177\343\336\210\201\345"
 503      B4F8360B 
 503      D67FE3DE 
 503      8881E5
 504 0361 5BFA5728 		.ascii	"[\372W(_@\240\036Y\270\036)\\/\015w\261\353\360I\035"
 504      5F40A01E 
 504      59B81E29 
 504      5C2F0D77 
 504      B1EBF049 
 505 0376 FE01538A 		.ascii	"\376\001S\212\322\203\3437\343\251p5'\032\244|\011\201"
 505      D283E337 
 505      E3A97035 
 505      271AA47C 
 505      0981
 506 0388 5746E095 		.ascii	"WF\340\225\010|\224@i\240\037\217\365=\324\320=\322"
ARM GAS  C:\Users\Luggi\AppData\Local\Temp\ccWDHWXF.s 			page 39


 506      087C9440 
 506      69A01F8F 
 506      F53DD4D0 
 506      3DD2
 507 039a B33E4437 		.ascii	"\263>D7\353Nv\333\243U\247\374\032-\354\2524\345\035"
 507      EB4E76DB 
 507      A355A7FC 
 507      1A2DECAA 
 507      34E51D
 508 03ad 334BC57A 		.ascii	"3K\305z\334\302\322\362\034\3647\210\235(\352\016U\006"
 508      DCC2D2F2 
 508      1CF43788 
 508      9D28EA0E 
 508      5506
 509 03bf 10D42F4B 		.ascii	"\020\324/K\254_Jl\200&&\034\357(A\370\006\243p\227\011"
 509      AC5F4A6C 
 509      8026261C 
 509      EF2841F8 
 509      06A37097 
 510 03d4 659875C2 		.ascii	"e\230u\302['\357\304\240\214`P\"\030b\004\025%Gcp\271"
 510      5B27EFC4 
 510      A08C6050 
 510      22186204 
 510      15254763 
 511 03ea 96CDD4C3 		.ascii	"\226\315\324\303b\347K\372B2\274/\376\026\300\251\360"
 511      62E74BFA 
 511      4232BC2F 
 511      FE16C0A9 
 511      F0
 512 03fb 5F2D1E8E 		.ascii	"_-\036\216e_\217H\304\210\352\327\243\240\315\320#\010"
 512      655F8F48 
 512      C488EAD7 
 512      A3A0CDD0 
 512      2308
 513 040d 31681854 		.ascii	"1h\030T\363\207N\317\357(\364\375\360{s\307\261\241"
 513      F3874ECF 
 513      EF28F4FD 
 513      F07B73C7 
 513      B1A1
 514 041f 989C2350 		.ascii	"\230\234#P1\366C\352\033\222q\024\031h\005p'\177\012"
 514      31F643EA 
 514      1B927114 
 514      19680570 
 514      277F0A
 515 0432 57C7A730 		.ascii	"W\307\2470\266\263\012:G\177\3563\260\012Vv\0025e\265"
 515      B6B30A3A 
 515      477FEE33 
 515      B00A5676 
 515      023565B5 
 516 0446 FB7CD1E2 		.ascii	"\373|\321\342\311\256y\226\030\203& \326X(\257?P\350"
 516      C9AE7996 
 516      18832620 
 516      D65828AF 
 516      3F50E8
 517 0459 582F271D 		.ascii	"X/'\035W>\326\216\251\346\3018)\215\302\225 \372\333"
 517      573ED68E 
 517      A9E6C138 
ARM GAS  C:\Users\Luggi\AppData\Local\Temp\ccWDHWXF.s 			page 40


 517      298DC295 
 517      20FADB
 518 046c 035571F2 		.ascii	"\003Uq\362\222'\303J\236\022K\236\242%w\372.\335\324"
 518      9227C34A 
 518      9E124B9E 
 518      A22577FA 
 518      2EDDD4
 519 047f C99D27C2 		.ascii	"\311\235'\302\234\247E\347i\342\214\353\007\332\252"
 519      9CA745E7 
 519      69E28CEB 
 519      07DAAA
 520 048e 35C868D4 		.ascii	"5\310h\324W\302\377\333\322k(\000\005\221G\327\255`"
 520      57C2FFDB 
 520      D26B2800 
 520      059147D7 
 520      AD60
 521 04a0 F09B20BB 		.ascii	"\360\233 \273\312\242\351v!\231\333\305\\Y\0379\272"
 521      CAA2E976 
 521      2199DBC5 
 521      5C591F39 
 521      BA
 522 04b1 CFA15920 		.ascii	"\317\241Y \237!\351\303\222|;\017/z\302\262%\347'\224"
 522      9F21E9C3 
 522      927C3B0F 
 522      2F7AC2B2 
 522      25E72794 
 523 04c5 C09C98C0 		.ascii	"\300\234\230\300\034\315\266\311\331\233\277J\356\334"
 523      1CCDB6C9 
 523      D99BBF4A 
 523      EEDC
 524 04d3 1EE67C5D 		.ascii	"\036\346|]t&\367W\337KN2'\363\331iY\231\346D\363\007"
 524      7426F757 
 524      DF4B4E32 
 524      27F3D969 
 524      5999E644 
 525 04e9 5FDBCC49 		.ascii	"_\333\314I\251\346\244\354\035\3464\333v\253M\227\362"
 525      A9E6A4EC 
 525      1DE634DB 
 525      76AB4D97 
 525      F2
 526 04fa C967A624 		.ascii	"\311g\246$.1\205\317\341\255\333m|\2069\315\262\333"
 526      2E3185CF 
 526      E1ADDB6D 
 526      7C8639CD 
 526      B2DB
 527 050c 9ACE6F4B 		.ascii	"\232\316oKM\263$\275\275M\005\273)\235{E\235\326\262"
 527      4DB324BD 
 527      BD4D05BB 
 527      299D7B45 
 527      9DD6B2
 528 051f 73EDF35E 		.ascii	"s\355\363^\276\237mI\337\021\265;+\307\266e\255r\330"
 528      BE9F6D49 
 528      DF11B53B 
 528      2BC7B665 
 528      AD72D8
 529 0532 B7D2F7DA 		.ascii	"\267\322\367\332\366\356\344wm\372\222{\3759\331\347"
 529      F6EEE477 
ARM GAS  C:\Users\Luggi\AppData\Local\Temp\ccWDHWXF.s 			page 41


 529      6DFA927B 
 529      FD39D9E7 
 530 0542 647CB137 		.ascii	"d|\2617\325\362\025o\325\021\262\304\315o\252\371\246"
 530      D5F2156F 
 530      D511B2C4 
 530      CD6FAAF9 
 530      A6
 531 0553 F0B6E4AC 		.ascii	"\360\266\344\254=Y\031\274\365S>3k\227\215\267\276\241"
 531      3D5919BC 
 531      F5533E33 
 531      6B978DB7 
 531      BEA1
 532 0565 4ACBDB3E 		.ascii	"J\313\333>\266d\360\222\337\0065\277\244l~\273U\356"
 532      B664F092 
 532      DF0635BF 
 532      A46C7EBB 
 532      55EE
 533 0577 A9CA98B2 		.ascii	"\251\312\230\262BF\360c\032H\236\252\345\244-+G\225"
 533      4246F063 
 533      1A489EAA 
 533      E5A42D2B 
 533      4795
 534 0589 342D9254 		.ascii	"4-\222Tk\3453\267D\301O\342\346\377\000\366\323t\255"
 534      6BE533B7 
 534      44C14FE2 
 534      E6FF00F6 
 534      D374AD
 535              		.text
 536              		.section	.gnu.lto_.symtab.d236832,"",%progbits
 537 0000 4144435F 		.ascii	"ADC_DelSig_1_Ext_CP_Clk_Start\000\000\000\000\000\000"
 537      44656C53 
 537      69675F31 
 537      5F457874 
 537      5F43505F 
 538 0023 00000000 		.ascii	"\000\000\000\000\000\000\254\000\000\000ADC_DelSig_"
 538      0000AC00 
 538      00004144 
 538      435F4465 
 538      6C536967 
 539 0038 315F4578 		.ascii	"1_Ext_CP_Clk_Stop\000\000\000\000\000\000\000\000\000"
 539      745F4350 
 539      5F436C6B 
 539      5F53746F 
 539      70000000 
 540 0052 000000AE 		.ascii	"\000\000\000\256\000\000\000ADC_DelSig_1_Ext_CP_Clk"
 540      00000041 
 540      44435F44 
 540      656C5369 
 540      675F315F 
 541 0070 5F53746F 		.ascii	"_StopBlock\000\000\000\000\000\000\000\000\000\000\000"
 541      70426C6F 
 541      636B0000 
 541      00000000 
 541      00000000 
 542 0085 00B00000 		.ascii	"\000\260\000\000\000ADC_DelSig_1_Ext_CP_Clk_Standby"
 542      00414443 
 542      5F44656C 
ARM GAS  C:\Users\Luggi\AppData\Local\Temp\ccWDHWXF.s 			page 42


 542      5369675F 
 542      315F4578 
 543 00a9 506F7765 		.ascii	"Power\000\000\000\000\000\000\000\000\000\000\000\000"
 543      72000000 
 543      00000000 
 543      00000000 
 543      00
 544 00ba B9000000 		.ascii	"\271\000\000\000ADC_DelSig_1_Ext_CP_Clk_GetDividerR"
 544      4144435F 
 544      44656C53 
 544      69675F31 
 544      5F457874 
 545 00e1 65676973 		.ascii	"egister\000\000\000\000\000\000\000\000\000\000\000"
 545      74657200 
 545      00000000 
 545      00000000 
 545      0000
 546 00f3 00C30000 		.ascii	"\000\303\000\000\000ADC_DelSig_1_Ext_CP_Clk_SetMode"
 546      00414443 
 546      5F44656C 
 546      5369675F 
 546      315F4578 
 547 0117 52656769 		.ascii	"Register\000\000\000\000\000\000\000\000\000\000\000"
 547      73746572 
 547      00000000 
 547      00000000 
 547      000000
 548 012a 00C50000 		.ascii	"\000\305\000\000\000ADC_DelSig_1_Ext_CP_Clk_ClearMo"
 548      00414443 
 548      5F44656C 
 548      5369675F 
 548      315F4578 
 549 014e 64655265 		.ascii	"deRegister\000\000\000\000\000\000\000\000\000\000\000"
 549      67697374 
 549      65720000 
 549      00000000 
 549      00000000 
 550 0163 00C70000 		.ascii	"\000\307\000\000\000ADC_DelSig_1_Ext_CP_Clk_GetMode"
 550      00414443 
 550      5F44656C 
 550      5369675F 
 550      315F4578 
 551 0187 52656769 		.ascii	"Register\000\000\000\000\000\000\000\000\000\000\000"
 551      73746572 
 551      00000000 
 551      00000000 
 551      000000
 552 019a 00CA0000 		.ascii	"\000\312\000\000\000ADC_DelSig_1_Ext_CP_Clk_GetSour"
 552      00414443 
 552      5F44656C 
 552      5369675F 
 552      315F4578 
 553 01be 63655265 		.ascii	"ceRegister\000\000\000\000\000\000\000\000\000\000\000"
 553      67697374 
 553      65720000 
 553      00000000 
 553      00000000 
ARM GAS  C:\Users\Luggi\AppData\Local\Temp\ccWDHWXF.s 			page 43


 554 01d3 00CC0000 		.ascii	"\000\314\000\000\000ADC_DelSig_1_Ext_CP_Clk_SetDivi"
 554      00414443 
 554      5F44656C 
 554      5369675F 
 554      315F4578 
 555 01f7 64657252 		.ascii	"derRegister\000\000\000\000\000\000\000\000\000\000"
 555      65676973 
 555      74657200 
 555      00000000 
 555      00000000 
 556 020c 0000D100 		.ascii	"\000\000\321\000\000\000ADC_DelSig_1_Ext_CP_Clk_Set"
 556      00004144 
 556      435F4465 
 556      6C536967 
 556      5F315F45 
 557 022d 536F7572 		.ascii	"SourceRegister\000\000\000\000\000\000\000\000\000\000"
 557      63655265 
 557      67697374 
 557      65720000 
 557      00000000 
 558 0245 0000D300 		.ascii	"\000\000\323\000\000\000"
 558      0000
 559              		.text
 560              		.section	.gnu.lto_.opts,"",%progbits
 561 0000 272D666E 		.ascii	"'-fno-trapv' '-fno-strict-overflow' '-mcpu=cortex-m"
 561      6F2D7472 
 561      61707627 
 561      20272D66 
 561      6E6F2D73 
 562 0033 33272027 		.ascii	"3' '-mthumb' '-g' '-Og' '-ffunction-sections' '-flt"
 562      2D6D7468 
 562      756D6227 
 562      20272D67 
 562      2720272D 
 563 0066 6F272027 		.ascii	"o' '-ffat-lto-objects'\000"
 563      2D666661 
 563      742D6C74 
 563      6F2D6F62 
 563      6A656374 
 564              		.text
 565              		.cfi_sections	.debug_frame
 566              		.section	.text.ADC_DelSig_1_Ext_CP_Clk_Start,"ax",%progbits
 567              		.align	2
 568              		.global	ADC_DelSig_1_Ext_CP_Clk_Start
 569              		.thumb
 570              		.thumb_func
 571              		.type	ADC_DelSig_1_Ext_CP_Clk_Start, %function
 572              	ADC_DelSig_1_Ext_CP_Clk_Start:
 573              	.LFB0:
 574              		.file 1 "Generated_Source\\PSoC5\\ADC_DelSig_1_Ext_CP_Clk.c"
   1:Generated_Source\PSoC5/ADC_DelSig_1_Ext_CP_Clk.c **** /*******************************************************************************
   2:Generated_Source\PSoC5/ADC_DelSig_1_Ext_CP_Clk.c **** * File Name: ADC_DelSig_1_Ext_CP_Clk.c
   3:Generated_Source\PSoC5/ADC_DelSig_1_Ext_CP_Clk.c **** * Version 2.20
   4:Generated_Source\PSoC5/ADC_DelSig_1_Ext_CP_Clk.c **** *
   5:Generated_Source\PSoC5/ADC_DelSig_1_Ext_CP_Clk.c **** *  Description:
   6:Generated_Source\PSoC5/ADC_DelSig_1_Ext_CP_Clk.c **** *   This file provides the source code to the API for the clock component.
   7:Generated_Source\PSoC5/ADC_DelSig_1_Ext_CP_Clk.c **** *
ARM GAS  C:\Users\Luggi\AppData\Local\Temp\ccWDHWXF.s 			page 44


   8:Generated_Source\PSoC5/ADC_DelSig_1_Ext_CP_Clk.c **** *  Note:
   9:Generated_Source\PSoC5/ADC_DelSig_1_Ext_CP_Clk.c **** *
  10:Generated_Source\PSoC5/ADC_DelSig_1_Ext_CP_Clk.c **** ********************************************************************************
  11:Generated_Source\PSoC5/ADC_DelSig_1_Ext_CP_Clk.c **** * Copyright 2008-2012, Cypress Semiconductor Corporation.  All rights reserved.
  12:Generated_Source\PSoC5/ADC_DelSig_1_Ext_CP_Clk.c **** * You may use this file only in accordance with the license, terms, conditions, 
  13:Generated_Source\PSoC5/ADC_DelSig_1_Ext_CP_Clk.c **** * disclaimers, and limitations in the end user license agreement accompanying 
  14:Generated_Source\PSoC5/ADC_DelSig_1_Ext_CP_Clk.c **** * the software package with which this file was provided.
  15:Generated_Source\PSoC5/ADC_DelSig_1_Ext_CP_Clk.c **** *******************************************************************************/
  16:Generated_Source\PSoC5/ADC_DelSig_1_Ext_CP_Clk.c **** 
  17:Generated_Source\PSoC5/ADC_DelSig_1_Ext_CP_Clk.c **** #include <cydevice_trm.h>
  18:Generated_Source\PSoC5/ADC_DelSig_1_Ext_CP_Clk.c **** #include "ADC_DelSig_1_Ext_CP_Clk.h"
  19:Generated_Source\PSoC5/ADC_DelSig_1_Ext_CP_Clk.c **** 
  20:Generated_Source\PSoC5/ADC_DelSig_1_Ext_CP_Clk.c **** /* Clock Distribution registers. */
  21:Generated_Source\PSoC5/ADC_DelSig_1_Ext_CP_Clk.c **** #define CLK_DIST_LD              (* (reg8 *) CYREG_CLKDIST_LD)
  22:Generated_Source\PSoC5/ADC_DelSig_1_Ext_CP_Clk.c **** #define CLK_DIST_BCFG2           (* (reg8 *) CYREG_CLKDIST_BCFG2)
  23:Generated_Source\PSoC5/ADC_DelSig_1_Ext_CP_Clk.c **** #define BCFG2_MASK               (0x80u)
  24:Generated_Source\PSoC5/ADC_DelSig_1_Ext_CP_Clk.c **** #define CLK_DIST_DMASK           (* (reg8 *) CYREG_CLKDIST_DMASK)
  25:Generated_Source\PSoC5/ADC_DelSig_1_Ext_CP_Clk.c **** #define CLK_DIST_AMASK           (* (reg8 *) CYREG_CLKDIST_AMASK)
  26:Generated_Source\PSoC5/ADC_DelSig_1_Ext_CP_Clk.c **** 
  27:Generated_Source\PSoC5/ADC_DelSig_1_Ext_CP_Clk.c **** #define HAS_CLKDIST_LD_DISABLE   (CY_PSOC3 || CY_PSOC5LP)
  28:Generated_Source\PSoC5/ADC_DelSig_1_Ext_CP_Clk.c **** 
  29:Generated_Source\PSoC5/ADC_DelSig_1_Ext_CP_Clk.c **** 
  30:Generated_Source\PSoC5/ADC_DelSig_1_Ext_CP_Clk.c **** /*******************************************************************************
  31:Generated_Source\PSoC5/ADC_DelSig_1_Ext_CP_Clk.c **** * Function Name: ADC_DelSig_1_Ext_CP_Clk_Start
  32:Generated_Source\PSoC5/ADC_DelSig_1_Ext_CP_Clk.c **** ********************************************************************************
  33:Generated_Source\PSoC5/ADC_DelSig_1_Ext_CP_Clk.c **** *
  34:Generated_Source\PSoC5/ADC_DelSig_1_Ext_CP_Clk.c **** * Summary:
  35:Generated_Source\PSoC5/ADC_DelSig_1_Ext_CP_Clk.c **** *  Starts the clock. Note that on startup, clocks may be already running if the
  36:Generated_Source\PSoC5/ADC_DelSig_1_Ext_CP_Clk.c **** *  "Start on Reset" option is enabled in the DWR.
  37:Generated_Source\PSoC5/ADC_DelSig_1_Ext_CP_Clk.c **** *
  38:Generated_Source\PSoC5/ADC_DelSig_1_Ext_CP_Clk.c **** * Parameters:
  39:Generated_Source\PSoC5/ADC_DelSig_1_Ext_CP_Clk.c **** *  None
  40:Generated_Source\PSoC5/ADC_DelSig_1_Ext_CP_Clk.c **** *
  41:Generated_Source\PSoC5/ADC_DelSig_1_Ext_CP_Clk.c **** * Returns:
  42:Generated_Source\PSoC5/ADC_DelSig_1_Ext_CP_Clk.c **** *  None
  43:Generated_Source\PSoC5/ADC_DelSig_1_Ext_CP_Clk.c **** *
  44:Generated_Source\PSoC5/ADC_DelSig_1_Ext_CP_Clk.c **** *******************************************************************************/
  45:Generated_Source\PSoC5/ADC_DelSig_1_Ext_CP_Clk.c **** void ADC_DelSig_1_Ext_CP_Clk_Start(void) 
  46:Generated_Source\PSoC5/ADC_DelSig_1_Ext_CP_Clk.c **** {
 575              		.loc 1 46 0
 576              		.cfi_startproc
 577              		@ args = 0, pretend = 0, frame = 0
 578              		@ frame_needed = 0, uses_anonymous_args = 0
 579              		@ link register save eliminated.
  47:Generated_Source\PSoC5/ADC_DelSig_1_Ext_CP_Clk.c ****     /* Set the bit to enable the clock. */
  48:Generated_Source\PSoC5/ADC_DelSig_1_Ext_CP_Clk.c ****     ADC_DelSig_1_Ext_CP_Clk_CLKEN |= ADC_DelSig_1_Ext_CP_Clk_CLKEN_MASK;
 580              		.loc 1 48 0
 581 0000 054A     		ldr	r2, .L2
 582 0002 1378     		ldrb	r3, [r2]	@ zero_extendqisi2
 583 0004 43F00203 		orr	r3, r3, #2
 584 0008 1370     		strb	r3, [r2]
  49:Generated_Source\PSoC5/ADC_DelSig_1_Ext_CP_Clk.c **** 	ADC_DelSig_1_Ext_CP_Clk_CLKSTBY |= ADC_DelSig_1_Ext_CP_Clk_CLKSTBY_MASK;
 585              		.loc 1 49 0
 586 000a 1032     		adds	r2, r2, #16
 587 000c 1378     		ldrb	r3, [r2]	@ zero_extendqisi2
 588 000e 43F00203 		orr	r3, r3, #2
 589 0012 1370     		strb	r3, [r2]
ARM GAS  C:\Users\Luggi\AppData\Local\Temp\ccWDHWXF.s 			page 45


 590 0014 7047     		bx	lr
 591              	.L3:
 592 0016 00BF     		.align	2
 593              	.L2:
 594 0018 A2430040 		.word	1073759138
 595              		.cfi_endproc
 596              	.LFE0:
 597              		.size	ADC_DelSig_1_Ext_CP_Clk_Start, .-ADC_DelSig_1_Ext_CP_Clk_Start
 598              		.section	.text.ADC_DelSig_1_Ext_CP_Clk_Stop,"ax",%progbits
 599              		.align	2
 600              		.global	ADC_DelSig_1_Ext_CP_Clk_Stop
 601              		.thumb
 602              		.thumb_func
 603              		.type	ADC_DelSig_1_Ext_CP_Clk_Stop, %function
 604              	ADC_DelSig_1_Ext_CP_Clk_Stop:
 605              	.LFB1:
  50:Generated_Source\PSoC5/ADC_DelSig_1_Ext_CP_Clk.c **** }
  51:Generated_Source\PSoC5/ADC_DelSig_1_Ext_CP_Clk.c **** 
  52:Generated_Source\PSoC5/ADC_DelSig_1_Ext_CP_Clk.c **** 
  53:Generated_Source\PSoC5/ADC_DelSig_1_Ext_CP_Clk.c **** /*******************************************************************************
  54:Generated_Source\PSoC5/ADC_DelSig_1_Ext_CP_Clk.c **** * Function Name: ADC_DelSig_1_Ext_CP_Clk_Stop
  55:Generated_Source\PSoC5/ADC_DelSig_1_Ext_CP_Clk.c **** ********************************************************************************
  56:Generated_Source\PSoC5/ADC_DelSig_1_Ext_CP_Clk.c **** *
  57:Generated_Source\PSoC5/ADC_DelSig_1_Ext_CP_Clk.c **** * Summary:
  58:Generated_Source\PSoC5/ADC_DelSig_1_Ext_CP_Clk.c **** *  Stops the clock and returns immediately. This API does not require the
  59:Generated_Source\PSoC5/ADC_DelSig_1_Ext_CP_Clk.c **** *  source clock to be running but may return before the hardware is actually
  60:Generated_Source\PSoC5/ADC_DelSig_1_Ext_CP_Clk.c **** *  disabled. If the settings of the clock are changed after calling this
  61:Generated_Source\PSoC5/ADC_DelSig_1_Ext_CP_Clk.c **** *  function, the clock may glitch when it is started. To avoid the clock
  62:Generated_Source\PSoC5/ADC_DelSig_1_Ext_CP_Clk.c **** *  glitch, use the StopBlock function.
  63:Generated_Source\PSoC5/ADC_DelSig_1_Ext_CP_Clk.c **** *
  64:Generated_Source\PSoC5/ADC_DelSig_1_Ext_CP_Clk.c **** * Parameters:
  65:Generated_Source\PSoC5/ADC_DelSig_1_Ext_CP_Clk.c **** *  None
  66:Generated_Source\PSoC5/ADC_DelSig_1_Ext_CP_Clk.c **** *
  67:Generated_Source\PSoC5/ADC_DelSig_1_Ext_CP_Clk.c **** * Returns:
  68:Generated_Source\PSoC5/ADC_DelSig_1_Ext_CP_Clk.c **** *  None
  69:Generated_Source\PSoC5/ADC_DelSig_1_Ext_CP_Clk.c **** *
  70:Generated_Source\PSoC5/ADC_DelSig_1_Ext_CP_Clk.c **** *******************************************************************************/
  71:Generated_Source\PSoC5/ADC_DelSig_1_Ext_CP_Clk.c **** void ADC_DelSig_1_Ext_CP_Clk_Stop(void) 
  72:Generated_Source\PSoC5/ADC_DelSig_1_Ext_CP_Clk.c **** {
 606              		.loc 1 72 0
 607              		.cfi_startproc
 608              		@ args = 0, pretend = 0, frame = 0
 609              		@ frame_needed = 0, uses_anonymous_args = 0
 610              		@ link register save eliminated.
  73:Generated_Source\PSoC5/ADC_DelSig_1_Ext_CP_Clk.c ****     /* Clear the bit to disable the clock. */
  74:Generated_Source\PSoC5/ADC_DelSig_1_Ext_CP_Clk.c ****     ADC_DelSig_1_Ext_CP_Clk_CLKEN &= (uint8)(~ADC_DelSig_1_Ext_CP_Clk_CLKEN_MASK);
 611              		.loc 1 74 0
 612 0000 054A     		ldr	r2, .L5
 613 0002 1378     		ldrb	r3, [r2]	@ zero_extendqisi2
 614 0004 03F0FD03 		and	r3, r3, #253
 615 0008 1370     		strb	r3, [r2]
  75:Generated_Source\PSoC5/ADC_DelSig_1_Ext_CP_Clk.c **** 	ADC_DelSig_1_Ext_CP_Clk_CLKSTBY &= (uint8)(~ADC_DelSig_1_Ext_CP_Clk_CLKSTBY_MASK);
 616              		.loc 1 75 0
 617 000a 1032     		adds	r2, r2, #16
 618 000c 1378     		ldrb	r3, [r2]	@ zero_extendqisi2
 619 000e 03F0FD03 		and	r3, r3, #253
 620 0012 1370     		strb	r3, [r2]
ARM GAS  C:\Users\Luggi\AppData\Local\Temp\ccWDHWXF.s 			page 46


 621 0014 7047     		bx	lr
 622              	.L6:
 623 0016 00BF     		.align	2
 624              	.L5:
 625 0018 A2430040 		.word	1073759138
 626              		.cfi_endproc
 627              	.LFE1:
 628              		.size	ADC_DelSig_1_Ext_CP_Clk_Stop, .-ADC_DelSig_1_Ext_CP_Clk_Stop
 629              		.section	.text.ADC_DelSig_1_Ext_CP_Clk_StopBlock,"ax",%progbits
 630              		.align	2
 631              		.global	ADC_DelSig_1_Ext_CP_Clk_StopBlock
 632              		.thumb
 633              		.thumb_func
 634              		.type	ADC_DelSig_1_Ext_CP_Clk_StopBlock, %function
 635              	ADC_DelSig_1_Ext_CP_Clk_StopBlock:
 636              	.LFB2:
  76:Generated_Source\PSoC5/ADC_DelSig_1_Ext_CP_Clk.c **** }
  77:Generated_Source\PSoC5/ADC_DelSig_1_Ext_CP_Clk.c **** 
  78:Generated_Source\PSoC5/ADC_DelSig_1_Ext_CP_Clk.c **** 
  79:Generated_Source\PSoC5/ADC_DelSig_1_Ext_CP_Clk.c **** #if(CY_PSOC3 || CY_PSOC5LP)
  80:Generated_Source\PSoC5/ADC_DelSig_1_Ext_CP_Clk.c **** 
  81:Generated_Source\PSoC5/ADC_DelSig_1_Ext_CP_Clk.c **** 
  82:Generated_Source\PSoC5/ADC_DelSig_1_Ext_CP_Clk.c **** /*******************************************************************************
  83:Generated_Source\PSoC5/ADC_DelSig_1_Ext_CP_Clk.c **** * Function Name: ADC_DelSig_1_Ext_CP_Clk_StopBlock
  84:Generated_Source\PSoC5/ADC_DelSig_1_Ext_CP_Clk.c **** ********************************************************************************
  85:Generated_Source\PSoC5/ADC_DelSig_1_Ext_CP_Clk.c **** *
  86:Generated_Source\PSoC5/ADC_DelSig_1_Ext_CP_Clk.c **** * Summary:
  87:Generated_Source\PSoC5/ADC_DelSig_1_Ext_CP_Clk.c **** *  Stops the clock and waits for the hardware to actually be disabled before
  88:Generated_Source\PSoC5/ADC_DelSig_1_Ext_CP_Clk.c **** *  returning. This ensures that the clock is never truncated (high part of the
  89:Generated_Source\PSoC5/ADC_DelSig_1_Ext_CP_Clk.c **** *  cycle will terminate before the clock is disabled and the API returns).
  90:Generated_Source\PSoC5/ADC_DelSig_1_Ext_CP_Clk.c **** *  Note that the source clock must be running or this API will never return as
  91:Generated_Source\PSoC5/ADC_DelSig_1_Ext_CP_Clk.c **** *  a stopped clock cannot be disabled.
  92:Generated_Source\PSoC5/ADC_DelSig_1_Ext_CP_Clk.c **** *
  93:Generated_Source\PSoC5/ADC_DelSig_1_Ext_CP_Clk.c **** * Parameters:
  94:Generated_Source\PSoC5/ADC_DelSig_1_Ext_CP_Clk.c **** *  None
  95:Generated_Source\PSoC5/ADC_DelSig_1_Ext_CP_Clk.c **** *
  96:Generated_Source\PSoC5/ADC_DelSig_1_Ext_CP_Clk.c **** * Returns:
  97:Generated_Source\PSoC5/ADC_DelSig_1_Ext_CP_Clk.c **** *  None
  98:Generated_Source\PSoC5/ADC_DelSig_1_Ext_CP_Clk.c **** *
  99:Generated_Source\PSoC5/ADC_DelSig_1_Ext_CP_Clk.c **** *******************************************************************************/
 100:Generated_Source\PSoC5/ADC_DelSig_1_Ext_CP_Clk.c **** void ADC_DelSig_1_Ext_CP_Clk_StopBlock(void) 
 101:Generated_Source\PSoC5/ADC_DelSig_1_Ext_CP_Clk.c **** {
 637              		.loc 1 101 0
 638              		.cfi_startproc
 639              		@ args = 0, pretend = 0, frame = 0
 640              		@ frame_needed = 0, uses_anonymous_args = 0
 641              		@ link register save eliminated.
 102:Generated_Source\PSoC5/ADC_DelSig_1_Ext_CP_Clk.c ****     if ((ADC_DelSig_1_Ext_CP_Clk_CLKEN & ADC_DelSig_1_Ext_CP_Clk_CLKEN_MASK) != 0u)
 642              		.loc 1 102 0
 643 0000 164B     		ldr	r3, .L10
 644 0002 1B78     		ldrb	r3, [r3]	@ zero_extendqisi2
 645 0004 13F0020F 		tst	r3, #2
 646 0008 27D0     		beq	.L7
 647              	.LBB2:
 103:Generated_Source\PSoC5/ADC_DelSig_1_Ext_CP_Clk.c ****     {
 104:Generated_Source\PSoC5/ADC_DelSig_1_Ext_CP_Clk.c **** #if HAS_CLKDIST_LD_DISABLE
 105:Generated_Source\PSoC5/ADC_DelSig_1_Ext_CP_Clk.c ****         uint16 oldDivider;
ARM GAS  C:\Users\Luggi\AppData\Local\Temp\ccWDHWXF.s 			page 47


 106:Generated_Source\PSoC5/ADC_DelSig_1_Ext_CP_Clk.c **** 
 107:Generated_Source\PSoC5/ADC_DelSig_1_Ext_CP_Clk.c ****         CLK_DIST_LD = 0u;
 648              		.loc 1 107 0
 649 000a 1549     		ldr	r1, .L10+4
 650 000c 0023     		movs	r3, #0
 651 000e 0B70     		strb	r3, [r1]
 108:Generated_Source\PSoC5/ADC_DelSig_1_Ext_CP_Clk.c **** 
 109:Generated_Source\PSoC5/ADC_DelSig_1_Ext_CP_Clk.c ****         /* Clear all the mask bits except ours. */
 110:Generated_Source\PSoC5/ADC_DelSig_1_Ext_CP_Clk.c **** #if defined(ADC_DelSig_1_Ext_CP_Clk__CFG3)
 111:Generated_Source\PSoC5/ADC_DelSig_1_Ext_CP_Clk.c ****         CLK_DIST_AMASK = ADC_DelSig_1_Ext_CP_Clk_CLKEN_MASK;
 112:Generated_Source\PSoC5/ADC_DelSig_1_Ext_CP_Clk.c ****         CLK_DIST_DMASK = 0x00u;
 113:Generated_Source\PSoC5/ADC_DelSig_1_Ext_CP_Clk.c **** #else
 114:Generated_Source\PSoC5/ADC_DelSig_1_Ext_CP_Clk.c ****         CLK_DIST_DMASK = ADC_DelSig_1_Ext_CP_Clk_CLKEN_MASK;
 652              		.loc 1 114 0
 653 0010 0220     		movs	r0, #2
 654 0012 144A     		ldr	r2, .L10+8
 655 0014 1070     		strb	r0, [r2]
 115:Generated_Source\PSoC5/ADC_DelSig_1_Ext_CP_Clk.c ****         CLK_DIST_AMASK = 0x00u;
 656              		.loc 1 115 0
 657 0016 0432     		adds	r2, r2, #4
 658 0018 1370     		strb	r3, [r2]
 116:Generated_Source\PSoC5/ADC_DelSig_1_Ext_CP_Clk.c **** #endif /* ADC_DelSig_1_Ext_CP_Clk__CFG3 */
 117:Generated_Source\PSoC5/ADC_DelSig_1_Ext_CP_Clk.c **** 
 118:Generated_Source\PSoC5/ADC_DelSig_1_Ext_CP_Clk.c ****         /* Clear mask of bus clock. */
 119:Generated_Source\PSoC5/ADC_DelSig_1_Ext_CP_Clk.c ****         CLK_DIST_BCFG2 &= (uint8)(~BCFG2_MASK);
 659              		.loc 1 119 0
 660 001a 0C3A     		subs	r2, r2, #12
 661 001c 1378     		ldrb	r3, [r2]	@ zero_extendqisi2
 662 001e 03F07F03 		and	r3, r3, #127
 663 0022 1370     		strb	r3, [r2]
 120:Generated_Source\PSoC5/ADC_DelSig_1_Ext_CP_Clk.c **** 
 121:Generated_Source\PSoC5/ADC_DelSig_1_Ext_CP_Clk.c ****         oldDivider = CY_GET_REG16(ADC_DelSig_1_Ext_CP_Clk_DIV_PTR);
 664              		.loc 1 121 0
 665 0024 104B     		ldr	r3, .L10+12
 666 0026 1A88     		ldrh	r2, [r3]
 667 0028 92B2     		uxth	r2, r2
 668              	.LVL0:
 122:Generated_Source\PSoC5/ADC_DelSig_1_Ext_CP_Clk.c ****         CY_SET_REG16(CYREG_CLKDIST_WRK0, oldDivider);
 669              		.loc 1 122 0
 670 002a 823B     		subs	r3, r3, #130
 671 002c 1A80     		strh	r2, [r3]	@ movhi
 123:Generated_Source\PSoC5/ADC_DelSig_1_Ext_CP_Clk.c ****         CLK_DIST_LD = CYCLK_LD_DISABLE | CYCLK_LD_SYNC_EN | CYCLK_LD_LOAD;
 672              		.loc 1 123 0
 673 002e 0723     		movs	r3, #7
 674 0030 0B70     		strb	r3, [r1]
 675              	.L9:
 124:Generated_Source\PSoC5/ADC_DelSig_1_Ext_CP_Clk.c **** 
 125:Generated_Source\PSoC5/ADC_DelSig_1_Ext_CP_Clk.c ****         /* Wait for clock to be disabled */
 126:Generated_Source\PSoC5/ADC_DelSig_1_Ext_CP_Clk.c ****         while ((CLK_DIST_LD & CYCLK_LD_LOAD) != 0u) { }
 676              		.loc 1 126 0 discriminator 1
 677 0032 0B4B     		ldr	r3, .L10+4
 678 0034 1B78     		ldrb	r3, [r3]	@ zero_extendqisi2
 679 0036 13F0010F 		tst	r3, #1
 680 003a FAD1     		bne	.L9
 127:Generated_Source\PSoC5/ADC_DelSig_1_Ext_CP_Clk.c **** #endif /* HAS_CLKDIST_LD_DISABLE */
 128:Generated_Source\PSoC5/ADC_DelSig_1_Ext_CP_Clk.c **** 
 129:Generated_Source\PSoC5/ADC_DelSig_1_Ext_CP_Clk.c ****         /* Clear the bit to disable the clock. */
ARM GAS  C:\Users\Luggi\AppData\Local\Temp\ccWDHWXF.s 			page 48


 130:Generated_Source\PSoC5/ADC_DelSig_1_Ext_CP_Clk.c ****         ADC_DelSig_1_Ext_CP_Clk_CLKEN &= (uint8)(~ADC_DelSig_1_Ext_CP_Clk_CLKEN_MASK);
 681              		.loc 1 130 0
 682 003c 0749     		ldr	r1, .L10
 683 003e 0B78     		ldrb	r3, [r1]	@ zero_extendqisi2
 684 0040 03F0FD03 		and	r3, r3, #253
 685 0044 0B70     		strb	r3, [r1]
 131:Generated_Source\PSoC5/ADC_DelSig_1_Ext_CP_Clk.c ****         ADC_DelSig_1_Ext_CP_Clk_CLKSTBY &= (uint8)(~ADC_DelSig_1_Ext_CP_Clk_CLKSTBY_MASK);
 686              		.loc 1 131 0
 687 0046 1031     		adds	r1, r1, #16
 688 0048 0B78     		ldrb	r3, [r1]	@ zero_extendqisi2
 689 004a 03F0FD03 		and	r3, r3, #253
 690 004e 0B70     		strb	r3, [r1]
 132:Generated_Source\PSoC5/ADC_DelSig_1_Ext_CP_Clk.c **** 
 133:Generated_Source\PSoC5/ADC_DelSig_1_Ext_CP_Clk.c **** #if HAS_CLKDIST_LD_DISABLE
 134:Generated_Source\PSoC5/ADC_DelSig_1_Ext_CP_Clk.c ****         /* Clear the disable bit */
 135:Generated_Source\PSoC5/ADC_DelSig_1_Ext_CP_Clk.c ****         CLK_DIST_LD = 0x00u;
 691              		.loc 1 135 0
 692 0050 0021     		movs	r1, #0
 693 0052 034B     		ldr	r3, .L10+4
 694 0054 1970     		strb	r1, [r3]
 136:Generated_Source\PSoC5/ADC_DelSig_1_Ext_CP_Clk.c ****         CY_SET_REG16(ADC_DelSig_1_Ext_CP_Clk_DIV_PTR, oldDivider);
 695              		.loc 1 136 0
 696 0056 8333     		adds	r3, r3, #131
 697 0058 1A80     		strh	r2, [r3]	@ movhi
 698              	.LVL1:
 699              	.L7:
 700 005a 7047     		bx	lr
 701              	.L11:
 702              		.align	2
 703              	.L10:
 704 005c A2430040 		.word	1073759138
 705 0060 01400040 		.word	1073758209
 706 0064 10400040 		.word	1073758224
 707 0068 84400040 		.word	1073758340
 708              	.LBE2:
 709              		.cfi_endproc
 710              	.LFE2:
 711              		.size	ADC_DelSig_1_Ext_CP_Clk_StopBlock, .-ADC_DelSig_1_Ext_CP_Clk_StopBlock
 712              		.section	.text.ADC_DelSig_1_Ext_CP_Clk_StandbyPower,"ax",%progbits
 713              		.align	2
 714              		.global	ADC_DelSig_1_Ext_CP_Clk_StandbyPower
 715              		.thumb
 716              		.thumb_func
 717              		.type	ADC_DelSig_1_Ext_CP_Clk_StandbyPower, %function
 718              	ADC_DelSig_1_Ext_CP_Clk_StandbyPower:
 719              	.LFB3:
 137:Generated_Source\PSoC5/ADC_DelSig_1_Ext_CP_Clk.c **** #endif /* HAS_CLKDIST_LD_DISABLE */
 138:Generated_Source\PSoC5/ADC_DelSig_1_Ext_CP_Clk.c ****     }
 139:Generated_Source\PSoC5/ADC_DelSig_1_Ext_CP_Clk.c **** }
 140:Generated_Source\PSoC5/ADC_DelSig_1_Ext_CP_Clk.c **** #endif /* (CY_PSOC3 || CY_PSOC5LP) */
 141:Generated_Source\PSoC5/ADC_DelSig_1_Ext_CP_Clk.c **** 
 142:Generated_Source\PSoC5/ADC_DelSig_1_Ext_CP_Clk.c **** 
 143:Generated_Source\PSoC5/ADC_DelSig_1_Ext_CP_Clk.c **** /*******************************************************************************
 144:Generated_Source\PSoC5/ADC_DelSig_1_Ext_CP_Clk.c **** * Function Name: ADC_DelSig_1_Ext_CP_Clk_StandbyPower
 145:Generated_Source\PSoC5/ADC_DelSig_1_Ext_CP_Clk.c **** ********************************************************************************
 146:Generated_Source\PSoC5/ADC_DelSig_1_Ext_CP_Clk.c **** *
 147:Generated_Source\PSoC5/ADC_DelSig_1_Ext_CP_Clk.c **** * Summary:
ARM GAS  C:\Users\Luggi\AppData\Local\Temp\ccWDHWXF.s 			page 49


 148:Generated_Source\PSoC5/ADC_DelSig_1_Ext_CP_Clk.c **** *  Sets whether the clock is active in standby mode.
 149:Generated_Source\PSoC5/ADC_DelSig_1_Ext_CP_Clk.c **** *
 150:Generated_Source\PSoC5/ADC_DelSig_1_Ext_CP_Clk.c **** * Parameters:
 151:Generated_Source\PSoC5/ADC_DelSig_1_Ext_CP_Clk.c **** *  state:  0 to disable clock during standby, nonzero to enable.
 152:Generated_Source\PSoC5/ADC_DelSig_1_Ext_CP_Clk.c **** *
 153:Generated_Source\PSoC5/ADC_DelSig_1_Ext_CP_Clk.c **** * Returns:
 154:Generated_Source\PSoC5/ADC_DelSig_1_Ext_CP_Clk.c **** *  None
 155:Generated_Source\PSoC5/ADC_DelSig_1_Ext_CP_Clk.c **** *
 156:Generated_Source\PSoC5/ADC_DelSig_1_Ext_CP_Clk.c **** *******************************************************************************/
 157:Generated_Source\PSoC5/ADC_DelSig_1_Ext_CP_Clk.c **** void ADC_DelSig_1_Ext_CP_Clk_StandbyPower(uint8 state) 
 158:Generated_Source\PSoC5/ADC_DelSig_1_Ext_CP_Clk.c **** {
 720              		.loc 1 158 0
 721              		.cfi_startproc
 722              		@ args = 0, pretend = 0, frame = 0
 723              		@ frame_needed = 0, uses_anonymous_args = 0
 724              		@ link register save eliminated.
 725              	.LVL2:
 159:Generated_Source\PSoC5/ADC_DelSig_1_Ext_CP_Clk.c ****     if(state == 0u)
 726              		.loc 1 159 0
 727 0000 28B9     		cbnz	r0, .L13
 160:Generated_Source\PSoC5/ADC_DelSig_1_Ext_CP_Clk.c ****     {
 161:Generated_Source\PSoC5/ADC_DelSig_1_Ext_CP_Clk.c ****         ADC_DelSig_1_Ext_CP_Clk_CLKSTBY &= (uint8)(~ADC_DelSig_1_Ext_CP_Clk_CLKSTBY_MASK);
 728              		.loc 1 161 0
 729 0002 064A     		ldr	r2, .L15
 730 0004 1378     		ldrb	r3, [r2]	@ zero_extendqisi2
 731 0006 03F0FD03 		and	r3, r3, #253
 732 000a 1370     		strb	r3, [r2]
 733 000c 7047     		bx	lr
 734              	.L13:
 162:Generated_Source\PSoC5/ADC_DelSig_1_Ext_CP_Clk.c ****     }
 163:Generated_Source\PSoC5/ADC_DelSig_1_Ext_CP_Clk.c ****     else
 164:Generated_Source\PSoC5/ADC_DelSig_1_Ext_CP_Clk.c ****     {
 165:Generated_Source\PSoC5/ADC_DelSig_1_Ext_CP_Clk.c ****         ADC_DelSig_1_Ext_CP_Clk_CLKSTBY |= ADC_DelSig_1_Ext_CP_Clk_CLKSTBY_MASK;
 735              		.loc 1 165 0
 736 000e 034A     		ldr	r2, .L15
 737 0010 1378     		ldrb	r3, [r2]	@ zero_extendqisi2
 738 0012 43F00203 		orr	r3, r3, #2
 739 0016 1370     		strb	r3, [r2]
 740 0018 7047     		bx	lr
 741              	.L16:
 742 001a 00BF     		.align	2
 743              	.L15:
 744 001c B2430040 		.word	1073759154
 745              		.cfi_endproc
 746              	.LFE3:
 747              		.size	ADC_DelSig_1_Ext_CP_Clk_StandbyPower, .-ADC_DelSig_1_Ext_CP_Clk_StandbyPower
 748              		.section	.text.ADC_DelSig_1_Ext_CP_Clk_GetDividerRegister,"ax",%progbits
 749              		.align	2
 750              		.global	ADC_DelSig_1_Ext_CP_Clk_GetDividerRegister
 751              		.thumb
 752              		.thumb_func
 753              		.type	ADC_DelSig_1_Ext_CP_Clk_GetDividerRegister, %function
 754              	ADC_DelSig_1_Ext_CP_Clk_GetDividerRegister:
 755              	.LFB5:
 166:Generated_Source\PSoC5/ADC_DelSig_1_Ext_CP_Clk.c ****     }
 167:Generated_Source\PSoC5/ADC_DelSig_1_Ext_CP_Clk.c **** }
 168:Generated_Source\PSoC5/ADC_DelSig_1_Ext_CP_Clk.c **** 
ARM GAS  C:\Users\Luggi\AppData\Local\Temp\ccWDHWXF.s 			page 50


 169:Generated_Source\PSoC5/ADC_DelSig_1_Ext_CP_Clk.c **** 
 170:Generated_Source\PSoC5/ADC_DelSig_1_Ext_CP_Clk.c **** /*******************************************************************************
 171:Generated_Source\PSoC5/ADC_DelSig_1_Ext_CP_Clk.c **** * Function Name: ADC_DelSig_1_Ext_CP_Clk_SetDividerRegister
 172:Generated_Source\PSoC5/ADC_DelSig_1_Ext_CP_Clk.c **** ********************************************************************************
 173:Generated_Source\PSoC5/ADC_DelSig_1_Ext_CP_Clk.c **** *
 174:Generated_Source\PSoC5/ADC_DelSig_1_Ext_CP_Clk.c **** * Summary:
 175:Generated_Source\PSoC5/ADC_DelSig_1_Ext_CP_Clk.c **** *  Modifies the clock divider and, thus, the frequency. When the clock divider
 176:Generated_Source\PSoC5/ADC_DelSig_1_Ext_CP_Clk.c **** *  register is set to zero or changed from zero, the clock will be temporarily
 177:Generated_Source\PSoC5/ADC_DelSig_1_Ext_CP_Clk.c **** *  disabled in order to change the SSS mode bit. If the clock is enabled when
 178:Generated_Source\PSoC5/ADC_DelSig_1_Ext_CP_Clk.c **** *  SetDividerRegister is called, then the source clock must be running.
 179:Generated_Source\PSoC5/ADC_DelSig_1_Ext_CP_Clk.c **** *
 180:Generated_Source\PSoC5/ADC_DelSig_1_Ext_CP_Clk.c **** * Parameters:
 181:Generated_Source\PSoC5/ADC_DelSig_1_Ext_CP_Clk.c **** *  clkDivider:  Divider register value (0-65,535). This value is NOT the
 182:Generated_Source\PSoC5/ADC_DelSig_1_Ext_CP_Clk.c **** *    divider; the clock hardware divides by clkDivider plus one. For example,
 183:Generated_Source\PSoC5/ADC_DelSig_1_Ext_CP_Clk.c **** *    to divide the clock by 2, this parameter should be set to 1.
 184:Generated_Source\PSoC5/ADC_DelSig_1_Ext_CP_Clk.c **** *  restart:  If nonzero, restarts the clock divider: the current clock cycle
 185:Generated_Source\PSoC5/ADC_DelSig_1_Ext_CP_Clk.c **** *   will be truncated and the new divide value will take effect immediately. If
 186:Generated_Source\PSoC5/ADC_DelSig_1_Ext_CP_Clk.c **** *   zero, the new divide value will take effect at the end of the current clock
 187:Generated_Source\PSoC5/ADC_DelSig_1_Ext_CP_Clk.c **** *   cycle.
 188:Generated_Source\PSoC5/ADC_DelSig_1_Ext_CP_Clk.c **** *
 189:Generated_Source\PSoC5/ADC_DelSig_1_Ext_CP_Clk.c **** * Returns:
 190:Generated_Source\PSoC5/ADC_DelSig_1_Ext_CP_Clk.c **** *  None
 191:Generated_Source\PSoC5/ADC_DelSig_1_Ext_CP_Clk.c **** *
 192:Generated_Source\PSoC5/ADC_DelSig_1_Ext_CP_Clk.c **** *******************************************************************************/
 193:Generated_Source\PSoC5/ADC_DelSig_1_Ext_CP_Clk.c **** void ADC_DelSig_1_Ext_CP_Clk_SetDividerRegister(uint16 clkDivider, uint8 restart)
 194:Generated_Source\PSoC5/ADC_DelSig_1_Ext_CP_Clk.c ****                                 
 195:Generated_Source\PSoC5/ADC_DelSig_1_Ext_CP_Clk.c **** {
 196:Generated_Source\PSoC5/ADC_DelSig_1_Ext_CP_Clk.c ****     uint8 enabled;
 197:Generated_Source\PSoC5/ADC_DelSig_1_Ext_CP_Clk.c **** 
 198:Generated_Source\PSoC5/ADC_DelSig_1_Ext_CP_Clk.c ****     uint8 currSrc = ADC_DelSig_1_Ext_CP_Clk_GetSourceRegister();
 199:Generated_Source\PSoC5/ADC_DelSig_1_Ext_CP_Clk.c ****     uint16 oldDivider = ADC_DelSig_1_Ext_CP_Clk_GetDividerRegister();
 200:Generated_Source\PSoC5/ADC_DelSig_1_Ext_CP_Clk.c **** 
 201:Generated_Source\PSoC5/ADC_DelSig_1_Ext_CP_Clk.c ****     if (clkDivider != oldDivider)
 202:Generated_Source\PSoC5/ADC_DelSig_1_Ext_CP_Clk.c ****     {
 203:Generated_Source\PSoC5/ADC_DelSig_1_Ext_CP_Clk.c ****         enabled = ADC_DelSig_1_Ext_CP_Clk_CLKEN & ADC_DelSig_1_Ext_CP_Clk_CLKEN_MASK;
 204:Generated_Source\PSoC5/ADC_DelSig_1_Ext_CP_Clk.c **** 
 205:Generated_Source\PSoC5/ADC_DelSig_1_Ext_CP_Clk.c ****         if ((currSrc == (uint8)CYCLK_SRC_SEL_CLK_SYNC_D) && ((oldDivider == 0u) || (clkDivider == 0
 206:Generated_Source\PSoC5/ADC_DelSig_1_Ext_CP_Clk.c ****         {
 207:Generated_Source\PSoC5/ADC_DelSig_1_Ext_CP_Clk.c ****             /* Moving to/from SSS requires correct ordering to prevent halting the clock    */
 208:Generated_Source\PSoC5/ADC_DelSig_1_Ext_CP_Clk.c ****             if (oldDivider == 0u)
 209:Generated_Source\PSoC5/ADC_DelSig_1_Ext_CP_Clk.c ****             {
 210:Generated_Source\PSoC5/ADC_DelSig_1_Ext_CP_Clk.c ****                 /* Moving away from SSS, set the divider first so when SSS is cleared we    */
 211:Generated_Source\PSoC5/ADC_DelSig_1_Ext_CP_Clk.c ****                 /* don't halt the clock.  Using the shadow load isn't required as the       */
 212:Generated_Source\PSoC5/ADC_DelSig_1_Ext_CP_Clk.c ****                 /* divider is ignored while SSS is set.                                     */
 213:Generated_Source\PSoC5/ADC_DelSig_1_Ext_CP_Clk.c ****                 CY_SET_REG16(ADC_DelSig_1_Ext_CP_Clk_DIV_PTR, clkDivider);
 214:Generated_Source\PSoC5/ADC_DelSig_1_Ext_CP_Clk.c ****                 ADC_DelSig_1_Ext_CP_Clk_MOD_SRC &= (uint8)(~CYCLK_SSS);
 215:Generated_Source\PSoC5/ADC_DelSig_1_Ext_CP_Clk.c ****             }
 216:Generated_Source\PSoC5/ADC_DelSig_1_Ext_CP_Clk.c ****             else
 217:Generated_Source\PSoC5/ADC_DelSig_1_Ext_CP_Clk.c ****             {
 218:Generated_Source\PSoC5/ADC_DelSig_1_Ext_CP_Clk.c ****                 /* Moving to SSS, set SSS which then ignores the divider and we can set     */
 219:Generated_Source\PSoC5/ADC_DelSig_1_Ext_CP_Clk.c ****                 /* it without bothering with the shadow load.                               */
 220:Generated_Source\PSoC5/ADC_DelSig_1_Ext_CP_Clk.c ****                 ADC_DelSig_1_Ext_CP_Clk_MOD_SRC |= CYCLK_SSS;
 221:Generated_Source\PSoC5/ADC_DelSig_1_Ext_CP_Clk.c ****                 CY_SET_REG16(ADC_DelSig_1_Ext_CP_Clk_DIV_PTR, clkDivider);
 222:Generated_Source\PSoC5/ADC_DelSig_1_Ext_CP_Clk.c ****             }
 223:Generated_Source\PSoC5/ADC_DelSig_1_Ext_CP_Clk.c ****         }
 224:Generated_Source\PSoC5/ADC_DelSig_1_Ext_CP_Clk.c ****         else
 225:Generated_Source\PSoC5/ADC_DelSig_1_Ext_CP_Clk.c ****         {
ARM GAS  C:\Users\Luggi\AppData\Local\Temp\ccWDHWXF.s 			page 51


 226:Generated_Source\PSoC5/ADC_DelSig_1_Ext_CP_Clk.c **** 			
 227:Generated_Source\PSoC5/ADC_DelSig_1_Ext_CP_Clk.c ****             if (enabled != 0u)
 228:Generated_Source\PSoC5/ADC_DelSig_1_Ext_CP_Clk.c ****             {
 229:Generated_Source\PSoC5/ADC_DelSig_1_Ext_CP_Clk.c ****                 CLK_DIST_LD = 0x00u;
 230:Generated_Source\PSoC5/ADC_DelSig_1_Ext_CP_Clk.c **** 
 231:Generated_Source\PSoC5/ADC_DelSig_1_Ext_CP_Clk.c ****                 /* Clear all the mask bits except ours. */
 232:Generated_Source\PSoC5/ADC_DelSig_1_Ext_CP_Clk.c **** #if defined(ADC_DelSig_1_Ext_CP_Clk__CFG3)
 233:Generated_Source\PSoC5/ADC_DelSig_1_Ext_CP_Clk.c ****                 CLK_DIST_AMASK = ADC_DelSig_1_Ext_CP_Clk_CLKEN_MASK;
 234:Generated_Source\PSoC5/ADC_DelSig_1_Ext_CP_Clk.c ****                 CLK_DIST_DMASK = 0x00u;
 235:Generated_Source\PSoC5/ADC_DelSig_1_Ext_CP_Clk.c **** #else
 236:Generated_Source\PSoC5/ADC_DelSig_1_Ext_CP_Clk.c ****                 CLK_DIST_DMASK = ADC_DelSig_1_Ext_CP_Clk_CLKEN_MASK;
 237:Generated_Source\PSoC5/ADC_DelSig_1_Ext_CP_Clk.c ****                 CLK_DIST_AMASK = 0x00u;
 238:Generated_Source\PSoC5/ADC_DelSig_1_Ext_CP_Clk.c **** #endif /* ADC_DelSig_1_Ext_CP_Clk__CFG3 */
 239:Generated_Source\PSoC5/ADC_DelSig_1_Ext_CP_Clk.c ****                 /* Clear mask of bus clock. */
 240:Generated_Source\PSoC5/ADC_DelSig_1_Ext_CP_Clk.c ****                 CLK_DIST_BCFG2 &= (uint8)(~BCFG2_MASK);
 241:Generated_Source\PSoC5/ADC_DelSig_1_Ext_CP_Clk.c **** 
 242:Generated_Source\PSoC5/ADC_DelSig_1_Ext_CP_Clk.c ****                 /* If clock is currently enabled, disable it if async or going from N-to-1*/
 243:Generated_Source\PSoC5/ADC_DelSig_1_Ext_CP_Clk.c ****                 if (((ADC_DelSig_1_Ext_CP_Clk_MOD_SRC & CYCLK_SYNC) == 0u) || (clkDivider == 0u))
 244:Generated_Source\PSoC5/ADC_DelSig_1_Ext_CP_Clk.c ****                 {
 245:Generated_Source\PSoC5/ADC_DelSig_1_Ext_CP_Clk.c **** #if HAS_CLKDIST_LD_DISABLE
 246:Generated_Source\PSoC5/ADC_DelSig_1_Ext_CP_Clk.c ****                     CY_SET_REG16(CYREG_CLKDIST_WRK0, oldDivider);
 247:Generated_Source\PSoC5/ADC_DelSig_1_Ext_CP_Clk.c ****                     CLK_DIST_LD = CYCLK_LD_DISABLE|CYCLK_LD_SYNC_EN|CYCLK_LD_LOAD;
 248:Generated_Source\PSoC5/ADC_DelSig_1_Ext_CP_Clk.c **** 
 249:Generated_Source\PSoC5/ADC_DelSig_1_Ext_CP_Clk.c ****                     /* Wait for clock to be disabled */
 250:Generated_Source\PSoC5/ADC_DelSig_1_Ext_CP_Clk.c ****                     while ((CLK_DIST_LD & CYCLK_LD_LOAD) != 0u) { }
 251:Generated_Source\PSoC5/ADC_DelSig_1_Ext_CP_Clk.c **** #endif /* HAS_CLKDIST_LD_DISABLE */
 252:Generated_Source\PSoC5/ADC_DelSig_1_Ext_CP_Clk.c **** 
 253:Generated_Source\PSoC5/ADC_DelSig_1_Ext_CP_Clk.c ****                     ADC_DelSig_1_Ext_CP_Clk_CLKEN &= (uint8)(~ADC_DelSig_1_Ext_CP_Clk_CLKEN_MASK);
 254:Generated_Source\PSoC5/ADC_DelSig_1_Ext_CP_Clk.c **** 
 255:Generated_Source\PSoC5/ADC_DelSig_1_Ext_CP_Clk.c **** #if HAS_CLKDIST_LD_DISABLE
 256:Generated_Source\PSoC5/ADC_DelSig_1_Ext_CP_Clk.c ****                     /* Clear the disable bit */
 257:Generated_Source\PSoC5/ADC_DelSig_1_Ext_CP_Clk.c ****                     CLK_DIST_LD = 0x00u;
 258:Generated_Source\PSoC5/ADC_DelSig_1_Ext_CP_Clk.c **** #endif /* HAS_CLKDIST_LD_DISABLE */
 259:Generated_Source\PSoC5/ADC_DelSig_1_Ext_CP_Clk.c ****                 }
 260:Generated_Source\PSoC5/ADC_DelSig_1_Ext_CP_Clk.c ****             }
 261:Generated_Source\PSoC5/ADC_DelSig_1_Ext_CP_Clk.c **** 
 262:Generated_Source\PSoC5/ADC_DelSig_1_Ext_CP_Clk.c ****             /* Load divide value. */
 263:Generated_Source\PSoC5/ADC_DelSig_1_Ext_CP_Clk.c ****             if ((ADC_DelSig_1_Ext_CP_Clk_CLKEN & ADC_DelSig_1_Ext_CP_Clk_CLKEN_MASK) != 0u)
 264:Generated_Source\PSoC5/ADC_DelSig_1_Ext_CP_Clk.c ****             {
 265:Generated_Source\PSoC5/ADC_DelSig_1_Ext_CP_Clk.c ****                 /* If the clock is still enabled, use the shadow registers */
 266:Generated_Source\PSoC5/ADC_DelSig_1_Ext_CP_Clk.c ****                 CY_SET_REG16(CYREG_CLKDIST_WRK0, clkDivider);
 267:Generated_Source\PSoC5/ADC_DelSig_1_Ext_CP_Clk.c **** 
 268:Generated_Source\PSoC5/ADC_DelSig_1_Ext_CP_Clk.c ****                 CLK_DIST_LD = (CYCLK_LD_LOAD | ((restart != 0u) ? CYCLK_LD_SYNC_EN : 0x00u));
 269:Generated_Source\PSoC5/ADC_DelSig_1_Ext_CP_Clk.c ****                 while ((CLK_DIST_LD & CYCLK_LD_LOAD) != 0u) { }
 270:Generated_Source\PSoC5/ADC_DelSig_1_Ext_CP_Clk.c ****             }
 271:Generated_Source\PSoC5/ADC_DelSig_1_Ext_CP_Clk.c ****             else
 272:Generated_Source\PSoC5/ADC_DelSig_1_Ext_CP_Clk.c ****             {
 273:Generated_Source\PSoC5/ADC_DelSig_1_Ext_CP_Clk.c ****                 /* If the clock is disabled, set the divider directly */
 274:Generated_Source\PSoC5/ADC_DelSig_1_Ext_CP_Clk.c ****                 CY_SET_REG16(ADC_DelSig_1_Ext_CP_Clk_DIV_PTR, clkDivider);
 275:Generated_Source\PSoC5/ADC_DelSig_1_Ext_CP_Clk.c **** 				ADC_DelSig_1_Ext_CP_Clk_CLKEN |= enabled;
 276:Generated_Source\PSoC5/ADC_DelSig_1_Ext_CP_Clk.c ****             }
 277:Generated_Source\PSoC5/ADC_DelSig_1_Ext_CP_Clk.c ****         }
 278:Generated_Source\PSoC5/ADC_DelSig_1_Ext_CP_Clk.c ****     }
 279:Generated_Source\PSoC5/ADC_DelSig_1_Ext_CP_Clk.c **** }
 280:Generated_Source\PSoC5/ADC_DelSig_1_Ext_CP_Clk.c **** 
 281:Generated_Source\PSoC5/ADC_DelSig_1_Ext_CP_Clk.c **** 
 282:Generated_Source\PSoC5/ADC_DelSig_1_Ext_CP_Clk.c **** /*******************************************************************************
ARM GAS  C:\Users\Luggi\AppData\Local\Temp\ccWDHWXF.s 			page 52


 283:Generated_Source\PSoC5/ADC_DelSig_1_Ext_CP_Clk.c **** * Function Name: ADC_DelSig_1_Ext_CP_Clk_GetDividerRegister
 284:Generated_Source\PSoC5/ADC_DelSig_1_Ext_CP_Clk.c **** ********************************************************************************
 285:Generated_Source\PSoC5/ADC_DelSig_1_Ext_CP_Clk.c **** *
 286:Generated_Source\PSoC5/ADC_DelSig_1_Ext_CP_Clk.c **** * Summary:
 287:Generated_Source\PSoC5/ADC_DelSig_1_Ext_CP_Clk.c **** *  Gets the clock divider register value.
 288:Generated_Source\PSoC5/ADC_DelSig_1_Ext_CP_Clk.c **** *
 289:Generated_Source\PSoC5/ADC_DelSig_1_Ext_CP_Clk.c **** * Parameters:
 290:Generated_Source\PSoC5/ADC_DelSig_1_Ext_CP_Clk.c **** *  None
 291:Generated_Source\PSoC5/ADC_DelSig_1_Ext_CP_Clk.c **** *
 292:Generated_Source\PSoC5/ADC_DelSig_1_Ext_CP_Clk.c **** * Returns:
 293:Generated_Source\PSoC5/ADC_DelSig_1_Ext_CP_Clk.c **** *  Divide value of the clock minus 1. For example, if the clock is set to
 294:Generated_Source\PSoC5/ADC_DelSig_1_Ext_CP_Clk.c **** *  divide by 2, the return value will be 1.
 295:Generated_Source\PSoC5/ADC_DelSig_1_Ext_CP_Clk.c **** *
 296:Generated_Source\PSoC5/ADC_DelSig_1_Ext_CP_Clk.c **** *******************************************************************************/
 297:Generated_Source\PSoC5/ADC_DelSig_1_Ext_CP_Clk.c **** uint16 ADC_DelSig_1_Ext_CP_Clk_GetDividerRegister(void) 
 298:Generated_Source\PSoC5/ADC_DelSig_1_Ext_CP_Clk.c **** {
 756              		.loc 1 298 0
 757              		.cfi_startproc
 758              		@ args = 0, pretend = 0, frame = 0
 759              		@ frame_needed = 0, uses_anonymous_args = 0
 760              		@ link register save eliminated.
 299:Generated_Source\PSoC5/ADC_DelSig_1_Ext_CP_Clk.c ****     return CY_GET_REG16(ADC_DelSig_1_Ext_CP_Clk_DIV_PTR);
 761              		.loc 1 299 0
 762 0000 014B     		ldr	r3, .L18
 763 0002 1888     		ldrh	r0, [r3]
 300:Generated_Source\PSoC5/ADC_DelSig_1_Ext_CP_Clk.c **** }
 764              		.loc 1 300 0
 765 0004 80B2     		uxth	r0, r0
 766 0006 7047     		bx	lr
 767              	.L19:
 768              		.align	2
 769              	.L18:
 770 0008 84400040 		.word	1073758340
 771              		.cfi_endproc
 772              	.LFE5:
 773              		.size	ADC_DelSig_1_Ext_CP_Clk_GetDividerRegister, .-ADC_DelSig_1_Ext_CP_Clk_GetDividerRegister
 774              		.section	.text.ADC_DelSig_1_Ext_CP_Clk_SetModeRegister,"ax",%progbits
 775              		.align	2
 776              		.global	ADC_DelSig_1_Ext_CP_Clk_SetModeRegister
 777              		.thumb
 778              		.thumb_func
 779              		.type	ADC_DelSig_1_Ext_CP_Clk_SetModeRegister, %function
 780              	ADC_DelSig_1_Ext_CP_Clk_SetModeRegister:
 781              	.LFB6:
 301:Generated_Source\PSoC5/ADC_DelSig_1_Ext_CP_Clk.c **** 
 302:Generated_Source\PSoC5/ADC_DelSig_1_Ext_CP_Clk.c **** 
 303:Generated_Source\PSoC5/ADC_DelSig_1_Ext_CP_Clk.c **** /*******************************************************************************
 304:Generated_Source\PSoC5/ADC_DelSig_1_Ext_CP_Clk.c **** * Function Name: ADC_DelSig_1_Ext_CP_Clk_SetModeRegister
 305:Generated_Source\PSoC5/ADC_DelSig_1_Ext_CP_Clk.c **** ********************************************************************************
 306:Generated_Source\PSoC5/ADC_DelSig_1_Ext_CP_Clk.c **** *
 307:Generated_Source\PSoC5/ADC_DelSig_1_Ext_CP_Clk.c **** * Summary:
 308:Generated_Source\PSoC5/ADC_DelSig_1_Ext_CP_Clk.c **** *  Sets flags that control the operating mode of the clock. This function only
 309:Generated_Source\PSoC5/ADC_DelSig_1_Ext_CP_Clk.c **** *  changes flags from 0 to 1; flags that are already 1 will remain unchanged.
 310:Generated_Source\PSoC5/ADC_DelSig_1_Ext_CP_Clk.c **** *  To clear flags, use the ClearModeRegister function. The clock must be
 311:Generated_Source\PSoC5/ADC_DelSig_1_Ext_CP_Clk.c **** *  disabled before changing the mode.
 312:Generated_Source\PSoC5/ADC_DelSig_1_Ext_CP_Clk.c **** *
 313:Generated_Source\PSoC5/ADC_DelSig_1_Ext_CP_Clk.c **** * Parameters:
ARM GAS  C:\Users\Luggi\AppData\Local\Temp\ccWDHWXF.s 			page 53


 314:Generated_Source\PSoC5/ADC_DelSig_1_Ext_CP_Clk.c **** *  clkMode: Bit mask containing the bits to set. For PSoC 3 and PSoC 5,
 315:Generated_Source\PSoC5/ADC_DelSig_1_Ext_CP_Clk.c **** *   clkMode should be a set of the following optional bits or'ed together.
 316:Generated_Source\PSoC5/ADC_DelSig_1_Ext_CP_Clk.c **** *   - CYCLK_EARLY Enable early phase mode. Rising edge of output clock will
 317:Generated_Source\PSoC5/ADC_DelSig_1_Ext_CP_Clk.c **** *                 occur when the divider count reaches half of the divide
 318:Generated_Source\PSoC5/ADC_DelSig_1_Ext_CP_Clk.c **** *                 value.
 319:Generated_Source\PSoC5/ADC_DelSig_1_Ext_CP_Clk.c **** *   - CYCLK_DUTY  Enable 50% duty cycle output. When enabled, the output clock
 320:Generated_Source\PSoC5/ADC_DelSig_1_Ext_CP_Clk.c **** *                 is asserted for approximately half of its period. When
 321:Generated_Source\PSoC5/ADC_DelSig_1_Ext_CP_Clk.c **** *                 disabled, the output clock is asserted for one period of the
 322:Generated_Source\PSoC5/ADC_DelSig_1_Ext_CP_Clk.c **** *                 source clock.
 323:Generated_Source\PSoC5/ADC_DelSig_1_Ext_CP_Clk.c **** *   - CYCLK_SYNC  Enable output synchronization to master clock. This should
 324:Generated_Source\PSoC5/ADC_DelSig_1_Ext_CP_Clk.c **** *                 be enabled for all synchronous clocks.
 325:Generated_Source\PSoC5/ADC_DelSig_1_Ext_CP_Clk.c **** *   See the Technical Reference Manual for details about setting the mode of
 326:Generated_Source\PSoC5/ADC_DelSig_1_Ext_CP_Clk.c **** *   the clock. Specifically, see the CLKDIST.DCFG.CFG2 register.
 327:Generated_Source\PSoC5/ADC_DelSig_1_Ext_CP_Clk.c **** *
 328:Generated_Source\PSoC5/ADC_DelSig_1_Ext_CP_Clk.c **** * Returns:
 329:Generated_Source\PSoC5/ADC_DelSig_1_Ext_CP_Clk.c **** *  None
 330:Generated_Source\PSoC5/ADC_DelSig_1_Ext_CP_Clk.c **** *
 331:Generated_Source\PSoC5/ADC_DelSig_1_Ext_CP_Clk.c **** *******************************************************************************/
 332:Generated_Source\PSoC5/ADC_DelSig_1_Ext_CP_Clk.c **** void ADC_DelSig_1_Ext_CP_Clk_SetModeRegister(uint8 modeBitMask) 
 333:Generated_Source\PSoC5/ADC_DelSig_1_Ext_CP_Clk.c **** {
 782              		.loc 1 333 0
 783              		.cfi_startproc
 784              		@ args = 0, pretend = 0, frame = 0
 785              		@ frame_needed = 0, uses_anonymous_args = 0
 786              		@ link register save eliminated.
 787              	.LVL3:
 334:Generated_Source\PSoC5/ADC_DelSig_1_Ext_CP_Clk.c ****     ADC_DelSig_1_Ext_CP_Clk_MOD_SRC |= modeBitMask & (uint8)ADC_DelSig_1_Ext_CP_Clk_MODE_MASK;
 788              		.loc 1 334 0
 789 0000 034B     		ldr	r3, .L21
 790 0002 1A78     		ldrb	r2, [r3]	@ zero_extendqisi2
 791 0004 00F0F800 		and	r0, r0, #248
 792              	.LVL4:
 793 0008 1043     		orrs	r0, r0, r2
 794 000a 1870     		strb	r0, [r3]
 795 000c 7047     		bx	lr
 796              	.L22:
 797 000e 00BF     		.align	2
 798              	.L21:
 799 0010 86400040 		.word	1073758342
 800              		.cfi_endproc
 801              	.LFE6:
 802              		.size	ADC_DelSig_1_Ext_CP_Clk_SetModeRegister, .-ADC_DelSig_1_Ext_CP_Clk_SetModeRegister
 803              		.section	.text.ADC_DelSig_1_Ext_CP_Clk_ClearModeRegister,"ax",%progbits
 804              		.align	2
 805              		.global	ADC_DelSig_1_Ext_CP_Clk_ClearModeRegister
 806              		.thumb
 807              		.thumb_func
 808              		.type	ADC_DelSig_1_Ext_CP_Clk_ClearModeRegister, %function
 809              	ADC_DelSig_1_Ext_CP_Clk_ClearModeRegister:
 810              	.LFB7:
 335:Generated_Source\PSoC5/ADC_DelSig_1_Ext_CP_Clk.c **** }
 336:Generated_Source\PSoC5/ADC_DelSig_1_Ext_CP_Clk.c **** 
 337:Generated_Source\PSoC5/ADC_DelSig_1_Ext_CP_Clk.c **** 
 338:Generated_Source\PSoC5/ADC_DelSig_1_Ext_CP_Clk.c **** /*******************************************************************************
 339:Generated_Source\PSoC5/ADC_DelSig_1_Ext_CP_Clk.c **** * Function Name: ADC_DelSig_1_Ext_CP_Clk_ClearModeRegister
 340:Generated_Source\PSoC5/ADC_DelSig_1_Ext_CP_Clk.c **** ********************************************************************************
 341:Generated_Source\PSoC5/ADC_DelSig_1_Ext_CP_Clk.c **** *
ARM GAS  C:\Users\Luggi\AppData\Local\Temp\ccWDHWXF.s 			page 54


 342:Generated_Source\PSoC5/ADC_DelSig_1_Ext_CP_Clk.c **** * Summary:
 343:Generated_Source\PSoC5/ADC_DelSig_1_Ext_CP_Clk.c **** *  Clears flags that control the operating mode of the clock. This function
 344:Generated_Source\PSoC5/ADC_DelSig_1_Ext_CP_Clk.c **** *  only changes flags from 1 to 0; flags that are already 0 will remain
 345:Generated_Source\PSoC5/ADC_DelSig_1_Ext_CP_Clk.c **** *  unchanged. To set flags, use the SetModeRegister function. The clock must be
 346:Generated_Source\PSoC5/ADC_DelSig_1_Ext_CP_Clk.c **** *  disabled before changing the mode.
 347:Generated_Source\PSoC5/ADC_DelSig_1_Ext_CP_Clk.c **** *
 348:Generated_Source\PSoC5/ADC_DelSig_1_Ext_CP_Clk.c **** * Parameters:
 349:Generated_Source\PSoC5/ADC_DelSig_1_Ext_CP_Clk.c **** *  clkMode: Bit mask containing the bits to clear. For PSoC 3 and PSoC 5,
 350:Generated_Source\PSoC5/ADC_DelSig_1_Ext_CP_Clk.c **** *   clkMode should be a set of the following optional bits or'ed together.
 351:Generated_Source\PSoC5/ADC_DelSig_1_Ext_CP_Clk.c **** *   - CYCLK_EARLY Enable early phase mode. Rising edge of output clock will
 352:Generated_Source\PSoC5/ADC_DelSig_1_Ext_CP_Clk.c **** *                 occur when the divider count reaches half of the divide
 353:Generated_Source\PSoC5/ADC_DelSig_1_Ext_CP_Clk.c **** *                 value.
 354:Generated_Source\PSoC5/ADC_DelSig_1_Ext_CP_Clk.c **** *   - CYCLK_DUTY  Enable 50% duty cycle output. When enabled, the output clock
 355:Generated_Source\PSoC5/ADC_DelSig_1_Ext_CP_Clk.c **** *                 is asserted for approximately half of its period. When
 356:Generated_Source\PSoC5/ADC_DelSig_1_Ext_CP_Clk.c **** *                 disabled, the output clock is asserted for one period of the
 357:Generated_Source\PSoC5/ADC_DelSig_1_Ext_CP_Clk.c **** *                 source clock.
 358:Generated_Source\PSoC5/ADC_DelSig_1_Ext_CP_Clk.c **** *   - CYCLK_SYNC  Enable output synchronization to master clock. This should
 359:Generated_Source\PSoC5/ADC_DelSig_1_Ext_CP_Clk.c **** *                 be enabled for all synchronous clocks.
 360:Generated_Source\PSoC5/ADC_DelSig_1_Ext_CP_Clk.c **** *   See the Technical Reference Manual for details about setting the mode of
 361:Generated_Source\PSoC5/ADC_DelSig_1_Ext_CP_Clk.c **** *   the clock. Specifically, see the CLKDIST.DCFG.CFG2 register.
 362:Generated_Source\PSoC5/ADC_DelSig_1_Ext_CP_Clk.c **** *
 363:Generated_Source\PSoC5/ADC_DelSig_1_Ext_CP_Clk.c **** * Returns:
 364:Generated_Source\PSoC5/ADC_DelSig_1_Ext_CP_Clk.c **** *  None
 365:Generated_Source\PSoC5/ADC_DelSig_1_Ext_CP_Clk.c **** *
 366:Generated_Source\PSoC5/ADC_DelSig_1_Ext_CP_Clk.c **** *******************************************************************************/
 367:Generated_Source\PSoC5/ADC_DelSig_1_Ext_CP_Clk.c **** void ADC_DelSig_1_Ext_CP_Clk_ClearModeRegister(uint8 modeBitMask) 
 368:Generated_Source\PSoC5/ADC_DelSig_1_Ext_CP_Clk.c **** {
 811              		.loc 1 368 0
 812              		.cfi_startproc
 813              		@ args = 0, pretend = 0, frame = 0
 814              		@ frame_needed = 0, uses_anonymous_args = 0
 815              		@ link register save eliminated.
 816              	.LVL5:
 369:Generated_Source\PSoC5/ADC_DelSig_1_Ext_CP_Clk.c ****     ADC_DelSig_1_Ext_CP_Clk_MOD_SRC &= (uint8)(~modeBitMask) | (uint8)(~(uint8)(ADC_DelSig_1_Ext_CP
 817              		.loc 1 369 0
 818 0000 044B     		ldr	r3, .L24
 819 0002 1A78     		ldrb	r2, [r3]	@ zero_extendqisi2
 820 0004 C043     		mvns	r0, r0
 821              	.LVL6:
 822 0006 C0B2     		uxtb	r0, r0
 823 0008 40F00700 		orr	r0, r0, #7
 824 000c 1040     		ands	r0, r0, r2
 825 000e 1870     		strb	r0, [r3]
 826 0010 7047     		bx	lr
 827              	.L25:
 828 0012 00BF     		.align	2
 829              	.L24:
 830 0014 86400040 		.word	1073758342
 831              		.cfi_endproc
 832              	.LFE7:
 833              		.size	ADC_DelSig_1_Ext_CP_Clk_ClearModeRegister, .-ADC_DelSig_1_Ext_CP_Clk_ClearModeRegister
 834              		.section	.text.ADC_DelSig_1_Ext_CP_Clk_GetModeRegister,"ax",%progbits
 835              		.align	2
 836              		.global	ADC_DelSig_1_Ext_CP_Clk_GetModeRegister
 837              		.thumb
 838              		.thumb_func
 839              		.type	ADC_DelSig_1_Ext_CP_Clk_GetModeRegister, %function
ARM GAS  C:\Users\Luggi\AppData\Local\Temp\ccWDHWXF.s 			page 55


 840              	ADC_DelSig_1_Ext_CP_Clk_GetModeRegister:
 841              	.LFB8:
 370:Generated_Source\PSoC5/ADC_DelSig_1_Ext_CP_Clk.c **** }
 371:Generated_Source\PSoC5/ADC_DelSig_1_Ext_CP_Clk.c **** 
 372:Generated_Source\PSoC5/ADC_DelSig_1_Ext_CP_Clk.c **** 
 373:Generated_Source\PSoC5/ADC_DelSig_1_Ext_CP_Clk.c **** /*******************************************************************************
 374:Generated_Source\PSoC5/ADC_DelSig_1_Ext_CP_Clk.c **** * Function Name: ADC_DelSig_1_Ext_CP_Clk_GetModeRegister
 375:Generated_Source\PSoC5/ADC_DelSig_1_Ext_CP_Clk.c **** ********************************************************************************
 376:Generated_Source\PSoC5/ADC_DelSig_1_Ext_CP_Clk.c **** *
 377:Generated_Source\PSoC5/ADC_DelSig_1_Ext_CP_Clk.c **** * Summary:
 378:Generated_Source\PSoC5/ADC_DelSig_1_Ext_CP_Clk.c **** *  Gets the clock mode register value.
 379:Generated_Source\PSoC5/ADC_DelSig_1_Ext_CP_Clk.c **** *
 380:Generated_Source\PSoC5/ADC_DelSig_1_Ext_CP_Clk.c **** * Parameters:
 381:Generated_Source\PSoC5/ADC_DelSig_1_Ext_CP_Clk.c **** *  None
 382:Generated_Source\PSoC5/ADC_DelSig_1_Ext_CP_Clk.c **** *
 383:Generated_Source\PSoC5/ADC_DelSig_1_Ext_CP_Clk.c **** * Returns:
 384:Generated_Source\PSoC5/ADC_DelSig_1_Ext_CP_Clk.c **** *  Bit mask representing the enabled mode bits. See the SetModeRegister and
 385:Generated_Source\PSoC5/ADC_DelSig_1_Ext_CP_Clk.c **** *  ClearModeRegister descriptions for details about the mode bits.
 386:Generated_Source\PSoC5/ADC_DelSig_1_Ext_CP_Clk.c **** *
 387:Generated_Source\PSoC5/ADC_DelSig_1_Ext_CP_Clk.c **** *******************************************************************************/
 388:Generated_Source\PSoC5/ADC_DelSig_1_Ext_CP_Clk.c **** uint8 ADC_DelSig_1_Ext_CP_Clk_GetModeRegister(void) 
 389:Generated_Source\PSoC5/ADC_DelSig_1_Ext_CP_Clk.c **** {
 842              		.loc 1 389 0
 843              		.cfi_startproc
 844              		@ args = 0, pretend = 0, frame = 0
 845              		@ frame_needed = 0, uses_anonymous_args = 0
 846              		@ link register save eliminated.
 390:Generated_Source\PSoC5/ADC_DelSig_1_Ext_CP_Clk.c ****     return ADC_DelSig_1_Ext_CP_Clk_MOD_SRC & (uint8)(ADC_DelSig_1_Ext_CP_Clk_MODE_MASK);
 847              		.loc 1 390 0
 848 0000 024B     		ldr	r3, .L27
 849 0002 1878     		ldrb	r0, [r3]	@ zero_extendqisi2
 391:Generated_Source\PSoC5/ADC_DelSig_1_Ext_CP_Clk.c **** }
 850              		.loc 1 391 0
 851 0004 00F0F800 		and	r0, r0, #248
 852 0008 7047     		bx	lr
 853              	.L28:
 854 000a 00BF     		.align	2
 855              	.L27:
 856 000c 86400040 		.word	1073758342
 857              		.cfi_endproc
 858              	.LFE8:
 859              		.size	ADC_DelSig_1_Ext_CP_Clk_GetModeRegister, .-ADC_DelSig_1_Ext_CP_Clk_GetModeRegister
 860              		.section	.text.ADC_DelSig_1_Ext_CP_Clk_GetSourceRegister,"ax",%progbits
 861              		.align	2
 862              		.global	ADC_DelSig_1_Ext_CP_Clk_GetSourceRegister
 863              		.thumb
 864              		.thumb_func
 865              		.type	ADC_DelSig_1_Ext_CP_Clk_GetSourceRegister, %function
 866              	ADC_DelSig_1_Ext_CP_Clk_GetSourceRegister:
 867              	.LFB10:
 392:Generated_Source\PSoC5/ADC_DelSig_1_Ext_CP_Clk.c **** 
 393:Generated_Source\PSoC5/ADC_DelSig_1_Ext_CP_Clk.c **** 
 394:Generated_Source\PSoC5/ADC_DelSig_1_Ext_CP_Clk.c **** /*******************************************************************************
 395:Generated_Source\PSoC5/ADC_DelSig_1_Ext_CP_Clk.c **** * Function Name: ADC_DelSig_1_Ext_CP_Clk_SetSourceRegister
 396:Generated_Source\PSoC5/ADC_DelSig_1_Ext_CP_Clk.c **** ********************************************************************************
 397:Generated_Source\PSoC5/ADC_DelSig_1_Ext_CP_Clk.c **** *
 398:Generated_Source\PSoC5/ADC_DelSig_1_Ext_CP_Clk.c **** * Summary:
ARM GAS  C:\Users\Luggi\AppData\Local\Temp\ccWDHWXF.s 			page 56


 399:Generated_Source\PSoC5/ADC_DelSig_1_Ext_CP_Clk.c **** *  Sets the input source of the clock. The clock must be disabled before
 400:Generated_Source\PSoC5/ADC_DelSig_1_Ext_CP_Clk.c **** *  changing the source. The old and new clock sources must be running.
 401:Generated_Source\PSoC5/ADC_DelSig_1_Ext_CP_Clk.c **** *
 402:Generated_Source\PSoC5/ADC_DelSig_1_Ext_CP_Clk.c **** * Parameters:
 403:Generated_Source\PSoC5/ADC_DelSig_1_Ext_CP_Clk.c **** *  clkSource:  For PSoC 3 and PSoC 5 devices, clkSource should be one of the
 404:Generated_Source\PSoC5/ADC_DelSig_1_Ext_CP_Clk.c **** *   following input sources:
 405:Generated_Source\PSoC5/ADC_DelSig_1_Ext_CP_Clk.c **** *   - CYCLK_SRC_SEL_SYNC_DIG
 406:Generated_Source\PSoC5/ADC_DelSig_1_Ext_CP_Clk.c **** *   - CYCLK_SRC_SEL_IMO
 407:Generated_Source\PSoC5/ADC_DelSig_1_Ext_CP_Clk.c **** *   - CYCLK_SRC_SEL_XTALM
 408:Generated_Source\PSoC5/ADC_DelSig_1_Ext_CP_Clk.c **** *   - CYCLK_SRC_SEL_ILO
 409:Generated_Source\PSoC5/ADC_DelSig_1_Ext_CP_Clk.c **** *   - CYCLK_SRC_SEL_PLL
 410:Generated_Source\PSoC5/ADC_DelSig_1_Ext_CP_Clk.c **** *   - CYCLK_SRC_SEL_XTALK
 411:Generated_Source\PSoC5/ADC_DelSig_1_Ext_CP_Clk.c **** *   - CYCLK_SRC_SEL_DSI_G
 412:Generated_Source\PSoC5/ADC_DelSig_1_Ext_CP_Clk.c **** *   - CYCLK_SRC_SEL_DSI_D/CYCLK_SRC_SEL_DSI_A
 413:Generated_Source\PSoC5/ADC_DelSig_1_Ext_CP_Clk.c **** *   See the Technical Reference Manual for details on clock sources.
 414:Generated_Source\PSoC5/ADC_DelSig_1_Ext_CP_Clk.c **** *
 415:Generated_Source\PSoC5/ADC_DelSig_1_Ext_CP_Clk.c **** * Returns:
 416:Generated_Source\PSoC5/ADC_DelSig_1_Ext_CP_Clk.c **** *  None
 417:Generated_Source\PSoC5/ADC_DelSig_1_Ext_CP_Clk.c **** *
 418:Generated_Source\PSoC5/ADC_DelSig_1_Ext_CP_Clk.c **** *******************************************************************************/
 419:Generated_Source\PSoC5/ADC_DelSig_1_Ext_CP_Clk.c **** void ADC_DelSig_1_Ext_CP_Clk_SetSourceRegister(uint8 clkSource) 
 420:Generated_Source\PSoC5/ADC_DelSig_1_Ext_CP_Clk.c **** {
 421:Generated_Source\PSoC5/ADC_DelSig_1_Ext_CP_Clk.c ****     uint16 currDiv = ADC_DelSig_1_Ext_CP_Clk_GetDividerRegister();
 422:Generated_Source\PSoC5/ADC_DelSig_1_Ext_CP_Clk.c ****     uint8 oldSrc = ADC_DelSig_1_Ext_CP_Clk_GetSourceRegister();
 423:Generated_Source\PSoC5/ADC_DelSig_1_Ext_CP_Clk.c **** 
 424:Generated_Source\PSoC5/ADC_DelSig_1_Ext_CP_Clk.c ****     if (((oldSrc != ((uint8)CYCLK_SRC_SEL_CLK_SYNC_D)) && 
 425:Generated_Source\PSoC5/ADC_DelSig_1_Ext_CP_Clk.c ****         (clkSource == ((uint8)CYCLK_SRC_SEL_CLK_SYNC_D))) && (currDiv == 0u))
 426:Generated_Source\PSoC5/ADC_DelSig_1_Ext_CP_Clk.c ****     {
 427:Generated_Source\PSoC5/ADC_DelSig_1_Ext_CP_Clk.c ****         /* Switching to Master and divider is 1, set SSS, which will output master, */
 428:Generated_Source\PSoC5/ADC_DelSig_1_Ext_CP_Clk.c ****         /* then set the source so we are consistent.                                */
 429:Generated_Source\PSoC5/ADC_DelSig_1_Ext_CP_Clk.c ****         ADC_DelSig_1_Ext_CP_Clk_MOD_SRC |= CYCLK_SSS;
 430:Generated_Source\PSoC5/ADC_DelSig_1_Ext_CP_Clk.c ****         ADC_DelSig_1_Ext_CP_Clk_MOD_SRC =
 431:Generated_Source\PSoC5/ADC_DelSig_1_Ext_CP_Clk.c ****             (ADC_DelSig_1_Ext_CP_Clk_MOD_SRC & (uint8)(~ADC_DelSig_1_Ext_CP_Clk_SRC_SEL_MSK)) | clk
 432:Generated_Source\PSoC5/ADC_DelSig_1_Ext_CP_Clk.c ****     }
 433:Generated_Source\PSoC5/ADC_DelSig_1_Ext_CP_Clk.c ****     else if (((oldSrc == ((uint8)CYCLK_SRC_SEL_CLK_SYNC_D)) && 
 434:Generated_Source\PSoC5/ADC_DelSig_1_Ext_CP_Clk.c ****             (clkSource != ((uint8)CYCLK_SRC_SEL_CLK_SYNC_D))) && (currDiv == 0u))
 435:Generated_Source\PSoC5/ADC_DelSig_1_Ext_CP_Clk.c ****     {
 436:Generated_Source\PSoC5/ADC_DelSig_1_Ext_CP_Clk.c ****         /* Switching from Master to not and divider is 1, set source, so we don't   */
 437:Generated_Source\PSoC5/ADC_DelSig_1_Ext_CP_Clk.c ****         /* lock when we clear SSS.                                                  */
 438:Generated_Source\PSoC5/ADC_DelSig_1_Ext_CP_Clk.c ****         ADC_DelSig_1_Ext_CP_Clk_MOD_SRC =
 439:Generated_Source\PSoC5/ADC_DelSig_1_Ext_CP_Clk.c ****             (ADC_DelSig_1_Ext_CP_Clk_MOD_SRC & (uint8)(~ADC_DelSig_1_Ext_CP_Clk_SRC_SEL_MSK)) | clk
 440:Generated_Source\PSoC5/ADC_DelSig_1_Ext_CP_Clk.c ****         ADC_DelSig_1_Ext_CP_Clk_MOD_SRC &= (uint8)(~CYCLK_SSS);
 441:Generated_Source\PSoC5/ADC_DelSig_1_Ext_CP_Clk.c ****     }
 442:Generated_Source\PSoC5/ADC_DelSig_1_Ext_CP_Clk.c ****     else
 443:Generated_Source\PSoC5/ADC_DelSig_1_Ext_CP_Clk.c ****     {
 444:Generated_Source\PSoC5/ADC_DelSig_1_Ext_CP_Clk.c ****         ADC_DelSig_1_Ext_CP_Clk_MOD_SRC =
 445:Generated_Source\PSoC5/ADC_DelSig_1_Ext_CP_Clk.c ****             (ADC_DelSig_1_Ext_CP_Clk_MOD_SRC & (uint8)(~ADC_DelSig_1_Ext_CP_Clk_SRC_SEL_MSK)) | clk
 446:Generated_Source\PSoC5/ADC_DelSig_1_Ext_CP_Clk.c ****     }
 447:Generated_Source\PSoC5/ADC_DelSig_1_Ext_CP_Clk.c **** }
 448:Generated_Source\PSoC5/ADC_DelSig_1_Ext_CP_Clk.c **** 
 449:Generated_Source\PSoC5/ADC_DelSig_1_Ext_CP_Clk.c **** 
 450:Generated_Source\PSoC5/ADC_DelSig_1_Ext_CP_Clk.c **** /*******************************************************************************
 451:Generated_Source\PSoC5/ADC_DelSig_1_Ext_CP_Clk.c **** * Function Name: ADC_DelSig_1_Ext_CP_Clk_GetSourceRegister
 452:Generated_Source\PSoC5/ADC_DelSig_1_Ext_CP_Clk.c **** ********************************************************************************
 453:Generated_Source\PSoC5/ADC_DelSig_1_Ext_CP_Clk.c **** *
 454:Generated_Source\PSoC5/ADC_DelSig_1_Ext_CP_Clk.c **** * Summary:
 455:Generated_Source\PSoC5/ADC_DelSig_1_Ext_CP_Clk.c **** *  Gets the input source of the clock.
ARM GAS  C:\Users\Luggi\AppData\Local\Temp\ccWDHWXF.s 			page 57


 456:Generated_Source\PSoC5/ADC_DelSig_1_Ext_CP_Clk.c **** *
 457:Generated_Source\PSoC5/ADC_DelSig_1_Ext_CP_Clk.c **** * Parameters:
 458:Generated_Source\PSoC5/ADC_DelSig_1_Ext_CP_Clk.c **** *  None
 459:Generated_Source\PSoC5/ADC_DelSig_1_Ext_CP_Clk.c **** *
 460:Generated_Source\PSoC5/ADC_DelSig_1_Ext_CP_Clk.c **** * Returns:
 461:Generated_Source\PSoC5/ADC_DelSig_1_Ext_CP_Clk.c **** *  The input source of the clock. See SetSourceRegister for details.
 462:Generated_Source\PSoC5/ADC_DelSig_1_Ext_CP_Clk.c **** *
 463:Generated_Source\PSoC5/ADC_DelSig_1_Ext_CP_Clk.c **** *******************************************************************************/
 464:Generated_Source\PSoC5/ADC_DelSig_1_Ext_CP_Clk.c **** uint8 ADC_DelSig_1_Ext_CP_Clk_GetSourceRegister(void) 
 465:Generated_Source\PSoC5/ADC_DelSig_1_Ext_CP_Clk.c **** {
 868              		.loc 1 465 0
 869              		.cfi_startproc
 870              		@ args = 0, pretend = 0, frame = 0
 871              		@ frame_needed = 0, uses_anonymous_args = 0
 872              		@ link register save eliminated.
 466:Generated_Source\PSoC5/ADC_DelSig_1_Ext_CP_Clk.c ****     return ADC_DelSig_1_Ext_CP_Clk_MOD_SRC & ADC_DelSig_1_Ext_CP_Clk_SRC_SEL_MSK;
 873              		.loc 1 466 0
 874 0000 024B     		ldr	r3, .L30
 875 0002 1878     		ldrb	r0, [r3]	@ zero_extendqisi2
 467:Generated_Source\PSoC5/ADC_DelSig_1_Ext_CP_Clk.c **** }
 876              		.loc 1 467 0
 877 0004 00F00700 		and	r0, r0, #7
 878 0008 7047     		bx	lr
 879              	.L31:
 880 000a 00BF     		.align	2
 881              	.L30:
 882 000c 86400040 		.word	1073758342
 883              		.cfi_endproc
 884              	.LFE10:
 885              		.size	ADC_DelSig_1_Ext_CP_Clk_GetSourceRegister, .-ADC_DelSig_1_Ext_CP_Clk_GetSourceRegister
 886              		.section	.text.ADC_DelSig_1_Ext_CP_Clk_SetDividerRegister,"ax",%progbits
 887              		.align	2
 888              		.global	ADC_DelSig_1_Ext_CP_Clk_SetDividerRegister
 889              		.thumb
 890              		.thumb_func
 891              		.type	ADC_DelSig_1_Ext_CP_Clk_SetDividerRegister, %function
 892              	ADC_DelSig_1_Ext_CP_Clk_SetDividerRegister:
 893              	.LFB4:
 195:Generated_Source\PSoC5/ADC_DelSig_1_Ext_CP_Clk.c ****     uint8 enabled;
 894              		.loc 1 195 0
 895              		.cfi_startproc
 896              		@ args = 0, pretend = 0, frame = 0
 897              		@ frame_needed = 0, uses_anonymous_args = 0
 898              	.LVL7:
 899 0000 70B5     		push	{r4, r5, r6, lr}
 900              		.cfi_def_cfa_offset 16
 901              		.cfi_offset 4, -16
 902              		.cfi_offset 5, -12
 903              		.cfi_offset 6, -8
 904              		.cfi_offset 14, -4
 905 0002 0446     		mov	r4, r0
 906 0004 0D46     		mov	r5, r1
 198:Generated_Source\PSoC5/ADC_DelSig_1_Ext_CP_Clk.c ****     uint16 oldDivider = ADC_DelSig_1_Ext_CP_Clk_GetDividerRegister();
 907              		.loc 1 198 0
 908 0006 FFF7FEFF 		bl	ADC_DelSig_1_Ext_CP_Clk_GetSourceRegister
 909              	.LVL8:
 910 000a 0646     		mov	r6, r0
ARM GAS  C:\Users\Luggi\AppData\Local\Temp\ccWDHWXF.s 			page 58


 911              	.LVL9:
 199:Generated_Source\PSoC5/ADC_DelSig_1_Ext_CP_Clk.c **** 
 912              		.loc 1 199 0
 913 000c FFF7FEFF 		bl	ADC_DelSig_1_Ext_CP_Clk_GetDividerRegister
 914              	.LVL10:
 201:Generated_Source\PSoC5/ADC_DelSig_1_Ext_CP_Clk.c ****     {
 915              		.loc 1 201 0
 916 0010 8442     		cmp	r4, r0
 917 0012 57D0     		beq	.L32
 203:Generated_Source\PSoC5/ADC_DelSig_1_Ext_CP_Clk.c **** 
 918              		.loc 1 203 0
 919 0014 2C4B     		ldr	r3, .L45
 920 0016 1B78     		ldrb	r3, [r3]	@ zero_extendqisi2
 921 0018 03F00203 		and	r3, r3, #2
 922 001c DAB2     		uxtb	r2, r3
 923              	.LVL11:
 205:Generated_Source\PSoC5/ADC_DelSig_1_Ext_CP_Clk.c ****         {
 924              		.loc 1 205 0
 925 001e 96B9     		cbnz	r6, .L34
 205:Generated_Source\PSoC5/ADC_DelSig_1_Ext_CP_Clk.c ****         {
 926              		.loc 1 205 0 is_stmt 0 discriminator 1
 927 0020 00B1     		cbz	r0, .L35
 205:Generated_Source\PSoC5/ADC_DelSig_1_Ext_CP_Clk.c ****         {
 928              		.loc 1 205 0 discriminator 2
 929 0022 84B9     		cbnz	r4, .L34
 930              	.L35:
 208:Generated_Source\PSoC5/ADC_DelSig_1_Ext_CP_Clk.c ****             {
 931              		.loc 1 208 0 is_stmt 1
 932 0024 38B9     		cbnz	r0, .L36
 213:Generated_Source\PSoC5/ADC_DelSig_1_Ext_CP_Clk.c ****                 ADC_DelSig_1_Ext_CP_Clk_MOD_SRC &= (uint8)(~CYCLK_SSS);
 933              		.loc 1 213 0
 934 0026 294B     		ldr	r3, .L45+4
 935 0028 1C80     		strh	r4, [r3]	@ movhi
 214:Generated_Source\PSoC5/ADC_DelSig_1_Ext_CP_Clk.c ****             }
 936              		.loc 1 214 0
 937 002a 294A     		ldr	r2, .L45+8
 938              	.LVL12:
 939 002c 1378     		ldrb	r3, [r2]	@ zero_extendqisi2
 940 002e 03F0BF03 		and	r3, r3, #191
 941 0032 1370     		strb	r3, [r2]
 942 0034 70BD     		pop	{r4, r5, r6, pc}
 943              	.LVL13:
 944              	.L36:
 220:Generated_Source\PSoC5/ADC_DelSig_1_Ext_CP_Clk.c ****                 CY_SET_REG16(ADC_DelSig_1_Ext_CP_Clk_DIV_PTR, clkDivider);
 945              		.loc 1 220 0
 946 0036 264A     		ldr	r2, .L45+8
 947              	.LVL14:
 948 0038 1378     		ldrb	r3, [r2]	@ zero_extendqisi2
 949              	.LVL15:
 950 003a 43F04003 		orr	r3, r3, #64
 951 003e 1370     		strb	r3, [r2]
 221:Generated_Source\PSoC5/ADC_DelSig_1_Ext_CP_Clk.c ****             }
 952              		.loc 1 221 0
 953 0040 224B     		ldr	r3, .L45+4
 954 0042 1C80     		strh	r4, [r3]	@ movhi
 955 0044 70BD     		pop	{r4, r5, r6, pc}
 956              	.LVL16:
ARM GAS  C:\Users\Luggi\AppData\Local\Temp\ccWDHWXF.s 			page 59


 957              	.L34:
 227:Generated_Source\PSoC5/ADC_DelSig_1_Ext_CP_Clk.c ****             {
 958              		.loc 1 227 0
 959 0046 22B3     		cbz	r2, .L37
 229:Generated_Source\PSoC5/ADC_DelSig_1_Ext_CP_Clk.c **** 
 960              		.loc 1 229 0
 961 0048 0023     		movs	r3, #0
 962 004a 2249     		ldr	r1, .L45+12
 963 004c 0B70     		strb	r3, [r1]
 236:Generated_Source\PSoC5/ADC_DelSig_1_Ext_CP_Clk.c ****                 CLK_DIST_AMASK = 0x00u;
 964              		.loc 1 236 0
 965 004e 0226     		movs	r6, #2
 966              	.LVL17:
 967 0050 0F31     		adds	r1, r1, #15
 968 0052 0E70     		strb	r6, [r1]
 237:Generated_Source\PSoC5/ADC_DelSig_1_Ext_CP_Clk.c **** #endif /* ADC_DelSig_1_Ext_CP_Clk__CFG3 */
 969              		.loc 1 237 0
 970 0054 0431     		adds	r1, r1, #4
 971 0056 0B70     		strb	r3, [r1]
 240:Generated_Source\PSoC5/ADC_DelSig_1_Ext_CP_Clk.c **** 
 972              		.loc 1 240 0
 973 0058 0C39     		subs	r1, r1, #12
 974 005a 0B78     		ldrb	r3, [r1]	@ zero_extendqisi2
 975 005c 03F07F03 		and	r3, r3, #127
 976 0060 0B70     		strb	r3, [r1]
 243:Generated_Source\PSoC5/ADC_DelSig_1_Ext_CP_Clk.c ****                 {
 977              		.loc 1 243 0
 978 0062 1B4B     		ldr	r3, .L45+8
 979 0064 1B78     		ldrb	r3, [r3]	@ zero_extendqisi2
 980 0066 13F0080F 		tst	r3, #8
 981 006a 00D0     		beq	.L38
 243:Generated_Source\PSoC5/ADC_DelSig_1_Ext_CP_Clk.c ****                 {
 982              		.loc 1 243 0 is_stmt 0 discriminator 1
 983 006c 8CB9     		cbnz	r4, .L37
 984              	.L38:
 246:Generated_Source\PSoC5/ADC_DelSig_1_Ext_CP_Clk.c ****                     CLK_DIST_LD = CYCLK_LD_DISABLE|CYCLK_LD_SYNC_EN|CYCLK_LD_LOAD;
 985              		.loc 1 246 0 is_stmt 1
 986 006e 1A4B     		ldr	r3, .L45+16
 987 0070 1880     		strh	r0, [r3]	@ movhi
 247:Generated_Source\PSoC5/ADC_DelSig_1_Ext_CP_Clk.c **** 
 988              		.loc 1 247 0
 989 0072 0721     		movs	r1, #7
 990 0074 013B     		subs	r3, r3, #1
 991 0076 1970     		strb	r1, [r3]
 992              	.L39:
 250:Generated_Source\PSoC5/ADC_DelSig_1_Ext_CP_Clk.c **** #endif /* HAS_CLKDIST_LD_DISABLE */
 993              		.loc 1 250 0 discriminator 1
 994 0078 164B     		ldr	r3, .L45+12
 995 007a 1B78     		ldrb	r3, [r3]	@ zero_extendqisi2
 996 007c 13F0010F 		tst	r3, #1
 997 0080 FAD1     		bne	.L39
 253:Generated_Source\PSoC5/ADC_DelSig_1_Ext_CP_Clk.c **** 
 998              		.loc 1 253 0
 999 0082 1149     		ldr	r1, .L45
 1000 0084 0B78     		ldrb	r3, [r1]	@ zero_extendqisi2
 1001 0086 03F0FD03 		and	r3, r3, #253
 1002 008a 0B70     		strb	r3, [r1]
ARM GAS  C:\Users\Luggi\AppData\Local\Temp\ccWDHWXF.s 			page 60


 257:Generated_Source\PSoC5/ADC_DelSig_1_Ext_CP_Clk.c **** #endif /* HAS_CLKDIST_LD_DISABLE */
 1003              		.loc 1 257 0
 1004 008c 0021     		movs	r1, #0
 1005 008e 114B     		ldr	r3, .L45+12
 1006 0090 1970     		strb	r1, [r3]
 1007              	.L37:
 263:Generated_Source\PSoC5/ADC_DelSig_1_Ext_CP_Clk.c ****             {
 1008              		.loc 1 263 0
 1009 0092 0D4B     		ldr	r3, .L45
 1010 0094 1B78     		ldrb	r3, [r3]	@ zero_extendqisi2
 1011 0096 13F0020F 		tst	r3, #2
 1012 009a 0DD0     		beq	.L40
 266:Generated_Source\PSoC5/ADC_DelSig_1_Ext_CP_Clk.c **** 
 1013              		.loc 1 266 0
 1014 009c 0E4B     		ldr	r3, .L45+16
 1015 009e 1C80     		strh	r4, [r3]	@ movhi
 268:Generated_Source\PSoC5/ADC_DelSig_1_Ext_CP_Clk.c ****                 while ((CLK_DIST_LD & CYCLK_LD_LOAD) != 0u) { }
 1016              		.loc 1 268 0
 1017 00a0 0DB1     		cbz	r5, .L43
 1018 00a2 0322     		movs	r2, #3
 1019              	.LVL18:
 1020 00a4 00E0     		b	.L41
 1021              	.LVL19:
 1022              	.L43:
 1023 00a6 0122     		movs	r2, #1
 1024              	.LVL20:
 1025              	.L41:
 268:Generated_Source\PSoC5/ADC_DelSig_1_Ext_CP_Clk.c ****                 while ((CLK_DIST_LD & CYCLK_LD_LOAD) != 0u) { }
 1026              		.loc 1 268 0 is_stmt 0 discriminator 4
 1027 00a8 0A4B     		ldr	r3, .L45+12
 1028 00aa 1A70     		strb	r2, [r3]
 1029              	.L42:
 269:Generated_Source\PSoC5/ADC_DelSig_1_Ext_CP_Clk.c ****             }
 1030              		.loc 1 269 0 is_stmt 1 discriminator 1
 1031 00ac 094B     		ldr	r3, .L45+12
 1032 00ae 1B78     		ldrb	r3, [r3]	@ zero_extendqisi2
 1033 00b0 13F0010F 		tst	r3, #1
 1034 00b4 FAD1     		bne	.L42
 1035 00b6 70BD     		pop	{r4, r5, r6, pc}
 1036              	.LVL21:
 1037              	.L40:
 274:Generated_Source\PSoC5/ADC_DelSig_1_Ext_CP_Clk.c **** 				ADC_DelSig_1_Ext_CP_Clk_CLKEN |= enabled;
 1038              		.loc 1 274 0
 1039 00b8 044B     		ldr	r3, .L45+4
 1040 00ba 1C80     		strh	r4, [r3]	@ movhi
 275:Generated_Source\PSoC5/ADC_DelSig_1_Ext_CP_Clk.c ****             }
 1041              		.loc 1 275 0
 1042 00bc 0249     		ldr	r1, .L45
 1043 00be 0B78     		ldrb	r3, [r1]	@ zero_extendqisi2
 1044 00c0 1343     		orrs	r3, r3, r2
 1045 00c2 0B70     		strb	r3, [r1]
 1046              	.LVL22:
 1047              	.L32:
 1048 00c4 70BD     		pop	{r4, r5, r6, pc}
 1049              	.L46:
 1050 00c6 00BF     		.align	2
 1051              	.L45:
ARM GAS  C:\Users\Luggi\AppData\Local\Temp\ccWDHWXF.s 			page 61


 1052 00c8 A2430040 		.word	1073759138
 1053 00cc 84400040 		.word	1073758340
 1054 00d0 86400040 		.word	1073758342
 1055 00d4 01400040 		.word	1073758209
 1056 00d8 02400040 		.word	1073758210
 1057              		.cfi_endproc
 1058              	.LFE4:
 1059              		.size	ADC_DelSig_1_Ext_CP_Clk_SetDividerRegister, .-ADC_DelSig_1_Ext_CP_Clk_SetDividerRegister
 1060              		.section	.text.ADC_DelSig_1_Ext_CP_Clk_SetSourceRegister,"ax",%progbits
 1061              		.align	2
 1062              		.global	ADC_DelSig_1_Ext_CP_Clk_SetSourceRegister
 1063              		.thumb
 1064              		.thumb_func
 1065              		.type	ADC_DelSig_1_Ext_CP_Clk_SetSourceRegister, %function
 1066              	ADC_DelSig_1_Ext_CP_Clk_SetSourceRegister:
 1067              	.LFB9:
 420:Generated_Source\PSoC5/ADC_DelSig_1_Ext_CP_Clk.c ****     uint16 currDiv = ADC_DelSig_1_Ext_CP_Clk_GetDividerRegister();
 1068              		.loc 1 420 0
 1069              		.cfi_startproc
 1070              		@ args = 0, pretend = 0, frame = 0
 1071              		@ frame_needed = 0, uses_anonymous_args = 0
 1072              	.LVL23:
 1073 0000 38B5     		push	{r3, r4, r5, lr}
 1074              		.cfi_def_cfa_offset 16
 1075              		.cfi_offset 3, -16
 1076              		.cfi_offset 4, -12
 1077              		.cfi_offset 5, -8
 1078              		.cfi_offset 14, -4
 1079 0002 0446     		mov	r4, r0
 421:Generated_Source\PSoC5/ADC_DelSig_1_Ext_CP_Clk.c ****     uint8 oldSrc = ADC_DelSig_1_Ext_CP_Clk_GetSourceRegister();
 1080              		.loc 1 421 0
 1081 0004 FFF7FEFF 		bl	ADC_DelSig_1_Ext_CP_Clk_GetDividerRegister
 1082              	.LVL24:
 1083 0008 0546     		mov	r5, r0
 1084              	.LVL25:
 422:Generated_Source\PSoC5/ADC_DelSig_1_Ext_CP_Clk.c **** 
 1085              		.loc 1 422 0
 1086 000a FFF7FEFF 		bl	ADC_DelSig_1_Ext_CP_Clk_GetSourceRegister
 1087              	.LVL26:
 424:Generated_Source\PSoC5/ADC_DelSig_1_Ext_CP_Clk.c ****         (clkSource == ((uint8)CYCLK_SRC_SEL_CLK_SYNC_D))) && (currDiv == 0u))
 1088              		.loc 1 424 0
 1089 000e 0346     		mov	r3, r0
 1090 0010 60B1     		cbz	r0, .L48
 424:Generated_Source\PSoC5/ADC_DelSig_1_Ext_CP_Clk.c ****         (clkSource == ((uint8)CYCLK_SRC_SEL_CLK_SYNC_D))) && (currDiv == 0u))
 1091              		.loc 1 424 0 is_stmt 0 discriminator 1
 1092 0012 5CB9     		cbnz	r4, .L48
 425:Generated_Source\PSoC5/ADC_DelSig_1_Ext_CP_Clk.c ****     {
 1093              		.loc 1 425 0 is_stmt 1
 1094 0014 55B9     		cbnz	r5, .L48
 429:Generated_Source\PSoC5/ADC_DelSig_1_Ext_CP_Clk.c ****         ADC_DelSig_1_Ext_CP_Clk_MOD_SRC =
 1095              		.loc 1 429 0
 1096 0016 104A     		ldr	r2, .L52
 1097 0018 1378     		ldrb	r3, [r2]	@ zero_extendqisi2
 1098 001a 43F04003 		orr	r3, r3, #64
 1099 001e 1370     		strb	r3, [r2]
 431:Generated_Source\PSoC5/ADC_DelSig_1_Ext_CP_Clk.c ****     }
 1100              		.loc 1 431 0
ARM GAS  C:\Users\Luggi\AppData\Local\Temp\ccWDHWXF.s 			page 62


 1101 0020 1378     		ldrb	r3, [r2]	@ zero_extendqisi2
 430:Generated_Source\PSoC5/ADC_DelSig_1_Ext_CP_Clk.c ****             (ADC_DelSig_1_Ext_CP_Clk_MOD_SRC & (uint8)(~ADC_DelSig_1_Ext_CP_Clk_SRC_SEL_MSK)) | clk
 1102              		.loc 1 430 0
 1103 0022 03F0F803 		and	r3, r3, #248
 1104 0026 1C43     		orrs	r4, r4, r3
 1105 0028 1470     		strb	r4, [r2]
 1106 002a 38BD     		pop	{r3, r4, r5, pc}
 1107              	.LVL27:
 1108              	.L48:
 433:Generated_Source\PSoC5/ADC_DelSig_1_Ext_CP_Clk.c ****             (clkSource != ((uint8)CYCLK_SRC_SEL_CLK_SYNC_D))) && (currDiv == 0u))
 1109              		.loc 1 433 0
 1110 002c 63B9     		cbnz	r3, .L50
 433:Generated_Source\PSoC5/ADC_DelSig_1_Ext_CP_Clk.c ****             (clkSource != ((uint8)CYCLK_SRC_SEL_CLK_SYNC_D))) && (currDiv == 0u))
 1111              		.loc 1 433 0 is_stmt 0 discriminator 1
 1112 002e 5CB1     		cbz	r4, .L50
 434:Generated_Source\PSoC5/ADC_DelSig_1_Ext_CP_Clk.c ****     {
 1113              		.loc 1 434 0 is_stmt 1
 1114 0030 55B9     		cbnz	r5, .L50
 439:Generated_Source\PSoC5/ADC_DelSig_1_Ext_CP_Clk.c ****         ADC_DelSig_1_Ext_CP_Clk_MOD_SRC &= (uint8)(~CYCLK_SSS);
 1115              		.loc 1 439 0
 1116 0032 094A     		ldr	r2, .L52
 1117 0034 1378     		ldrb	r3, [r2]	@ zero_extendqisi2
 438:Generated_Source\PSoC5/ADC_DelSig_1_Ext_CP_Clk.c ****             (ADC_DelSig_1_Ext_CP_Clk_MOD_SRC & (uint8)(~ADC_DelSig_1_Ext_CP_Clk_SRC_SEL_MSK)) | clk
 1118              		.loc 1 438 0
 1119 0036 03F0F803 		and	r3, r3, #248
 1120 003a 1C43     		orrs	r4, r4, r3
 1121 003c 1470     		strb	r4, [r2]
 440:Generated_Source\PSoC5/ADC_DelSig_1_Ext_CP_Clk.c ****     }
 1122              		.loc 1 440 0
 1123 003e 1378     		ldrb	r3, [r2]	@ zero_extendqisi2
 1124 0040 03F0BF03 		and	r3, r3, #191
 1125 0044 1370     		strb	r3, [r2]
 1126 0046 38BD     		pop	{r3, r4, r5, pc}
 1127              	.LVL28:
 1128              	.L50:
 445:Generated_Source\PSoC5/ADC_DelSig_1_Ext_CP_Clk.c ****     }
 1129              		.loc 1 445 0
 1130 0048 034A     		ldr	r2, .L52
 1131 004a 1378     		ldrb	r3, [r2]	@ zero_extendqisi2
 444:Generated_Source\PSoC5/ADC_DelSig_1_Ext_CP_Clk.c ****             (ADC_DelSig_1_Ext_CP_Clk_MOD_SRC & (uint8)(~ADC_DelSig_1_Ext_CP_Clk_SRC_SEL_MSK)) | clk
 1132              		.loc 1 444 0
 1133 004c 03F0F803 		and	r3, r3, #248
 1134 0050 1C43     		orrs	r4, r4, r3
 1135 0052 1470     		strb	r4, [r2]
 1136 0054 38BD     		pop	{r3, r4, r5, pc}
 1137              	.LVL29:
 1138              	.L53:
 1139 0056 00BF     		.align	2
 1140              	.L52:
 1141 0058 86400040 		.word	1073758342
 1142              		.cfi_endproc
 1143              	.LFE9:
 1144              		.size	ADC_DelSig_1_Ext_CP_Clk_SetSourceRegister, .-ADC_DelSig_1_Ext_CP_Clk_SetSourceRegister
 1145              		.text
 1146              	.Letext0:
 1147              		.file 2 "Generated_Source\\PSoC5/cytypes.h"