ARM GAS  C:\Users\Luggi\AppData\Local\Temp\ccrqAUL9.s 			page 1


   1              		.syntax unified
   2              		.cpu cortex-m3
   3              		.fpu softvfp
   4              		.eabi_attribute 20, 1
   5              		.eabi_attribute 21, 1
   6              		.eabi_attribute 23, 3
   7              		.eabi_attribute 24, 1
   8              		.eabi_attribute 25, 1
   9              		.eabi_attribute 26, 1
  10              		.eabi_attribute 30, 1
  11              		.eabi_attribute 34, 1
  12              		.eabi_attribute 18, 4
  13              		.thumb
  14              		.file	"ADC_SAR_1_theACLK.c"
  15              		.text
  16              	.Ltext0:
  17              		.section	.gnu.lto_.profile.304b4b6b,"",%progbits
  18 0000 789C6366 		.ascii	"x\234cf```c\200\000F\206\353\214+\030\001\005R\001\214"
  18      60606063 
  18      80004686 
  18      EB8C2B18 
  18      01055201 
  19              		.text
  20              		.section	.gnu.lto_.inline.304b4b6b,"",%progbits
  21 0000 789C6366 		.ascii	"x\234cf\300\016\272\030!47\003\003'\007#\003\023\317"
  21      C00EBA18 
  21      21343703 
  21      03270723 
  21      0313CF
  22 0013 835806B6 		.ascii	"\203X\006\266\005\362L 1FL!&\006\031m\240\220\321\234"
  22      05F24C20 
  22      31464C21 
  22      2606196D 
  22      A090D19C 
  23 0027 0E56B818 		.ascii	"\016V\270\0303\0037;#3C\306G&\306\306e\273{\330_0\375"
  23      3303373B 
  23      233343C6 
  23      4726C6C6 
  23      65BB7BD8 
  24 003e 0489332E 		.ascii	"\004\2113.g\224b`\310\204P@[X\201b`-,\013\344\005\030"
  24      67946260 
  24      C8845040 
  24      5B588162 
  24      602D2C0B 
  25 0055 D8CEC870 		.ascii	"\330\316\310p0\260-\021b\001\231\300\302\300\302\014"
  25      30B02D11 
  25      620199C0 
  25      C2C0C20C 
  26 0065 3495E902 		.ascii	"4\225\351\002?\334PV\006v6FF\220>f\266\017z\020a\240"
  26      3FDC5056 
  26      06763646 
  26      46903E66 
  26      B60F7A10 
  27 007b 3C58391B 		.ascii	"<X9\033\003\007;\272\034\320P\260\034;\003+\013\320"
  27      03073BBA 
  27      1CD050B0 
  27      1C3B032B 
ARM GAS  C:\Users\Luggi\AppData\Local\Temp\ccrqAUL9.s 			page 2


  27      0BD0
  28 008d 2820176E 		.ascii	"( \027n\024\007\246\020'\303a\006[F6T7\003\315c\\\001"
  28      1407A610 
  28      27C36106 
  28      5B463654 
  28      3703CD63 
  29 00a3 71338862 		.ascii	"q3\210b\2048\2351\003\356\003\240\235\014,9oV\260@\314"
  29      84389D31 
  29      03EE03A0 
  29      9D0C2C39 
  29      6F56B040 
  30 00b8 E198C2E5 		.ascii	"\341\230\302\345\300\300\362\202\275\001\034\204L\334"
  30      C0C0F282 
  30      BD011C84 
  30      4CDC
  31 00c6 30828B41 		.ascii	"0\202\213AU\031\024\036\030\001 \260\"\017\252\363\216"
  31      5519141E 
  31      180120B0 
  31      220FAAF3 
  31      8E
  32 00d7 AC0083D0 		.ascii	"\254\000\203\3206\240\347\205\256\010p\240\352f\000"
  32      36A0E785 
  32      AE0870A0 
  32      EA6600
  33 00e6 0066D635 		.ascii	"\000f\3265\011"
  33      09
  34              		.text
  35              		.section	.gnu.lto_.jmpfuncs.304b4b6b,"",%progbits
  36 0000 789C6D8A 		.ascii	"x\234m\212[\012\000 \014\303R\347\333\343x\300]]\007"
  36      5B0A0020 
  36      0CC352E7 
  36      DBE378C0 
  36      5D5D07
  37 0013 7E5A4803 		.ascii	"~ZH\003\245\306?\373y]\004\011L\222g(\341\032\325\240"
  37      A5C63FFB 
  37      795D0409 
  37      4C926728 
  37      E11AD5A0 
  38 0027 C34892B9 		.ascii	"\303H\222\271\303\214\355\336\017O\350\003\206"
  38      C38CEDDE 
  38      0F4FE803 
  38      86
  39              		.text
  40              		.section	.gnu.lto_.pureconst.304b4b6b,"",%progbits
  41 0000 789C6366 		.ascii	"x\234cf``\020g\200\000n\006)F)&)f)\026)V)6)v)\016)N"
  41      60601067 
  41      80006E06 
  41      29462926 
  41      29662916 
  42 001e 292E2900 		.ascii	").)\000\022T\001{"
  42      1254017B 
  43              		.text
  44              		.section	.gnu.lto_ADC_SAR_1_theACLK_Start.304b4b6b,"",%progbits
  45 0000 789C6366 		.ascii	"x\234cf\300\004R@\274\211\221\201A\027H32302M8\307\300"
  45      C0045240 
  45      BC899181 
  45      41174833 
ARM GAS  C:\Users\Luggi\AppData\Local\Temp\ccrqAUL9.s 			page 3


  45      32333032 
  46 0018 D0C8C1C4 		.ascii	"\320\310\301\304\310\010b002\32431\3263\276d\372\310"
  46      C8086230 
  46      3032D433 
  46      31D633BE 
  46      64FAC8
  47 002b C438E1C0 		.ascii	"\3048\341\300\352\031\334\352K\033\032\032>\\:\335\030"
  47      EA19DCEA 
  47      4B1B1A1A 
  47      3E5C3ADD 
  47      18
  48 003c 7080F127 		.ascii	"p\200\361'\023\003\303g&\2109\214\313\031\325\031\200"
  48      1303C367 
  48      2688398C 
  48      CB19D519 
  48      80
  49 004d 8A3EB6FC 		.ascii	"\212>\266\374\275\316\315\326\002T$\000\221c\\\301\310"
  49      BDCECDD6 
  49      02542400 
  49      91635CC1 
  49      C8
  50 005e 06349F61 		.ascii	"\0064\237a\275\320\201\206\377\3777\257?x\205\221\203"
  50      BDD08186 
  50      FFFF37AF 
  50      3F788591 
  50      83
  51 006f 89E12713 		.ascii	"\211\341'\023\3202 \301\012\"\330@\004\003\303\023\240"
  51      D03220C1 
  51      0A22D840 
  51      0403C313 
  51      A0
  52 0080 7290A54F 		.ascii	"r\220\245O\231\230@4\363-\306C\337\272\216]c\007\231"
  52      99984034 
  52      F32DC643 
  52      DFBA8E5D 
  52      630799
  53 0093 F09D09EC 		.ascii	"\360\235\011\354\202\356\375\2778_0\375dbZ\324\336\330"
  53      82EEFDBF 
  53      385F30FD 
  53      64625AD4 
  53      DED8
  54 00a5 C002B2EF 		.ascii	"\300\002\262\357\376\223\363\0279\300B\014 \356\306"
  54      FE93F317 
  54      39C0420C 
  54      20EEC6
  55 00b4 8D1D3F38 		.ascii	"\215\035?8\3472\316nl\001\272\216\231q%\243\024\343"
  55      E732CE6E 
  55      6C01BA8E 
  55      997125A3 
  55      14E3
  56 00c6 2A46A01F 		.ascii	"*F\240\037\031W3\316ed\270\305\330\374\205\015b\034"
  56      195733CE 
  56      6564B8C5 
  56      D8FC850D 
  56      621C
  57 00d8 33C4C4D3 		.ascii	"3\304\304\323\217~|\346\001ig\024``\\\003T\011\264t"
  57      8F7E7CE6 
ARM GAS  C:\Users\Luggi\AppData\Local\Temp\ccrqAUL9.s 			page 4


  57      01696714 
  57      60605C03 
  57      5409B474 
  58 00ec 12234809 		.ascii	"\022#H\011>\303\326\002\015\003\032\301\000v\341\271"
  58      3EC3D602 
  58      0D031AC1 
  58      0076E1B9 
  59 00fc 635017B2 		.ascii	"cP\027\262\002\265\254\236r\37307\3309\233`.\354\334"
  59      02B5AC9E 
  59      72FB3037 
  59      D8399B60 
  59      2EECDC
  60 010f BEEE0317 		.ascii	"\276\356\003\027\302\224upS\326\2439\011d\004\206\033"
  60      C2947570 
  60      53D6A339 
  60      09640486 
  60      1B
  61 0120 70EADE00 		.ascii	"p\352\336\000v\003\033\303=\306\306\003WYA\252A\321"
  61      76031BC3 
  61      3DC6C603 
  61      575941AA 
  61      41D1
  62 0132 F0041890 		.ascii	"\360\004\030\220\300\260\003\006\206\266{j^jQbIjJ|p"
  62      C0B00306 
  62      86B67B6A 
  62      5E6A5162 
  62      496A4A7C 
  63 0147 7E695172 		.ascii	"~iQrjL@p\276\263i\214\243\213s|\260cP\274a|IF\252\243"
  63      6A4C4070 
  63      BEB3698C 
  63      A38B737C 
  63      B06350BC 
  64 0161 B38FB75E 		.ascii	"\263\217\267^2\003\000\234H\243\346"
  64      3203009C 
  64      48A3E6
  65              		.text
  66              		.section	.gnu.lto_ADC_SAR_1_theACLK_Stop.304b4b6b,"",%progbits
  67 0000 789C6366 		.ascii	"x\234cf\300\004R@\274\231\221\201A\027H32302M8\307\300"
  67      C0045240 
  67      BC999181 
  67      41174833 
  67      32333032 
  68 0018 D0C8C1C4 		.ascii	"\320\310\301\304\310\010b002\32431\3263\276d\372\310"
  68      C8086230 
  68      3032D433 
  68      31D633BE 
  68      64FAC8
  69 002b C438E1C0 		.ascii	"\3048\341\300\352\031\334\352K\033\032\032>|\332(\321"
  69      EA19DCEA 
  69      4B1B1A1A 
  69      3E7CDA28 
  69      D1
  70 003c 2AF19389 		.ascii	"*\361\223\211\201\3413\023\304\030\306\345\214\352\014"
  70      81E13313 
  70      C418C6E5 
  70      8CEA0C
  71 004b 40351F5B 		.ascii	"@5\037[\376^\347fk\001\252\021\200\3101\256`d\003\032"
ARM GAS  C:\Users\Luggi\AppData\Local\Temp\ccrqAUL9.s 			page 5


  71      FE5EE766 
  71      6B01AA11 
  71      80C831AE 
  71      6064031A 
  72 005f CFB05EE8 		.ascii	"\317\260^\350@\303\377\377\233\317L\354Pg\344`b\370"
  72      40C3FFFF 
  72      9BCF4CEC 
  72      5067E460 
  72      62F8
  73 0071 C904B40C 		.ascii	"\311\004\264\014H\260\202\0106\020\301\300\360\004\250"
  73      48B08208 
  73      3610C1C0 
  73      F004A8
  74 0080 1E64E953 		.ascii	"\036d\351S&&\020\315|\213\361\320\267\256k3\253@F|g"
  74      262610CD 
  74      7C8BF1D0 
  74      B7AE6B33 
  74      AB40467C 
  75 0095 02BBA07B 		.ascii	"\002\273\240{\377/\316\027L?\231\230\026\26576\260\200"
  75      FF2FCE17 
  75      4C3F9998 
  75      16B53736 
  75      B080
  76 00a7 2CBCFFE4 		.ascii	",\274\377\344\374E\016\260\020\003\210\273qc\307\017"
  76      FC450EB0 
  76      100388BB 
  76      7163C70F 
  77 00b7 CEB98CB3 		.ascii	"\316\271\214\263\033[\030\177213\256d\224b\\\305\010"
  77      1B5B187F 
  77      323133AE 
  77      6494625C 
  77      C508
  78 00c9 F423E36A 		.ascii	"\364#\343j\306\271\214\014\267\030\233\177\260A\214"
  78      C6B98C0C 
  78      B7189B7F 
  78      B0418C
  79 00d8 638698B8 		.ascii	"c\206\230\270\362\334\214W| \355\314\357\031\031\030"
  79      F2DC8C57 
  79      7C20EDCC 
  79      EF191918 
  80 00e8 D7009502 		.ascii	"\327\000\225\002m\235\304\010R\203\317\264\265@\323"
  80      6D9DC408 
  80      5283CFB4 
  80      B540D3
  81 00f7 80663080 		.ascii	"\200f0\200\235xof\005\304LV\240\226\325Sn\037\346\006"
  81      9D786F66 
  81      05C44C56 
  81      A096D553 
  81      6E1FE606 
  82 010b BB6713CC 		.ascii	"\273g\023\314\211\235\333\327}\340B\230\262\016n\312"
  82      899DDBD7 
  82      7DE04298 
  82      B20E6ECA 
  83 011b 7A343781 		.ascii	"z47\201\214\300p\003N\335\033\300n`c\270\307\330x`\247"
  83      8CC07003 
  83      4EDD1BC0 
  83      6E6063B8 
ARM GAS  C:\Users\Luggi\AppData\Local\Temp\ccrqAUL9.s 			page 6


  83      C7D87860 
  84 0130 1B483528 		.ascii	"\033H5(\"\236\000C\022\030x\300\320\320vO\315K-J,IM"
  84      229E0043 
  84      121878C0 
  84      D0D0764F 
  84      CD4B2D4A 
  85 0147 890FCE2F 		.ascii	"\211\017\316/-JN\215\011\010\316w6\215qtq\216\017v\014"
  85      2D4A4E8D 
  85      0908CE77 
  85      368D7174 
  85      718E0F76 
  86 015c 8A378C2F 		.ascii	"\2127\214/\311Hut\366\361\326Kf\000\000\030\021\243"
  86      C9487574 
  86      F6F1D64B 
  86      66000018 
  86      11A3
  87 016e E4       		.ascii	"\344"
  88              		.text
  89              		.section	.gnu.lto_ADC_SAR_1_theACLK_StopBlock.304b4b6b,"",%progbits
  90 0000 789C8D94 		.ascii	"x\234\215\224]L\024W\024\307\357\2713;\263\313\"\037"
  90      5D4C1457 
  90      14C7EFB9 
  90      333BB3CB 
  90      221F
  91 0012 C203F541 		.ascii	"\302\003\365A\037L\352C\023L\223\232\370J0iR}h\340\305"
  91      1F4CEA43 
  91      134C939A 
  91      F84A3069 
  91      527D68E0 
  92 0027 261AA2B2 		.ascii	"&\032\242\262\211&\2464D}\350C\231\201\305\017\312\003"
  92      8926A634 
  92      447DE843 
  92      9981C50F 
  92      CA03
  93 0039 20B1F881 		.ascii	" \261\370\201D\023u\021\277v\265\245\024[V\020WEW\327"
  93      44137511 
  93      BF76B5A5 
  93      145B5610 
  93      574557D7 
  94 004d 20468C68 		.ascii	" F\214h\014k\220h\273\204\272\260\266\260\236s\357\354"
  94      0C6B9068 
  94      BB84BAB0 
  94      B6B09E73 
  94      EFEC
  95 005f 006B306E 		.ascii	"\000k0n\262wf\356=\347w\377\367|\\\205}\370\333\214"
  95      B27766EE 
  95      3DE777FF 
  95      F77C5C85 
  95      7DF8DB8C 
  96 0073 FF0D1A63 		.ascii	"\377\015\032ck\361\011N\006\274!\314\230\351\344\\\031"
  96      6BF1094E 
  96      06BC21CC 
  96      98E9E45C 
  96      19
  97 0084 5CCD8C0C 		.ascii	"\\\315\214\014\355\352rfd*\240\312i\225\353\365!\206"
  97      EDEA7266 
  97      642AA0CA 
ARM GAS  C:\Users\Luggi\AppData\Local\Temp\ccrqAUL9.s 			page 7


  97      6995EBF5 
  97      2186
  98 0096 F30EAF8E 		.ascii	"\363\016\257\216\363\272\234/r\200&\3275\000za\300\252"
  98      F3BA9C2F 
  98      728026D7 
  98      35007A61 
  98      C0AA
  99 00a8 B8A2EA0E 		.ascii	"\270\242\352\016\015\252\270*7z\305'84\004;Z\334\253"
  99      0DAAB82A 
  99      377AC527 
  99      3834043B 
  99      5ADCAB
 100 00bb 4E198611 		.ascii	"N\031\206\021\353\355*\250-Hp\306&\2714\2003\260\212"
 100      EBED2AA8 
 100      2D4870C6 
 100      26B93480 
 100      33B08A
 101 00ce A1CD8477 		.ascii	"\241\315\204w\346\221[\363\242M\216\\\003\037h\200\017"
 101      E6915BF3 
 101      A24D8E5C 
 101      031F6880 
 101      0F
 102 00df 5C336FEC 		.ascii	"\\3o\354\363;\224B \273\201\027\323\223\231c<\301!\207"
 102      F33B9442 
 102      20BB8117 
 102      D3939963 
 102      3CC12187 
 103 00f3 3E8F3C8A 		.ascii	">\217<\212\376\253\320'\347\3649\0248\343\203\225'\014"
 103      FEABD027 
 103      E7F43914 
 103      38E38395 
 103      270C
 104 0105 A3FAF9E3 		.ascii	"\243\372\371\343\232\272L\303gx\237'\223+\022\\\201"
 104      9ABA4CC3 
 104      67789F27 
 104      932B125C 
 104      81
 105 0116 7650900B 		.ascii	"vP\220\013ga\031t\3002+\016p\016V^\\\0324\222\311\311"
 105      67611974 
 105      C0322B0E 
 105      700E565E 
 105      5C1A3492 
 106 012c 978D639F 		.ascii	"\227\215c\237\363\002\205%\270\252\322\340\244\301E"
 106      F3028525 
 106      B8AAD2E0 
 106      A4C145
 107 013b 835B9865 		.ascii	"\203[\230e\321k6\01594\344\322\220GC>\015\214\215\242"
 107      D16B360D 
 107      3934E4D2 
 107      9047433E 
 107      0D8C8DA2 
 108 014f E83E378B 		.ascii	"\350>7\213\242\220>\2672\014\275\361\272\370\261\257"
 108      A2903EB7 
 108      320CBDF1 
 108      BAF8B1AF 
 109 015f E814535C 		.ascii	"\350\024S\\\241 \374\334\363\316EJ\035'\367\231\206"
 109      A120FCDC 
ARM GAS  C:\Users\Luggi\AppData\Local\Temp\ccrqAUL9.s 			page 8


 109      F3CE454A 
 109      1D27F799 
 109      86
 110 0170 4A6A9F8D 		.ascii	"Jj\237\215\336\2138\305\024\243O\277\177\377\264\253"
 110      DE8B38C5 
 110      14A34FBF 
 110      7FFFB4AB 
 111 0180 158E9A5E 		.ascii	"\025\216\232^Hp\015\316\243\322\013\244\024.B+\260a"
 111      48700DCE 
 111      A3D20BA4 
 111      142E422B 
 111      B061
 112 0192 A899DE3B 		.ascii	"\250\231\336;\250J`\266d\332\301@Mp\011m\037\202\367"
 112      A84A60B6 
 112      64DAC140 
 112      4D70096D 
 112      1F82F7
 113 01a5 71CD56CB 		.ascii	"q\315V\313\206\"w\272\273^\027\006\210\361[\307\216"
 113      862277BA 
 113      BB5E1706 
 113      88F15BC7 
 113      8E
 114 01b6 72857975 		.ascii	"r\205yu\222\030\213\275\2118\026\006\237\216*b\217\016"
 114      92188BBD 
 114      89381606 
 114      9F8E2A62 
 114      8F0E
 115 01c8 01D07031 		.ascii	"\001\320p1y\330X#D\232\206\245\373\326\311\361\277\271"
 115      79D85823 
 115      449A86A5 
 115      FBD6C9F1 
 115      BFB9
 116 01da 106A063F 		.ascii	"\020j\006?#\251\227m\251WP\352\374\223\021\346W\\\241"
 116      23A9976D 
 116      A95750EA 
 116      FC9311E6 
 116      575CA1
 117 01ed CD2EBD35 		.ascii	"\315.\2755u\213\331T=\374\243`6\244\230\277\264{\037"
 117      758BD954 
 117      3DFCA360 
 117      36A498BF 
 117      B47B1F
 118 0200 2E99CFFC 		.ascii	".\231\317\374\315fvJ\346\351\247\2652\200\032\036\366"
 118      CD66764A 
 118      E6E9A7B5 
 118      32801A1E 
 118      F6
 119 0211 778B199B 		.ascii	"w\213\031\233c\266\335\216\014p\001mNA\0176\036\354"
 119      63B6DD8E 
 119      0C70016D 
 119      4E410F36 
 119      1EEC
 120 0223 CF9A0FED 		.ascii	"\317\232\017\355\262\241\177 4\245,^7{\374\007\242L"
 120      B2A17F20 
 120      34A52C5E 
 120      377BFC07 
 120      A24C
ARM GAS  C:\Users\Luggi\AppData\Local\Temp\ccrqAUL9.s 			page 9


 121 0235 71277A8D 		.ascii	"q'z\215\234\357j\0215\345\330\237\002\365\207\215z\230"
 121      9CEF6A11 
 121      35E5D89F 
 121      02F5878D 
 121      7A98
 122 0247 4B4DB78D 		.ascii	"KM\267\215\271\232J\215&\375]\022\321\366jvL\025Z\253"
 122      B99A4A8D 
 122      26FD5D12 
 122      D1F66A76 
 122      4C155AAB 
 123 025b 18FC2977 		.ascii	"\030\374)wi\002K\350\242\260\277p\026\021RR\270m\243"
 123      69024BE8 
 123      A2B0BF70 
 123      16115252 
 123      B86DA3
 124 026e 44BAD1A5 		.ascii	"D\272\321\245\347xS\034\210\2477\230\351\305\243\213"
 124      E778531C 
 124      88A73798 
 124      E9C5A38B 
 125 027e E2690FFC 		.ascii	"\342i\017\3747\250YG-Lp'\364 6(\260\327H\343\020T\033"
 125      37A85947 
 125      2D4C7027 
 125      F4203628 
 125      B0D748E3 
 126 0295 DF119012 		.ascii	"\337\021\220\022\214P\241\310?\323\250X\242\314\211"
 126      8C50A1C8 
 126      3FD3A858 
 126      A2CC89
 127 02a4 966E113D 		.ascii	"\226n\021=W\265\221\276\203K\354\020;\021)I\251\316"
 127      57B591BE 
 127      834BEC10 
 127      3B112949 
 127      A9CE
 128 02b6 805EC4F7 		.ascii	"\200^\304\367\011\374u\241\332-\3231\023qX\300\217\024"
 128      09FC75A1 
 128      DA2DD331 
 128      137158C0 
 128      8F14
 129 02c8 49BF4CE8 		.ascii	"I\277L\350\324\377\241\332l\021$\235\301\015Q\234Q,"
 129      D4FFA1DA 
 129      6C11249D 
 129      C10D519C 
 129      512C
 130 02da 54BC4AAC 		.ascii	"T\274J\254\366i+\221\021\310Z\200\203\205\260\220\335"
 130      F6692B91 
 130      11C85A80 
 130      8385B090 
 130      DD
 131 02eb 1CAF1569 		.ascii	"\034\257\025i\256J\217P\353X@\344@\005\0067S\315\361"
 131      AE4A8F50 
 131      EB5840E4 
 131      40050637 
 131      53CDF1
 132 02fe 93656377 		.ascii	"\223ecw\303(\006\020o7\210b\027\312\256\210\327\015"
 132      C3280610 
 132      6F378862 
 132      17CAAE88 
ARM GAS  C:\Users\Luggi\AppData\Local\Temp\ccrqAUL9.s 			page 10


 132      D70D
 133 0310 F964B2A6 		.ascii	"\371d\262\246x\316\307\372\362VZ\362s\245}{\270e<K\234"
 133      78CEC7FA 
 133      F2565AF2 
 133      73A57D7B 
 133      B8653C4B 
 134 0325 EB1FDCF9 		.ascii	"\353\037\334\371vZ\366\027\245\015\2108\346\312\354"
 134      765AF617 
 134      A50D8838 
 134      E6CAEC
 135 0334 8FF80E59 		.ascii	"\217\370\016Y\012\362\320\247\243\371I\237[Td uw\034"
 135      0AF2D0A7 
 135      A3F9499F 
 135      5B546420 
 135      75771C
 136 0347 E8BC10CB 		.ascii	"\350\274\020\313\230\303\334\2611w\323D\345#\342\003"
 136      98C3DCB1 
 136      3177D344 
 136      E523E203 
 137 0357 118B7A87 		.ascii	"\021\213z\207\205\210|\231\314\320\203OH\346\275y\215"
 137      85887C99 
 137      CCD0834F 
 137      48E6BD79 
 137      8D
 138 0368 D4D47887 		.ascii	"\324\324x\207[\036v\305\272\354\212\235+QQA\367\355"
 138      5B1E76C5 
 138      BAEC8A9D 
 138      2B515141 
 138      F7ED
 139 037a 0A8A5815 		.ascii	"\012\212X\025D\371\327\350\366\034\0013\330\371\215"
 139      44F9D7E8 
 139      F61C0133 
 139      D8F98D
 140 0389 BC852843 		.ascii	"\274\205(C\200\223x\275~\361\265\347{O\345\226]\236"
 140      809378BD 
 140      7EF1B5E7 
 140      7B4FE596 
 140      5D9E
 141 039b F2B2D28A 		.ascii	"\362\262\322\212\335\225\333<\233\276-\255(^\263\251"
 141      DD95DB3C 
 141      9BBE2DAD 
 141      285EB3A9 
 142 03ab 685D7159 		.ascii	"h]qYiQI\331\227e\273\266{\212\2127\254/\334\3062*v\226"
 142      695149D9 
 142      9765BBB6 
 142      7B8A8A37 
 142      AC2FDCC6 
 143 03c3 AFDBB167 		.ascii	"\257\333\261gG\271\247\362=\242\201Py"
 143      47B9A7F2 
 143      3DA28150 
 143      79
 144              		.text
 145              		.section	.gnu.lto_ADC_SAR_1_theACLK_StandbyPower.304b4b6b,"",%progbits
 146 0000 789C8D91 		.ascii	"x\234\215\221OHTQ\024\306\317w\357}3\217\231!\304\225"
 146      4F485451 
 146      14C6CF77 
 146      EF7D338F 
ARM GAS  C:\Users\Luggi\AppData\Local\Temp\ccrqAUL9.s 			page 11


 146      9921C495 
 147 0014 CCC29D48 		.ascii	"\314\302\235H$#!-\203\206\011\\\350\"\232\2550\204="
 147      2423212D 
 147      8386095C 
 147      E8229AAD 
 147      30843D
 148 0027 68A560D3 		.ascii	"h\245`\323\332\373\362E\024.DJ\004\221\026\331\037\033"
 148      DAFBF245 
 148      142E444A 
 148      049116D9 
 148      1F1B
 149 0039 1B4B1711 		.ascii	"\033K\027\021\211\014\265\014&\012\303PJ\210\021\314"
 149      890CB50C 
 149      260AC350 
 149      4A8811CC 
 150 0049 4D0E86E9 		.ascii	"M\016\206\351B\306s\357\265U >\270\347\236{\370\316"
 150      42C673EF 
 150      B555203E 
 150      B8E79E7B 
 150      F8CE
 151 005b EF7EF73C 		.ascii	"\357~\367<I\377\177\027ye\004Q\027\357\210\021\304X"
 151      49FF7F17 
 151      79650451 
 151      17EF8811 
 151      C458
 152 006d 9528F485 		.ascii	"\225(\364\205\220K\255\244\023j\245\223tJ\302se\365"
 152      904BADA4 
 152      136AA593 
 152      744AC273 
 152      65F5
 153 007f 2FF10093 		.ascii	"/\361\000\223\020hXH\345a\030\277D]`\254R\232L\266?"
 153      10685848 
 153      E56118BF 
 153      445D60AC 
 153      529A4CB6 
 154 0094 D15AEF7C 		.ascii	"\321Z\357|Ym\271\323r\300\344]\341n\3023\264\263$\232"
 154      596DB9D3 
 154      72C0E45D 
 154      E16EC233 
 154      B4B3249A 
 155 00a8 D93B5432 		.ascii	"\331;T2\003\342\374\355\367\345z\252\355\261\326\267"
 155      03E2FCED 
 155      F7E57AAA 
 155      EDB1D6B7 
 156 00b8 2BEB657D 		.ascii	"+\353e}\011\007\002x\016\311\035\350H\343l\232\270@"
 156      09070278 
 156      0EC91DE8 
 156      48E36C9A 
 156      B840
 157 00ca 98459B11 		.ascii	"\230E\233\021\327\243\303\325d,bv\223c\342\005b\340"
 157      D7A3C3D5 
 157      642C6276 
 157      9363E205 
 157      62E0
 158 00dc 7DBEB9A2 		.ascii	"}\276\271\242\033\215\305\215\361\255.\221`\002\353"
 158      1B8DC58D 
 158      F1AD2E91 
ARM GAS  C:\Users\Luggi\AppData\Local\Temp\ccrqAUL9.s 			page 12


 158      6002EB
 159 00eb 15770ACF 		.ascii	"\025w\012\317\204\270\011\276\011D5^\306\365&\037x\227"
 159      84B809BE 
 159      0944355E 
 159      C6F5261F 
 159      7897
 160 00fd 5F117D1B 		.ascii	"_\021}\033i<\214\033\320_a\374\207O\337\215\306\267"
 160      693C8C1B 
 160      D05F61FC 
 160      874FDF8D 
 160      C6B7
 161 010f 8455A384 		.ascii	"\204U\243\204\2645\276)$-\265\3125\274\337\273_\235"
 161      B435BE29 
 161      242DB5CA 
 161      35BCDFBB 
 161      5F9D
 162 0121 9B80932B 		.ascii	"\233\200\223+\226\227\036\254\177H\032\271\\\270\033"
 162      96971EAC 
 162      7F481AB9 
 162      5CB81B
 163 0130 6A655C6E 		.ascii	"je\\n\324>}\366m\211\314\361\336\233\362Nb\032Sa\304"
 163      D43E7DF6 
 163      6D89CCF1 
 163      DE9BF24E 
 163      621A5361 
 164 0145 8F539843 		.ascii	"\217S\230C\032/\015\026eL\203\3260\262\037s8\317\021"
 164      1A2F0D16 
 164      654C83D6 
 164      30B21F73 
 164      38CF11
 165 0158 67AB93DB 		.ascii	"g\253\223\333gL\273\372\315/\237g)_;n\257<\211\366\212"
 165      674CBBFA 
 165      CD2F9F67 
 165      295F3B6E 
 165      AF3C89F6 
 166 016d 69CCB066 		.ascii	"i\314\260f\025\255t:\263\333\035\216\035?\251\365\365"
 166      15AD743A 
 166      B3DB1D8E 
 166      1D3FA9F5 
 166      F5
 167 017e B1913FC7 		.ascii	"\261\221?\307F|\247\377\370s\1777e'\321DX8\255\217E"
 167      467CA7FF 
 167      F8737F37 
 167      6527D144 
 167      5838AD8F 
 168 0193 EBC3B73E 		.ascii	"\353\303\267><;\343\037\010+\217zL\237\031e\215\377"
 168      3C3BE31F 
 168      082B8F7A 
 168      4C9F1965 
 168      8DFF
 169 01a5 275779BA 		.ascii	"'Wy\272\347\272\203\201`\350Z1\270^\310\017\336\032"
 169      E7BA8381 
 169      60E85A31 
 169      B85EC80F 
 169      DE1A
 170 01b7 EA0FFAAE 		.ascii	"\352\017\372\256\344\007s\027\372\262\227s\205|\366"
 170      E4077317 
ARM GAS  C:\Users\Luggi\AppData\Local\Temp\ccrqAUL9.s 			page 13


 170      FAB29773 
 170      857CF6
 171 01c6 6AE17CA1 		.ascii	"j\341|\241x#\310\346z{2\375\344\335,\262\360\010j\356"
 171      7823C8E6 
 171      7A7B32FD 
 171      E4DD2CB2 
 171      F0086AEE 
 172 01da D116     		.ascii	"\321\026"
 173              		.text
 174              		.section	.gnu.lto_ADC_SAR_1_theACLK_GetDividerRegister.304b4b6b,"",%progbits
 175 0000 789C6366 		.ascii	"x\234cf\300\004R@\374\003\210u\201\230\221\231\201\221"
 175      C0045240 
 175      FC038875 
 175      81989199 
 175      8191
 176 0012 69C23906 		.ascii	"i\3029\006\206F\016&FF\020\203\201\221\241\236\211\261"
 176      86460E26 
 176      46461083 
 176      8191A19E 
 176      89B1
 177 0024 9EF125D3 		.ascii	"\236\361%\323G&\306\323\217~|\346y\301\364\223\211A"
 177      4726C6D3 
 177      8F7E7CE6 
 177      79C1F493 
 177      8941
 178 0036 8001C89D 		.ascii	"\200\001\310\235u\375\351\027f\020\227\221\011\304\335"
 178      75FDE917 
 178      66109791 
 178      09C4DD
 179 0045 FDF9DC23 		.ascii	"\375\371\334#6\365\245\015\015M\037&\315N\2341e\001"
 179      36F5A50D 
 179      0D4D1F26 
 179      CD4E9C31 
 179      6501
 180 0057 E34F2626 		.ascii	"\343O&&\206\317L\014\214\313\031\245\030W0\202,b\\\311"
 180      86CF4C0C 
 180      8CCB19A5 
 180      18573082 
 180      2C625CC9 
 181 006b A80E52FB 		.ascii	"\250\016R\373\261\345\357un\266\226\206\206\006\001"
 181      B1E5EF75 
 181      6EB69686 
 181      860601
 182 007a 900AA0C4 		.ascii	"\220\012\240\304*F6F \275^\350@\303\377\377\233\337"
 182      2A463646 
 182      20BD5EE8 
 182      40C3FFFF 
 182      9BDF
 183 008c 4EE93067 		.ascii	"N\3510gafb\000\231\300\360\004\210Any\012\344\000i\346"
 183      61666200 
 183      99C0F004 
 183      88416E79 
 183      0AE40069 
 184 00a1 5B8C87BE 		.ascii	"[\214\207\276u\335;\313\005\322\363\235\011\344\260"
 184      75DD3BCB 
 184      05D2F39D 
 184      09E4B0
ARM GAS  C:\Users\Luggi\AppData\Local\Temp\ccrqAUL9.s 			page 14


 185 00b0 FDF3267D 		.ascii	"\375\363&}c\004\271\204yBcc\003\013\310\206\373O\316"
 185      6304B984 
 185      79426363 
 185      030BC886 
 185      FB4FCE
 186 00c3 5FE4000B 		.ascii	"_\344\000\0131\200\270+7\375\276\3026\227qvcK\343\001"
 186      3180B82B 
 186      37FDBEC2 
 186      36977176 
 186      634BE301 
 187 00d7 999F4C2C 		.ascii	"\231\237L,\214\253\201nZ\003r\023\343Z\306\271\214\014"
 187      8CAB816E 
 187      5A037213 
 187      E35AC6B9 
 187      8C0C
 188 00e9 F7181B1B 		.ascii	"\367\030\033\033\270\241\0062\200\254d\004Y\005dj\273"
 188      B8A10632 
 188      80AC6404 
 188      5905646A 
 188      BB
 189 00fa A7E6A516 		.ascii	"\247\346\245\026%\226\244\246\304\007\347\227\026%\247"
 189      2596A4A6 
 189      C407E797 
 189      1625A7
 190 0109 C60404E7 		.ascii	"\306\004\004\347;\233\3068\2728\307\007;\006\305\033"
 190      3B9BC638 
 190      BA38C707 
 190      3B06C51B 
 191 0119 C69764A4 		.ascii	"\306\227d\244::\373x\353%3\000\000\325bk\317"
 191      3A3AFB78 
 191      EB253300 
 191      00D5626B 
 191      CF
 192              		.text
 193              		.section	.gnu.lto_ADC_SAR_1_theACLK_SetModeRegister.304b4b6b,"",%progbits
 194 0000 789C6366 		.ascii	"x\234cf\300\004R@|\210\221\201\301\022H32302M8\307\300"
 194      C0045240 
 194      7C889181 
 194      C1124833 
 194      32333032 
 195 0018 D0C8C1C4 		.ascii	"\320\310\301\304\310\010b002\32431\3263\276d\372\310"
 195      C8086230 
 195      3032D433 
 195      31D633BE 
 195      64FAC8
 196 002b C438E1C0 		.ascii	"\3048\341\300\352\031\334\352K\033\032\032>\034\332"
 196      EA19DCEA 
 196      4B1B1A1A 
 196      3E1CDA
 197 003a 2CD92AF1 		.ascii	",\331*\361\223\211\201\3413\023\304\030\306\345\214"
 197      938981E1 
 197      3313C418 
 197      C6E58C
 198 0049 EA402567 		.ascii	"\352@%g\226M|\313\306\254\307\310\000d\037o>w\217]u"
 198      964D7CCB 
 198      C6ACC7C8 
 198      00641F6F 
ARM GAS  C:\Users\Luggi\AppData\Local\Temp\ccrqAUL9.s 			page 15


 198      3E778F5D 
 199 005e 714343D3 		.ascii	"qCC\323\201{\353\032\034\030\177\002\315\\\301\310\014"
 199      817BEB1A 
 199      1C187F02 
 199      CD5CC1C8 
 199      0C
 200 006f D4C1A823 		.ascii	"\324\301\250#\305\250)\305\000\024``\\\311\250\012R"
 200      C5A829C5 
 200      00146060 
 200      5CC9A80A 
 200      52
 201 0080 FCB1E5EF 		.ascii	"\374\261\345\357un\266\026\240\331\002\0203\031W1\262"
 201      756EB616 
 201      A0D90210 
 201      33195731 
 201      B2
 202 0091 019DC5B0 		.ascii	"\001\235\305\260^\350@\303\377\377\237\317M}\241\316"
 202      5EE840C3 
 202      FFFF9FCF 
 202      4D7DA1CE 
 203 00a1 CAC504D4 		.ascii	"\312\305\004\324\303\304\014$\230Y\030A:YAL6\020\301"
 203      C3C40C24 
 203      98591841 
 203      3A59414C 
 203      3610C1
 204 00b4 0E223840 		.ascii	"\016\"8@\322\014\014O\200\030\344\370\247@\016\220f"
 204      D20C0C4F 
 204      8018E4F8 
 204      A7400E90 
 204      66
 205 00c5 BEC578E8 		.ascii	"\276\305x\350[\327\267\233u #\2773\201|r\363\310\372"
 205      5BD7B79B 
 205      752023BF 
 205      33817C72 
 205      F3C8FA
 206 00d8 87CC2F98 		.ascii	"\207\314/\230~2\261Ljll`\0019\340\376\223\363\0279\300"
 206      7E32B14C 
 206      6A6C6C60 
 206      0139E0FE 
 206      93F31739 
 207 00ed 420C20EE 		.ascii	"B\014 \356\235\236\013\277\370\3462\316nl\001\272\233"
 207      9D9E0BBF 
 207      F8E632CE 
 207      6E6C01BA 
 207      9B
 208 00fe 957135A3 		.ascii	"\225q5\243\024\343\032F`X1\256e\234\313\310p\213\261"
 208      14E31A46 
 208      605831AE 
 208      659CCBC8 
 208      708BB1
 209 0111 E91E3BC4 		.ascii	"\351\036;\3048f\240\211\310|\326\357@\023n16\377`\203"
 209      3866A089 
 209      C87CD6EF 
 209      40136E31 
 209      36FF6083 
 210 0125 F0414240 		.ascii	"\360AB@\363^\035\370u\205\023d<\363\217\377P\000\014"
 210      F35E1DF8 
ARM GAS  C:\Users\Luggi\AppData\Local\Temp\ccrqAUL9.s 			page 16


 210      75851364 
 210      3CF38FFF 
 210      50000C
 211 0138 D6754023 		.ascii	"\326u@#\201j\277@\325\262\203\215cC6\216\003(\012\344"
 211      816ABF40 
 211      D5B2838D 
 211      6343368E 
 211      03280AE4 
 212 014c 1F9AC408 		.ascii	"\037\232\304\010\342\343s\330z\240\303\200\352\031\356"
 212      E2E373D8 
 212      7AA0C380 
 212      EA19EE
 213 015b 31361ED8 		.ascii	"16\036\330\037\006R\015\212\227'\3000\006\206\0010D"
 213      1F06520D 
 213      8A9727C0 
 213      30068601 
 213      3044
 214 016d B4DD53F3 		.ascii	"\264\335S\363R\213\022KRS\342\203\363K\213\222Sc\002"
 214      528B124B 
 214      5253E283 
 214      F34B8B92 
 214      536302
 215 0180 82F39D4D 		.ascii	"\202\363\235Mc\034]\234\343\203\035\203\342\015\343"
 215      631C5D9C 
 215      E3831D83 
 215      E20DE3
 216 018f 4B32521D 		.ascii	"K2R\035\235}\274\365\222\031\270s\363SR\2352K|\023\213"
 216      9D7DBCF5 
 216      9219B873 
 216      F353529D 
 216      324B7C13 
 217 01a4 B301D703 		.ascii	"\263\001\327\003\261\026"
 217      B116
 218              		.text
 219              		.section	.gnu.lto_ADC_SAR_1_theACLK_ClearModeRegister.304b4b6b,"",%progbits
 220 0000 789C7D50 		.ascii	"x\234}PM(DQ\030\375\316\275o\236\251)\311\212\331k\022"
 220      4D284451 
 220      18FDCEBD 
 220      6F9EA929 
 220      C98AD96B 
 221 0015 290B0B56 		.ascii	")\013\013V\306(\013\224\314\302FM\342\025\211)\306\226"
 221      C6280B94 
 221      CCC2464D 
 221      E2158929 
 221      C696
 222 0027 F71816B2 		.ascii	"\367\030\026\262\030\244\224\254&\377?\263\260\264\231"
 222      18A494AC 
 222      26FF3FB3 
 222      B0B499
 223 0036 A4586850 		.ascii	"\244XhP$\223\0065\212\244\374e\214\210\357zK\345\326"
 223      24930635 
 223      8AA4FC65 
 223      8C88EF7A 
 223      4BE5D6
 224 0049 BDF7BBA7 		.ascii	"\275\367\273\247s\316w\356'\351\357r\363\236\006Q%\337"
 224      73CE77EE 
 224      27E9EF72 
ARM GAS  C:\Users\Luggi\AppData\Local\Temp\ccrqAUL9.s 			page 17


 224      F39E0651 
 224      25DF
 225 005b 90041149 		.ascii	"\220\004\021I\020YN\001\250\202@C\002C\270\023O\002"
 225      10594E01 
 225      A8824043 
 225      0243B813 
 225      4F02
 226 006d 91F8DAAC 		.ascii	"\221\370\332\254\313\263`\232\346\343\363v\341hAV\020"
 226      CBB3609A 
 226      E6E3F376 
 226      E1684156 
 226      10
 227 007e BD08DB06 		.ascii	"\275\010\333\006K\3600\345`q\362A\227e \256\367F\022"
 227      4BF030E5 
 227      6071F241 
 227      976520AE 
 227      F74612
 228 0091 A99CA2A8 		.ascii	"\251\234\242\250i\016\307o7\315jd\331s\031\222\025("
 228      690EC76F 
 228      37CD6A64 
 228      D9731992 
 228      1528
 229 00a3 75A3D84D 		.ascii	"u\243\330M\014\020VP\244\310O\341\2573\227\036f\357"
 229      0C105650 
 229      A4C84FE1 
 229      AF33971E 
 229      66EF
 230 00b5 3CDB13AB 		.ascii	"<\333\023\253\3209\026\305\362\343\346\367\367\326\353"
 230      D03916C5 
 230      F2E3E6F7 
 230      F7D6EB
 231 00c4 CC7E95C3 		.ascii	"\314~\225\303)X#$\224HS\245C\035\272:\210\322\274U\344"
 231      29582324 
 231      944853A5 
 231      431DBA3A 
 231      88D2BC55 
 232 00d9 1B7EF02D 		.ascii	"\033~\360-\223\330y\033O\244\006\225QF\250\374\347\273"
 232      93D8791B 
 232      4FA40695 
 232      5146A8FC 
 232      E7BB
 233 00eb B16B792B 		.ascii	"\261ky+\262BNY\226\251\251\266\227\351\303c\347/D\352"
 233      B2424E59 
 233      96A9A9B6 
 233      97E9C363 
 233      E72F44EA 
 234 00ff 793171F4 		.ascii	"y1q\364\221;\2179+\314i5\254\301\215u\360\204\260\201"
 234      913B8F39 
 234      2BCC6935 
 234      ACC18D75 
 234      F084B081 
 235 0113 795012C3 		.ascii	"yP\022\303\037c'\232m\250eX\223\304\310\353\330\247"
 235      1F63279A 
 235      6DA86558 
 235      93C4C8EB 
 235      D8A7
 236 0125 B4110783 		.ascii	"\264\021\007\203\354\221\211^\335CY\212\034\302&\253"
ARM GAS  C:\Users\Luggi\AppData\Local\Temp\ccrqAUL9.s 			page 18


 236      EC91895E 
 236      DD43598A 
 236      1CC226AB 
 237 0135 99F4AEDB 		.ascii	"\231\364\256\333\024\025\204\211\014\355LAA\377\365"
 237      14158489 
 237      0CED4C41 
 237      41FFF5
 238 0144 8C714F96 		.ascii	"\214qO\226P\012V\374\264E\261\325\240\323<4\376\036"
 238      500A56FC 
 238      B445B1D5 
 238      A0D33C34 
 238      FE1E
 239 0156 7FB6A4CE 		.ascii	"\177\266\244\316\3505\372\332BFG\300\037\034\350k7Z"
 239      E835FADA 
 239      424647C0 
 239      1F1CE86B 
 239      375A
 240 0168 9BFC415F 		.ascii	"\233\374A_E\253\267\326\027\360{\233\003\345\201P\247"
 240      45ABB7D6 
 240      17F07B9B 
 240      03E58150 
 240      A7
 241 0179 E1F535D4 		.ascii	"\341\3655\324\227\265\223\253'\330a\324t\205\032\333"
 241      97B593AB 
 241      27D861D4 
 241      74851ADB 
 242 0189 FABB7F00 		.ascii	"\372\273\177\000\346\253\236g"
 242      E6AB9E67 
 243              		.text
 244              		.section	.gnu.lto_ADC_SAR_1_theACLK_GetModeRegister.304b4b6b,"",%progbits
 245 0000 789C6366 		.ascii	"x\234cf\300\004R@\374\027\210u\201\230\221\231\201\221"
 245      C0045240 
 245      FC178875 
 245      81989199 
 245      8191
 246 0012 69C23906 		.ascii	"i\3029\006\206F\016&FF\020\203\201\221\241\236\211\261"
 246      86460E26 
 246      46461083 
 246      8191A19E 
 246      89B1
 247 0024 9EF125D3 		.ascii	"\236\361%\323G&\3063;\377]fT_\332\320\320\364\341\320"
 247      4726C633 
 247      3BFF5D66 
 247      545FDAD0 
 247      D0F4E1D0 
 248 0038 C5BBDCAD 		.ascii	"\305\273\334\255\022?\231\030\030>310\352H1j\202\314"
 248      123F9918 
 248      183E3331 
 248      30EA4831 
 248      6A82CC
 249 004b 615CCEA8 		.ascii	"a\\\316\250\316\000T\370\261\345\357un\266\226\206\206"
 249      CE0054F8 
 249      B1E5EF75 
 249      6EB69686 
 249      86
 250 005c 0601903C 		.ascii	"\006\001\220<Pb\005#\033#\220^/t\240\341\377\377\317"
 250      50620523 
ARM GAS  C:\Users\Luggi\AppData\Local\Temp\ccrqAUL9.s 			page 19


 250      1B23905E 
 250      2F74A0E1 
 250      FFFFCF
 251 006f C7A6BD50 		.ascii	"\307\246\275Pfcab\370\311\004\264\021d\010\303\023 "
 251      66636162 
 251      F8C904B4 
 251      116408C3 
 251      1320
 252 0081 01B2EF29 		.ascii	"\001\262\357)\023\023\210f\276\305x\350[\327\267\027"
 252      13138866 
 252      BEC578E8 
 252      5BD7B717 
 253 0091 16208DDF 		.ascii	"\026 \215\337\231@\226\337<\262\376!\363\013\246\237"
 253      994096DF 
 253      3CB2FE21 
 253      F30BA69F 
 254 00a1 4C4C931A 		.ascii	"LL\223\032\033\033X@\326\334\177r\376\"\007X\210\001"
 254      1B1B5840 
 254      D6DC7F72 
 254      FE220758 
 254      8801
 255 00b3 C4BDD373 		.ascii	"\304\275\323s\341\027\337\\\306\331\215-\214?\231\230"
 255      E117DF5C 
 255      C6D98D2D 
 255      8C3F9998 
 256 00c3 1957324A 		.ascii	"\031W2J1\256b\004:\213q5\343\\F\206[\214\315?\332t "
 256      31AE6204 
 256      3A8B7135 
 256      E35C4686 
 256      5B8CCD3F 
 257 00da E631438C 		.ascii	"\3461C\214|\367\370O3X?\303\017F\006\3065@\265\367\030"
 257      7CF7F84F 
 257      33583FC3 
 257      0F4606C6 
 257      3540B5F7 
 258 00ef 19A12AC0 		.ascii	"\031\241*\300nb\004\271\005h\270\266{j^jQbIjJ|p~iQr"
 258      6E6204B9 
 258      0568B8B6 
 258      7B6A5E6A 
 258      5162496A 
 259 010a 6A4C4070 		.ascii	"jL@p\276\263i\214\243\213s|\260cP\274a|IF\252\243\263"
 259      BEB3698C 
 259      A38B737C 
 259      B06350BC 
 259      617C4946 
 260 0121 8FB75E32 		.ascii	"\217\267^2\003\000h`k\036"
 260      03006860 
 260      6B1E
 261              		.text
 262              		.section	.gnu.lto_ADC_SAR_1_theACLK_GetSourceRegister.304b4b6b,"",%progbits
 263 0000 789C6366 		.ascii	"x\234cf\300\004R@\374\007\210u\201\230\221\231\201\221"
 263      C0045240 
 263      FC078875 
 263      81989199 
 263      8191
 264 0012 69C23906 		.ascii	"i\3029\006\206F\016&FF\020\203\201\221\241\236\211\261"
 264      86460E26 
ARM GAS  C:\Users\Luggi\AppData\Local\Temp\ccrqAUL9.s 			page 20


 264      46461083 
 264      8191A19E 
 264      89B1
 265 0024 9EF125D3 		.ascii	"\236\361%\323G&\3063;\377]fT_\332\320\320\364\241\351"
 265      4726C633 
 265      3BFF5D66 
 265      545FDAD0 
 265      D0F4A1E9 
 266 0038 EB5DEE56 		.ascii	"\353]\356V\211\237L\014\014\237\231\030\030u\244\030"
 266      899F4C0C 
 266      0C9F9918 
 266      1875A418 
 267 0048 3541E630 		.ascii	"5A\3460.gTg\000*\374\330\362\367:7[KCC\203\000H\036"
 267      2E675467 
 267      002AFCD8 
 267      F2F73A37 
 267      5B4B4343 
 268 0060 28B18291 		.ascii	"(\261\202\221\215\021H\257\027:\320\360\377\377\347"
 268      8D1148AF 
 268      173AD0F0 
 268      FFFFE7
 269 006f 2BD35F68 		.ascii	"+\323_h\261\26301\374d\002\332\0102\204\341\011\220"
 269      B1B33031 
 269      FC6402DA 
 269      083284E1 
 269      0990
 270 0081 00D9F794 		.ascii	"\000\331\367\224\211\011D3\337b<\364\255\353\332/\013"
 270      89094433 
 270      DF623CF4 
 270      ADEBDA2F 
 270      0B
 271 0092 90C6EF4C 		.ascii	"\220\306\357L \313o\036Y\377\220\371\005\323O&\246I"
 271      20CB6F1E 
 271      59FF90F9 
 271      05D34F26 
 271      A649
 272 00a4 8D8D0D2C 		.ascii	"\215\215\015, k\356?9\177\221\003,\304\000\342\336\351"
 272      206BEE3F 
 272      397F9103 
 272      2CC400E2 
 272      DEE9
 273 00b6 B9F08B6F 		.ascii	"\271\360\213o.\343\354\306\026\306\237L\314\214+\031"
 273      2EE3ECC6 
 273      16C69F4C 
 273      CC8C2B19 
 274 00c6 A5185731 		.ascii	"\245\030W1\002\235\305\270\232q.#\303-\306\346\037m"
 274      029DC5B8 
 274      9A712E23 
 274      C32DC6E6 
 274      1F6D
 275 00d8 3A10F398 		.ascii	":\020\363\230!F~\377s\274\225\037\244\237\201\235\201"
 275      21467EFF 
 275      73BC951F 
 275      A49F819D 
 275      81
 276 00e9 710D50E9 		.ascii	"q\015P\351=FF\250\002\260\223\030AN\001\232\255\355"
 276      3D4646A8 
ARM GAS  C:\Users\Luggi\AppData\Local\Temp\ccrqAUL9.s 			page 21


 276      02B09318 
 276      414E019A 
 276      ADED
 277 00fb 9E9A975A 		.ascii	"\236\232\227Z\224X\222\232\022\037\234_Z\224\234\032"
 277      9458929A 
 277      121F9C5F 
 277      5A949C1A 
 278 010b 13109CEF 		.ascii	"\023\020\234\357l\032\343\350\342\034\037\354\030\024"
 278      6C1AE3E8 
 278      E21C1FEC 
 278      1814
 279 0119 6F185F92 		.ascii	"o\030_\222\221\352\350\354\343\255\227\314\000\000\261"
 279      91EAE8EC 
 279      E3AD97CC 
 279      0000B1
 280 0128 F56A0E   		.ascii	"\365j\016"
 281              		.text
 282              		.section	.gnu.lto_ADC_SAR_1_theACLK_SetDividerRegister.304b4b6b,"",%progbits
 283 0000 789C8D56 		.ascii	"x\234\215V[LTG\030\236\177\316\236\275\357\262,\327"
 283      5B4C5447 
 283      189E7FCE 
 283      9EBDEFB2 
 283      2CD7
 284 0012 A0118D12 		.ascii	"\240\021\215\022\212\212M\037l\3226m$\2324M\373\320"
 284      8A8A4D1F 
 284      6CD2366D 
 284      249A344D 
 284      FBD0
 285 0024 4AD3979A 		.ascii	"J\323\227\232\022\013\233\324\324h\262\305>\230\030"
 285      120B9BD4 
 285      D468B2C5 
 285      3E9818
 286 0033 CFBAAB10 		.ascii	"\317\272\253\020\272\261\010\250\324\212\250(B\275 "
 286      BAB108A8 
 286      D48AA828 
 286      42BD20
 287 0042 D85AC516 		.ascii	"\330Z\305\026\266V@\024Q\344&T\327\033\313-\206B\260"
 287      B6564014 
 287      51E42654 
 287      D71BCB2D 
 287      8642B0
 288 0055 80DA4AE7 		.ascii	"\200\332J\347r\316\331\005\013u\023\20633\377\367\315"
 288      72CED905 
 288      0B751386 
 288      3333FFF7 
 288      CD
 289 0066 3FDFFFCD 		.ascii	"?\337\377\315\234#\240\027\177\257\003B\217L\010}J\236"
 289      9C23A017 
 289      7FAF0342 
 289      8F4C087D 
 289      4A9E
 290 0078 211601CE 		.ascii	"!\026\001\316mF\310\245\307Xh|\007I\306\250\2060$\231"
 290      6D46C8A5 
 290      C758687C 
 290      0749C6A8 
 290      86302499 
 291 008c 05ACC94E 		.ascii	"\005\254\311N$=\003m\315\032\254e=\221\365D\271\307"
ARM GAS  C:\Users\Luggi\AppData\Local\Temp\ccrqAUL9.s 			page 22


 291      243D036D 
 291      CD1AAC65 
 291      3D91F544 
 291      B9C7
 292 009e E7B458C7 		.ascii	"\347\264X\307zz\326\323A\024\247\323+\017\006ld\363"
 292      7A7AD6D3 
 292      4114A7D3 
 292      2B0F066C 
 292      64F3
 293 00b0 616CDE88 		.ascii	"al\336\210\315\254gb=\223\334\343sf\260p\210\005\307"
 293      CDAC6762 
 293      3D93DCE3 
 293      7366B070 
 293      8805C7
 294 00c3 781B1019 		.ascii	"x\033\020\031\267ztd<\206\217\247X!\214\317\207a\033"
 294      B77A7464 
 294      3C868FA7 
 294      58218CCF 
 294      87611B
 295 00d6 83453298 		.ascii	"\203E2\230\015\333Y/\234\365\302\301\316\203\354\020"
 295      0DDB592F 
 295      9CF5C2C1 
 295      CE83EC10 
 296 00e6 C11F2270 		.ascii	"\301\037\"p4g\213bl\321|<%RI0\012\200> @[\261\240\021"
 296      34678B62 
 296      6CD17C3C 
 296      25524930 
 296      0A803E20 
 297 00ff B53ABDC1 		.ascii	"\265:\275\301h2[b\254a\266p{Dtd\024l\025,\\\272\010"
 297      68325B62 
 297      AC61B670 
 297      7B447464 
 297      146C152C 
 298 0116 FE6F008F 		.ascii	"\376o\000\217`\310\365\035/4%\036\225$i8o$v{\354\023"
 298      60C8F51D 
 298      2F34251E 
 298      95246938 
 298      6F24767B 
 299 012c 8CD028E6 		.ascii	"\214\320(\346\001p\014\022I\310Do\367^\203\260\014\020"
 299      01700C12 
 299      49C8446F 
 299      F75E83B0 
 299      0C10
 300 013e 79BEFA60 		.ascii	"y\276\372`b\324\334\217\237`\260\321\356\276\316\300"
 300      62D4DC8F 
 300      9F60B0D1 
 300      EEBECEC0 
 301 014e 63817631 		.ascii	"c\201v1\246\335\335e\255\367qB\211$m\363\015\236\226"
 301      A6DDDD65 
 301      ADF77142 
 301      89246DF3 
 301      0D9E96
 302 0161 56907101 		.ascii	"V\220q\001\312@ |P\016q\360\003\304!2\204\3408$\220"
 302      CA40207C 
 302      500E71F0 
 302      03C42132 
 302      84E03824 
ARM GAS  C:\Users\Luggi\AppData\Local\Temp\ccrqAUL9.s 			page 23


 303 0176 E8A6AC5D 		.ascii	"\350\246\254]\235 \274\301x\373\375my\026\216\364>\024"
 303      9D20BCC1 
 303      78FBFD6D 
 303      79168EF4 
 303      3E14
 304 0188 49161A38 		.ascii	"I\026\0328\301\201K\343 \211\3024\010NB\002\215}z& "
 304      C1814BE3 
 304      2089C234 
 304      084E4202 
 304      8D7D7A26 
 305 019d E9851486 		.ascii	"\351\205\024\206+\3109YmXx\210\340\356y\373\352MR\241"
 305      2BC83959 
 305      6D587888 
 305      E0EE79FB 
 305      EA4D52A1 
 306 01b1 E4B93739 		.ascii	"\344\27179\031O\361\247B\361\374G\000U=\236\035\242"
 306      194FF1A7 
 306      42F1FC47 
 306      00553D9E 
 306      1DA2
 307 01c3 F01E03B7 		.ascii	"\360\036\003\267\271\373\002\026\006>\270\263O\014\201"
 307      B9FB0216 
 307      063EB8B3 
 307      4F0C81
 308 01d2 9EFE4FA8 		.ascii	"\236\376O\250\253>\253R\024>b\320\216\252ce\300\327"
 308      AB3EAB52 
 308      143E62D0 
 308      8EAA6365 
 308      C0D7
 309 01e4 FD362BCB 		.ascii	"\3756+\313,\225)`\001\252\246nX\205\217x\376\3514i="
 309      2C952960 
 309      01AAA66E 
 309      58858F78 
 309      FEE93469 
 310 01f9 44691B54 		.ascii	"Di\033T\300B\250$\177g`!W\033~\004-1\264\020:Sa\367"
 310      C042A824 
 310      7F676021 
 310      571B7E04 
 310      2D31B410 
 311 0211 499393A3 		.ascii	"I\223\223\243u\371\375K4\257\002\221@\324\":\247Gt\326"
 311      75F9FD4B 
 311      34AF0291 
 311      40D4223A 
 311      A74774D6 
 312 0225 00544623 		.ascii	"\000TF#\031\326\232\020\205\231\351\243\2056\341\264"
 312      19D69A10 
 312      8599E9A3 
 312      8536E1B4 
 313 0235 B1D32686 		.ascii	"\261\323&\2066\261\264\241\022j\347\320f\036m\342i3"
 313      36B1B4A1 
 313      126AE7D0 
 313      661E6DE2 
 313      6933
 314 0247 9F360B68 		.ascii	"\2376\013h\263\2106\011\264I\004*s\022}\\L\233\245\264"
 314      B3883609 
 314      B449042A 
 314      73127D5C 
ARM GAS  C:\Users\Luggi\AppData\Local\Temp\ccrqAUL9.s 			page 24


 314      4C9BA5B4 
 315 025b 49A60D42 		.ascii	"I\246\015B=$S\357\\\024 \305\366\316\025n\203\333W\324"
 315      3D2453EF 
 315      5C1420C5 
 315      F6CE156E 
 315      83DB57D4 
 316 026f 6CA1998F 		.ascii	"l\241\231\217c-\331\340\201\326\235\247\360\226gR\266"
 316      632DD9E0 
 316      81D69DA7 
 316      F0966752 
 316      B6
 317 0280 A47F8275 		.ascii	"\244\177\202u\243\230\354\007~\202-\004\253G\035\200"
 317      A398EC07 
 317      7E822D04 
 317      AB471D80 
 318 0290 D91649FA 		.ascii	"\331\026I\372$\030Ql\361N+\307\352\247c\015\243d\005"
 318      2418516C 
 318      F14E2BC7 
 318      EAA7630D 
 318      A36405
 319 02a3 046719D6 		.ascii	"\004g\031\326\250b\317P\254\036\265\203\247\313\335"
 319      A862CF50 
 319      AC1EB583 
 319      A7CBDD
 320 02b2 B73F9683 		.ascii	"\267?\226\203\015t\210\376\002\304X\276h\241\033.\216"
 320      0D7488FE 
 320      02C458BE 
 320      68A11B2E 
 320      8E
 321 02c3 E5F8CF7F 		.ascii	"\345\370\317\177\302g\215\324\341\337\324>5P\217\232"
 321      C2678DD4 
 321      E1DFD43E 
 321      35508F9A 
 322 02d3 0E67B924 		.ascii	"\016g\271$\015-\305\335\236\353-z6\304*SY\231=a(\202"
 322      0D2DC5DD 
 322      9EEB2D7A 
 322      36C42A53 
 322      59993D61 
 323 02e9 EF5D1E20 		.ascii	"\357]\036 \"\303\317\244r\347h\345\340<\024\001\352"
 323      22C3CFA4 
 323      72E768E5 
 323      E03C1401 
 323      EA
 324 02fa 06F7C48E 		.ascii	"\006\367\304\216&\314\011M\234\263\364\316v\316\251"
 324      26CC094D 
 324      9CB3F4CE 
 324      76CEA9
 325 0309 B121A826 		.ascii	"\261!\250&\261J\216\0254G\023\315\361\226{|\377\334"
 325      B14A8E15 
 325      344713CD 
 325      F1967B7C 
 325      FFDC
 326 031b A038AED2 		.ascii	"\2408\256\322\013^\035E\020\035\341\202\354\213\000"
 326      0B5E1D45 
 326      101DE182 
 326      EC8B00
 327 032a 71F54193 		.ascii	"q\365A\223\300\242\007\205\240\032j\260\231\004\377"
ARM GAS  C:\Users\Luggi\AppData\Local\Temp\ccrqAUL9.s 			page 25


 327      C0A20785 
 327      A01A6AB0 
 327      9904FF
 328 0339 A2068BE8 		.ascii	"\242\006\213\350\206\310\203Ke\331\015!\263ZtN\317g"
 328      86C8834B 
 328      65D90D21 
 328      B35A744E 
 328      CF67
 329 034b 4B8A5E91 		.ascii	"K\212^\221\271B\246uh\277\206\252\263g\244#_\244\323"
 329      B942A675 
 329      68BF86AA 
 329      B367A423 
 329      5FA4D3
 330 035e 649DDA03 		.ascii	"d\235\332\003yc@\327\261\344\272\246Kca\322\224W=k\323"
 330      796340D7 
 330      B1E4BAA6 
 330      4B6361D2 
 330      94573D6B 
 331 0373 2AD258E1 		.ascii	"*\322X\341W\"M\015\223\246\226HC\326GL\357\261\352\263"
 331      57224D0D 
 331      93A69648 
 331      43D6474C 
 331      EFB1EAB3 
 332 0387 C0570C27 		.ascii	"\300W\014'\230\256K\025\367\331\245`\312SXo{o<\265\006"
 332      98AE4B15 
 332      F7D9A560 
 332      CA53586F 
 332      7B6F3CB5 
 333 039c 15F6A90A 		.ascii	"\025\366\251\012\377\246(\254\345x;\247\030\270\371"
 333      FFA628AC 
 333      E5783BA7 
 333      18B8F9
 334 03ab B8CB4A29 		.ascii	"\270\313J)\304Z@p\221\204\222u\362@N{F\266\337YRv\266"
 334      C45A4070 
 334      91849275 
 334      F2404E7B 
 334      46B6DF59 
 335 03c2 5FBDBCDF 		.ascii	"_\275\274\337\261\234\007oqn\363l\320Kr\"\217\345D,"
 335      B19C076F 
 335      716EF36C 
 335      D04B7222 
 335      8FE5442C 
 336 03d6 3CBEAAE4 		.ascii	"<\276\252\344\350YVh\355\012\004u/\233G=\313\303\202"
 336      E8595668 
 336      ED0A0475 
 336      2F9B473D 
 336      CBC382
 337 03e9 98DC7E55 		.ascii	"\230\334~U\356\031\305l\220\305\244y\033P\266U`\036"
 337      EE19C56C 
 337      90C5A479 
 337      1B50B655 
 337      601E
 338 03fb AF382097 		.ascii	"\2578 \227\321\024b\030#\362\350\350\266\206\207{[u"
 338      D1146218 
 338      23F2E8E8 
 338      B686877B 
 338      5B75
ARM GAS  C:\Users\Luggi\AppData\Local\Temp\ccrqAUL9.s 			page 26


 339 040d 32EFE477 		.ascii	"2\357\344w\322r\246\267K\222\365n<<8\204\331J._\022"
 339      D272A6B7 
 339      4B92F56E 
 339      3C3C3884 
 339      D94A2E5F 
 340 0422 CDEDB29A 		.ascii	"\315\355\262\232[#Y+\264\316\"\031\273\30276|z\310m"
 340      5B23592B 
 340      B4CE2219 
 340      BBC23736 
 340      7C7AC86D 
 341 0436 9039F3B6 		.ascii	"\2209\363\266uof\234\271\012\347\336rO\273%\224\363"
 341      756F669C 
 341      B90AE7DE 
 341      724FBB25 
 341      94F3
 342 0448 AACAD9C4 		.ascii	"\252\312\331\3049\325S!\222SqM\346\034\016r\026_i\271"
 342      39D55321 
 342      9253714D 
 342      E61C0E72 
 342      165F69B9 
 343 045c 8A196981 		.ascii	"\212\031i\201B\232\277+\277\316\032J\332\254\222^'\244"
 343      429ABF2B 
 343      BFCE1A4A 
 343      DAAC925E 
 343      27A4
 344 046e 4A666339 		.ascii	"Jfc9\3655\271\262\305b\010\314\177\362|!\267X\266\302"
 344      F535B9B2 
 344      C56208CC 
 344      7FF27C21 
 344      B758B6C2 
 345 0482 54D72C79 		.ascii	"T\327,y!X\214\033*O\3134\213\305r\212\342\201\347\375"
 345      21588C1B 
 345      2A4FCB34 
 345      8BC5728A 
 345      E281E7FD 
 346 0496 1A96EC56 		.ascii	"\032\226\354V\0047\247UvF\262VV\251X\236\223\277\346"
 346      0437A755 
 346      7646B256 
 346      56A9589E 
 346      93BFE6
 347 04a9 334E1937 		.ascii	"3N\0317\233\031\332\202\227\210\234\301b\2168\262{\317"
 347      9B19DA82 
 347      97889CC1 
 347      628E38B2 
 347      7BCF
 348 04bb 0991798B 		.ascii	"\011\221y\213\334\350\355$\226\035\336*y\233\213C\212"
 348      DCE8ED24 
 348      961DDE2A 
 348      799B8B43 
 348      8A
 349 04cc 6E421705 		.ascii	"nB\027\005~\264\253\315/\036|3*\021\251%\362*\307[\025"
 349      7EB4ABCD 
 349      2F1E7C33 
 349      2A11A925 
 349      F22AC75B 
 350 04e1 ABB9460A 		.ascii	"\253\271F\012/0\251-\333\024\201\206\017\265\254\016"
 350      2F30A92D 
ARM GAS  C:\Users\Luggi\AppData\Local\Temp\ccrqAUL9.s 			page 27


 350      DB148186 
 350      0FB5AC0E 
 351 04f1 9AAF4335 		.ascii	"\232\257C5_'\333\222\236\027k<_)V\250\205\222\247Z\350"
 351      5F27DB92 
 351      9E176B3C 
 351      5F2956A8 
 351      8592A75A 
 352 0506 162FF7F8 		.ascii	"\026/\367\370\337\015\333\303\230\202:\004],\235\000"
 352      DF0DDBC3 
 352      98823A04 
 352      5D2C9D00 
 353 0516 317DD39B 		.ascii	"1}\323\233\374\330u\324n\346\271\316\233\302\006S\271"
 353      FCD875D4 
 353      6EE6B9CE 
 353      9BC20653 
 353      B9
 354 0527 BA83EA88 		.ascii	"\272\203\352\210<|\016G4\024\365W\261\372\220\367\""
 354      3C7C0E47 
 354      3414F557 
 354      B1FA90F7 
 354      22
 355 0538 FCC1D5E9 		.ascii	"\374\301\325\351r\017\311\352\314Q\325\351\3011\250"
 355      720FC9EA 
 355      CC51D5E9 
 355      C131A8
 356 0547 7C3904B0 		.ascii	"|9\004\260U\226a,g\250\266Z\016\233?\333\355~{\2321"
 356      5596612C 
 356      67A8B65A 
 356      0E9B3FDB 
 356      ED7E7B9A 
 357 055c 16F0F8F2 		.ascii	"\026\360\370\362\346\302A~\367\374IV\2763\315\0313\262"
 357      E6C2417E 
 357      F7FC4956 
 357      BE33CD19 
 357      33B2
 358 056e F9998C0B 		.ascii	"\371\231\214\013\270\214\227\012^B\306\273\212\301\251"
 358      B88C970A 
 358      5E42C6BB 
 358      8AC1A9
 359 057d 6E61F4D8 		.ascii	"na\364\330\263\354\237_\376\230\347\263h\266\345\356"
 359      B3EC9F5F 
 359      FE98E7B3 
 359      68B6E5EE 
 360 058d A9BAB5C9 		.ascii	"\251\272\265\311\272\305s\204\372\205\246%\207\360\276"
 360      BAC57384 
 360      FA85A625 
 360      87F0BE
 361 059c A2DB6159 		.ascii	"\242\333aY\220\370\020W\331\344\253dO\345\265\002\305"
 361      90F81057 
 361      D9E4AB64 
 361      4FE5B502 
 361      C5
 362 05ad 373399E4 		.ascii	"73\231\344\201|C1\262\321#os\266\304\220*\204S\217\006"
 362      817C4331 
 362      B2D1236F 
 362      73B6C490 
 362      2A84538F 
ARM GAS  C:\Users\Luggi\AppData\Local\Temp\ccrqAUL9.s 			page 28


 363 05c2 C8E5CB49 		.ascii	"\310\345\313IU\301f\271\212\0362R\362\231\320\013\324"
 363      55C166B9 
 363      8A1E3252 
 363      F299D00B 
 363      D4
 364 05d3 4F15C57F 		.ascii	"O\025\305\177=go#\221|\"\366@\234\355\226\216\214\266"
 364      3D676F23 
 364      917C22F6 
 364      409CED96 
 364      8E8CB6
 365 05e6 EC2B7573 		.ascii	"\354+us\227\221j\004 .\234\246\036\201\310\267\256\\"
 365      97916A04 
 365      202E9CA6 
 365      1E81C8B7 
 365      AE5C
 366 05f8 EC46274F 		.ascii	"\354F'O&i6\233\365\252r=\322\360\360\004\202\010\372"
 366      2669369B 
 366      F5AA723D 
 366      D2F0F004 
 366      8208FA
 367 060b AA46D627 		.ascii	"\252F\326'!dG\321\210|p\023cE\252:\265\027\374\357U"
 367      216447D1 
 367      887C7013 
 367      6345AA3A 
 367      B517FCEF 
 368 0620 DE17FA5E 		.ascii	"\336\027\372^\364_\221\217\300\322\331J\331?\355\325"
 368      F45F918F 
 368      C0D2D94A 
 368      D93FEDD5 
 369 0630 934CE2E9 		.ascii	"\223L\342\351G\304K\331n\200\255\227\314\012\032E?\313"
 369      47C44BD9 
 369      6E80AD97 
 369      CC0A1A45 
 369      3FCB
 370 0642 FCE0F2DD 		.ascii	"\374\340\362\335]Ma|\027@\006\311\327\324\222w\035\033"
 370      5D4D617C 
 370      174006C9 
 370      D7D49277 
 370      1D1B
 371 0654 1CCEB599 		.ascii	"\034\316\265\231\216\214\264\324\215\233\234\351\216"
 371      8E8CB4D4 
 371      8D9B9CE9 
 371      8E
 372 0661 351FA66E 		.ascii	"5\037\246n\\\271|M\312\252\225i\251)\253\323^K\313\374"
 372      5CB97C4D 
 372      CAAA9569 
 372      A929ABD3 
 372      5E4BCBFC 
 373 0675 C291B2F2 		.ascii	"\302\221\262\362\203\367\227\245#c\372\372/W\255\373"
 373      83F797A5 
 373      2363FAFA 
 373      2F57ADFB 
 374 0685 7A5D86C3 		.ascii	"z]\206\303\251s:\276\312\\\353\314\32496\254\375|\275"
 374      A9733ABE 
 374      CA5CEBCC 
 374      D43936AC 
 374      FD7CBD
ARM GAS  C:\Users\Luggi\AppData\Local\Temp\ccrqAUL9.s 			page 29


 375 0698 234397BE 		.ascii	"#C\227\276\311\351Lu\246\0337\256\317\220C\376\005\352"
 375      C9E94C75 
 375      A61B37AE 
 375      CF9043FE 
 375      05EA
 376 06aa F54F04   		.ascii	"\365O\004"
 377              		.text
 378              		.section	.gnu.lto_ADC_SAR_1_theACLK_SetSourceRegister.304b4b6b,"",%progbits
 379 0000 789C8D54 		.ascii	"x\234\215T]h\034U\024>\347\316\356\314\354o\326\244"
 379      5D681C55 
 379      143EE7CE 
 379      EECCEC6F 
 379      D6A4
 380 0012 699AA549 		.ascii	"i\232\245I\032\226\022D\251\370 \370 4!E\037\364A\314"
 380      1A961244 
 380      A9F820F8 
 380      20342145 
 380      1FF441CC 
 381 0026 A38520DB 		.ascii	"\243\205 \333\200b1\260\264}\221\222\331dK\203T-y(\305"
 381      806231B0 
 381      B47D9192 
 381      D9644B83 
 381      542D7928 
 382 003b 10516A6D 		.ascii	"\020Qjm4\232m\323v\243\266\266\333\030B\241\244\177"
 382      349A6DD3 
 382      76A3B6B6 
 382      DB1842A1 
 382      A47F
 383 004d 56636A89 		.ascii	"Vcj\2115&5\025\222\264l\210\331J\273\236s\357\354f\\"
 383      35263515 
 383      92B46C88 
 383      D94ABB9E 
 383      73EFEC66 
 384 0062 75C9C29E 		.ascii	"u\311\302\236\231{\356\367\235\371\316w\356\214\006"
 384      997BEEF7 
 384      9DF9CE77 
 384      EE8C06
 385 0071 FFFEF5D0 		.ascii	"\377\376\365\320?\251\003<OW\364\003\212\203\227\001"
 385      3FA9033C 
 385      4F57F403 
 385      8A839701 
 386 0081 E2A6105A 		.ascii	"\342\246\020Zw\003X^\235\243_\023.\307\312%\334gkyu"
 386      7703585E 
 386      9DA35F13 
 386      2EC7CA25 
 386      DC676B79 
 387 0096 E3295AB9 		.ascii	"\343)Z\271\321\247(\2720$\310+A\2060\035+Sx$\305+)\236"
 387      D1A728BA 
 387      3024C82B 
 387      4186301D 
 387      2B537824 
 388 00ae 3CC59BBF 		.ascii	"<\305\233\277\361!\362\015 t\010\315\345\326\015\323"
 388      F121F20D 
 388      207408CD 
 388      E5D60DD3 
 389 00be E3F56107 		.ascii	"\343\365a\007\336\025\367\005\036L\017\034\3665\034"
 389      DE15F705 
ARM GAS  C:\Users\Luggi\AppData\Local\Temp\ccrqAUL9.s 			page 30


 389      1E4C0F1C 
 389      F6351C
 390 00cd B52CEBDE 		.ascii	"\265,\353\336\320d\365\276\015Y\001\220\021J>\036\303"
 390      D064F5BE 
 390      0D590190 
 390      114A3E1E 
 390      C3
 391 00de 068264A7 		.ascii	"\006\202d\247gF\275\332\026\004\272?~\375\223\213\270"
 391      6746BDDA 
 391      1604BA3F 
 391      7EFD938B 
 391      B8
 392 00ef F9886575 		.ascii	"\371\210eu\246\347\006\255F\314\012\304~\324\210\201"
 392      A6E706AD 
 392      46CC0AC4 
 392      7ED48881 
 393 00ff 4F86F1F1 		.ascii	"O\206\361\3610P\002\3603\334\314\340\324\370\351\221"
 393      305002F0 
 393      33DCCCE0 
 393      D4F8E991 
 394 010f 32ED5949 		.ascii	"2\355YI\2744\275\222\361\317\211\254\020!^~01\273\244"
 394      BC34BD92 
 394      F1CF89AC 
 394      10215E7E 
 394      3031BBA4 
 395 0123 F15213BC 		.ascii	"\361R\023\274\034\357\217\357\013D>\246\262\267\307"
 395      1CEF8FEF 
 395      0B443EA6 
 395      B2B7C7
 396 0132 DFDDEFB7 		.ascii	"\337\335\357\267\372\255\304\355\\\256.+\\\370\271\252"
 396      FAADC4ED 
 396      5CAE2E2B 
 396      5CF8B9AA 
 397 0142 3E8061FC 		.ascii	">\200a\374\002\303\266\261DY<ub\217\326(kg\036\276?"
 397      02C3B6B1 
 397      44593C75 
 397      628FD628 
 397      6B671EBE 
 398 0157 1154ECCB 		.ascii	"\021T\354\313\363c>\353p\236\2158\350\324V\340\336O"
 398      F3633EEB 
 398      709E8D38 
 398      E8D456E0 
 398      DE4F
 399 0169 3C9CF0E9 		.ascii	"<\234\360\351\011j:\204_b\004\223\030QM\343q\324\021"
 399      096A3A84 
 399      5F620493 
 399      18514DE3 
 399      71D411
 400 017c 40E4B3C9 		.ascii	"@\344\263\311\362\264\225\313\235\274shn\253\036q\001"
 400      F2B495CB 
 400      9DBC7368 
 400      6EAB1E71 
 400      01
 401 018d A775E00D 		.ascii	"\247u\340\015\003\271I\223\332u{8\3708\370)\350\001"
 401      03B94993 
 401      DA757B38 
 401      F838F829 
ARM GAS  C:\Users\Luggi\AppData\Local\Temp\ccrqAUL9.s 			page 31


 401      E801
 402 019f 0E410E65 		.ascii	"\016A\016e\034B\274Q\316\241\202\227\3538TrX\317\241"
 402      1C42BC51 
 402      CEA18297 
 402      EB385472 
 402      58CFA1
 403 01b2 8A37AA39 		.ascii	"\2127\2529\260s\356\215\034jx\243\226C\035\207M\034"
 403      B073EE8D 
 403      1C6A78A3 
 403      96431D87 
 403      4D1C
 404 01c4 EA790360 		.ascii	"\352y\003`\2064\362(g\205\340\253v\013\273\322\275\275"
 404      8634F228 
 404      6785E0AB 
 404      760BBBD2 
 404      BDBD
 405 01d6 4156FDA7 		.ascii	"AV\375\247pQc\037~\377\336\240\330\373\227\325m\231"
 405      7051631F 
 405      7EFFDEA0 
 405      D8FB97D5 
 405      6D99
 406 01e8 59616468 		.ascii	"Yadh\026\200'p/\261M\370\021\205l\217z 00\267\357\347"
 406      16802770 
 406      2FB14DF8 
 406      11856C8F 
 406      7A203030 
 407 01ff 80E2EAC5 		.ascii	"\200\342\352\305\\O\206\036\0018$\271\336\0027\311\\"
 407      5C4F861E 
 407      013824B9 
 407      DE0237C9 
 407      5C
 408 0210 1D7EC0C4 		.ascii	"\035~\300\304d\327o\251\015\253\344\370\247g\016\030"
 408      64D76FA9 
 408      0DABE4F8 
 408      A7670E18 
 409 0220 3C4F5289 		.ascii	"<OR\211'\3559\315\012\015\272\0334B\377\3245\255)\260"
 409      27ED39CD 
 409      0A0DBA1B 
 409      3442FFD4 
 409      35AD29B0 
 410 0234 E1D875C1 		.ascii	"\341\330u\301h\205\332\375=\365\366j\023\205Z>\252u"
 410      6885DAFD 
 410      3DF5F66A 
 410      13855A3E 
 410      AA75
 411 0246 AA8076C3 		.ascii	"\252\200v\303\025C\273\211#\313\357,\314\037B\0057\011"
 411      1543BB89 
 411      23CBEF2C 
 411      CC1F4205 
 411      3709
 412 0258 3E399AFC 		.ascii	">9\232\374U\036%\177O<n\271x\276\277\314\\\271f\312"
 412      551E257F 
 412      4F3C6EB9 
 412      78BEBFCC 
 412      5CB966CA 
 413 026c 941CF7AD 		.ascii	"\224\034\367\255\003W\037\004\373\2607\236\240\363\032"
 413      03571F04 
ARM GAS  C:\Users\Luggi\AppData\Local\Temp\ccrqAUL9.s 			page 32


 413      FBB0379E 
 413      A0F31A
 414 027b C0D37494 		.ascii	"\300\323t\224R\\\026\207\261\017\341&v-\351\252\234"
 414      525C1687 
 414      B10FE126 
 414      762DE9AA 
 414      9C
 415 028c 47551C3A 		.ascii	"GU\034:r4\345\221\3154\002~EHzj\217|b\251b_S1*\001R"
 415      7234E591 
 415      CD34027E 
 415      45487A6A 
 415      8F7C62A9 
 416 02a7 E2A3F9E7 		.ascii	"\342\243\371\347TI_)\3127\352\371\235S\373\227\013-"
 416      54495F29 
 416      CA37EAF9 
 416      9D53FB97 
 416      0B2D
 417 02b9 F989C39A 		.ascii	"\371\211\303\232VlM\001JQ\215?\322\017nHM\372J\316\376"
 417      566C4D01 
 417      4A518D3F 
 417      D20F6E48 
 417      4DFA4ACE 
 418 02ce D12B7C46 		.ascii	"\321+|F\212\353\2342\0246H\376:\373)\223\364\240\023"
 418      8AEB9C32 
 418      143648FE 
 418      3AFB2993 
 418      F4A013
 419 02e1 12A2ECFF 		.ascii	"\022\242\354\377\364\023OW\377S\336Y\331QH\272\257\303"
 419      F4134F57 
 419      FF53DE59 
 419      D95148BA 
 419      AFC3
 420 02f3 853150C3 		.ascii	"\2051P\303:6\\c\017\3361K\003>\212h\362\\,\377\307\244"
 420      3A365C63 
 420      0FDE314B 
 420      033E8A68 
 420      F25C2CFF 
 421 0309 4DB8FA98 		.ascii	"M\270\372\230\"\017\014w\330\223v\214\326\003\367t5"
 421      220F0C77 
 421      D893768C 
 421      D603F774 
 421      35
 422 031a DA470BB6 		.ascii	"\332G\013\266o\345\245|\373v\325\267\205\274o\025\304"
 422      6FE5A57C 
 422      FB76D5B7 
 422      85BC6F15 
 422      C4
 423 032b 71FAB68E 		.ascii	"q\372\266\216R\305\376T\026\371\263^\302*\235\220*\312"
 423      52C5FE54 
 423      16F9B35E 
 423      C22A9D90 
 423      2ACA
 424 033d AED59F73 		.ascii	"\256\325\237s\322\237*5\361\261\305\274\222\352R\322"
 424      D29F2A35 
 424      F1B1C5BC 
 424      92EA52D2 
 425 034d CFDB472E 		.ascii	"\317\333G./3\254\360w\257/M\006y\274\201\363\364\375"
ARM GAS  C:\Users\Luggi\AppData\Local\Temp\ccrqAUL9.s 			page 33


 425      2F33ACF0 
 425      77AF2F4D 
 425      0679BC81 
 425      F3F4FD
 426 0360 4CAFF5CC 		.ascii	"L\257\365\314]\220\012\302\322D/\\\333j\277\037\213"
 426      5D900AC2 
 426      D2442F5C 
 426      DB6ABF1F 
 426      8B
 427 0371 B6891B4B 		.ascii	"\266\211\033KqG\012&\336)H\257!\216S]-\245\212M\254"
 427      71470A26 
 427      DE2948AF 
 427      218E535D 
 427      2DA58A4D 
 428 0386 2B327193 		.ascii	"+2q\223\204\3259!\365\224]\253\211\337\311\026\352e"
 428      84D53921 
 428      F5945DAB 
 428      89DFC916 
 428      EA65
 429 0398 0B3EF955 		.ascii	"\013>\371U\233\302x:\367*3\371t\314\320G\214\262\364"
 429      9BC2783A 
 429      F72A33F9 
 429      74CCD047 
 429      8CB2F4
 430 03ab 357AE285 		.ascii	"5z\342\205\266\267\332b\257\355j\333\321\332\322\276"
 430      B6B7DA62 
 430      AFED6ADB 
 430      D1DAD2BE 
 431 03bb 3B166DDB 		.ascii	";\026m\333\376rK{\3633\333\233\2665\267\2664\275\322"
 431      FE724B7B 
 431      F333DB9B 
 431      B635B7B6 
 431      34BDD2
 432 03ce FA74EBAE 		.ascii	"\372t\353\256\327\333\232\232_zqK\024<\321\235o*\220"
 432      D7DB9A9A 
 432      5F7A714B 
 432      143CD19D 
 432      6F2A90
 433 03e1 11DD1D8B 		.ascii	"\021\335\035\213m{c\217\336\276sGK,\3727s\314g\211"
 433      6D7B638F 
 433      DEBE7347 
 433      4B2CFA37 
 433      73CC6789 
 434              		.text
 435              		.section	.gnu.lto_.symbol_nodes.304b4b6b,"",%progbits
 436 0000 789C55C7 		.ascii	"x\234U\307\273\015\2000\020\004\321\265\317\306\347"
 436      BB0D8030 
 436      1004D1B5 
 436      CFC6E7
 437 000f 6B7A5B20 		.ascii	"kz[ \"F\024D@\005\210B\020\342\023\260\223\214\236\001"
 437      22461444 
 437      40058842 
 437      10E213B0 
 437      938C9E01 
 438 0023 D8F09541 		.ascii	"\330\360\225A`\\\001\022\323\354\310\211I\234\231\305"
 438      605C0112 
 438      D3ECC889 
ARM GAS  C:\Users\Luggi\AppData\Local\Temp\ccrqAUL9.s 			page 34


 438      499C99C5 
 439 0033 46135716 		.ascii	"F\023W\026\361\300*n\034\304\316&\016\272\270\260\213"
 439      F1C02A6E 
 439      1CC4CE26 
 439      0EBAB8B0 
 439      8B
 440 0044 3BE36FEB 		.ascii	";\343o\353\216e?\223\365\202\343~\224\327\341\217q\001"
 440      8E653F93 
 440      F582E37E 
 440      94D7E18F 
 440      7101
 441 0056 DBE8393B 		.ascii	"\333\3509;"
 442              		.text
 443              		.section	.gnu.lto_.refs.304b4b6b,"",%progbits
 444 0000 789C6366 		.ascii	"x\234cf```d\200\002\000\000=\000\005"
 444      60606064 
 444      80020000 
 444      3D0005
 445              		.text
 446              		.section	.gnu.lto_.decls.304b4b6b,"",%progbits
 447 0000 789C8D55 		.ascii	"x\234\215UmLSW\030\276\247\247\224R*\370\013\027\226"
 447      6D4C5357 
 447      18BEA7A7 
 447      94522AF8 
 447      0B1796
 448 0013 6C355B88 		.ascii	"l5[\210\313\210\013?f\374\2671LX\342\\\210d\2774!\014"
 448      CB880B3F 
 448      66FCB731 
 448      4C58E25C 
 448      8864BF34 
 449 0029 6E84CC50 		.ascii	"n\204\314PS\353\026~\355\212(\037\032!:\006\222\351"
 449      53EB167E 
 449      ED8A281F 
 449      1A213A06 
 449      92E9
 450 003b D844BE3F 		.ascii	"\330D\276?*\303\215\202\214\226\002-\264`\371\030\312"
 450      2AC38D82 
 450      8C96022D 
 450      B460F918 
 450      CA
 451 004c 503E2EBA 		.ascii	"P>.\272\221-sl:\025Q\357\336s\356\275\353m{\031\334"
 451      912D736C 
 451      3A1551EF 
 451      DE73EEBD 
 451      EB6D7B19 
 452 0061 E46D7BCE 		.ascii	"\344m{\316}\237\347}\337\347}\317)f\030f\007f\030\001"
 452      7D9FE77D 
 452      DFE77DCF 
 452      29661866 
 452      07661801 
 453 0075 1E3E9261 		.ascii	"\036>\222a&\020\303\030a/\015L\003\026\007fb\304'\032"
 453      2610C318 
 453      612F0D4C 
 453      03160766 
 453      62C4271A 
 454 0089 AC05AC0D 		.ascii	"\254\005\254\015\314\006f\007s\201\015\202\271\301F"
 454      CC066607 
ARM GAS  C:\Users\Luggi\AppData\Local\Temp\ccrqAUL9.s 			page 35


 454      73810D82 
 454      B9C146
 455 0098 C07C60E3 		.ascii	"\300|`\343`\223L\370C\260Z\211\233\360\336\002\233\226"
 455      60934CF8 
 455      43B05A89 
 455      9BF0DE02 
 455      9B96
 456 00aa DE21E97D 		.ascii	"\336!\351}\350\323\266\001\246M\005c\223r%\230\030F"
 456      E8D3B601 
 456      A64D0563 
 456      93722598 
 456      1846
 457 00bc ACC71182 		.ascii	"\254\307\021\202\237\003\273\0036\017v[\301gS\341#u"
 457      9F03BB03 
 457      360F765B 
 457      C16753E1 
 457      2375
 458 00ce 46487C9D 		.ascii	"FH|\235\353\344aW\301\271$\2342\0079\256\214s\251\340"
 458      EBE46157 
 458      C1B9249C 
 458      320739AE 
 458      8C73A9E0 
 459 00e2 889EBA90 		.ascii	"\210\236\272\220x\274J\314A\025\254{\023\271\272Up\244"
 459      78BC4ACC 
 459      4115AC7B 
 459      13B9BA55 
 459      70A4
 460 00f4 77DAFFC1 		.ascii	"w\332\377\301\214\250`|\033`|*\0302\033\261Lxo:%,\341"
 460      8CA8607C 
 460      1B607C2A 
 460      18321BB1 
 460      4C786F3A 
 461 010b 5902F380 		.ascii	"Y\002\363\200\335\005sJ\274&&\270WX\342\"1\3244\234"
 461      DD05734A 
 461      BC2626B8 
 461      5758E222 
 461      31D4349C 
 462 011f 94F8651D 		.ascii	"\224\370e\035B\347\200W\360\313\361L!5`\211\307\265"
 462      42E78057 
 462      F0CBF14C 
 462      21356089 
 462      C7B5
 463 0131 4E2D7F69 		.ascii	"N-\177i\220\275\355\341h\364\262\006\305\030Ld\331}"
 463      90BDEDE1 
 463      68F4B206 
 463      C5184C64 
 463      D97D
 464 0143 CE53A583 		.ascii	"\316S\245\203\245\321\240%\313\2365~J\273\255\202\203"
 464      A5D1A025 
 464      CB9E357E 
 464      4ABBAD82 
 464      83
 465 0154 A7FC04B7 		.ascii	"\247\374\004\267U\213\322\342P=\212G\015(\036\024jD"
 465      558BD2E2 
 465      503D8A47 
 465      0D281E14 
 465      6A44
ARM GAS  C:\Users\Luggi\AppData\Local\Temp\ccrqAUL9.s 			page 36


 466 0166 DBE0F380 		.ascii	"\333\340\363\200Vdj\031\273\321\250\307\032D~_\256Z"
 466      56646A19 
 466      BBD1A8C7 
 466      1A447E5F 
 466      AE5A
 467 0178 9C322436 		.ascii	"\2342$6\001\254\230s\370q \334y\376\324\213\030\323"
 467      01AC9873 
 467      F87120DC 
 467      79FED48B 
 467      18D3
 468 018a 25AEC6B6 		.ascii	"%\256\306\2662\334=c\344<\234C\020\336\241T\250\011"
 468      32DC3D63 
 468      E43C9C43 
 468      10DEA154 
 468      A809
 469 019c 61D48C12 		.ascii	"a\324\214\022\251\370\360[\354B\0132\001\254~\301\337"
 469      A9F8F05B 
 469      EC420B32 
 469      01AC7EC1 
 469      DF
 470 01ad 1B89F751 		.ascii	"\033\211\367Q\356\225\211\226e\015\245\250)\273\254"
 470      EE958996 
 470      650DA5A8 
 470      29BBAC
 471 01bc 130928BE 		.ascii	"\023\011(\276U\201o\225\361m\024\337\374|\332\251\303"
 471      55816F95 
 471      F16D14DF 
 471      FC7CDAA9 
 471      C3
 472 01cd D9147FAA 		.ascii	"\331\024\177\252q|I\302\373\202\360\355\012|\273\214"
 472      717C49C2 
 472      FB82F0ED 
 472      0A7CBB8C 
 473 01dd B751FC74 		.ascii	"\267Q\374t_Q\221\036s\210\022\034\257\3539\023\011\032"
 473      5F51911E 
 473      7388121C 
 473      AFEB3913 
 473      091A
 474 01ef C5196849 		.ascii	"\305\031hIg\275\325NL\227\002y\255\231\231\371b\025"
 474      67BDD54E 
 474      4C970279 
 474      AD9999F9 
 474      6215
 475 0201 23434231 		.ascii	"#CB1\307\025p+\3478\374\022\203\022\343\321\033\361"
 475      C715702B 
 475      E738FC12 
 475      8312E3D1 
 475      1BF1
 476 0213 0CBA8612 		.ascii	"\014\272\206\022\300\215\006A\035 \343w c-\210\264r"
 476      C08D0641 
 476      1D20E377 
 476      20632D88 
 476      B472
 477 0225 76B069EF 		.ascii	"v\260i\357\011\356]\324\211\014\350\352\177i\320\010"
 477      09EE5DD4 
 477      890CE8EA 
 477      7F69D008 
ARM GAS  C:\Users\Luggi\AppData\Local\Temp\ccrqAUL9.s 			page 37


 478 0235 9270E527 		.ascii	"\222p\345'\235\345Z-\\h\324\347\000\355\316?\302\342"
 478      9DE55A2D 
 478      5C68D4E7 
 478      00EDCE3F 
 478      C2E2
 479 0247 15CDBADD 		.ascii	"\025\315\272\335\371\201v\347{$\265\207\353\277\312"
 479      F98176E7 
 479      7B24B587 
 479      EBBFCA
 480 0256 6FC10D62 		.ascii	"o\301\015b\011\013\027\277\2514JmxZ\212/p5\005\334\013"
 480      090B17BF 
 480      A9344A6D 
 480      785A8A2F 
 480      703505DC 
 481 026b 01F22728 		.ascii	"\001\362'(\324\245\020\242K\026\302N\205\360\362O\036"
 481      D4A510A2 
 481      4B16C24E 
 481      85F0F24F 
 481      1E
 482 027c 18E9B86C 		.ascii	"\030\351\270l%<\3257\357=\304t\\4dy\361\357\373\327"
 482      253CD537 
 482      EF3DC474 
 482      5C346479 
 482      F1EFFBD7 
 483 0290 A3B03B58 		.ascii	"\243\260;X&\223(S\345\357O:\365t)\010\230\350T\347\177"
 483      26932853 
 483      E5EF4F3A 
 483      F5742908 
 483      98E854E7 
 484 02a5 5C1D8312 		.ascii	"\\\035\203\022\014\242\000\367D\001\034P\334\365\200"
 484      0CA200F7 
 484      44011C50 
 484      DCF580
 485 02b4 00264900 		.ascii	"\000&I\000\252%w\202\213\330\301\240n\250\260\007*D"
 485      AA257782 
 485      8BD8C1A0 
 485      6EA8B007 
 485      2A44
 486 02c6 7DA0A649 		.ascii	"}\240\246IR\263\0276\177\204M\010\264\306O\332\203T"
 486      52B31736 
 486      7F844D08 
 486      B4C64FDA 
 486      8354
 487 02d8 219C0159 		.ascii	"!\234\001Y\234AC\353j\252*\213\305cb\306\015%7\377\324"
 487      9C4143EB 
 487      6AAA2A8B 
 487      C56362C6 
 487      0D2537FF 
 488 02ed 832A0BA0 		.ascii	"\203*\013\240J\307y\243B\025\000\241~\205*\375\262*"
 488      4AC779A3 
 488      421500A1 
 488      7E852AFD 
 488      B22A
 489 02ff 2EAACA6A 		.ascii	".\252\312j\327\013g\004~ \262\234\356ox\026E\265]\370"
 489      D70B6704 
 489      7E20B29C 
 489      EE6F7816 
ARM GAS  C:\Users\Luggi\AppData\Local\Temp\ccrqAUL9.s 			page 38


 489      45B55DF8 
 490 0313 CACB3A0A 		.ascii	"\312\313:\012\271g\244`*\354\200\202b@\246\030\244\024"
 490      B967A460 
 490      2AEC8082 
 490      6240A618 
 490      A414
 491 0325 FCD7D58D 		.ascii	"\374\327\325\215F\\!\036\237\371s\266FiD\347\233\345"
 491      465C211E 
 491      9FF973B6 
 491      466944E7 
 491      9BE5
 492 0337 11250443 		.ascii	"\021%\004C\012\202!\231\300M\011J\012mXYugP\325\236"
 492      0A822199 
 492      C04D094A 
 492      0A6D5859 
 492      756750D5 
 493 034c A0AAD75C 		.ascii	"\240\252\327\\\277]\321`\273\030l\210?\357\222\362="
 493      BF5DD160 
 493      BB186C88 
 493      3FEF92F2 
 493      3D
 494 035d F347205F 		.ascii	"\363G _@\240aE\270a9\334\010\015\327\3271\373\213\016"
 494      40A06145 
 494      B86139DC 
 494      080DD7D7 
 494      31FB8B0E 
 495 0371 CF8A1417 		.ascii	"\317\212\024\027\306l9T\267\232\206v9]\202\367*\360"
 495      C66C3954 
 495      B79A8676 
 495      395D82F7 
 495      2AF0
 496 0383 5E19EFA3 		.ascii	"^\031\357\243x\265y^\235\031}\244\241{\244e\243\210"
 496      78B5795E 
 496      9D197DA4 
 496      A17BA465 
 496      A388
 497 0395 6EB636BA 		.ascii	"n\2666\272+\"\327\035\362\033\264\2561y\310\035\374"
 497      2B22D71D 
 497      F21BB4AE 
 497      3179C81D 
 497      FC
 498 03a6 60651416 		.ascii	"`e\024\026\304\254\374\255S\365X,\254\304\035(\014 "
 498      C4ACFCAD 
 498      53F5582C 
 498      ACC41D28 
 498      0C20
 499 03b8 C8AF48CC 		.ascii	"\310\257H\314/'6N\023{|\337\353\321\342ZL)\270\"\341"
 499      2F27364E 
 499      137B7CDF 
 499      EBD1E25A 
 499      4C29B822 
 500 03cd A94E6C84 		.ascii	"\251Nl\204\267U\331\210\011\005\301\204L0I\011\270\312"
 500      B755D988 
 500      0905C184 
 500      4C304909 
 500      B8CA
 501 03df D3B57AEC 		.ascii	"\323\265z\354\021\011\256=*\265o1\024\223\331\335\370"
ARM GAS  C:\Users\Luggi\AppData\Local\Temp\ccrqAUL9.s 			page 39


 501      1109AE3D 
 501      2AB56F31 
 501      1493D9DD 
 501      F8
 502 03f0 2A804331 		.ascii	"*\200C15V:\035%^\036\241\210\233\353^\036'\373\214\303"
 502      35563A1D 
 502      255E1EA1 
 502      889BEB5E 
 502      1E27FB8C 
 503 0405 1CA747D3 		.ascii	"\034\247G\323\240\332T\340\360\374\204\002\327\307\224"
 503      A0DA54E0 
 503      F0FC8402 
 503      D7C794
 504 0414 B760161B 		.ascii	"\267`\026\033K\3111\002\025\243\336\247\276\001\031"
 504      4BC93102 
 504      15A3DEA7 
 504      BE0119
 505 0423 6F2123AD 		.ascii	"o!#\255\000\276\311\177\302\330\354\034\306\243b\005"
 505      00BEC97F 
 505      C2D8EC1C 
 505      C6A36205 
 506 0433 03B7BE1C 		.ascii	"\003\267\276\0345\212\025l\356\000j\312\352\216\373"
 506      358A156C 
 506      EE006ACA 
 506      EA8EFB
 507 0442 22A5835D 		.ascii	"\"\245\203]\363<I\217nC\254\231@^?\243\300\251\016'"
 507      F33C498F 
 507      6E43AC99 
 507      405E3FA3 
 507      C0A90E27 
 508 0456 9D553FD5 		.ascii	"\235U?\325\266\271\356\211h9\215\342\315 \374N\276:"
 508      B6B9EE89 
 508      68398DE2 
 508      CD20FC4E 
 508      BE3A
 509 0468 5A59F29D 		.ascii	"ZY\362\235\240\222\347\244\222\347h\311\003\276\336"
 509      A092E7A4 
 509      92E768C9 
 509      03BEDE
 510 0477 5F754AE7 		.ascii	"_uJ\347\333A\316\363\222\363<q\306m\343}\2274(>\336"
 510      DB41CEF3 
 510      92F33C71 
 510      C66DE37D 
 510      9734283E 
 511 048c 50057F6F 		.ascii	"P\005\177oO^E<\024D~:\226\005\341sA|\312\"\351v1\231"
 511      4F5E453C 
 511      14447E3A 
 511      9605E173 
 511      417CCA22 
 512 04a4 DB950245 		.ascii	"\333\225\002E\037\031\272\317\240E _ \351\303\222\\"
 512      1F19BACF 
 512      A045205F 
 512      20E9C392 
 512      5C
 513 04b5 9DDFAE78 		.ascii	"\235\337\256x\202\262%\347'\220\300\222\224\300\022"
 513      82B225E7 
 513      2790C092 
ARM GAS  C:\Users\Luggi\AppData\Local\Temp\ccrqAUL9.s 			page 40


 513      94C012
 514 04c4 CDB6CB3E 		.ascii	"\315\266\313>R\030\253tv\0069\337\225\234\311\367\266"
 514      5218AB74 
 514      760639DF 
 514      959CC9F7 
 514      B6
 515 04d5 E43D2919 		.ascii	"\344=)\031\351\311\3733\2222\2549lr\312\007{3\322\255"
 515      E9C9FB33 
 515      9232AC39 
 515      6C72CA07 
 515      7B33D2AD 
 516 04e9 9916AB2E 		.ascii	"\231\026\253.\365\303\217L)\314\233\251l\036k\311\264"
 516      F5C38F4C 
 516      29CC9BA9 
 516      6C1E6BC9 
 516      B4
 517 04fa B2D919E9 		.ascii	"\262\331\031\351\346c\226,\366`Z\2729\345\355\203a\250"
 517      E663962C 
 517      F6605ABA 
 517      39E5ED83 
 517      61A8
 518 050c 9D594C9C 		.ascii	"\235YL\234\032\225\371\310\313\352\333\357\0356g}\022"
 518      1A95F9C8 
 518      CBEADBEF 
 518      1D36677D 
 518      12
 519 051d 712C37CF 		.ascii	"q,7\317\272{\273z\220\267\262\362\255\371G\330\243;"
 519      BA7BBB7A 
 519      90B7B2F2 
 519      ADF947D8 
 519      A33B
 520 052f 73985754 		.ascii	"s\230WT\263\314\313\3768?\315\374\031k\321\021\232\244"
 520      B3CCCBFE 
 520      383FCDFC 
 520      196BD111 
 520      9AA4
 521 0541 5DAF877B 		.ascii	"]\257\207{\245\262\326=\271\237\346f\263\226\375\354"
 521      A5B2D63D 
 521      B99FE666 
 521      B396FDEC 
 522 0551 A1DCA356 		.ascii	"\241\334\243V\326\262]\205\212\265\3563g\263\262\307"
 522      D6B25D85 
 522      8AB5EE33 
 522      67B3B2C7 
 523 0561 6BE11E29 		.ascii	"k\341\036)\207\331L\213\322G\205%uC\026\360\020\353"
 523      87D94C8B 
 523      D2478525 
 523      754316F0 
 523      10EB
 524 0573 937D5412 		.ascii	"\223}T\022N\017KX\205(=\224Hka\017\355\216\200\217\244"
 524      4E0F4B58 
 524      85283D94 
 524      486B610F 
 524      ED8E808F 
 525 0588 5DFF022E 		.ascii	"]\377\002.\220V\004"
 525      905604
 526              		.text
ARM GAS  C:\Users\Luggi\AppData\Local\Temp\ccrqAUL9.s 			page 41


 527              		.section	.gnu.lto_.symtab.304b4b6b,"",%progbits
 528 0000 4144435F 		.ascii	"ADC_SAR_1_theACLK_Start\000\000\000\000\000\000\000"
 528      5341525F 
 528      315F7468 
 528      6541434C 
 528      4B5F5374 
 529 001e 00000000 		.ascii	"\000\000\000\000\000\254\000\000\000ADC_SAR_1_theAC"
 529      00AC0000 
 529      00414443 
 529      5F534152 
 529      5F315F74 
 530 0036 4C4B5F53 		.ascii	"LK_Stop\000\000\000\000\000\000\000\000\000\000\000"
 530      746F7000 
 530      00000000 
 530      00000000 
 530      0000
 531 0048 00AE0000 		.ascii	"\000\256\000\000\000ADC_SAR_1_theACLK_StopBlock\000"
 531      00414443 
 531      5F534152 
 531      5F315F74 
 531      68654143 
 532 0069 00000000 		.ascii	"\000\000\000\000\000\000\000\000\000\000\000\260\000"
 532      00000000 
 532      000000B0 
 532      00
 533 0076 00004144 		.ascii	"\000\000ADC_SAR_1_theACLK_StandbyPower\000\000\000\000"
 533      435F5341 
 533      525F315F 
 533      74686541 
 533      434C4B5F 
 534 009a 00000000 		.ascii	"\000\000\000\000\000\000\000\000\271\000\000\000ADC"
 534      00000000 
 534      B9000000 
 534      414443
 535 00a9 5F534152 		.ascii	"_SAR_1_theACLK_GetDividerRegister\000\000\000\000\000"
 535      5F315F74 
 535      68654143 
 535      4C4B5F47 
 535      65744469 
 536 00cf 00000000 		.ascii	"\000\000\000\000\000\000\000\303\000\000\000ADC_SAR"
 536      000000C3 
 536      00000041 
 536      44435F53 
 536      4152
 537 00e1 5F315F74 		.ascii	"_1_theACLK_SetModeRegister\000\000\000\000\000\000\000"
 537      68654143 
 537      4C4B5F53 
 537      65744D6F 
 537      64655265 
 538 0102 00000000 		.ascii	"\000\000\000\000\000\305\000\000\000ADC_SAR_1_theAC"
 538      00C50000 
 538      00414443 
 538      5F534152 
 538      5F315F74 
 539 011a 4C4B5F43 		.ascii	"LK_ClearModeRegister\000\000\000\000\000\000\000\000"
 539      6C656172 
 539      4D6F6465 
ARM GAS  C:\Users\Luggi\AppData\Local\Temp\ccrqAUL9.s 			page 42


 539      52656769 
 539      73746572 
 540 0136 00000000 		.ascii	"\000\000\000\000\307\000\000\000ADC_SAR_1_theACLK_G"
 540      C7000000 
 540      4144435F 
 540      5341525F 
 540      315F7468 
 541 0151 65744D6F 		.ascii	"etModeRegister\000\000\000\000\000\000\000\000\000\000"
 541      64655265 
 541      67697374 
 541      65720000 
 541      00000000 
 542 0169 0000CA00 		.ascii	"\000\000\312\000\000\000ADC_SAR_1_theACLK_GetSource"
 542      00004144 
 542      435F5341 
 542      525F315F 
 542      74686541 
 543 018a 52656769 		.ascii	"Register\000\000\000\000\000\000\000\000\000\000\000"
 543      73746572 
 543      00000000 
 543      00000000 
 543      000000
 544 019d 00CC0000 		.ascii	"\000\314\000\000\000ADC_SAR_1_theACLK_SetDividerReg"
 544      00414443 
 544      5F534152 
 544      5F315F74 
 544      68654143 
 545 01c1 69737465 		.ascii	"ister\000\000\000\000\000\000\000\000\000\000\000\000"
 545      72000000 
 545      00000000 
 545      00000000 
 545      00
 546 01d2 D1000000 		.ascii	"\321\000\000\000ADC_SAR_1_theACLK_SetSourceRegister"
 546      4144435F 
 546      5341525F 
 546      315F7468 
 546      6541434C 
 547 01f9 00000000 		.ascii	"\000\000\000\000\000\000\000\000\000\000\000\000\323"
 547      00000000 
 547      00000000 
 547      D3
 548 0206 000000   		.ascii	"\000\000\000"
 549              		.text
 550              		.section	.gnu.lto_.opts,"",%progbits
 551 0000 272D666E 		.ascii	"'-fno-trapv' '-fno-strict-overflow' '-mcpu=cortex-m"
 551      6F2D7472 
 551      61707627 
 551      20272D66 
 551      6E6F2D73 
 552 0033 33272027 		.ascii	"3' '-mthumb' '-g' '-Og' '-ffunction-sections' '-flt"
 552      2D6D7468 
 552      756D6227 
 552      20272D67 
 552      2720272D 
 553 0066 6F272027 		.ascii	"o' '-ffat-lto-objects'\000"
 553      2D666661 
 553      742D6C74 
ARM GAS  C:\Users\Luggi\AppData\Local\Temp\ccrqAUL9.s 			page 43


 553      6F2D6F62 
 553      6A656374 
 554              		.text
 555              		.cfi_sections	.debug_frame
 556              		.section	.text.ADC_SAR_1_theACLK_Start,"ax",%progbits
 557              		.align	2
 558              		.global	ADC_SAR_1_theACLK_Start
 559              		.thumb
 560              		.thumb_func
 561              		.type	ADC_SAR_1_theACLK_Start, %function
 562              	ADC_SAR_1_theACLK_Start:
 563              	.LFB0:
 564              		.file 1 "Generated_Source\\PSoC5\\ADC_SAR_1_theACLK.c"
   1:Generated_Source\PSoC5/ADC_SAR_1_theACLK.c **** /*******************************************************************************
   2:Generated_Source\PSoC5/ADC_SAR_1_theACLK.c **** * File Name: ADC_SAR_1_theACLK.c
   3:Generated_Source\PSoC5/ADC_SAR_1_theACLK.c **** * Version 2.10
   4:Generated_Source\PSoC5/ADC_SAR_1_theACLK.c **** *
   5:Generated_Source\PSoC5/ADC_SAR_1_theACLK.c **** *  Description:
   6:Generated_Source\PSoC5/ADC_SAR_1_theACLK.c **** *   This file provides the source code to the API for the clock component.
   7:Generated_Source\PSoC5/ADC_SAR_1_theACLK.c **** *
   8:Generated_Source\PSoC5/ADC_SAR_1_theACLK.c **** *  Note:
   9:Generated_Source\PSoC5/ADC_SAR_1_theACLK.c **** *
  10:Generated_Source\PSoC5/ADC_SAR_1_theACLK.c **** ********************************************************************************
  11:Generated_Source\PSoC5/ADC_SAR_1_theACLK.c **** * Copyright 2008-2012, Cypress Semiconductor Corporation.  All rights reserved.
  12:Generated_Source\PSoC5/ADC_SAR_1_theACLK.c **** * You may use this file only in accordance with the license, terms, conditions, 
  13:Generated_Source\PSoC5/ADC_SAR_1_theACLK.c **** * disclaimers, and limitations in the end user license agreement accompanying 
  14:Generated_Source\PSoC5/ADC_SAR_1_theACLK.c **** * the software package with which this file was provided.
  15:Generated_Source\PSoC5/ADC_SAR_1_theACLK.c **** *******************************************************************************/
  16:Generated_Source\PSoC5/ADC_SAR_1_theACLK.c **** 
  17:Generated_Source\PSoC5/ADC_SAR_1_theACLK.c **** #include <cydevice_trm.h>
  18:Generated_Source\PSoC5/ADC_SAR_1_theACLK.c **** #include "ADC_SAR_1_theACLK.h"
  19:Generated_Source\PSoC5/ADC_SAR_1_theACLK.c **** 
  20:Generated_Source\PSoC5/ADC_SAR_1_theACLK.c **** /* Clock Distribution registers. */
  21:Generated_Source\PSoC5/ADC_SAR_1_theACLK.c **** #define CLK_DIST_LD              (* (reg8 *) CYREG_CLKDIST_LD)
  22:Generated_Source\PSoC5/ADC_SAR_1_theACLK.c **** #define CLK_DIST_BCFG2           (* (reg8 *) CYREG_CLKDIST_BCFG2)
  23:Generated_Source\PSoC5/ADC_SAR_1_theACLK.c **** #define BCFG2_MASK               (0x80u)
  24:Generated_Source\PSoC5/ADC_SAR_1_theACLK.c **** #define CLK_DIST_DMASK           (* (reg8 *) CYREG_CLKDIST_DMASK)
  25:Generated_Source\PSoC5/ADC_SAR_1_theACLK.c **** #define CLK_DIST_AMASK           (* (reg8 *) CYREG_CLKDIST_AMASK)
  26:Generated_Source\PSoC5/ADC_SAR_1_theACLK.c **** 
  27:Generated_Source\PSoC5/ADC_SAR_1_theACLK.c **** #define HAS_CLKDIST_LD_DISABLE   (CY_PSOC3 || CY_PSOC5LP)
  28:Generated_Source\PSoC5/ADC_SAR_1_theACLK.c **** 
  29:Generated_Source\PSoC5/ADC_SAR_1_theACLK.c **** 
  30:Generated_Source\PSoC5/ADC_SAR_1_theACLK.c **** /*******************************************************************************
  31:Generated_Source\PSoC5/ADC_SAR_1_theACLK.c **** * Function Name: ADC_SAR_1_theACLK_Start
  32:Generated_Source\PSoC5/ADC_SAR_1_theACLK.c **** ********************************************************************************
  33:Generated_Source\PSoC5/ADC_SAR_1_theACLK.c **** *
  34:Generated_Source\PSoC5/ADC_SAR_1_theACLK.c **** * Summary:
  35:Generated_Source\PSoC5/ADC_SAR_1_theACLK.c **** *  Starts the clock. Note that on startup, clocks may be already running if the
  36:Generated_Source\PSoC5/ADC_SAR_1_theACLK.c **** *  "Start on Reset" option is enabled in the DWR.
  37:Generated_Source\PSoC5/ADC_SAR_1_theACLK.c **** *
  38:Generated_Source\PSoC5/ADC_SAR_1_theACLK.c **** * Parameters:
  39:Generated_Source\PSoC5/ADC_SAR_1_theACLK.c **** *  None
  40:Generated_Source\PSoC5/ADC_SAR_1_theACLK.c **** *
  41:Generated_Source\PSoC5/ADC_SAR_1_theACLK.c **** * Returns:
  42:Generated_Source\PSoC5/ADC_SAR_1_theACLK.c **** *  None
  43:Generated_Source\PSoC5/ADC_SAR_1_theACLK.c **** *
  44:Generated_Source\PSoC5/ADC_SAR_1_theACLK.c **** *******************************************************************************/
ARM GAS  C:\Users\Luggi\AppData\Local\Temp\ccrqAUL9.s 			page 44


  45:Generated_Source\PSoC5/ADC_SAR_1_theACLK.c **** void ADC_SAR_1_theACLK_Start(void) 
  46:Generated_Source\PSoC5/ADC_SAR_1_theACLK.c **** {
 565              		.loc 1 46 0
 566              		.cfi_startproc
 567              		@ args = 0, pretend = 0, frame = 0
 568              		@ frame_needed = 0, uses_anonymous_args = 0
 569              		@ link register save eliminated.
  47:Generated_Source\PSoC5/ADC_SAR_1_theACLK.c ****     /* Set the bit to enable the clock. */
  48:Generated_Source\PSoC5/ADC_SAR_1_theACLK.c ****     ADC_SAR_1_theACLK_CLKEN |= ADC_SAR_1_theACLK_CLKEN_MASK;
 570              		.loc 1 48 0
 571 0000 054A     		ldr	r2, .L2
 572 0002 1378     		ldrb	r3, [r2]	@ zero_extendqisi2
 573 0004 43F01003 		orr	r3, r3, #16
 574 0008 1370     		strb	r3, [r2]
  49:Generated_Source\PSoC5/ADC_SAR_1_theACLK.c **** 	ADC_SAR_1_theACLK_CLKSTBY |= ADC_SAR_1_theACLK_CLKSTBY_MASK;
 575              		.loc 1 49 0
 576 000a 1032     		adds	r2, r2, #16
 577 000c 1378     		ldrb	r3, [r2]	@ zero_extendqisi2
 578 000e 43F01003 		orr	r3, r3, #16
 579 0012 1370     		strb	r3, [r2]
 580 0014 7047     		bx	lr
 581              	.L3:
 582 0016 00BF     		.align	2
 583              	.L2:
 584 0018 A2430040 		.word	1073759138
 585              		.cfi_endproc
 586              	.LFE0:
 587              		.size	ADC_SAR_1_theACLK_Start, .-ADC_SAR_1_theACLK_Start
 588              		.section	.text.ADC_SAR_1_theACLK_Stop,"ax",%progbits
 589              		.align	2
 590              		.global	ADC_SAR_1_theACLK_Stop
 591              		.thumb
 592              		.thumb_func
 593              		.type	ADC_SAR_1_theACLK_Stop, %function
 594              	ADC_SAR_1_theACLK_Stop:
 595              	.LFB1:
  50:Generated_Source\PSoC5/ADC_SAR_1_theACLK.c **** }
  51:Generated_Source\PSoC5/ADC_SAR_1_theACLK.c **** 
  52:Generated_Source\PSoC5/ADC_SAR_1_theACLK.c **** 
  53:Generated_Source\PSoC5/ADC_SAR_1_theACLK.c **** /*******************************************************************************
  54:Generated_Source\PSoC5/ADC_SAR_1_theACLK.c **** * Function Name: ADC_SAR_1_theACLK_Stop
  55:Generated_Source\PSoC5/ADC_SAR_1_theACLK.c **** ********************************************************************************
  56:Generated_Source\PSoC5/ADC_SAR_1_theACLK.c **** *
  57:Generated_Source\PSoC5/ADC_SAR_1_theACLK.c **** * Summary:
  58:Generated_Source\PSoC5/ADC_SAR_1_theACLK.c **** *  Stops the clock and returns immediately. This API does not require the
  59:Generated_Source\PSoC5/ADC_SAR_1_theACLK.c **** *  source clock to be running but may return before the hardware is actually
  60:Generated_Source\PSoC5/ADC_SAR_1_theACLK.c **** *  disabled. If the settings of the clock are changed after calling this
  61:Generated_Source\PSoC5/ADC_SAR_1_theACLK.c **** *  function, the clock may glitch when it is started. To avoid the clock
  62:Generated_Source\PSoC5/ADC_SAR_1_theACLK.c **** *  glitch, use the StopBlock function.
  63:Generated_Source\PSoC5/ADC_SAR_1_theACLK.c **** *
  64:Generated_Source\PSoC5/ADC_SAR_1_theACLK.c **** * Parameters:
  65:Generated_Source\PSoC5/ADC_SAR_1_theACLK.c **** *  None
  66:Generated_Source\PSoC5/ADC_SAR_1_theACLK.c **** *
  67:Generated_Source\PSoC5/ADC_SAR_1_theACLK.c **** * Returns:
  68:Generated_Source\PSoC5/ADC_SAR_1_theACLK.c **** *  None
  69:Generated_Source\PSoC5/ADC_SAR_1_theACLK.c **** *
  70:Generated_Source\PSoC5/ADC_SAR_1_theACLK.c **** *******************************************************************************/
ARM GAS  C:\Users\Luggi\AppData\Local\Temp\ccrqAUL9.s 			page 45


  71:Generated_Source\PSoC5/ADC_SAR_1_theACLK.c **** void ADC_SAR_1_theACLK_Stop(void) 
  72:Generated_Source\PSoC5/ADC_SAR_1_theACLK.c **** {
 596              		.loc 1 72 0
 597              		.cfi_startproc
 598              		@ args = 0, pretend = 0, frame = 0
 599              		@ frame_needed = 0, uses_anonymous_args = 0
 600              		@ link register save eliminated.
  73:Generated_Source\PSoC5/ADC_SAR_1_theACLK.c ****     /* Clear the bit to disable the clock. */
  74:Generated_Source\PSoC5/ADC_SAR_1_theACLK.c ****     ADC_SAR_1_theACLK_CLKEN &= (uint8)(~ADC_SAR_1_theACLK_CLKEN_MASK);
 601              		.loc 1 74 0
 602 0000 054A     		ldr	r2, .L5
 603 0002 1378     		ldrb	r3, [r2]	@ zero_extendqisi2
 604 0004 03F0EF03 		and	r3, r3, #239
 605 0008 1370     		strb	r3, [r2]
  75:Generated_Source\PSoC5/ADC_SAR_1_theACLK.c **** 	ADC_SAR_1_theACLK_CLKSTBY &= (uint8)(~ADC_SAR_1_theACLK_CLKSTBY_MASK);
 606              		.loc 1 75 0
 607 000a 1032     		adds	r2, r2, #16
 608 000c 1378     		ldrb	r3, [r2]	@ zero_extendqisi2
 609 000e 03F0EF03 		and	r3, r3, #239
 610 0012 1370     		strb	r3, [r2]
 611 0014 7047     		bx	lr
 612              	.L6:
 613 0016 00BF     		.align	2
 614              	.L5:
 615 0018 A2430040 		.word	1073759138
 616              		.cfi_endproc
 617              	.LFE1:
 618              		.size	ADC_SAR_1_theACLK_Stop, .-ADC_SAR_1_theACLK_Stop
 619              		.section	.text.ADC_SAR_1_theACLK_StopBlock,"ax",%progbits
 620              		.align	2
 621              		.global	ADC_SAR_1_theACLK_StopBlock
 622              		.thumb
 623              		.thumb_func
 624              		.type	ADC_SAR_1_theACLK_StopBlock, %function
 625              	ADC_SAR_1_theACLK_StopBlock:
 626              	.LFB2:
  76:Generated_Source\PSoC5/ADC_SAR_1_theACLK.c **** }
  77:Generated_Source\PSoC5/ADC_SAR_1_theACLK.c **** 
  78:Generated_Source\PSoC5/ADC_SAR_1_theACLK.c **** 
  79:Generated_Source\PSoC5/ADC_SAR_1_theACLK.c **** #if(CY_PSOC3 || CY_PSOC5LP)
  80:Generated_Source\PSoC5/ADC_SAR_1_theACLK.c **** 
  81:Generated_Source\PSoC5/ADC_SAR_1_theACLK.c **** 
  82:Generated_Source\PSoC5/ADC_SAR_1_theACLK.c **** /*******************************************************************************
  83:Generated_Source\PSoC5/ADC_SAR_1_theACLK.c **** * Function Name: ADC_SAR_1_theACLK_StopBlock
  84:Generated_Source\PSoC5/ADC_SAR_1_theACLK.c **** ********************************************************************************
  85:Generated_Source\PSoC5/ADC_SAR_1_theACLK.c **** *
  86:Generated_Source\PSoC5/ADC_SAR_1_theACLK.c **** * Summary:
  87:Generated_Source\PSoC5/ADC_SAR_1_theACLK.c **** *  Stops the clock and waits for the hardware to actually be disabled before
  88:Generated_Source\PSoC5/ADC_SAR_1_theACLK.c **** *  returning. This ensures that the clock is never truncated (high part of the
  89:Generated_Source\PSoC5/ADC_SAR_1_theACLK.c **** *  cycle will terminate before the clock is disabled and the API returns).
  90:Generated_Source\PSoC5/ADC_SAR_1_theACLK.c **** *  Note that the source clock must be running or this API will never return as
  91:Generated_Source\PSoC5/ADC_SAR_1_theACLK.c **** *  a stopped clock cannot be disabled.
  92:Generated_Source\PSoC5/ADC_SAR_1_theACLK.c **** *
  93:Generated_Source\PSoC5/ADC_SAR_1_theACLK.c **** * Parameters:
  94:Generated_Source\PSoC5/ADC_SAR_1_theACLK.c **** *  None
  95:Generated_Source\PSoC5/ADC_SAR_1_theACLK.c **** *
  96:Generated_Source\PSoC5/ADC_SAR_1_theACLK.c **** * Returns:
ARM GAS  C:\Users\Luggi\AppData\Local\Temp\ccrqAUL9.s 			page 46


  97:Generated_Source\PSoC5/ADC_SAR_1_theACLK.c **** *  None
  98:Generated_Source\PSoC5/ADC_SAR_1_theACLK.c **** *
  99:Generated_Source\PSoC5/ADC_SAR_1_theACLK.c **** *******************************************************************************/
 100:Generated_Source\PSoC5/ADC_SAR_1_theACLK.c **** void ADC_SAR_1_theACLK_StopBlock(void) 
 101:Generated_Source\PSoC5/ADC_SAR_1_theACLK.c **** {
 627              		.loc 1 101 0
 628              		.cfi_startproc
 629              		@ args = 0, pretend = 0, frame = 0
 630              		@ frame_needed = 0, uses_anonymous_args = 0
 631              		@ link register save eliminated.
 102:Generated_Source\PSoC5/ADC_SAR_1_theACLK.c ****     if ((ADC_SAR_1_theACLK_CLKEN & ADC_SAR_1_theACLK_CLKEN_MASK) != 0u)
 632              		.loc 1 102 0
 633 0000 164B     		ldr	r3, .L10
 634 0002 1B78     		ldrb	r3, [r3]	@ zero_extendqisi2
 635 0004 13F0100F 		tst	r3, #16
 636 0008 27D0     		beq	.L7
 637              	.LBB2:
 103:Generated_Source\PSoC5/ADC_SAR_1_theACLK.c ****     {
 104:Generated_Source\PSoC5/ADC_SAR_1_theACLK.c **** #if HAS_CLKDIST_LD_DISABLE
 105:Generated_Source\PSoC5/ADC_SAR_1_theACLK.c ****         uint16 oldDivider;
 106:Generated_Source\PSoC5/ADC_SAR_1_theACLK.c **** 
 107:Generated_Source\PSoC5/ADC_SAR_1_theACLK.c ****         CLK_DIST_LD = 0u;
 638              		.loc 1 107 0
 639 000a 1549     		ldr	r1, .L10+4
 640 000c 0023     		movs	r3, #0
 641 000e 0B70     		strb	r3, [r1]
 108:Generated_Source\PSoC5/ADC_SAR_1_theACLK.c **** 
 109:Generated_Source\PSoC5/ADC_SAR_1_theACLK.c ****         /* Clear all the mask bits except ours. */
 110:Generated_Source\PSoC5/ADC_SAR_1_theACLK.c **** #if defined(ADC_SAR_1_theACLK__CFG3)
 111:Generated_Source\PSoC5/ADC_SAR_1_theACLK.c ****         CLK_DIST_AMASK = ADC_SAR_1_theACLK_CLKEN_MASK;
 112:Generated_Source\PSoC5/ADC_SAR_1_theACLK.c ****         CLK_DIST_DMASK = 0x00u;
 113:Generated_Source\PSoC5/ADC_SAR_1_theACLK.c **** #else
 114:Generated_Source\PSoC5/ADC_SAR_1_theACLK.c ****         CLK_DIST_DMASK = ADC_SAR_1_theACLK_CLKEN_MASK;
 642              		.loc 1 114 0
 643 0010 1020     		movs	r0, #16
 644 0012 144A     		ldr	r2, .L10+8
 645 0014 1070     		strb	r0, [r2]
 115:Generated_Source\PSoC5/ADC_SAR_1_theACLK.c ****         CLK_DIST_AMASK = 0x00u;
 646              		.loc 1 115 0
 647 0016 0432     		adds	r2, r2, #4
 648 0018 1370     		strb	r3, [r2]
 116:Generated_Source\PSoC5/ADC_SAR_1_theACLK.c **** #endif /* ADC_SAR_1_theACLK__CFG3 */
 117:Generated_Source\PSoC5/ADC_SAR_1_theACLK.c **** 
 118:Generated_Source\PSoC5/ADC_SAR_1_theACLK.c ****         /* Clear mask of bus clock. */
 119:Generated_Source\PSoC5/ADC_SAR_1_theACLK.c ****         CLK_DIST_BCFG2 &= (uint8)(~BCFG2_MASK);
 649              		.loc 1 119 0
 650 001a 0C3A     		subs	r2, r2, #12
 651 001c 1378     		ldrb	r3, [r2]	@ zero_extendqisi2
 652 001e 03F07F03 		and	r3, r3, #127
 653 0022 1370     		strb	r3, [r2]
 120:Generated_Source\PSoC5/ADC_SAR_1_theACLK.c **** 
 121:Generated_Source\PSoC5/ADC_SAR_1_theACLK.c ****         oldDivider = CY_GET_REG16(ADC_SAR_1_theACLK_DIV_PTR);
 654              		.loc 1 121 0
 655 0024 104B     		ldr	r3, .L10+12
 656 0026 1A88     		ldrh	r2, [r3]
 657 0028 92B2     		uxth	r2, r2
 658              	.LVL0:
ARM GAS  C:\Users\Luggi\AppData\Local\Temp\ccrqAUL9.s 			page 47


 122:Generated_Source\PSoC5/ADC_SAR_1_theACLK.c ****         CY_SET_REG16(CYREG_CLKDIST_WRK0, oldDivider);
 659              		.loc 1 122 0
 660 002a 8E3B     		subs	r3, r3, #142
 661 002c 1A80     		strh	r2, [r3]	@ movhi
 123:Generated_Source\PSoC5/ADC_SAR_1_theACLK.c ****         CLK_DIST_LD = CYCLK_LD_DISABLE | CYCLK_LD_SYNC_EN | CYCLK_LD_LOAD;
 662              		.loc 1 123 0
 663 002e 0723     		movs	r3, #7
 664 0030 0B70     		strb	r3, [r1]
 665              	.L9:
 124:Generated_Source\PSoC5/ADC_SAR_1_theACLK.c **** 
 125:Generated_Source\PSoC5/ADC_SAR_1_theACLK.c ****         /* Wait for clock to be disabled */
 126:Generated_Source\PSoC5/ADC_SAR_1_theACLK.c ****         while ((CLK_DIST_LD & CYCLK_LD_LOAD) != 0u) { }
 666              		.loc 1 126 0 discriminator 1
 667 0032 0B4B     		ldr	r3, .L10+4
 668 0034 1B78     		ldrb	r3, [r3]	@ zero_extendqisi2
 669 0036 13F0010F 		tst	r3, #1
 670 003a FAD1     		bne	.L9
 127:Generated_Source\PSoC5/ADC_SAR_1_theACLK.c **** #endif /* HAS_CLKDIST_LD_DISABLE */
 128:Generated_Source\PSoC5/ADC_SAR_1_theACLK.c **** 
 129:Generated_Source\PSoC5/ADC_SAR_1_theACLK.c ****         /* Clear the bit to disable the clock. */
 130:Generated_Source\PSoC5/ADC_SAR_1_theACLK.c ****         ADC_SAR_1_theACLK_CLKEN &= (uint8)(~ADC_SAR_1_theACLK_CLKEN_MASK);
 671              		.loc 1 130 0
 672 003c 0749     		ldr	r1, .L10
 673 003e 0B78     		ldrb	r3, [r1]	@ zero_extendqisi2
 674 0040 03F0EF03 		and	r3, r3, #239
 675 0044 0B70     		strb	r3, [r1]
 131:Generated_Source\PSoC5/ADC_SAR_1_theACLK.c ****         ADC_SAR_1_theACLK_CLKSTBY &= (uint8)(~ADC_SAR_1_theACLK_CLKSTBY_MASK);
 676              		.loc 1 131 0
 677 0046 1031     		adds	r1, r1, #16
 678 0048 0B78     		ldrb	r3, [r1]	@ zero_extendqisi2
 679 004a 03F0EF03 		and	r3, r3, #239
 680 004e 0B70     		strb	r3, [r1]
 132:Generated_Source\PSoC5/ADC_SAR_1_theACLK.c **** 
 133:Generated_Source\PSoC5/ADC_SAR_1_theACLK.c **** #if HAS_CLKDIST_LD_DISABLE
 134:Generated_Source\PSoC5/ADC_SAR_1_theACLK.c ****         /* Clear the disable bit */
 135:Generated_Source\PSoC5/ADC_SAR_1_theACLK.c ****         CLK_DIST_LD = 0x00u;
 681              		.loc 1 135 0
 682 0050 0021     		movs	r1, #0
 683 0052 034B     		ldr	r3, .L10+4
 684 0054 1970     		strb	r1, [r3]
 136:Generated_Source\PSoC5/ADC_SAR_1_theACLK.c ****         CY_SET_REG16(ADC_SAR_1_theACLK_DIV_PTR, oldDivider);
 685              		.loc 1 136 0
 686 0056 8F33     		adds	r3, r3, #143
 687 0058 1A80     		strh	r2, [r3]	@ movhi
 688              	.LVL1:
 689              	.L7:
 690 005a 7047     		bx	lr
 691              	.L11:
 692              		.align	2
 693              	.L10:
 694 005c A2430040 		.word	1073759138
 695 0060 01400040 		.word	1073758209
 696 0064 10400040 		.word	1073758224
 697 0068 90400040 		.word	1073758352
 698              	.LBE2:
 699              		.cfi_endproc
 700              	.LFE2:
ARM GAS  C:\Users\Luggi\AppData\Local\Temp\ccrqAUL9.s 			page 48


 701              		.size	ADC_SAR_1_theACLK_StopBlock, .-ADC_SAR_1_theACLK_StopBlock
 702              		.section	.text.ADC_SAR_1_theACLK_StandbyPower,"ax",%progbits
 703              		.align	2
 704              		.global	ADC_SAR_1_theACLK_StandbyPower
 705              		.thumb
 706              		.thumb_func
 707              		.type	ADC_SAR_1_theACLK_StandbyPower, %function
 708              	ADC_SAR_1_theACLK_StandbyPower:
 709              	.LFB3:
 137:Generated_Source\PSoC5/ADC_SAR_1_theACLK.c **** #endif /* HAS_CLKDIST_LD_DISABLE */
 138:Generated_Source\PSoC5/ADC_SAR_1_theACLK.c ****     }
 139:Generated_Source\PSoC5/ADC_SAR_1_theACLK.c **** }
 140:Generated_Source\PSoC5/ADC_SAR_1_theACLK.c **** #endif /* (CY_PSOC3 || CY_PSOC5LP) */
 141:Generated_Source\PSoC5/ADC_SAR_1_theACLK.c **** 
 142:Generated_Source\PSoC5/ADC_SAR_1_theACLK.c **** 
 143:Generated_Source\PSoC5/ADC_SAR_1_theACLK.c **** /*******************************************************************************
 144:Generated_Source\PSoC5/ADC_SAR_1_theACLK.c **** * Function Name: ADC_SAR_1_theACLK_StandbyPower
 145:Generated_Source\PSoC5/ADC_SAR_1_theACLK.c **** ********************************************************************************
 146:Generated_Source\PSoC5/ADC_SAR_1_theACLK.c **** *
 147:Generated_Source\PSoC5/ADC_SAR_1_theACLK.c **** * Summary:
 148:Generated_Source\PSoC5/ADC_SAR_1_theACLK.c **** *  Sets whether the clock is active in standby mode.
 149:Generated_Source\PSoC5/ADC_SAR_1_theACLK.c **** *
 150:Generated_Source\PSoC5/ADC_SAR_1_theACLK.c **** * Parameters:
 151:Generated_Source\PSoC5/ADC_SAR_1_theACLK.c **** *  state:  0 to disable clock during standby, nonzero to enable.
 152:Generated_Source\PSoC5/ADC_SAR_1_theACLK.c **** *
 153:Generated_Source\PSoC5/ADC_SAR_1_theACLK.c **** * Returns:
 154:Generated_Source\PSoC5/ADC_SAR_1_theACLK.c **** *  None
 155:Generated_Source\PSoC5/ADC_SAR_1_theACLK.c **** *
 156:Generated_Source\PSoC5/ADC_SAR_1_theACLK.c **** *******************************************************************************/
 157:Generated_Source\PSoC5/ADC_SAR_1_theACLK.c **** void ADC_SAR_1_theACLK_StandbyPower(uint8 state) 
 158:Generated_Source\PSoC5/ADC_SAR_1_theACLK.c **** {
 710              		.loc 1 158 0
 711              		.cfi_startproc
 712              		@ args = 0, pretend = 0, frame = 0
 713              		@ frame_needed = 0, uses_anonymous_args = 0
 714              		@ link register save eliminated.
 715              	.LVL2:
 159:Generated_Source\PSoC5/ADC_SAR_1_theACLK.c ****     if(state == 0u)
 716              		.loc 1 159 0
 717 0000 28B9     		cbnz	r0, .L13
 160:Generated_Source\PSoC5/ADC_SAR_1_theACLK.c ****     {
 161:Generated_Source\PSoC5/ADC_SAR_1_theACLK.c ****         ADC_SAR_1_theACLK_CLKSTBY &= (uint8)(~ADC_SAR_1_theACLK_CLKSTBY_MASK);
 718              		.loc 1 161 0
 719 0002 064A     		ldr	r2, .L15
 720 0004 1378     		ldrb	r3, [r2]	@ zero_extendqisi2
 721 0006 03F0EF03 		and	r3, r3, #239
 722 000a 1370     		strb	r3, [r2]
 723 000c 7047     		bx	lr
 724              	.L13:
 162:Generated_Source\PSoC5/ADC_SAR_1_theACLK.c ****     }
 163:Generated_Source\PSoC5/ADC_SAR_1_theACLK.c ****     else
 164:Generated_Source\PSoC5/ADC_SAR_1_theACLK.c ****     {
 165:Generated_Source\PSoC5/ADC_SAR_1_theACLK.c ****         ADC_SAR_1_theACLK_CLKSTBY |= ADC_SAR_1_theACLK_CLKSTBY_MASK;
 725              		.loc 1 165 0
 726 000e 034A     		ldr	r2, .L15
 727 0010 1378     		ldrb	r3, [r2]	@ zero_extendqisi2
 728 0012 43F01003 		orr	r3, r3, #16
ARM GAS  C:\Users\Luggi\AppData\Local\Temp\ccrqAUL9.s 			page 49


 729 0016 1370     		strb	r3, [r2]
 730 0018 7047     		bx	lr
 731              	.L16:
 732 001a 00BF     		.align	2
 733              	.L15:
 734 001c B2430040 		.word	1073759154
 735              		.cfi_endproc
 736              	.LFE3:
 737              		.size	ADC_SAR_1_theACLK_StandbyPower, .-ADC_SAR_1_theACLK_StandbyPower
 738              		.section	.text.ADC_SAR_1_theACLK_GetDividerRegister,"ax",%progbits
 739              		.align	2
 740              		.global	ADC_SAR_1_theACLK_GetDividerRegister
 741              		.thumb
 742              		.thumb_func
 743              		.type	ADC_SAR_1_theACLK_GetDividerRegister, %function
 744              	ADC_SAR_1_theACLK_GetDividerRegister:
 745              	.LFB5:
 166:Generated_Source\PSoC5/ADC_SAR_1_theACLK.c ****     }
 167:Generated_Source\PSoC5/ADC_SAR_1_theACLK.c **** }
 168:Generated_Source\PSoC5/ADC_SAR_1_theACLK.c **** 
 169:Generated_Source\PSoC5/ADC_SAR_1_theACLK.c **** 
 170:Generated_Source\PSoC5/ADC_SAR_1_theACLK.c **** /*******************************************************************************
 171:Generated_Source\PSoC5/ADC_SAR_1_theACLK.c **** * Function Name: ADC_SAR_1_theACLK_SetDividerRegister
 172:Generated_Source\PSoC5/ADC_SAR_1_theACLK.c **** ********************************************************************************
 173:Generated_Source\PSoC5/ADC_SAR_1_theACLK.c **** *
 174:Generated_Source\PSoC5/ADC_SAR_1_theACLK.c **** * Summary:
 175:Generated_Source\PSoC5/ADC_SAR_1_theACLK.c **** *  Modifies the clock divider and, thus, the frequency. When the clock divider
 176:Generated_Source\PSoC5/ADC_SAR_1_theACLK.c **** *  register is set to zero or changed from zero, the clock will be temporarily
 177:Generated_Source\PSoC5/ADC_SAR_1_theACLK.c **** *  disabled in order to change the SSS mode bit. If the clock is enabled when
 178:Generated_Source\PSoC5/ADC_SAR_1_theACLK.c **** *  SetDividerRegister is called, then the source clock must be running.
 179:Generated_Source\PSoC5/ADC_SAR_1_theACLK.c **** *
 180:Generated_Source\PSoC5/ADC_SAR_1_theACLK.c **** * Parameters:
 181:Generated_Source\PSoC5/ADC_SAR_1_theACLK.c **** *  clkDivider:  Divider register value (0-65,535). This value is NOT the
 182:Generated_Source\PSoC5/ADC_SAR_1_theACLK.c **** *    divider; the clock hardware divides by clkDivider plus one. For example,
 183:Generated_Source\PSoC5/ADC_SAR_1_theACLK.c **** *    to divide the clock by 2, this parameter should be set to 1.
 184:Generated_Source\PSoC5/ADC_SAR_1_theACLK.c **** *  restart:  If nonzero, restarts the clock divider: the current clock cycle
 185:Generated_Source\PSoC5/ADC_SAR_1_theACLK.c **** *   will be truncated and the new divide value will take effect immediately. If
 186:Generated_Source\PSoC5/ADC_SAR_1_theACLK.c **** *   zero, the new divide value will take effect at the end of the current clock
 187:Generated_Source\PSoC5/ADC_SAR_1_theACLK.c **** *   cycle.
 188:Generated_Source\PSoC5/ADC_SAR_1_theACLK.c **** *
 189:Generated_Source\PSoC5/ADC_SAR_1_theACLK.c **** * Returns:
 190:Generated_Source\PSoC5/ADC_SAR_1_theACLK.c **** *  None
 191:Generated_Source\PSoC5/ADC_SAR_1_theACLK.c **** *
 192:Generated_Source\PSoC5/ADC_SAR_1_theACLK.c **** *******************************************************************************/
 193:Generated_Source\PSoC5/ADC_SAR_1_theACLK.c **** void ADC_SAR_1_theACLK_SetDividerRegister(uint16 clkDivider, uint8 restart)
 194:Generated_Source\PSoC5/ADC_SAR_1_theACLK.c ****                                 
 195:Generated_Source\PSoC5/ADC_SAR_1_theACLK.c **** {
 196:Generated_Source\PSoC5/ADC_SAR_1_theACLK.c ****     uint8 enabled;
 197:Generated_Source\PSoC5/ADC_SAR_1_theACLK.c **** 
 198:Generated_Source\PSoC5/ADC_SAR_1_theACLK.c ****     uint8 currSrc = ADC_SAR_1_theACLK_GetSourceRegister();
 199:Generated_Source\PSoC5/ADC_SAR_1_theACLK.c ****     uint16 oldDivider = ADC_SAR_1_theACLK_GetDividerRegister();
 200:Generated_Source\PSoC5/ADC_SAR_1_theACLK.c **** 
 201:Generated_Source\PSoC5/ADC_SAR_1_theACLK.c ****     if (clkDivider != oldDivider)
 202:Generated_Source\PSoC5/ADC_SAR_1_theACLK.c ****     {
 203:Generated_Source\PSoC5/ADC_SAR_1_theACLK.c ****         enabled = ADC_SAR_1_theACLK_CLKEN & ADC_SAR_1_theACLK_CLKEN_MASK;
 204:Generated_Source\PSoC5/ADC_SAR_1_theACLK.c **** 
 205:Generated_Source\PSoC5/ADC_SAR_1_theACLK.c ****         if ((currSrc == (uint8)CYCLK_SRC_SEL_CLK_SYNC_D) && ((oldDivider == 0u) || (clkDivider == 0
ARM GAS  C:\Users\Luggi\AppData\Local\Temp\ccrqAUL9.s 			page 50


 206:Generated_Source\PSoC5/ADC_SAR_1_theACLK.c ****         {
 207:Generated_Source\PSoC5/ADC_SAR_1_theACLK.c ****             /* Moving to/from SSS requires correct ordering to prevent halting the clock    */
 208:Generated_Source\PSoC5/ADC_SAR_1_theACLK.c ****             if (oldDivider == 0u)
 209:Generated_Source\PSoC5/ADC_SAR_1_theACLK.c ****             {
 210:Generated_Source\PSoC5/ADC_SAR_1_theACLK.c ****                 /* Moving away from SSS, set the divider first so when SSS is cleared we    */
 211:Generated_Source\PSoC5/ADC_SAR_1_theACLK.c ****                 /* don't halt the clock.  Using the shadow load isn't required as the       */
 212:Generated_Source\PSoC5/ADC_SAR_1_theACLK.c ****                 /* divider is ignored while SSS is set.                                     */
 213:Generated_Source\PSoC5/ADC_SAR_1_theACLK.c ****                 CY_SET_REG16(ADC_SAR_1_theACLK_DIV_PTR, clkDivider);
 214:Generated_Source\PSoC5/ADC_SAR_1_theACLK.c ****                 ADC_SAR_1_theACLK_MOD_SRC &= (uint8)(~CYCLK_SSS);
 215:Generated_Source\PSoC5/ADC_SAR_1_theACLK.c ****             }
 216:Generated_Source\PSoC5/ADC_SAR_1_theACLK.c ****             else
 217:Generated_Source\PSoC5/ADC_SAR_1_theACLK.c ****             {
 218:Generated_Source\PSoC5/ADC_SAR_1_theACLK.c ****                 /* Moving to SSS, set SSS which then ignores the divider and we can set     */
 219:Generated_Source\PSoC5/ADC_SAR_1_theACLK.c ****                 /* it without bothering with the shadow load.                               */
 220:Generated_Source\PSoC5/ADC_SAR_1_theACLK.c ****                 ADC_SAR_1_theACLK_MOD_SRC |= CYCLK_SSS;
 221:Generated_Source\PSoC5/ADC_SAR_1_theACLK.c ****                 CY_SET_REG16(ADC_SAR_1_theACLK_DIV_PTR, clkDivider);
 222:Generated_Source\PSoC5/ADC_SAR_1_theACLK.c ****             }
 223:Generated_Source\PSoC5/ADC_SAR_1_theACLK.c ****         }
 224:Generated_Source\PSoC5/ADC_SAR_1_theACLK.c ****         else
 225:Generated_Source\PSoC5/ADC_SAR_1_theACLK.c ****         {
 226:Generated_Source\PSoC5/ADC_SAR_1_theACLK.c **** 			
 227:Generated_Source\PSoC5/ADC_SAR_1_theACLK.c ****             if (enabled != 0u)
 228:Generated_Source\PSoC5/ADC_SAR_1_theACLK.c ****             {
 229:Generated_Source\PSoC5/ADC_SAR_1_theACLK.c ****                 CLK_DIST_LD = 0x00u;
 230:Generated_Source\PSoC5/ADC_SAR_1_theACLK.c **** 
 231:Generated_Source\PSoC5/ADC_SAR_1_theACLK.c ****                 /* Clear all the mask bits except ours. */
 232:Generated_Source\PSoC5/ADC_SAR_1_theACLK.c **** #if defined(ADC_SAR_1_theACLK__CFG3)
 233:Generated_Source\PSoC5/ADC_SAR_1_theACLK.c ****                 CLK_DIST_AMASK = ADC_SAR_1_theACLK_CLKEN_MASK;
 234:Generated_Source\PSoC5/ADC_SAR_1_theACLK.c ****                 CLK_DIST_DMASK = 0x00u;
 235:Generated_Source\PSoC5/ADC_SAR_1_theACLK.c **** #else
 236:Generated_Source\PSoC5/ADC_SAR_1_theACLK.c ****                 CLK_DIST_DMASK = ADC_SAR_1_theACLK_CLKEN_MASK;
 237:Generated_Source\PSoC5/ADC_SAR_1_theACLK.c ****                 CLK_DIST_AMASK = 0x00u;
 238:Generated_Source\PSoC5/ADC_SAR_1_theACLK.c **** #endif /* ADC_SAR_1_theACLK__CFG3 */
 239:Generated_Source\PSoC5/ADC_SAR_1_theACLK.c ****                 /* Clear mask of bus clock. */
 240:Generated_Source\PSoC5/ADC_SAR_1_theACLK.c ****                 CLK_DIST_BCFG2 &= (uint8)(~BCFG2_MASK);
 241:Generated_Source\PSoC5/ADC_SAR_1_theACLK.c **** 
 242:Generated_Source\PSoC5/ADC_SAR_1_theACLK.c ****                 /* If clock is currently enabled, disable it if async or going from N-to-1*/
 243:Generated_Source\PSoC5/ADC_SAR_1_theACLK.c ****                 if (((ADC_SAR_1_theACLK_MOD_SRC & CYCLK_SYNC) == 0u) || (clkDivider == 0u))
 244:Generated_Source\PSoC5/ADC_SAR_1_theACLK.c ****                 {
 245:Generated_Source\PSoC5/ADC_SAR_1_theACLK.c **** #if HAS_CLKDIST_LD_DISABLE
 246:Generated_Source\PSoC5/ADC_SAR_1_theACLK.c ****                     CY_SET_REG16(CYREG_CLKDIST_WRK0, oldDivider);
 247:Generated_Source\PSoC5/ADC_SAR_1_theACLK.c ****                     CLK_DIST_LD = CYCLK_LD_DISABLE|CYCLK_LD_SYNC_EN|CYCLK_LD_LOAD;
 248:Generated_Source\PSoC5/ADC_SAR_1_theACLK.c **** 
 249:Generated_Source\PSoC5/ADC_SAR_1_theACLK.c ****                     /* Wait for clock to be disabled */
 250:Generated_Source\PSoC5/ADC_SAR_1_theACLK.c ****                     while ((CLK_DIST_LD & CYCLK_LD_LOAD) != 0u) { }
 251:Generated_Source\PSoC5/ADC_SAR_1_theACLK.c **** #endif /* HAS_CLKDIST_LD_DISABLE */
 252:Generated_Source\PSoC5/ADC_SAR_1_theACLK.c **** 
 253:Generated_Source\PSoC5/ADC_SAR_1_theACLK.c ****                     ADC_SAR_1_theACLK_CLKEN &= (uint8)(~ADC_SAR_1_theACLK_CLKEN_MASK);
 254:Generated_Source\PSoC5/ADC_SAR_1_theACLK.c **** 
 255:Generated_Source\PSoC5/ADC_SAR_1_theACLK.c **** #if HAS_CLKDIST_LD_DISABLE
 256:Generated_Source\PSoC5/ADC_SAR_1_theACLK.c ****                     /* Clear the disable bit */
 257:Generated_Source\PSoC5/ADC_SAR_1_theACLK.c ****                     CLK_DIST_LD = 0x00u;
 258:Generated_Source\PSoC5/ADC_SAR_1_theACLK.c **** #endif /* HAS_CLKDIST_LD_DISABLE */
 259:Generated_Source\PSoC5/ADC_SAR_1_theACLK.c ****                 }
 260:Generated_Source\PSoC5/ADC_SAR_1_theACLK.c ****             }
 261:Generated_Source\PSoC5/ADC_SAR_1_theACLK.c **** 
 262:Generated_Source\PSoC5/ADC_SAR_1_theACLK.c ****             /* Load divide value. */
ARM GAS  C:\Users\Luggi\AppData\Local\Temp\ccrqAUL9.s 			page 51


 263:Generated_Source\PSoC5/ADC_SAR_1_theACLK.c ****             if ((ADC_SAR_1_theACLK_CLKEN & ADC_SAR_1_theACLK_CLKEN_MASK) != 0u)
 264:Generated_Source\PSoC5/ADC_SAR_1_theACLK.c ****             {
 265:Generated_Source\PSoC5/ADC_SAR_1_theACLK.c ****                 /* If the clock is still enabled, use the shadow registers */
 266:Generated_Source\PSoC5/ADC_SAR_1_theACLK.c ****                 CY_SET_REG16(CYREG_CLKDIST_WRK0, clkDivider);
 267:Generated_Source\PSoC5/ADC_SAR_1_theACLK.c **** 
 268:Generated_Source\PSoC5/ADC_SAR_1_theACLK.c ****                 CLK_DIST_LD = (CYCLK_LD_LOAD | ((restart != 0u) ? CYCLK_LD_SYNC_EN : 0x00u));
 269:Generated_Source\PSoC5/ADC_SAR_1_theACLK.c ****                 while ((CLK_DIST_LD & CYCLK_LD_LOAD) != 0u) { }
 270:Generated_Source\PSoC5/ADC_SAR_1_theACLK.c ****             }
 271:Generated_Source\PSoC5/ADC_SAR_1_theACLK.c ****             else
 272:Generated_Source\PSoC5/ADC_SAR_1_theACLK.c ****             {
 273:Generated_Source\PSoC5/ADC_SAR_1_theACLK.c ****                 /* If the clock is disabled, set the divider directly */
 274:Generated_Source\PSoC5/ADC_SAR_1_theACLK.c ****                 CY_SET_REG16(ADC_SAR_1_theACLK_DIV_PTR, clkDivider);
 275:Generated_Source\PSoC5/ADC_SAR_1_theACLK.c **** 				ADC_SAR_1_theACLK_CLKEN |= enabled;
 276:Generated_Source\PSoC5/ADC_SAR_1_theACLK.c ****             }
 277:Generated_Source\PSoC5/ADC_SAR_1_theACLK.c ****         }
 278:Generated_Source\PSoC5/ADC_SAR_1_theACLK.c ****     }
 279:Generated_Source\PSoC5/ADC_SAR_1_theACLK.c **** }
 280:Generated_Source\PSoC5/ADC_SAR_1_theACLK.c **** 
 281:Generated_Source\PSoC5/ADC_SAR_1_theACLK.c **** 
 282:Generated_Source\PSoC5/ADC_SAR_1_theACLK.c **** /*******************************************************************************
 283:Generated_Source\PSoC5/ADC_SAR_1_theACLK.c **** * Function Name: ADC_SAR_1_theACLK_GetDividerRegister
 284:Generated_Source\PSoC5/ADC_SAR_1_theACLK.c **** ********************************************************************************
 285:Generated_Source\PSoC5/ADC_SAR_1_theACLK.c **** *
 286:Generated_Source\PSoC5/ADC_SAR_1_theACLK.c **** * Summary:
 287:Generated_Source\PSoC5/ADC_SAR_1_theACLK.c **** *  Gets the clock divider register value.
 288:Generated_Source\PSoC5/ADC_SAR_1_theACLK.c **** *
 289:Generated_Source\PSoC5/ADC_SAR_1_theACLK.c **** * Parameters:
 290:Generated_Source\PSoC5/ADC_SAR_1_theACLK.c **** *  None
 291:Generated_Source\PSoC5/ADC_SAR_1_theACLK.c **** *
 292:Generated_Source\PSoC5/ADC_SAR_1_theACLK.c **** * Returns:
 293:Generated_Source\PSoC5/ADC_SAR_1_theACLK.c **** *  Divide value of the clock minus 1. For example, if the clock is set to
 294:Generated_Source\PSoC5/ADC_SAR_1_theACLK.c **** *  divide by 2, the return value will be 1.
 295:Generated_Source\PSoC5/ADC_SAR_1_theACLK.c **** *
 296:Generated_Source\PSoC5/ADC_SAR_1_theACLK.c **** *******************************************************************************/
 297:Generated_Source\PSoC5/ADC_SAR_1_theACLK.c **** uint16 ADC_SAR_1_theACLK_GetDividerRegister(void) 
 298:Generated_Source\PSoC5/ADC_SAR_1_theACLK.c **** {
 746              		.loc 1 298 0
 747              		.cfi_startproc
 748              		@ args = 0, pretend = 0, frame = 0
 749              		@ frame_needed = 0, uses_anonymous_args = 0
 750              		@ link register save eliminated.
 299:Generated_Source\PSoC5/ADC_SAR_1_theACLK.c ****     return CY_GET_REG16(ADC_SAR_1_theACLK_DIV_PTR);
 751              		.loc 1 299 0
 752 0000 014B     		ldr	r3, .L18
 753 0002 1888     		ldrh	r0, [r3]
 300:Generated_Source\PSoC5/ADC_SAR_1_theACLK.c **** }
 754              		.loc 1 300 0
 755 0004 80B2     		uxth	r0, r0
 756 0006 7047     		bx	lr
 757              	.L19:
 758              		.align	2
 759              	.L18:
 760 0008 90400040 		.word	1073758352
 761              		.cfi_endproc
 762              	.LFE5:
 763              		.size	ADC_SAR_1_theACLK_GetDividerRegister, .-ADC_SAR_1_theACLK_GetDividerRegister
 764              		.section	.text.ADC_SAR_1_theACLK_SetModeRegister,"ax",%progbits
ARM GAS  C:\Users\Luggi\AppData\Local\Temp\ccrqAUL9.s 			page 52


 765              		.align	2
 766              		.global	ADC_SAR_1_theACLK_SetModeRegister
 767              		.thumb
 768              		.thumb_func
 769              		.type	ADC_SAR_1_theACLK_SetModeRegister, %function
 770              	ADC_SAR_1_theACLK_SetModeRegister:
 771              	.LFB6:
 301:Generated_Source\PSoC5/ADC_SAR_1_theACLK.c **** 
 302:Generated_Source\PSoC5/ADC_SAR_1_theACLK.c **** 
 303:Generated_Source\PSoC5/ADC_SAR_1_theACLK.c **** /*******************************************************************************
 304:Generated_Source\PSoC5/ADC_SAR_1_theACLK.c **** * Function Name: ADC_SAR_1_theACLK_SetModeRegister
 305:Generated_Source\PSoC5/ADC_SAR_1_theACLK.c **** ********************************************************************************
 306:Generated_Source\PSoC5/ADC_SAR_1_theACLK.c **** *
 307:Generated_Source\PSoC5/ADC_SAR_1_theACLK.c **** * Summary:
 308:Generated_Source\PSoC5/ADC_SAR_1_theACLK.c **** *  Sets flags that control the operating mode of the clock. This function only
 309:Generated_Source\PSoC5/ADC_SAR_1_theACLK.c **** *  changes flags from 0 to 1; flags that are already 1 will remain unchanged.
 310:Generated_Source\PSoC5/ADC_SAR_1_theACLK.c **** *  To clear flags, use the ClearModeRegister function. The clock must be
 311:Generated_Source\PSoC5/ADC_SAR_1_theACLK.c **** *  disabled before changing the mode.
 312:Generated_Source\PSoC5/ADC_SAR_1_theACLK.c **** *
 313:Generated_Source\PSoC5/ADC_SAR_1_theACLK.c **** * Parameters:
 314:Generated_Source\PSoC5/ADC_SAR_1_theACLK.c **** *  clkMode: Bit mask containing the bits to set. For PSoC 3 and PSoC 5,
 315:Generated_Source\PSoC5/ADC_SAR_1_theACLK.c **** *   clkMode should be a set of the following optional bits or'ed together.
 316:Generated_Source\PSoC5/ADC_SAR_1_theACLK.c **** *   - CYCLK_EARLY Enable early phase mode. Rising edge of output clock will
 317:Generated_Source\PSoC5/ADC_SAR_1_theACLK.c **** *                 occur when the divider count reaches half of the divide
 318:Generated_Source\PSoC5/ADC_SAR_1_theACLK.c **** *                 value.
 319:Generated_Source\PSoC5/ADC_SAR_1_theACLK.c **** *   - CYCLK_DUTY  Enable 50% duty cycle output. When enabled, the output clock
 320:Generated_Source\PSoC5/ADC_SAR_1_theACLK.c **** *                 is asserted for approximately half of its period. When
 321:Generated_Source\PSoC5/ADC_SAR_1_theACLK.c **** *                 disabled, the output clock is asserted for one period of the
 322:Generated_Source\PSoC5/ADC_SAR_1_theACLK.c **** *                 source clock.
 323:Generated_Source\PSoC5/ADC_SAR_1_theACLK.c **** *   - CYCLK_SYNC  Enable output synchronization to master clock. This should
 324:Generated_Source\PSoC5/ADC_SAR_1_theACLK.c **** *                 be enabled for all synchronous clocks.
 325:Generated_Source\PSoC5/ADC_SAR_1_theACLK.c **** *   See the Technical Reference Manual for details about setting the mode of
 326:Generated_Source\PSoC5/ADC_SAR_1_theACLK.c **** *   the clock. Specifically, see the CLKDIST.DCFG.CFG2 register.
 327:Generated_Source\PSoC5/ADC_SAR_1_theACLK.c **** *
 328:Generated_Source\PSoC5/ADC_SAR_1_theACLK.c **** * Returns:
 329:Generated_Source\PSoC5/ADC_SAR_1_theACLK.c **** *  None
 330:Generated_Source\PSoC5/ADC_SAR_1_theACLK.c **** *
 331:Generated_Source\PSoC5/ADC_SAR_1_theACLK.c **** *******************************************************************************/
 332:Generated_Source\PSoC5/ADC_SAR_1_theACLK.c **** void ADC_SAR_1_theACLK_SetModeRegister(uint8 modeBitMask) 
 333:Generated_Source\PSoC5/ADC_SAR_1_theACLK.c **** {
 772              		.loc 1 333 0
 773              		.cfi_startproc
 774              		@ args = 0, pretend = 0, frame = 0
 775              		@ frame_needed = 0, uses_anonymous_args = 0
 776              		@ link register save eliminated.
 777              	.LVL3:
 334:Generated_Source\PSoC5/ADC_SAR_1_theACLK.c ****     ADC_SAR_1_theACLK_MOD_SRC |= modeBitMask & (uint8)ADC_SAR_1_theACLK_MODE_MASK;
 778              		.loc 1 334 0
 779 0000 034B     		ldr	r3, .L21
 780 0002 1A78     		ldrb	r2, [r3]	@ zero_extendqisi2
 781 0004 00F0F800 		and	r0, r0, #248
 782              	.LVL4:
 783 0008 1043     		orrs	r0, r0, r2
 784 000a 1870     		strb	r0, [r3]
 785 000c 7047     		bx	lr
 786              	.L22:
 787 000e 00BF     		.align	2
ARM GAS  C:\Users\Luggi\AppData\Local\Temp\ccrqAUL9.s 			page 53


 788              	.L21:
 789 0010 92400040 		.word	1073758354
 790              		.cfi_endproc
 791              	.LFE6:
 792              		.size	ADC_SAR_1_theACLK_SetModeRegister, .-ADC_SAR_1_theACLK_SetModeRegister
 793              		.section	.text.ADC_SAR_1_theACLK_ClearModeRegister,"ax",%progbits
 794              		.align	2
 795              		.global	ADC_SAR_1_theACLK_ClearModeRegister
 796              		.thumb
 797              		.thumb_func
 798              		.type	ADC_SAR_1_theACLK_ClearModeRegister, %function
 799              	ADC_SAR_1_theACLK_ClearModeRegister:
 800              	.LFB7:
 335:Generated_Source\PSoC5/ADC_SAR_1_theACLK.c **** }
 336:Generated_Source\PSoC5/ADC_SAR_1_theACLK.c **** 
 337:Generated_Source\PSoC5/ADC_SAR_1_theACLK.c **** 
 338:Generated_Source\PSoC5/ADC_SAR_1_theACLK.c **** /*******************************************************************************
 339:Generated_Source\PSoC5/ADC_SAR_1_theACLK.c **** * Function Name: ADC_SAR_1_theACLK_ClearModeRegister
 340:Generated_Source\PSoC5/ADC_SAR_1_theACLK.c **** ********************************************************************************
 341:Generated_Source\PSoC5/ADC_SAR_1_theACLK.c **** *
 342:Generated_Source\PSoC5/ADC_SAR_1_theACLK.c **** * Summary:
 343:Generated_Source\PSoC5/ADC_SAR_1_theACLK.c **** *  Clears flags that control the operating mode of the clock. This function
 344:Generated_Source\PSoC5/ADC_SAR_1_theACLK.c **** *  only changes flags from 1 to 0; flags that are already 0 will remain
 345:Generated_Source\PSoC5/ADC_SAR_1_theACLK.c **** *  unchanged. To set flags, use the SetModeRegister function. The clock must be
 346:Generated_Source\PSoC5/ADC_SAR_1_theACLK.c **** *  disabled before changing the mode.
 347:Generated_Source\PSoC5/ADC_SAR_1_theACLK.c **** *
 348:Generated_Source\PSoC5/ADC_SAR_1_theACLK.c **** * Parameters:
 349:Generated_Source\PSoC5/ADC_SAR_1_theACLK.c **** *  clkMode: Bit mask containing the bits to clear. For PSoC 3 and PSoC 5,
 350:Generated_Source\PSoC5/ADC_SAR_1_theACLK.c **** *   clkMode should be a set of the following optional bits or'ed together.
 351:Generated_Source\PSoC5/ADC_SAR_1_theACLK.c **** *   - CYCLK_EARLY Enable early phase mode. Rising edge of output clock will
 352:Generated_Source\PSoC5/ADC_SAR_1_theACLK.c **** *                 occur when the divider count reaches half of the divide
 353:Generated_Source\PSoC5/ADC_SAR_1_theACLK.c **** *                 value.
 354:Generated_Source\PSoC5/ADC_SAR_1_theACLK.c **** *   - CYCLK_DUTY  Enable 50% duty cycle output. When enabled, the output clock
 355:Generated_Source\PSoC5/ADC_SAR_1_theACLK.c **** *                 is asserted for approximately half of its period. When
 356:Generated_Source\PSoC5/ADC_SAR_1_theACLK.c **** *                 disabled, the output clock is asserted for one period of the
 357:Generated_Source\PSoC5/ADC_SAR_1_theACLK.c **** *                 source clock.
 358:Generated_Source\PSoC5/ADC_SAR_1_theACLK.c **** *   - CYCLK_SYNC  Enable output synchronization to master clock. This should
 359:Generated_Source\PSoC5/ADC_SAR_1_theACLK.c **** *                 be enabled for all synchronous clocks.
 360:Generated_Source\PSoC5/ADC_SAR_1_theACLK.c **** *   See the Technical Reference Manual for details about setting the mode of
 361:Generated_Source\PSoC5/ADC_SAR_1_theACLK.c **** *   the clock. Specifically, see the CLKDIST.DCFG.CFG2 register.
 362:Generated_Source\PSoC5/ADC_SAR_1_theACLK.c **** *
 363:Generated_Source\PSoC5/ADC_SAR_1_theACLK.c **** * Returns:
 364:Generated_Source\PSoC5/ADC_SAR_1_theACLK.c **** *  None
 365:Generated_Source\PSoC5/ADC_SAR_1_theACLK.c **** *
 366:Generated_Source\PSoC5/ADC_SAR_1_theACLK.c **** *******************************************************************************/
 367:Generated_Source\PSoC5/ADC_SAR_1_theACLK.c **** void ADC_SAR_1_theACLK_ClearModeRegister(uint8 modeBitMask) 
 368:Generated_Source\PSoC5/ADC_SAR_1_theACLK.c **** {
 801              		.loc 1 368 0
 802              		.cfi_startproc
 803              		@ args = 0, pretend = 0, frame = 0
 804              		@ frame_needed = 0, uses_anonymous_args = 0
 805              		@ link register save eliminated.
 806              	.LVL5:
 369:Generated_Source\PSoC5/ADC_SAR_1_theACLK.c ****     ADC_SAR_1_theACLK_MOD_SRC &= (uint8)(~modeBitMask) | (uint8)(~(uint8)(ADC_SAR_1_theACLK_MODE_MA
 807              		.loc 1 369 0
 808 0000 044B     		ldr	r3, .L24
 809 0002 1A78     		ldrb	r2, [r3]	@ zero_extendqisi2
ARM GAS  C:\Users\Luggi\AppData\Local\Temp\ccrqAUL9.s 			page 54


 810 0004 C043     		mvns	r0, r0
 811              	.LVL6:
 812 0006 C0B2     		uxtb	r0, r0
 813 0008 40F00700 		orr	r0, r0, #7
 814 000c 1040     		ands	r0, r0, r2
 815 000e 1870     		strb	r0, [r3]
 816 0010 7047     		bx	lr
 817              	.L25:
 818 0012 00BF     		.align	2
 819              	.L24:
 820 0014 92400040 		.word	1073758354
 821              		.cfi_endproc
 822              	.LFE7:
 823              		.size	ADC_SAR_1_theACLK_ClearModeRegister, .-ADC_SAR_1_theACLK_ClearModeRegister
 824              		.section	.text.ADC_SAR_1_theACLK_GetModeRegister,"ax",%progbits
 825              		.align	2
 826              		.global	ADC_SAR_1_theACLK_GetModeRegister
 827              		.thumb
 828              		.thumb_func
 829              		.type	ADC_SAR_1_theACLK_GetModeRegister, %function
 830              	ADC_SAR_1_theACLK_GetModeRegister:
 831              	.LFB8:
 370:Generated_Source\PSoC5/ADC_SAR_1_theACLK.c **** }
 371:Generated_Source\PSoC5/ADC_SAR_1_theACLK.c **** 
 372:Generated_Source\PSoC5/ADC_SAR_1_theACLK.c **** 
 373:Generated_Source\PSoC5/ADC_SAR_1_theACLK.c **** /*******************************************************************************
 374:Generated_Source\PSoC5/ADC_SAR_1_theACLK.c **** * Function Name: ADC_SAR_1_theACLK_GetModeRegister
 375:Generated_Source\PSoC5/ADC_SAR_1_theACLK.c **** ********************************************************************************
 376:Generated_Source\PSoC5/ADC_SAR_1_theACLK.c **** *
 377:Generated_Source\PSoC5/ADC_SAR_1_theACLK.c **** * Summary:
 378:Generated_Source\PSoC5/ADC_SAR_1_theACLK.c **** *  Gets the clock mode register value.
 379:Generated_Source\PSoC5/ADC_SAR_1_theACLK.c **** *
 380:Generated_Source\PSoC5/ADC_SAR_1_theACLK.c **** * Parameters:
 381:Generated_Source\PSoC5/ADC_SAR_1_theACLK.c **** *  None
 382:Generated_Source\PSoC5/ADC_SAR_1_theACLK.c **** *
 383:Generated_Source\PSoC5/ADC_SAR_1_theACLK.c **** * Returns:
 384:Generated_Source\PSoC5/ADC_SAR_1_theACLK.c **** *  Bit mask representing the enabled mode bits. See the SetModeRegister and
 385:Generated_Source\PSoC5/ADC_SAR_1_theACLK.c **** *  ClearModeRegister descriptions for details about the mode bits.
 386:Generated_Source\PSoC5/ADC_SAR_1_theACLK.c **** *
 387:Generated_Source\PSoC5/ADC_SAR_1_theACLK.c **** *******************************************************************************/
 388:Generated_Source\PSoC5/ADC_SAR_1_theACLK.c **** uint8 ADC_SAR_1_theACLK_GetModeRegister(void) 
 389:Generated_Source\PSoC5/ADC_SAR_1_theACLK.c **** {
 832              		.loc 1 389 0
 833              		.cfi_startproc
 834              		@ args = 0, pretend = 0, frame = 0
 835              		@ frame_needed = 0, uses_anonymous_args = 0
 836              		@ link register save eliminated.
 390:Generated_Source\PSoC5/ADC_SAR_1_theACLK.c ****     return ADC_SAR_1_theACLK_MOD_SRC & (uint8)(ADC_SAR_1_theACLK_MODE_MASK);
 837              		.loc 1 390 0
 838 0000 024B     		ldr	r3, .L27
 839 0002 1878     		ldrb	r0, [r3]	@ zero_extendqisi2
 391:Generated_Source\PSoC5/ADC_SAR_1_theACLK.c **** }
 840              		.loc 1 391 0
 841 0004 00F0F800 		and	r0, r0, #248
 842 0008 7047     		bx	lr
 843              	.L28:
 844 000a 00BF     		.align	2
ARM GAS  C:\Users\Luggi\AppData\Local\Temp\ccrqAUL9.s 			page 55


 845              	.L27:
 846 000c 92400040 		.word	1073758354
 847              		.cfi_endproc
 848              	.LFE8:
 849              		.size	ADC_SAR_1_theACLK_GetModeRegister, .-ADC_SAR_1_theACLK_GetModeRegister
 850              		.section	.text.ADC_SAR_1_theACLK_GetSourceRegister,"ax",%progbits
 851              		.align	2
 852              		.global	ADC_SAR_1_theACLK_GetSourceRegister
 853              		.thumb
 854              		.thumb_func
 855              		.type	ADC_SAR_1_theACLK_GetSourceRegister, %function
 856              	ADC_SAR_1_theACLK_GetSourceRegister:
 857              	.LFB10:
 392:Generated_Source\PSoC5/ADC_SAR_1_theACLK.c **** 
 393:Generated_Source\PSoC5/ADC_SAR_1_theACLK.c **** 
 394:Generated_Source\PSoC5/ADC_SAR_1_theACLK.c **** /*******************************************************************************
 395:Generated_Source\PSoC5/ADC_SAR_1_theACLK.c **** * Function Name: ADC_SAR_1_theACLK_SetSourceRegister
 396:Generated_Source\PSoC5/ADC_SAR_1_theACLK.c **** ********************************************************************************
 397:Generated_Source\PSoC5/ADC_SAR_1_theACLK.c **** *
 398:Generated_Source\PSoC5/ADC_SAR_1_theACLK.c **** * Summary:
 399:Generated_Source\PSoC5/ADC_SAR_1_theACLK.c **** *  Sets the input source of the clock. The clock must be disabled before
 400:Generated_Source\PSoC5/ADC_SAR_1_theACLK.c **** *  changing the source. The old and new clock sources must be running.
 401:Generated_Source\PSoC5/ADC_SAR_1_theACLK.c **** *
 402:Generated_Source\PSoC5/ADC_SAR_1_theACLK.c **** * Parameters:
 403:Generated_Source\PSoC5/ADC_SAR_1_theACLK.c **** *  clkSource:  For PSoC 3 and PSoC 5 devices, clkSource should be one of the
 404:Generated_Source\PSoC5/ADC_SAR_1_theACLK.c **** *   following input sources:
 405:Generated_Source\PSoC5/ADC_SAR_1_theACLK.c **** *   - CYCLK_SRC_SEL_SYNC_DIG
 406:Generated_Source\PSoC5/ADC_SAR_1_theACLK.c **** *   - CYCLK_SRC_SEL_IMO
 407:Generated_Source\PSoC5/ADC_SAR_1_theACLK.c **** *   - CYCLK_SRC_SEL_XTALM
 408:Generated_Source\PSoC5/ADC_SAR_1_theACLK.c **** *   - CYCLK_SRC_SEL_ILO
 409:Generated_Source\PSoC5/ADC_SAR_1_theACLK.c **** *   - CYCLK_SRC_SEL_PLL
 410:Generated_Source\PSoC5/ADC_SAR_1_theACLK.c **** *   - CYCLK_SRC_SEL_XTALK
 411:Generated_Source\PSoC5/ADC_SAR_1_theACLK.c **** *   - CYCLK_SRC_SEL_DSI_G
 412:Generated_Source\PSoC5/ADC_SAR_1_theACLK.c **** *   - CYCLK_SRC_SEL_DSI_D/CYCLK_SRC_SEL_DSI_A
 413:Generated_Source\PSoC5/ADC_SAR_1_theACLK.c **** *   See the Technical Reference Manual for details on clock sources.
 414:Generated_Source\PSoC5/ADC_SAR_1_theACLK.c **** *
 415:Generated_Source\PSoC5/ADC_SAR_1_theACLK.c **** * Returns:
 416:Generated_Source\PSoC5/ADC_SAR_1_theACLK.c **** *  None
 417:Generated_Source\PSoC5/ADC_SAR_1_theACLK.c **** *
 418:Generated_Source\PSoC5/ADC_SAR_1_theACLK.c **** *******************************************************************************/
 419:Generated_Source\PSoC5/ADC_SAR_1_theACLK.c **** void ADC_SAR_1_theACLK_SetSourceRegister(uint8 clkSource) 
 420:Generated_Source\PSoC5/ADC_SAR_1_theACLK.c **** {
 421:Generated_Source\PSoC5/ADC_SAR_1_theACLK.c ****     uint16 currDiv = ADC_SAR_1_theACLK_GetDividerRegister();
 422:Generated_Source\PSoC5/ADC_SAR_1_theACLK.c ****     uint8 oldSrc = ADC_SAR_1_theACLK_GetSourceRegister();
 423:Generated_Source\PSoC5/ADC_SAR_1_theACLK.c **** 
 424:Generated_Source\PSoC5/ADC_SAR_1_theACLK.c ****     if (((oldSrc != ((uint8)CYCLK_SRC_SEL_CLK_SYNC_D)) && 
 425:Generated_Source\PSoC5/ADC_SAR_1_theACLK.c ****         (clkSource == ((uint8)CYCLK_SRC_SEL_CLK_SYNC_D))) && (currDiv == 0u))
 426:Generated_Source\PSoC5/ADC_SAR_1_theACLK.c ****     {
 427:Generated_Source\PSoC5/ADC_SAR_1_theACLK.c ****         /* Switching to Master and divider is 1, set SSS, which will output master, */
 428:Generated_Source\PSoC5/ADC_SAR_1_theACLK.c ****         /* then set the source so we are consistent.                                */
 429:Generated_Source\PSoC5/ADC_SAR_1_theACLK.c ****         ADC_SAR_1_theACLK_MOD_SRC |= CYCLK_SSS;
 430:Generated_Source\PSoC5/ADC_SAR_1_theACLK.c ****         ADC_SAR_1_theACLK_MOD_SRC =
 431:Generated_Source\PSoC5/ADC_SAR_1_theACLK.c ****             (ADC_SAR_1_theACLK_MOD_SRC & (uint8)(~ADC_SAR_1_theACLK_SRC_SEL_MSK)) | clkSource;
 432:Generated_Source\PSoC5/ADC_SAR_1_theACLK.c ****     }
 433:Generated_Source\PSoC5/ADC_SAR_1_theACLK.c ****     else if (((oldSrc == ((uint8)CYCLK_SRC_SEL_CLK_SYNC_D)) && 
 434:Generated_Source\PSoC5/ADC_SAR_1_theACLK.c ****             (clkSource != ((uint8)CYCLK_SRC_SEL_CLK_SYNC_D))) && (currDiv == 0u))
 435:Generated_Source\PSoC5/ADC_SAR_1_theACLK.c ****     {
ARM GAS  C:\Users\Luggi\AppData\Local\Temp\ccrqAUL9.s 			page 56


 436:Generated_Source\PSoC5/ADC_SAR_1_theACLK.c ****         /* Switching from Master to not and divider is 1, set source, so we don't   */
 437:Generated_Source\PSoC5/ADC_SAR_1_theACLK.c ****         /* lock when we clear SSS.                                                  */
 438:Generated_Source\PSoC5/ADC_SAR_1_theACLK.c ****         ADC_SAR_1_theACLK_MOD_SRC =
 439:Generated_Source\PSoC5/ADC_SAR_1_theACLK.c ****             (ADC_SAR_1_theACLK_MOD_SRC & (uint8)(~ADC_SAR_1_theACLK_SRC_SEL_MSK)) | clkSource;
 440:Generated_Source\PSoC5/ADC_SAR_1_theACLK.c ****         ADC_SAR_1_theACLK_MOD_SRC &= (uint8)(~CYCLK_SSS);
 441:Generated_Source\PSoC5/ADC_SAR_1_theACLK.c ****     }
 442:Generated_Source\PSoC5/ADC_SAR_1_theACLK.c ****     else
 443:Generated_Source\PSoC5/ADC_SAR_1_theACLK.c ****     {
 444:Generated_Source\PSoC5/ADC_SAR_1_theACLK.c ****         ADC_SAR_1_theACLK_MOD_SRC =
 445:Generated_Source\PSoC5/ADC_SAR_1_theACLK.c ****             (ADC_SAR_1_theACLK_MOD_SRC & (uint8)(~ADC_SAR_1_theACLK_SRC_SEL_MSK)) | clkSource;
 446:Generated_Source\PSoC5/ADC_SAR_1_theACLK.c ****     }
 447:Generated_Source\PSoC5/ADC_SAR_1_theACLK.c **** }
 448:Generated_Source\PSoC5/ADC_SAR_1_theACLK.c **** 
 449:Generated_Source\PSoC5/ADC_SAR_1_theACLK.c **** 
 450:Generated_Source\PSoC5/ADC_SAR_1_theACLK.c **** /*******************************************************************************
 451:Generated_Source\PSoC5/ADC_SAR_1_theACLK.c **** * Function Name: ADC_SAR_1_theACLK_GetSourceRegister
 452:Generated_Source\PSoC5/ADC_SAR_1_theACLK.c **** ********************************************************************************
 453:Generated_Source\PSoC5/ADC_SAR_1_theACLK.c **** *
 454:Generated_Source\PSoC5/ADC_SAR_1_theACLK.c **** * Summary:
 455:Generated_Source\PSoC5/ADC_SAR_1_theACLK.c **** *  Gets the input source of the clock.
 456:Generated_Source\PSoC5/ADC_SAR_1_theACLK.c **** *
 457:Generated_Source\PSoC5/ADC_SAR_1_theACLK.c **** * Parameters:
 458:Generated_Source\PSoC5/ADC_SAR_1_theACLK.c **** *  None
 459:Generated_Source\PSoC5/ADC_SAR_1_theACLK.c **** *
 460:Generated_Source\PSoC5/ADC_SAR_1_theACLK.c **** * Returns:
 461:Generated_Source\PSoC5/ADC_SAR_1_theACLK.c **** *  The input source of the clock. See SetSourceRegister for details.
 462:Generated_Source\PSoC5/ADC_SAR_1_theACLK.c **** *
 463:Generated_Source\PSoC5/ADC_SAR_1_theACLK.c **** *******************************************************************************/
 464:Generated_Source\PSoC5/ADC_SAR_1_theACLK.c **** uint8 ADC_SAR_1_theACLK_GetSourceRegister(void) 
 465:Generated_Source\PSoC5/ADC_SAR_1_theACLK.c **** {
 858              		.loc 1 465 0
 859              		.cfi_startproc
 860              		@ args = 0, pretend = 0, frame = 0
 861              		@ frame_needed = 0, uses_anonymous_args = 0
 862              		@ link register save eliminated.
 466:Generated_Source\PSoC5/ADC_SAR_1_theACLK.c ****     return ADC_SAR_1_theACLK_MOD_SRC & ADC_SAR_1_theACLK_SRC_SEL_MSK;
 863              		.loc 1 466 0
 864 0000 024B     		ldr	r3, .L30
 865 0002 1878     		ldrb	r0, [r3]	@ zero_extendqisi2
 467:Generated_Source\PSoC5/ADC_SAR_1_theACLK.c **** }
 866              		.loc 1 467 0
 867 0004 00F00700 		and	r0, r0, #7
 868 0008 7047     		bx	lr
 869              	.L31:
 870 000a 00BF     		.align	2
 871              	.L30:
 872 000c 92400040 		.word	1073758354
 873              		.cfi_endproc
 874              	.LFE10:
 875              		.size	ADC_SAR_1_theACLK_GetSourceRegister, .-ADC_SAR_1_theACLK_GetSourceRegister
 876              		.section	.text.ADC_SAR_1_theACLK_SetDividerRegister,"ax",%progbits
 877              		.align	2
 878              		.global	ADC_SAR_1_theACLK_SetDividerRegister
 879              		.thumb
 880              		.thumb_func
 881              		.type	ADC_SAR_1_theACLK_SetDividerRegister, %function
 882              	ADC_SAR_1_theACLK_SetDividerRegister:
ARM GAS  C:\Users\Luggi\AppData\Local\Temp\ccrqAUL9.s 			page 57


 883              	.LFB4:
 195:Generated_Source\PSoC5/ADC_SAR_1_theACLK.c ****     uint8 enabled;
 884              		.loc 1 195 0
 885              		.cfi_startproc
 886              		@ args = 0, pretend = 0, frame = 0
 887              		@ frame_needed = 0, uses_anonymous_args = 0
 888              	.LVL7:
 889 0000 70B5     		push	{r4, r5, r6, lr}
 890              		.cfi_def_cfa_offset 16
 891              		.cfi_offset 4, -16
 892              		.cfi_offset 5, -12
 893              		.cfi_offset 6, -8
 894              		.cfi_offset 14, -4
 895 0002 0446     		mov	r4, r0
 896 0004 0D46     		mov	r5, r1
 198:Generated_Source\PSoC5/ADC_SAR_1_theACLK.c ****     uint16 oldDivider = ADC_SAR_1_theACLK_GetDividerRegister();
 897              		.loc 1 198 0
 898 0006 FFF7FEFF 		bl	ADC_SAR_1_theACLK_GetSourceRegister
 899              	.LVL8:
 900 000a 0646     		mov	r6, r0
 901              	.LVL9:
 199:Generated_Source\PSoC5/ADC_SAR_1_theACLK.c **** 
 902              		.loc 1 199 0
 903 000c FFF7FEFF 		bl	ADC_SAR_1_theACLK_GetDividerRegister
 904              	.LVL10:
 201:Generated_Source\PSoC5/ADC_SAR_1_theACLK.c ****     {
 905              		.loc 1 201 0
 906 0010 8442     		cmp	r4, r0
 907 0012 57D0     		beq	.L32
 203:Generated_Source\PSoC5/ADC_SAR_1_theACLK.c **** 
 908              		.loc 1 203 0
 909 0014 2C4B     		ldr	r3, .L45
 910 0016 1B78     		ldrb	r3, [r3]	@ zero_extendqisi2
 911 0018 03F01003 		and	r3, r3, #16
 912 001c DAB2     		uxtb	r2, r3
 913              	.LVL11:
 205:Generated_Source\PSoC5/ADC_SAR_1_theACLK.c ****         {
 914              		.loc 1 205 0
 915 001e 96B9     		cbnz	r6, .L34
 205:Generated_Source\PSoC5/ADC_SAR_1_theACLK.c ****         {
 916              		.loc 1 205 0 is_stmt 0 discriminator 1
 917 0020 00B1     		cbz	r0, .L35
 205:Generated_Source\PSoC5/ADC_SAR_1_theACLK.c ****         {
 918              		.loc 1 205 0 discriminator 2
 919 0022 84B9     		cbnz	r4, .L34
 920              	.L35:
 208:Generated_Source\PSoC5/ADC_SAR_1_theACLK.c ****             {
 921              		.loc 1 208 0 is_stmt 1
 922 0024 38B9     		cbnz	r0, .L36
 213:Generated_Source\PSoC5/ADC_SAR_1_theACLK.c ****                 ADC_SAR_1_theACLK_MOD_SRC &= (uint8)(~CYCLK_SSS);
 923              		.loc 1 213 0
 924 0026 294B     		ldr	r3, .L45+4
 925 0028 1C80     		strh	r4, [r3]	@ movhi
 214:Generated_Source\PSoC5/ADC_SAR_1_theACLK.c ****             }
 926              		.loc 1 214 0
 927 002a 294A     		ldr	r2, .L45+8
 928              	.LVL12:
ARM GAS  C:\Users\Luggi\AppData\Local\Temp\ccrqAUL9.s 			page 58


 929 002c 1378     		ldrb	r3, [r2]	@ zero_extendqisi2
 930 002e 03F0BF03 		and	r3, r3, #191
 931 0032 1370     		strb	r3, [r2]
 932 0034 70BD     		pop	{r4, r5, r6, pc}
 933              	.LVL13:
 934              	.L36:
 220:Generated_Source\PSoC5/ADC_SAR_1_theACLK.c ****                 CY_SET_REG16(ADC_SAR_1_theACLK_DIV_PTR, clkDivider);
 935              		.loc 1 220 0
 936 0036 264A     		ldr	r2, .L45+8
 937              	.LVL14:
 938 0038 1378     		ldrb	r3, [r2]	@ zero_extendqisi2
 939              	.LVL15:
 940 003a 43F04003 		orr	r3, r3, #64
 941 003e 1370     		strb	r3, [r2]
 221:Generated_Source\PSoC5/ADC_SAR_1_theACLK.c ****             }
 942              		.loc 1 221 0
 943 0040 224B     		ldr	r3, .L45+4
 944 0042 1C80     		strh	r4, [r3]	@ movhi
 945 0044 70BD     		pop	{r4, r5, r6, pc}
 946              	.LVL16:
 947              	.L34:
 227:Generated_Source\PSoC5/ADC_SAR_1_theACLK.c ****             {
 948              		.loc 1 227 0
 949 0046 22B3     		cbz	r2, .L37
 229:Generated_Source\PSoC5/ADC_SAR_1_theACLK.c **** 
 950              		.loc 1 229 0
 951 0048 0023     		movs	r3, #0
 952 004a 2249     		ldr	r1, .L45+12
 953 004c 0B70     		strb	r3, [r1]
 236:Generated_Source\PSoC5/ADC_SAR_1_theACLK.c ****                 CLK_DIST_AMASK = 0x00u;
 954              		.loc 1 236 0
 955 004e 1026     		movs	r6, #16
 956              	.LVL17:
 957 0050 0F31     		adds	r1, r1, #15
 958 0052 0E70     		strb	r6, [r1]
 237:Generated_Source\PSoC5/ADC_SAR_1_theACLK.c **** #endif /* ADC_SAR_1_theACLK__CFG3 */
 959              		.loc 1 237 0
 960 0054 0431     		adds	r1, r1, #4
 961 0056 0B70     		strb	r3, [r1]
 240:Generated_Source\PSoC5/ADC_SAR_1_theACLK.c **** 
 962              		.loc 1 240 0
 963 0058 0C39     		subs	r1, r1, #12
 964 005a 0B78     		ldrb	r3, [r1]	@ zero_extendqisi2
 965 005c 03F07F03 		and	r3, r3, #127
 966 0060 0B70     		strb	r3, [r1]
 243:Generated_Source\PSoC5/ADC_SAR_1_theACLK.c ****                 {
 967              		.loc 1 243 0
 968 0062 1B4B     		ldr	r3, .L45+8
 969 0064 1B78     		ldrb	r3, [r3]	@ zero_extendqisi2
 970 0066 13F0080F 		tst	r3, #8
 971 006a 00D0     		beq	.L38
 243:Generated_Source\PSoC5/ADC_SAR_1_theACLK.c ****                 {
 972              		.loc 1 243 0 is_stmt 0 discriminator 1
 973 006c 8CB9     		cbnz	r4, .L37
 974              	.L38:
 246:Generated_Source\PSoC5/ADC_SAR_1_theACLK.c ****                     CLK_DIST_LD = CYCLK_LD_DISABLE|CYCLK_LD_SYNC_EN|CYCLK_LD_LOAD;
 975              		.loc 1 246 0 is_stmt 1
ARM GAS  C:\Users\Luggi\AppData\Local\Temp\ccrqAUL9.s 			page 59


 976 006e 1A4B     		ldr	r3, .L45+16
 977 0070 1880     		strh	r0, [r3]	@ movhi
 247:Generated_Source\PSoC5/ADC_SAR_1_theACLK.c **** 
 978              		.loc 1 247 0
 979 0072 0721     		movs	r1, #7
 980 0074 013B     		subs	r3, r3, #1
 981 0076 1970     		strb	r1, [r3]
 982              	.L39:
 250:Generated_Source\PSoC5/ADC_SAR_1_theACLK.c **** #endif /* HAS_CLKDIST_LD_DISABLE */
 983              		.loc 1 250 0 discriminator 1
 984 0078 164B     		ldr	r3, .L45+12
 985 007a 1B78     		ldrb	r3, [r3]	@ zero_extendqisi2
 986 007c 13F0010F 		tst	r3, #1
 987 0080 FAD1     		bne	.L39
 253:Generated_Source\PSoC5/ADC_SAR_1_theACLK.c **** 
 988              		.loc 1 253 0
 989 0082 1149     		ldr	r1, .L45
 990 0084 0B78     		ldrb	r3, [r1]	@ zero_extendqisi2
 991 0086 03F0EF03 		and	r3, r3, #239
 992 008a 0B70     		strb	r3, [r1]
 257:Generated_Source\PSoC5/ADC_SAR_1_theACLK.c **** #endif /* HAS_CLKDIST_LD_DISABLE */
 993              		.loc 1 257 0
 994 008c 0021     		movs	r1, #0
 995 008e 114B     		ldr	r3, .L45+12
 996 0090 1970     		strb	r1, [r3]
 997              	.L37:
 263:Generated_Source\PSoC5/ADC_SAR_1_theACLK.c ****             {
 998              		.loc 1 263 0
 999 0092 0D4B     		ldr	r3, .L45
 1000 0094 1B78     		ldrb	r3, [r3]	@ zero_extendqisi2
 1001 0096 13F0100F 		tst	r3, #16
 1002 009a 0DD0     		beq	.L40
 266:Generated_Source\PSoC5/ADC_SAR_1_theACLK.c **** 
 1003              		.loc 1 266 0
 1004 009c 0E4B     		ldr	r3, .L45+16
 1005 009e 1C80     		strh	r4, [r3]	@ movhi
 268:Generated_Source\PSoC5/ADC_SAR_1_theACLK.c ****                 while ((CLK_DIST_LD & CYCLK_LD_LOAD) != 0u) { }
 1006              		.loc 1 268 0
 1007 00a0 0DB1     		cbz	r5, .L43
 1008 00a2 0322     		movs	r2, #3
 1009              	.LVL18:
 1010 00a4 00E0     		b	.L41
 1011              	.LVL19:
 1012              	.L43:
 1013 00a6 0122     		movs	r2, #1
 1014              	.LVL20:
 1015              	.L41:
 268:Generated_Source\PSoC5/ADC_SAR_1_theACLK.c ****                 while ((CLK_DIST_LD & CYCLK_LD_LOAD) != 0u) { }
 1016              		.loc 1 268 0 is_stmt 0 discriminator 4
 1017 00a8 0A4B     		ldr	r3, .L45+12
 1018 00aa 1A70     		strb	r2, [r3]
 1019              	.L42:
 269:Generated_Source\PSoC5/ADC_SAR_1_theACLK.c ****             }
 1020              		.loc 1 269 0 is_stmt 1 discriminator 1
 1021 00ac 094B     		ldr	r3, .L45+12
 1022 00ae 1B78     		ldrb	r3, [r3]	@ zero_extendqisi2
 1023 00b0 13F0010F 		tst	r3, #1
ARM GAS  C:\Users\Luggi\AppData\Local\Temp\ccrqAUL9.s 			page 60


 1024 00b4 FAD1     		bne	.L42
 1025 00b6 70BD     		pop	{r4, r5, r6, pc}
 1026              	.LVL21:
 1027              	.L40:
 274:Generated_Source\PSoC5/ADC_SAR_1_theACLK.c **** 				ADC_SAR_1_theACLK_CLKEN |= enabled;
 1028              		.loc 1 274 0
 1029 00b8 044B     		ldr	r3, .L45+4
 1030 00ba 1C80     		strh	r4, [r3]	@ movhi
 275:Generated_Source\PSoC5/ADC_SAR_1_theACLK.c ****             }
 1031              		.loc 1 275 0
 1032 00bc 0249     		ldr	r1, .L45
 1033 00be 0B78     		ldrb	r3, [r1]	@ zero_extendqisi2
 1034 00c0 1343     		orrs	r3, r3, r2
 1035 00c2 0B70     		strb	r3, [r1]
 1036              	.LVL22:
 1037              	.L32:
 1038 00c4 70BD     		pop	{r4, r5, r6, pc}
 1039              	.L46:
 1040 00c6 00BF     		.align	2
 1041              	.L45:
 1042 00c8 A2430040 		.word	1073759138
 1043 00cc 90400040 		.word	1073758352
 1044 00d0 92400040 		.word	1073758354
 1045 00d4 01400040 		.word	1073758209
 1046 00d8 02400040 		.word	1073758210
 1047              		.cfi_endproc
 1048              	.LFE4:
 1049              		.size	ADC_SAR_1_theACLK_SetDividerRegister, .-ADC_SAR_1_theACLK_SetDividerRegister
 1050              		.section	.text.ADC_SAR_1_theACLK_SetSourceRegister,"ax",%progbits
 1051              		.align	2
 1052              		.global	ADC_SAR_1_theACLK_SetSourceRegister
 1053              		.thumb
 1054              		.thumb_func
 1055              		.type	ADC_SAR_1_theACLK_SetSourceRegister, %function
 1056              	ADC_SAR_1_theACLK_SetSourceRegister:
 1057              	.LFB9:
 420:Generated_Source\PSoC5/ADC_SAR_1_theACLK.c ****     uint16 currDiv = ADC_SAR_1_theACLK_GetDividerRegister();
 1058              		.loc 1 420 0
 1059              		.cfi_startproc
 1060              		@ args = 0, pretend = 0, frame = 0
 1061              		@ frame_needed = 0, uses_anonymous_args = 0
 1062              	.LVL23:
 1063 0000 38B5     		push	{r3, r4, r5, lr}
 1064              		.cfi_def_cfa_offset 16
 1065              		.cfi_offset 3, -16
 1066              		.cfi_offset 4, -12
 1067              		.cfi_offset 5, -8
 1068              		.cfi_offset 14, -4
 1069 0002 0446     		mov	r4, r0
 421:Generated_Source\PSoC5/ADC_SAR_1_theACLK.c ****     uint8 oldSrc = ADC_SAR_1_theACLK_GetSourceRegister();
 1070              		.loc 1 421 0
 1071 0004 FFF7FEFF 		bl	ADC_SAR_1_theACLK_GetDividerRegister
 1072              	.LVL24:
 1073 0008 0546     		mov	r5, r0
 1074              	.LVL25:
 422:Generated_Source\PSoC5/ADC_SAR_1_theACLK.c **** 
 1075              		.loc 1 422 0
ARM GAS  C:\Users\Luggi\AppData\Local\Temp\ccrqAUL9.s 			page 61


 1076 000a FFF7FEFF 		bl	ADC_SAR_1_theACLK_GetSourceRegister
 1077              	.LVL26:
 424:Generated_Source\PSoC5/ADC_SAR_1_theACLK.c ****         (clkSource == ((uint8)CYCLK_SRC_SEL_CLK_SYNC_D))) && (currDiv == 0u))
 1078              		.loc 1 424 0
 1079 000e 0346     		mov	r3, r0
 1080 0010 60B1     		cbz	r0, .L48
 424:Generated_Source\PSoC5/ADC_SAR_1_theACLK.c ****         (clkSource == ((uint8)CYCLK_SRC_SEL_CLK_SYNC_D))) && (currDiv == 0u))
 1081              		.loc 1 424 0 is_stmt 0 discriminator 1
 1082 0012 5CB9     		cbnz	r4, .L48
 425:Generated_Source\PSoC5/ADC_SAR_1_theACLK.c ****     {
 1083              		.loc 1 425 0 is_stmt 1
 1084 0014 55B9     		cbnz	r5, .L48
 429:Generated_Source\PSoC5/ADC_SAR_1_theACLK.c ****         ADC_SAR_1_theACLK_MOD_SRC =
 1085              		.loc 1 429 0
 1086 0016 104A     		ldr	r2, .L52
 1087 0018 1378     		ldrb	r3, [r2]	@ zero_extendqisi2
 1088 001a 43F04003 		orr	r3, r3, #64
 1089 001e 1370     		strb	r3, [r2]
 431:Generated_Source\PSoC5/ADC_SAR_1_theACLK.c ****     }
 1090              		.loc 1 431 0
 1091 0020 1378     		ldrb	r3, [r2]	@ zero_extendqisi2
 430:Generated_Source\PSoC5/ADC_SAR_1_theACLK.c ****             (ADC_SAR_1_theACLK_MOD_SRC & (uint8)(~ADC_SAR_1_theACLK_SRC_SEL_MSK)) | clkSource;
 1092              		.loc 1 430 0
 1093 0022 03F0F803 		and	r3, r3, #248
 1094 0026 1C43     		orrs	r4, r4, r3
 1095 0028 1470     		strb	r4, [r2]
 1096 002a 38BD     		pop	{r3, r4, r5, pc}
 1097              	.LVL27:
 1098              	.L48:
 433:Generated_Source\PSoC5/ADC_SAR_1_theACLK.c ****             (clkSource != ((uint8)CYCLK_SRC_SEL_CLK_SYNC_D))) && (currDiv == 0u))
 1099              		.loc 1 433 0
 1100 002c 63B9     		cbnz	r3, .L50
 433:Generated_Source\PSoC5/ADC_SAR_1_theACLK.c ****             (clkSource != ((uint8)CYCLK_SRC_SEL_CLK_SYNC_D))) && (currDiv == 0u))
 1101              		.loc 1 433 0 is_stmt 0 discriminator 1
 1102 002e 5CB1     		cbz	r4, .L50
 434:Generated_Source\PSoC5/ADC_SAR_1_theACLK.c ****     {
 1103              		.loc 1 434 0 is_stmt 1
 1104 0030 55B9     		cbnz	r5, .L50
 439:Generated_Source\PSoC5/ADC_SAR_1_theACLK.c ****         ADC_SAR_1_theACLK_MOD_SRC &= (uint8)(~CYCLK_SSS);
 1105              		.loc 1 439 0
 1106 0032 094A     		ldr	r2, .L52
 1107 0034 1378     		ldrb	r3, [r2]	@ zero_extendqisi2
 438:Generated_Source\PSoC5/ADC_SAR_1_theACLK.c ****             (ADC_SAR_1_theACLK_MOD_SRC & (uint8)(~ADC_SAR_1_theACLK_SRC_SEL_MSK)) | clkSource;
 1108              		.loc 1 438 0
 1109 0036 03F0F803 		and	r3, r3, #248
 1110 003a 1C43     		orrs	r4, r4, r3
 1111 003c 1470     		strb	r4, [r2]
 440:Generated_Source\PSoC5/ADC_SAR_1_theACLK.c ****     }
 1112              		.loc 1 440 0
 1113 003e 1378     		ldrb	r3, [r2]	@ zero_extendqisi2
 1114 0040 03F0BF03 		and	r3, r3, #191
 1115 0044 1370     		strb	r3, [r2]
 1116 0046 38BD     		pop	{r3, r4, r5, pc}
 1117              	.LVL28:
 1118              	.L50:
 445:Generated_Source\PSoC5/ADC_SAR_1_theACLK.c ****     }
 1119              		.loc 1 445 0
ARM GAS  C:\Users\Luggi\AppData\Local\Temp\ccrqAUL9.s 			page 62


 1120 0048 034A     		ldr	r2, .L52
 1121 004a 1378     		ldrb	r3, [r2]	@ zero_extendqisi2
 444:Generated_Source\PSoC5/ADC_SAR_1_theACLK.c ****             (ADC_SAR_1_theACLK_MOD_SRC & (uint8)(~ADC_SAR_1_theACLK_SRC_SEL_MSK)) | clkSource;
 1122              		.loc 1 444 0
 1123 004c 03F0F803 		and	r3, r3, #248
 1124 0050 1C43     		orrs	r4, r4, r3
 1125 0052 1470     		strb	r4, [r2]
 1126 0054 38BD     		pop	{r3, r4, r5, pc}
 1127              	.LVL29:
 1128              	.L53:
 1129 0056 00BF     		.align	2
 1130              	.L52:
 1131 0058 92400040 		.word	1073758354
 1132              		.cfi_endproc
 1133              	.LFE9:
 1134              		.size	ADC_SAR_1_theACLK_SetSourceRegister, .-ADC_SAR_1_theACLK_SetSourceRegister
 1135              		.text
 1136              	.Letext0:
 1137              		.file 2 "Generated_Source\\PSoC5/cytypes.h"