ARM GAS  C:\Users\Luggi\AppData\Local\Temp\cc0hmrdM.s 			page 1


   1              		.syntax unified
   2              		.cpu cortex-m3
   3              		.fpu softvfp
   4              		.eabi_attribute 20, 1
   5              		.eabi_attribute 21, 1
   6              		.eabi_attribute 23, 3
   7              		.eabi_attribute 24, 1
   8              		.eabi_attribute 25, 1
   9              		.eabi_attribute 26, 1
  10              		.eabi_attribute 30, 1
  11              		.eabi_attribute 34, 1
  12              		.eabi_attribute 18, 4
  13              		.thumb
  14              		.file	"Clock_5.c"
  15              		.text
  16              	.Ltext0:
  17              		.section	.gnu.lto_.profile.304b6c85,"",%progbits
  18 0000 789C6366 		.ascii	"x\234cf```c\200\000F\206\353\214+\030\001\005R\001\214"
  18      60606063 
  18      80004686 
  18      EB8C2B18 
  18      01055201 
  19              		.text
  20              		.section	.gnu.lto_.inline.304b6c85,"",%progbits
  21 0000 789C6366 		.ascii	"x\234cf\300\016\272\030!47\003\003'\007#\003\023\317"
  21      C00EBA18 
  21      21343703 
  21      03270723 
  21      0313CF
  22 0013 835806B6 		.ascii	"\203X\006\266\005\362L 1FL!&\006\031m\240\220\321\234"
  22      05F24C20 
  22      31464C21 
  22      2606196D 
  22      A090D19C 
  23 0027 0E56B818 		.ascii	"\016V\270\0303\0037;#3C\306G&\306\306e\273{\330_0\375"
  23      3303373B 
  23      233343C6 
  23      4726C6C6 
  23      65BB7BD8 
  24 003e 0489332E 		.ascii	"\004\2113.g\224b`\310\204P@[X\201b`-,\013\344\005\030"
  24      67946260 
  24      C8845040 
  24      5B588162 
  24      602D2C0B 
  25 0055 D8CEC870 		.ascii	"\330\316\310p0\260-\021b\001\231\300\302\300\302\014"
  25      30B02D11 
  25      620199C0 
  25      C2C0C20C 
  26 0065 3495E902 		.ascii	"4\225\351\002?\334PV\006v6FF\220>f\266\017z\020a\240"
  26      3FDC5056 
  26      06763646 
  26      46903E66 
  26      B60F7A10 
  27 007b 3C58391B 		.ascii	"<X9\033\003\007;\272\034\320P\260\034;\003+\013\320"
  27      03073BBA 
  27      1CD050B0 
  27      1C3B032B 
ARM GAS  C:\Users\Luggi\AppData\Local\Temp\cc0hmrdM.s 			page 2


  27      0BD0
  28 008d 2820176E 		.ascii	"( \027n\024\007\246\020'\303a\006[F6T7\003\315c\\\001"
  28      1407A610 
  28      27C36106 
  28      5B463654 
  28      3703CD63 
  29 00a3 71338862 		.ascii	"q3\210b\2048\2351\003\356\003\240\235\014,9oV\260@\314"
  29      84389D31 
  29      03EE03A0 
  29      9D0C2C39 
  29      6F56B040 
  30 00b8 E198C2E5 		.ascii	"\341\230\302\345\300\300\362\202\275\001\034\204L\334"
  30      C0C0F282 
  30      BD011C84 
  30      4CDC
  31 00c6 30828B41 		.ascii	"0\202\213AU\031\024\036\030\001 \260\"\017\252\363\216"
  31      5519141E 
  31      180120B0 
  31      220FAAF3 
  31      8E
  32 00d7 AC0083D0 		.ascii	"\254\000\203\3206\240\347\205\256\010p\240\352f\000"
  32      36A0E785 
  32      AE0870A0 
  32      EA6600
  33 00e6 0066D635 		.ascii	"\000f\3265\011"
  33      09
  34              		.text
  35              		.section	.gnu.lto_.jmpfuncs.304b6c85,"",%progbits
  36 0000 789C6D8A 		.ascii	"x\234m\212[\012\000 \014\303R\347\333\343x\300]]\007"
  36      5B0A0020 
  36      0CC352E7 
  36      DBE378C0 
  36      5D5D07
  37 0013 7E5A4803 		.ascii	"~ZH\003\245\306?\373y]\004\011L\222g(\341\032\325\240"
  37      A5C63FFB 
  37      795D0409 
  37      4C926728 
  37      E11AD5A0 
  38 0027 C34892B9 		.ascii	"\303H\222\271\303\214\355\336\017O\350\003\206"
  38      C38CEDDE 
  38      0F4FE803 
  38      86
  39              		.text
  40              		.section	.gnu.lto_.pureconst.304b6c85,"",%progbits
  41 0000 789C6366 		.ascii	"x\234cf``\020g\200\000n\006)F)&)f)\026)V)6)v)\016)N"
  41      60601067 
  41      80006E06 
  41      29462926 
  41      29662916 
  42 001e 292E2900 		.ascii	").)\000\022T\001{"
  42      1254017B 
  43              		.text
  44              		.section	.gnu.lto_Clock_5_Start.304b6c85,"",%progbits
  45 0000 789C7D91 		.ascii	"x\234}\221\315K\002a\020\207\3477\253\213\346%:z\213"
  45      CD4B0261 
  45      1087E737 
  45      AB8BE625 
ARM GAS  C:\Users\Luggi\AppData\Local\Temp\cc0hmrdM.s 			page 3


  45      3A7A8B
  46 0013 0EDEBAF9 		.ascii	"\016\336\272\371\027x\350*x\025$\314S\221 uv\227\204"
  46      1778E82A 
  46      781524CC 
  46      53912075 
  46      769784
  47 0026 BE2E121D 		.ascii	"\276.\022\035\202\360\022\364ii\032\324\261\255\240"
  47      82F012F4 
  47      69691AD4 
  47      B1ADA0
  48 0035 0E815114 		.ascii	"\016\201Q\024\201A]\014\354\246\024\225A\330\274\273"
  48      81415D0C 
  48      ECA61495 
  48      41D8BCBB 
  49 0045 7D40520B 		.ascii	"}@R\013\357\274\357\356\316<\363\354\254F\235\227_V"
  49      EFBCEFEE 
  49      CE3CF3EC 
  49      AC469D97 
  49      5F56
  50 0057 19447DB2 		.ascii	"\031D}\262C#p\266Bdz\030P\007\002\245\031i<p\223\221"
  50      432370B6 
  50      42647A18 
  50      500702A5 
  50      19693C70 
  51 006d B5F20BBE 		.ascii	"\265\362\013\276\300\262a\030\215\213S3l\241\305D\217"
  51      C0B26118 
  51      8D8B5333 
  51      6CA1C544 
  51      8F
  52 007e EC70B08A 		.ascii	"\354p\260\212\000IR3\363~\355\3233\222\324\355\274\303"
  52      00495233 
  52      F37EEDD3 
  52      3392D4ED 
  52      BCC3
  53 0090 1A74E153 		.ascii	"\032t\341S\261\3072\332\355\235\342\301%<L-\226f\022"
  53      B1C732DA 
  53      ED9DE2C1 
  53      253C4C2D 
  53      966612
  54 00a3 DC2AE82A 		.ascii	"\334*\350*\020\325$]5\275gV\273V\305\341\363\314\361"
  54      10D5245D 
  54      35BD6756 
  54      BB56C5E1 
  54      F3CCF1
  55 00b6 AE5B115E 		.ascii	"\256[\021^\3306\230\335\177\363\326\271\305\2744i\032"
  55      D83698DD 
  55      7FF3D6B9 
  55      C5BC3469 
  55      1A
  56 00c7 2ED5EFAE 		.ascii	".\325\357\256vv\356\261\037\221\272-\225\246^\2759,"
  56      7676EEB1 
  56      1F91BA2D 
  56      95A65EBD 
  56      392C
  57 00d9 9A19B1D3 		.ascii	"\232\031\261\323\260\016?6 \337\210<r\240*&\236t\007"
  57      B00E3F36 
  57      20DF883C 
ARM GAS  C:\Users\Luggi\AppData\Local\Temp\cc0hmrdM.s 			page 4


  57      72A02A26 
  57      9E7407
  58 00ec A739C493 		.ascii	"\2479\304\223\\\275\354R\345\000aS2\245\351\034T\312"
  58      5CBDEC52 
  58      E5006153 
  58      32A5E91C 
  58      54CA
  59 00fe 7FB02D81 		.ascii	"\177\260-\201\011\202l\303\312\312\247\241[J\362\363"
  59      09826CC3 
  59      CACAA7A1 
  59      5B4AF2F3 
  60 010e 37473E5B 		.ascii	"7G>[\247\374e8\275Wht\375P\012\337\224\342/%\205\350"
  60      A7FC6538 
  60      BD576874 
  60      FD500ADF 
  60      94E22F25 
  61 0124 70F8B37A 		.ascii	"p\370\263z\333v\320\351\026\246ue\033\250\337P\223A"
  61      DB76D0E9 
  61      16A67565 
  61      1BA8DF50 
  61      9341
  62 0136 CAEC6418 		.ascii	"\312\354d\030\275\003\211\321Djp,1\024\213$\307S\361"
  62      BD0389D1 
  62      446A702C 
  62      31148B24 
  62      C753F1
  63 0149 44341C49 		.ascii	"D4\034I\206\202\321\320H2>\034\013\366\307\351\003;"
  63      8682D1D0 
  63      48323E1C 
  63      0BF6C7E9 
  63      033B
  64 015b 08A005   		.ascii	"\010\240\005"
  65              		.text
  66              		.section	.gnu.lto_Clock_5_Stop.304b6c85,"",%progbits
  67 0000 789C7D91 		.ascii	"x\234}\221\315K\002a\020\306gfs\321\204\210N\342-:x"
  67      CD4B0261 
  67      10C66766 
  67      73D18488 
  67      4EE22D3A 
  68 0015 EBE65F20 		.ascii	"\353\346_ \32450:\011\022\266\247\"A\352\354.\031Y]"
  68      D435303A 
  68      0912B6A7 
  68      2241EAEC 
  68      2E19595D 
  69 0029 343A2461 		.ascii	"4:$a\207 \372\26043\210NI]\243\350R``\027\203\272iA"
  69      8720FAB0 
  69      3433884E 
  69      495DA3E8 
  69      52606017 
  70 0041 B941D9CC 		.ascii	"\271A\331\314.\025$\365\302;\357\307>\363\233\347\235"
  70      2E1524F5 
  70      C23BEFC7 
  70      3EF39BE7 
  70      9D
  71 0052 55A07D78 		.ascii	"U\240}xy\226\020\240\217WT\000)u\001`8\011Q6\200\020"
  71      799610A0 
  71      8F575400 
ARM GAS  C:\Users\Luggi\AppData\Local\Temp\cc0hmrdM.s 			page 5


  71      29750160 
  71      38095136 
  72 0068 278CE323 		.ascii	"'\214\343#5\010S\345\334\212\333\267\241\353z\375\251"
  72      350853E5 
  72      DC8ADBB7 
  72      A1EB7AFD 
  72      A9
  73 0079 E899F598 		.ascii	"\350\231\365\230\004\360L6\0067\321\007\254i$\336o\334"
  73      04F04C36 
  73      0637D107 
  73      AC6924DE 
  73      6FDC
  74 008b 6A8235DD 		.ascii	"j\2025\335\3667\334B\225\361P\350)\353\255V\351<\235"
  74      F637DC42 
  74      95F150E8 
  74      29EBAD56 
  74      E93C9D
  75 009e F4A193C0 		.ascii	"\364\241\223\300$.\306\301!A\225\000Pc\275\024\275'"
  75      242EC6C1 
  75      21419500 
  75      5063BD14 
  75      BD27
  76 00b0 9255A9E0 		.ascii	"\222U\251\340\351\313\302ufD\020\257d9X<ys=\220I\264"
  76      E9CBC275 
  76      664410AF 
  76      6439583C 
  76      79733D90 
  77 00c6 3E67E81D 		.ascii	">g\350\035R\360\256vy\345\264\256@\216\305b\262\351"
  77      52F0AE76 
  77      79E5B4AE 
  77      408EC562 
  77      B2E9
  78 00d8 CAE2AA91 		.ascii	"\312\342\252\221@\223\024\334F/\356 \277\021s\230E\250"
  78      409314DC 
  78      462FEE20 
  78      BF117398 
  78      45A8
  79 00ea E04C53B5 		.ascii	"\340LS\265q\212ML\247\017\327\272$]\371@\300]\226r\325"
  79      718A4D4C 
  79      A70FD7BA 
  79      245DF940 
  79      C05D9672 
  80 00ff 2514CD7F 		.ascii	"%\024\315\177\264=\2461\003,\213\325\314\260\315tpJ"
  80      B43DA631 
  80      032C8BD5 
  80      CCB0CD74 
  80      704A
  81 0111 6EF9F6CC 		.ascii	"n\371\366\314m\3719\370\2628\177\224\257w\376P\362\337"
  81      6DF939F8 
  81      B2387F94 
  81      AF77FE50 
  81      F2DF
  82 0123 94C22F4F 		.ascii	"\224\302/O\202h\363\360g\366\276\345A\205*\032\345\343"
  82      8268F3F0 
  82      67F6BEE5 
  82      41852A1A 
  82      E5E3
ARM GAS  C:\Users\Luggi\AppData\Local\Temp\cc0hmrdM.s 			page 6


  83 0135 0151CB8F 		.ascii	"\001Q\313\217\250q'\271y\334\215\336AmR\213\215Nic\341"
  83      A87127B9 
  83      79DC8DDE 
  83      416D528B 
  83      8D4E6963 
  84 014a 60743A16 		.ascii	"`t:\026\321BC\301h\300\037\012LD#\343a\177\177\004>"
  84      D14243C1 
  84      68C01F0A 
  84      4C4423E3 
  84      617F7F04 
  85 015f 01EADBA0 		.ascii	"\001\352\333\240:"
  85      3A
  86              		.text
  87              		.section	.gnu.lto_Clock_5_StopBlock.304b6c85,"",%progbits
  88 0000 789C8D94 		.ascii	"x\234\215\224MLTW\024\307\357\271\357k\206\241|(\013"
  88      4D4C5457 
  88      14C7EFB9 
  88      EF6B86A1 
  88      7C280B
  89 0013 EAA2C6D8 		.ascii	"\352\242\306\330\350\216nd\345\312h\322\304\225\321"
  89      E88E6E64 
  89      E5CA68D2 
  89      C495D1
  90 0022 8D4DB0C6 		.ascii	"\215M\260\306\302,LM1\244\355\302E\271\017\306/d\301"
  90      C22C4C4D 
  90      31A4EDC2 
  90      45B90FC6 
  90      2F64C1
  91 0035 A089D48A 		.ascii	"\240\211\324\212\004\223\352(~\015\325R\212\037S>\034"
  91      0493EA28 
  91      7E0DD552 
  91      8A1F533E 
  91      1C
  92 0046 01C54EA3 		.ascii	"\001\305N\243\0301\"1\214A\3236CP`Laz\316\275o\336\300"
  92      18312231 
  92      8C41D336 
  92      4350604C 
  92      617ACEBD 
  93 005d 188C93CC 		.ascii	"\030\214\223\314y\357\335{\316\357\376\3579\347^\215"
  93      79EFDD7B 
  93      CEEFFEEF 
  93      39E75E8D 
  94 006d BDFBDB81 		.ascii	"\275\373\333\201\377\365&c%\370\004\017\003\3360\304"
  94      FFF52663 
  94      25F8040F 
  94      03DE30C4 
  95 007d 98EDE15C 		.ascii	"\230\355\341\\{\360\031\0239\346\365O\230\310\325@W"
  95      7BF01913 
  95      39E6F54F 
  95      98C8D540 
  95      57
  96 008e C33AB7EA 		.ascii	"\303:\267\352\243\014\307\215\200\205\343\226\032\337"
  96      A30CC78D 
  96      8085E396 
  96      1ADF
  97 009c 6080A9E6 		.ascii	"`\200\251\346M\000za\300\252\271\246[\206\011\325\\"
  97      4D007A61 
ARM GAS  C:\Users\Luggi\AppData\Local\Temp\cc0hmrdM.s 			page 7


  97      C0AAB9A6 
  97      5B8609D5 
  97      5C
  98 00ad 570BBDE4 		.ascii	"W\013\275\344\223\034\032\"mM\276\265?\013!\022\335"
  98      931C1A22 
  98      6D4DBEB5 
  98      3F0B2112 
  98      DD
  99 00be 9DC5FB8B 		.ascii	"\235\305\373\213\223\234\261)\256\034\340,\254e\350"
  99      939CB129 
  99      AE1CE02C 
  99      AC65E8
 100 00cd 3319987B 		.ascii	"3\031\230{\3443\003\350S\240\346 \004&\340\003\347\354"
 100      E43303E8 
 100      53A0E620 
 100      0426E003 
 100      E7EC
 101 00df DB07C386 		.ascii	"\333\007\303\206\366)\220\337\340\363\331\251\334\011"
 101      F62990DF 
 101      E0F3D9A9 
 101      DC09
 102 00ed 9EE45040 		.ascii	"\236\344P@\237'\036\305_k\364\3119}\016\267\237\015"
 102      9F271EC5 
 102      5F6BF4C9 
 102      397D0EB7 
 102      9F0D
 103 00ff C1EA5621 		.ascii	"\301\352V!j\306\036\327\326\345\212\220\010\214\245"
 103      6AC61ED7 
 103      D6E58A90 
 103      088CA5
 104 010e 522B935C 		.ascii	"R+\223\\\203s\240!\027\316\303\012h\203\025N\036\340"
 104      8373A021 
 104      17CEC30A 
 104      6883154E 
 104      1EE0
 105 0120 02ACBEBC 		.ascii	"\002\254\276\274,\"R\251\251\027\301\2115\274XcI\256"
 105      2C2252A9 
 105      A917C189 
 105      35BC5863 
 105      49AE
 106 0132 EB643C64 		.ascii	"\353d<d\274d|\322-\217^\363\311\024\220)$\263\234L\021"
 106      BC647CD2 
 106      2D8F5EF3 
 106      C9149029 
 106      24B39C4C 
 107 0147 19C6C651 		.ascii	"\031\306\306Qt\217\217\305QH\217O\033\201\356\351\272"
 107      748F8FC5 
 107      51488F4F 
 107      1B81EEE9 
 107      BA
 108 0158 E993EB68 		.ascii	"\351\223\353h\0273\\\243$\034\271\365\326KJ\215\323"
 108      17335CA3 
 108      241CB9F5 
 108      D64B4A8D 
 108      D3
 109 0169 076DA193 		.ascii	"\007m\241\223\332g\343\367c\0369\304\3503\034>4\353"
 109      DA67E3F7 
ARM GAS  C:\Users\Luggi\AppData\Local\Temp\cc0hmrdM.s 			page 8


 109      631E39C4 
 109      E8331C3E 
 109      34EB
 110 017b 6D869FEC 		.ascii	"m\206\237\354\000$\271\011\027Q\351%R\012\227\241\031"
 110      0024B909 
 110      1751E925 
 110      520A97A1 
 110      19
 111 018c D808D4CE 		.ascii	"\330\010\324\316\036\350\325\0240_1\243\315\023\355"
 111      1EE8D514 
 111      305F31A3 
 111      CD13ED
 112 019b 3A017460 		.ascii	":\001t`p\005}\037B\340q\355W\216\017e\356LW\275%\035"
 112      70057D1F 
 112      42E071ED 
 112      578E0F65 
 112      EE4C57BD 
 113 01b1 101376B6 		.ascii	"\020\023v\266\035\347\032\013X$1\221\370'f,N>mU\346"
 113      1DE71A0B 
 113      58243191 
 113      F827662C 
 113      4E3E6D55 
 114 01c6 1E03DAC1 		.ascii	"\036\003\332\301\304\311\324\217\242T\212\264\205\243"
 114      C4C9D48F 
 114      A2548AB4 
 114      85A3
 115 01d4 BBFFF4AB 		.ascii	"\273\377\364\253\177\271\024jG>&\251\277\270R\257\242"
 115      7FB9146A 
 115      473E26A9 
 115      BFB852AF 
 115      A2
 116 01e5 D4853B23 		.ascii	"\324\205;#\3145\234\241\305\256\274\261-\207\331X3\262"
 116      CC359CA1 
 116      C5AEBCB1 
 116      2D87D958 
 116      33B2
 117 01f7 4F321BD2 		.ascii	"O2\033\322\314\343\347\002\017?Z\310\374\325ev(f\354"
 117      CCE3E702 
 117      0F3F5AC8 
 117      FCD56576 
 117      2866EC
 118 020a C499DA7C 		.ascii	"\304\231\332|\311\304\315\376\3460\023\031f\313@l\220"
 118      C9C4CDFE 
 118      E6301319 
 118      66CB406C 
 118      90
 119 021b 4BE8B134 		.ascii	"K\350\2614\364h\360h_\336Bh\247\013\375\035\241ie\323"
 119      F468F068 
 119      5FDE4268 
 119      A70BFD1D 
 119      A16965D3 
 120 022f 75F3A7F6 		.ascii	"u\363\247\366\022e\206{0j\364bg\223\354)\343P\032\324"
 120      1265867B 
 120      306AF462 
 120      6793EC29 
 120      E3501AD4 
 121 0243 3724EA21 		.ascii	"7$\352!S\232.\027s=]\032S\305{\025\242\345\345\374\204"
ARM GAS  C:\Users\Luggi\AppData\Local\Temp\cc0hmrdM.s 			page 9


 121      539A2E17 
 121      733D5D1A 
 121      53C57B15 
 121      A2E5E5FC 
 122 0258 2C8C59CD 		.ascii	",\214Y\315\340\206Z\245\021\034\241K\302n\342(\"\224"
 122      E0865AA5 
 122      111CA14B 
 122      C26EE228 
 122      2294
 123 026a A4A196ED 		.ascii	"\244\241\226\355\012\351\303\220\013S\275O\015\342Y"
 123      0AE9C390 
 123      0B53BD4F 
 123      0DE259
 124 0279 C2CE6E1E 		.ascii	"\302\316n\036K6\317\233\343c\327\322\371+Ir\017\334"
 124      4B36CF9B 
 124      E363D7D2 
 124      F92B4972 
 124      0FDC
 125 028b 426C4462 		.ascii	"BlDb\377 \215\303P#\276  \025\030\241RQx.\2509\242\354"
 125      FF208DC3 
 125      5023BE20 
 125      201518A1 
 125      5251782E 
 126 02a3 C9A62E99 		.ascii	"\311\246.\231=o\215\310^\301+WH\264\306\266\246U\347"
 126      3D6F8DC8 
 126      5EC12B57 
 126      48B4C6B6 
 126      A655E7
 127 02b6 4037E27B 		.ascii	"@7\342{$\276W\252\366\251r\314\305\014\007\370\236&"
 127      24BE57AA 
 127      F6A972CC 
 127      C50C07F8 
 127      9E26
 128 02c8 E953059D 		.ascii	"\351S\005\235\371/\272_\025\324bp[6g\034\033\025\257"
 128      F92FBA5F 
 128      15D46270 
 128      5B36671C 
 128      1B15AF
 129 02db 12E7F8B4 		.ascii	"\022\347\370\264lU\031\310[\204\203\305\260\250{8\376"
 129      6C5519C8 
 129      5B8483C5 
 129      B0A87B38 
 129      FE
 130 02ec D694BB8E 		.ascii	"\326\224\273\216\021\231\323\360\2033\350\266\3778f"
 130      1199D3F0 
 130      8333E8B6 
 130      FF3866
 131 02fb 0CAF3388 		.ascii	"\014\2573\210\343\261S\307`\272n8\364\245r+x\3379\274"
 131      E3B153C7 
 131      60BA6E38 
 131      F4A5722B 
 131      78DF39BC 
 132 030f 9355EC42 		.ascii	"\223U\354B\345\037\014^=\225'\3671\217\235\331\237U"
 132      E51F0C5E 
 132      3D9527F7 
 132      318F9DD9 
 132      9F55
ARM GAS  C:\Users\Luggi\AppData\Local\Temp\cc0hmrdM.s 			page 10


 133 0321 ED256903 		.ascii	"\355%i\0032o\205\252\332\243\241*\305\\\216!m\307\236"
 133      326F85AA 
 133      DAA3A12A 
 133      C55C8E21 
 133      6DC79E
 134 0334 F4F86403 		.ascii	"\364\370d\003\266\247\257\212\303\035\227\0229\031\312"
 134      B6A7AF8A 
 134      C31D9712 
 134      3919CA
 135 0343 A04BB99B 		.ascii	"\240K\271\233\245\251\010\021\357hX2\372\236\324P\244"
 135      A5A90811 
 135      EF685832 
 135      FA9ED450 
 135      A4
 136 0354 6A17FDEB 		.ascii	"j\027\375\353\003j7\264\340\3344\006\357r'\302mP\257"
 136      036A37B4 
 136      E0DC3406 
 136      EF7227C2 
 136      6D50AF
 137 0367 DBA0998E 		.ascii	"\333\240\231\216\224\015s\337m\230?\235\206\241r\233"
 137      940D73DF 
 137      6D983F9D 
 137      86A1729B 
 138 0377 74598E82 		.ascii	"tY\216\202\035\351\330\254.\035\252\017\340 \336\246"
 138      1DE9D8AC 
 138      2E1DAA0F 
 138      E020DEA6 
 139 0387 AB3EF77F 		.ascii	"\253>\367\177\343\257\332\365\255\277b\347\266\312\357"
 139      E3AFDAF5 
 139      ADBF62E7 
 139      B6CAEF
 140 0396 AACAFD65 		.ascii	"\252\312\375e[\266Un,-\333\270\247\262\374\353\235\245"
 140      5BB6556E 
 140      2C2DDBB8 
 140      A7B2FCEB 
 140      9DA5
 141 03a8 25E52CA7 		.ascii	"%\345,\247rO\305\246\335\337\357\256\360W\375\017\306"
 141      724FC5A6 
 141      DDDFEFAE 
 141      F057FD0F 
 141      C6
 142 03b9 D14600   		.ascii	"\321F\000"
 143              		.text
 144              		.section	.gnu.lto_Clock_5_StandbyPower.304b6c85,"",%progbits
 145 0000 789C8D90 		.ascii	"x\234\215\220AHTQ\024\206\317\177\357}3\217\031\221"
 145      41485451 
 145      1486CF7F 
 145      EF7D338F 
 145      1991
 146 0012 7025B310 		.ascii	"p%\263\020\202D\0064\027\3422\020\\\270h#\270\025$\246"
 146      82440634 
 146      17E23210 
 146      5CB86823 
 146      B81524A6 
 147 0026 59150D8C 		.ascii	"Y\025\015\214\272\366>}\"F\013\225\202@F\027jicc\215"
 147      BAF63E7D 
 147      22460B95 
ARM GAS  C:\Users\Luggi\AppData\Local\Temp\cc0hmrdM.s 			page 11


 147      82404617 
 147      6A696363 
 148 003b 4144430C 		.ascii	"ADC\014\265\2206\206b\030\206\272\031at\345P\230.t<"
 148      B5903686 
 148      621886BA 
 148      196174E5 
 148      50982E74 
 149 0050 F75D5B05 		.ascii	"\367][\005\322\203{\317\271\347\375\347\273\377=\222"
 149      D2837BCF 
 149      B9E7FDE7 
 149      BBFF3D92 
 150 0060 FEFDEEF0 		.ascii	"\376\375\356\360j\021Dq\216\010\021\304\304:\221\347"
 150      6A114471 
 150      8E0811C4 
 150      C43A91E7 
 151 0070 0A210B0D 		.ascii	"\012!\013\015\244#j\253\225t\215\204c\313\352o\342\000"
 151      A4236AAB 
 151      95748D84 
 151      63CBEA6F 
 151      E200
 152 0082 2621D090 		.ascii	"&!\320\220\220\312\301\020\016EE`\242\230}\036mZ\320"
 152      90CAC110 
 152      0E454560 
 152      A2987D1E 
 152      6D5AD0
 153 0095 5A1F6F6E 		.ascii	"Z\037on\327\217\326\2371\371\227\2607\341%\232X\342"
 153      D78FD69F 
 153      31F997B0 
 153      37E1259A 
 153      58E2
 154 00a7 CF9F9C2B 		.ascii	"\317\237\234+y\013\304\371\207\335O\225\232\3069\255"
 154      790BC4F9 
 154      87DD4F95 
 154      9AC639AD 
 155 00b7 878B5F73 		.ascii	"\207\213_s\272\003g\002X\204\344\0164\307\020\217\021"
 155      BA036702 
 155      5884E40E 
 155      34C7108F 
 155      11
 156 00c8 17084B68 		.ascii	"\027\010Kh4\342\212\177\276\035\015\371\314\276a\231"
 156      34E28A7F 
 156      BE1D0DF9 
 156      CCBE6199 
 157 00d8 78851038 		.ascii	"x\205\0208\256\324\025u\265\272\272?Un\023\021&\260"
 157      AED41575 
 157      B5BABA3F 
 157      556E1311 
 157      26B0
 158 00ea 5E71A770 		.ascii	"^q\247p\314\0266\233k6\242\022/\343\372\200\017\034"
 158      CC16369B 
 158      6B36A212 
 158      2FE3FA80 
 158      0F1C
 159 00fc E577F83F 		.ascii	"\345w\370?F\252\317\302\006\364G\030\377\336\213\217"
 159      46AACFC2 
 159      06F44718 
 159      FFDE8B8F 
ARM GAS  C:\Users\Luggi\AppData\Local\Temp\cc0hmrdM.s 			page 12


 160 010c 4FC26511 		.ascii	"O\302e\021\250\221E,0~ $\025\032\344\016>\237<^_N[\265"
 160      A891452C 
 160      307E2024 
 160      151AE40E 
 160      3E9F3C5E 
 161 0124 6275F6E9 		.ascii	"bu\366\351\317/Q\243\226\3711O+cr\277\364m\303\015J"
 161      CF2F51A3 
 161      96F9314F 
 161      2B6372BF 
 161      F46DC30D 
 162 0139 648EE3EF 		.ascii	"d\216\343\357s\307\221\014\246=\237\337\246\260\214"
 162      73C7910C 
 162      A63D9FDF 
 162      A6B08C
 163 0148 185E1B2A 		.ascii	"\030^\033*r\310\200v0r\032\2628\307\022''\337\315\324"
 163      72C88076 
 163      30721AB2 
 163      38C71227 
 163      27DFCDD4 
 164 015c 9A7675C1 		.ascii	"\232vu\301\017_a)\337:\005\243\271\216\366\206i\314"
 164      0F5F6129 
 164      DF3A05A3 
 164      B98EF686 
 164      69CC
 165 016e 08BC2ADA 		.ascii	"\010\274*\332j\265^\217\232-;|]\353\333+#\277\257\214"
 165      6AB55E8F 
 165      9A2D3B7C 
 165      5DEBDB2B 
 165      23BFAF8C 
 166 0182 B856BF96 		.ascii	"\270V\277\226)\347U0\010\366\221\377_\037\253\201\017"
 166      29E75530 
 166      08F691FF 
 166      5F1FAB81 
 166      0F
 167 0193 37F0E104 		.ascii	"7\360\341\004#\336\203W\234\275k\372\314$KL\343*\017"
 167      23DE8357 
 167      9CBD6BFA 
 167      CC244B4C 
 167      E32A0F
 168 01a6 F76657F2 		.ascii	"\367fW\362Q2}o y\277\257'5\230N${\273{R\235\355\275"
 168      51327D6F 
 168      2079BFAF 
 168      2735984E 
 168      247BBB7B 
 169 01be 9D0F5389 		.ascii	"\235\017S\211\007}\355\267\023\344\364\017\360\357K"
 169      077DEDB7 
 169      13E4F40F 
 169      F0EF4B
 170 01cd 9270CCC1 		.ascii	"\222p\314\301"
 171              		.text
 172              		.section	.gnu.lto_Clock_5_GetDividerRegister.304b6c85,"",%progbits
 173 0000 789C6366 		.ascii	"x\234cf\300\004R@\374\003\210\225\201\230\221\231\201"
 173      C0045240 
 173      FC038895 
 173      81989199 
 173      81
 174 0011 9169C239 		.ascii	"\221i\3029\006\206F\016&FF\020\203\201\221\241\236\211"
ARM GAS  C:\Users\Luggi\AppData\Local\Temp\cc0hmrdM.s 			page 13


 174      0686460E 
 174      26464610 
 174      838191A1 
 174      9E89
 175 0023 B19EF125 		.ascii	"\261\236\361%\323G&\306\323\217~|\346y\301\364\223\211"
 175      D34726C6 
 175      D38F7E7C 
 175      E679C1F4 
 175      9389
 176 0035 418001C8 		.ascii	"A\200\001\310\235u\375\351\027f\020\227\221\011\304"
 176      9D75FDE9 
 176      17661097 
 176      9109C4
 177 0044 DDFDF9DC 		.ascii	"\335\375\371\334#6\365\245\015\015M\037&\315N\2341e"
 177      2336F5A5 
 177      0D0D4D1F 
 177      26CD4E9C 
 177      3165
 178 0056 01E34F26 		.ascii	"\001\343O&&\206\317L\014\214\313\031\245\030W0\202,"
 178      2686CF4C 
 178      0C8CCB19 
 178      A5185730 
 178      822C
 179 0068 625CC9A8 		.ascii	"b\\\311\250\016R\373\261\345\357un\266\226\206\206\006"
 179      0E52FBB1 
 179      E5EF756E 
 179      B6968686 
 179      06
 180 0079 01900AA0 		.ascii	"\001\220\012\240\304*F6F \275^\350@\303\377\377\233"
 180      C42A4636 
 180      4620BD5E 
 180      E840C3FF 
 180      FF9B
 181 008b DF4EE930 		.ascii	"\337N\3510gafb\000\231\300\360\004\210Any\012\344\000"
 181      67616662 
 181      0099C0F0 
 181      0488416E 
 181      790AE400 
 182 009f 69E65B8C 		.ascii	"i\346[\214\207\276u\335;\313\005\322\363\235\011\344"
 182      87BE75DD 
 182      3BCB05D2 
 182      F39D09E4 
 183 00af B0359F8F 		.ascii	"\2605\237\217\334e\005\271\204\271\241\261\261\201\005"
 183      DC6505B9 
 183      84B9A1B1 
 183      B18105
 184 00be 64C3FD27 		.ascii	"d\303\375'\347/r\200\205\030@\334\257\323\037l\345\235"
 184      E72F7280 
 184      851840DC 
 184      AFD31F6C 
 184      E59D
 185 00d0 CB38BBB1 		.ascii	"\3138\273\261\245\361\200\314O&\026\306\325@7\255\001"
 185      A5F180CC 
 185      4F2616C6 
 185      D54037AD 
 185      01
 186 00e1 B989712D 		.ascii	"\271\211q-\343\\F\206{\214\215\015\334P\003\031@V2\202"
ARM GAS  C:\Users\Luggi\AppData\Local\Temp\cc0hmrdM.s 			page 14


 186      E35C4686 
 186      7B8C8D0D 
 186      DC500319 
 186      40563282 
 187 00f5 AC023215 		.ascii	"\254\0022\025\335S\363R\213\022KRS\342\203\363K\213"
 187      DD53F352 
 187      8B124B52 
 187      53E283F3 
 187      4B8B
 188 0107 92536302 		.ascii	"\222Sc\002\202\363\235Mc\234s\362\223\263\343M\365\222"
 188      82F39D4D 
 188      639C73F2 
 188      93B3E34D 
 188      F592
 189 0119 1900C5C8 		.ascii	"\031\000\305\310i0"
 189      6930
 190              		.text
 191              		.section	.gnu.lto_Clock_5_SetModeRegister.304b6c85,"",%progbits
 192 0000 789C7D91 		.ascii	"x\234}\221\273K\003A\020\306\347\333M.\3214b\245\261"
 192      BB4B0341 
 192      10C6E7DB 
 192      4D2ED134 
 192      62A5B1
 193 0013 12942088 		.ascii	"\022\224 \210V\366b\012+A\020,D\010!^!Q\003>j\357bl"
 193      56F6620A 
 193      2B41102C 
 193      4408215E 
 193      2151033E 
 194 002b ACA22088 		.ascii	"\254\242 \210b%\276_\205\177\200G@lBD\020\304\024\261"
 194      6225BE5F 
 194      857F8047 
 194      406C4244 
 194      10C414B1 
 195 003f 30820A82 		.ascii	"0\202\012\202\3423\202\304\031\317B\020\\\330\335\371"
 195      E23382C4 
 195      19CF4210 
 195      5CD8DDF9 
 196 004f 66BFF931 		.ascii	"f\277\37117\247\351\357\012\362v@\324\31274A\245sD\266"
 196      37A7E9EF 
 196      0AF27640 
 196      D4CA3734 
 196      41A57344 
 197 0064 5F011210 		.ascii	"_\001\022\020hRa\022\267\352Q!\355l/\004B\253\226e="
 197      68526112 
 197      B7EA5121 
 197      ED6C2F04 
 197      42AB9665 
 198 0079 640E6AA7 		.ascii	"d\016j\247kJ\212\350I\271\030\254#\304\226\354\332\354"
 198      6B4A8AE8 
 198      49B918AC 
 198      23C496EC 
 198      DAEC
 199 008b BDA11B40 		.ascii	"\275\241\033@\034\037O\345\012\276\306\025\313J:\331"
 199      1C1F4FE5 
 199      0ABEC615 
 199      CB4A3AD9 
 200 009b 3DAB1D25 		.ascii	"=\253\035%fn@s\005\232\203h\012\022'\010\233h\024\363"
ARM GAS  C:\Users\Luggi\AppData\Local\Temp\cc0hmrdM.s 			page 15


 200      666E4073 
 200      059A8368 
 200      0A122708 
 200      9B6814F3 
 201 00af 63EAF33C 		.ascii	"c\352\363<`\244\230]\3452\261\005\203\333\242\375j\307"
 201      60A4985D 
 201      E532B105 
 201      83DBA2FD 
 201      6AC7
 202 00c1 2A979F72 		.ascii	"*\227\237r\3637!o\245\342\032\245\371\320\036H\245W"
 202      F337216F 
 202      A5E21AA5 
 202      F9D01E48 
 202      A557
 203 00d3 42430E9F 		.ascii	"BC\016\237\034~y&*\362\226\346\257Y\360\255\363\310"
 203      1C7E7926 
 203      2AF296E6 
 203      AF59F0AD 
 203      F3C8
 204 00e5 BCCEBC5E 		.ascii	"\274\316\274^\364\011\362M\311\227\254,\356\034\371"
 204      F409F24D 
 204      C997AC2C 
 204      EE1CF9
 205 00f4 6F544979 		.ascii	"oTIy\222\266my\244\201\313\342\311\251\233\"\221\323"
 205      92B66D79 
 205      A481CBE2 
 205      C9A99B22 
 205      91D3
 206 0106 572F75CB 		.ascii	"W/u\313X\262S\334\266\027\333\010b\007<*\354b\031\224"
 206      58B253DC 
 206      B617DB08 
 206      62073C2A 
 206      EC621994 
 207 011a 47B2E073 		.ascii	"G\262\340si\232\201\277\265\367\215\001yL\275\033\256"
 207      699A81BF 
 207      B5F78D01 
 207      794CBD1B 
 207      AE
 208 012b 9614E3EE 		.ascii	"\226\024\343\356\234\217\263\012\241\353\367\362\317"
 208      9C8FB30A 
 208      A1EBF7F2 
 208      CF
 209 0138 E2A9EE31 		.ascii	"\342\251\3561\222\275\317?^\3377\316\370\215\363s\226"
 209      92BDCF3F 
 209      5EDF37CE 
 209      F88DF373 
 209      96
 210 0149 75660EA2 		.ascii	"uf\016\242\377\351k\237\373b;\025`;\207\275b\226\277"
 210      FFE96B9F 
 210      FB623B15 
 210      603B87BD 
 210      6296BF
 211 015c 52E409F3 		.ascii	"R\344\011\363\004x\036\365\235\346\2109\032\0357\007"
 211      04781EF5 
 211      9DE68839 
 211      1A1D3707 
 212 016c 223D8989 		.ascii	"\"=\211\211\321\230\331\337\335\223\010\267\365\207"
ARM GAS  C:\Users\Luggi\AppData\Local\Temp\cc0hmrdM.s 			page 16


 212      D198D9DF 
 212      DD9308B7 
 212      F587
 213 017a 8712B178 		.ascii	"\207\022\261x\244\255%F\201\341\304\200\33118\336\025"
 213      A4AD2546 
 213      81E1C480 
 213      D93138DE 
 213      15
 214 018b 1D8B7F01 		.ascii	"\035\213\177\001\370\231\253\316"
 214      F899ABCE 
 215              		.text
 216              		.section	.gnu.lto_Clock_5_ClearModeRegister.304b6c85,"",%progbits
 217 0000 789C7D50 		.ascii	"x\234}P;H\003A\024|\263\227\234\2014b\245g%(\"\210V"
 217      3B480341 
 217      147CB397 
 217      9C813462 
 217      A5672528 
 218 0017 69AC440B 		.ascii	"i\254D\013+AH!H H\274B\242\036\304X\347.\277\302J\005"
 218      2B414821 
 218      482048BC 
 218      42A21EC4 
 218      58E72EBF 
 219 002e 4114ABE0 		.ascii	"A\024\253\340\377WX\332\034A\321BN,DH\021\005#(*\370"
 219      FF5758DA 
 219      1C41D142 
 219      4E2C4448 
 219      11052328 
 220 0044 8F1124BE 		.ascii	"\217\021$\276\345J\301\205\335};\314\314\233}\012\375"
 220      E54AC185 
 220      DD7D3BCC 
 220      CC9B7D0A 
 220      FD
 221 0055 5D1AEF59 		.ascii	"]\032\357Y\020u\362\015\205 f\034\"\313'\000Y\020(!"
 221      1075F20D 
 221      8520661C 
 221      22CB2700 
 221      59102821 
 222 0069 90C0BD78 		.ascii	"\220\300\275x\021\230\261\267\026\374\255+\246i>\277"
 222      1198B1B7 
 222      16FCAD2B 
 222      A6693EBF 
 223 0079 1E3464EA 		.ascii	"\0364d\352+\202\350M\2706XC+SNWg\237T\245\031\304\365"
 223      2B82E84D 
 223      B8365843 
 223      2B534E57 
 223      679F54A5 
 224 0090 71CA29D6 		.ascii	"q\312)\326\264\344L3i;\273f7*\354\271\016\205\025h\327"
 224      B4E44C33 
 224      693BBB66 
 224      372AECB9 
 224      0E851568 
 225 00a5 D0A61103 		.ascii	"\320\246\021\003\204\015\264H\362K\372\347\322\257\246"
 225      840DB448 
 225      F24BFAE7 
 225      D2AFA6
 226 00b4 D9BBD6F5 		.ascii	"\331\273\326\365\304&T\216E{u\266Y\255\356\277\317\237"
 226      C426548E 
ARM GAS  C:\Users\Luggi\AppData\Local\Temp\cc0hmrdM.s 			page 17


 226      457B75B6 
 226      59ADEEBF 
 226      CF9F
 227 00c6 74797D82 		.ascii	"ty}\2025B\201\024yd\351\225\207*\017\242\022o\031\371"
 227      35428114 
 227      7964E995 
 227      872A0FA2 
 227      126F19F9 
 228 00da 961F7C2B 		.ascii	"\226\037|+\005\344?\247\235\342\2204*\013\231?\267\270"
 228      05E43FA7 
 228      9DE29034 
 228      2A0B993F 
 228      B7B8
 229 00ec 7DE4BB13 		.ascii	"}\344\273\023\025\241$-\313\364\310\266W\245\263s\027"
 229      15A1242D 
 229      CBF4C8B6 
 229      57A5B373 
 229      17
 230 00fd 22F9CCDC 		.ascii	"\"\371\314\334|4.c\311JsX\017\266\240a\033< \354`\031"
 230      7C342E63 
 230      C94A7358 
 230      0FB6A061 
 230      1B3C20EC 
 231 0113 5440F23B 		.ascii	"T@\362;{\250\270~\2362K\012H\275g\037\205\213x\031d"
 231      7BA8B87E 
 231      9E324B0A 
 231      48BD671F 
 231      858B7819 
 232 0128 8B72EEFA 		.ascii	"\213r\356\372\001\322Q\324\020vY\315\244/\325\245\310"
 232      01D251D4 
 232      107659CD 
 232      A42FD5A5 
 232      C8
 233 0139 1C4C6428 		.ascii	"\034Ld(?\007\011\375\323r\217[\262\202\212\260\354\213"
 233      3F0709FD 
 233      D3728F5B 
 233      B2828AB0 
 233      EC8B
 234 014b 41499663 		.ascii	"AI\226c.\361\310\370s\374\325\246>}B\217\015\307\365"
 234      2EF1C8F8 
 234      73FCD5A6 
 234      3E7D428F 
 234      0DC7F5
 235 015e 9170D098 		.ascii	"\221p\320\230\212E\364\320@\320\350\015\204z\307\214"
 235      8A45F4D0 
 235      40D0E80D 
 235      847AC78C 
 236 016e 48341CE8 		.ascii	"H4\034\350\210\220\177\334\030\321{F\343\375\303\223"
 236      88907FDC 
 236      18D17B46 
 236      E3FDC393 
 237 017e D15FF275 		.ascii	"\321_\362u\230\365"
 237      98F5
 238              		.text
 239              		.section	.gnu.lto_Clock_5_GetModeRegister.304b6c85,"",%progbits
 240 0000 789C6366 		.ascii	"x\234cf\300\004R@\374\007\210\225\201\230\221\231\201"
 240      C0045240 
ARM GAS  C:\Users\Luggi\AppData\Local\Temp\cc0hmrdM.s 			page 18


 240      FC078895 
 240      81989199 
 240      81
 241 0011 9169C239 		.ascii	"\221i\3029\006\206F\016&FF\020\203\201\221\241\236\211"
 241      0686460E 
 241      26464610 
 241      838191A1 
 241      9E89
 242 0023 B19EF125 		.ascii	"\261\236\361%\323G&\3063;\377]fT_\332\320\320\364\341"
 242      D34726C6 
 242      333BFF5D 
 242      66545FDA 
 242      D0D0F4E1 
 243 0037 D0C5BBDC 		.ascii	"\320\305\273\334\255\022?\231\030\030>310\352H1j\202"
 243      AD123F99 
 243      18183E33 
 243      3130EA48 
 243      316A82
 244 004a CC615CCE 		.ascii	"\314a\\\316\250\316\000T\370\261\345\357un\266\226\206"
 244      A8CE0054 
 244      F8B1E5EF 
 244      756EB696 
 244      86
 245 005b 86060190 		.ascii	"\206\006\001\220<Pb\005#\033#\220^/t\240\341\377\377"
 245      3C506205 
 245      231B2390 
 245      5E2F74A0 
 245      E1FFFF
 246 006e CFC7A6BD 		.ascii	"\317\307\246\275Pfcab\370\311\004\264\021d\010\303\023"
 246      50666361 
 246      62F8C904 
 246      B4116408 
 246      C313
 247 0080 2001B2EF 		.ascii	" \001\262\357)\023\023\210f\276\305x\350[\327\267\027"
 247      29131388 
 247      66BEC578 
 247      E85BD7B7 
 247      17
 248 0091 16208DDF 		.ascii	"\026 \215\337\231@\226/\236\265\346(\307\013\246\237"
 248      9940962F 
 248      9EB5E628 
 248      C70BA69F 
 249 00a1 4C4C4D8D 		.ascii	"LLM\215\215\015, k\356?9\177\021\"\304\000\342\266>"
 249      8D0D2C20 
 249      6BEE3F39 
 249      7F1122C4 
 249      00E2B63E 
 250 00b5 FE2A3D97 		.ascii	"\376*=\227qvc\013\343O&f\306\225\214R\214\253\030\201"
 250      7176630B 
 250      E34F2666 
 250      C6958C52 
 250      8CAB1881 
 251 00c9 AE625CCD 		.ascii	"\256b\\\3158\227\221\341\026c\363\2176\035\210q\314"
 251      389791E1 
 251      1663F38F 
 251      361D8871 
 251      CC
ARM GAS  C:\Users\Luggi\AppData\Local\Temp\cc0hmrdM.s 			page 19


 252 00da 1013DF3D 		.ascii	"\020\023\337=\376\323\014\326\316\360\203\221\201q\015"
 252      FED30CD6 
 252      CEF08391 
 252      81710D
 253 00e9 50ED3D46 		.ascii	"P\355=FF\250\012\260\223\030AN\001\232\255\350\236\232"
 253      46A80AB0 
 253      9318414E 
 253      019AADE8 
 253      9E9A
 254 00fb 975A9458 		.ascii	"\227Z\224X\222\232\022\037\234_Z\224\234\032\023\020"
 254      929A121F 
 254      9C5F5A94 
 254      9C1A1310 
 255 010b 9CEF6C1A 		.ascii	"\234\357l\032\343\234\223\237\234\035o\252\227\314\000"
 255      E39C939F 
 255      9C1D6FAA 
 255      97CC00
 256 011a 00424F66 		.ascii	"\000BOf\337"
 256      DF
 257              		.text
 258              		.section	.gnu.lto_Clock_5_GetSourceRegister.304b6c85,"",%progbits
 259 0000 789C6366 		.ascii	"x\234cf\300\004R@\374\033\210\225\201\230\221\231\201"
 259      C0045240 
 259      FC1B8895 
 259      81989199 
 259      81
 260 0011 9169C239 		.ascii	"\221i\3029\006\206F\016&FF\020\203\201\221\241\236\211"
 260      0686460E 
 260      26464610 
 260      838191A1 
 260      9E89
 261 0023 B19EF125 		.ascii	"\261\236\361%\323G&\3063;\377]fT_\332\320\320\364\241"
 261      D34726C6 
 261      333BFF5D 
 261      66545FDA 
 261      D0D0F4A1 
 262 0037 E9EB5DEE 		.ascii	"\351\353]\356V\211\237L\014\014\237\231\030\030u\244"
 262      56899F4C 
 262      0C0C9F99 
 262      181875A4 
 263 0047 183541E6 		.ascii	"\0305A\3460.gTg\000*\374\330\362\367:7[KCC\203\000H"
 263      302E6754 
 263      67002AFC 
 263      D8F2F73A 
 263      375B4B43 
 264 005f 1E28B182 		.ascii	"\036(\261\202\221\215\021H\257\027:\320\360\377\377"
 264      918D1148 
 264      AF173AD0 
 264      F0FFFF
 265 006e E72BD35F 		.ascii	"\347+\323_h\261\26301\374d\002\332\0102\204\341\011"
 265      68B1B330 
 265      31FC6402 
 265      DA083284 
 265      E109
 266 0080 9000D9F7 		.ascii	"\220\000\331\367\224\211\011D3\337b<\364\255\353\332"
 266      94890944 
 266      33DF623C 
ARM GAS  C:\Users\Luggi\AppData\Local\Temp\cc0hmrdM.s 			page 20


 266      F4ADEBDA 
 267 0090 2F0B90C6 		.ascii	"/\013\220\306\357L \313\027\317Zs\224\343\005\323O&"
 267      EF4C20CB 
 267      17CF5A73 
 267      94E305D3 
 267      4F26
 268 00a2 A6A6C6C6 		.ascii	"\246\246\306\306\006\026\2205\367\237\234\277\010\021"
 268      06169035 
 268      F79F9CBF 
 268      0811
 269 00b0 6200715B 		.ascii	"b\000q[\037\177\225\236\3138\273\261\205\361'\0233\343"
 269      1F7F959E 
 269      CB38BBB1 
 269      85F12713 
 269      33E3
 270 00c2 4A4629C6 		.ascii	"JF)\306U\214@W1\256f\234\313\310p\213\261\371G\233\016"
 270      558C4057 
 270      31AE669C 
 270      CBC8708B 
 270      B1F9479B 
 271 00d7 C4386688 		.ascii	"\3048f\210\211\337\377\034o\345\007ig`g`\\\003Tz\217"
 271      89DFFF1C 
 271      6FE50769 
 271      67606760 
 271      5C03547A 
 272 00ec 9111AA00 		.ascii	"\221\021\252\000\354\"F\220K\200F+\272\247\346\245\026"
 272      EC224690 
 272      4B80462B 
 272      BAA7E6A5 
 272      16
 273 00fd 2596A4A6 		.ascii	"%\226\244\246\304\007\347\227\026%\247\306\004\004\347"
 273      C407E797 
 273      1625A7C6 
 273      0404E7
 274 010c 3B9BC638 		.ascii	";\233\3068\347\344'g\307\233\352%3\000\000\227\365e"
 274      E7E42767 
 274      C79BEA25 
 274      33000097 
 274      F565
 275 011e CF       		.ascii	"\317"
 276              		.text
 277              		.section	.gnu.lto_Clock_5_SetDividerRegister.304b6c85,"",%progbits
 278 0000 789C8D56 		.ascii	"x\234\215V[LTG\030\236\177\316\236\275\357\002\3135"
 278      5B4C5447 
 278      189E7FCE 
 278      9EBDEF02 
 278      CB35
 279 0012 6044A284 		.ascii	"`D\242\204b\245}\242M\332\264\325\330\304\327V\233>"
 279      62A57DA2 
 279      4DDAB4D5 
 279      D8C4D756 
 279      9B3E
 280 0024 991A0BFB 		.ascii	"\231\032\013\373`$\222l\265\017&\306\263\354*\204\022"
 280      6024926C 
 280      B50F26C6 
 280      B3EC2A84 
 280      12
ARM GAS  C:\Users\Luggi\AppData\Local\Temp\cc0hmrdM.s 			page 21


 281 0035 CB4DA456 		.ascii	"\313M\244VD\305\013\326\013\202\227ziak\271\010\"\212"
 281      44C50BD6 
 281      0B82977A 
 281      69616BB9 
 281      08228A
 282 0048 C8B5BAA2 		.ascii	"\310\265\272\242\262\200\246!P\224\213\265\320\271\234"
 282      B280A621 
 282      50948BB5 
 282      D0B99C
 283 0057 7376C1B2 		.ascii	"sv\301\262u\023\20633\377\367\315?\337\377\2359#\240"
 283      75138633 
 283      33FFF7CD 
 283      3FDFFF9D 
 283      3923A0
 284 006a D77FEF01 		.ascii	"\327\177\357\001B-&\204>'\317\020\203\000\347\267!\344"
 284      422D2684 
 284      3E27CF10 
 284      8300E7B7 
 284      21E4
 285 007c D4632C34 		.ascii	"\324c,4\177\214$cdS\010\222\314\002\326\344$\221\236"
 285      7F8C2463 
 285      64530892 
 285      CC02D6E4 
 285      24919E
 286 008f 81B6660D 		.ascii	"\201\266f\015\326\262\236\310z\242\334\343sZ\254c=="
 286      D6B29EC8 
 286      7AA2DCE3 
 286      735AAC63 
 286      3D3D
 287 00a1 EBE92092 		.ascii	"\353\351 \222\323\351\225\007\0036\262\371\0206o\304"
 287      D3E99507 
 287      0336B2F9 
 287      10366FC4 
 288 00b1 66D633B1 		.ascii	"f\3263\261\236I\356\36193X8\304\202\243\363\232\020"
 288      9E49EEF1 
 288      39335838 
 288      C482A3F3 
 288      9A10
 289 00c3 19B7BA75 		.ascii	"\031\267\272ud<\232\217\257\262B\010\237\017\301\241"
 289      643C9A8F 
 289      AFB24208 
 289      9F0FC1A1 
 290 00d3 0C16C160 		.ascii	"\014\026\301`\241\330\306za\254\027\0066\036d\203p\376"
 290      A1D8C67A 
 290      61AC1706 
 290      361E6483 
 290      70FE
 291 00e5 108EA338 		.ascii	"\020\216\2438[$c\213\342\343\253\"\224\004#\001\350"
 291      5B24638B 
 291      E2E3AB22 
 291      94042301 
 291      E8
 292 00f6 0302B413 		.ascii	"\003\002\264\023\013\032Q\253\323\033\214&\263%\332"
 292      0B1A51AB 
 292      D31B8C26 
 292      B325DA
 293 0105 1A121A66 		.ascii	"\032\022\032f\013\217\212\210\204\235\202\205K\027\316"
ARM GAS  C:\Users\Luggi\AppData\Local\Temp\cc0hmrdM.s 			page 22


 293      0B8F8A88 
 293      849D8285 
 293      4B17CE
 294 0114 FF3DC563 		.ascii	"\377=\305c\030\362=\247JMI\307$I\032-\034\213\331\025"
 294      18F23DA7 
 294      4A4D49C7 
 294      24491A2D 
 294      1C8BD915 
 295 0128 338D111A 		.ascii	"3\215\021\032\307<\000N@\022\011\231\032\354\333g\020"
 295      C73C004E 
 295      40120999 
 295      1AECDB67 
 295      10
 296 0139 960122CF 		.ascii	"\226\001\"\3177\037O\215\233\207\3614\206P\332\335\337"
 296      371F4F8D 
 296      9B87F134 
 296      8650DADD 
 296      DF
 297 014a ED7B2ED0 		.ascii	"\355{.\320.\306\264\273\267\262\343\021N\254\220\244"
 297      2EC6B4BB 
 297      B7B2E311 
 297      4EAC90A4 
 298 015a 2C4FCF39 		.ascii	",O\3179i%\031\027\240\022\004\302\007'!\026~\202XD\206"
 298      69251917 
 298      A01204C2 
 298      07272116 
 298      7E825844 
 299 016f 109C8244 		.ascii	"\020\234\202D\022\335\232]\320\015\302\273\214w\330"
 299      12DD9A5D 
 299      D00DC2BB 
 299      8C77D8
 300 017e 7BAFD0C2 		.ascii	"{\257\320\302\221/\317J+a\032k\3404G\256\210\205d\212"
 300      912FCF4A 
 300      2B611A6B 
 300      E03447AE 
 300      8885648A 
 301 0192 D3203803 		.ascii	"\323 8\003\2114\370\345y\237\244\027\336g\300\342\334"
 301      8934F8E5 
 301      799FA417 
 301      DE67C0E2 
 301      DC
 302 01a3 33570D4B 		.ascii	"3W\015K\017\023`\177\336P\243I*\225\334\375\263\263"
 302      0F13607F 
 302      DE50A349 
 302      2A95DCFD 
 302      B3B3
 303 01b5 F1147F36 		.ascii	"\361\024\1776\020\317\177\004P3\340\336-\012\2370\360"
 303      10CF7F04 
 303      5033E0DE 
 303      2D0A9F30 
 303      F0
 304 01c6 3DD790CF 		.ascii	"=\327\220\317\302\300\207\366\014\211\001\320s\377\011"
 304      C2C087F6 
 304      0C8901D0 
 304      73FF09
 305 01d5 75366657 		.ascii	"u6fW\213\302\032\006\355\2529Q\011|\335\357\263\263"
 305      8BC21A06 
ARM GAS  C:\Users\Luggi\AppData\Local\Temp\cc0hmrdM.s 			page 23


 305      EDAA3951 
 305      097CDDEF 
 305      B3B3
 306 01e7 CD52A502 		.ascii	"\315R\245\002\026\240f\356\216U\370\230\373\237n\223"
 306      16A066EE 
 306      8E55F898 
 306      FB9F6E93 
 307 01f7 D64DA40E 		.ascii	"\326M\244\016\205*X\012\325\344\357<,\345r\303\005\320"
 307      852A580A 
 307      D5E4EF3C 
 307      2CE572C3 
 307      05D0
 308 0209 12470B81 		.ascii	"\022G\013\2013U6\2174;;\336P4\374\266\206\3104\215E"
 308      3355368F 
 308      343B3BDE 
 308      5034FCB6 
 308      86C8348D 
 309 021e 2DA2737A 		.ascii	"-\242szDg\015@u4\222a\255\011Q\230\231>Zh\023F\033\033"
 309      44670D40 
 309      75349261 
 309      AD095198 
 309      993E5A68 
 310 0236 6DA26913 		.ascii	"m\242i\023C\033*\2416\2166\213i\023O\233%\264I\240\315"
 310      431B2AA1 
 310      368E368B 
 310      69134F9B 
 310      25B449A0 
 311 024b 32DA24D2 		.ascii	"2\332$\322&\011\250\314\311\364q9mV\320&\2056\010\015"
 311      2609A8CC 
 311      C9F47139 
 311      6D56D026 
 311      8536080D 
 312 025f 904CF316 		.ascii	"\220L\363\026!\037\251v\336\"\341>\270<em\026\232\371"
 312      211FA976 
 312      DE22E13E 
 312      B83C656D 
 312      169AF9
 313 0272 24D6920D 		.ascii	"$\326\222\015\036\354\330s\026\357\370[\312\221\364"
 313      1EECD873 
 313      16EFF85B 
 313      CA91F4
 314 0281 D358378E 		.ascii	"\323X7\216\311~\340\"\354 X=\352\002\314\266H\322'\301"
 314      C97EE022 
 314      EC20583D 
 314      EA02CCB6 
 314      48D227C1 
 315 0295 8862CBF7 		.ascii	"\210b\313\367X9V?\037k\030'+ \270\304\260F\025{\236"
 315      5839563F 
 315      1F6B1827 
 315      2B20B8C4 
 315      B046157B 
 316 02aa 62F5A813 		.ascii	"b\365\250\023\334\275\256\241\0031\034l\240C\364\347"
 316      DCBDAEA1 
 316      03311C6C 
 316      A043F4E7 
 317 02ba 23CEF244 		.ascii	"#\316\362D\011}p}\"\327{\345K>k\244\026\377\256\356"
 317      097D707D 
ARM GAS  C:\Users\Luggi\AppData\Local\Temp\cc0hmrdM.s 			page 24


 317      22D77BE5 
 317      4B3E6BA4 
 317      16FFAEEE 
 318 02ce A5819AD4 		.ascii	"\245\201\232\324t$\333)ih)\036\016\334n\327\263!V\231"
 318      7424DB29 
 318      6968291E 
 318      0EDC6ED7 
 318      B3215699 
 319 02e2 EAEA9C29 		.ascii	"\352\352\234)C\031\374\350t\023\343\211\3603\251\334"
 319      4319FCE8 
 319      7413E389 
 319      F033A9DC 
 320 02f2 655A39B8 		.ascii	"eZ9\270\002e\200\372\3005\265\273\025sB\023\347l\337"
 320      026580FA 
 320      C035B5BB 
 320      15734213 
 320      E76CDF
 321 0305 7FDC1542 		.ascii	"\177\334\025B\0114\200\340*\211Ur\254\2429\232h\216"
 321      093480E0 
 321      2A895572 
 321      ACA2399A 
 321      688E
 322 0317 3DAEC903 		.ascii	"=\256\311\003\213\374\3428\217_\313\323Q\004\321\021"
 322      8BFCE238 
 322      8F5FCBD3 
 322      5104D111 
 323 0327 AEC9BEF0 		.ascii	"\256\311\276\360\021W\0372\011,\372\231\340WC\0156\223"
 323      11571F32 
 323      092CFA99 
 323      E057430D 
 323      3693
 324 0339 E05FD460 		.ascii	"\340_\324`\021\335\021y\360qYvC\300\254\026]\326\363"
 324      11DD1179 
 324      F0715976 
 324      43C0AC16 
 324      5DD6F3
 325 034c D98AB2B7 		.ascii	"\331\212\262\267d\256\200i\035:\240\241\352\224\214"
 325      64AE8069 
 325      1D3AA0A1 
 325      EA948C
 326 035b 75158974 		.ascii	"u\025\211t\232\254sz\274\376\201H\327\261H\316\371\322"
 326      9AAC737A 
 326      BCFE8148 
 326      D7B148CE 
 326      F9D2
 327 036d 5898342F 		.ascii	"X\2304/\366\365_\264(\322X\341W\"M-\223\246\216HC\326"
 327      F6F55FB4 
 327      28D258E1 
 327      57224D2D 
 327      93A68E48 
 328 0383 474CEF89 		.ascii	"GL\357\211\253\205\300W\014#\230\212\375\247\033\270"
 328      AB85C057 
 328      0C23988A 
 328      FDA71BB8 
 329 0393 BA590AEB 		.ascii	"\272Y\012\353\256'/\342\374\002{T\201\177S\004\326r"
 329      AE272FE2 
 329      FC027B54 
ARM GAS  C:\Users\Luggi\AppData\Local\Temp\cc0hmrdM.s 			page 25


 329      817F5304 
 329      D672
 330 03a5 B88D333C 		.ascii	"\270\2153<\275\373\274\327J\031\304:\242\357u\022J\226"
 330      BDFBBCD7 
 330      4A19C43A 
 330      A2EF7512 
 330      4A96
 331 03b7 E14B0421 		.ascii	"\341K\004!\373\235\245dc\273\325\313\273\235\310}\374"
 331      FB9DA564 
 331      63BBD5CB 
 331      BB9DC87D 
 331      FC
 332 03c8 21A73607 		.ascii	"!\2476\007A\326\313i<\227\323\260\360\360\232\212c\227"
 332      41D6CB69 
 332      3C97D3B0 
 332      F0F09A8A 
 332      6397
 333 03da 9873B42B 		.ascii	"\230s\264+\0214\274a\026\215,\013\013bR{U\251\027\024"
 333      1134BC61 
 333      168D2C0B 
 333      0B62527B 
 333      55A91714 
 334 03ee B2491692 		.ascii	"\262I\026\222fm@9V\201\371\273\352\240\\BS\200Y\214"
 334      666D4039 
 334      5681F9BB 
 334      EAA05C42 
 334      5380598C 
 335 0402 C8ADA39B 		.ascii	"\310\255\243\233\032\035\035\354\320\311\274\263?H\251"
 335      1A1D1DEC 
 335      D0C9BCB3 
 335      3F48A9
 336 0411 4C6BA724 		.ascii	"Lk\247$k\335|\344\331\010f+9=\3114\267\033jn\315d\255"
 336      6BDD7CE4 
 336      D908662B 
 336      393DC934 
 336      B71B6A6E 
 337 0428 C01A8B64 		.ascii	"\300\032\213d\254\205\357k\364\334\210\313 s\026f\365"
 337      AC85EF6B 
 337      F4DC88CB 
 337      20731666 
 337      F5
 338 0439 6D679CF9 		.ascii	"mg\234\371\012\347\276\223\356NK \347M\225\263\225s"
 338      0AE7BE93 
 338      EE4E4B20 
 338      E74D95B3 
 338      9573
 339 044b AA6F8448 		.ascii	"\252o\204H*vK\346\034\365s\226\267\264\337\304\214\264"
 339      2A764BE6 
 339      1CF57396 
 339      B7B4DFC4 
 339      8CB4
 340 045d 58212D2A 		.ascii	"X!-*(j\260\006\222\266\251\244\267\011\251\222\331D"
 340      286AB006 
 340      92B6A9A4 
 340      B709A992 
 340      D944
 341 046f 6E636DBE 		.ascii	"ncm\276l\257h\002\363\236\271R\312>:\246\034\205\251"
ARM GAS  C:\Users\Luggi\AppData\Local\Temp\cc0hmrdM.s 			page 26


 341      6CAF6802 
 341      F39EB952 
 341      CA3E3AA6 
 341      1C85A9
 342 0482 A14DCA03 		.ascii	"\241M\312\003\1771\356\250<\355\363\374\025\303)\312"
 342      7F31EEA8 
 342      3CEDF3FC 
 342      15C329CA 
 343 0492 9FCE0C6B 		.ascii	"\237\316\014kX\262;\021\334\235W\330\005\311:X\245b"
 343      58B23B11 
 343      DC9D57D8 
 343      05C93A58 
 343      A562
 344 04a4 784EDEDA 		.ascii	"xN\336\332\2578el\020/\334S\317\217W\032\036\275\234"
 344      AF38656C 
 344      102FDC53 
 344      CF8F571A 
 344      1EBD9C
 345 04b7 038EEE2D 		.ascii	"\003\216\356-9\315^<-9\314;I,{ok\344].\017\250\271\011"
 345      39CD5E3C 
 345      2D39CC3B 
 345      492C7B6F 
 345      6BE45D2E 
 346 04cf 5D17F85B 		.ascii	"]\027\370[\375\227\360\372;oF\025\"uDa\365d\207\342"
 346      FD97F0FA 
 346      3B6F4615 
 346      22754461 
 346      F56487E2 
 347 04e3 34E758E9 		.ascii	"4\347X\3515\246\264%K\321g\364p\373Z\277\367\272T\357"
 347      35A6B425 
 347      4BD167F4 
 347      70FB5ABF 
 347      F7BA54EF 
 348 04f7 75B31DE9 		.ascii	"u\263\035\351y\255&\213\224Z\005:(e\256\203zx\265'_"
 348      79AD268B 
 348      945A053A 
 348      2865AE83 
 348      7A78B527 
 349 050c 35EDE2D5 		.ascii	"5\355\342\325\326!\350e\351\370\210\347[?\340\357\\"
 349      D621E865 
 349      E9F888E7 
 349      5B3FE0EF 
 349      5C
 350 051d 57DD769E 		.ascii	"W\335v\236\353\3429l0\227\253\317\177\272\212<<\216"
 350      EBE2396C 
 350      3097ABCF 
 350      7FBA8A3C 
 350      3C8E
 351 052f 239ACA86 		.ascii	"#\232\312\206kXy\310'\021\376\340\352\364\272Fdu\342"
 351      6B5879C8 
 351      2711FEE0 
 351      EAF4BA46 
 351      6475E2
 352 0542 54750670 		.ascii	"Tu\006p4:\231\012>l\225e\230\310\035\251+\221\303\226"
 352      343A990A 
 352      3E6C9565 
 352      98C81DA9 
ARM GAS  C:\Users\Luggi\AppData\Local\Temp\cc0hmrdM.s 			page 27


 352      2B91C396 
 353 0556 043BD8EF 		.ascii	"\004;\330\357\317\363E\002\217/(\270p\220\237;3d\345"
 353      CFF34502 
 353      8F2F28B8 
 353      70909F3B 
 353      3364E5
 354 0569 07F38CB1 		.ascii	"\007\363\214\261 \233\227\311\230\300e\254/~\003\031"
 354      209B97C9 
 354      98C065AC 
 354      2F7E0319 
 355 0579 1F2AFEA6 		.ascii	"\037*\376\246\272\205\320\267\236e?s\343\013\236\317"
 355      BA85D0B7 
 355      9E653F73 
 355      E30B9ECF 
 356 0589 B260CBF5 		.ascii	"\262`\313\365\253\272\325\313\256\212'\010\277PGd\005"
 356      ABBAD5CB 
 356      AE8A2708 
 356      BF504764 
 356      05
 357 059a E2036C14 		.ascii	"\342\003l\024*\037\035%\325\267\212\025\243,\344\212"
 357      2A1F1D25 
 357      D5B78A15 
 357      A32CE48A 
 358 05aa 47F289C4 		.ascii	"G\362\211\304\310\306\217~\304\331\222\002d\017\243"
 358      C8C68F7E 
 358      C4D99202 
 358      640FA3
 359 05b9 A6F491A3 		.ascii	"\246\364\221\243\226\223\252\012\0059z\0363Rr%\030\004"
 359      9693AA0A 
 359      05397A1E 
 359      33527225 
 359      1804
 360 05cb 6AA0AAF2 		.ascii	"j\240\252\362\0273\300\224&\367\301'\020\033\332\243"
 360      1733C094 
 360      26F7C127 
 360      101BDAA3 
 361 05db A3A74618 		.ascii	"\243\247F\030\3155\034\221\233\254\\\316f\007_=9\230"
 361      CD351C91 
 361      9BAC5CCE 
 361      66075F3D 
 361      3998
 362 05ed 91065441 		.ascii	"\221\006TA\376\224\005I$\010\277 \265\262 \211\001["
 362      FE940549 
 362      2408BF20 
 362      B5B22089 
 362      015B
 363 05ff 8842E43A 		.ascii	"\210B\344:M\254\023\241\012\323Y\374\277g\265/\360\243"
 363      4DAC13A1 
 363      0AD359FC 
 363      BF67B52F 
 363      F0A3
 364 0611 E76D912F 		.ascii	"\347m\221/\031+\202\025kp\336\247%\205\304\323\033\302"
 364      192B8215 
 364      6B70DEA7 
 364      2585C4D3 
 364      1BC2
 365 0623 1B196B88 		.ascii	"\033\031k\210\255\227\302*\030I\357\\^pz\036\256\245"
ARM GAS  C:\Users\Luggi\AppData\Local\Temp\cc0hmrdM.s 			page 28


 365      AD97C22A 
 365      1849EF5C 
 365      5E707A1E 
 365      AEA5
 366 0635 30BE0B20 		.ascii	"0\276\013 \203\344\252\224\260\306\276\305\356\330\270"
 366      83E4AA94 
 366      B0C6BEC5 
 366      EED8B8
 367 0644 D59EBE61 		.ascii	"\325\236\276a]\3466G\232}\375g\3532W\247\256_\235\221"
 367      5DE63647 
 367      9A7DFD67 
 367      EB3257A7 
 367      AE5F9D91 
 368 0658 99B67943 		.ascii	"\231\266yC\352;i\310\230\226\261\371\323M\337nJ\267"
 368      EA3B69C8 
 368      9896B1F9 
 368      D34DDF6E 
 368      4AB7
 369 066a 3B740EFB 		.ascii	";t\016\3737[7:\266\352\354[6~\235aO\327\245ms8\3269"
 369      375B373A 
 369      B6EAEC5B 
 369      367E9D61 
 369      4FD7A56D 
 370 0682 D28C9919 		.ascii	"\322\214\231\031\351r\310\277(\225:\244"
 370      E972C8BF 
 370      28953AA4 
 371              		.text
 372              		.section	.gnu.lto_Clock_5_SetSourceRegister.304b6c85,"",%progbits
 373 0000 789C8D54 		.ascii	"x\234\215T]l\024U\024>\347\316\356\374\354\354n\327"
 373      5D6C1455 
 373      143EE7CE 
 373      EEFCECEC 
 373      6ED7
 374 0012 9652BAD2 		.ascii	"\226R\272\322\226f%\215\211\301'|\"\201\004\023_M\372"
 374      9666258D 
 374      89C1277C 
 374      22810413 
 374      5F4DFA
 375 0025 2809314B 		.ascii	"(\0111K\037\014\215M6\302\013!\235m\267\2411\376\020"
 375      1F0C8D4D 
 375      36C20B21 
 375      9D6DB7A1 
 375      31FE10
 376 0038 1E0CA1A9 		.ascii	"\036\014\241\251\301T\244Zl\241\300V\005e\251\320\230"
 376      C154A45A 
 376      6CA1C056 
 376      0565A9D0 
 376      98
 377 0049 9816F9D1 		.ascii	"\230\026\371\321Z4\225\224\026\301\244-dk\355j`=\347"
 377      5A349594 
 377      16C1A42D 
 377      646BED6A 
 377      603DE7
 378 005c DED9EDB8 		.ascii	"\336\331\355\270\222M7\3313s\317\375\2763\337\371\316"
 378      924D37D9 
 378      3373CFFD 
 378      BE33DFF9 
ARM GAS  C:\Users\Luggi\AppData\Local\Temp\cc0hmrdM.s 			page 29


 378      CE
 379 006d 9DD1E0FF 		.ascii	"\235\321\340\377\277#\364?\256\003l\243+\006\001\305"
 379      BF23F43F 
 379      AE036CA3 
 379      2B0601C5 
 380 007d E10980A4 		.ascii	"\341\011\200\244)\204\326\335\004N@\347\030\324\204"
 380      2984D6DD 
 380      044E40E7 
 380      18D484
 381 008c CFB3F209 		.ascii	"\317\263\362\011\377\305z^\335z\221V~\264\025E\027\206"
 381      FFC57A5E 
 381      DD7A9156 
 381      7EB41545 
 381      1786
 382 009e 040524C8 		.ascii	"\004\005$\310\020\246ge\012KR\002\222b\025(\201\302"
 382      10A66765 
 382      0A4B5202 
 382      92621528 
 382      81C2
 383 00b0 8D8DC837 		.ascii	"\215\215\3107\200\320.4\237_7L+`c;>\020\217\004\036"
 383      80D02E34 
 383      9F5F374C 
 383      2B60633B 
 383      3E108F04 
 384 00c5 CE0C1CB5 		.ascii	"\316\014\034\265\233N8\216\363px\252\266kCN\000d\205"
 384      9B4E388E 
 384      F37078AA 
 384      B66B434E 
 384      006485
 385 00d8 928F27B1 		.ascii	"\222\217'\261\211 \271\231\331+\001\3559\004\272?}\343"
 385      8920B999 
 385      D92B01ED 
 385      3904BA3F 
 385      7DE3
 386 00ea E3EF7073 		.ascii	"\343\357ps\237\343td&\006\235\035\230\023\210\375\250"
 386      9FE37464 
 386      26069D1D 
 386      981388FD 
 386      A8
 387 00fb 11035F88 		.ascii	"\021\003_\210\342\363Q\240\004\340\247\270\231\301\351"
 387      E2F351A0 
 387      04E0A7B8 
 387      99C1E9
 388 010a F1F3A315 		.ascii	"\361\363\243\025\332\026I\374~f%\033\274/rBDxylrnI\343"
 388      DA1649FC 
 388      7E66251B 
 388      BC2F7242 
 388      4478796C 
 389 0122 A5267839 		.ascii	"\245&x9\336\237\354\012\305>\242\262w\306\337=\024t"
 389      DE9FEC0A 
 389      C53EA2B2 
 389      77C6DF3D 
 389      1474
 390 0134 FA9DD49D 		.ascii	"\372\235\324\235|\276!'|\370\231\252>\200Q<\205Q\327"
 390      7CBE2127 
 390      7CF899AA 
 390      3E80513C 
ARM GAS  C:\Users\Luggi\AppData\Local\Temp\cc0hmrdM.s 			page 30


 390      8551D7
 391 0147 58A22C9E 		.ascii	"X\242,\236;\263_{I\326\316>~\1772\254\330\023\363c\266"
 391      3BB35F7B 
 391      49D6CE3E 
 391      7E7F32AC 
 391      D813F363 
 392 015c 73B4C046 		.ascii	"s\264\300F\034\364j+r\037\245\036O\332z\212\232\216"
 392      1CF46A2B 
 392      721FA51E 
 392      4FDA7A8A 
 392      9A8E
 393 016e E0E718C3 		.ascii	"\340\347\030\303!\214\251\246\3614\352\010 \012\331"
 393      218CA9A6 
 393      F134EA08 
 393      200AD9
 394 017d A1CA8C93 		.ascii	"\241\312\214\223\317\237\275\367\301\375\355z\314\007"
 394      CF9FBDF7 
 394      C1FDED7A 
 394      CC07
 395 018b 9CD68137 		.ascii	"\234\326\2017\014\344&Mj\327oq\2609\004)\350!\016a\016"
 395      0CE4264D 
 395      6AD76F71 
 395      B0390429 
 395      E8210E61 
 396 01a0 151C22BC 		.ascii	"\025\034\"\274Q\311\241\212\227\3538TsX\317\241\206"
 396      51C9A18A 
 396      97EB3854 
 396      7358CFA1 
 396      86
 397 01b1 376A39B0 		.ascii	"7j9\260s\376\215\034\352x\243\236C\003\207M\034\032"
 397      73FE8D1C 
 397      EA78A39E 
 397      4303874D 
 397      1C1A
 398 01c3 79036096 		.ascii	"y\003`\2264\362(\347\204\340\253\366+vfzz\302\254\372"
 398      34F228E7 
 398      84E0ABF6 
 398      2B76667A 
 398      7AC2ACFA 
 399 01d7 2FE1A3C6 		.ascii	"/\341\243\306>\274\371\336\2408\370\217\323\355\230"
 399      3EBCF9DE 
 399      A038F88F 
 399      D3ED98
 400 01e6 39616469 		.ascii	"9adi\026\200g\360 \261M\370\011\205l\217z 00\267\367"
 400      168067F0 
 400      20B14DF8 
 400      09856C8F 
 400      7A203030 
 401 01fc 9790E2EA 		.ascii	"\227\220\342\352\245\\+K\217\000\034\226\334@\221;\304"
 401      A55C2B4B 
 401      8F001C96 
 401      DC40913B 
 401      C4
 402 020d 5C1D7EC4 		.ascii	"\\\035~\304\324T\347\335\364\206Ur\362\223\013\357\030"
 402      D454E7DD 
 402      F4865572 
 402      F2930BEF 
ARM GAS  C:\Users\Luggi\AppData\Local\Temp\cc0hmrdM.s 			page 31


 402      18
 403 021e 3C4F5289 		.ascii	"<OR\211g\3359\315\011\015\272\2334B\377\3349\243)\260"
 403      67DD39CD 
 403      090DBA9B 
 403      3442FFDC 
 403      39A329B0 
 404 0232 E1D9F5C1 		.ascii	"\341\331\365\301\225*\265\373{\372\300j\023\305Z6\325"
 404      952AB5FB 
 404      7BFAC06A 
 404      13C55A36 
 404      D5
 405 0243 3A5744FB 		.ascii	":WD\373\341\232\241\335\306\321\345\267\027\346\023"
 405      E19AA1DD 
 405      C6D1E5B7 
 405      17E613
 406 0252 0A6D12BA 		.ascii	"\012m\022\272\357\330\251\253&\243\203\035\311\244\343"
 406      EFD8A9AB 
 406      26A3831D 
 406      C9A4E3
 407 0261 E3F1FE36 		.ascii	"\343\361\3766{\355\272J\311iw\335\375\363\331^\354I"
 407      7BEDBA4A 
 407      C96977DD 
 407      FDF3D95E 
 407      EC49
 408 0273 A6E8B486 		.ascii	"\246\350\264\206\360<\035\2444\027\305\021\354E\270"
 408      F03C1DA4 
 408      3417C511 
 408      EC45B8
 409 0282 8D9D4BBA 		.ascii	"\215\235K\272\252f\251\202\303}'\322\226le\007\340\027"
 409      AA66A982 
 409      C37D27D2 
 409      966C6507 
 409      E017
 410 0294 84A4671E 		.ascii	"\204\244g\036A\206\224\251\365%\325\242\012 \365=\231"
 410      418694A9 
 410      F525D5A2 
 410      0A20F53D 
 410      99
 411 02a5 DFA62ADA 		.ascii	"\337\246*\332e\030_\251\247wL\037Z.\264\023$\006\013"
 411      65185FA9 
 411      A7774C1F 
 411      5A2EB413 
 411      24060B
 412 02b8 5A710585 		.ascii	"Zq\005\205(E\025\376\310\374}K\012\322W\362\356\217"
 412      284515FE 
 412      C8FC7D4B 
 412      0AD257F2 
 412      EE8F
 413 02ca DEDE0B52 		.ascii	"\336\336\013RY\307\264\241\260a\262\326\333L\205\244"
 413      59C7B4A1 
 413      B061B2D6 
 413      DB4C85A4 
 414 02da 87BD9008 		.ascii	"\207\275\220\010e\237\336L2S\373_q\027e;\021\351\273"
 414      659FDE4C 
 414      3253FB5F 
 414      7117653B 
 414      11E9BB
ARM GAS  C:\Users\Luggi\AppData\Local\Temp\cc0hmrdM.s 			page 32


 415 02ed 0E97C740 		.ascii	"\016\227\307@\215\351\344H\235;r\317\024\0158\036\323"
 415      8DE9E448 
 415      9D3B72CF 
 415      140D381E 
 415      D3
 416 02fe E489587E 		.ascii	"\344\211X~\312\214M\370\341\031E\036\030iwg\354\031"
 416      CA8C4DF8 
 416      E119451E 
 416      18697767 
 416      EC19
 417 0310 AA050F75 		.ascii	"\252\005\017u5\324'\013\256i\225eL\373z\325\264\005"
 417      35D4270B 
 417      AE699565 
 417      4CFB7AD5 
 417      B405
 418 0322 D7B42A62 		.ascii	"\327\264*bxM[G\251Rs\252K\314Y/a\325^H\015e\327h\316"
 418      784D5B47 
 418      A95273AA 
 418      4BCC592F 
 418      61D55E48 
 419 033b 37D29C1A 		.ascii	"7\322\234\0325\353\261EWGm\031\331\227\334\223V\320"
 419      35EBB145 
 419      57476D19 
 419      D997DC93 
 419      56D0
 420 034d 1855F007 		.ascii	"\030U\360\0077\226\246\302<\330\320%\372hf\326x\324"
 420      3796A6C2 
 420      3CD8D025 
 420      FA6866D6 
 420      78D4
 421 035f 2ECBC747 		.ascii	".\313\307G\245}\001\270\276\335}'\026]\3736\226\241"
 421      A57D01B8 
 421      BEDD7D27 
 421      165DFB36 
 421      96A1
 422 0371 8E16EDBB 		.ascii	"\216\026\355\273W\220]G\014\257\264zJ\225\332\327Pb"
 422      57905D47 
 422      0CAFB47A 
 422      4A95DAD7 
 422      5062
 423 0383 DF26096B 		.ascii	"\337&\011k\360B\032)\273F\373\276\225\372\033\245~["
 423      F0421A29 
 423      BB46FBBE 
 423      95FA1BA5 
 423      7E5B
 424 0395 7EC6A631 		.ascii	"~\306\2461\231\311\277\306D>\024\263\364\325\242,}~"
 424      99C9BFC6 
 424      443E14B3 
 424      F4D5A22C 
 424      7D7E
 425 03a7 1A5F6979 		.ascii	"\032_iy\263%\361\372[-{v7\267\355K\304[v\275\332\334"
 425      B325F1FA 
 425      5B2D7B76 
 425      37B7ED4B 
 425      C45B76BD 
 426 03bd B673EBAE 		.ascii	"\266s\353\256\235\255m\361\275\273\267n\211\203\025"
 426      9DAD6DF1 
ARM GAS  C:\Users\Luggi\AppData\Local\Temp\cc0hmrdM.s 			page 33


 426      BDBBB76E 
 426      898315
 427 03cc 6FDDABB6 		.ascii	"o\335\253\266\214\370\276D\342\3457\366\353m\255{\232"
 427      8CF8BE44 
 427      E2E537F6 
 427      EB6DAD7B 
 427      9A
 428 03dd 13F17F01 		.ascii	"\023\361\177\001\313\011[C"
 428      CB095B43 
 429              		.text
 430              		.section	.gnu.lto_.symbol_nodes.304b6c85,"",%progbits
 431 0000 789C55C7 		.ascii	"x\234U\307\273\015\2000\020\004\321\265\317\306\347"
 431      BB0D8030 
 431      1004D1B5 
 431      CFC6E7
 432 000f 6B7A5B20 		.ascii	"kz[ \"F\024D@\005\210B\020\342\023\260\223\214\236\001"
 432      22461444 
 432      40058842 
 432      10E213B0 
 432      938C9E01 
 433 0023 D8F09541 		.ascii	"\330\360\225A`\\\001\022\323\354\310\211I\234\231\305"
 433      605C0112 
 433      D3ECC889 
 433      499C99C5 
 434 0033 46135716 		.ascii	"F\023W\026\361\300*n\034\304\316&\016\272\270\260\213"
 434      F1C02A6E 
 434      1CC4CE26 
 434      0EBAB8B0 
 434      8B
 435 0044 3BE36FEB 		.ascii	";\343o\353\216e?\223\365\202\343~\224\327\341\217q\001"
 435      8E653F93 
 435      F582E37E 
 435      94D7E18F 
 435      7101
 436 0056 DBE8393B 		.ascii	"\333\3509;"
 437              		.text
 438              		.section	.gnu.lto_.refs.304b6c85,"",%progbits
 439 0000 789C6366 		.ascii	"x\234cf```d\200\002\000\000=\000\005"
 439      60606064 
 439      80020000 
 439      3D0005
 440              		.text
 441              		.section	.gnu.lto_.decls.304b6c85,"",%progbits
 442 0000 789C8D55 		.ascii	"x\234\215UkLTG\024\276\263\263,\260,`\223F\352\376\351"
 442      6B4C5447 
 442      14BEB3B3 
 442      2CB02C60 
 442      9346EAFE 
 443 0015 F60FB509 		.ascii	"\366\017\265\011\261\365\207\306\376jS\232\332\244i"
 443      B1F587C6 
 443      FE6A539A 
 443      DAA469
 444 0024 434A9A34 		.ascii	"CJ\2324\325\304P\270QR#f]\333\370\253\227\207\341Q\243"
 444      D5C450B8 
 444      51522366 
 444      5DDBF8AB 
 444      9787E151 
ARM GAS  C:\Users\Luggi\AppData\Local\Temp\cc0hmrdM.s 			page 34


 445 0039 868A225A 		.ascii	"\206\212\"ZB\013X\005\027\226\247,\017Y\\\220\205]\336"
 445      420B5805 
 445      1796A72C 
 445      0F595C90 
 445      855DDE
 446 004c 88A03C17 		.ascii	"\210\240<\027M!\266\015\025\265>Z\266gf\356ug\227Ka"
 446      4D21B60D 
 446      15B53E5A 
 446      B66766EE 
 446      7567974B 
 447 0061 92B3F7CE 		.ascii	"\222\263\367\316\343\373\3169\3379s\027\013\202\260"
 447      E3FBCE39 
 447      DF397317 
 447      0B82B0
 448 0070 150B820F 		.ascii	"\025\013\202\017\306l\250 |\205\004\301\000k\011`\032"
 448      C66CA820 
 448      7C8504C1 
 448      006B0960 
 448      1A
 449 0081 B0CD6026 		.ascii	"\260\315`&\201\215\010\260\253`U`60;\230\023\254\013"
 449      818D08B0 
 449      AB605560 
 449      36303B98 
 449      13AC0B
 450 0094 AC1BAC17 		.ascii	"\254\033\254\027\314\0036\0046\"\254\036\004\253\225"
 450      CC033604 
 450      3622AC1E 
 450      04AB95
 451 00a3 B909EF38 		.ascii	"\271\011\3578\330\230\274\207\344\375\340Q\265\016\246"
 451      D898BC87 
 451      E4FDE051 
 451      B50EA6
 452 00b2 4A056393 		.ascii	"J\005c\223c%\230(\201\345\343\010\302O\203M\201\315"
 452      63259828 
 452      81E5E308 
 452      C24F834D 
 452      81CD
 453 00c4 804D727C 		.ascii	"\200Mr|6\025>\222g\210\314W\277F\034v\025\234S\306\361"
 453      36153E92 
 453      6788CC57 
 453      BF461C76 
 453      159C53C6 
 454 00d9 31287E15 		.ascii	"1(~\025\234S\005G\364\324\005\371\363\252\370\354R\301"
 454      9C530547 
 454      F4D405F9 
 454      F3AAF8EC 
 454      52C1
 455 00eb 766F20D6 		.ascii	"vo \326n\025\034\251\235\366\1770\275*\030\317:\030"
 455      6E151CA9 
 455      9DF67F30 
 455      BD2A18CF 
 455      3A18
 456 00fd 8F0A86F4 		.ascii	"\217\012\206\364F\264\260\2726\3652\226\360\314\203"
 456      46B4B0BA 
 456      36F53296 
 456      F0CC83
 457 010c B9C0EE81 		.ascii	"\271\300\356\201u\310\274&!\260VX\346\">\3244\034\221"
ARM GAS  C:\Users\Luggi\AppData\Local\Temp\cc0hmrdM.s 			page 35


 457      75C8BC26 
 457      21B05658 
 457      E6223ED4 
 457      341C91
 458 011f F9151D82 		.ascii	"\371\025\035\202\373\300\313\361+\376LA9`\231\307\271"
 458      FBC0CBF1 
 458      2BFE4C41 
 458      396099C7 
 458      B9
 459 0130 462E7F69 		.ascii	"F.\177i\220\275\352Q_\304\202\006E\351Md\332\234\357"
 459      90BDEA51 
 459      5FC48206 
 459      45E94D64 
 459      DA9CEF
 460 0143 2AD4C1D4 		.ascii	"*\324\301\324\240\327\222i\313\013\357\2506\246@\202"
 460      A0D79269 
 460      CB0BEFA8 
 460      36A64082 
 461 0153 713A53DA 		.ascii	"q:S\332\244E\011\233\321\257\310\210.##(t\005\305\300"
 461      A445099B 
 461      D1AFC888 
 461      2E232328 
 461      7405C5C0 
 462 0167 EF1E2D63 		.ascii	"\357\036-cj\274o\037\013\301\032D\336K\013\347F\365"
 462      6ABC6F1F 
 462      0BC11A44 
 462      DE4B0BE7 
 462      46F5
 463 0179 711500CB 		.ascii	"q\025\000\313\221\034\016\215\337\335xi\315I\203\251"
 463      911C0E8D 
 463      DFDD7869 
 463      CD4983A9 
 464 0189 582AB12D 		.ascii	"X*\261-U7O\030$\227\344\360\371\336\243T\250\002aT\211"
 464      55374F18 
 464      2497E4F0 
 464      F9DEA354 
 464      A8026154 
 465 019e E2A8F8F0 		.ascii	"\342\250\370\360\316\252p\025\231\000V\366s\345d8~\227"
 465      CEAA7015 
 465      990056F6 
 465      73E56438 
 465      7E97
 466 01b0 729797B8 		.ascii	"r\227\227\270z#)E\311\251R\035#\240x+\207\267*\370*"
 466      7A232945 
 466      C9A9521D 
 466      23A0782B 
 466      87B72AF8 
 467 01c5 8AAF73A6 		.ascii	"\212\257s\246gG\343\217(\376\254\365\331\202\206\341"
 467      6747E38F 
 467      28FEACF5 
 467      D98286E1 
 468 01d5 3D01F86A 		.ascii	"=\001\370j\016_\255\340m\024?\326\236\235\035\206\277"
 468      0E5FADE0 
 468      6D143FD6 
 468      9E9D1D86 
 468      BF
 469 01e6 A4F8F44B 		.ascii	"\244\370\364K-'BA\242\315z\232\321IwQ\007\246S\037\331"
ARM GAS  C:\Users\Luggi\AppData\Local\Temp\cc0hmrdM.s 			page 36


 469      2D274241 
 469      A2CD7A9A 
 469      D1497751 
 469      07A6531F 
 470 01fb D64C4C9C 		.ascii	"\326LL\234y\206\221>6G\2222\244\245|\011\277&\2408#"
 470      7986913E 
 470      36479232 
 470      A4A57C09 
 470      BF26A038 
 471 0210 7ACB28A0 		.ascii	"z\313(\240\006\024\013\307\250\017T\013*\326\201\212"
 471      06140BC7 
 471      A80F540B 
 471      2AD6818A 
 472 0220 65A0D1D2 		.ascii	"e\240\321\322ug\305'\231\322\373\250\036\351Q\315\313"
 472      7567C527 
 472      99D2FBA8 
 472      1EE951CD 
 472      CB
 473 0231 28A80759 		.ascii	"(\250\007Y\267\323\307;Nk\265 $=\263\207\026\347\261"
 473      B7D3C73B 
 473      4E6BB520 
 473      243DB387 
 473      16E7B1
 474 0244 6FAE5CB3 		.ascii	"o\256\\\263fq\256\321\3424\"\271:m\213\326\034\035\226"
 474      6671AED1 
 474      E23422B9 
 474      3A6D8BD6 
 474      1C1D96
 475 0257 104DC191 		.ascii	"\020M\301\221\233mU\252\360<\017\237\227J2\244\025\037"
 475      9B6D55AA 
 475      F03C0F9F 
 475      974A32A4 
 475      151F
 476 0269 C44F50A8 		.ascii	"\304OP\250\211\323\241I\321\301Nup{\237.\033h\267l\""
 476      89D3A149 
 476      D1C14E75 
 476      707B9F2E 
 476      1B68B76C 
 477 027e 3C45B7EF 		.ascii	"<E\267\357?\302\264[4d\372\323\303?[\303q\001\012\220"
 477      3FC2B45B 
 477      3464FAD3 
 477      C33F5BC3 
 477      71010A90 
 478 0292 C9C4643A 		.ascii	"\311\304d:\367\340i}\030\235\372|\230\350ti\360\357"
 478      F7E0697D 
 478      189DFA7C 
 478      98E87469 
 478      F0EF
 479 02a4 A22814AB 		.ascii	"\242(\024\253g\002\3143\001\034\220\\\253_\000\223,"
 479      6702CC33 
 479      011C905C 
 479      AB5F0093 
 479      2C
 480 02b5 00D552CA 		.ascii	"\000\325R\312\224B\266\012\250\0312l\201\014Q;\250i"
 480      9442B60A 
 480      A819326C 
 480      810C513B 
ARM GAS  C:\Users\Luggi\AppData\Local\Temp\cc0hmrdM.s 			page 37


 480      A869
 481 02c7 92D56C83 		.ascii	"\222\325l\203\305\353\260\010\216^xG\354\001\252\020"
 481      C5EBB008 
 481      8E5E7847 
 481      EC01AA10 
 482 02d7 4EBF2C1D 		.ascii	"N\277,\035\001=\373\300\275\330\026\201/\262\210\233"
 482      013DFBC0 
 482      BDD81681 
 482      2FB2889B 
 483 02e7 1A1EF691 		.ascii	"\032\036\366\221\306\230\005Uj\1774p\252\000\010\335"
 483      C6980555 
 483      6A7F3470 
 483      AA0008DD 
 484 02f7 E054B9A1 		.ascii	"\340T\271\241\250\342\244\252,<_qF\343k\214\345\370"
 484      A8E2A4AA 
 484      2C3C5F71 
 484      46E36B8C 
 484      E5F8
 485 0309 F9990BAC 		.ascii	"\371\231\013\254\275f/\272EG\226\364\017I\230\012\333"
 485      BD662FBA 
 485      454796F4 
 485      0F49980A 
 485      DB
 486 031a C951742A 		.ascii	"\311Qt*\024]\224\242\300\267\374&\036`\014\255\326\342"
 486      145D94A2 
 486      C0B7FC26 
 486      1E600CAD 
 486      D6E2
 487 032c 2E1D6BD0 		.ascii	".\035k\320\231J\245A\011\376&\207\277\251\340\273)>"
 487      994AA541 
 487      09FE2687 
 487      BFA9E0BB 
 487      293E
 488 033e 37CB86F9 		.ascii	"7\313\206\371\244\353\003\222v\005$\2750[^\023\211\027"
 488      A4EB0392 
 488      760524BD 
 488      305B5E13 
 488      8917
 489 0350 99B35A9B 		.ascii	"\231\263Z\233\353N\030\013\367\304\037\376p\001\201"
 489      EB4E180B 
 489      F7C41FFE 
 489      700181
 490 035f 7A38773D 		.ascii	"z8w=\212\273^\352n9\273\342\035\234\316\356z\276w\342"
 490      8ABB5EEA 
 490      6E39BBE2 
 490      1D9CCEEE 
 490      7ABE77E2 
 491 0373 24A2B295 		.ascii	"$\242\262\225\\\256V\302%x7\207w+x\017\305\253\265\363"
 491      5CAE56C2 
 491      25783787 
 491      772B780F 
 491      C5ABB5F3 
 492 0387 B389BE27 		.ascii	"\263\211\276'\032\272F*\326\207\350\242\365JwA\350\232"
 492      1ABA462A 
 492      D687E8A2 
 492      F54A7741 
 492      E89A
ARM GAS  C:\Users\Luggi\AppData\Local\Temp\cc0hmrdM.s 			page 38


 493 0399 3D3E40F3 		.ascii	"=>@\363\352Wz\374V]\345@\004\276\300\302Z\371\275\275"
 493      EA577AFC 
 493      565DE540 
 493      04BEC0C2 
 493      5AF9BDBD 
 494 03ad 379C2596 		.ascii	"7\234%\226\333\355O\014 h\220\013lP\011l\210\0066\365"
 494      DBED4F0C 
 494      2068900B 
 494      6C50096C 
 494      880636F5 
 495 03c1 383B2B14 		.ascii	"8;+\02472\012\357\344\2433ZV\010\267\225/\3040G0\254"
 495      37320AEF 
 495      E4A3335A 
 495      5608B795 
 495      2FC43047 
 496 03d7 108C5002 		.ascii	"\020\214P\002\351\334\017eax\220\0214<\311\263G\352"
 496      E9DC0F65 
 496      61789011 
 496      343CC9B3 
 496      47EA
 497 03e9 7348EBAE 		.ascii	"sH\353\256\377%\200;1\332\2377\026\316\276\035\301\210"
 497      FF25803B 
 497      31DA9F37 
 497      16CEBE1D 
 497      C188
 498 03fb DB6B7E3B 		.ascii	"\333k~;2\333\015=\222\024\206\306@\265Q\377\335\271"
 498      32DB0D3D 
 498      921486C6 
 498      40B551FF 
 498      DDB9
 499 040d 85FC5F8F 		.ascii	"\205\374_\217Qw\306]l\310#\267\010T\014\377\230\236"
 499      5177C65D 
 499      6CC823B7 
 499      08540CFF 
 499      989E
 500 041f F5CB388E 		.ascii	"\365\3138\216\0144\003x\222\177\204\376\273\323\030"
 500      0C340378 
 500      927F84FE 
 500      BBD318
 501 042e DF621974 		.ascii	"\337b\031t\216\237\3553\260\0146v\3774\247.\245{B\345"
 501      8E9FED33 
 501      B00C3676 
 501      FF34A72E 
 501      A57B42E5 
 502 0442 7B5DF2EF 		.ascii	"{]\362\357\36604\011\276&\374q\335A\376K\275\232\364"
 502      F6303409 
 502      BE26FC71 
 502      DD41FE4B 
 502      BD9AF4
 503 0455 AEFAA5B6 		.ascii	"\256\372\245\266M7\017G(a\344l\0041\330\341-\212\340"
 503      4D370F47 
 503      2861E46C 
 503      0431D8E1 
 503      2D8AE0
 504 0468 539E0A48 		.ascii	"S\236\012HyZNy\232\246\334\351i\373M\307\037\236\014"
 504      795A4E79 
 504      9AA6DCE9 
ARM GAS  C:\Users\Luggi\AppData\Local\Temp\cc0hmrdM.s 			page 39


 504      69FB4DC7 
 504      1F9E0C
 505 047b 383C231F 		.ascii	"8<#\037\236!\207q\325P{\261\006\031\215\372B\370s{\372"
 505      9E218771 
 505      D5507BB1 
 505      06198DFA 
 505      42F8737B 
 506 0490 3AF24242 		.ascii	":\362BB\344\325\261\340\363}\357c\343T(]\316!}\273\224"
 506      E4D5B1E0 
 506      F37DEF63 
 506      E354285D 
 506      CE217DBB 
 507 04a5 C1D551A0 		.ascii	"\301\325Q\240\353\002\232\003\362Y\022>L\311\227\363"
 507      EB029A03 
 507      F259123E 
 507      4CC997F3 
 508 04b5 97255740 		.ascii	"\227%W@\264\344\376\370\003\230\227\003\230\247\321"
 508      B4E4FEF8 
 508      03989703 
 508      98A7D1
 509 04c4 36D97BB3 		.ascii	"6\331{\263\242\371\303\035\001\207\357\311\207\3113"
 509      A2F9C31D 
 509      0187EFC9 
 509      87C933
 510 04d3 32FE605A 		.ascii	"2\376`Z\3627\373v\354K\264$\231-\272\335\237}a\212\027"
 510      F237FB76 
 510      EC4BB424 
 510      992DBADD 
 510      9F7D618A 
 511 04e8 DED82D1E 		.ascii	"\336\330-\036\022\315I\0261e_b\332Qs\262\2707!1-~\307"
 511      12CD4916 
 511      31655F62 
 511      DA5173B2 
 511      B8372131 
 512 04ff 5EF9ECB6 		.ascii	"^\371\354\266d\301\340\207\245\035~\205\237|@\336C\216"
 512      64C1E087 
 512      A51D7E85 
 512      9F7C40DE 
 512      438E
 513 0511 A61EB2EC 		.ascii	"\246\036\262\354Z\203\346\355\344c\226c\207\305#\333"
 513      5A83E6ED 
 513      E4639663 
 513      87C523DB 
 514 0521 0E08AF72 		.ascii	"\016\010\257r\336\017\245|},!\355;\321\254#\340\355"
 514      DE0FA57C 
 514      7D2C21ED 
 514      3BD1AC23 
 514      E0ED
 515 0533 3B8DCADE 		.ascii	";\215\312\336n\321\362a\352\267\251)\242\371sq\177\352"
 515      6ED1F261 
 515      EAB7A929 
 515      A2F97371 
 515      7FEA
 516 0545 118B688E 		.ascii	"\021\213h\216y\011\023-\237\246\245\210\312\372\026"
 516      7909132D 
 516      9FA6A588 
 516      CAFA16
ARM GAS  C:\Users\Luggi\AppData\Local\Temp\cc0hmrdM.s 			page 40


 517 0554 653DFEA0 		.ascii	"e=\376\240\230d\346wb82U\004\254\263\030\225\035#\347"
 517      9864E677 
 517      62383255 
 517      04ACB318 
 517      951D23E7 
 518 0568 23C8FD16 		.ascii	"#\310\375\026n+\020\2445\213\373w\205\300\317\366\235"
 518      6E2B10A4 
 518      358BFB77 
 518      85C0CFF6 
 518      9D
 519 0579 FF013834 		.ascii	"\377\001840\216"
 519      308E
 520              		.text
 521              		.section	.gnu.lto_.symtab.304b6c85,"",%progbits
 522 0000 436C6F63 		.ascii	"Clock_5_Start\000\000\000\000\000\000\000\000\000\000"
 522      6B5F355F 
 522      53746172 
 522      74000000 
 522      00000000 
 523 0017 0000AC00 		.ascii	"\000\000\254\000\000\000Clock_5_Stop\000\000\000\000"
 523      0000436C 
 523      6F636B5F 
 523      355F5374 
 523      6F700000 
 524 002d 00000000 		.ascii	"\000\000\000\000\000\000\000\000\256\000\000\000Clo"
 524      00000000 
 524      AE000000 
 524      436C6F
 525 003c 636B5F35 		.ascii	"ck_5_StopBlock\000\000\000\000\000\000\000\000\000\000"
 525      5F53746F 
 525      70426C6F 
 525      636B0000 
 525      00000000 
 526 0054 0000B000 		.ascii	"\000\000\260\000\000\000Clock_5_StandbyPower\000\000"
 526      0000436C 
 526      6F636B5F 
 526      355F5374 
 526      616E6462 
 527 0070 00000000 		.ascii	"\000\000\000\000\000\000\000\000\000\000\271\000\000"
 527      00000000 
 527      0000B900 
 527      00
 528 007d 00436C6F 		.ascii	"\000Clock_5_GetDividerRegister\000\000\000\000\000\000"
 528      636B5F35 
 528      5F476574 
 528      44697669 
 528      64657252 
 529 009e 00000000 		.ascii	"\000\000\000\000\000\000\303\000\000\000Clock_5_Set"
 529      0000C300 
 529      0000436C 
 529      6F636B5F 
 529      355F5365 
 530 00b3 4D6F6465 		.ascii	"ModeRegister\000\000\000\000\000\000\000\000\000\000"
 530      52656769 
 530      73746572 
 530      00000000 
 530      00000000 
ARM GAS  C:\Users\Luggi\AppData\Local\Temp\cc0hmrdM.s 			page 41


 531 00c9 0000C500 		.ascii	"\000\000\305\000\000\000Clock_5_ClearModeRegister\000"
 531      0000436C 
 531      6F636B5F 
 531      355F436C 
 531      6561724D 
 532 00e9 00000000 		.ascii	"\000\000\000\000\000\000\000\000\000\000\000\307\000"
 532      00000000 
 532      000000C7 
 532      00
 533 00f6 0000436C 		.ascii	"\000\000Clock_5_GetModeRegister\000\000\000\000\000"
 533      6F636B5F 
 533      355F4765 
 533      744D6F64 
 533      65526567 
 534 0114 00000000 		.ascii	"\000\000\000\000\000\000\000\312\000\000\000Clock_5"
 534      000000CA 
 534      00000043 
 534      6C6F636B 
 534      5F35
 535 0126 5F476574 		.ascii	"_GetSourceRegister\000\000\000\000\000\000\000\000\000"
 535      536F7572 
 535      63655265 
 535      67697374 
 535      65720000 
 536 0141 000000CC 		.ascii	"\000\000\000\314\000\000\000Clock_5_SetDividerRegis"
 536      00000043 
 536      6C6F636B 
 536      5F355F53 
 536      65744469 
 537 015f 74657200 		.ascii	"ter\000\000\000\000\000\000\000\000\000\000\000\000"
 537      00000000 
 537      00000000 
 537      000000
 538 016e D1000000 		.ascii	"\321\000\000\000Clock_5_SetSourceRegister\000\000\000"
 538      436C6F63 
 538      6B5F355F 
 538      53657453 
 538      6F757263 
 539 018e 00000000 		.ascii	"\000\000\000\000\000\000\000\000\000\323\000\000\000"
 539      00000000 
 539      00D30000 
 539      00
 540              		.text
 541              		.section	.gnu.lto_.opts,"",%progbits
 542 0000 272D666E 		.ascii	"'-fno-trapv' '-fno-strict-overflow' '-mcpu=cortex-m"
 542      6F2D7472 
 542      61707627 
 542      20272D66 
 542      6E6F2D73 
 543 0033 33272027 		.ascii	"3' '-mthumb' '-g' '-Og' '-ffunction-sections' '-flt"
 543      2D6D7468 
 543      756D6227 
 543      20272D67 
 543      2720272D 
 544 0066 6F272027 		.ascii	"o' '-ffat-lto-objects'\000"
 544      2D666661 
 544      742D6C74 
ARM GAS  C:\Users\Luggi\AppData\Local\Temp\cc0hmrdM.s 			page 42


 544      6F2D6F62 
 544      6A656374 
 545              		.text
 546              		.cfi_sections	.debug_frame
 547              		.section	.text.Clock_5_Start,"ax",%progbits
 548              		.align	2
 549              		.global	Clock_5_Start
 550              		.thumb
 551              		.thumb_func
 552              		.type	Clock_5_Start, %function
 553              	Clock_5_Start:
 554              	.LFB0:
 555              		.file 1 "Generated_Source\\PSoC5\\Clock_5.c"
   1:Generated_Source\PSoC5/Clock_5.c **** /*******************************************************************************
   2:Generated_Source\PSoC5/Clock_5.c **** * File Name: Clock_5.c
   3:Generated_Source\PSoC5/Clock_5.c **** * Version 2.20
   4:Generated_Source\PSoC5/Clock_5.c **** *
   5:Generated_Source\PSoC5/Clock_5.c **** *  Description:
   6:Generated_Source\PSoC5/Clock_5.c **** *   This file provides the source code to the API for the clock component.
   7:Generated_Source\PSoC5/Clock_5.c **** *
   8:Generated_Source\PSoC5/Clock_5.c **** *  Note:
   9:Generated_Source\PSoC5/Clock_5.c **** *
  10:Generated_Source\PSoC5/Clock_5.c **** ********************************************************************************
  11:Generated_Source\PSoC5/Clock_5.c **** * Copyright 2008-2012, Cypress Semiconductor Corporation.  All rights reserved.
  12:Generated_Source\PSoC5/Clock_5.c **** * You may use this file only in accordance with the license, terms, conditions, 
  13:Generated_Source\PSoC5/Clock_5.c **** * disclaimers, and limitations in the end user license agreement accompanying 
  14:Generated_Source\PSoC5/Clock_5.c **** * the software package with which this file was provided.
  15:Generated_Source\PSoC5/Clock_5.c **** *******************************************************************************/
  16:Generated_Source\PSoC5/Clock_5.c **** 
  17:Generated_Source\PSoC5/Clock_5.c **** #include <cydevice_trm.h>
  18:Generated_Source\PSoC5/Clock_5.c **** #include "Clock_5.h"
  19:Generated_Source\PSoC5/Clock_5.c **** 
  20:Generated_Source\PSoC5/Clock_5.c **** /* Clock Distribution registers. */
  21:Generated_Source\PSoC5/Clock_5.c **** #define CLK_DIST_LD              (* (reg8 *) CYREG_CLKDIST_LD)
  22:Generated_Source\PSoC5/Clock_5.c **** #define CLK_DIST_BCFG2           (* (reg8 *) CYREG_CLKDIST_BCFG2)
  23:Generated_Source\PSoC5/Clock_5.c **** #define BCFG2_MASK               (0x80u)
  24:Generated_Source\PSoC5/Clock_5.c **** #define CLK_DIST_DMASK           (* (reg8 *) CYREG_CLKDIST_DMASK)
  25:Generated_Source\PSoC5/Clock_5.c **** #define CLK_DIST_AMASK           (* (reg8 *) CYREG_CLKDIST_AMASK)
  26:Generated_Source\PSoC5/Clock_5.c **** 
  27:Generated_Source\PSoC5/Clock_5.c **** #define HAS_CLKDIST_LD_DISABLE   (CY_PSOC3 || CY_PSOC5LP)
  28:Generated_Source\PSoC5/Clock_5.c **** 
  29:Generated_Source\PSoC5/Clock_5.c **** 
  30:Generated_Source\PSoC5/Clock_5.c **** /*******************************************************************************
  31:Generated_Source\PSoC5/Clock_5.c **** * Function Name: Clock_5_Start
  32:Generated_Source\PSoC5/Clock_5.c **** ********************************************************************************
  33:Generated_Source\PSoC5/Clock_5.c **** *
  34:Generated_Source\PSoC5/Clock_5.c **** * Summary:
  35:Generated_Source\PSoC5/Clock_5.c **** *  Starts the clock. Note that on startup, clocks may be already running if the
  36:Generated_Source\PSoC5/Clock_5.c **** *  "Start on Reset" option is enabled in the DWR.
  37:Generated_Source\PSoC5/Clock_5.c **** *
  38:Generated_Source\PSoC5/Clock_5.c **** * Parameters:
  39:Generated_Source\PSoC5/Clock_5.c **** *  None
  40:Generated_Source\PSoC5/Clock_5.c **** *
  41:Generated_Source\PSoC5/Clock_5.c **** * Returns:
  42:Generated_Source\PSoC5/Clock_5.c **** *  None
  43:Generated_Source\PSoC5/Clock_5.c **** *
  44:Generated_Source\PSoC5/Clock_5.c **** *******************************************************************************/
ARM GAS  C:\Users\Luggi\AppData\Local\Temp\cc0hmrdM.s 			page 43


  45:Generated_Source\PSoC5/Clock_5.c **** void Clock_5_Start(void) 
  46:Generated_Source\PSoC5/Clock_5.c **** {
 556              		.loc 1 46 0
 557              		.cfi_startproc
 558              		@ args = 0, pretend = 0, frame = 0
 559              		@ frame_needed = 0, uses_anonymous_args = 0
 560              		@ link register save eliminated.
  47:Generated_Source\PSoC5/Clock_5.c ****     /* Set the bit to enable the clock. */
  48:Generated_Source\PSoC5/Clock_5.c ****     Clock_5_CLKEN |= Clock_5_CLKEN_MASK;
 561              		.loc 1 48 0
 562 0000 054A     		ldr	r2, .L2
 563 0002 1378     		ldrb	r3, [r2]	@ zero_extendqisi2
 564 0004 43F00103 		orr	r3, r3, #1
 565 0008 1370     		strb	r3, [r2]
  49:Generated_Source\PSoC5/Clock_5.c **** 	Clock_5_CLKSTBY |= Clock_5_CLKSTBY_MASK;
 566              		.loc 1 49 0
 567 000a 1032     		adds	r2, r2, #16
 568 000c 1378     		ldrb	r3, [r2]	@ zero_extendqisi2
 569 000e 43F00103 		orr	r3, r3, #1
 570 0012 1370     		strb	r3, [r2]
 571 0014 7047     		bx	lr
 572              	.L3:
 573 0016 00BF     		.align	2
 574              	.L2:
 575 0018 A2430040 		.word	1073759138
 576              		.cfi_endproc
 577              	.LFE0:
 578              		.size	Clock_5_Start, .-Clock_5_Start
 579              		.section	.text.Clock_5_Stop,"ax",%progbits
 580              		.align	2
 581              		.global	Clock_5_Stop
 582              		.thumb
 583              		.thumb_func
 584              		.type	Clock_5_Stop, %function
 585              	Clock_5_Stop:
 586              	.LFB1:
  50:Generated_Source\PSoC5/Clock_5.c **** }
  51:Generated_Source\PSoC5/Clock_5.c **** 
  52:Generated_Source\PSoC5/Clock_5.c **** 
  53:Generated_Source\PSoC5/Clock_5.c **** /*******************************************************************************
  54:Generated_Source\PSoC5/Clock_5.c **** * Function Name: Clock_5_Stop
  55:Generated_Source\PSoC5/Clock_5.c **** ********************************************************************************
  56:Generated_Source\PSoC5/Clock_5.c **** *
  57:Generated_Source\PSoC5/Clock_5.c **** * Summary:
  58:Generated_Source\PSoC5/Clock_5.c **** *  Stops the clock and returns immediately. This API does not require the
  59:Generated_Source\PSoC5/Clock_5.c **** *  source clock to be running but may return before the hardware is actually
  60:Generated_Source\PSoC5/Clock_5.c **** *  disabled. If the settings of the clock are changed after calling this
  61:Generated_Source\PSoC5/Clock_5.c **** *  function, the clock may glitch when it is started. To avoid the clock
  62:Generated_Source\PSoC5/Clock_5.c **** *  glitch, use the StopBlock function.
  63:Generated_Source\PSoC5/Clock_5.c **** *
  64:Generated_Source\PSoC5/Clock_5.c **** * Parameters:
  65:Generated_Source\PSoC5/Clock_5.c **** *  None
  66:Generated_Source\PSoC5/Clock_5.c **** *
  67:Generated_Source\PSoC5/Clock_5.c **** * Returns:
  68:Generated_Source\PSoC5/Clock_5.c **** *  None
  69:Generated_Source\PSoC5/Clock_5.c **** *
  70:Generated_Source\PSoC5/Clock_5.c **** *******************************************************************************/
ARM GAS  C:\Users\Luggi\AppData\Local\Temp\cc0hmrdM.s 			page 44


  71:Generated_Source\PSoC5/Clock_5.c **** void Clock_5_Stop(void) 
  72:Generated_Source\PSoC5/Clock_5.c **** {
 587              		.loc 1 72 0
 588              		.cfi_startproc
 589              		@ args = 0, pretend = 0, frame = 0
 590              		@ frame_needed = 0, uses_anonymous_args = 0
 591              		@ link register save eliminated.
  73:Generated_Source\PSoC5/Clock_5.c ****     /* Clear the bit to disable the clock. */
  74:Generated_Source\PSoC5/Clock_5.c ****     Clock_5_CLKEN &= (uint8)(~Clock_5_CLKEN_MASK);
 592              		.loc 1 74 0
 593 0000 054A     		ldr	r2, .L5
 594 0002 1378     		ldrb	r3, [r2]	@ zero_extendqisi2
 595 0004 03F0FE03 		and	r3, r3, #254
 596 0008 1370     		strb	r3, [r2]
  75:Generated_Source\PSoC5/Clock_5.c **** 	Clock_5_CLKSTBY &= (uint8)(~Clock_5_CLKSTBY_MASK);
 597              		.loc 1 75 0
 598 000a 1032     		adds	r2, r2, #16
 599 000c 1378     		ldrb	r3, [r2]	@ zero_extendqisi2
 600 000e 03F0FE03 		and	r3, r3, #254
 601 0012 1370     		strb	r3, [r2]
 602 0014 7047     		bx	lr
 603              	.L6:
 604 0016 00BF     		.align	2
 605              	.L5:
 606 0018 A2430040 		.word	1073759138
 607              		.cfi_endproc
 608              	.LFE1:
 609              		.size	Clock_5_Stop, .-Clock_5_Stop
 610              		.section	.text.Clock_5_StopBlock,"ax",%progbits
 611              		.align	2
 612              		.global	Clock_5_StopBlock
 613              		.thumb
 614              		.thumb_func
 615              		.type	Clock_5_StopBlock, %function
 616              	Clock_5_StopBlock:
 617              	.LFB2:
  76:Generated_Source\PSoC5/Clock_5.c **** }
  77:Generated_Source\PSoC5/Clock_5.c **** 
  78:Generated_Source\PSoC5/Clock_5.c **** 
  79:Generated_Source\PSoC5/Clock_5.c **** #if(CY_PSOC3 || CY_PSOC5LP)
  80:Generated_Source\PSoC5/Clock_5.c **** 
  81:Generated_Source\PSoC5/Clock_5.c **** 
  82:Generated_Source\PSoC5/Clock_5.c **** /*******************************************************************************
  83:Generated_Source\PSoC5/Clock_5.c **** * Function Name: Clock_5_StopBlock
  84:Generated_Source\PSoC5/Clock_5.c **** ********************************************************************************
  85:Generated_Source\PSoC5/Clock_5.c **** *
  86:Generated_Source\PSoC5/Clock_5.c **** * Summary:
  87:Generated_Source\PSoC5/Clock_5.c **** *  Stops the clock and waits for the hardware to actually be disabled before
  88:Generated_Source\PSoC5/Clock_5.c **** *  returning. This ensures that the clock is never truncated (high part of the
  89:Generated_Source\PSoC5/Clock_5.c **** *  cycle will terminate before the clock is disabled and the API returns).
  90:Generated_Source\PSoC5/Clock_5.c **** *  Note that the source clock must be running or this API will never return as
  91:Generated_Source\PSoC5/Clock_5.c **** *  a stopped clock cannot be disabled.
  92:Generated_Source\PSoC5/Clock_5.c **** *
  93:Generated_Source\PSoC5/Clock_5.c **** * Parameters:
  94:Generated_Source\PSoC5/Clock_5.c **** *  None
  95:Generated_Source\PSoC5/Clock_5.c **** *
  96:Generated_Source\PSoC5/Clock_5.c **** * Returns:
ARM GAS  C:\Users\Luggi\AppData\Local\Temp\cc0hmrdM.s 			page 45


  97:Generated_Source\PSoC5/Clock_5.c **** *  None
  98:Generated_Source\PSoC5/Clock_5.c **** *
  99:Generated_Source\PSoC5/Clock_5.c **** *******************************************************************************/
 100:Generated_Source\PSoC5/Clock_5.c **** void Clock_5_StopBlock(void) 
 101:Generated_Source\PSoC5/Clock_5.c **** {
 618              		.loc 1 101 0
 619              		.cfi_startproc
 620              		@ args = 0, pretend = 0, frame = 0
 621              		@ frame_needed = 0, uses_anonymous_args = 0
 622              		@ link register save eliminated.
 102:Generated_Source\PSoC5/Clock_5.c ****     if ((Clock_5_CLKEN & Clock_5_CLKEN_MASK) != 0u)
 623              		.loc 1 102 0
 624 0000 164B     		ldr	r3, .L10
 625 0002 1B78     		ldrb	r3, [r3]	@ zero_extendqisi2
 626 0004 13F0010F 		tst	r3, #1
 627 0008 27D0     		beq	.L7
 628              	.LBB2:
 103:Generated_Source\PSoC5/Clock_5.c ****     {
 104:Generated_Source\PSoC5/Clock_5.c **** #if HAS_CLKDIST_LD_DISABLE
 105:Generated_Source\PSoC5/Clock_5.c ****         uint16 oldDivider;
 106:Generated_Source\PSoC5/Clock_5.c **** 
 107:Generated_Source\PSoC5/Clock_5.c ****         CLK_DIST_LD = 0u;
 629              		.loc 1 107 0
 630 000a 1549     		ldr	r1, .L10+4
 631 000c 0023     		movs	r3, #0
 632 000e 0B70     		strb	r3, [r1]
 108:Generated_Source\PSoC5/Clock_5.c **** 
 109:Generated_Source\PSoC5/Clock_5.c ****         /* Clear all the mask bits except ours. */
 110:Generated_Source\PSoC5/Clock_5.c **** #if defined(Clock_5__CFG3)
 111:Generated_Source\PSoC5/Clock_5.c ****         CLK_DIST_AMASK = Clock_5_CLKEN_MASK;
 112:Generated_Source\PSoC5/Clock_5.c ****         CLK_DIST_DMASK = 0x00u;
 113:Generated_Source\PSoC5/Clock_5.c **** #else
 114:Generated_Source\PSoC5/Clock_5.c ****         CLK_DIST_DMASK = Clock_5_CLKEN_MASK;
 633              		.loc 1 114 0
 634 0010 0120     		movs	r0, #1
 635 0012 144A     		ldr	r2, .L10+8
 636 0014 1070     		strb	r0, [r2]
 115:Generated_Source\PSoC5/Clock_5.c ****         CLK_DIST_AMASK = 0x00u;
 637              		.loc 1 115 0
 638 0016 0432     		adds	r2, r2, #4
 639 0018 1370     		strb	r3, [r2]
 116:Generated_Source\PSoC5/Clock_5.c **** #endif /* Clock_5__CFG3 */
 117:Generated_Source\PSoC5/Clock_5.c **** 
 118:Generated_Source\PSoC5/Clock_5.c ****         /* Clear mask of bus clock. */
 119:Generated_Source\PSoC5/Clock_5.c ****         CLK_DIST_BCFG2 &= (uint8)(~BCFG2_MASK);
 640              		.loc 1 119 0
 641 001a 0C3A     		subs	r2, r2, #12
 642 001c 1378     		ldrb	r3, [r2]	@ zero_extendqisi2
 643 001e 03F07F03 		and	r3, r3, #127
 644 0022 1370     		strb	r3, [r2]
 120:Generated_Source\PSoC5/Clock_5.c **** 
 121:Generated_Source\PSoC5/Clock_5.c ****         oldDivider = CY_GET_REG16(Clock_5_DIV_PTR);
 645              		.loc 1 121 0
 646 0024 104B     		ldr	r3, .L10+12
 647 0026 1A88     		ldrh	r2, [r3]
 648 0028 92B2     		uxth	r2, r2
 649              	.LVL0:
ARM GAS  C:\Users\Luggi\AppData\Local\Temp\cc0hmrdM.s 			page 46


 122:Generated_Source\PSoC5/Clock_5.c ****         CY_SET_REG16(CYREG_CLKDIST_WRK0, oldDivider);
 650              		.loc 1 122 0
 651 002a 7E3B     		subs	r3, r3, #126
 652 002c 1A80     		strh	r2, [r3]	@ movhi
 123:Generated_Source\PSoC5/Clock_5.c ****         CLK_DIST_LD = CYCLK_LD_DISABLE | CYCLK_LD_SYNC_EN | CYCLK_LD_LOAD;
 653              		.loc 1 123 0
 654 002e 0723     		movs	r3, #7
 655 0030 0B70     		strb	r3, [r1]
 656              	.L9:
 124:Generated_Source\PSoC5/Clock_5.c **** 
 125:Generated_Source\PSoC5/Clock_5.c ****         /* Wait for clock to be disabled */
 126:Generated_Source\PSoC5/Clock_5.c ****         while ((CLK_DIST_LD & CYCLK_LD_LOAD) != 0u) { }
 657              		.loc 1 126 0 discriminator 1
 658 0032 0B4B     		ldr	r3, .L10+4
 659 0034 1B78     		ldrb	r3, [r3]	@ zero_extendqisi2
 660 0036 13F0010F 		tst	r3, #1
 661 003a FAD1     		bne	.L9
 127:Generated_Source\PSoC5/Clock_5.c **** #endif /* HAS_CLKDIST_LD_DISABLE */
 128:Generated_Source\PSoC5/Clock_5.c **** 
 129:Generated_Source\PSoC5/Clock_5.c ****         /* Clear the bit to disable the clock. */
 130:Generated_Source\PSoC5/Clock_5.c ****         Clock_5_CLKEN &= (uint8)(~Clock_5_CLKEN_MASK);
 662              		.loc 1 130 0
 663 003c 0749     		ldr	r1, .L10
 664 003e 0B78     		ldrb	r3, [r1]	@ zero_extendqisi2
 665 0040 03F0FE03 		and	r3, r3, #254
 666 0044 0B70     		strb	r3, [r1]
 131:Generated_Source\PSoC5/Clock_5.c ****         Clock_5_CLKSTBY &= (uint8)(~Clock_5_CLKSTBY_MASK);
 667              		.loc 1 131 0
 668 0046 1031     		adds	r1, r1, #16
 669 0048 0B78     		ldrb	r3, [r1]	@ zero_extendqisi2
 670 004a 03F0FE03 		and	r3, r3, #254
 671 004e 0B70     		strb	r3, [r1]
 132:Generated_Source\PSoC5/Clock_5.c **** 
 133:Generated_Source\PSoC5/Clock_5.c **** #if HAS_CLKDIST_LD_DISABLE
 134:Generated_Source\PSoC5/Clock_5.c ****         /* Clear the disable bit */
 135:Generated_Source\PSoC5/Clock_5.c ****         CLK_DIST_LD = 0x00u;
 672              		.loc 1 135 0
 673 0050 0021     		movs	r1, #0
 674 0052 034B     		ldr	r3, .L10+4
 675 0054 1970     		strb	r1, [r3]
 136:Generated_Source\PSoC5/Clock_5.c ****         CY_SET_REG16(Clock_5_DIV_PTR, oldDivider);
 676              		.loc 1 136 0
 677 0056 7F33     		adds	r3, r3, #127
 678 0058 1A80     		strh	r2, [r3]	@ movhi
 679              	.LVL1:
 680              	.L7:
 681 005a 7047     		bx	lr
 682              	.L11:
 683              		.align	2
 684              	.L10:
 685 005c A2430040 		.word	1073759138
 686 0060 01400040 		.word	1073758209
 687 0064 10400040 		.word	1073758224
 688 0068 80400040 		.word	1073758336
 689              	.LBE2:
 690              		.cfi_endproc
 691              	.LFE2:
ARM GAS  C:\Users\Luggi\AppData\Local\Temp\cc0hmrdM.s 			page 47


 692              		.size	Clock_5_StopBlock, .-Clock_5_StopBlock
 693              		.section	.text.Clock_5_StandbyPower,"ax",%progbits
 694              		.align	2
 695              		.global	Clock_5_StandbyPower
 696              		.thumb
 697              		.thumb_func
 698              		.type	Clock_5_StandbyPower, %function
 699              	Clock_5_StandbyPower:
 700              	.LFB3:
 137:Generated_Source\PSoC5/Clock_5.c **** #endif /* HAS_CLKDIST_LD_DISABLE */
 138:Generated_Source\PSoC5/Clock_5.c ****     }
 139:Generated_Source\PSoC5/Clock_5.c **** }
 140:Generated_Source\PSoC5/Clock_5.c **** #endif /* (CY_PSOC3 || CY_PSOC5LP) */
 141:Generated_Source\PSoC5/Clock_5.c **** 
 142:Generated_Source\PSoC5/Clock_5.c **** 
 143:Generated_Source\PSoC5/Clock_5.c **** /*******************************************************************************
 144:Generated_Source\PSoC5/Clock_5.c **** * Function Name: Clock_5_StandbyPower
 145:Generated_Source\PSoC5/Clock_5.c **** ********************************************************************************
 146:Generated_Source\PSoC5/Clock_5.c **** *
 147:Generated_Source\PSoC5/Clock_5.c **** * Summary:
 148:Generated_Source\PSoC5/Clock_5.c **** *  Sets whether the clock is active in standby mode.
 149:Generated_Source\PSoC5/Clock_5.c **** *
 150:Generated_Source\PSoC5/Clock_5.c **** * Parameters:
 151:Generated_Source\PSoC5/Clock_5.c **** *  state:  0 to disable clock during standby, nonzero to enable.
 152:Generated_Source\PSoC5/Clock_5.c **** *
 153:Generated_Source\PSoC5/Clock_5.c **** * Returns:
 154:Generated_Source\PSoC5/Clock_5.c **** *  None
 155:Generated_Source\PSoC5/Clock_5.c **** *
 156:Generated_Source\PSoC5/Clock_5.c **** *******************************************************************************/
 157:Generated_Source\PSoC5/Clock_5.c **** void Clock_5_StandbyPower(uint8 state) 
 158:Generated_Source\PSoC5/Clock_5.c **** {
 701              		.loc 1 158 0
 702              		.cfi_startproc
 703              		@ args = 0, pretend = 0, frame = 0
 704              		@ frame_needed = 0, uses_anonymous_args = 0
 705              		@ link register save eliminated.
 706              	.LVL2:
 159:Generated_Source\PSoC5/Clock_5.c ****     if(state == 0u)
 707              		.loc 1 159 0
 708 0000 28B9     		cbnz	r0, .L13
 160:Generated_Source\PSoC5/Clock_5.c ****     {
 161:Generated_Source\PSoC5/Clock_5.c ****         Clock_5_CLKSTBY &= (uint8)(~Clock_5_CLKSTBY_MASK);
 709              		.loc 1 161 0
 710 0002 064A     		ldr	r2, .L15
 711 0004 1378     		ldrb	r3, [r2]	@ zero_extendqisi2
 712 0006 03F0FE03 		and	r3, r3, #254
 713 000a 1370     		strb	r3, [r2]
 714 000c 7047     		bx	lr
 715              	.L13:
 162:Generated_Source\PSoC5/Clock_5.c ****     }
 163:Generated_Source\PSoC5/Clock_5.c ****     else
 164:Generated_Source\PSoC5/Clock_5.c ****     {
 165:Generated_Source\PSoC5/Clock_5.c ****         Clock_5_CLKSTBY |= Clock_5_CLKSTBY_MASK;
 716              		.loc 1 165 0
 717 000e 034A     		ldr	r2, .L15
 718 0010 1378     		ldrb	r3, [r2]	@ zero_extendqisi2
 719 0012 43F00103 		orr	r3, r3, #1
ARM GAS  C:\Users\Luggi\AppData\Local\Temp\cc0hmrdM.s 			page 48


 720 0016 1370     		strb	r3, [r2]
 721 0018 7047     		bx	lr
 722              	.L16:
 723 001a 00BF     		.align	2
 724              	.L15:
 725 001c B2430040 		.word	1073759154
 726              		.cfi_endproc
 727              	.LFE3:
 728              		.size	Clock_5_StandbyPower, .-Clock_5_StandbyPower
 729              		.section	.text.Clock_5_GetDividerRegister,"ax",%progbits
 730              		.align	2
 731              		.global	Clock_5_GetDividerRegister
 732              		.thumb
 733              		.thumb_func
 734              		.type	Clock_5_GetDividerRegister, %function
 735              	Clock_5_GetDividerRegister:
 736              	.LFB5:
 166:Generated_Source\PSoC5/Clock_5.c ****     }
 167:Generated_Source\PSoC5/Clock_5.c **** }
 168:Generated_Source\PSoC5/Clock_5.c **** 
 169:Generated_Source\PSoC5/Clock_5.c **** 
 170:Generated_Source\PSoC5/Clock_5.c **** /*******************************************************************************
 171:Generated_Source\PSoC5/Clock_5.c **** * Function Name: Clock_5_SetDividerRegister
 172:Generated_Source\PSoC5/Clock_5.c **** ********************************************************************************
 173:Generated_Source\PSoC5/Clock_5.c **** *
 174:Generated_Source\PSoC5/Clock_5.c **** * Summary:
 175:Generated_Source\PSoC5/Clock_5.c **** *  Modifies the clock divider and, thus, the frequency. When the clock divider
 176:Generated_Source\PSoC5/Clock_5.c **** *  register is set to zero or changed from zero, the clock will be temporarily
 177:Generated_Source\PSoC5/Clock_5.c **** *  disabled in order to change the SSS mode bit. If the clock is enabled when
 178:Generated_Source\PSoC5/Clock_5.c **** *  SetDividerRegister is called, then the source clock must be running.
 179:Generated_Source\PSoC5/Clock_5.c **** *
 180:Generated_Source\PSoC5/Clock_5.c **** * Parameters:
 181:Generated_Source\PSoC5/Clock_5.c **** *  clkDivider:  Divider register value (0-65,535). This value is NOT the
 182:Generated_Source\PSoC5/Clock_5.c **** *    divider; the clock hardware divides by clkDivider plus one. For example,
 183:Generated_Source\PSoC5/Clock_5.c **** *    to divide the clock by 2, this parameter should be set to 1.
 184:Generated_Source\PSoC5/Clock_5.c **** *  restart:  If nonzero, restarts the clock divider: the current clock cycle
 185:Generated_Source\PSoC5/Clock_5.c **** *   will be truncated and the new divide value will take effect immediately. If
 186:Generated_Source\PSoC5/Clock_5.c **** *   zero, the new divide value will take effect at the end of the current clock
 187:Generated_Source\PSoC5/Clock_5.c **** *   cycle.
 188:Generated_Source\PSoC5/Clock_5.c **** *
 189:Generated_Source\PSoC5/Clock_5.c **** * Returns:
 190:Generated_Source\PSoC5/Clock_5.c **** *  None
 191:Generated_Source\PSoC5/Clock_5.c **** *
 192:Generated_Source\PSoC5/Clock_5.c **** *******************************************************************************/
 193:Generated_Source\PSoC5/Clock_5.c **** void Clock_5_SetDividerRegister(uint16 clkDivider, uint8 restart)
 194:Generated_Source\PSoC5/Clock_5.c ****                                 
 195:Generated_Source\PSoC5/Clock_5.c **** {
 196:Generated_Source\PSoC5/Clock_5.c ****     uint8 enabled;
 197:Generated_Source\PSoC5/Clock_5.c **** 
 198:Generated_Source\PSoC5/Clock_5.c ****     uint8 currSrc = Clock_5_GetSourceRegister();
 199:Generated_Source\PSoC5/Clock_5.c ****     uint16 oldDivider = Clock_5_GetDividerRegister();
 200:Generated_Source\PSoC5/Clock_5.c **** 
 201:Generated_Source\PSoC5/Clock_5.c ****     if (clkDivider != oldDivider)
 202:Generated_Source\PSoC5/Clock_5.c ****     {
 203:Generated_Source\PSoC5/Clock_5.c ****         enabled = Clock_5_CLKEN & Clock_5_CLKEN_MASK;
 204:Generated_Source\PSoC5/Clock_5.c **** 
 205:Generated_Source\PSoC5/Clock_5.c ****         if ((currSrc == (uint8)CYCLK_SRC_SEL_CLK_SYNC_D) && ((oldDivider == 0u) || (clkDivider == 0
ARM GAS  C:\Users\Luggi\AppData\Local\Temp\cc0hmrdM.s 			page 49


 206:Generated_Source\PSoC5/Clock_5.c ****         {
 207:Generated_Source\PSoC5/Clock_5.c ****             /* Moving to/from SSS requires correct ordering to prevent halting the clock    */
 208:Generated_Source\PSoC5/Clock_5.c ****             if (oldDivider == 0u)
 209:Generated_Source\PSoC5/Clock_5.c ****             {
 210:Generated_Source\PSoC5/Clock_5.c ****                 /* Moving away from SSS, set the divider first so when SSS is cleared we    */
 211:Generated_Source\PSoC5/Clock_5.c ****                 /* don't halt the clock.  Using the shadow load isn't required as the       */
 212:Generated_Source\PSoC5/Clock_5.c ****                 /* divider is ignored while SSS is set.                                     */
 213:Generated_Source\PSoC5/Clock_5.c ****                 CY_SET_REG16(Clock_5_DIV_PTR, clkDivider);
 214:Generated_Source\PSoC5/Clock_5.c ****                 Clock_5_MOD_SRC &= (uint8)(~CYCLK_SSS);
 215:Generated_Source\PSoC5/Clock_5.c ****             }
 216:Generated_Source\PSoC5/Clock_5.c ****             else
 217:Generated_Source\PSoC5/Clock_5.c ****             {
 218:Generated_Source\PSoC5/Clock_5.c ****                 /* Moving to SSS, set SSS which then ignores the divider and we can set     */
 219:Generated_Source\PSoC5/Clock_5.c ****                 /* it without bothering with the shadow load.                               */
 220:Generated_Source\PSoC5/Clock_5.c ****                 Clock_5_MOD_SRC |= CYCLK_SSS;
 221:Generated_Source\PSoC5/Clock_5.c ****                 CY_SET_REG16(Clock_5_DIV_PTR, clkDivider);
 222:Generated_Source\PSoC5/Clock_5.c ****             }
 223:Generated_Source\PSoC5/Clock_5.c ****         }
 224:Generated_Source\PSoC5/Clock_5.c ****         else
 225:Generated_Source\PSoC5/Clock_5.c ****         {
 226:Generated_Source\PSoC5/Clock_5.c **** 			
 227:Generated_Source\PSoC5/Clock_5.c ****             if (enabled != 0u)
 228:Generated_Source\PSoC5/Clock_5.c ****             {
 229:Generated_Source\PSoC5/Clock_5.c ****                 CLK_DIST_LD = 0x00u;
 230:Generated_Source\PSoC5/Clock_5.c **** 
 231:Generated_Source\PSoC5/Clock_5.c ****                 /* Clear all the mask bits except ours. */
 232:Generated_Source\PSoC5/Clock_5.c **** #if defined(Clock_5__CFG3)
 233:Generated_Source\PSoC5/Clock_5.c ****                 CLK_DIST_AMASK = Clock_5_CLKEN_MASK;
 234:Generated_Source\PSoC5/Clock_5.c ****                 CLK_DIST_DMASK = 0x00u;
 235:Generated_Source\PSoC5/Clock_5.c **** #else
 236:Generated_Source\PSoC5/Clock_5.c ****                 CLK_DIST_DMASK = Clock_5_CLKEN_MASK;
 237:Generated_Source\PSoC5/Clock_5.c ****                 CLK_DIST_AMASK = 0x00u;
 238:Generated_Source\PSoC5/Clock_5.c **** #endif /* Clock_5__CFG3 */
 239:Generated_Source\PSoC5/Clock_5.c ****                 /* Clear mask of bus clock. */
 240:Generated_Source\PSoC5/Clock_5.c ****                 CLK_DIST_BCFG2 &= (uint8)(~BCFG2_MASK);
 241:Generated_Source\PSoC5/Clock_5.c **** 
 242:Generated_Source\PSoC5/Clock_5.c ****                 /* If clock is currently enabled, disable it if async or going from N-to-1*/
 243:Generated_Source\PSoC5/Clock_5.c ****                 if (((Clock_5_MOD_SRC & CYCLK_SYNC) == 0u) || (clkDivider == 0u))
 244:Generated_Source\PSoC5/Clock_5.c ****                 {
 245:Generated_Source\PSoC5/Clock_5.c **** #if HAS_CLKDIST_LD_DISABLE
 246:Generated_Source\PSoC5/Clock_5.c ****                     CY_SET_REG16(CYREG_CLKDIST_WRK0, oldDivider);
 247:Generated_Source\PSoC5/Clock_5.c ****                     CLK_DIST_LD = CYCLK_LD_DISABLE|CYCLK_LD_SYNC_EN|CYCLK_LD_LOAD;
 248:Generated_Source\PSoC5/Clock_5.c **** 
 249:Generated_Source\PSoC5/Clock_5.c ****                     /* Wait for clock to be disabled */
 250:Generated_Source\PSoC5/Clock_5.c ****                     while ((CLK_DIST_LD & CYCLK_LD_LOAD) != 0u) { }
 251:Generated_Source\PSoC5/Clock_5.c **** #endif /* HAS_CLKDIST_LD_DISABLE */
 252:Generated_Source\PSoC5/Clock_5.c **** 
 253:Generated_Source\PSoC5/Clock_5.c ****                     Clock_5_CLKEN &= (uint8)(~Clock_5_CLKEN_MASK);
 254:Generated_Source\PSoC5/Clock_5.c **** 
 255:Generated_Source\PSoC5/Clock_5.c **** #if HAS_CLKDIST_LD_DISABLE
 256:Generated_Source\PSoC5/Clock_5.c ****                     /* Clear the disable bit */
 257:Generated_Source\PSoC5/Clock_5.c ****                     CLK_DIST_LD = 0x00u;
 258:Generated_Source\PSoC5/Clock_5.c **** #endif /* HAS_CLKDIST_LD_DISABLE */
 259:Generated_Source\PSoC5/Clock_5.c ****                 }
 260:Generated_Source\PSoC5/Clock_5.c ****             }
 261:Generated_Source\PSoC5/Clock_5.c **** 
 262:Generated_Source\PSoC5/Clock_5.c ****             /* Load divide value. */
ARM GAS  C:\Users\Luggi\AppData\Local\Temp\cc0hmrdM.s 			page 50


 263:Generated_Source\PSoC5/Clock_5.c ****             if ((Clock_5_CLKEN & Clock_5_CLKEN_MASK) != 0u)
 264:Generated_Source\PSoC5/Clock_5.c ****             {
 265:Generated_Source\PSoC5/Clock_5.c ****                 /* If the clock is still enabled, use the shadow registers */
 266:Generated_Source\PSoC5/Clock_5.c ****                 CY_SET_REG16(CYREG_CLKDIST_WRK0, clkDivider);
 267:Generated_Source\PSoC5/Clock_5.c **** 
 268:Generated_Source\PSoC5/Clock_5.c ****                 CLK_DIST_LD = (CYCLK_LD_LOAD | ((restart != 0u) ? CYCLK_LD_SYNC_EN : 0x00u));
 269:Generated_Source\PSoC5/Clock_5.c ****                 while ((CLK_DIST_LD & CYCLK_LD_LOAD) != 0u) { }
 270:Generated_Source\PSoC5/Clock_5.c ****             }
 271:Generated_Source\PSoC5/Clock_5.c ****             else
 272:Generated_Source\PSoC5/Clock_5.c ****             {
 273:Generated_Source\PSoC5/Clock_5.c ****                 /* If the clock is disabled, set the divider directly */
 274:Generated_Source\PSoC5/Clock_5.c ****                 CY_SET_REG16(Clock_5_DIV_PTR, clkDivider);
 275:Generated_Source\PSoC5/Clock_5.c **** 				Clock_5_CLKEN |= enabled;
 276:Generated_Source\PSoC5/Clock_5.c ****             }
 277:Generated_Source\PSoC5/Clock_5.c ****         }
 278:Generated_Source\PSoC5/Clock_5.c ****     }
 279:Generated_Source\PSoC5/Clock_5.c **** }
 280:Generated_Source\PSoC5/Clock_5.c **** 
 281:Generated_Source\PSoC5/Clock_5.c **** 
 282:Generated_Source\PSoC5/Clock_5.c **** /*******************************************************************************
 283:Generated_Source\PSoC5/Clock_5.c **** * Function Name: Clock_5_GetDividerRegister
 284:Generated_Source\PSoC5/Clock_5.c **** ********************************************************************************
 285:Generated_Source\PSoC5/Clock_5.c **** *
 286:Generated_Source\PSoC5/Clock_5.c **** * Summary:
 287:Generated_Source\PSoC5/Clock_5.c **** *  Gets the clock divider register value.
 288:Generated_Source\PSoC5/Clock_5.c **** *
 289:Generated_Source\PSoC5/Clock_5.c **** * Parameters:
 290:Generated_Source\PSoC5/Clock_5.c **** *  None
 291:Generated_Source\PSoC5/Clock_5.c **** *
 292:Generated_Source\PSoC5/Clock_5.c **** * Returns:
 293:Generated_Source\PSoC5/Clock_5.c **** *  Divide value of the clock minus 1. For example, if the clock is set to
 294:Generated_Source\PSoC5/Clock_5.c **** *  divide by 2, the return value will be 1.
 295:Generated_Source\PSoC5/Clock_5.c **** *
 296:Generated_Source\PSoC5/Clock_5.c **** *******************************************************************************/
 297:Generated_Source\PSoC5/Clock_5.c **** uint16 Clock_5_GetDividerRegister(void) 
 298:Generated_Source\PSoC5/Clock_5.c **** {
 737              		.loc 1 298 0
 738              		.cfi_startproc
 739              		@ args = 0, pretend = 0, frame = 0
 740              		@ frame_needed = 0, uses_anonymous_args = 0
 741              		@ link register save eliminated.
 299:Generated_Source\PSoC5/Clock_5.c ****     return CY_GET_REG16(Clock_5_DIV_PTR);
 742              		.loc 1 299 0
 743 0000 014B     		ldr	r3, .L18
 744 0002 1888     		ldrh	r0, [r3]
 300:Generated_Source\PSoC5/Clock_5.c **** }
 745              		.loc 1 300 0
 746 0004 80B2     		uxth	r0, r0
 747 0006 7047     		bx	lr
 748              	.L19:
 749              		.align	2
 750              	.L18:
 751 0008 80400040 		.word	1073758336
 752              		.cfi_endproc
 753              	.LFE5:
 754              		.size	Clock_5_GetDividerRegister, .-Clock_5_GetDividerRegister
 755              		.section	.text.Clock_5_SetModeRegister,"ax",%progbits
ARM GAS  C:\Users\Luggi\AppData\Local\Temp\cc0hmrdM.s 			page 51


 756              		.align	2
 757              		.global	Clock_5_SetModeRegister
 758              		.thumb
 759              		.thumb_func
 760              		.type	Clock_5_SetModeRegister, %function
 761              	Clock_5_SetModeRegister:
 762              	.LFB6:
 301:Generated_Source\PSoC5/Clock_5.c **** 
 302:Generated_Source\PSoC5/Clock_5.c **** 
 303:Generated_Source\PSoC5/Clock_5.c **** /*******************************************************************************
 304:Generated_Source\PSoC5/Clock_5.c **** * Function Name: Clock_5_SetModeRegister
 305:Generated_Source\PSoC5/Clock_5.c **** ********************************************************************************
 306:Generated_Source\PSoC5/Clock_5.c **** *
 307:Generated_Source\PSoC5/Clock_5.c **** * Summary:
 308:Generated_Source\PSoC5/Clock_5.c **** *  Sets flags that control the operating mode of the clock. This function only
 309:Generated_Source\PSoC5/Clock_5.c **** *  changes flags from 0 to 1; flags that are already 1 will remain unchanged.
 310:Generated_Source\PSoC5/Clock_5.c **** *  To clear flags, use the ClearModeRegister function. The clock must be
 311:Generated_Source\PSoC5/Clock_5.c **** *  disabled before changing the mode.
 312:Generated_Source\PSoC5/Clock_5.c **** *
 313:Generated_Source\PSoC5/Clock_5.c **** * Parameters:
 314:Generated_Source\PSoC5/Clock_5.c **** *  clkMode: Bit mask containing the bits to set. For PSoC 3 and PSoC 5,
 315:Generated_Source\PSoC5/Clock_5.c **** *   clkMode should be a set of the following optional bits or'ed together.
 316:Generated_Source\PSoC5/Clock_5.c **** *   - CYCLK_EARLY Enable early phase mode. Rising edge of output clock will
 317:Generated_Source\PSoC5/Clock_5.c **** *                 occur when the divider count reaches half of the divide
 318:Generated_Source\PSoC5/Clock_5.c **** *                 value.
 319:Generated_Source\PSoC5/Clock_5.c **** *   - CYCLK_DUTY  Enable 50% duty cycle output. When enabled, the output clock
 320:Generated_Source\PSoC5/Clock_5.c **** *                 is asserted for approximately half of its period. When
 321:Generated_Source\PSoC5/Clock_5.c **** *                 disabled, the output clock is asserted for one period of the
 322:Generated_Source\PSoC5/Clock_5.c **** *                 source clock.
 323:Generated_Source\PSoC5/Clock_5.c **** *   - CYCLK_SYNC  Enable output synchronization to master clock. This should
 324:Generated_Source\PSoC5/Clock_5.c **** *                 be enabled for all synchronous clocks.
 325:Generated_Source\PSoC5/Clock_5.c **** *   See the Technical Reference Manual for details about setting the mode of
 326:Generated_Source\PSoC5/Clock_5.c **** *   the clock. Specifically, see the CLKDIST.DCFG.CFG2 register.
 327:Generated_Source\PSoC5/Clock_5.c **** *
 328:Generated_Source\PSoC5/Clock_5.c **** * Returns:
 329:Generated_Source\PSoC5/Clock_5.c **** *  None
 330:Generated_Source\PSoC5/Clock_5.c **** *
 331:Generated_Source\PSoC5/Clock_5.c **** *******************************************************************************/
 332:Generated_Source\PSoC5/Clock_5.c **** void Clock_5_SetModeRegister(uint8 modeBitMask) 
 333:Generated_Source\PSoC5/Clock_5.c **** {
 763              		.loc 1 333 0
 764              		.cfi_startproc
 765              		@ args = 0, pretend = 0, frame = 0
 766              		@ frame_needed = 0, uses_anonymous_args = 0
 767              		@ link register save eliminated.
 768              	.LVL3:
 334:Generated_Source\PSoC5/Clock_5.c ****     Clock_5_MOD_SRC |= modeBitMask & (uint8)Clock_5_MODE_MASK;
 769              		.loc 1 334 0
 770 0000 034B     		ldr	r3, .L21
 771 0002 1A78     		ldrb	r2, [r3]	@ zero_extendqisi2
 772 0004 00F0F800 		and	r0, r0, #248
 773              	.LVL4:
 774 0008 1043     		orrs	r0, r0, r2
 775 000a 1870     		strb	r0, [r3]
 776 000c 7047     		bx	lr
 777              	.L22:
 778 000e 00BF     		.align	2
ARM GAS  C:\Users\Luggi\AppData\Local\Temp\cc0hmrdM.s 			page 52


 779              	.L21:
 780 0010 82400040 		.word	1073758338
 781              		.cfi_endproc
 782              	.LFE6:
 783              		.size	Clock_5_SetModeRegister, .-Clock_5_SetModeRegister
 784              		.section	.text.Clock_5_ClearModeRegister,"ax",%progbits
 785              		.align	2
 786              		.global	Clock_5_ClearModeRegister
 787              		.thumb
 788              		.thumb_func
 789              		.type	Clock_5_ClearModeRegister, %function
 790              	Clock_5_ClearModeRegister:
 791              	.LFB7:
 335:Generated_Source\PSoC5/Clock_5.c **** }
 336:Generated_Source\PSoC5/Clock_5.c **** 
 337:Generated_Source\PSoC5/Clock_5.c **** 
 338:Generated_Source\PSoC5/Clock_5.c **** /*******************************************************************************
 339:Generated_Source\PSoC5/Clock_5.c **** * Function Name: Clock_5_ClearModeRegister
 340:Generated_Source\PSoC5/Clock_5.c **** ********************************************************************************
 341:Generated_Source\PSoC5/Clock_5.c **** *
 342:Generated_Source\PSoC5/Clock_5.c **** * Summary:
 343:Generated_Source\PSoC5/Clock_5.c **** *  Clears flags that control the operating mode of the clock. This function
 344:Generated_Source\PSoC5/Clock_5.c **** *  only changes flags from 1 to 0; flags that are already 0 will remain
 345:Generated_Source\PSoC5/Clock_5.c **** *  unchanged. To set flags, use the SetModeRegister function. The clock must be
 346:Generated_Source\PSoC5/Clock_5.c **** *  disabled before changing the mode.
 347:Generated_Source\PSoC5/Clock_5.c **** *
 348:Generated_Source\PSoC5/Clock_5.c **** * Parameters:
 349:Generated_Source\PSoC5/Clock_5.c **** *  clkMode: Bit mask containing the bits to clear. For PSoC 3 and PSoC 5,
 350:Generated_Source\PSoC5/Clock_5.c **** *   clkMode should be a set of the following optional bits or'ed together.
 351:Generated_Source\PSoC5/Clock_5.c **** *   - CYCLK_EARLY Enable early phase mode. Rising edge of output clock will
 352:Generated_Source\PSoC5/Clock_5.c **** *                 occur when the divider count reaches half of the divide
 353:Generated_Source\PSoC5/Clock_5.c **** *                 value.
 354:Generated_Source\PSoC5/Clock_5.c **** *   - CYCLK_DUTY  Enable 50% duty cycle output. When enabled, the output clock
 355:Generated_Source\PSoC5/Clock_5.c **** *                 is asserted for approximately half of its period. When
 356:Generated_Source\PSoC5/Clock_5.c **** *                 disabled, the output clock is asserted for one period of the
 357:Generated_Source\PSoC5/Clock_5.c **** *                 source clock.
 358:Generated_Source\PSoC5/Clock_5.c **** *   - CYCLK_SYNC  Enable output synchronization to master clock. This should
 359:Generated_Source\PSoC5/Clock_5.c **** *                 be enabled for all synchronous clocks.
 360:Generated_Source\PSoC5/Clock_5.c **** *   See the Technical Reference Manual for details about setting the mode of
 361:Generated_Source\PSoC5/Clock_5.c **** *   the clock. Specifically, see the CLKDIST.DCFG.CFG2 register.
 362:Generated_Source\PSoC5/Clock_5.c **** *
 363:Generated_Source\PSoC5/Clock_5.c **** * Returns:
 364:Generated_Source\PSoC5/Clock_5.c **** *  None
 365:Generated_Source\PSoC5/Clock_5.c **** *
 366:Generated_Source\PSoC5/Clock_5.c **** *******************************************************************************/
 367:Generated_Source\PSoC5/Clock_5.c **** void Clock_5_ClearModeRegister(uint8 modeBitMask) 
 368:Generated_Source\PSoC5/Clock_5.c **** {
 792              		.loc 1 368 0
 793              		.cfi_startproc
 794              		@ args = 0, pretend = 0, frame = 0
 795              		@ frame_needed = 0, uses_anonymous_args = 0
 796              		@ link register save eliminated.
 797              	.LVL5:
 369:Generated_Source\PSoC5/Clock_5.c ****     Clock_5_MOD_SRC &= (uint8)(~modeBitMask) | (uint8)(~(uint8)(Clock_5_MODE_MASK));
 798              		.loc 1 369 0
 799 0000 044B     		ldr	r3, .L24
 800 0002 1A78     		ldrb	r2, [r3]	@ zero_extendqisi2
ARM GAS  C:\Users\Luggi\AppData\Local\Temp\cc0hmrdM.s 			page 53


 801 0004 C043     		mvns	r0, r0
 802              	.LVL6:
 803 0006 C0B2     		uxtb	r0, r0
 804 0008 40F00700 		orr	r0, r0, #7
 805 000c 1040     		ands	r0, r0, r2
 806 000e 1870     		strb	r0, [r3]
 807 0010 7047     		bx	lr
 808              	.L25:
 809 0012 00BF     		.align	2
 810              	.L24:
 811 0014 82400040 		.word	1073758338
 812              		.cfi_endproc
 813              	.LFE7:
 814              		.size	Clock_5_ClearModeRegister, .-Clock_5_ClearModeRegister
 815              		.section	.text.Clock_5_GetModeRegister,"ax",%progbits
 816              		.align	2
 817              		.global	Clock_5_GetModeRegister
 818              		.thumb
 819              		.thumb_func
 820              		.type	Clock_5_GetModeRegister, %function
 821              	Clock_5_GetModeRegister:
 822              	.LFB8:
 370:Generated_Source\PSoC5/Clock_5.c **** }
 371:Generated_Source\PSoC5/Clock_5.c **** 
 372:Generated_Source\PSoC5/Clock_5.c **** 
 373:Generated_Source\PSoC5/Clock_5.c **** /*******************************************************************************
 374:Generated_Source\PSoC5/Clock_5.c **** * Function Name: Clock_5_GetModeRegister
 375:Generated_Source\PSoC5/Clock_5.c **** ********************************************************************************
 376:Generated_Source\PSoC5/Clock_5.c **** *
 377:Generated_Source\PSoC5/Clock_5.c **** * Summary:
 378:Generated_Source\PSoC5/Clock_5.c **** *  Gets the clock mode register value.
 379:Generated_Source\PSoC5/Clock_5.c **** *
 380:Generated_Source\PSoC5/Clock_5.c **** * Parameters:
 381:Generated_Source\PSoC5/Clock_5.c **** *  None
 382:Generated_Source\PSoC5/Clock_5.c **** *
 383:Generated_Source\PSoC5/Clock_5.c **** * Returns:
 384:Generated_Source\PSoC5/Clock_5.c **** *  Bit mask representing the enabled mode bits. See the SetModeRegister and
 385:Generated_Source\PSoC5/Clock_5.c **** *  ClearModeRegister descriptions for details about the mode bits.
 386:Generated_Source\PSoC5/Clock_5.c **** *
 387:Generated_Source\PSoC5/Clock_5.c **** *******************************************************************************/
 388:Generated_Source\PSoC5/Clock_5.c **** uint8 Clock_5_GetModeRegister(void) 
 389:Generated_Source\PSoC5/Clock_5.c **** {
 823              		.loc 1 389 0
 824              		.cfi_startproc
 825              		@ args = 0, pretend = 0, frame = 0
 826              		@ frame_needed = 0, uses_anonymous_args = 0
 827              		@ link register save eliminated.
 390:Generated_Source\PSoC5/Clock_5.c ****     return Clock_5_MOD_SRC & (uint8)(Clock_5_MODE_MASK);
 828              		.loc 1 390 0
 829 0000 024B     		ldr	r3, .L27
 830 0002 1878     		ldrb	r0, [r3]	@ zero_extendqisi2
 391:Generated_Source\PSoC5/Clock_5.c **** }
 831              		.loc 1 391 0
 832 0004 00F0F800 		and	r0, r0, #248
 833 0008 7047     		bx	lr
 834              	.L28:
 835 000a 00BF     		.align	2
ARM GAS  C:\Users\Luggi\AppData\Local\Temp\cc0hmrdM.s 			page 54


 836              	.L27:
 837 000c 82400040 		.word	1073758338
 838              		.cfi_endproc
 839              	.LFE8:
 840              		.size	Clock_5_GetModeRegister, .-Clock_5_GetModeRegister
 841              		.section	.text.Clock_5_GetSourceRegister,"ax",%progbits
 842              		.align	2
 843              		.global	Clock_5_GetSourceRegister
 844              		.thumb
 845              		.thumb_func
 846              		.type	Clock_5_GetSourceRegister, %function
 847              	Clock_5_GetSourceRegister:
 848              	.LFB10:
 392:Generated_Source\PSoC5/Clock_5.c **** 
 393:Generated_Source\PSoC5/Clock_5.c **** 
 394:Generated_Source\PSoC5/Clock_5.c **** /*******************************************************************************
 395:Generated_Source\PSoC5/Clock_5.c **** * Function Name: Clock_5_SetSourceRegister
 396:Generated_Source\PSoC5/Clock_5.c **** ********************************************************************************
 397:Generated_Source\PSoC5/Clock_5.c **** *
 398:Generated_Source\PSoC5/Clock_5.c **** * Summary:
 399:Generated_Source\PSoC5/Clock_5.c **** *  Sets the input source of the clock. The clock must be disabled before
 400:Generated_Source\PSoC5/Clock_5.c **** *  changing the source. The old and new clock sources must be running.
 401:Generated_Source\PSoC5/Clock_5.c **** *
 402:Generated_Source\PSoC5/Clock_5.c **** * Parameters:
 403:Generated_Source\PSoC5/Clock_5.c **** *  clkSource:  For PSoC 3 and PSoC 5 devices, clkSource should be one of the
 404:Generated_Source\PSoC5/Clock_5.c **** *   following input sources:
 405:Generated_Source\PSoC5/Clock_5.c **** *   - CYCLK_SRC_SEL_SYNC_DIG
 406:Generated_Source\PSoC5/Clock_5.c **** *   - CYCLK_SRC_SEL_IMO
 407:Generated_Source\PSoC5/Clock_5.c **** *   - CYCLK_SRC_SEL_XTALM
 408:Generated_Source\PSoC5/Clock_5.c **** *   - CYCLK_SRC_SEL_ILO
 409:Generated_Source\PSoC5/Clock_5.c **** *   - CYCLK_SRC_SEL_PLL
 410:Generated_Source\PSoC5/Clock_5.c **** *   - CYCLK_SRC_SEL_XTALK
 411:Generated_Source\PSoC5/Clock_5.c **** *   - CYCLK_SRC_SEL_DSI_G
 412:Generated_Source\PSoC5/Clock_5.c **** *   - CYCLK_SRC_SEL_DSI_D/CYCLK_SRC_SEL_DSI_A
 413:Generated_Source\PSoC5/Clock_5.c **** *   See the Technical Reference Manual for details on clock sources.
 414:Generated_Source\PSoC5/Clock_5.c **** *
 415:Generated_Source\PSoC5/Clock_5.c **** * Returns:
 416:Generated_Source\PSoC5/Clock_5.c **** *  None
 417:Generated_Source\PSoC5/Clock_5.c **** *
 418:Generated_Source\PSoC5/Clock_5.c **** *******************************************************************************/
 419:Generated_Source\PSoC5/Clock_5.c **** void Clock_5_SetSourceRegister(uint8 clkSource) 
 420:Generated_Source\PSoC5/Clock_5.c **** {
 421:Generated_Source\PSoC5/Clock_5.c ****     uint16 currDiv = Clock_5_GetDividerRegister();
 422:Generated_Source\PSoC5/Clock_5.c ****     uint8 oldSrc = Clock_5_GetSourceRegister();
 423:Generated_Source\PSoC5/Clock_5.c **** 
 424:Generated_Source\PSoC5/Clock_5.c ****     if (((oldSrc != ((uint8)CYCLK_SRC_SEL_CLK_SYNC_D)) && 
 425:Generated_Source\PSoC5/Clock_5.c ****         (clkSource == ((uint8)CYCLK_SRC_SEL_CLK_SYNC_D))) && (currDiv == 0u))
 426:Generated_Source\PSoC5/Clock_5.c ****     {
 427:Generated_Source\PSoC5/Clock_5.c ****         /* Switching to Master and divider is 1, set SSS, which will output master, */
 428:Generated_Source\PSoC5/Clock_5.c ****         /* then set the source so we are consistent.                                */
 429:Generated_Source\PSoC5/Clock_5.c ****         Clock_5_MOD_SRC |= CYCLK_SSS;
 430:Generated_Source\PSoC5/Clock_5.c ****         Clock_5_MOD_SRC =
 431:Generated_Source\PSoC5/Clock_5.c ****             (Clock_5_MOD_SRC & (uint8)(~Clock_5_SRC_SEL_MSK)) | clkSource;
 432:Generated_Source\PSoC5/Clock_5.c ****     }
 433:Generated_Source\PSoC5/Clock_5.c ****     else if (((oldSrc == ((uint8)CYCLK_SRC_SEL_CLK_SYNC_D)) && 
 434:Generated_Source\PSoC5/Clock_5.c ****             (clkSource != ((uint8)CYCLK_SRC_SEL_CLK_SYNC_D))) && (currDiv == 0u))
 435:Generated_Source\PSoC5/Clock_5.c ****     {
ARM GAS  C:\Users\Luggi\AppData\Local\Temp\cc0hmrdM.s 			page 55


 436:Generated_Source\PSoC5/Clock_5.c ****         /* Switching from Master to not and divider is 1, set source, so we don't   */
 437:Generated_Source\PSoC5/Clock_5.c ****         /* lock when we clear SSS.                                                  */
 438:Generated_Source\PSoC5/Clock_5.c ****         Clock_5_MOD_SRC =
 439:Generated_Source\PSoC5/Clock_5.c ****             (Clock_5_MOD_SRC & (uint8)(~Clock_5_SRC_SEL_MSK)) | clkSource;
 440:Generated_Source\PSoC5/Clock_5.c ****         Clock_5_MOD_SRC &= (uint8)(~CYCLK_SSS);
 441:Generated_Source\PSoC5/Clock_5.c ****     }
 442:Generated_Source\PSoC5/Clock_5.c ****     else
 443:Generated_Source\PSoC5/Clock_5.c ****     {
 444:Generated_Source\PSoC5/Clock_5.c ****         Clock_5_MOD_SRC =
 445:Generated_Source\PSoC5/Clock_5.c ****             (Clock_5_MOD_SRC & (uint8)(~Clock_5_SRC_SEL_MSK)) | clkSource;
 446:Generated_Source\PSoC5/Clock_5.c ****     }
 447:Generated_Source\PSoC5/Clock_5.c **** }
 448:Generated_Source\PSoC5/Clock_5.c **** 
 449:Generated_Source\PSoC5/Clock_5.c **** 
 450:Generated_Source\PSoC5/Clock_5.c **** /*******************************************************************************
 451:Generated_Source\PSoC5/Clock_5.c **** * Function Name: Clock_5_GetSourceRegister
 452:Generated_Source\PSoC5/Clock_5.c **** ********************************************************************************
 453:Generated_Source\PSoC5/Clock_5.c **** *
 454:Generated_Source\PSoC5/Clock_5.c **** * Summary:
 455:Generated_Source\PSoC5/Clock_5.c **** *  Gets the input source of the clock.
 456:Generated_Source\PSoC5/Clock_5.c **** *
 457:Generated_Source\PSoC5/Clock_5.c **** * Parameters:
 458:Generated_Source\PSoC5/Clock_5.c **** *  None
 459:Generated_Source\PSoC5/Clock_5.c **** *
 460:Generated_Source\PSoC5/Clock_5.c **** * Returns:
 461:Generated_Source\PSoC5/Clock_5.c **** *  The input source of the clock. See SetSourceRegister for details.
 462:Generated_Source\PSoC5/Clock_5.c **** *
 463:Generated_Source\PSoC5/Clock_5.c **** *******************************************************************************/
 464:Generated_Source\PSoC5/Clock_5.c **** uint8 Clock_5_GetSourceRegister(void) 
 465:Generated_Source\PSoC5/Clock_5.c **** {
 849              		.loc 1 465 0
 850              		.cfi_startproc
 851              		@ args = 0, pretend = 0, frame = 0
 852              		@ frame_needed = 0, uses_anonymous_args = 0
 853              		@ link register save eliminated.
 466:Generated_Source\PSoC5/Clock_5.c ****     return Clock_5_MOD_SRC & Clock_5_SRC_SEL_MSK;
 854              		.loc 1 466 0
 855 0000 024B     		ldr	r3, .L30
 856 0002 1878     		ldrb	r0, [r3]	@ zero_extendqisi2
 467:Generated_Source\PSoC5/Clock_5.c **** }
 857              		.loc 1 467 0
 858 0004 00F00700 		and	r0, r0, #7
 859 0008 7047     		bx	lr
 860              	.L31:
 861 000a 00BF     		.align	2
 862              	.L30:
 863 000c 82400040 		.word	1073758338
 864              		.cfi_endproc
 865              	.LFE10:
 866              		.size	Clock_5_GetSourceRegister, .-Clock_5_GetSourceRegister
 867              		.section	.text.Clock_5_SetDividerRegister,"ax",%progbits
 868              		.align	2
 869              		.global	Clock_5_SetDividerRegister
 870              		.thumb
 871              		.thumb_func
 872              		.type	Clock_5_SetDividerRegister, %function
 873              	Clock_5_SetDividerRegister:
ARM GAS  C:\Users\Luggi\AppData\Local\Temp\cc0hmrdM.s 			page 56


 874              	.LFB4:
 195:Generated_Source\PSoC5/Clock_5.c ****     uint8 enabled;
 875              		.loc 1 195 0
 876              		.cfi_startproc
 877              		@ args = 0, pretend = 0, frame = 0
 878              		@ frame_needed = 0, uses_anonymous_args = 0
 879              	.LVL7:
 880 0000 70B5     		push	{r4, r5, r6, lr}
 881              		.cfi_def_cfa_offset 16
 882              		.cfi_offset 4, -16
 883              		.cfi_offset 5, -12
 884              		.cfi_offset 6, -8
 885              		.cfi_offset 14, -4
 886 0002 0546     		mov	r5, r0
 887 0004 0E46     		mov	r6, r1
 198:Generated_Source\PSoC5/Clock_5.c ****     uint16 oldDivider = Clock_5_GetDividerRegister();
 888              		.loc 1 198 0
 889 0006 FFF7FEFF 		bl	Clock_5_GetSourceRegister
 890              	.LVL8:
 891 000a 0446     		mov	r4, r0
 892              	.LVL9:
 199:Generated_Source\PSoC5/Clock_5.c **** 
 893              		.loc 1 199 0
 894 000c FFF7FEFF 		bl	Clock_5_GetDividerRegister
 895              	.LVL10:
 201:Generated_Source\PSoC5/Clock_5.c ****     {
 896              		.loc 1 201 0
 897 0010 8542     		cmp	r5, r0
 898 0012 56D0     		beq	.L32
 203:Generated_Source\PSoC5/Clock_5.c **** 
 899              		.loc 1 203 0
 900 0014 2B4B     		ldr	r3, .L45
 901 0016 1B78     		ldrb	r3, [r3]	@ zero_extendqisi2
 902 0018 03F00102 		and	r2, r3, #1
 903              	.LVL11:
 205:Generated_Source\PSoC5/Clock_5.c ****         {
 904              		.loc 1 205 0
 905 001c 94B9     		cbnz	r4, .L34
 205:Generated_Source\PSoC5/Clock_5.c ****         {
 906              		.loc 1 205 0 is_stmt 0 discriminator 1
 907 001e 00B1     		cbz	r0, .L35
 205:Generated_Source\PSoC5/Clock_5.c ****         {
 908              		.loc 1 205 0 discriminator 2
 909 0020 85B9     		cbnz	r5, .L34
 910              	.L35:
 208:Generated_Source\PSoC5/Clock_5.c ****             {
 911              		.loc 1 208 0 is_stmt 1
 912 0022 38B9     		cbnz	r0, .L36
 213:Generated_Source\PSoC5/Clock_5.c ****                 Clock_5_MOD_SRC &= (uint8)(~CYCLK_SSS);
 913              		.loc 1 213 0
 914 0024 284B     		ldr	r3, .L45+4
 915 0026 1D80     		strh	r5, [r3]	@ movhi
 214:Generated_Source\PSoC5/Clock_5.c ****             }
 916              		.loc 1 214 0
 917 0028 284A     		ldr	r2, .L45+8
 918              	.LVL12:
 919 002a 1378     		ldrb	r3, [r2]	@ zero_extendqisi2
ARM GAS  C:\Users\Luggi\AppData\Local\Temp\cc0hmrdM.s 			page 57


 920 002c 03F0BF03 		and	r3, r3, #191
 921 0030 1370     		strb	r3, [r2]
 922 0032 70BD     		pop	{r4, r5, r6, pc}
 923              	.LVL13:
 924              	.L36:
 220:Generated_Source\PSoC5/Clock_5.c ****                 CY_SET_REG16(Clock_5_DIV_PTR, clkDivider);
 925              		.loc 1 220 0
 926 0034 254A     		ldr	r2, .L45+8
 927              	.LVL14:
 928 0036 1378     		ldrb	r3, [r2]	@ zero_extendqisi2
 929              	.LVL15:
 930 0038 43F04003 		orr	r3, r3, #64
 931 003c 1370     		strb	r3, [r2]
 221:Generated_Source\PSoC5/Clock_5.c ****             }
 932              		.loc 1 221 0
 933 003e 224B     		ldr	r3, .L45+4
 934 0040 1D80     		strh	r5, [r3]	@ movhi
 935 0042 70BD     		pop	{r4, r5, r6, pc}
 936              	.LVL16:
 937              	.L34:
 227:Generated_Source\PSoC5/Clock_5.c ****             {
 938              		.loc 1 227 0
 939 0044 22B3     		cbz	r2, .L37
 229:Generated_Source\PSoC5/Clock_5.c **** 
 940              		.loc 1 229 0
 941 0046 0023     		movs	r3, #0
 942 0048 2149     		ldr	r1, .L45+12
 943 004a 0B70     		strb	r3, [r1]
 236:Generated_Source\PSoC5/Clock_5.c ****                 CLK_DIST_AMASK = 0x00u;
 944              		.loc 1 236 0
 945 004c 0124     		movs	r4, #1
 946              	.LVL17:
 947 004e 0F31     		adds	r1, r1, #15
 948 0050 0C70     		strb	r4, [r1]
 237:Generated_Source\PSoC5/Clock_5.c **** #endif /* Clock_5__CFG3 */
 949              		.loc 1 237 0
 950 0052 0431     		adds	r1, r1, #4
 951 0054 0B70     		strb	r3, [r1]
 240:Generated_Source\PSoC5/Clock_5.c **** 
 952              		.loc 1 240 0
 953 0056 0C39     		subs	r1, r1, #12
 954 0058 0B78     		ldrb	r3, [r1]	@ zero_extendqisi2
 955 005a 03F07F03 		and	r3, r3, #127
 956 005e 0B70     		strb	r3, [r1]
 243:Generated_Source\PSoC5/Clock_5.c ****                 {
 957              		.loc 1 243 0
 958 0060 1A4B     		ldr	r3, .L45+8
 959 0062 1B78     		ldrb	r3, [r3]	@ zero_extendqisi2
 960 0064 13F0080F 		tst	r3, #8
 961 0068 00D0     		beq	.L38
 243:Generated_Source\PSoC5/Clock_5.c ****                 {
 962              		.loc 1 243 0 is_stmt 0 discriminator 1
 963 006a 8DB9     		cbnz	r5, .L37
 964              	.L38:
 246:Generated_Source\PSoC5/Clock_5.c ****                     CLK_DIST_LD = CYCLK_LD_DISABLE|CYCLK_LD_SYNC_EN|CYCLK_LD_LOAD;
 965              		.loc 1 246 0 is_stmt 1
 966 006c 194B     		ldr	r3, .L45+16
ARM GAS  C:\Users\Luggi\AppData\Local\Temp\cc0hmrdM.s 			page 58


 967 006e 1880     		strh	r0, [r3]	@ movhi
 247:Generated_Source\PSoC5/Clock_5.c **** 
 968              		.loc 1 247 0
 969 0070 0721     		movs	r1, #7
 970 0072 013B     		subs	r3, r3, #1
 971 0074 1970     		strb	r1, [r3]
 972              	.L39:
 250:Generated_Source\PSoC5/Clock_5.c **** #endif /* HAS_CLKDIST_LD_DISABLE */
 973              		.loc 1 250 0 discriminator 1
 974 0076 164B     		ldr	r3, .L45+12
 975 0078 1B78     		ldrb	r3, [r3]	@ zero_extendqisi2
 976 007a 13F0010F 		tst	r3, #1
 977 007e FAD1     		bne	.L39
 253:Generated_Source\PSoC5/Clock_5.c **** 
 978              		.loc 1 253 0
 979 0080 1049     		ldr	r1, .L45
 980 0082 0B78     		ldrb	r3, [r1]	@ zero_extendqisi2
 981 0084 03F0FE03 		and	r3, r3, #254
 982 0088 0B70     		strb	r3, [r1]
 257:Generated_Source\PSoC5/Clock_5.c **** #endif /* HAS_CLKDIST_LD_DISABLE */
 983              		.loc 1 257 0
 984 008a 0021     		movs	r1, #0
 985 008c 104B     		ldr	r3, .L45+12
 986 008e 1970     		strb	r1, [r3]
 987              	.L37:
 263:Generated_Source\PSoC5/Clock_5.c ****             {
 988              		.loc 1 263 0
 989 0090 0C4B     		ldr	r3, .L45
 990 0092 1B78     		ldrb	r3, [r3]	@ zero_extendqisi2
 991 0094 13F0010F 		tst	r3, #1
 992 0098 0DD0     		beq	.L40
 266:Generated_Source\PSoC5/Clock_5.c **** 
 993              		.loc 1 266 0
 994 009a 0E4B     		ldr	r3, .L45+16
 995 009c 1D80     		strh	r5, [r3]	@ movhi
 268:Generated_Source\PSoC5/Clock_5.c ****                 while ((CLK_DIST_LD & CYCLK_LD_LOAD) != 0u) { }
 996              		.loc 1 268 0
 997 009e 0EB1     		cbz	r6, .L43
 998 00a0 0322     		movs	r2, #3
 999              	.LVL18:
 1000 00a2 00E0     		b	.L41
 1001              	.LVL19:
 1002              	.L43:
 1003 00a4 0122     		movs	r2, #1
 1004              	.LVL20:
 1005              	.L41:
 268:Generated_Source\PSoC5/Clock_5.c ****                 while ((CLK_DIST_LD & CYCLK_LD_LOAD) != 0u) { }
 1006              		.loc 1 268 0 is_stmt 0 discriminator 4
 1007 00a6 0A4B     		ldr	r3, .L45+12
 1008 00a8 1A70     		strb	r2, [r3]
 1009              	.L42:
 269:Generated_Source\PSoC5/Clock_5.c ****             }
 1010              		.loc 1 269 0 is_stmt 1 discriminator 1
 1011 00aa 094B     		ldr	r3, .L45+12
 1012 00ac 1B78     		ldrb	r3, [r3]	@ zero_extendqisi2
 1013 00ae 13F0010F 		tst	r3, #1
 1014 00b2 FAD1     		bne	.L42
ARM GAS  C:\Users\Luggi\AppData\Local\Temp\cc0hmrdM.s 			page 59


 1015 00b4 70BD     		pop	{r4, r5, r6, pc}
 1016              	.LVL21:
 1017              	.L40:
 274:Generated_Source\PSoC5/Clock_5.c **** 				Clock_5_CLKEN |= enabled;
 1018              		.loc 1 274 0
 1019 00b6 044B     		ldr	r3, .L45+4
 1020 00b8 1D80     		strh	r5, [r3]	@ movhi
 275:Generated_Source\PSoC5/Clock_5.c ****             }
 1021              		.loc 1 275 0
 1022 00ba 0249     		ldr	r1, .L45
 1023 00bc 0B78     		ldrb	r3, [r1]	@ zero_extendqisi2
 1024 00be 1343     		orrs	r3, r3, r2
 1025 00c0 0B70     		strb	r3, [r1]
 1026              	.LVL22:
 1027              	.L32:
 1028 00c2 70BD     		pop	{r4, r5, r6, pc}
 1029              	.L46:
 1030              		.align	2
 1031              	.L45:
 1032 00c4 A2430040 		.word	1073759138
 1033 00c8 80400040 		.word	1073758336
 1034 00cc 82400040 		.word	1073758338
 1035 00d0 01400040 		.word	1073758209
 1036 00d4 02400040 		.word	1073758210
 1037              		.cfi_endproc
 1038              	.LFE4:
 1039              		.size	Clock_5_SetDividerRegister, .-Clock_5_SetDividerRegister
 1040              		.section	.text.Clock_5_SetSourceRegister,"ax",%progbits
 1041              		.align	2
 1042              		.global	Clock_5_SetSourceRegister
 1043              		.thumb
 1044              		.thumb_func
 1045              		.type	Clock_5_SetSourceRegister, %function
 1046              	Clock_5_SetSourceRegister:
 1047              	.LFB9:
 420:Generated_Source\PSoC5/Clock_5.c ****     uint16 currDiv = Clock_5_GetDividerRegister();
 1048              		.loc 1 420 0
 1049              		.cfi_startproc
 1050              		@ args = 0, pretend = 0, frame = 0
 1051              		@ frame_needed = 0, uses_anonymous_args = 0
 1052              	.LVL23:
 1053 0000 38B5     		push	{r3, r4, r5, lr}
 1054              		.cfi_def_cfa_offset 16
 1055              		.cfi_offset 3, -16
 1056              		.cfi_offset 4, -12
 1057              		.cfi_offset 5, -8
 1058              		.cfi_offset 14, -4
 1059 0002 0446     		mov	r4, r0
 421:Generated_Source\PSoC5/Clock_5.c ****     uint8 oldSrc = Clock_5_GetSourceRegister();
 1060              		.loc 1 421 0
 1061 0004 FFF7FEFF 		bl	Clock_5_GetDividerRegister
 1062              	.LVL24:
 1063 0008 0546     		mov	r5, r0
 1064              	.LVL25:
 422:Generated_Source\PSoC5/Clock_5.c **** 
 1065              		.loc 1 422 0
 1066 000a FFF7FEFF 		bl	Clock_5_GetSourceRegister
ARM GAS  C:\Users\Luggi\AppData\Local\Temp\cc0hmrdM.s 			page 60


 1067              	.LVL26:
 424:Generated_Source\PSoC5/Clock_5.c ****         (clkSource == ((uint8)CYCLK_SRC_SEL_CLK_SYNC_D))) && (currDiv == 0u))
 1068              		.loc 1 424 0
 1069 000e 0346     		mov	r3, r0
 1070 0010 60B1     		cbz	r0, .L48
 424:Generated_Source\PSoC5/Clock_5.c ****         (clkSource == ((uint8)CYCLK_SRC_SEL_CLK_SYNC_D))) && (currDiv == 0u))
 1071              		.loc 1 424 0 is_stmt 0 discriminator 1
 1072 0012 5CB9     		cbnz	r4, .L48
 425:Generated_Source\PSoC5/Clock_5.c ****     {
 1073              		.loc 1 425 0 is_stmt 1
 1074 0014 55B9     		cbnz	r5, .L48
 429:Generated_Source\PSoC5/Clock_5.c ****         Clock_5_MOD_SRC =
 1075              		.loc 1 429 0
 1076 0016 104A     		ldr	r2, .L52
 1077 0018 1378     		ldrb	r3, [r2]	@ zero_extendqisi2
 1078 001a 43F04003 		orr	r3, r3, #64
 1079 001e 1370     		strb	r3, [r2]
 431:Generated_Source\PSoC5/Clock_5.c ****     }
 1080              		.loc 1 431 0
 1081 0020 1378     		ldrb	r3, [r2]	@ zero_extendqisi2
 430:Generated_Source\PSoC5/Clock_5.c ****             (Clock_5_MOD_SRC & (uint8)(~Clock_5_SRC_SEL_MSK)) | clkSource;
 1082              		.loc 1 430 0
 1083 0022 03F0F803 		and	r3, r3, #248
 1084 0026 1C43     		orrs	r4, r4, r3
 1085 0028 1470     		strb	r4, [r2]
 1086 002a 38BD     		pop	{r3, r4, r5, pc}
 1087              	.LVL27:
 1088              	.L48:
 433:Generated_Source\PSoC5/Clock_5.c ****             (clkSource != ((uint8)CYCLK_SRC_SEL_CLK_SYNC_D))) && (currDiv == 0u))
 1089              		.loc 1 433 0
 1090 002c 63B9     		cbnz	r3, .L50
 433:Generated_Source\PSoC5/Clock_5.c ****             (clkSource != ((uint8)CYCLK_SRC_SEL_CLK_SYNC_D))) && (currDiv == 0u))
 1091              		.loc 1 433 0 is_stmt 0 discriminator 1
 1092 002e 5CB1     		cbz	r4, .L50
 434:Generated_Source\PSoC5/Clock_5.c ****     {
 1093              		.loc 1 434 0 is_stmt 1
 1094 0030 55B9     		cbnz	r5, .L50
 439:Generated_Source\PSoC5/Clock_5.c ****         Clock_5_MOD_SRC &= (uint8)(~CYCLK_SSS);
 1095              		.loc 1 439 0
 1096 0032 094A     		ldr	r2, .L52
 1097 0034 1378     		ldrb	r3, [r2]	@ zero_extendqisi2
 438:Generated_Source\PSoC5/Clock_5.c ****             (Clock_5_MOD_SRC & (uint8)(~Clock_5_SRC_SEL_MSK)) | clkSource;
 1098              		.loc 1 438 0
 1099 0036 03F0F803 		and	r3, r3, #248
 1100 003a 1C43     		orrs	r4, r4, r3
 1101 003c 1470     		strb	r4, [r2]
 440:Generated_Source\PSoC5/Clock_5.c ****     }
 1102              		.loc 1 440 0
 1103 003e 1378     		ldrb	r3, [r2]	@ zero_extendqisi2
 1104 0040 03F0BF03 		and	r3, r3, #191
 1105 0044 1370     		strb	r3, [r2]
 1106 0046 38BD     		pop	{r3, r4, r5, pc}
 1107              	.LVL28:
 1108              	.L50:
 445:Generated_Source\PSoC5/Clock_5.c ****     }
 1109              		.loc 1 445 0
 1110 0048 034A     		ldr	r2, .L52
ARM GAS  C:\Users\Luggi\AppData\Local\Temp\cc0hmrdM.s 			page 61


 1111 004a 1378     		ldrb	r3, [r2]	@ zero_extendqisi2
 444:Generated_Source\PSoC5/Clock_5.c ****             (Clock_5_MOD_SRC & (uint8)(~Clock_5_SRC_SEL_MSK)) | clkSource;
 1112              		.loc 1 444 0
 1113 004c 03F0F803 		and	r3, r3, #248
 1114 0050 1C43     		orrs	r4, r4, r3
 1115 0052 1470     		strb	r4, [r2]
 1116 0054 38BD     		pop	{r3, r4, r5, pc}
 1117              	.LVL29:
 1118              	.L53:
 1119 0056 00BF     		.align	2
 1120              	.L52:
 1121 0058 82400040 		.word	1073758338
 1122              		.cfi_endproc
 1123              	.LFE9:
 1124              		.size	Clock_5_SetSourceRegister, .-Clock_5_SetSourceRegister
 1125              		.text
 1126              	.Letext0:
 1127              		.file 2 "Generated_Source\\PSoC5/cytypes.h"