ARM GAS  C:\Users\Luggi\AppData\Local\Temp\ccT3dMHn.s 			page 1


   1              		.syntax unified
   2              		.cpu cortex-m3
   3              		.fpu softvfp
   4              		.eabi_attribute 20, 1
   5              		.eabi_attribute 21, 1
   6              		.eabi_attribute 23, 3
   7              		.eabi_attribute 24, 1
   8              		.eabi_attribute 25, 1
   9              		.eabi_attribute 26, 1
  10              		.eabi_attribute 30, 1
  11              		.eabi_attribute 34, 1
  12              		.eabi_attribute 18, 4
  13              		.thumb
  14              		.file	"Clock_3.c"
  15              		.text
  16              	.Ltext0:
  17              		.section	.gnu.lto_.profile.304b4696,"",%progbits
  18 0000 789C6366 		.ascii	"x\234cf```c\200\000F\206\353\214+\030\001\005R\001\214"
  18      60606063 
  18      80004686 
  18      EB8C2B18 
  18      01055201 
  19              		.text
  20              		.section	.gnu.lto_.inline.304b4696,"",%progbits
  21 0000 789C6366 		.ascii	"x\234cf\300\016\272\030!47\003\003'\007#\003\023\317"
  21      C00EBA18 
  21      21343703 
  21      03270723 
  21      0313CF
  22 0013 835806B6 		.ascii	"\203X\006\266\005\362L 1FL!&\006\031m\240\220\321\234"
  22      05F24C20 
  22      31464C21 
  22      2606196D 
  22      A090D19C 
  23 0027 0E56B818 		.ascii	"\016V\270\0303\0037;#3C\306G&\306\306e\273{\330_0\375"
  23      3303373B 
  23      233343C6 
  23      4726C6C6 
  23      65BB7BD8 
  24 003e 0489332E 		.ascii	"\004\2113.g\224b`\310\204P@[X\201b`-,\013\344\005\030"
  24      67946260 
  24      C8845040 
  24      5B588162 
  24      602D2C0B 
  25 0055 D8CEC870 		.ascii	"\330\316\310p0\260-\021b\001\231\300\302\300\302\014"
  25      30B02D11 
  25      620199C0 
  25      C2C0C20C 
  26 0065 3495E902 		.ascii	"4\225\351\002?\334PV\006v6FF\220>f\266\017z\020a\240"
  26      3FDC5056 
  26      06763646 
  26      46903E66 
  26      B60F7A10 
  27 007b 3C58391B 		.ascii	"<X9\033\003\007;\272\034\320P\260\034;\003+\013\320"
  27      03073BBA 
  27      1CD050B0 
  27      1C3B032B 
ARM GAS  C:\Users\Luggi\AppData\Local\Temp\ccT3dMHn.s 			page 2


  27      0BD0
  28 008d 2820176E 		.ascii	"( \027n\024\007\246\020'\303a\006[F6T7\003\315c\\\001"
  28      1407A610 
  28      27C36106 
  28      5B463654 
  28      3703CD63 
  29 00a3 71338862 		.ascii	"q3\210b\2048\2351\003\356\003\240\235\014,9oV\260@\314"
  29      84389D31 
  29      03EE03A0 
  29      9D0C2C39 
  29      6F56B040 
  30 00b8 E198C2E5 		.ascii	"\341\230\302\345\300\300\362\202\275\001\034\204L\334"
  30      C0C0F282 
  30      BD011C84 
  30      4CDC
  31 00c6 30828B41 		.ascii	"0\202\213AU\031\024\036\030\001 \260\"\017\252\363\216"
  31      5519141E 
  31      180120B0 
  31      220FAAF3 
  31      8E
  32 00d7 AC0083D0 		.ascii	"\254\000\203\3206\240\347\205\256\010p\240\352f\000"
  32      36A0E785 
  32      AE0870A0 
  32      EA6600
  33 00e6 0066D635 		.ascii	"\000f\3265\011"
  33      09
  34              		.text
  35              		.section	.gnu.lto_.jmpfuncs.304b4696,"",%progbits
  36 0000 789C6D8A 		.ascii	"x\234m\212[\012\000 \014\303R\347\333\343x\300]]\007"
  36      5B0A0020 
  36      0CC352E7 
  36      DBE378C0 
  36      5D5D07
  37 0013 7E5A4803 		.ascii	"~ZH\003\245\306?\373y]\004\011L\222g(\341\032\325\240"
  37      A5C63FFB 
  37      795D0409 
  37      4C926728 
  37      E11AD5A0 
  38 0027 C34892B9 		.ascii	"\303H\222\271\303\214\355\336\017O\350\003\206"
  38      C38CEDDE 
  38      0F4FE803 
  38      86
  39              		.text
  40              		.section	.gnu.lto_.pureconst.304b4696,"",%progbits
  41 0000 789C6366 		.ascii	"x\234cf``\020g\200\000n\006)F)&)f)\026)V)6)v)\016)N"
  41      60601067 
  41      80006E06 
  41      29462926 
  41      29662916 
  42 001e 292E2900 		.ascii	").)\000\022T\001{"
  42      1254017B 
  43              		.text
  44              		.section	.gnu.lto_Clock_3_Start.304b4696,"",%progbits
  45 0000 789C7D91 		.ascii	"x\234}\221\315K\002a\020\207\3477\233\213\346%:v\213"
  45      CD4B0261 
  45      1087E737 
  45      9B8BE625 
ARM GAS  C:\Users\Luggi\AppData\Local\Temp\ccT3dMHn.s 			page 3


  45      3A768B
  46 0013 0EDEBA44 		.ascii	"\016\336\272D\177\201\207\256\202WA\302<\025\011Rgw"
  46      7F8187AE 
  46      825741C2 
  46      3C150952 
  46      6777
  47 0025 49E8EB22 		.ascii	"I\350\353\"\321!\012/A\237\226\246A\035\333\012\272"
  47      D1210A2F 
  47      419F96A6 
  47      411DDB0A 
  47      BA
  48 0036 04465108 		.ascii	"\004FQ\010\006uQ\250\233\222T\006a\363\356\366\001I"
  48      067551A8 
  48      9B925406 
  48      61F3EEF6 
  48      0149
  49 0048 2DBCF3BE 		.ascii	"-\274\363\276\273;\363\314\263\263\032\265_=\262\012"
  49      BB3BF3CC 
  49      B3B31AB5 
  49      5F3DB20A 
  50 0058 20EA931D 		.ascii	" \352\223\035\032\201SE\"\323\315\200:\020(\301H\340"
  50      1A815345 
  50      22D3CD80 
  50      3A1028C1 
  50      48E0
  51 006a 91EB8C94 		.ascii	"\221\353\214\224\225Y\362\372\326\014\303\250]\235\233"
  51      9559F2FA 
  51      D60CC3A8 
  51      5D9D9B
  52 0079 010B4D26 		.ascii	"\001\013M&zb\207\203\015\370H\222\352\311\367\222WO"
  52      7A628783 
  52      0DF84892 
  52      EAC9F792 
  52      574F
  53 008b 4A5297F3 		.ascii	"JR\227\363\016\233\320\205O\271n\313h\265\366s\307\327"
  53      0E9BD085 
  53      4FB96ECB 
  53      68B5F673 
  53      C7D7
  54 009d 70333559 		.ascii	"p35Y\232Ip\251\240\253@T\221t\325\264\312\254v\255\214"
  54      9A4970A9 
  54      A0AB4054 
  54      9174D5B4 
  54      CAAC76AD 
  55 00b2 93E7B9B3 		.ascii	"\223\347\271\263\003\227\"\274\260m0\177\364\346y\340"
  55      039722BC 
  55      B06D307F 
  55      F4E679E0 
  56 00c2 26F3EAB4 		.ascii	"&\363\352\264it\250~\367\225\213K\267\375\210\324m>"
  56      6974A87E 
  56      F7958B4B 
  56      B7FD88D4 
  56      6D3E
  57 00d4 3FF3EA49 		.ascii	"?\363\352Ic\305L\212\235\206-\364`\033\362\215\310 "
  57      63C54C8A 
  57      9D862DF4 
  57      601BF28D 
ARM GAS  C:\Users\Luggi\AppData\Local\Temp\ccT3dMHn.s 			page 4


  57      C820
  58 00e6 0D2A63AA 		.ascii	"\015*c\252\241;8\315!.\227\252\015M\225\203\011;\222"
  58      A13B38CD 
  58      212E97AA 
  58      0D4D9583 
  58      093B92
  59 00f9 294D17A0 		.ascii	")M\027\240R\376\203\355\012L\020d\033\026\327?\015]"
  59      52FE83ED 
  59      0A4C1064 
  59      1B16D73F 
  59      0D5D
  60 010b 529259BC 		.ascii	"R\222Y\274=\365\332:\205/\303\331\303l\255\363\207\222"
  60      3DF5DA3A 
  60      852FC3D9 
  60      C36CADF3 
  60      8792
  61 011d FDA6E47E 		.ascii	"\375\246\344~))D\233\303\237\325{\266\203Nw0\255\033"
  61      2929449B 
  61      C39FD57B 
  61      B6834E77 
  61      30AD1B
  62 0130 DB40FD86 		.ascii	"\333@\375\206\212\014Rf'\303\350\035\212\216G\343\303"
  62      8A0C5266 
  62      27C3E81D 
  62      8A8E47E3 
  62      C3
  63 0141 13D19170 		.ascii	"\023\321\221p06\031\217DC\201`\314?\030\362\217\305"
  63      3036198F 
  63      44438160 
  63      CC3F18F2 
  63      8FC5
  64 0153 22A3E181 		.ascii	"\"\243\341\201\376\010}\000\204\320\240O"
  64      FE087D00 
  64      84D0A04F 
  65              		.text
  66              		.section	.gnu.lto_Clock_3_Stop.304b4696,"",%progbits
  67 0000 789C6366 		.ascii	"x\234cf\300\004R@\274\231\221\201A\031H32302M8\307\300"
  67      C0045240 
  67      BC999181 
  67      41194833 
  67      32333032 
  68 0018 D0C8C1C4 		.ascii	"\320\310\301\304\310\010b002\32431\3263\276d\372\310"
  68      C8086230 
  68      3032D433 
  68      31D633BE 
  68      64FAC8
  69 002b C438E1C0 		.ascii	"\3048\341\300\352\031\334\352K\033\032\032>|\332(\321"
  69      EA19DCEA 
  69      4B1B1A1A 
  69      3E7CDA28 
  69      D1
  70 003c 2AF19389 		.ascii	"*\361\223\211\201\3413\023\304\030\306\345\214\352\014"
  70      81E13313 
  70      C418C6E5 
  70      8CEA0C
  71 004b 40351F5B 		.ascii	"@5\037[\376^\347fk\001\252\021\200\3101\256`d\003\032"
  71      FE5EE766 
ARM GAS  C:\Users\Luggi\AppData\Local\Temp\ccT3dMHn.s 			page 5


  71      6B01AA11 
  71      80C831AE 
  71      6064031A 
  72 005f CFB05EE8 		.ascii	"\317\260^\350@\303\377\377\233\317L\354Pg\344`b\370"
  72      40C3FFFF 
  72      9BCF4CEC 
  72      5067E460 
  72      62F8
  73 0071 C904B40C 		.ascii	"\311\004\264\014H\260\202\0106\020\301\300\360\004\250"
  73      48B08208 
  73      3610C1C0 
  73      F004A8
  74 0080 1E64E953 		.ascii	"\036d\351S&&\020\315|\213\361\320\267\256k3\303@F|g"
  74      262610CD 
  74      7C8BF1D0 
  74      B7AE6B33 
  74      C340467C 
  75 0095 02BBA07B 		.ascii	"\002\273\240{\377/\316\027L?\231\230\026\26576\260\200"
  75      FF2FCE17 
  75      4C3F9998 
  75      16B53736 
  75      B080
  76 00a7 2CBCFFE4 		.ascii	",\274\377\344\374E\016\260\020\003\210\273qc\307\017"
  76      FC450EB0 
  76      100388BB 
  76      7163C70F 
  77 00b7 CEB98CB3 		.ascii	"\316\271\214\263\033[\030\177213\256d\224b\\\305\010"
  77      1B5B187F 
  77      323133AE 
  77      6494625C 
  77      C508
  78 00c9 F423E36A 		.ascii	"\364#\343j\306\271\214\014\267\030\233\177\260A\214"
  78      C6B98C0C 
  78      B7189B7F 
  78      B0418C
  79 00d8 638698B8 		.ascii	"c\206\230\270`\317\275^\036\220v\346\277\214\014\214"
  79      60CFBD5E 
  79      1E9076E6 
  79      BF8C0C8C 
  80 00e8 6B804A81 		.ascii	"k\200J\201\266Nb\004\251\301g\332Z\240i@3\030\300N\274"
  80      B64E6204 
  80      A9C167DA 
  80      5AA06940 
  80      3318C04E 
  81 00fd 37330462 		.ascii	"73\004b&+P\313\352)\267\017s\203\335\263\011\346\304"
  81      262B50CB 
  81      EA29B70F 
  81      7383DDB3 
  81      09E6C4
  82 0110 CEEDEB3E 		.ascii	"\316\355\353>p!LY\0077e=\232\233@F`\270\001\247\356"
  82      70214C59 
  82      0737653D 
  82      9A9B4046 
  82      60B801A7 
  83 0125 0D6037B0 		.ascii	"\015`7\2601\334cl<\260\323\015\244\032\024\021O\200"
  83      31DC636C 
  83      3CB0D30D 
ARM GAS  C:\Users\Luggi\AppData\Local\Temp\ccT3dMHn.s 			page 6


  83      A41A1411 
  83      4F80
  84 0137 21090C3C 		.ascii	"!\011\014<`h(\272\247\346\245\026%\226\244\246\304\007"
  84      606828BA 
  84      A7E6A516 
  84      2596A4A6 
  84      C407
  85 0149 E7971625 		.ascii	"\347\227\026%\247\306\004\004\347;\233\3068\347\344"
  85      A7C60404 
  85      E73B9BC6 
  85      38E7E4
  86 0158 2767C71B 		.ascii	"'g\307\033\353%3\000\0009\270\240\210"
  86      EB253300 
  86      0039B8A0 
  86      88
  87              		.text
  88              		.section	.gnu.lto_Clock_3_StopBlock.304b4696,"",%progbits
  89 0000 789C8D94 		.ascii	"x\234\215\224\337O\024W\024\307\357\2713;\263\313R~"
  89      DF4F1457 
  89      14C7EFB9 
  89      333BB3CB 
  89      527E
  90 0012 141ED007 		.ascii	"\024\036\320\007\233\206F\337\360A\371\003\032\233\230"
  90      9B8646DF 
  90      F041F903 
  90      1A9B98
  91 0021 F864F445 		.ascii	"\370d\364E\023[\243\260\017\246\2444\244\372\340\203"
  91      135BA3B0 
  91      0FA6A434 
  91      A4FAE083 
  92 0031 CC2C63B5 		.ascii	"\314,c\265\210\221\037&R\225RM\252k\251\350\322\037"
  92      88911F26 
  92      5295524D 
  92      AA6BA9E8 
  92      D21F
  93 0043 14C1BAB2 		.ascii	"\024\301\272\262\302\212(\260\246b\204\004\211a\015"
  93      C28A28B0 
  93      A6628404 
  93      89610D
  94 0052 1A354B50 		.ascii	"\0325KP`\215\260=\347\336\331\001\326`\272\311\236\231"
  94      608DB03D 
  94      E7DED901 
  94      D660BAC9 
  94      9E99
  95 0064 B9F7DCCF 		.ascii	"\271\367\334\317\375\236\037\367*\354\375\337\227\370"
  95      FD9E1FF7 
  95      2AECFDDF 
  95      97F8
  96 0072 DFA23156 		.ascii	"\337\2421V\204Op3\340\265\003\214\231n\316\225\177\327"
  96      844F7033 
  96      E0B5038C 
  96      996ECE95 
  96      7FD7
  97 0084 332343EB 		.ascii	"3#C\353Z\303\214L\005T9\254r\275&\302p\334e\3518\256"
  97      5AC38C4C 
  97      055439AC 
  97      72BD26C2 
ARM GAS  C:\Users\Luggi\AppData\Local\Temp\ccT3dMHn.s 			page 7


  97      70DC65E9 
  98 009a CBF1CF5D 		.ascii	"\313\361\317]\240\311y\015\200^\030\260J\256\250\272"
  98      A0C9790D 
  98      805E18B0 
  98      4AAEA8BA 
  99 00aa 4B834AAE 		.ascii	"K\203J\256\312\215\236\361)\016\265\241\226F\357\272"
  99      CA8D9EF1 
  99      290EB5A1 
  99      9646EFBA 
 100 00ba 5F0CC388 		.ascii	"_\014\303\210ww\024\034.Hp\306\246\271t\200\213\260"
 100      7777141C 
 100      2E4870C6 
 100      A6B97480 
 100      8BB0
 101 00cc 8EA1CF94 		.ascii	"\216\241\317\2245\377\320\253Y\350\223#\347 \000\032"
 101      35FFD0AB 
 101      59E89323 
 101      E720001A 
 102 00dc E003E7CC 		.ascii	"\340\003\347\314\336#A\227\362\031\220_\377\223\271"
 102      DE234197 
 102      F219905F 
 102      FF93B9
 103 00eb E9CC499E 		.ascii	"\351\314I\236\340\220C\237\247\037\306^+\364\3119}\016"
 103      E090439F 
 103      A71FC65E 
 103      2BF4C939 
 103      7D0E
 104 00fd B75D0C40 		.ascii	"\267]\014@\3419\303\360\217?\252\252\3164\002\2065\236"
 104      E139C3F0 
 104      8F3FAAAA 
 104      CE340286 
 104      359E
 105 010f 4C7E92E0 		.ascii	"L~\222\340\012\\\002\005\271\360+\254\206\026Xm\347"
 105      0A5C0205 
 105      B9F02BAC 
 105      8616586D 
 105      E7
 106 0120 017E83C2 		.ascii	"\001~\203\302+\037\207\214dr\372i\335\344Z^\240\260"
 106      2B1F878C 
 106      6472FA69 
 106      DDE45A5E 
 106      A0B0
 107 0132 04575532 		.ascii	"\004WU2n2\0362^\341\226E\257\331dr\310\344\222\311#"
 107      6E321E32 
 107      5EE19645 
 107      AFD96472 
 107      C8E492C9 
 108 0147 934F86B1 		.ascii	"\223O\206\261\011\024\035\366\262\030\012\011{\225\021"
 108      09141DF6 
 108      B2180A09 
 108      7B9511
 109 0156 E89EA99E 		.ascii	"\350\236\251\2369\273\221\242\230\345\012%\341\330\215"
 109      39BB91A2 
 109      98E50A25 
 109      E1D88D
 110 0165 B71E52EA 		.ascii	"\267\036R\352:\177\3044TR\373xb0\352\026C\214>\203\301"
 110      3A7FC434 
ARM GAS  C:\Users\Luggi\AppData\Local\Temp\ccT3dMHn.s 			page 8


 110      5452FB78 
 110      6230EA16 
 110      438C3E83 
 111 017a A3739E26 		.ascii	"\243s\236&8cZ\220\340\032\\F\245\255\244\024\256@\023"
 111      38635A90 
 111      E01A5C46 
 111      A5ADA414 
 111      AE4013
 112 018d B011A89A 		.ascii	"\260\021\250\232\373\376\226\"\201\331\222\351D\257"
 112      FBFE9622 
 112      81D992E9 
 112      44AF
 113 019b 626457D1 		.ascii	"bdW\321\367\001X\217\252\366\332>\224\271\013\2355\272"
 113      F701588F 
 113      AAF6DA3E 
 113      94B90B9D 
 113      35BA
 114 01ad 70404CD0 		.ascii	"p@L\320\016;\306\025f\351$1\036\177\031u-O>\205*r\217"
 114      0E3BC615 
 114      66E92431 
 114      1E7F1975 
 114      2D4F3E85 
 115 01c4 0BDA40C3 		.ascii	"\013\332@\303\311\344\217F\261\020i\032\266\356\276"
 115      C9E48F46 
 115      B110691A 
 115      B6EEBE
 116 01d3 F3CF5F71 		.ascii	"\363\317_q!\324\014\255\"\251\277;R\377@\251K##\314"
 116      21D40CAD 
 116      22A9BF3B 
 116      52FF40A9 
 116      4B2323CC 
 117 01e7 9F38439B 		.ascii	"\2378C\233]}c\3526\263\336?rP0kS\314S\227\254\007\037"
 117      5D7D63EA 
 117      36B3DE3F 
 117      7250306B 
 117      53CC5397 
 118 01fe 2D65FEE5 		.ascii	"-e\376\3450\333%sp<|BT^\303`\377\266\231\361Ef\363\235"
 118      30DB2573 
 118      703C7C42 
 118      545EC360 
 118      FFB699F1 
 119 0216 683F17D0 		.ascii	"h?\027\320\223)hC]CO\326Rh\207\003\275\206\320\224\262"
 119      93296843 
 119      5D434FD6 
 119      52688703 
 119      BD86D094 
 120 022b 99EA859F 		.ascii	"\231\352\205\237\276%\312,w\343\252\261\313\035\215"
 120      BE25CA2C 
 120      77E3AAB1 
 120      CB1D8D
 121 023a 22ABAEA3 		.ascii	"\"\253\256\243)P\317\200Q\003\213\245\351t0]\251\322"
 121      2950CF80 
 121      51038BA5 
 121      E974305D 
 121      A9D2
 122 024c 6872BD47 		.ascii	"hr\275G\"\232\237-L\252Bk%\203\353r\227z\260\205\256"
 122      229A9F2D 
ARM GAS  C:\Users\Luggi\AppData\Local\Temp\ccT3dMHn.s 			page 9


 122      4CAA426B 
 122      2583EB72 
 122      977AB085 
 123 0261 08FB0747 		.ascii	"\010\373\007G\021!%\0154\357\220H/.i}2tM\324Q\267\314"
 123      1121250D 
 123      34EF9048 
 123      2F2E697D 
 123      32744DD4 
 124 0278 F4E6D145 		.ascii	"\364\346\321E\363<\036\355>\226m\207Z\224\340n\270\201"
 124      F33C1EED 
 124      3E966D87 
 124      5A94E06E 
 124      B881
 125 028a D890C0DE 		.ascii	"\330\220\300\336$\215\303\3407v\022\220\012\214P\241"
 125      248DC3E0 
 125      37761290 
 125      0A8C50A1 
 126 029a 28385FA7 		.ascii	"(8_\247\330\242\314\251\306N\221=\217\337H\337\301#"
 126      D8A2CCA9 
 126      C64E913D 
 126      8FDF48DF 
 126      C123
 127 02ac 76889F8B 		.ascii	"v\210\237\213nK\251\316\200n\304\207\005\376\226P\355"
 127      6E4BA9CE 
 127      806EC487 
 127      05FE9650 
 127      ED
 128 02bd 95E5988F 		.ascii	"\225\345\230\217\272l\340\007\232\244G\026t\366]\344"
 128      BA6CE007 
 128      9AA44716 
 128      74F65DE4 
 129 02cd 70B64892 		.ascii	"p\266H\222\316\240W4g\014\033\025\257\022\373\3704o"
 129      CEA05734 
 129      670C1B15 
 129      AF12FBF8 
 129      346F
 130 02df 9319C85A 		.ascii	"\223\031\310Z\206\203\345\260\210s8^(\322]\225+\"M\223"
 130      8683E5B0 
 130      8873385E 
 130      28D25D95 
 130      2B224D93 
 131 02f3 6DA2062A 		.ascii	"m\242\006*0\270\235:\034\207l\037\3474L`\002\361v\203"
 131      30B89D3A 
 131      1C876C1F 
 131      E7344C60 
 131      02F17683 
 132 0307 189E4279 		.ascii	"\030\236By*f\252\207\003_I\267\234\017\035\313\276\264"
 132      2A66AA87 
 132      035F49B7 
 132      9C0F1DCB 
 132      BEB4
 133 0319 DAE74AFF 		.ascii	"\332\347J\377\237\273\306\216\313>\235\307\215\357\244"
 133      9FBBC68E 
 133      CB3E9DC7 
 133      8DEFA4
 134 0328 157F455A 		.ascii	"\025\177EZ\277Hc\256,\376X\240B2\363pI\313\311\321\260"
 134      BF4863AE 
ARM GAS  C:\Users\Luggi\AppData\Local\Temp\ccT3dMHn.s 			page 10


 134      2CFE58A0 
 134      4232F370 
 134      49CBC9D1 
 135 033d 57F4635B 		.ascii	"W\364c[\352\346\370\241\2755\236\261H\271\353P\356\245"
 135      EAE6F8A1 
 135      BD359EB1 
 135      48B9EB50 
 135      EEA5
 136 034f 69CA47C4 		.ascii	"i\312G\304{\032V\\= 4\344\313RF\356\377\217R\016.9F"
 136      7B1A565C 
 136      3D2034E4 
 136      CB5246EE 
 136      FF8F520E 
 137 0366 F57577B9 		.ascii	"\365uw\271\275\302\351W\317b\277:\015*\372g\310\351"
 137      BDC2E957 
 137      CF62BF3A 
 137      0D2AFA67 
 137      C8E9
 138 0378 9FA8DD3F 		.ascii	"\237\250\335?T}\215\356\31610C\355[\344\035D\365\001"
 138      547D8DEE 
 138      CE313043 
 138      ED5BE41D 
 138      44F501
 139 038b 1CC4CBF5 		.ascii	"\034\304\313\365\323\315\276o|\025{\276\363\225\356"
 139      D3CDBE6F 
 139      7C157BBE 
 139      F395EE
 140 039a DE5EBEBF 		.ascii	"\336^\276\277\242\304\267k\353\366\362M\305\2736\225"
 140      A2C4B76B 
 140      EBF6F24D 
 140      C5BB3695 
 141 03aa 95977CBD 		.ascii	"\225\227|\275{CQ\011\313(/+\375b\337\201}\245\276\212"
 141      7B435109 
 141      CB282F2B 
 141      FD62DF81 
 141      7DA5BE8A 
 142 03be FF006D3C 		.ascii	"\377\000m<L\247"
 142      4CA7
 143              		.text
 144              		.section	.gnu.lto_Clock_3_StandbyPower.304b4696,"",%progbits
 145 0000 789C8D91 		.ascii	"x\234\215\221OH\033A\024\306\33773\233,I\016\245'\311"
 145      4F481B41 
 145      14C6DF37 
 145      339B2C49 
 145      0EA527C9 
 146 0014 21203404 		.ascii	"! 4\004\301\352Az,\024<\364\340E\310U\220\222\346Ti"
 146      C1EA417A 
 146      2C143CF4 
 146      E045C855 
 146      9092E654 
 147 0029 20B56767 		.ascii	" \265ggu\245\264X\020\261P\024i\241\177\254&MZ=Hi(\241"
 147      75A5B458 
 147      10B15014 
 147      69A17FAC 
 147      264D5A3D 
 148 0041 3DF562A9 		.ascii	"=\365b\251(\021\245zI@{2Tl=\204\364\315\216=\011\322"
 148      2811A57A 
ARM GAS  C:\Users\Luggi\AppData\Local\Temp\ccT3dMHn.s 			page 11


 148      49407B32 
 148      546C3D84 
 148      F4CD8E3D 
 149 0057 859937F3 		.ascii	"\205\2317\363\366{\277\371\346\215\244\363\337u\036"
 149      F67BBFF9 
 149      E68DA4F3 
 149      DF751E
 150 0066 57055117 		.ascii	"W\005Q\027G\204\010bz\235\310s\205\220\225\004\351\210"
 150      47840862 
 150      7A9DC873 
 150      85909504 
 150      E988
 151 0078 DAEC251D 		.ascii	"\332\354%\035\223plZ\375[8\200Y\020hLH\345`\014\207"
 151      93706C5A 
 151      FD5B3880 
 151      5910684C 
 151      48E5600C 
 152 008d A229305D 		.ascii	"\242)0]-<\215\246^i\255\2176j\035\223\035\247L\376%"
 152      2D3C8DA6 
 152      5E69AD8F 
 152      366A1D93 
 152      1DA74CFE 
 153 00a2 EC495844 		.ascii	"\354IXD\212%\376\313\223\226\222W@\274\376\360\343S"
 153      8A25FECB 
 153      93969257 
 153      40BCFEF0 
 153      E353
 154 00b4 33967CA1 		.ascii	"3\226|\241\365x\365kI\337\300\251\000\336@r\005\272"
 154      F578F56B 
 154      49DFC0A9 
 154      00DE4072 
 154      05BA
 155 00c6 E3E88A13 		.ascii	"\343\350\212\023'\010KH\032q\323o\325\242!\237\331\227"
 155      27084B48 
 155      1A71D36F 
 155      D5A2219F 
 155      D997
 156 00d8 2C13CB08 		.ascii	",\023\313\010\201c\371rU\267\333\253\3733\007}\"\302"
 156      8163F972 
 156      55B7DBAB 
 156      FB33077D 
 156      22C2
 157 00ea 04D62BAE 		.ascii	"\004\326+\256\024\216\231\302fr\315DT\347a\\7x\303Q"
 157      148E99C2 
 157      6672CD44 
 157      54E7615C 
 157      3778C351 
 158 00fe 6EC1DF9E 		.ascii	"n\301\337\236h?\011\033\320oa\374{\257?N\205\017D\240"
 158      683F091B 
 158      D06F61FC 
 158      7BAF3F4E 
 158      850F44A0 
 159 0112 4601F1C0 		.ascii	"F\001\361\300xCH\252$\344\016>\237<Z/\346\255Z\261\272"
 159      784348AA 
 159      24E40E3E 
 159      9F3C5A2F 
 159      E6AD5AB1 
ARM GAS  C:\Users\Luggi\AppData\Local\Temp\ccT3dMHn.s 			page 12


 160 0127 30BBFB25 		.ascii	"0\273\373%j\324r\345\201\247\2251\271_\377\366\335\015"
 160      6AD472E5 
 160      81A79531 
 160      B95FFFF6 
 160      DD0D
 161 0139 5264B60F 		.ascii	"Rd\266\017\327JG\221\005\314{>\337M\241\2108\336\032"
 161      D74A4791 
 161      05CC7B3E 
 161      DF4DA188 
 161      38DE1A
 162 014c 2A4A5800 		.ascii	"*JX\000\355`\342O\310\342\034K|^\331{\0343\345\252\305"
 162      ED60E24F 
 162      C8E21C4B 
 162      7C5ED97B 
 162      1C33E5AA 
 163 0161 172FB394 		.ascii	"\027/\263\224O\235\201\321\\D{\3074f\004^\025m\366Z"
 163      4F9D81D1 
 163      5C447BC7 
 163      3466045E 
 163      156DF65A 
 164 0175 AF3FBB2D 		.ascii	"\257?\273-;|Q\351\3733#\307gF\\\253\237\2535\216e\320"
 164      3B7C51E9 
 164      FB3323C7 
 164      67465CAB 
 164      9FAB358E 
 165 018b 087E8B95 		.ascii	"\010~\213\225\377\365\261\032\370p\003\037N\320\342"
 165      FFF5B11A 
 165      F870031F 
 165      4ED0E2
 166 019a 3D78D567 		.ascii	"=x\325g\003\246\316t\262\316\317\311Ynn\347\315\354"
 166      03A6CE74 
 166      B2CECFC9 
 166      596E6EE7 
 166      CDEC
 167 01ac DD6CFED6 		.ascii	"\335l\376\326h\366\366p:w?\237\311\016\015\246s\375"
 167      68F6F670 
 167      3A773F9F 
 167      C90E0DA6 
 167      73FD
 168 01be D786FA47 		.ascii	"\327\206\372Gr\231;\303}=\031r\356\215\362\357\277\016"
 168      72993BC3 
 168      7D3D1972 
 168      EE8DF2EF 
 168      BF0E
 169 01d0 E1CD5B   		.ascii	"\341\315["
 170              		.text
 171              		.section	.gnu.lto_Clock_3_GetDividerRegister.304b4696,"",%progbits
 172 0000 789C6366 		.ascii	"x\234cf\300\004R@\374\003\210\225\201\230\221\231\201"
 172      C0045240 
 172      FC038895 
 172      81989199 
 172      81
 173 0011 9169C239 		.ascii	"\221i\3029\006\206F\016&FF\020\203\201\221\241\236\211"
 173      0686460E 
 173      26464610 
 173      838191A1 
 173      9E89
ARM GAS  C:\Users\Luggi\AppData\Local\Temp\ccT3dMHn.s 			page 13


 174 0023 B19EF125 		.ascii	"\261\236\361%\323G&\306\323\217~|\346y\301\364\223\211"
 174      D34726C6 
 174      D38F7E7C 
 174      E679C1F4 
 174      9389
 175 0035 418001C8 		.ascii	"A\200\001\310\235u\375\351\027f\020\227\221\011\304"
 175      9D75FDE9 
 175      17661097 
 175      9109C4
 176 0044 DDFDF9DC 		.ascii	"\335\375\371\334#6\365\245\015\015M\037&\315N\2341e"
 176      2336F5A5 
 176      0D0D4D1F 
 176      26CD4E9C 
 176      3165
 177 0056 01E34F26 		.ascii	"\001\343O&&\206\317L\014\214\313\031\245\030W0\202,"
 177      2686CF4C 
 177      0C8CCB19 
 177      A5185730 
 177      822C
 178 0068 625CC9A8 		.ascii	"b\\\311\250\016R\373\261\345\357un\266\226\206\206\006"
 178      0E52FBB1 
 178      E5EF756E 
 178      B6968686 
 178      06
 179 0079 01900AA0 		.ascii	"\001\220\012\240\304*F6F \275^\350@\303\377\377\233"
 179      C42A4636 
 179      4620BD5E 
 179      E840C3FF 
 179      FF9B
 180 008b DF4EE930 		.ascii	"\337N\3510gafb\000\231\300\360\004\210Any\012\344\000"
 180      67616662 
 180      0099C0F0 
 180      0488416E 
 180      790AE400 
 181 009f 69E65B8C 		.ascii	"i\346[\214\207\276u\335;\313\005\322\363\235\011\344"
 181      87BE75DD 
 181      3BCB05D2 
 181      F39D09E4 
 182 00af B0758F2E 		.ascii	"\260u\217.\354b\007\271\204\271\245\261\261\201\005"
 182      EC6207B9 
 182      84B9A5B1 
 182      B18105
 183 00be 64C3FD27 		.ascii	"d\303\375'\347/r\200\205\030\300\334\333\207\272\371"
 183      E72F7280 
 183      8518C0DC 
 183      DB87BAF9 
 184 00ce E732CE6E 		.ascii	"\3472\316nli< \363\223\211\205q5\320Mk@nb\\\3138\227"
 184      6C693C20 
 184      F3938985 
 184      7135D04D 
 184      6B406E62 
 185 00e6 91E11E63 		.ascii	"\221\341\036cc\0037\324@\006\220\225\214 \253\200LE"
 185      630337D4 
 185      40069095 
 185      8C20AB80 
 185      4C45
 186 00f8 F7D4BCD4 		.ascii	"\367\324\274\324\242\304\222\324\224\370\340\374\322"
ARM GAS  C:\Users\Luggi\AppData\Local\Temp\ccT3dMHn.s 			page 14


 186      A2C492D4 
 186      94F8E0FC 
 186      D2
 187 0105 A2E4D498 		.ascii	"\242\344\324\230\200\340|g\323\030\347\234\374\344\354"
 187      80E07C67 
 187      D318E79C 
 187      FCE4EC
 188 0114 7863BD64 		.ascii	"xc\275d\006\000\2568h\366"
 188      0600AE38 
 188      68F6
 189              		.text
 190              		.section	.gnu.lto_Clock_3_SetModeRegister.304b4696,"",%progbits
 191 0000 789C7D91 		.ascii	"x\234}\221\317+DQ\024\307\317\367\336\2317\303ld\305"
 191      CF2B4451 
 191      14C7CFF7 
 191      DE9937C3 
 191      6C64C5
 192 0013 EC946952 		.ascii	"\354\224iRb!{\261\260Rj\312BJ\032o\241\301\324`=\357"
 192      62217BB1 
 192      B0526ACA 
 192      424A1A6F 
 192      A1C1D460 
 193 0029 312C9442 		.ascii	"1,\224B)\245\331\220\337\214\205?\300k66\323HM\311,"
 193      29A5D990 
 193      DF8C853F 
 193      C06B3636 
 193      D3484DC9 
 194 003e C666D450 		.ascii	"\306f\324P\212\010\2434\3161\026J\271u\357=\337s\277"
 194      8A08A334 
 194      CE31164A 
 194      B975EF3D 
 194      DF73BF
 195 0051 E7D379E7 		.ascii	"\347\323y\347i\372\273\374\274\035\020\265\363\015M"
 195      69FABBFC 
 195      BC1D10B5 
 195      F30D4D
 196 0060 50CB5922 		.ascii	"P\313Y\"\333\253\000\011\010\024W\210\343N=),;\207\353"
 196      DBAB0009 
 196      08145788 
 196      E34E3D29 
 196      2C3B87EB 
 197 0074 BEE0B665 		.ascii	"\276\340\266eY\217\351\323\306\371\206\262\"zVU\014"
 197      598FE9D3 
 197      C6F986B2 
 197      227A5655 
 197      0C
 198 0085 7611644B 		.ascii	"v\021dKfg\345\301\320\315 \216\317\347\262\005O`\313"
 198      6667E5C1 
 198      D0CD208E 
 198      CFE7B205 
 198      4F60CB
 199 0098 B2669D4C 		.ascii	"\262f\235L\312\352B\231\231{\320\\\201V?Z\374\304\011"
 199      CAEA4299 
 199      997BD05C 
 199      81563F5A 
 199      FCC409
 200 00ab C23E0262 		.ascii	"\302>\002b~J|^\371\214\004\263\353\252L\034\300\340"
ARM GAS  C:\Users\Luggi\AppData\Local\Temp\ccT3dMHn.s 			page 15


 200      7E4A7C5E 
 200      F98C04B3 
 200      EBAA4C1C 
 200      C0E0
 201 00bd B6E8A4DE 		.ascii	"\266\350\244\336\261*\225\347\354Z)\350\256U\\\2434"
 201      B12A95E7 
 201      EC5A29E8 
 201      AE555CA3 
 201      34
 202 00ce 1FDA05A9 		.ascii	"\037\332\005\251tKh\310\341\221\303+\317DE\336\322\374"
 202      744B68C8 
 202      E191C32B 
 202      CF4445DE 
 202      D2FC
 203 00e0 2D0BBE75 		.ascii	"-\013\276u\036\351\327\305\327\353AA\276)\371\222d1"
 203      1EE9D7C5 
 203      D7EB4141 
 203      BE29F992 
 203      6431
 204 00f2 B7649454 		.ascii	"\267d\224TY\271\026l\333rI\0037\305\213K\357w\212D\246"
 204      59B9166C 
 204      DB724903 
 204      37C58B4B 
 204      EF778A44 
 205 0107 36D3F124 		.ascii	"6\323\361$6\354\004\267\355\306!\3748\002\217\012\307"
 205      36EC04B7 
 205      EDC621FC 
 205      38028F0A 
 205      C7
 206 0118 4882F298 		.ascii	"H\202\362\230-x\2524\315\300\337\332\375\306\200<\346"
 206      2D78AA34 
 206      CDC0DFDA 
 206      FDC6803C 
 206      E6
 207 0129 DE8DAA96 		.ascii	"\336\215\252\226\024\343\356\235\217\\\215\320\365{"
 207      14E3EE9D 
 207      8F5C8DD0 
 207      F57B
 208 0137 E567F154 		.ascii	"\345g\361TS\214d\357\313\217\327\363\2153~\343\274\234"
 208      538C64EF 
 208      CB8FD7F3 
 208      8D337EE3 
 208      BC9C
 209 0149 659D5E85 		.ascii	"e\235^\205\350\177\372:\341\276\330N\005\330\316\331"
 209      E87FFA3A 
 209      E1BED84E 
 209      05D8CED9 
 210 0159 8098E5AF 		.ascii	"\200\230\345\257\024y\302<\001\236GS\2579i\306F\246"
 210      1479C23C 
 210      019E4753 
 210      AF3969C6 
 210      46A6
 211 016b CDD1E150 		.ascii	"\315\321\341Pt&\0266\207\372C\321\236\316\241\236\361"
 211      74261636 
 211      87FA43D1 
 211      9ECEA19E 
 211      F1
ARM GAS  C:\Users\Luggi\AppData\Local\Temp\ccT3dMHn.s 			page 16


 212 017c 683832DC 		.ascii	"h82\334\321\026&\337Dt\324\354\036\233\356\033\231\212"
 212      D11626DF 
 212      4474D4EC 
 212      1E9BEE1B 
 212      998A
 213 018e 7C0156F0 		.ascii	"|\001V\360\2544"
 213      AC34
 214              		.text
 215              		.section	.gnu.lto_Clock_3_ClearModeRegister.304b4696,"",%progbits
 216 0000 789C7D50 		.ascii	"x\234}P=HBQ\030\375\316}\372\024\\\242\251\334\202B"
 216      3D484251 
 216      18FDCE7D 
 216      FA145CA2 
 216      A9DC8242 
 217 0014 82A8215A 		.ascii	"\202\250!Z\232\242\206\246 p\010B\010\3217\204\325\203"
 217      9AA286A6 
 217      20700842 
 217      08D13784 
 217      D583
 218 0026 7E66DF4B 		.ascii	"~f\337Ks\010\002\015\202 \\\222~-\035\032[\036\022\324"
 218      7308020D 
 218      82205C92 
 218      7E2D1D1A 
 218      5B1E12D4 
 219 003a 10465004 		.ascii	"\020FP\004\016\326`PT\320\217d\006Q\337\355\215A\027"
 219      0ED66050 
 219      54D08F64 
 219      0651DFED 
 219      8D4117
 220 004d EEBDDF3D 		.ascii	"\356\275\337=\234s\276s?\205\376./\357\024\210\272\370"
 220      9C73BE73 
 220      3F85FE2E 
 220      2FEF1488 
 220      BAF8
 221 005f 864210C9 		.ascii	"\206B\020\311\"\221\351\026\200,\010\024\025\210\342"
 221      2291E916 
 221      802C0814 
 221      1588E2
 222 006e 5EBC0824 		.ascii	"^\274\010$\255\354\252\307\267a\030\306\363\353a\363"
 222      ADECAAC7 
 222      B76118C6 
 222      F3EB61F3 
 223 007e 42535D10 		.ascii	"BS]\020\275\011\333\006[\3601\345t3\365\244*\255 \256"
 223      BD09DB06 
 223      5BF031E5 
 223      7433F5A4 
 223      2AAD20AE 
 224 0092 8F63C5B2 		.ascii	"\217c\305\262\253-c\030\363V1g\364\241\316\236\333P"
 224      AB2D6318 
 224      F3563167 
 224      F4A1CE9E 
 224      DB50
 225 00a4 58810E2F 		.ascii	"X\201\016/\332\275\304\000a\007m\222\374\022\377\272"
 225      DABDC400 
 225      61076D92 
 225      FC12FFBA 
 226 00b4 F2A871F6 		.ascii	"\362\250q\366n\260=\261\013\225cQ\276\3212\276\277\017"
ARM GAS  C:\Users\Luggi\AppData\Local\Temp\ccT3dMHn.s 			page 17


 226      6EB03DB1 
 226      0B956351 
 226      BED132BE 
 226      BF0F
 227 00c6 AA2B27BD 		.ascii	"\252+'\275N\267`\215P E\016Y:\345\241\312\203\250\302"
 227      4EB7608D 
 227      5020450E 
 227      593AE5A1 
 227      CA83A8C2 
 228 00da 5B46BEE5 		.ascii	"[F\276\345\007\337J\011\205\367\305byT\032\325\204\314"
 228      07DF4A09 
 228      85F7C562 
 228      79541AD5 
 228      84CC
 229 00ec 9FAE5C2C 		.ascii	"\237\256\\,\251w\242.\224\204i\032\016\331\366\272r"
 229      A977A22E 
 229      9484691A 
 229      0ED9F6BA 
 229      72
 230 00fd 76EEFE85 		.ascii	"v\356\376\205H>s\353\205h\032kf\234\303:\220\205\027"
 230      483E73EB 
 230      85681A6B 
 230      669CC33A 
 230      908517
 231 0110 7BE00161 		.ascii	"{\340\001a\037iP\011\363\237\211#\305\366s\324XRB\254"
 231      1F695009 
 231      F39F8923 
 231      C5F673D4 
 231      585242AC 
 232 0124 9A781436 		.ascii	"\232x\0246\342d\220-j\231\233\007HG\341\"\344X\315\244"
 232      E264902D 
 232      6A999B07 
 232      4847E122 
 232      E458CDA4 
 233 0138 0FD5A6C8 		.ascii	"\017\325\246\310\034Ld\250\260\014\011\375\3232\317"
 233      1C4C64A8 
 233      B00C09FD 
 233      D332CF
 234 0147 2D594165 		.ascii	"-YAe\230\326\345\210$\3131Wxd\3749\376j\313\2406\245"
 234      98D6E588 
 234      24CB3157 
 234      7864FC39 
 234      FE6ACBA0 
 235 015d 4D0767B5 		.ascii	"M\007g\265\360\230_\237\233\016i\201a\277>\320\023\030"
 235      F0985F9F 
 235      9B0E6981 
 235      61BF3ED0 
 235      1318
 236 016f 98D04391 		.ascii	"\230\320C\221\261\356\316\020y&\365\260\326?>;\024\234"
 236      B1EECE10 
 236      7926F5B0 
 236      D63F3E3B 
 236      149C
 237 0181 89FC0045 		.ascii	"\211\374\000Ea\231["
 237      61995B
 238              		.text
 239              		.section	.gnu.lto_Clock_3_GetModeRegister.304b4696,"",%progbits
ARM GAS  C:\Users\Luggi\AppData\Local\Temp\ccT3dMHn.s 			page 18


 240 0000 789C6366 		.ascii	"x\234cf\300\004R@\374\007\210\225\201\230\221\231\201"
 240      C0045240 
 240      FC078895 
 240      81989199 
 240      81
 241 0011 9169C239 		.ascii	"\221i\3029\006\206F\016&FF\020\203\201\221\241\236\211"
 241      0686460E 
 241      26464610 
 241      838191A1 
 241      9E89
 242 0023 B19EF125 		.ascii	"\261\236\361%\323G&\3063;\377]fT_\332\320\320\364\341"
 242      D34726C6 
 242      333BFF5D 
 242      66545FDA 
 242      D0D0F4E1 
 243 0037 D0C5BBDC 		.ascii	"\320\305\273\334\255\022?\231\030\030>310\352H1j\202"
 243      AD123F99 
 243      18183E33 
 243      3130EA48 
 243      316A82
 244 004a CC615CCE 		.ascii	"\314a\\\316\250\316\000T\370\261\345\357un\266\226\206"
 244      A8CE0054 
 244      F8B1E5EF 
 244      756EB696 
 244      86
 245 005b 86060190 		.ascii	"\206\006\001\220<Pb\005#\033#\220^/t\240\341\377\377"
 245      3C506205 
 245      231B2390 
 245      5E2F74A0 
 245      E1FFFF
 246 006e CFC7A6BD 		.ascii	"\317\307\246\275Pfcab\370\311\004\264\021d\010\303\023"
 246      50666361 
 246      62F8C904 
 246      B4116408 
 246      C313
 247 0080 2001B2EF 		.ascii	" \001\262\357)\023\023\210f\276\305x\350[\327\267\027"
 247      29131388 
 247      66BEC578 
 247      E85BD7B7 
 247      17
 248 0091 16208DDF 		.ascii	"\026 \215\337\231@\226\317}r\245\227\355\005\323O&\246"
 248      994096CF 
 248      7D72A597 
 248      ED05D34F 
 248      26A6
 249 00a3 B6C6C606 		.ascii	"\266\306\306\006\026\2205\367\237\234\277\310\001\026"
 249      169035F7 
 249      9F9CBFC8 
 249      0116
 250 00b1 620071D7 		.ascii	"b\000q\327-:T?\227qvc\013\343O&f\306\225\214R\214\253"
 250      2D3A543F 
 250      97717663 
 250      0BE34F26 
 250      66C6958C 
 251 00c8 1881AE62 		.ascii	"\030\201\256b\\\3158\227\221\341\026c\363\2176\035\210"
 251      5CCD3897 
 251      91E11663 
ARM GAS  C:\Users\Luggi\AppData\Local\Temp\ccT3dMHn.s 			page 19


 251      F38F361D 
 251      88
 252 00d9 71CC1013 		.ascii	"q\314\020\023\337=\376\323\014\326\316\360\203\221\201"
 252      DF3DFED3 
 252      0CD6CEF0 
 252      839181
 253 00e8 710D50ED 		.ascii	"q\015P\355=FF\250\012\260\223\030AN\001\232\255\350"
 253      3D4646A8 
 253      0AB09318 
 253      414E019A 
 253      ADE8
 254 00fa 9E9A975A 		.ascii	"\236\232\227Z\224X\222\232\022\037\234_Z\224\234\032"
 254      9458929A 
 254      121F9C5F 
 254      5A949C1A 
 255 010a 13109CEF 		.ascii	"\023\020\234\357l\032\343\234\223\237\234\035o\254\227"
 255      6C1AE39C 
 255      939F9C1D 
 255      6FAC97
 256 0119 CC00006E 		.ascii	"\314\000\000n\321g,"
 256      D1672C
 257              		.text
 258              		.section	.gnu.lto_Clock_3_GetSourceRegister.304b4696,"",%progbits
 259 0000 789C6366 		.ascii	"x\234cf\300\004R@\374\033\210\225\201\230\221\231\201"
 259      C0045240 
 259      FC1B8895 
 259      81989199 
 259      81
 260 0011 9169C239 		.ascii	"\221i\3029\006\206F\016&FF\020\203\201\221\241\236\211"
 260      0686460E 
 260      26464610 
 260      838191A1 
 260      9E89
 261 0023 B19EF125 		.ascii	"\261\236\361%\323G&\3063;\377]fT_\332\320\320\364\241"
 261      D34726C6 
 261      333BFF5D 
 261      66545FDA 
 261      D0D0F4A1 
 262 0037 E9EB5DEE 		.ascii	"\351\353]\356V\211\237L\014\014\237\231\030\030u\244"
 262      56899F4C 
 262      0C0C9F99 
 262      181875A4 
 263 0047 183541E6 		.ascii	"\0305A\3460.gTg\000*\374\330\362\367:7[KCC\203\000H"
 263      302E6754 
 263      67002AFC 
 263      D8F2F73A 
 263      375B4B43 
 264 005f 1E28B182 		.ascii	"\036(\261\202\221\215\021H\257\027:\320\360\377\377"
 264      918D1148 
 264      AF173AD0 
 264      F0FFFF
 265 006e E72BD35F 		.ascii	"\347+\323_h\261\26301\374d\002\332\0102\204\341\011"
 265      68B1B330 
 265      31FC6402 
 265      DA083284 
 265      E109
 266 0080 9000D9F7 		.ascii	"\220\000\331\367\224\211\011D3\337b<\364\255\353\332"
ARM GAS  C:\Users\Luggi\AppData\Local\Temp\ccT3dMHn.s 			page 20


 266      94890944 
 266      33DF623C 
 266      F4ADEBDA 
 267 0090 2F0B90C6 		.ascii	"/\013\220\306\357L \313\347>\271\322\313\366\202\351"
 267      EF4C20CB 
 267      E73EB9D2 
 267      CBF682E9 
 268 00a0 2713535B 		.ascii	"'\023S[cc\003\013\310\232\373O\316_\344\000\0131\200"
 268      6363030B 
 268      C89AFB4F 
 268      CE5FE400 
 268      0B3180
 269 00b3 B8EB161D 		.ascii	"\270\353\026\035\252\237\3138\273\261\205\361'\0233"
 269      AA9FCB38 
 269      BBB185F1 
 269      271333
 270 00c2 E34A4629 		.ascii	"\343JF)\306U\214@W1\256f\234\313\310p\213\261\371G\233"
 270      C6558C40 
 270      5731AE66 
 270      9CCBC870 
 270      8BB1F947 
 271 00d7 0EC43866 		.ascii	"\016\3048f\210\211\337\377\034o\345\007ig`g`\\\003T"
 271      8889DFFF 
 271      1C6FE507 
 271      69676067 
 271      605C0354 
 272 00eb 7A8F9111 		.ascii	"z\217\221\021\252\000\354\"F\220K\200F+\272\247\346"
 272      AA00EC22 
 272      46904B80 
 272      462BBAA7 
 272      E6
 273 00fc A5162596 		.ascii	"\245\026%\226\244\246\304\007\347\227\026%\247\306\004"
 273      A4A6C407 
 273      E7971625 
 273      A7C604
 274 010b 04E73B9B 		.ascii	"\004\347;\233\3068\347\344'g\307\033\353%3\000\000\304"
 274      C638E7E4 
 274      2767C71B 
 274      EB253300 
 274      00C4
 275 011d 28661C   		.ascii	"(f\034"
 276              		.text
 277              		.section	.gnu.lto_Clock_3_SetDividerRegister.304b4696,"",%progbits
 278 0000 789C8D56 		.ascii	"x\234\215V[LTG\030\236\177\316\236\275\357\002\3135"
 278      5B4C5447 
 278      189E7FCE 
 278      9EBDEF02 
 278      CB35
 279 0012 6844A284 		.ascii	"hD\242\204b\245}hl\2236m56\361\265\325\246O\246\306"
 279      62A57D68 
 279      6C93366D 
 279      3536F1B5 
 279      D5A64FA6 
 280 0027 020F4622 		.ascii	"\002\017F\"\311V\373`b8\353\256B\020\025\001\221Z\021"
 280      C956FB60 
 280      6238EBAE 
 280      42101501 
ARM GAS  C:\Users\Luggi\AppData\Local\Temp\ccT3dMHn.s 			page 21


 280      915A11
 281 003a 052F5815 		.ascii	"\005/X\025\004[\253ha\213\002\242\210\"w\264\013R\226"
 281      045BAB68 
 281      618B02A2 
 281      882277B4 
 281      0B5296
 282 004d 8B690814 		.ascii	"\213i\010\024\313\305\252t.\347\234]\260P7a83\363\177"
 282      CBC5AA74 
 282      2EE79C5D 
 282      B0503761 
 282      3833F37F 
 283 0061 DFFCF3FD 		.ascii	"\337\374\363\375\337\3149\002z\375\367> 4dB\350\013"
 283      DFCC3902 
 283      7AFDF73E 
 283      20346442 
 283      E80B
 284 0073 F20C1108 		.ascii	"\362\014\021\010pV\023B\016=\306B\303'H2\206\326\007"
 284      70561342 
 284      0E3DC642 
 284      C3274832 
 284      86D607
 285 0086 20C92C60 		.ascii	" \311,`Mz,\351\031hk\326`-\353\211\254'\312=>\247\305"
 285      4D7A2CE9 
 285      19686BD6 
 285      602DEB89 
 285      AC27CA3D 
 286 009d 3AD6D3B3 		.ascii	":\326\323\263\236\016B9\235^y0`#\233\017`\363Flf=\023"
 286      9E0E4239 
 286      9D5E7930 
 286      60239B0F 
 286      60F3466C 
 287 00b4 EB99E41E 		.ascii	"\353\231\344\036\2373\203\205C,8<\263\036\221q\253K"
 287      9F338385 
 287      432C383C 
 287      B31E9171 
 287      AB4B
 288 00c6 47C6C3F9 		.ascii	"G\306\303\371\370\032+\004\360\371\000\034\310`!\014"
 288      F81A2B04 
 288      F0F9001C 
 288      C860210C 
 289 00d6 16886DAC 		.ascii	"\026\210m\254\027\304zA`\343A6\010\346\017\3018\214"
 289      17C47A41 
 289      60E34136 
 289      08E60FC1 
 289      388C
 290 00e8 B38532B6 		.ascii	"\263\2052\2660>\276&DI0\024\200> @\251X\320\210Z\235"
 290      303EBE26 
 290      44493014 
 290      803E2040 
 290      A958D088 
 291 00fe DE603499 		.ascii	"\336`4\231-\341\326\200\300 [pXH(\244\012\026.]0\377"
 291      2DE1D680 
 291      C0205B70 
 291      584828A4 
 291      0A162E5D 
 292 0114 378CC730 		.ascii	"7\214\3070d\271\317\347\233bOK\2224\232=\026\261'b\032"
 292      64B9CFE7 
ARM GAS  C:\Users\Luggi\AppData\Local\Temp\ccT3dMHn.s 			page 22


 292      9B624F4B 
 292      92349A3D 
 292      16B12762 
 293 0129 23348E79 		.ascii	"#4\216y\000\234\205X\02225\320}\304 ,\007D\236\357\366"
 293      009C8558 
 293      123235D0 
 293      7DC4202C 
 293      07449EEF 
 294 013e 4D8D9B87 		.ascii	"M\215\233\207\3604\206@\332=\332\341}&\320.\306\264"
 294      F0348640 
 294      DA3DDAE1 
 294      7D26D02E 
 294      C6B4
 295 0150 7BB8A4E5 		.ascii	"{\270\244\345\011\216)\226\244\335\356\316K\322j2.@"
 295      098E2996 
 295      A4DDEECE 
 295      4BD26A32 
 295      2E40
 296 0162 0908840F 		.ascii	"\011\010\204\017\316A$\374\010\221\210\014!8\0171$\272"
 296      CE4124FC 
 296      0891880C 
 296      21380F31 
 296      24BA
 297 0174 31ED5007 		.ascii	"1\355P\007\010\3572\336!Ok\266\205#\237\227J\253a\032"
 297      08EF32DE 
 297      214F6BB6 
 297      85239F97 
 297      4AAB611A 
 298 0188 6BE00247 		.ascii	"k\340\002G\256\214\2048\212\323 \270\01014\370\371e"
 298      AE8C8438 
 298      8AD320B8 
 298      083134F8 
 298      F965
 299 019a AFA4173E 		.ascii	"\257\244\027>`\300\334\214\213\225\206e'\011\2607s\260"
 299      60C0DC8C 
 299      8B958665 
 299      2709B037 
 299      73B0
 300 01ac CE24E54B 		.ascii	"\316$\345K\256\336\231\231(\212/\365\307\363\037\001"
 300      AEDE9999 
 300      288A2FF5 
 300      C7F31F01 
 301 01bc 54F4BBF6 		.ascii	"T\364\273\366\212\302\247\014\334\352\034\364Z\030\370"
 301      8AC2A70C 
 301      DCEA1CF4 
 301      5A18F8
 302 01cb C48141D1 		.ascii	"\304\201A\321\017z\351?\241\216\272\264rQX\307\240\355"
 302      0F7AE93F 
 302      A18EBAB4 
 302      725158C7 
 302      A0ED
 303 01dd 15674B80 		.ascii	"\025gK\200\257{0-\315,\225(`\001*f\357X\205\217\271"
 303      AF7B302D 
 303      CD2C9528 
 303      60012A66 
 303      EF58858F 
 304 01f2 5E7698B4 		.ascii	"^v\230\264.\"u \224\3012('\177\227a\031\227\033~\002"
ARM GAS  C:\Users\Luggi\AppData\Local\Temp\ccT3dMHn.s 			page 23


 304      2E227520 
 304      94C13228 
 304      277F9761 
 304      19971B7E 
 305 0207 2D71B4E0 		.ascii	"-q\264\340?SfsK33\343\2659Cok\210L\323X\324\":\247G"
 305      3F536673 
 305      4B3333E3 
 305      B539436F 
 305      6B884CD3 
 306 0221 74D60054 		.ascii	"t\326\000TG#\031\326\232\020\205\231\351\243\2056A\264"
 306      472319D6 
 306      9A108599 
 306      E9A38536 
 306      41B4
 307 0233 B1D1269C 		.ascii	"\261\321&\2346\021\264\241\022j\027\321f\011m\242h\263"
 307      3611B4A1 
 307      126A17D1 
 307      66096DA2 
 307      68B3
 308 0245 9436D1B4 		.ascii	"\2246\321\264YN\233\030\332\304\002\2259\216>\256\240"
 308      594E9B18 
 308      DAC40295 
 308      398E3EAE 
 308      A0
 309 0256 CD4ADAC4 		.ascii	"\315J\332\304\323\006\241~\222i\346b\344%\325\316\\"
 309      D306A17E 
 309      9269E662 
 309      E425D5CE 
 309      5C
 310 0267 2C3C06A7 		.ascii	",<\006\247\273\240\311B3\237\304Z\262\301\343-\007J"
 310      BBA0C942 
 310      339FC45A 
 310      B2C1E32D 
 310      074A
 311 0279 F1AE7FA4 		.ascii	"\361\256\177\244tI?\215u\343\230\354\007~\206]\004\253"
 311      74493F8D 
 311      75E398EC 
 311      077E865D 
 311      04AB
 312 028b 47ED80D9 		.ascii	"G\355\200\331\026I\372$\030Ql\341\001+\307\352\347b"
 312      1649FA24 
 312      18516CE1 
 312      012BC7EA 
 312      E762
 313 029d 0DE36405 		.ascii	"\015\343d\005\004W\030\326\250b/S\254\036\265\201\253"
 313      045718D6 
 313      A8622F53 
 313      AC1EB581 
 313      AB
 314 02ae CB39782C 		.ascii	"\3139x,\202\203\015t\210\376\274\304Y\3560\241\033j"
 314      82830D74 
 314      88FEBCC4 
 314      59EE30A1 
 314      1B6A
 315 02c0 26323CD7 		.ascii	"&2<\327\276\342\263Fj\361}\325\317\015\324\244\246\242"
 315      BEE2B346 
 315      6AF17DD5 
ARM GAS  C:\Users\Luggi\AppData\Local\Temp\ccT3dMHn.s 			page 24


 315      CF0DD4A4 
 315      A6A2
 316 02d2 3487A4A1 		.ascii	"4\207\244\241\245\350\351\277\337\254gC\2542\345\345"
 316      A5E8E9BF 
 316      DFAC6743 
 316      AC32E5E5 
 317 02e2 E9538602 		.ascii	"\351S\206\002\370\301\341\"\306\023\341\027R\271\253"
 317      F8C1E122 
 317      C613E117 
 317      52B9AB
 318 02f1 B472700D 		.ascii	"\264rp\015\012\000u\203sjo#\346\204&\316y\277\367\346"
 318      0A007583 
 318      736A6F23 
 318      E68426CE 
 318      79BFF7E6 
 319 0305 41760E34 		.ascii	"Av\0164\244\322\225$V\311\261\214\346h\2429v:'\217-"
 319      A4D29524 
 319      56C9B18C 
 319      E668A239 
 319      763A278F 
 320 031a F689E338 		.ascii	"\366\211\3438s=SG\021DG\270.\373\302K\\}\302$\260\350"
 320      733D5347 
 320      114447B8 
 320      2EFBC24B 
 320      5C7DC224 
 321 0330 A7824F0D 		.ascii	"\247\202O\0155\330L\202o\250\301\"z \362\3403\262\354"
 321      35D84C82 
 321      6FA8C122 
 321      7A20F2E0 
 321      33B2EC
 322 0343 06BF592D 		.ascii	"\006\277Y-\272\252\347\263\305\005o\311\\~\323:tLC\325"
 322      BAAAE7B3 
 322      C5056FC9 
 322      5C7ED33A 
 322      744C43D5 
 323 0357 C91B6BCF 		.ascii	"\311\033k\317\021\3514Y\247\264\357A%[\307\342r\314"
 323      11E93459 
 323      A7B4EF41 
 323      255BC7E2 
 323      72CC
 324 0369 95C6C2A4 		.ascii	"\225\306\302\244\351yT\263/@\221\306\012\277\022i\252"
 324      E97954B3 
 324      2F4091C6 
 324      0ABF1269 
 324      AA
 325 037a 9834D544 		.ascii	"\2304\325D\032\262>bzOTf\003_1\210`\012\372[\367k\231"
 325      1AB23E62 
 325      7A4F5466 
 325      035F3188 
 325      600AFA5B 
 326 0391 BA7B15D6 		.ascii	"\272{\025\326\322\242\232T\237\300nU\340\337\024\201"
 326      D2A29A54 
 326      9FC06E55 
 326      E0DF1481 
 327 03a1 B51C6EE3 		.ascii	"\265\034n\343\014\303\017\237uY)\203X\015\010jH(Y\206"
 327      0CC30F9F 
 327      75592983 
ARM GAS  C:\Users\Luggi\AppData\Local\Temp\ccT3dMHn.s 			page 25


 327      580D086A 
 327      48285986 
 328 03b5 2FB100D9 		.ascii	"/\261\000\331M\226\222\215\355V/\357v\"\243\357#Nm^"
 328      4D96928D 
 328      ED562FEF 
 328      7622A3EF 
 328      234E6D5E 
 329 03c9 00794B4E 		.ascii	"\000yKN\343\231\234\206\205\207W\024\237\276\302\234"
 329      E3999C86 
 329      85875714 
 329      9FBEC29C 
 330 03d9 A35D8DA0 		.ascii	"\243]\215\240\366\015\263\250cYX\020\223\332\243J=\257"
 330      F60DB3A8 
 330      63595810 
 330      93DAA34A 
 330      3DAF
 331 03eb 90F5B290 		.ascii	"\220\365\262\2204k\003J\267\012\314\337e\307\345\022"
 331      346B034A 
 331      B70ACCDF 
 331      65C7E512 
 332 03fb 9AFCCC62 		.ascii	"\232\374\314bD.\035\335\324\350\350@\213N\346\235\371"
 332      442E1DDD 
 332      D4E8E840 
 332      8B4EE69D 
 332      F9
 333 040c 5E5AC5B4 		.ascii	"^Z\305\264vH\262\326\015EOG0[\311\341\216\243\271\335"
 333      7648B2D6 
 333      0D454F47 
 333      305BC9E1 
 333      8EA3B9DD 
 334 0420 56736B20 		.ascii	"Vsk k\371\327X$cw\370\276F/\2158\0152g\366\356\356\235"
 334      6BF9D758 
 334      246377F8 
 334      BE462F8D 
 334      380D3267 
 335 0438 8C334BE1 		.ascii	"\2143K\341<r\316\325f\361\347\274\253r6rN\365D\210\344"
 335      3C72CED5 
 335      66F1E7BC 
 335      AB723672 
 335      4EF54488 
 336 044d 44DC9339 		.ascii	"D\334\2239G}\234\205w\232\357bF\232\253\220\346\034"
 336      477D9C85 
 336      779AEF62 
 336      469AAB90 
 336      E61C
 337 045f CAA9B5FA 		.ascii	"\312\251\265\372\2236\251\244\367\011\251\222\331DF"
 337      9336A9A4 
 337      F709A992 
 337      D94446
 338 046e 5D55966C 		.ascii	"]U\226l\257p\002\363\\\274\226\317^:\246t\205\251\266"
 338      AF7002F3 
 338      5CBC96CF 
 338      5E3AA674 
 338      85A9B6
 339 0481 49CA045F 		.ascii	"I\312\004_1\036\250<\315s\374\025\301)\012\207_\015"
 339      311EA83C 
 339      CD73FC15 
ARM GAS  C:\Users\Luggi\AppData\Local\Temp\ccT3dMHn.s 			page 26


 339      C1290A87 
 339      5F0D
 340 0493 6958B2A9 		.ascii	"iX\262\251\010\036\316)\354\274d-\254R\021<'O\325\327"
 340      081ECE29 
 340      ECBC642D 
 340      AC52113C 
 340      274FD5D7 
 341 04a7 9C327201 		.ascii	"\2342r\001/\264\252\367\307\013\015\217^\301\001\247"
 341      2FB4AAF7 
 341      C70B0D8F 
 341      5EC101A7 
 342 04b7 0EE75D10 		.ascii	"\016\347]\020\231\263\310e\336Fb\331\271\255\220w\271"
 342      99B3C865 
 342      DE4662D9 
 342      B9AD9077 
 342      B9
 343 04c8 C2AFE626 		.ascii	"\302\257\346&T#\360S\375\227\360\372\2317\243b\221:"
 343      5423F053 
 343      FD97F0FA 
 343      9937A362 
 343      913A
 344 04da 22BB7CB2 		.ascii	"\"\273|\262Eq\232c,\377:S\332\262[\321g\364d\363z\237"
 344      45719A63 
 344      2CFF3A53 
 344      DAB25BD1 
 344      67F464F3 
 345 04f0 F7DA55EF 		.ascii	"\367\332U\357u\260\035\351y\255&s\224Z\371;(~\266\203"
 345      75B01DE9 
 345      79AD2673 
 345      945AF93B 
 345      287EB683 
 346 0504 3A79B527 		.ascii	":y\265'_\324\357\011`\002\352\020t\261t\274\304\363"
 346      5FD4EF09 
 346      6002EA10 
 346      74B174BC 
 346      C4F3
 347 0516 8D1FF233 		.ascii	"\215\037\3623\327^\275\223\347\272d\026\033\314\346"
 347      D75EBD93 
 347      E7BA6416 
 347      1BCCE6
 348 0525 EAF6DDAE 		.ascii	"\352\366\335\256\"\017_\304\021\365\005C\025\254<\344"
 348      220F5FC4 
 348      11F50543 
 348      15AC3CE4 
 349 0535 95088FB8 		.ascii	"\225\010\217\270:]\316\021Y\235E\252:\3758\034\235["
 349      3A5DCE11 
 349      599D45AA 
 349      3AFD381C 
 349      9D5B
 350 0547 055E6C95 		.ascii	"\005^l\225e\230\310\030\251\316\223\303\226.t\261?\236"
 350      6598C818 
 350      A9CE93C3 
 350      962E74B1 
 350      3F9E
 351 0559 E38B681E 		.ascii	"\343\213h\036\177\342\206g?7\361K\262\362\357s\2141"
 351      7FE28667 
 351      3F37F14B 
ARM GAS  C:\Users\Luggi\AppData\Local\Temp\ccT3dMHn.s 			page 27


 351      B2F2EF73 
 351      8C31
 352 056b 2F9B87C9 		.ascii	"/\233\207\311\030\315e\274\225\373\0062\366(\376\246"
 352      18CD65BC 
 352      95FB0632 
 352      F628FEA6 
 353 057b BA05D053 		.ascii	"\272\005\320S\317\262\177u\373K\236\317\362\205\226"
 353      CFB27F75 
 353      FB4B9ECF 
 353      F28596
 354 058a EB5575BB 		.ascii	"\353Uu\273%\273*\212#\324\3171-9\203O\024\335\212dA"
 354      25BB2A8A 
 354      23D4CF31 
 354      2D39834F 
 354      14DD8A64 
 355 059f A2FC5C15 		.ascii	"\242\374\\\025(\337$y\345\367r\025\337\314g\222>\371"
 355      28DF2479 
 355      E5F77215 
 355      DFCC6792 
 355      3EF9
 356 05b1 826264E3 		.ascii	"\202bd\343\247>\346l\261~U\010\242\036\365\222\233\227"
 356      A73EE66C 
 356      B17E5508 
 356      A21EF592 
 356      9B97
 357 05c3 93AA822D 		.ascii	"\223\252\202-p\023\375\301H\311\027\302\000P?\225\025"
 357      7013FDC1 
 357      48C917C2 
 357      00503F95 
 357      15
 358 05d4 FEFD0A98 		.ascii	"\376\375\012\230\360\344\363\260\037\"\003;ud\264\371"
 358      F0E4F3B0 
 358      1F22033B 
 358      7564B4F9 
 359 05e4 E8192777 		.ascii	"\350\031'w\031\251\206\027\"\203h\352\301\210|\347\312"
 359      19A98617 
 359      228368EA 
 359      C1887CE7 
 359      CA
 360 05f5 C56EB0F3 		.ascii	"\305n\260\363d\342\026\262\331\200*\327\237\262\\1\004"
 360      64E216B2 
 360      D9802AD7 
 360      9FB25C31 
 360      04
 361 0606 E1F35595 		.ascii	"\341\363U\225\254O\214\337\216\302\020\371\330&\306"
 361      AC4F8CDF 
 361      8EC210F9 
 361      D826C6
 362 0615 0A51756A 		.ascii	"\012Quj\313\375\337\233|\320\377\225\350\271#\177\202"
 362      CBFDDF9B 
 362      7CD0FF95 
 362      E8B9237F 
 362      82
 363 0626 AC5CA894 		.ascii	"\254\\\250\224Cs^<\361$\236~?\274\221\355\206\331z\361"
 363      43735E3C 
 363      F1249E7E 
 363      3FBC91ED 
ARM GAS  C:\Users\Luggi\AppData\Local\Temp\ccT3dMHn.s 			page 28


 363      86D97AF1 
 364 063a ACA0A1F4 		.ascii	"\254\240\241\364\213\314\003\016w\317z\012\343\273\000"
 364      8BCC030E 
 364      77CF7A0A 
 364      E3BB00
 365 0649 32483EA4 		.ascii	"2H>\244\242\327%mK\262o\336\236\224\270iC\312\016{B"
 365      A2D7256D 
 365      4BB26FDE 
 365      9E94B869 
 365      43CA0E7B 
 366 065e D2C6CF37 		.ascii	"\322\306\3177\244\254]\265qmrJ\302\326M\357\275\223"
 366      A4AC5DB5 
 366      716D724A 
 366      C2D64DEF 
 366      BD93
 367 0670 808C09C9 		.ascii	"\200\214\011\311[?\333\362\335\226\304$\273\316\236"
 367      5B3FDBF2 
 367      DD96C424 
 367      BBCE9E
 368 067f F4EDF6CD 		.ascii	"\364\355\366\315\366\355\272\244m\233\277INJ\324%\354"
 368      F6EDBAA4 
 368      6D9BBF49 
 368      4E4AD425 
 368      EC
 369 0690 B0DB37D8 		.ascii	"\260\3337\330\023\214)\311\211r\310\277Z0H\012"
 369      138C29C9 
 369      8972C8BF 
 369      5A30480A 
 370              		.text
 371              		.section	.gnu.lto_Clock_3_SetSourceRegister.304b4696,"",%progbits
 372 0000 789C8D54 		.ascii	"x\234\215T_lSe\024?\347\273\355\375\323\333vuc\2145"
 372      5F6C5365 
 372      143FE7BB 
 372      EDFDD3DB 
 372      7675638C 
 373 0015 6C632964 		.ascii	"lc)d11\370`\364\211\004\022L|5\331\243$\304\224=\030"
 373      3131F860 
 373      F4890412 
 373      4C7C35D9 
 373      A324C494 
 374 002b 169734C2 		.ascii	"\026\2274\302\213!\273\335\212,F\224\360`\210\313\014"
 374      8B21BBDD 
 374      8A2C4694 
 374      F06088CB 
 374      0C
 375 003c 8AC874BA 		.ascii	"\212\310t\272\301\200N\005\245L\262\230\230\015\301"
 375      C1804E05 
 375      A54CB298 
 375      980DC1
 376 004b C91C9241 		.ascii	"\311\034\222Af\207`\262\015\322e\256\032\250\347|\337"
 376      668760B2 
 376      0DD265AE 
 376      1AA8E77C 
 376      DF
 377 005c 6D77ADA4 		.ascii	"mw\255\244Y\223\236{\277\363\375~\347\376\316\357|\367"
 377      59939E7B 
 377      BFF3FD7E 
ARM GAS  C:\Users\Luggi\AppData\Local\Temp\ccT3dMHn.s 			page 29


 377      E7FECEEF 
 377      7CF7
 378 006e 6AF0FFDF 		.ascii	"j\360\377\337Q\372\037\327\001\266\321\025\203\200\342"
 378      51FA1FD7 
 378      01B6D115 
 378      8380E2
 379 007d C80440D2 		.ascii	"\310\004@\322\024B\353i\001'\240s\014j\302\347Y\371"
 379      1442EB69 
 379      0127A073 
 379      0C6AC2E7 
 379      59F9
 380 008f 84FF6223 		.ascii	"\204\377b#\257&\237\245\225\037mE\321\205!A\001\011"
 380      AF269FA5 
 380      951F6D45 
 380      D1852141 
 380      0109
 381 00a1 3284E959 		.ascii	"2\204\351Y\231\302\222\224\200\244XEJ\240xc#\362\015"
 381      99C29294 
 381      80A45845 
 381      4AA07863 
 381      23F20D
 382 00b4 20740ACD 		.ascii	" t\012\315\347\327\015\323\012\330\330\211\367\305C"
 382      E7D70DD3 
 382      0AD8D889 
 382      F7C543
 383 00c3 81473203 		.ascii	"\201G2\003\307\354\226\223\216\343<\030\236\256?\270"
 383      C7EC9693 
 383      8EE33C18 
 383      9EAE3FB8 
 384 00d3 212F0072 		.ascii	"!/\000rB\311\307S\330B\220\374l\366J@\333\214@\367\247"
 384      42C9C753 
 384      D84290FC 
 384      6CF64A40 
 384      DB8C40F7 
 385 00e8 AF7FF203 		.ascii	"\257\177\362\003n9\3418]\231\211Ag\007\346\005b?j\304"
 385      6E39E138 
 385      5D998941 
 385      6707E605 
 385      623F6AC4 
 386 00fc C067A2F8 		.ascii	"\300g\242\370t\024(\001\370\031napz\374\374h\225\266"
 386      74142801 
 386      F8196E61 
 386      707AFCFC 
 386      6895B6
 387 010f 55127F9C 		.ascii	"U\022\177\234]\311\005\357\211\274\020\021^~05\267\244"
 387      5DC905EF 
 387      89BC1011 
 387      5E7E3035 
 387      B7A4
 388 0121 F15213BC 		.ascii	"\361R\023\274\034\357O\036\014\305>\242\262w\306\017"
 388      1CEF4F1E 
 388      0CC53EA2 
 388      B277C60F 
 389 0131 1F0A3AFD 		.ascii	"\037\012:\375N\352N\241\320\224\027>\374\\U\037\300"
 389      4EEA4EA1 
 389      D094173E 
 389      FC5C551F 
ARM GAS  C:\Users\Luggi\AppData\Local\Temp\ccT3dMHn.s 			page 30


 389      C0
 390 0142 287E8151 		.ascii	"(~\201Q\327X\242,\236;\263_{A\326\316=zo*\254\330\023"
 390      D758A22C 
 390      9E3BB35F 
 390      7B41D6CE 
 390      3D7A6F2A 
 391 0159 F363B673 		.ascii	"\363c\266s\254\310F\034\364j+q\037\246\036M\331z\212"
 391      ACC8461C 
 391      F46A2B71 
 391      1FA61E4D 
 391      D97A8A
 392 016c 9A8EE097 		.ascii	"\232\216\340\227\030\303!\214\251\246\3614\352\010 "
 392      18C3218C 
 392      A9A6F134 
 392      EA0820
 393 017b 8AD9A1EA 		.ascii	"\212\331\241\352\214S(\234\275\373\376\275\355z\314"
 393      8C53289C 
 393      BDFBFEBD 
 393      ED7ACC
 394 018a 079CD681 		.ascii	"\007\234\326\2017\014\344&Mj\327oq\2609\004)\350!\016"
 394      370CE426 
 394      4D6AD76F 
 394      71B03904 
 394      29E8210E 
 395 019e 610E551C 		.ascii	"a\016U\034\"\274Q\315\241\206\227\3538\324rX\317\241"
 395      22BC51CD 
 395      A18697EB 
 395      38D47258 
 395      CFA1
 396 01b0 8E37EA39 		.ascii	"\2167\3529\260s\376\215\034\032x\243\221C\023\207M\034"
 396      B073FE8D 
 396      1C1A78A3 
 396      91431387 
 396      4D1C
 397 01c2 9A790320 		.ascii	"\232y\003 K\032y\224sB\360U\273\205\335\231\336\336"
 397      4B1A7994 
 397      7342F055 
 397      BB85DD99 
 397      DEDE
 398 01d4 30ABFE4B 		.ascii	"0\253\376K\370\250\261\017\177~wP\034\370\307\351q\314"
 398      F8A8B10F 
 398      7F7E7750 
 398      1CF8C7E9 
 398      71CC
 399 01e6 BC307234 		.ascii	"\2740r4\013\3003x\200\330&\334@!\333\243\036\010\014"
 399      0BC03378 
 399      80D826DC 
 399      4021DBA3 
 399      1E080C
 400 01f9 CCEDFB2D 		.ascii	"\314\355\373-\244\270z9\327\312\321#\000\207%7P\342"
 400      A4B87A39 
 400      D7CAD123 
 400      00872537 
 400      50E2
 401 020b 0E315787 		.ascii	"\0161W\207_05\335\375{z\303*9\371\351\205w\014\236'"
 401      5F3035DD 
 401      FD7B7AC3 
ARM GAS  C:\Users\Luggi\AppData\Local\Temp\ccT3dMHn.s 			page 31


 401      2A39F9E9 
 401      85770C9E 
 402 0220 A9C4B3EE 		.ascii	"\251\304\263\356\234\346\204\006=-\032\241\177\355\236"
 402      9CE68406 
 402      3D2D1AA1 
 402      7FED9E
 403 022f D514D8F0 		.ascii	"\325\024\330\360\354\372\340J\215\332\375#\375\346j"
 403      ECFAE04A 
 403      8DDAFD23 
 403      FDE66A
 404 023e 13A55A36 		.ascii	"\023\245Z6\325:WB\373\341\252\241\335\304\321\345\267"
 404      D53A5742 
 404      FBE1AAA1 
 404      DDC4D1E5 
 404      B7
 405 024f 17E6130A 		.ascii	"\027\346\023\012m\022\272/;yXgt\360\255d\322\361\361"
 405      6D12BA2F 
 405      3B795867 
 405      74F0AD64 
 405      D2F1F1
 406 0262 786F67AF 		.ascii	"xog\257^3eJN{\360\343\321\316>\354M\246\350\264\206"
 406      5E33654A 
 406      4E7BF0E3 
 406      D1CE3EEC 
 406      4DA6E8B4 
 407 0277 F03C1DA4 		.ascii	"\360<\035\2444\027\305\021\354C\270\211\335K\272\252"
 407      3417C511 
 407      EC43B889 
 407      DD4BBAAA 
 408 0287 66A982C3 		.ascii	"f\251\202\303'N\246-\331\312\016\300\257\010I\317<\212"
 408      274EA62D 
 408      D9CA0EC0 
 408      AF0849CF 
 408      3C8A
 409 0299 0CA950EB 		.ascii	"\014\251P\353k\252E\025@\352{<\277MU\264+0\276QO\357"
 409      6BAA4515 
 409      40EA7B3C 
 409      BF4D55B4 
 409      2B30BE51 
 410 02af 9A39B45C 		.ascii	"\2329\264\\l'H\014\026\264\342\012\012Q\212*\374\231"
 410      6C27480C 
 410      16B4E20A 
 410      0A518A2A 
 410      FC99
 411 02c1 F97B520A 		.ascii	"\371{R\012\322W\012\356\217\336\336\013RY\327\214\241"
 411      D2570AEE 
 411      8FDEDE0B 
 411      5259D78C 
 411      A1
 412 02d2 B061B2D6 		.ascii	"\260a\262\326\333L\225\244\207\275\220\010e\237\334"
 412      DB4C95A4 
 412      87BD9008 
 412      659FDC
 413 02e1 4C3253FF 		.ascii	"L2S\377_q\027e;\021\351\273\016\227\307@\215\351\324"
 413      5F711765 
 413      3B11E9BB 
 413      0E97C740 
ARM GAS  C:\Users\Luggi\AppData\Local\Temp\ccT3dMHn.s 			page 32


 413      8DE9D4
 414 02f4 48833B72 		.ascii	"H\203;r\317\024\0158\036\323\344\211X~\302\214M\370"
 414      CF140D38 
 414      1ED3E489 
 414      587EC28C 
 414      4DF8
 415 0306 E929451E 		.ascii	"\351)E\036\030\351tg\354\031\252\005\017t5\324\307\013"
 415      18E97467 
 415      EC19AA05 
 415      0F7435D4 
 415      C70B
 416 0318 AE69D515 		.ascii	"\256i\325\025L\373v\325\264\005\327\264\032bxM[G\251"
 416      4CFB76D5 
 416      B405D7B4 
 416      1A62784D 
 416      5B47A9
 417 032b 72736ACB 		.ascii	"rsj\313\314Y/a\265^H\035e\327h\316w\322\234:5\353\261"
 417      CC592F61 
 417      B55E481D 
 417      65D768CE 
 417      77D29C3A 
 418 0342 4557477D 		.ascii	"EWG}\005\331\227\334\223V\324\030U\360\373\327\227\246"
 418      05D997DC 
 418      9356D418 
 418      55F0FBD7 
 418      97A6
 419 0354 C33CD8D0 		.ascii	"\303<\330\320%\372hf\326x\324.\313\307G\245}\001\270"
 419      25FA6866 
 419      D678D42E 
 419      CBC747A5 
 419      7D01B8
 420 0367 B6DD7D27 		.ascii	"\266\335}'\026]\3736V\240\216\226\354\273[\224\335@"
 420      165DFB36 
 420      56A08E96 
 420      ECBB5B94 
 420      DD40
 421 0379 0CAFB446 		.ascii	"\014\257\264FJ\225\333\327Tf\337&\011k\362B\232)\273"
 421      4A95DBD7 
 421      5466DF26 
 421      096BF242 
 421      9A29BB
 422 038c 46FBBE97 		.ascii	"F\373\276\227\372\233\245~[~\306f0\231)\274\302D>\024"
 422      FA9BA57E 
 422      5B7EC666 
 422      309929BC 
 422      C2443E14 
 423 03a0 59FA6A51 		.ascii	"Y\372jQ\226>?\315/\265\275\336\226x\365\215\266=\273"
 423      963E3FCD 
 423      2FB5BDDE 
 423      9678F58D 
 423      B63DBB
 424 03b3 5B3BF625 		.ascii	"[;\366%\342m\273^n\355\330\371\374\256\235\355\035\361"
 424      E26DBB5E 
 424      6EEDD8F9 
 424      FCAE9DED 
 424      1DF1
 425 03c5 BDBB9FDB 		.ascii	"\275\273\237\333\032\007+\336\276Wm\031\361}\211\304"
ARM GAS  C:\Users\Luggi\AppData\Local\Temp\ccT3dMHn.s 			page 33


 425      1A072BDE 
 425      BE576D19 
 425      F17D89C4 
 426 03d5 8BAFEDD7 		.ascii	"\213\257\355\327;\332\367\264&\342\377\002\315p\\q"
 426      3BDAF7B4 
 426      26E2FF02 
 426      CD705C71 
 427              		.text
 428              		.section	.gnu.lto_.symbol_nodes.304b4696,"",%progbits
 429 0000 789C55C7 		.ascii	"x\234U\307\273\015\2000\020\004\321\265\317\306\347"
 429      BB0D8030 
 429      1004D1B5 
 429      CFC6E7
 430 000f 6B7A5B20 		.ascii	"kz[ \"F\024D@\005\210B\020\342\023\260\223\214\236\001"
 430      22461444 
 430      40058842 
 430      10E213B0 
 430      938C9E01 
 431 0023 D8F09541 		.ascii	"\330\360\225A`\\\001\022\323\354\310\211I\234\231\305"
 431      605C0112 
 431      D3ECC889 
 431      499C99C5 
 432 0033 46135716 		.ascii	"F\023W\026\361\300*n\034\304\316&\016\272\270\260\213"
 432      F1C02A6E 
 432      1CC4CE26 
 432      0EBAB8B0 
 432      8B
 433 0044 3BE36FEB 		.ascii	";\343o\353\216e?\223\365\202\343~\224\327\341\217q\001"
 433      8E653F93 
 433      F582E37E 
 433      94D7E18F 
 433      7101
 434 0056 DBE8393B 		.ascii	"\333\3509;"
 435              		.text
 436              		.section	.gnu.lto_.refs.304b4696,"",%progbits
 437 0000 789C6366 		.ascii	"x\234cf```d\200\002\000\000=\000\005"
 437      60606064 
 437      80020000 
 437      3D0005
 438              		.text
 439              		.section	.gnu.lto_.decls.304b4696,"",%progbits
 440 0000 789C8D55 		.ascii	"x\234\215UkL\024W\024\236;wY`Y\320&\015\324\375\323"
 440      6B4C1457 
 440      149E3B77 
 440      596059D0 
 440      260DD4FD 
 441 0015 ED1F6313 		.ascii	"\355\037c\023bC\232\032\373\247mJS\2324mHI\223\246\232"
 441      62439A1A 
 441      FBA76D4A 
 441      539A346D 
 441      484993A6 
 442 002a 180A134B 		.ascii	"\030\012\023Kj\200\254k\033\177ux\305\005\014X\224\202"
 442      6A80AC6B 
 442      1B7F7578 
 442      C5050C58 
 442      9482
 443 003c 542DA98A 		.ascii	"T-\251\212\017dY)*\013\"\213\313{\227\207\200\010\362"
ARM GAS  C:\Users\Luggi\AppData\Local\Temp\ccT3dMHn.s 			page 34


 443      0F645929 
 443      2A0B228B 
 443      CB7B9787 
 443      8008F2
 444 004f 5E34A536 		.ascii	"^4\2456\255\370\250\305Z\273=\367\336\031\367\356:["
 444      ADF8A8C5 
 444      5ABB3DF7 
 444      DE19F7EE 
 444      3A5B
 445 0061 BDC9D999 		.ascii	"\275\311\331\231\373\370\276s\316w\316\235\305\202 "
 445      FBF8BE73 
 445      CE77CE9D 
 445      C58220
 446 0070 6CC082E0 		.ascii	"l\300\202\340\207\261\020)\010\237#A0\302Z*\230\010"
 446      87B11029 
 446      089F2341 
 446      30C25A2A 
 446      9808
 447 0082 160F6616 		.ascii	"\026\017f\026\330\210\001;\003f\007s\2009\301\334`\335"
 447      D888013B 
 447      03660773 
 447      8039C1DC 
 447      60DD
 448 0094 60BD6003 		.ascii	"`\275`\003`^\260+`c\302\323\203`u\0127\341\235\004\233"
 448      605EB02B 
 448      6063C2D3 
 448      8360750A 
 448      37E19D04 
 449 00a9 50F690B2 		.ascii	"P\366\220\262\037:\354\317\300\33050\016%V\202\211\023"
 449      1F3AECCF 
 449      C0D83530 
 449      0E255682 
 449      8913
 450 00bb 583EAE10 		.ascii	"X>\256\020\374\034\330,\330<\330\014\307\347\320\340"
 450      FC1CD82C 
 450      D83CD80C 
 450      C7E7D0E0 
 451 00cb 23794628 		.ascii	"#yF(|\315a\342pj\340\334\012\216\217A\365\253\342\334"
 451      7CCD61E2 
 451      706AE0DC 
 451      0A8E8F41 
 451      F5ABE2DC 
 452 00df 1A38A2A7 		.ascii	"\0328\242\247>\304\237O\303g\267\006\266\3679b\355\325"
 452      3EC49F4F 
 452      C367B706 
 452      B6F73962 
 452      EDD5
 453 00f1 C091DAE9 		.ascii	"\300\221\332\351\376\0073\240\201\361>\003\343\325\300"
 453      FE0733A0 
 453      81F13E03 
 453      E3D5C0
 454 0100 90DE5823 		.ascii	"\220\336X#<]\233f\005Kx\226\300\372\300n\200u*\274f"
 454      3C5D9B66 
 454      054B7896 
 454      C0FAC06E 
 454      80752ABC 
 455 0115 21B85658 		.ascii	"!\270VX\341\">\2644\034S\370U\035B\373\300\307\361\253"
ARM GAS  C:\Users\Luggi\AppData\Local\Temp\ccT3dMHn.s 			page 35


 455      E1223EB4 
 455      341C53F8 
 455      551D42FB 
 455      C0C7F1AB 
 456 0129 FECC2139 		.ascii	"\376\314!9`\205\307\035&\227;\"r\332\357\017\306,\213"
 456      6085C71D 
 456      26973B22 
 456      72DAEF0F 
 456      C62C8B
 457 013c 28CE6026 		.ascii	"(\316`&\323\326\212\276j=L\215\006\035\231\266=\362"
 457      D3D68ABE 
 457      6A3D4C8D 
 457      061D99B6 
 457      3DF2
 458 014e 8DEB122A 		.ascii	"\215\353\022*e\030\373\012\344\265:\224\032\217N \023"
 458      6518FB0A 
 458      E4B53A94 
 458      1A8F4E20 
 458      13
 459 015f 3A894CA0 		.ascii	":\211L\240\320)\224\000\277[t\214\351\346\211\231\026"
 459      D0299400 
 459      BF5B748C 
 459      E9E68999 
 459      16
 460 0170 8C4544DE 		.ascii	"\214ED\336\217V/\216\033\022O\003\314&\273\\b\300]\265"
 460      8F562F8E 
 460      1B124F03 
 460      CC26BB5C 
 460      62C05DB5 
 461 0184 ABCE6630 		.ascii	"\253\316f0\037\221k\035+\215\255SF\271Ov\371\375oS*"
 461      1F916B1D 
 461      2B8DAD53 
 461      46B94F76 
 461      F9FD6F53 
 462 0199 741A6154 		.ascii	"t\032aT\217\022\251\370\360\316\252p\006\231\001f\037"
 462      8F12A9F8 
 462      F0CEAA70 
 462      06990166 
 462      1F
 463 01aa 3CFBA388 		.ascii	"<\373\243\210\337\244\334\205\265\305E\021\224\242\266"
 463      DFA4DC85 
 463      B5C54511 
 463      94A2B6
 464 01b9 FCA89E11 		.ascii	"\374\250\236\021P|\003\207oP\361v\212\277s\346\361["
 464      507C0387 
 464      6F50F176 
 464      8ABF73E6 
 464      F15B
 465 01cb F87D0A6F 		.ascii	"\370}\012o\252\350\277%2\2707\010\336\310\301\033U\270"
 465      AAE8BF25 
 465      32B83708 
 465      DEC8C11B 
 465      55B8
 466 01dd 83C2273A 		.ascii	"\203\302':\366\354\211\302\237Q|^]\333\336HP(\336@\023"
 466      F6EC89C2 
 466      9F517C5E 
 466      5DDBDE48 
ARM GAS  C:\Users\Luggi\AppData\Local\Temp\ccT3dMHn.s 			page 36


 466      5028DE40 
 467 01f2 2AF3D474 		.ascii	"*\363\324tb:\365\223mqj\352\300C\214\014\353m\262\234"
 467      623AF593 
 467      6D716AEA 
 467      C0438C0C 
 467      EB6DB29C 
 468 0206 2FAF54C8 		.ascii	"/\257T\310\370%\001%\232\320\253&\001\235C\353\341\030"
 468      F8250125 
 468      9AD0AB26 
 468      019D43EB 
 468      E118
 469 0218 F5819A40 		.ascii	"\365\201\232@\304\237A\304c \321\312%\367\351\017\013"
 469      C49F41C4 
 469      6320D1CA 
 469      25F7E90F 
 469      0B
 470 0229 E4775033 		.ascii	"\344wP32\240\263O\242\240\036\024\331\366\025u\356\323"
 470      32A0B34F 
 470      A2A01E14 
 470      D9F61575 
 470      EED3
 471 023b E940477A 		.ascii	"\351@Gzf\013\255\315\237\376\305\343b\330\332\\\240"
 471      660BADCD 
 471      9FFEC5E3 
 471      62D8DA5C 
 471      A0
 472 024c B5398F94 		.ascii	"\2659\217\224\342\334\271~\242\007c\031\321\024<\367"
 472      E2DCB97E 
 472      A2076319 
 472      D1143CF7 
 473 025c 7A0EC429 		.ascii	"z\016\304)E\370\273\004\037\224k\363\345\177\375\020"
 473      45F8BB04 
 473      1F946BF3 
 473      E57FFD10 
 474 026c 3F41A116 		.ascii	"?A\241\026N\207\026U\007'\325\301\343[\275g\244\315"
 474      4E871655 
 474      0727D5C1 
 474      E35BBD67 
 474      A4CD
 475 027e B296F0D4 		.ascii	"\262\226\360\324\\\273y\037\323f\021\311\364\360\335"
 475      5CBB791F 
 475      D36611C9 
 475      F4F0DD
 476 028d 3F2E46E3 		.ascii	"?.F\343J\024$\223\231\311T\365\333js\024\235\372\375"
 476      4A142493 
 476      99C954F5 
 476      DB6A7314 
 476      9DFAFD
 477 02a0 98E85437 		.ascii	"\230\350T7\362WM\034Zo`\002,1\001\\\220\334\305\200"
 477      F2574D1C 
 477      5A6F6002 
 477      2C31015C 
 477      90DCC580 
 478 02b4 00664500 		.ascii	"\000fE\000\252\245\\ Gl\020P+d\330\006\031\242\016P"
 478      AAA55C20 
 478      476C1050 
 478      2B64D806 
ARM GAS  C:\Users\Luggi\AppData\Local\Temp\ccT3dMHn.s 			page 37


 478      19A20E50 
 479 02c8 D3ACA8D9 		.ascii	"\323\254\250\331\016\213\227`\021\034=\362\2159\203"
 479      0E8B9760 
 479      111C3DF2 
 479      8D3983
 480 02d7 54219C01 		.ascii	"T!\234\001Y:\203Zv\364\270\253:\026\037b\021\237_\261"
 480      593A835A 
 480      76F4B8AB 
 480      3A161F62 
 480      119F5FB1 
 481 02eb 97AD0155 		.ascii	"\227\255\001U\026@\225\246\375FN\025\000\241\313\234"
 481      164095A6 
 481      FD464E15 
 481      00A1CB9C 
 482 02fb 2A975555 		.ascii	"*\227UU\334T\225\373\245U\215:|\201\261\334\232\234"
 482      DC5495FB 
 482      A5558D3A 
 482      7C81B1DC 
 482      9A9C
 483 030d 6864EDB5 		.ascii	"hd\355\265p\310#\271\012\345\177H\302T\330.\216\242"
 483      70C823B9 
 483      0AE57F48 
 483      C254D82E 
 483      8EA2
 484 031f 4BA5E8A6 		.ascii	"K\245\350\246\024wK/\266\306\340aFq\273\250l\326\310"
 484      14774B2F 
 484      B6C6E061 
 484      4671BBA8 
 484      6CD6C8
 485 0332 3A74BE5E 		.ascii	":t\276^\355PB\320\303\021\364\250\004\275\224\240\270"
 485      ED5042D0 
 485      C311F4A8 
 485      04BD94A0 
 485      B8
 486 0343 D081F9AC 		.ascii	"\320\201\371\254\233\203\262\356\013\312z\330^\331d"
 486      9B83B2EE 
 486      0BCA7AD8 
 486      5ED964
 487 0352 C0BF3267 		.ascii	"\300\2772g\007\333\227\3330\213w\357\357\201x\001\201"
 487      07DB97DB 
 487      308B77EF 
 487      EF817801 
 487      81
 488 0363 FA3977FD 		.ascii	"\3729w\375\252\273\001\352\316\346\257?\214p\036\273"
 488      AABB01EA 
 488      CEE6AF3F 
 488      8C701EBB 
 489 0373 EC15FBFB 		.ascii	"\354\025\373\373oGS\341jO6\252\361\022\002\017G\340"
 489      6F4753E1 
 489      6A4F36AA 
 489      F112020F 
 489      47E0
 490 0385 5109BC94 		.ascii	"Q\011\274\224@\253\241\037N\015>\020\351\032\251\331"
 490      40ABA11F 
 490      4E0D3E10 
 490      E91AA9D9 
 491 0395 20A28B0D 		.ascii	" \242\213\015\247z+#\303v\3710MlH\355\362\263\365\015"
ARM GAS  C:\Users\Luggi\AppData\Local\Temp\ccT3dMHn.s 			page 38


 491      A77A2B23 
 491      C376F930 
 491      4D6C48ED 
 491      F2B3F50D 
 492 03a9 B9F80716 		.ascii	"\271\370\007\026\325\324\302\220[\317\022+\356\015$"
 492      D5D4C290 
 492      5BCF122B 
 492      EE0D24
 493 03b8 060834C2 		.ascii	"\006\0104\302\3055\242\306u\205\3065\363\335`_,>\317"
 493      C535A2C6 
 493      7585C635 
 493      F3DD605F 
 493      2C3ECF
 494 03cb 2856E5E6 		.ascii	"(V\345\346&\035+\204\247\201/\304(G0\252\022\214Q\002"
 494      261D2B84 
 494      A7812FC4 
 494      284730AA 
 494      128C5102 
 495 03df B9AAF458 		.ascii	"\271\252\364X\024\036a\004\347\036\2248c\0156\322\273"
 495      141E6104 
 495      E71E9438 
 495      630D36D2 
 495      BB
 496 03f0 CFFE14C0 		.ascii	"\317\376\024\300\245\030\037*\231\210f\037\217P\304"
 496      A5181F2A 
 496      9988661F 
 496      8F50C4
 497 03ff B5B01F8F 		.ascii	"\265\260\037\217\202\016c\277,G\241\011\020m<py\256"
 497      820E63BF 
 497      2C47A109 
 497      106D3C70 
 497      79AE
 498 0411 A2C0E763 		.ascii	"\242\300\347c\334\223?\215\215%\344\032\201\210\321"
 498      DC933F8D 
 498      8D25E41A 
 498      8188D1
 499 0420 1FD0B301 		.ascii	"\037\320\263\001\025'\221\221f\000O\362\21704=\207\361"
 499      15279191 
 499      66004FF2 
 499      8F30343D 
 499      87F1
 500 0432 559641D7 		.ascii	"U\226A\327\344\367\203F\226\301\363]@\261\274.\317\033"
 500      E4F78346 
 500      96C1F35D 
 500      40B1BC2E 
 500      CF1B
 501 0444 A95CECDA 		.ascii	"\251\\\354\332\307IQh\006|M\005\342\272\216\002\267"
 501      C7495168 
 501      067C4D05 
 501      E2BA8E02 
 501      B7
 502 0455 FA69D269 		.ascii	"\372i\322i\355[\355\230k\035\215Q\303\260=\017b\244"
 502      ED5BED98 
 502      6B1D8D51 
 502      C3B03D0F 
 502      62A4
 503 0467 D35713C3 		.ascii	"\323W\023\303\247<\033\224\362\234\222\362\034M\271"
ARM GAS  C:\Users\Luggi\AppData\Local\Temp\ccT3dMHn.s 			page 39


 503      A73C1B94 
 503      F29C92F2 
 503      1C4DB9
 504 0476 CBDBFE8B 		.ascii	"\313\333\376\213\236?<\023tx^9<O\016c\373\225\216#\""
 504      9E3F3C13 
 504      74785E39 
 504      3C4F0E63 
 504      FB958E23 
 505 048b 32990CD5 		.ascii	"2\231\014\325\360\347\266\3722\362AB\344\325\265\354"
 505      F0E7B6FA 
 505      32F24142 
 505      E4D5B5EC 
 506 049b F77FEB67 		.ascii	"\367\177\353g\243<\222.\333H\333\256\344su\024\350\272"
 506      A33C922E 
 506      DB48DBAE 
 506      E4737514 
 506      E8BA
 507 04ad 8016817C 		.ascii	"\200\026\201|\201\204\017S\362\351\374i\245/(Zr}\002"
 507      81840F53 
 507      F2E9FC69 
 507      A52F285A 
 507      727D02
 508 04c0 012C2901 		.ascii	"\001,)\001,\321h[\234\003\205k\370\303\235A\207o(\207"
 508      2CD1685B 
 508      9C03856B 
 508      F8C39D41 
 508      876F2887 
 509 04d4 C9333679 		.ascii	"\31136yGN\306W\333^\337\226fM\267X\365)\037\177jN\026"
 509      474EC657 
 509      DB5EDF96 
 509      664DB758 
 509      F5291F7F 
 510 04eb 5E4991B2 		.ascii	"^I\221\262%K\272U\312\334\226\226\263\313\222!mMM\313"
 510      254BBA55 
 510      CADC9696 
 510      B3CB9221 
 510      6D4D4DCB 
 511 04ff 497E63AB 		.ascii	"I~c\253rvc\206`\014\300rr_\340'\357\222\367\210]Y\331"
 511      72766386 
 511      600CC072 
 511      725FE027 
 511      EF92F788 
 512 0516 D6CD6168 		.ascii	"\326\315ah^\313\330m\335\235+\355\334\370\245\360\""
 512      5ECBD86D 
 512      DD9D2BED 
 512      DCF8A5F0 
 512      22
 513 0527 E73D3BF3 		.ascii	"\347=;\363\213\335\2519\337H\026=\001'm2\251{)\222\365"
 513      8BDDA939 
 513      DF48163D 
 513      01276D32 
 513      A97B2992 
 514 053c BDACAFB3 		.ascii	"\275\254\257\2632%\313'\322\366\254\235V\311\222\360"
 514      3225CB27 
 514      D2F6AC9D 
 514      56C992F0 
 515 054c 0426593F 		.ascii	"\004&Y?\312\311\224\324\365u\352z\362\016)\335\302\357"
ARM GAS  C:\Users\Luggi\AppData\Local\Temp\ccT3dMHn.s 			page 40


 515      CAC994D4 
 515      F575EA7A 
 515      F20E29DD 
 515      C2EF
 516 055e 2470649A 		.ascii	"$pd\232\010Xg1\252;&\316G\210\373u\334V0Hg\221\266o"
 516      08586731 
 516      AA3B26CE 
 516      4788FB75 
 516      DC563048 
 517 0576 8E809FA4 		.ascii	"\216\200\237\244M\377\001\266c/\027"
 517      4DFF01B6 
 517      632F17
 518              		.text
 519              		.section	.gnu.lto_.symtab.304b4696,"",%progbits
 520 0000 436C6F63 		.ascii	"Clock_3_Start\000\000\000\000\000\000\000\000\000\000"
 520      6B5F335F 
 520      53746172 
 520      74000000 
 520      00000000 
 521 0017 0000AC00 		.ascii	"\000\000\254\000\000\000Clock_3_Stop\000\000\000\000"
 521      0000436C 
 521      6F636B5F 
 521      335F5374 
 521      6F700000 
 522 002d 00000000 		.ascii	"\000\000\000\000\000\000\000\000\256\000\000\000Clo"
 522      00000000 
 522      AE000000 
 522      436C6F
 523 003c 636B5F33 		.ascii	"ck_3_StopBlock\000\000\000\000\000\000\000\000\000\000"
 523      5F53746F 
 523      70426C6F 
 523      636B0000 
 523      00000000 
 524 0054 0000B000 		.ascii	"\000\000\260\000\000\000Clock_3_StandbyPower\000\000"
 524      0000436C 
 524      6F636B5F 
 524      335F5374 
 524      616E6462 
 525 0070 00000000 		.ascii	"\000\000\000\000\000\000\000\000\000\000\271\000\000"
 525      00000000 
 525      0000B900 
 525      00
 526 007d 00436C6F 		.ascii	"\000Clock_3_GetDividerRegister\000\000\000\000\000\000"
 526      636B5F33 
 526      5F476574 
 526      44697669 
 526      64657252 
 527 009e 00000000 		.ascii	"\000\000\000\000\000\000\303\000\000\000Clock_3_Set"
 527      0000C300 
 527      0000436C 
 527      6F636B5F 
 527      335F5365 
 528 00b3 4D6F6465 		.ascii	"ModeRegister\000\000\000\000\000\000\000\000\000\000"
 528      52656769 
 528      73746572 
 528      00000000 
 528      00000000 
ARM GAS  C:\Users\Luggi\AppData\Local\Temp\ccT3dMHn.s 			page 41


 529 00c9 0000C500 		.ascii	"\000\000\305\000\000\000Clock_3_ClearModeRegister\000"
 529      0000436C 
 529      6F636B5F 
 529      335F436C 
 529      6561724D 
 530 00e9 00000000 		.ascii	"\000\000\000\000\000\000\000\000\000\000\000\307\000"
 530      00000000 
 530      000000C7 
 530      00
 531 00f6 0000436C 		.ascii	"\000\000Clock_3_GetModeRegister\000\000\000\000\000"
 531      6F636B5F 
 531      335F4765 
 531      744D6F64 
 531      65526567 
 532 0114 00000000 		.ascii	"\000\000\000\000\000\000\000\312\000\000\000Clock_3"
 532      000000CA 
 532      00000043 
 532      6C6F636B 
 532      5F33
 533 0126 5F476574 		.ascii	"_GetSourceRegister\000\000\000\000\000\000\000\000\000"
 533      536F7572 
 533      63655265 
 533      67697374 
 533      65720000 
 534 0141 000000CC 		.ascii	"\000\000\000\314\000\000\000Clock_3_SetDividerRegis"
 534      00000043 
 534      6C6F636B 
 534      5F335F53 
 534      65744469 
 535 015f 74657200 		.ascii	"ter\000\000\000\000\000\000\000\000\000\000\000\000"
 535      00000000 
 535      00000000 
 535      000000
 536 016e D1000000 		.ascii	"\321\000\000\000Clock_3_SetSourceRegister\000\000\000"
 536      436C6F63 
 536      6B5F335F 
 536      53657453 
 536      6F757263 
 537 018e 00000000 		.ascii	"\000\000\000\000\000\000\000\000\000\323\000\000\000"
 537      00000000 
 537      00D30000 
 537      00
 538              		.text
 539              		.section	.gnu.lto_.opts,"",%progbits
 540 0000 272D666E 		.ascii	"'-fno-trapv' '-fno-strict-overflow' '-mcpu=cortex-m"
 540      6F2D7472 
 540      61707627 
 540      20272D66 
 540      6E6F2D73 
 541 0033 33272027 		.ascii	"3' '-mthumb' '-g' '-Og' '-ffunction-sections' '-flt"
 541      2D6D7468 
 541      756D6227 
 541      20272D67 
 541      2720272D 
 542 0066 6F272027 		.ascii	"o' '-ffat-lto-objects'\000"
 542      2D666661 
 542      742D6C74 
ARM GAS  C:\Users\Luggi\AppData\Local\Temp\ccT3dMHn.s 			page 42


 542      6F2D6F62 
 542      6A656374 
 543              		.text
 544              		.cfi_sections	.debug_frame
 545              		.section	.text.Clock_3_Start,"ax",%progbits
 546              		.align	2
 547              		.global	Clock_3_Start
 548              		.thumb
 549              		.thumb_func
 550              		.type	Clock_3_Start, %function
 551              	Clock_3_Start:
 552              	.LFB0:
 553              		.file 1 "Generated_Source\\PSoC5\\Clock_3.c"
   1:Generated_Source\PSoC5/Clock_3.c **** /*******************************************************************************
   2:Generated_Source\PSoC5/Clock_3.c **** * File Name: Clock_3.c
   3:Generated_Source\PSoC5/Clock_3.c **** * Version 2.20
   4:Generated_Source\PSoC5/Clock_3.c **** *
   5:Generated_Source\PSoC5/Clock_3.c **** *  Description:
   6:Generated_Source\PSoC5/Clock_3.c **** *   This file provides the source code to the API for the clock component.
   7:Generated_Source\PSoC5/Clock_3.c **** *
   8:Generated_Source\PSoC5/Clock_3.c **** *  Note:
   9:Generated_Source\PSoC5/Clock_3.c **** *
  10:Generated_Source\PSoC5/Clock_3.c **** ********************************************************************************
  11:Generated_Source\PSoC5/Clock_3.c **** * Copyright 2008-2012, Cypress Semiconductor Corporation.  All rights reserved.
  12:Generated_Source\PSoC5/Clock_3.c **** * You may use this file only in accordance with the license, terms, conditions, 
  13:Generated_Source\PSoC5/Clock_3.c **** * disclaimers, and limitations in the end user license agreement accompanying 
  14:Generated_Source\PSoC5/Clock_3.c **** * the software package with which this file was provided.
  15:Generated_Source\PSoC5/Clock_3.c **** *******************************************************************************/
  16:Generated_Source\PSoC5/Clock_3.c **** 
  17:Generated_Source\PSoC5/Clock_3.c **** #include <cydevice_trm.h>
  18:Generated_Source\PSoC5/Clock_3.c **** #include "Clock_3.h"
  19:Generated_Source\PSoC5/Clock_3.c **** 
  20:Generated_Source\PSoC5/Clock_3.c **** /* Clock Distribution registers. */
  21:Generated_Source\PSoC5/Clock_3.c **** #define CLK_DIST_LD              (* (reg8 *) CYREG_CLKDIST_LD)
  22:Generated_Source\PSoC5/Clock_3.c **** #define CLK_DIST_BCFG2           (* (reg8 *) CYREG_CLKDIST_BCFG2)
  23:Generated_Source\PSoC5/Clock_3.c **** #define BCFG2_MASK               (0x80u)
  24:Generated_Source\PSoC5/Clock_3.c **** #define CLK_DIST_DMASK           (* (reg8 *) CYREG_CLKDIST_DMASK)
  25:Generated_Source\PSoC5/Clock_3.c **** #define CLK_DIST_AMASK           (* (reg8 *) CYREG_CLKDIST_AMASK)
  26:Generated_Source\PSoC5/Clock_3.c **** 
  27:Generated_Source\PSoC5/Clock_3.c **** #define HAS_CLKDIST_LD_DISABLE   (CY_PSOC3 || CY_PSOC5LP)
  28:Generated_Source\PSoC5/Clock_3.c **** 
  29:Generated_Source\PSoC5/Clock_3.c **** 
  30:Generated_Source\PSoC5/Clock_3.c **** /*******************************************************************************
  31:Generated_Source\PSoC5/Clock_3.c **** * Function Name: Clock_3_Start
  32:Generated_Source\PSoC5/Clock_3.c **** ********************************************************************************
  33:Generated_Source\PSoC5/Clock_3.c **** *
  34:Generated_Source\PSoC5/Clock_3.c **** * Summary:
  35:Generated_Source\PSoC5/Clock_3.c **** *  Starts the clock. Note that on startup, clocks may be already running if the
  36:Generated_Source\PSoC5/Clock_3.c **** *  "Start on Reset" option is enabled in the DWR.
  37:Generated_Source\PSoC5/Clock_3.c **** *
  38:Generated_Source\PSoC5/Clock_3.c **** * Parameters:
  39:Generated_Source\PSoC5/Clock_3.c **** *  None
  40:Generated_Source\PSoC5/Clock_3.c **** *
  41:Generated_Source\PSoC5/Clock_3.c **** * Returns:
  42:Generated_Source\PSoC5/Clock_3.c **** *  None
  43:Generated_Source\PSoC5/Clock_3.c **** *
  44:Generated_Source\PSoC5/Clock_3.c **** *******************************************************************************/
ARM GAS  C:\Users\Luggi\AppData\Local\Temp\ccT3dMHn.s 			page 43


  45:Generated_Source\PSoC5/Clock_3.c **** void Clock_3_Start(void) 
  46:Generated_Source\PSoC5/Clock_3.c **** {
 554              		.loc 1 46 0
 555              		.cfi_startproc
 556              		@ args = 0, pretend = 0, frame = 0
 557              		@ frame_needed = 0, uses_anonymous_args = 0
 558              		@ link register save eliminated.
  47:Generated_Source\PSoC5/Clock_3.c ****     /* Set the bit to enable the clock. */
  48:Generated_Source\PSoC5/Clock_3.c ****     Clock_3_CLKEN |= Clock_3_CLKEN_MASK;
 559              		.loc 1 48 0
 560 0000 054A     		ldr	r2, .L2
 561 0002 1378     		ldrb	r3, [r2]	@ zero_extendqisi2
 562 0004 43F00203 		orr	r3, r3, #2
 563 0008 1370     		strb	r3, [r2]
  49:Generated_Source\PSoC5/Clock_3.c **** 	Clock_3_CLKSTBY |= Clock_3_CLKSTBY_MASK;
 564              		.loc 1 49 0
 565 000a 1032     		adds	r2, r2, #16
 566 000c 1378     		ldrb	r3, [r2]	@ zero_extendqisi2
 567 000e 43F00203 		orr	r3, r3, #2
 568 0012 1370     		strb	r3, [r2]
 569 0014 7047     		bx	lr
 570              	.L3:
 571 0016 00BF     		.align	2
 572              	.L2:
 573 0018 A2430040 		.word	1073759138
 574              		.cfi_endproc
 575              	.LFE0:
 576              		.size	Clock_3_Start, .-Clock_3_Start
 577              		.section	.text.Clock_3_Stop,"ax",%progbits
 578              		.align	2
 579              		.global	Clock_3_Stop
 580              		.thumb
 581              		.thumb_func
 582              		.type	Clock_3_Stop, %function
 583              	Clock_3_Stop:
 584              	.LFB1:
  50:Generated_Source\PSoC5/Clock_3.c **** }
  51:Generated_Source\PSoC5/Clock_3.c **** 
  52:Generated_Source\PSoC5/Clock_3.c **** 
  53:Generated_Source\PSoC5/Clock_3.c **** /*******************************************************************************
  54:Generated_Source\PSoC5/Clock_3.c **** * Function Name: Clock_3_Stop
  55:Generated_Source\PSoC5/Clock_3.c **** ********************************************************************************
  56:Generated_Source\PSoC5/Clock_3.c **** *
  57:Generated_Source\PSoC5/Clock_3.c **** * Summary:
  58:Generated_Source\PSoC5/Clock_3.c **** *  Stops the clock and returns immediately. This API does not require the
  59:Generated_Source\PSoC5/Clock_3.c **** *  source clock to be running but may return before the hardware is actually
  60:Generated_Source\PSoC5/Clock_3.c **** *  disabled. If the settings of the clock are changed after calling this
  61:Generated_Source\PSoC5/Clock_3.c **** *  function, the clock may glitch when it is started. To avoid the clock
  62:Generated_Source\PSoC5/Clock_3.c **** *  glitch, use the StopBlock function.
  63:Generated_Source\PSoC5/Clock_3.c **** *
  64:Generated_Source\PSoC5/Clock_3.c **** * Parameters:
  65:Generated_Source\PSoC5/Clock_3.c **** *  None
  66:Generated_Source\PSoC5/Clock_3.c **** *
  67:Generated_Source\PSoC5/Clock_3.c **** * Returns:
  68:Generated_Source\PSoC5/Clock_3.c **** *  None
  69:Generated_Source\PSoC5/Clock_3.c **** *
  70:Generated_Source\PSoC5/Clock_3.c **** *******************************************************************************/
ARM GAS  C:\Users\Luggi\AppData\Local\Temp\ccT3dMHn.s 			page 44


  71:Generated_Source\PSoC5/Clock_3.c **** void Clock_3_Stop(void) 
  72:Generated_Source\PSoC5/Clock_3.c **** {
 585              		.loc 1 72 0
 586              		.cfi_startproc
 587              		@ args = 0, pretend = 0, frame = 0
 588              		@ frame_needed = 0, uses_anonymous_args = 0
 589              		@ link register save eliminated.
  73:Generated_Source\PSoC5/Clock_3.c ****     /* Clear the bit to disable the clock. */
  74:Generated_Source\PSoC5/Clock_3.c ****     Clock_3_CLKEN &= (uint8)(~Clock_3_CLKEN_MASK);
 590              		.loc 1 74 0
 591 0000 054A     		ldr	r2, .L5
 592 0002 1378     		ldrb	r3, [r2]	@ zero_extendqisi2
 593 0004 03F0FD03 		and	r3, r3, #253
 594 0008 1370     		strb	r3, [r2]
  75:Generated_Source\PSoC5/Clock_3.c **** 	Clock_3_CLKSTBY &= (uint8)(~Clock_3_CLKSTBY_MASK);
 595              		.loc 1 75 0
 596 000a 1032     		adds	r2, r2, #16
 597 000c 1378     		ldrb	r3, [r2]	@ zero_extendqisi2
 598 000e 03F0FD03 		and	r3, r3, #253
 599 0012 1370     		strb	r3, [r2]
 600 0014 7047     		bx	lr
 601              	.L6:
 602 0016 00BF     		.align	2
 603              	.L5:
 604 0018 A2430040 		.word	1073759138
 605              		.cfi_endproc
 606              	.LFE1:
 607              		.size	Clock_3_Stop, .-Clock_3_Stop
 608              		.section	.text.Clock_3_StopBlock,"ax",%progbits
 609              		.align	2
 610              		.global	Clock_3_StopBlock
 611              		.thumb
 612              		.thumb_func
 613              		.type	Clock_3_StopBlock, %function
 614              	Clock_3_StopBlock:
 615              	.LFB2:
  76:Generated_Source\PSoC5/Clock_3.c **** }
  77:Generated_Source\PSoC5/Clock_3.c **** 
  78:Generated_Source\PSoC5/Clock_3.c **** 
  79:Generated_Source\PSoC5/Clock_3.c **** #if(CY_PSOC3 || CY_PSOC5LP)
  80:Generated_Source\PSoC5/Clock_3.c **** 
  81:Generated_Source\PSoC5/Clock_3.c **** 
  82:Generated_Source\PSoC5/Clock_3.c **** /*******************************************************************************
  83:Generated_Source\PSoC5/Clock_3.c **** * Function Name: Clock_3_StopBlock
  84:Generated_Source\PSoC5/Clock_3.c **** ********************************************************************************
  85:Generated_Source\PSoC5/Clock_3.c **** *
  86:Generated_Source\PSoC5/Clock_3.c **** * Summary:
  87:Generated_Source\PSoC5/Clock_3.c **** *  Stops the clock and waits for the hardware to actually be disabled before
  88:Generated_Source\PSoC5/Clock_3.c **** *  returning. This ensures that the clock is never truncated (high part of the
  89:Generated_Source\PSoC5/Clock_3.c **** *  cycle will terminate before the clock is disabled and the API returns).
  90:Generated_Source\PSoC5/Clock_3.c **** *  Note that the source clock must be running or this API will never return as
  91:Generated_Source\PSoC5/Clock_3.c **** *  a stopped clock cannot be disabled.
  92:Generated_Source\PSoC5/Clock_3.c **** *
  93:Generated_Source\PSoC5/Clock_3.c **** * Parameters:
  94:Generated_Source\PSoC5/Clock_3.c **** *  None
  95:Generated_Source\PSoC5/Clock_3.c **** *
  96:Generated_Source\PSoC5/Clock_3.c **** * Returns:
ARM GAS  C:\Users\Luggi\AppData\Local\Temp\ccT3dMHn.s 			page 45


  97:Generated_Source\PSoC5/Clock_3.c **** *  None
  98:Generated_Source\PSoC5/Clock_3.c **** *
  99:Generated_Source\PSoC5/Clock_3.c **** *******************************************************************************/
 100:Generated_Source\PSoC5/Clock_3.c **** void Clock_3_StopBlock(void) 
 101:Generated_Source\PSoC5/Clock_3.c **** {
 616              		.loc 1 101 0
 617              		.cfi_startproc
 618              		@ args = 0, pretend = 0, frame = 0
 619              		@ frame_needed = 0, uses_anonymous_args = 0
 620              		@ link register save eliminated.
 102:Generated_Source\PSoC5/Clock_3.c ****     if ((Clock_3_CLKEN & Clock_3_CLKEN_MASK) != 0u)
 621              		.loc 1 102 0
 622 0000 164B     		ldr	r3, .L10
 623 0002 1B78     		ldrb	r3, [r3]	@ zero_extendqisi2
 624 0004 13F0020F 		tst	r3, #2
 625 0008 27D0     		beq	.L7
 626              	.LBB2:
 103:Generated_Source\PSoC5/Clock_3.c ****     {
 104:Generated_Source\PSoC5/Clock_3.c **** #if HAS_CLKDIST_LD_DISABLE
 105:Generated_Source\PSoC5/Clock_3.c ****         uint16 oldDivider;
 106:Generated_Source\PSoC5/Clock_3.c **** 
 107:Generated_Source\PSoC5/Clock_3.c ****         CLK_DIST_LD = 0u;
 627              		.loc 1 107 0
 628 000a 1549     		ldr	r1, .L10+4
 629 000c 0023     		movs	r3, #0
 630 000e 0B70     		strb	r3, [r1]
 108:Generated_Source\PSoC5/Clock_3.c **** 
 109:Generated_Source\PSoC5/Clock_3.c ****         /* Clear all the mask bits except ours. */
 110:Generated_Source\PSoC5/Clock_3.c **** #if defined(Clock_3__CFG3)
 111:Generated_Source\PSoC5/Clock_3.c ****         CLK_DIST_AMASK = Clock_3_CLKEN_MASK;
 112:Generated_Source\PSoC5/Clock_3.c ****         CLK_DIST_DMASK = 0x00u;
 113:Generated_Source\PSoC5/Clock_3.c **** #else
 114:Generated_Source\PSoC5/Clock_3.c ****         CLK_DIST_DMASK = Clock_3_CLKEN_MASK;
 631              		.loc 1 114 0
 632 0010 0220     		movs	r0, #2
 633 0012 144A     		ldr	r2, .L10+8
 634 0014 1070     		strb	r0, [r2]
 115:Generated_Source\PSoC5/Clock_3.c ****         CLK_DIST_AMASK = 0x00u;
 635              		.loc 1 115 0
 636 0016 0432     		adds	r2, r2, #4
 637 0018 1370     		strb	r3, [r2]
 116:Generated_Source\PSoC5/Clock_3.c **** #endif /* Clock_3__CFG3 */
 117:Generated_Source\PSoC5/Clock_3.c **** 
 118:Generated_Source\PSoC5/Clock_3.c ****         /* Clear mask of bus clock. */
 119:Generated_Source\PSoC5/Clock_3.c ****         CLK_DIST_BCFG2 &= (uint8)(~BCFG2_MASK);
 638              		.loc 1 119 0
 639 001a 0C3A     		subs	r2, r2, #12
 640 001c 1378     		ldrb	r3, [r2]	@ zero_extendqisi2
 641 001e 03F07F03 		and	r3, r3, #127
 642 0022 1370     		strb	r3, [r2]
 120:Generated_Source\PSoC5/Clock_3.c **** 
 121:Generated_Source\PSoC5/Clock_3.c ****         oldDivider = CY_GET_REG16(Clock_3_DIV_PTR);
 643              		.loc 1 121 0
 644 0024 104B     		ldr	r3, .L10+12
 645 0026 1A88     		ldrh	r2, [r3]
 646 0028 92B2     		uxth	r2, r2
 647              	.LVL0:
ARM GAS  C:\Users\Luggi\AppData\Local\Temp\ccT3dMHn.s 			page 46


 122:Generated_Source\PSoC5/Clock_3.c ****         CY_SET_REG16(CYREG_CLKDIST_WRK0, oldDivider);
 648              		.loc 1 122 0
 649 002a 823B     		subs	r3, r3, #130
 650 002c 1A80     		strh	r2, [r3]	@ movhi
 123:Generated_Source\PSoC5/Clock_3.c ****         CLK_DIST_LD = CYCLK_LD_DISABLE | CYCLK_LD_SYNC_EN | CYCLK_LD_LOAD;
 651              		.loc 1 123 0
 652 002e 0723     		movs	r3, #7
 653 0030 0B70     		strb	r3, [r1]
 654              	.L9:
 124:Generated_Source\PSoC5/Clock_3.c **** 
 125:Generated_Source\PSoC5/Clock_3.c ****         /* Wait for clock to be disabled */
 126:Generated_Source\PSoC5/Clock_3.c ****         while ((CLK_DIST_LD & CYCLK_LD_LOAD) != 0u) { }
 655              		.loc 1 126 0 discriminator 1
 656 0032 0B4B     		ldr	r3, .L10+4
 657 0034 1B78     		ldrb	r3, [r3]	@ zero_extendqisi2
 658 0036 13F0010F 		tst	r3, #1
 659 003a FAD1     		bne	.L9
 127:Generated_Source\PSoC5/Clock_3.c **** #endif /* HAS_CLKDIST_LD_DISABLE */
 128:Generated_Source\PSoC5/Clock_3.c **** 
 129:Generated_Source\PSoC5/Clock_3.c ****         /* Clear the bit to disable the clock. */
 130:Generated_Source\PSoC5/Clock_3.c ****         Clock_3_CLKEN &= (uint8)(~Clock_3_CLKEN_MASK);
 660              		.loc 1 130 0
 661 003c 0749     		ldr	r1, .L10
 662 003e 0B78     		ldrb	r3, [r1]	@ zero_extendqisi2
 663 0040 03F0FD03 		and	r3, r3, #253
 664 0044 0B70     		strb	r3, [r1]
 131:Generated_Source\PSoC5/Clock_3.c ****         Clock_3_CLKSTBY &= (uint8)(~Clock_3_CLKSTBY_MASK);
 665              		.loc 1 131 0
 666 0046 1031     		adds	r1, r1, #16
 667 0048 0B78     		ldrb	r3, [r1]	@ zero_extendqisi2
 668 004a 03F0FD03 		and	r3, r3, #253
 669 004e 0B70     		strb	r3, [r1]
 132:Generated_Source\PSoC5/Clock_3.c **** 
 133:Generated_Source\PSoC5/Clock_3.c **** #if HAS_CLKDIST_LD_DISABLE
 134:Generated_Source\PSoC5/Clock_3.c ****         /* Clear the disable bit */
 135:Generated_Source\PSoC5/Clock_3.c ****         CLK_DIST_LD = 0x00u;
 670              		.loc 1 135 0
 671 0050 0021     		movs	r1, #0
 672 0052 034B     		ldr	r3, .L10+4
 673 0054 1970     		strb	r1, [r3]
 136:Generated_Source\PSoC5/Clock_3.c ****         CY_SET_REG16(Clock_3_DIV_PTR, oldDivider);
 674              		.loc 1 136 0
 675 0056 8333     		adds	r3, r3, #131
 676 0058 1A80     		strh	r2, [r3]	@ movhi
 677              	.LVL1:
 678              	.L7:
 679 005a 7047     		bx	lr
 680              	.L11:
 681              		.align	2
 682              	.L10:
 683 005c A2430040 		.word	1073759138
 684 0060 01400040 		.word	1073758209
 685 0064 10400040 		.word	1073758224
 686 0068 84400040 		.word	1073758340
 687              	.LBE2:
 688              		.cfi_endproc
 689              	.LFE2:
ARM GAS  C:\Users\Luggi\AppData\Local\Temp\ccT3dMHn.s 			page 47


 690              		.size	Clock_3_StopBlock, .-Clock_3_StopBlock
 691              		.section	.text.Clock_3_StandbyPower,"ax",%progbits
 692              		.align	2
 693              		.global	Clock_3_StandbyPower
 694              		.thumb
 695              		.thumb_func
 696              		.type	Clock_3_StandbyPower, %function
 697              	Clock_3_StandbyPower:
 698              	.LFB3:
 137:Generated_Source\PSoC5/Clock_3.c **** #endif /* HAS_CLKDIST_LD_DISABLE */
 138:Generated_Source\PSoC5/Clock_3.c ****     }
 139:Generated_Source\PSoC5/Clock_3.c **** }
 140:Generated_Source\PSoC5/Clock_3.c **** #endif /* (CY_PSOC3 || CY_PSOC5LP) */
 141:Generated_Source\PSoC5/Clock_3.c **** 
 142:Generated_Source\PSoC5/Clock_3.c **** 
 143:Generated_Source\PSoC5/Clock_3.c **** /*******************************************************************************
 144:Generated_Source\PSoC5/Clock_3.c **** * Function Name: Clock_3_StandbyPower
 145:Generated_Source\PSoC5/Clock_3.c **** ********************************************************************************
 146:Generated_Source\PSoC5/Clock_3.c **** *
 147:Generated_Source\PSoC5/Clock_3.c **** * Summary:
 148:Generated_Source\PSoC5/Clock_3.c **** *  Sets whether the clock is active in standby mode.
 149:Generated_Source\PSoC5/Clock_3.c **** *
 150:Generated_Source\PSoC5/Clock_3.c **** * Parameters:
 151:Generated_Source\PSoC5/Clock_3.c **** *  state:  0 to disable clock during standby, nonzero to enable.
 152:Generated_Source\PSoC5/Clock_3.c **** *
 153:Generated_Source\PSoC5/Clock_3.c **** * Returns:
 154:Generated_Source\PSoC5/Clock_3.c **** *  None
 155:Generated_Source\PSoC5/Clock_3.c **** *
 156:Generated_Source\PSoC5/Clock_3.c **** *******************************************************************************/
 157:Generated_Source\PSoC5/Clock_3.c **** void Clock_3_StandbyPower(uint8 state) 
 158:Generated_Source\PSoC5/Clock_3.c **** {
 699              		.loc 1 158 0
 700              		.cfi_startproc
 701              		@ args = 0, pretend = 0, frame = 0
 702              		@ frame_needed = 0, uses_anonymous_args = 0
 703              		@ link register save eliminated.
 704              	.LVL2:
 159:Generated_Source\PSoC5/Clock_3.c ****     if(state == 0u)
 705              		.loc 1 159 0
 706 0000 28B9     		cbnz	r0, .L13
 160:Generated_Source\PSoC5/Clock_3.c ****     {
 161:Generated_Source\PSoC5/Clock_3.c ****         Clock_3_CLKSTBY &= (uint8)(~Clock_3_CLKSTBY_MASK);
 707              		.loc 1 161 0
 708 0002 064A     		ldr	r2, .L15
 709 0004 1378     		ldrb	r3, [r2]	@ zero_extendqisi2
 710 0006 03F0FD03 		and	r3, r3, #253
 711 000a 1370     		strb	r3, [r2]
 712 000c 7047     		bx	lr
 713              	.L13:
 162:Generated_Source\PSoC5/Clock_3.c ****     }
 163:Generated_Source\PSoC5/Clock_3.c ****     else
 164:Generated_Source\PSoC5/Clock_3.c ****     {
 165:Generated_Source\PSoC5/Clock_3.c ****         Clock_3_CLKSTBY |= Clock_3_CLKSTBY_MASK;
 714              		.loc 1 165 0
 715 000e 034A     		ldr	r2, .L15
 716 0010 1378     		ldrb	r3, [r2]	@ zero_extendqisi2
 717 0012 43F00203 		orr	r3, r3, #2
ARM GAS  C:\Users\Luggi\AppData\Local\Temp\ccT3dMHn.s 			page 48


 718 0016 1370     		strb	r3, [r2]
 719 0018 7047     		bx	lr
 720              	.L16:
 721 001a 00BF     		.align	2
 722              	.L15:
 723 001c B2430040 		.word	1073759154
 724              		.cfi_endproc
 725              	.LFE3:
 726              		.size	Clock_3_StandbyPower, .-Clock_3_StandbyPower
 727              		.section	.text.Clock_3_GetDividerRegister,"ax",%progbits
 728              		.align	2
 729              		.global	Clock_3_GetDividerRegister
 730              		.thumb
 731              		.thumb_func
 732              		.type	Clock_3_GetDividerRegister, %function
 733              	Clock_3_GetDividerRegister:
 734              	.LFB5:
 166:Generated_Source\PSoC5/Clock_3.c ****     }
 167:Generated_Source\PSoC5/Clock_3.c **** }
 168:Generated_Source\PSoC5/Clock_3.c **** 
 169:Generated_Source\PSoC5/Clock_3.c **** 
 170:Generated_Source\PSoC5/Clock_3.c **** /*******************************************************************************
 171:Generated_Source\PSoC5/Clock_3.c **** * Function Name: Clock_3_SetDividerRegister
 172:Generated_Source\PSoC5/Clock_3.c **** ********************************************************************************
 173:Generated_Source\PSoC5/Clock_3.c **** *
 174:Generated_Source\PSoC5/Clock_3.c **** * Summary:
 175:Generated_Source\PSoC5/Clock_3.c **** *  Modifies the clock divider and, thus, the frequency. When the clock divider
 176:Generated_Source\PSoC5/Clock_3.c **** *  register is set to zero or changed from zero, the clock will be temporarily
 177:Generated_Source\PSoC5/Clock_3.c **** *  disabled in order to change the SSS mode bit. If the clock is enabled when
 178:Generated_Source\PSoC5/Clock_3.c **** *  SetDividerRegister is called, then the source clock must be running.
 179:Generated_Source\PSoC5/Clock_3.c **** *
 180:Generated_Source\PSoC5/Clock_3.c **** * Parameters:
 181:Generated_Source\PSoC5/Clock_3.c **** *  clkDivider:  Divider register value (0-65,535). This value is NOT the
 182:Generated_Source\PSoC5/Clock_3.c **** *    divider; the clock hardware divides by clkDivider plus one. For example,
 183:Generated_Source\PSoC5/Clock_3.c **** *    to divide the clock by 2, this parameter should be set to 1.
 184:Generated_Source\PSoC5/Clock_3.c **** *  restart:  If nonzero, restarts the clock divider: the current clock cycle
 185:Generated_Source\PSoC5/Clock_3.c **** *   will be truncated and the new divide value will take effect immediately. If
 186:Generated_Source\PSoC5/Clock_3.c **** *   zero, the new divide value will take effect at the end of the current clock
 187:Generated_Source\PSoC5/Clock_3.c **** *   cycle.
 188:Generated_Source\PSoC5/Clock_3.c **** *
 189:Generated_Source\PSoC5/Clock_3.c **** * Returns:
 190:Generated_Source\PSoC5/Clock_3.c **** *  None
 191:Generated_Source\PSoC5/Clock_3.c **** *
 192:Generated_Source\PSoC5/Clock_3.c **** *******************************************************************************/
 193:Generated_Source\PSoC5/Clock_3.c **** void Clock_3_SetDividerRegister(uint16 clkDivider, uint8 restart)
 194:Generated_Source\PSoC5/Clock_3.c ****                                 
 195:Generated_Source\PSoC5/Clock_3.c **** {
 196:Generated_Source\PSoC5/Clock_3.c ****     uint8 enabled;
 197:Generated_Source\PSoC5/Clock_3.c **** 
 198:Generated_Source\PSoC5/Clock_3.c ****     uint8 currSrc = Clock_3_GetSourceRegister();
 199:Generated_Source\PSoC5/Clock_3.c ****     uint16 oldDivider = Clock_3_GetDividerRegister();
 200:Generated_Source\PSoC5/Clock_3.c **** 
 201:Generated_Source\PSoC5/Clock_3.c ****     if (clkDivider != oldDivider)
 202:Generated_Source\PSoC5/Clock_3.c ****     {
 203:Generated_Source\PSoC5/Clock_3.c ****         enabled = Clock_3_CLKEN & Clock_3_CLKEN_MASK;
 204:Generated_Source\PSoC5/Clock_3.c **** 
 205:Generated_Source\PSoC5/Clock_3.c ****         if ((currSrc == (uint8)CYCLK_SRC_SEL_CLK_SYNC_D) && ((oldDivider == 0u) || (clkDivider == 0
ARM GAS  C:\Users\Luggi\AppData\Local\Temp\ccT3dMHn.s 			page 49


 206:Generated_Source\PSoC5/Clock_3.c ****         {
 207:Generated_Source\PSoC5/Clock_3.c ****             /* Moving to/from SSS requires correct ordering to prevent halting the clock    */
 208:Generated_Source\PSoC5/Clock_3.c ****             if (oldDivider == 0u)
 209:Generated_Source\PSoC5/Clock_3.c ****             {
 210:Generated_Source\PSoC5/Clock_3.c ****                 /* Moving away from SSS, set the divider first so when SSS is cleared we    */
 211:Generated_Source\PSoC5/Clock_3.c ****                 /* don't halt the clock.  Using the shadow load isn't required as the       */
 212:Generated_Source\PSoC5/Clock_3.c ****                 /* divider is ignored while SSS is set.                                     */
 213:Generated_Source\PSoC5/Clock_3.c ****                 CY_SET_REG16(Clock_3_DIV_PTR, clkDivider);
 214:Generated_Source\PSoC5/Clock_3.c ****                 Clock_3_MOD_SRC &= (uint8)(~CYCLK_SSS);
 215:Generated_Source\PSoC5/Clock_3.c ****             }
 216:Generated_Source\PSoC5/Clock_3.c ****             else
 217:Generated_Source\PSoC5/Clock_3.c ****             {
 218:Generated_Source\PSoC5/Clock_3.c ****                 /* Moving to SSS, set SSS which then ignores the divider and we can set     */
 219:Generated_Source\PSoC5/Clock_3.c ****                 /* it without bothering with the shadow load.                               */
 220:Generated_Source\PSoC5/Clock_3.c ****                 Clock_3_MOD_SRC |= CYCLK_SSS;
 221:Generated_Source\PSoC5/Clock_3.c ****                 CY_SET_REG16(Clock_3_DIV_PTR, clkDivider);
 222:Generated_Source\PSoC5/Clock_3.c ****             }
 223:Generated_Source\PSoC5/Clock_3.c ****         }
 224:Generated_Source\PSoC5/Clock_3.c ****         else
 225:Generated_Source\PSoC5/Clock_3.c ****         {
 226:Generated_Source\PSoC5/Clock_3.c **** 			
 227:Generated_Source\PSoC5/Clock_3.c ****             if (enabled != 0u)
 228:Generated_Source\PSoC5/Clock_3.c ****             {
 229:Generated_Source\PSoC5/Clock_3.c ****                 CLK_DIST_LD = 0x00u;
 230:Generated_Source\PSoC5/Clock_3.c **** 
 231:Generated_Source\PSoC5/Clock_3.c ****                 /* Clear all the mask bits except ours. */
 232:Generated_Source\PSoC5/Clock_3.c **** #if defined(Clock_3__CFG3)
 233:Generated_Source\PSoC5/Clock_3.c ****                 CLK_DIST_AMASK = Clock_3_CLKEN_MASK;
 234:Generated_Source\PSoC5/Clock_3.c ****                 CLK_DIST_DMASK = 0x00u;
 235:Generated_Source\PSoC5/Clock_3.c **** #else
 236:Generated_Source\PSoC5/Clock_3.c ****                 CLK_DIST_DMASK = Clock_3_CLKEN_MASK;
 237:Generated_Source\PSoC5/Clock_3.c ****                 CLK_DIST_AMASK = 0x00u;
 238:Generated_Source\PSoC5/Clock_3.c **** #endif /* Clock_3__CFG3 */
 239:Generated_Source\PSoC5/Clock_3.c ****                 /* Clear mask of bus clock. */
 240:Generated_Source\PSoC5/Clock_3.c ****                 CLK_DIST_BCFG2 &= (uint8)(~BCFG2_MASK);
 241:Generated_Source\PSoC5/Clock_3.c **** 
 242:Generated_Source\PSoC5/Clock_3.c ****                 /* If clock is currently enabled, disable it if async or going from N-to-1*/
 243:Generated_Source\PSoC5/Clock_3.c ****                 if (((Clock_3_MOD_SRC & CYCLK_SYNC) == 0u) || (clkDivider == 0u))
 244:Generated_Source\PSoC5/Clock_3.c ****                 {
 245:Generated_Source\PSoC5/Clock_3.c **** #if HAS_CLKDIST_LD_DISABLE
 246:Generated_Source\PSoC5/Clock_3.c ****                     CY_SET_REG16(CYREG_CLKDIST_WRK0, oldDivider);
 247:Generated_Source\PSoC5/Clock_3.c ****                     CLK_DIST_LD = CYCLK_LD_DISABLE|CYCLK_LD_SYNC_EN|CYCLK_LD_LOAD;
 248:Generated_Source\PSoC5/Clock_3.c **** 
 249:Generated_Source\PSoC5/Clock_3.c ****                     /* Wait for clock to be disabled */
 250:Generated_Source\PSoC5/Clock_3.c ****                     while ((CLK_DIST_LD & CYCLK_LD_LOAD) != 0u) { }
 251:Generated_Source\PSoC5/Clock_3.c **** #endif /* HAS_CLKDIST_LD_DISABLE */
 252:Generated_Source\PSoC5/Clock_3.c **** 
 253:Generated_Source\PSoC5/Clock_3.c ****                     Clock_3_CLKEN &= (uint8)(~Clock_3_CLKEN_MASK);
 254:Generated_Source\PSoC5/Clock_3.c **** 
 255:Generated_Source\PSoC5/Clock_3.c **** #if HAS_CLKDIST_LD_DISABLE
 256:Generated_Source\PSoC5/Clock_3.c ****                     /* Clear the disable bit */
 257:Generated_Source\PSoC5/Clock_3.c ****                     CLK_DIST_LD = 0x00u;
 258:Generated_Source\PSoC5/Clock_3.c **** #endif /* HAS_CLKDIST_LD_DISABLE */
 259:Generated_Source\PSoC5/Clock_3.c ****                 }
 260:Generated_Source\PSoC5/Clock_3.c ****             }
 261:Generated_Source\PSoC5/Clock_3.c **** 
 262:Generated_Source\PSoC5/Clock_3.c ****             /* Load divide value. */
ARM GAS  C:\Users\Luggi\AppData\Local\Temp\ccT3dMHn.s 			page 50


 263:Generated_Source\PSoC5/Clock_3.c ****             if ((Clock_3_CLKEN & Clock_3_CLKEN_MASK) != 0u)
 264:Generated_Source\PSoC5/Clock_3.c ****             {
 265:Generated_Source\PSoC5/Clock_3.c ****                 /* If the clock is still enabled, use the shadow registers */
 266:Generated_Source\PSoC5/Clock_3.c ****                 CY_SET_REG16(CYREG_CLKDIST_WRK0, clkDivider);
 267:Generated_Source\PSoC5/Clock_3.c **** 
 268:Generated_Source\PSoC5/Clock_3.c ****                 CLK_DIST_LD = (CYCLK_LD_LOAD | ((restart != 0u) ? CYCLK_LD_SYNC_EN : 0x00u));
 269:Generated_Source\PSoC5/Clock_3.c ****                 while ((CLK_DIST_LD & CYCLK_LD_LOAD) != 0u) { }
 270:Generated_Source\PSoC5/Clock_3.c ****             }
 271:Generated_Source\PSoC5/Clock_3.c ****             else
 272:Generated_Source\PSoC5/Clock_3.c ****             {
 273:Generated_Source\PSoC5/Clock_3.c ****                 /* If the clock is disabled, set the divider directly */
 274:Generated_Source\PSoC5/Clock_3.c ****                 CY_SET_REG16(Clock_3_DIV_PTR, clkDivider);
 275:Generated_Source\PSoC5/Clock_3.c **** 				Clock_3_CLKEN |= enabled;
 276:Generated_Source\PSoC5/Clock_3.c ****             }
 277:Generated_Source\PSoC5/Clock_3.c ****         }
 278:Generated_Source\PSoC5/Clock_3.c ****     }
 279:Generated_Source\PSoC5/Clock_3.c **** }
 280:Generated_Source\PSoC5/Clock_3.c **** 
 281:Generated_Source\PSoC5/Clock_3.c **** 
 282:Generated_Source\PSoC5/Clock_3.c **** /*******************************************************************************
 283:Generated_Source\PSoC5/Clock_3.c **** * Function Name: Clock_3_GetDividerRegister
 284:Generated_Source\PSoC5/Clock_3.c **** ********************************************************************************
 285:Generated_Source\PSoC5/Clock_3.c **** *
 286:Generated_Source\PSoC5/Clock_3.c **** * Summary:
 287:Generated_Source\PSoC5/Clock_3.c **** *  Gets the clock divider register value.
 288:Generated_Source\PSoC5/Clock_3.c **** *
 289:Generated_Source\PSoC5/Clock_3.c **** * Parameters:
 290:Generated_Source\PSoC5/Clock_3.c **** *  None
 291:Generated_Source\PSoC5/Clock_3.c **** *
 292:Generated_Source\PSoC5/Clock_3.c **** * Returns:
 293:Generated_Source\PSoC5/Clock_3.c **** *  Divide value of the clock minus 1. For example, if the clock is set to
 294:Generated_Source\PSoC5/Clock_3.c **** *  divide by 2, the return value will be 1.
 295:Generated_Source\PSoC5/Clock_3.c **** *
 296:Generated_Source\PSoC5/Clock_3.c **** *******************************************************************************/
 297:Generated_Source\PSoC5/Clock_3.c **** uint16 Clock_3_GetDividerRegister(void) 
 298:Generated_Source\PSoC5/Clock_3.c **** {
 735              		.loc 1 298 0
 736              		.cfi_startproc
 737              		@ args = 0, pretend = 0, frame = 0
 738              		@ frame_needed = 0, uses_anonymous_args = 0
 739              		@ link register save eliminated.
 299:Generated_Source\PSoC5/Clock_3.c ****     return CY_GET_REG16(Clock_3_DIV_PTR);
 740              		.loc 1 299 0
 741 0000 014B     		ldr	r3, .L18
 742 0002 1888     		ldrh	r0, [r3]
 300:Generated_Source\PSoC5/Clock_3.c **** }
 743              		.loc 1 300 0
 744 0004 80B2     		uxth	r0, r0
 745 0006 7047     		bx	lr
 746              	.L19:
 747              		.align	2
 748              	.L18:
 749 0008 84400040 		.word	1073758340
 750              		.cfi_endproc
 751              	.LFE5:
 752              		.size	Clock_3_GetDividerRegister, .-Clock_3_GetDividerRegister
 753              		.section	.text.Clock_3_SetModeRegister,"ax",%progbits
ARM GAS  C:\Users\Luggi\AppData\Local\Temp\ccT3dMHn.s 			page 51


 754              		.align	2
 755              		.global	Clock_3_SetModeRegister
 756              		.thumb
 757              		.thumb_func
 758              		.type	Clock_3_SetModeRegister, %function
 759              	Clock_3_SetModeRegister:
 760              	.LFB6:
 301:Generated_Source\PSoC5/Clock_3.c **** 
 302:Generated_Source\PSoC5/Clock_3.c **** 
 303:Generated_Source\PSoC5/Clock_3.c **** /*******************************************************************************
 304:Generated_Source\PSoC5/Clock_3.c **** * Function Name: Clock_3_SetModeRegister
 305:Generated_Source\PSoC5/Clock_3.c **** ********************************************************************************
 306:Generated_Source\PSoC5/Clock_3.c **** *
 307:Generated_Source\PSoC5/Clock_3.c **** * Summary:
 308:Generated_Source\PSoC5/Clock_3.c **** *  Sets flags that control the operating mode of the clock. This function only
 309:Generated_Source\PSoC5/Clock_3.c **** *  changes flags from 0 to 1; flags that are already 1 will remain unchanged.
 310:Generated_Source\PSoC5/Clock_3.c **** *  To clear flags, use the ClearModeRegister function. The clock must be
 311:Generated_Source\PSoC5/Clock_3.c **** *  disabled before changing the mode.
 312:Generated_Source\PSoC5/Clock_3.c **** *
 313:Generated_Source\PSoC5/Clock_3.c **** * Parameters:
 314:Generated_Source\PSoC5/Clock_3.c **** *  clkMode: Bit mask containing the bits to set. For PSoC 3 and PSoC 5,
 315:Generated_Source\PSoC5/Clock_3.c **** *   clkMode should be a set of the following optional bits or'ed together.
 316:Generated_Source\PSoC5/Clock_3.c **** *   - CYCLK_EARLY Enable early phase mode. Rising edge of output clock will
 317:Generated_Source\PSoC5/Clock_3.c **** *                 occur when the divider count reaches half of the divide
 318:Generated_Source\PSoC5/Clock_3.c **** *                 value.
 319:Generated_Source\PSoC5/Clock_3.c **** *   - CYCLK_DUTY  Enable 50% duty cycle output. When enabled, the output clock
 320:Generated_Source\PSoC5/Clock_3.c **** *                 is asserted for approximately half of its period. When
 321:Generated_Source\PSoC5/Clock_3.c **** *                 disabled, the output clock is asserted for one period of the
 322:Generated_Source\PSoC5/Clock_3.c **** *                 source clock.
 323:Generated_Source\PSoC5/Clock_3.c **** *   - CYCLK_SYNC  Enable output synchronization to master clock. This should
 324:Generated_Source\PSoC5/Clock_3.c **** *                 be enabled for all synchronous clocks.
 325:Generated_Source\PSoC5/Clock_3.c **** *   See the Technical Reference Manual for details about setting the mode of
 326:Generated_Source\PSoC5/Clock_3.c **** *   the clock. Specifically, see the CLKDIST.DCFG.CFG2 register.
 327:Generated_Source\PSoC5/Clock_3.c **** *
 328:Generated_Source\PSoC5/Clock_3.c **** * Returns:
 329:Generated_Source\PSoC5/Clock_3.c **** *  None
 330:Generated_Source\PSoC5/Clock_3.c **** *
 331:Generated_Source\PSoC5/Clock_3.c **** *******************************************************************************/
 332:Generated_Source\PSoC5/Clock_3.c **** void Clock_3_SetModeRegister(uint8 modeBitMask) 
 333:Generated_Source\PSoC5/Clock_3.c **** {
 761              		.loc 1 333 0
 762              		.cfi_startproc
 763              		@ args = 0, pretend = 0, frame = 0
 764              		@ frame_needed = 0, uses_anonymous_args = 0
 765              		@ link register save eliminated.
 766              	.LVL3:
 334:Generated_Source\PSoC5/Clock_3.c ****     Clock_3_MOD_SRC |= modeBitMask & (uint8)Clock_3_MODE_MASK;
 767              		.loc 1 334 0
 768 0000 034B     		ldr	r3, .L21
 769 0002 1A78     		ldrb	r2, [r3]	@ zero_extendqisi2
 770 0004 00F0F800 		and	r0, r0, #248
 771              	.LVL4:
 772 0008 1043     		orrs	r0, r0, r2
 773 000a 1870     		strb	r0, [r3]
 774 000c 7047     		bx	lr
 775              	.L22:
 776 000e 00BF     		.align	2
ARM GAS  C:\Users\Luggi\AppData\Local\Temp\ccT3dMHn.s 			page 52


 777              	.L21:
 778 0010 86400040 		.word	1073758342
 779              		.cfi_endproc
 780              	.LFE6:
 781              		.size	Clock_3_SetModeRegister, .-Clock_3_SetModeRegister
 782              		.section	.text.Clock_3_ClearModeRegister,"ax",%progbits
 783              		.align	2
 784              		.global	Clock_3_ClearModeRegister
 785              		.thumb
 786              		.thumb_func
 787              		.type	Clock_3_ClearModeRegister, %function
 788              	Clock_3_ClearModeRegister:
 789              	.LFB7:
 335:Generated_Source\PSoC5/Clock_3.c **** }
 336:Generated_Source\PSoC5/Clock_3.c **** 
 337:Generated_Source\PSoC5/Clock_3.c **** 
 338:Generated_Source\PSoC5/Clock_3.c **** /*******************************************************************************
 339:Generated_Source\PSoC5/Clock_3.c **** * Function Name: Clock_3_ClearModeRegister
 340:Generated_Source\PSoC5/Clock_3.c **** ********************************************************************************
 341:Generated_Source\PSoC5/Clock_3.c **** *
 342:Generated_Source\PSoC5/Clock_3.c **** * Summary:
 343:Generated_Source\PSoC5/Clock_3.c **** *  Clears flags that control the operating mode of the clock. This function
 344:Generated_Source\PSoC5/Clock_3.c **** *  only changes flags from 1 to 0; flags that are already 0 will remain
 345:Generated_Source\PSoC5/Clock_3.c **** *  unchanged. To set flags, use the SetModeRegister function. The clock must be
 346:Generated_Source\PSoC5/Clock_3.c **** *  disabled before changing the mode.
 347:Generated_Source\PSoC5/Clock_3.c **** *
 348:Generated_Source\PSoC5/Clock_3.c **** * Parameters:
 349:Generated_Source\PSoC5/Clock_3.c **** *  clkMode: Bit mask containing the bits to clear. For PSoC 3 and PSoC 5,
 350:Generated_Source\PSoC5/Clock_3.c **** *   clkMode should be a set of the following optional bits or'ed together.
 351:Generated_Source\PSoC5/Clock_3.c **** *   - CYCLK_EARLY Enable early phase mode. Rising edge of output clock will
 352:Generated_Source\PSoC5/Clock_3.c **** *                 occur when the divider count reaches half of the divide
 353:Generated_Source\PSoC5/Clock_3.c **** *                 value.
 354:Generated_Source\PSoC5/Clock_3.c **** *   - CYCLK_DUTY  Enable 50% duty cycle output. When enabled, the output clock
 355:Generated_Source\PSoC5/Clock_3.c **** *                 is asserted for approximately half of its period. When
 356:Generated_Source\PSoC5/Clock_3.c **** *                 disabled, the output clock is asserted for one period of the
 357:Generated_Source\PSoC5/Clock_3.c **** *                 source clock.
 358:Generated_Source\PSoC5/Clock_3.c **** *   - CYCLK_SYNC  Enable output synchronization to master clock. This should
 359:Generated_Source\PSoC5/Clock_3.c **** *                 be enabled for all synchronous clocks.
 360:Generated_Source\PSoC5/Clock_3.c **** *   See the Technical Reference Manual for details about setting the mode of
 361:Generated_Source\PSoC5/Clock_3.c **** *   the clock. Specifically, see the CLKDIST.DCFG.CFG2 register.
 362:Generated_Source\PSoC5/Clock_3.c **** *
 363:Generated_Source\PSoC5/Clock_3.c **** * Returns:
 364:Generated_Source\PSoC5/Clock_3.c **** *  None
 365:Generated_Source\PSoC5/Clock_3.c **** *
 366:Generated_Source\PSoC5/Clock_3.c **** *******************************************************************************/
 367:Generated_Source\PSoC5/Clock_3.c **** void Clock_3_ClearModeRegister(uint8 modeBitMask) 
 368:Generated_Source\PSoC5/Clock_3.c **** {
 790              		.loc 1 368 0
 791              		.cfi_startproc
 792              		@ args = 0, pretend = 0, frame = 0
 793              		@ frame_needed = 0, uses_anonymous_args = 0
 794              		@ link register save eliminated.
 795              	.LVL5:
 369:Generated_Source\PSoC5/Clock_3.c ****     Clock_3_MOD_SRC &= (uint8)(~modeBitMask) | (uint8)(~(uint8)(Clock_3_MODE_MASK));
 796              		.loc 1 369 0
 797 0000 044B     		ldr	r3, .L24
 798 0002 1A78     		ldrb	r2, [r3]	@ zero_extendqisi2
ARM GAS  C:\Users\Luggi\AppData\Local\Temp\ccT3dMHn.s 			page 53


 799 0004 C043     		mvns	r0, r0
 800              	.LVL6:
 801 0006 C0B2     		uxtb	r0, r0
 802 0008 40F00700 		orr	r0, r0, #7
 803 000c 1040     		ands	r0, r0, r2
 804 000e 1870     		strb	r0, [r3]
 805 0010 7047     		bx	lr
 806              	.L25:
 807 0012 00BF     		.align	2
 808              	.L24:
 809 0014 86400040 		.word	1073758342
 810              		.cfi_endproc
 811              	.LFE7:
 812              		.size	Clock_3_ClearModeRegister, .-Clock_3_ClearModeRegister
 813              		.section	.text.Clock_3_GetModeRegister,"ax",%progbits
 814              		.align	2
 815              		.global	Clock_3_GetModeRegister
 816              		.thumb
 817              		.thumb_func
 818              		.type	Clock_3_GetModeRegister, %function
 819              	Clock_3_GetModeRegister:
 820              	.LFB8:
 370:Generated_Source\PSoC5/Clock_3.c **** }
 371:Generated_Source\PSoC5/Clock_3.c **** 
 372:Generated_Source\PSoC5/Clock_3.c **** 
 373:Generated_Source\PSoC5/Clock_3.c **** /*******************************************************************************
 374:Generated_Source\PSoC5/Clock_3.c **** * Function Name: Clock_3_GetModeRegister
 375:Generated_Source\PSoC5/Clock_3.c **** ********************************************************************************
 376:Generated_Source\PSoC5/Clock_3.c **** *
 377:Generated_Source\PSoC5/Clock_3.c **** * Summary:
 378:Generated_Source\PSoC5/Clock_3.c **** *  Gets the clock mode register value.
 379:Generated_Source\PSoC5/Clock_3.c **** *
 380:Generated_Source\PSoC5/Clock_3.c **** * Parameters:
 381:Generated_Source\PSoC5/Clock_3.c **** *  None
 382:Generated_Source\PSoC5/Clock_3.c **** *
 383:Generated_Source\PSoC5/Clock_3.c **** * Returns:
 384:Generated_Source\PSoC5/Clock_3.c **** *  Bit mask representing the enabled mode bits. See the SetModeRegister and
 385:Generated_Source\PSoC5/Clock_3.c **** *  ClearModeRegister descriptions for details about the mode bits.
 386:Generated_Source\PSoC5/Clock_3.c **** *
 387:Generated_Source\PSoC5/Clock_3.c **** *******************************************************************************/
 388:Generated_Source\PSoC5/Clock_3.c **** uint8 Clock_3_GetModeRegister(void) 
 389:Generated_Source\PSoC5/Clock_3.c **** {
 821              		.loc 1 389 0
 822              		.cfi_startproc
 823              		@ args = 0, pretend = 0, frame = 0
 824              		@ frame_needed = 0, uses_anonymous_args = 0
 825              		@ link register save eliminated.
 390:Generated_Source\PSoC5/Clock_3.c ****     return Clock_3_MOD_SRC & (uint8)(Clock_3_MODE_MASK);
 826              		.loc 1 390 0
 827 0000 024B     		ldr	r3, .L27
 828 0002 1878     		ldrb	r0, [r3]	@ zero_extendqisi2
 391:Generated_Source\PSoC5/Clock_3.c **** }
 829              		.loc 1 391 0
 830 0004 00F0F800 		and	r0, r0, #248
 831 0008 7047     		bx	lr
 832              	.L28:
 833 000a 00BF     		.align	2
ARM GAS  C:\Users\Luggi\AppData\Local\Temp\ccT3dMHn.s 			page 54


 834              	.L27:
 835 000c 86400040 		.word	1073758342
 836              		.cfi_endproc
 837              	.LFE8:
 838              		.size	Clock_3_GetModeRegister, .-Clock_3_GetModeRegister
 839              		.section	.text.Clock_3_GetSourceRegister,"ax",%progbits
 840              		.align	2
 841              		.global	Clock_3_GetSourceRegister
 842              		.thumb
 843              		.thumb_func
 844              		.type	Clock_3_GetSourceRegister, %function
 845              	Clock_3_GetSourceRegister:
 846              	.LFB10:
 392:Generated_Source\PSoC5/Clock_3.c **** 
 393:Generated_Source\PSoC5/Clock_3.c **** 
 394:Generated_Source\PSoC5/Clock_3.c **** /*******************************************************************************
 395:Generated_Source\PSoC5/Clock_3.c **** * Function Name: Clock_3_SetSourceRegister
 396:Generated_Source\PSoC5/Clock_3.c **** ********************************************************************************
 397:Generated_Source\PSoC5/Clock_3.c **** *
 398:Generated_Source\PSoC5/Clock_3.c **** * Summary:
 399:Generated_Source\PSoC5/Clock_3.c **** *  Sets the input source of the clock. The clock must be disabled before
 400:Generated_Source\PSoC5/Clock_3.c **** *  changing the source. The old and new clock sources must be running.
 401:Generated_Source\PSoC5/Clock_3.c **** *
 402:Generated_Source\PSoC5/Clock_3.c **** * Parameters:
 403:Generated_Source\PSoC5/Clock_3.c **** *  clkSource:  For PSoC 3 and PSoC 5 devices, clkSource should be one of the
 404:Generated_Source\PSoC5/Clock_3.c **** *   following input sources:
 405:Generated_Source\PSoC5/Clock_3.c **** *   - CYCLK_SRC_SEL_SYNC_DIG
 406:Generated_Source\PSoC5/Clock_3.c **** *   - CYCLK_SRC_SEL_IMO
 407:Generated_Source\PSoC5/Clock_3.c **** *   - CYCLK_SRC_SEL_XTALM
 408:Generated_Source\PSoC5/Clock_3.c **** *   - CYCLK_SRC_SEL_ILO
 409:Generated_Source\PSoC5/Clock_3.c **** *   - CYCLK_SRC_SEL_PLL
 410:Generated_Source\PSoC5/Clock_3.c **** *   - CYCLK_SRC_SEL_XTALK
 411:Generated_Source\PSoC5/Clock_3.c **** *   - CYCLK_SRC_SEL_DSI_G
 412:Generated_Source\PSoC5/Clock_3.c **** *   - CYCLK_SRC_SEL_DSI_D/CYCLK_SRC_SEL_DSI_A
 413:Generated_Source\PSoC5/Clock_3.c **** *   See the Technical Reference Manual for details on clock sources.
 414:Generated_Source\PSoC5/Clock_3.c **** *
 415:Generated_Source\PSoC5/Clock_3.c **** * Returns:
 416:Generated_Source\PSoC5/Clock_3.c **** *  None
 417:Generated_Source\PSoC5/Clock_3.c **** *
 418:Generated_Source\PSoC5/Clock_3.c **** *******************************************************************************/
 419:Generated_Source\PSoC5/Clock_3.c **** void Clock_3_SetSourceRegister(uint8 clkSource) 
 420:Generated_Source\PSoC5/Clock_3.c **** {
 421:Generated_Source\PSoC5/Clock_3.c ****     uint16 currDiv = Clock_3_GetDividerRegister();
 422:Generated_Source\PSoC5/Clock_3.c ****     uint8 oldSrc = Clock_3_GetSourceRegister();
 423:Generated_Source\PSoC5/Clock_3.c **** 
 424:Generated_Source\PSoC5/Clock_3.c ****     if (((oldSrc != ((uint8)CYCLK_SRC_SEL_CLK_SYNC_D)) && 
 425:Generated_Source\PSoC5/Clock_3.c ****         (clkSource == ((uint8)CYCLK_SRC_SEL_CLK_SYNC_D))) && (currDiv == 0u))
 426:Generated_Source\PSoC5/Clock_3.c ****     {
 427:Generated_Source\PSoC5/Clock_3.c ****         /* Switching to Master and divider is 1, set SSS, which will output master, */
 428:Generated_Source\PSoC5/Clock_3.c ****         /* then set the source so we are consistent.                                */
 429:Generated_Source\PSoC5/Clock_3.c ****         Clock_3_MOD_SRC |= CYCLK_SSS;
 430:Generated_Source\PSoC5/Clock_3.c ****         Clock_3_MOD_SRC =
 431:Generated_Source\PSoC5/Clock_3.c ****             (Clock_3_MOD_SRC & (uint8)(~Clock_3_SRC_SEL_MSK)) | clkSource;
 432:Generated_Source\PSoC5/Clock_3.c ****     }
 433:Generated_Source\PSoC5/Clock_3.c ****     else if (((oldSrc == ((uint8)CYCLK_SRC_SEL_CLK_SYNC_D)) && 
 434:Generated_Source\PSoC5/Clock_3.c ****             (clkSource != ((uint8)CYCLK_SRC_SEL_CLK_SYNC_D))) && (currDiv == 0u))
 435:Generated_Source\PSoC5/Clock_3.c ****     {
ARM GAS  C:\Users\Luggi\AppData\Local\Temp\ccT3dMHn.s 			page 55


 436:Generated_Source\PSoC5/Clock_3.c ****         /* Switching from Master to not and divider is 1, set source, so we don't   */
 437:Generated_Source\PSoC5/Clock_3.c ****         /* lock when we clear SSS.                                                  */
 438:Generated_Source\PSoC5/Clock_3.c ****         Clock_3_MOD_SRC =
 439:Generated_Source\PSoC5/Clock_3.c ****             (Clock_3_MOD_SRC & (uint8)(~Clock_3_SRC_SEL_MSK)) | clkSource;
 440:Generated_Source\PSoC5/Clock_3.c ****         Clock_3_MOD_SRC &= (uint8)(~CYCLK_SSS);
 441:Generated_Source\PSoC5/Clock_3.c ****     }
 442:Generated_Source\PSoC5/Clock_3.c ****     else
 443:Generated_Source\PSoC5/Clock_3.c ****     {
 444:Generated_Source\PSoC5/Clock_3.c ****         Clock_3_MOD_SRC =
 445:Generated_Source\PSoC5/Clock_3.c ****             (Clock_3_MOD_SRC & (uint8)(~Clock_3_SRC_SEL_MSK)) | clkSource;
 446:Generated_Source\PSoC5/Clock_3.c ****     }
 447:Generated_Source\PSoC5/Clock_3.c **** }
 448:Generated_Source\PSoC5/Clock_3.c **** 
 449:Generated_Source\PSoC5/Clock_3.c **** 
 450:Generated_Source\PSoC5/Clock_3.c **** /*******************************************************************************
 451:Generated_Source\PSoC5/Clock_3.c **** * Function Name: Clock_3_GetSourceRegister
 452:Generated_Source\PSoC5/Clock_3.c **** ********************************************************************************
 453:Generated_Source\PSoC5/Clock_3.c **** *
 454:Generated_Source\PSoC5/Clock_3.c **** * Summary:
 455:Generated_Source\PSoC5/Clock_3.c **** *  Gets the input source of the clock.
 456:Generated_Source\PSoC5/Clock_3.c **** *
 457:Generated_Source\PSoC5/Clock_3.c **** * Parameters:
 458:Generated_Source\PSoC5/Clock_3.c **** *  None
 459:Generated_Source\PSoC5/Clock_3.c **** *
 460:Generated_Source\PSoC5/Clock_3.c **** * Returns:
 461:Generated_Source\PSoC5/Clock_3.c **** *  The input source of the clock. See SetSourceRegister for details.
 462:Generated_Source\PSoC5/Clock_3.c **** *
 463:Generated_Source\PSoC5/Clock_3.c **** *******************************************************************************/
 464:Generated_Source\PSoC5/Clock_3.c **** uint8 Clock_3_GetSourceRegister(void) 
 465:Generated_Source\PSoC5/Clock_3.c **** {
 847              		.loc 1 465 0
 848              		.cfi_startproc
 849              		@ args = 0, pretend = 0, frame = 0
 850              		@ frame_needed = 0, uses_anonymous_args = 0
 851              		@ link register save eliminated.
 466:Generated_Source\PSoC5/Clock_3.c ****     return Clock_3_MOD_SRC & Clock_3_SRC_SEL_MSK;
 852              		.loc 1 466 0
 853 0000 024B     		ldr	r3, .L30
 854 0002 1878     		ldrb	r0, [r3]	@ zero_extendqisi2
 467:Generated_Source\PSoC5/Clock_3.c **** }
 855              		.loc 1 467 0
 856 0004 00F00700 		and	r0, r0, #7
 857 0008 7047     		bx	lr
 858              	.L31:
 859 000a 00BF     		.align	2
 860              	.L30:
 861 000c 86400040 		.word	1073758342
 862              		.cfi_endproc
 863              	.LFE10:
 864              		.size	Clock_3_GetSourceRegister, .-Clock_3_GetSourceRegister
 865              		.section	.text.Clock_3_SetDividerRegister,"ax",%progbits
 866              		.align	2
 867              		.global	Clock_3_SetDividerRegister
 868              		.thumb
 869              		.thumb_func
 870              		.type	Clock_3_SetDividerRegister, %function
 871              	Clock_3_SetDividerRegister:
ARM GAS  C:\Users\Luggi\AppData\Local\Temp\ccT3dMHn.s 			page 56


 872              	.LFB4:
 195:Generated_Source\PSoC5/Clock_3.c ****     uint8 enabled;
 873              		.loc 1 195 0
 874              		.cfi_startproc
 875              		@ args = 0, pretend = 0, frame = 0
 876              		@ frame_needed = 0, uses_anonymous_args = 0
 877              	.LVL7:
 878 0000 70B5     		push	{r4, r5, r6, lr}
 879              		.cfi_def_cfa_offset 16
 880              		.cfi_offset 4, -16
 881              		.cfi_offset 5, -12
 882              		.cfi_offset 6, -8
 883              		.cfi_offset 14, -4
 884 0002 0446     		mov	r4, r0
 885 0004 0D46     		mov	r5, r1
 198:Generated_Source\PSoC5/Clock_3.c ****     uint16 oldDivider = Clock_3_GetDividerRegister();
 886              		.loc 1 198 0
 887 0006 FFF7FEFF 		bl	Clock_3_GetSourceRegister
 888              	.LVL8:
 889 000a 0646     		mov	r6, r0
 890              	.LVL9:
 199:Generated_Source\PSoC5/Clock_3.c **** 
 891              		.loc 1 199 0
 892 000c FFF7FEFF 		bl	Clock_3_GetDividerRegister
 893              	.LVL10:
 201:Generated_Source\PSoC5/Clock_3.c ****     {
 894              		.loc 1 201 0
 895 0010 8442     		cmp	r4, r0
 896 0012 57D0     		beq	.L32
 203:Generated_Source\PSoC5/Clock_3.c **** 
 897              		.loc 1 203 0
 898 0014 2C4B     		ldr	r3, .L45
 899 0016 1B78     		ldrb	r3, [r3]	@ zero_extendqisi2
 900 0018 03F00203 		and	r3, r3, #2
 901 001c DAB2     		uxtb	r2, r3
 902              	.LVL11:
 205:Generated_Source\PSoC5/Clock_3.c ****         {
 903              		.loc 1 205 0
 904 001e 96B9     		cbnz	r6, .L34
 205:Generated_Source\PSoC5/Clock_3.c ****         {
 905              		.loc 1 205 0 is_stmt 0 discriminator 1
 906 0020 00B1     		cbz	r0, .L35
 205:Generated_Source\PSoC5/Clock_3.c ****         {
 907              		.loc 1 205 0 discriminator 2
 908 0022 84B9     		cbnz	r4, .L34
 909              	.L35:
 208:Generated_Source\PSoC5/Clock_3.c ****             {
 910              		.loc 1 208 0 is_stmt 1
 911 0024 38B9     		cbnz	r0, .L36
 213:Generated_Source\PSoC5/Clock_3.c ****                 Clock_3_MOD_SRC &= (uint8)(~CYCLK_SSS);
 912              		.loc 1 213 0
 913 0026 294B     		ldr	r3, .L45+4
 914 0028 1C80     		strh	r4, [r3]	@ movhi
 214:Generated_Source\PSoC5/Clock_3.c ****             }
 915              		.loc 1 214 0
 916 002a 294A     		ldr	r2, .L45+8
 917              	.LVL12:
ARM GAS  C:\Users\Luggi\AppData\Local\Temp\ccT3dMHn.s 			page 57


 918 002c 1378     		ldrb	r3, [r2]	@ zero_extendqisi2
 919 002e 03F0BF03 		and	r3, r3, #191
 920 0032 1370     		strb	r3, [r2]
 921 0034 70BD     		pop	{r4, r5, r6, pc}
 922              	.LVL13:
 923              	.L36:
 220:Generated_Source\PSoC5/Clock_3.c ****                 CY_SET_REG16(Clock_3_DIV_PTR, clkDivider);
 924              		.loc 1 220 0
 925 0036 264A     		ldr	r2, .L45+8
 926              	.LVL14:
 927 0038 1378     		ldrb	r3, [r2]	@ zero_extendqisi2
 928              	.LVL15:
 929 003a 43F04003 		orr	r3, r3, #64
 930 003e 1370     		strb	r3, [r2]
 221:Generated_Source\PSoC5/Clock_3.c ****             }
 931              		.loc 1 221 0
 932 0040 224B     		ldr	r3, .L45+4
 933 0042 1C80     		strh	r4, [r3]	@ movhi
 934 0044 70BD     		pop	{r4, r5, r6, pc}
 935              	.LVL16:
 936              	.L34:
 227:Generated_Source\PSoC5/Clock_3.c ****             {
 937              		.loc 1 227 0
 938 0046 22B3     		cbz	r2, .L37
 229:Generated_Source\PSoC5/Clock_3.c **** 
 939              		.loc 1 229 0
 940 0048 0023     		movs	r3, #0
 941 004a 2249     		ldr	r1, .L45+12
 942 004c 0B70     		strb	r3, [r1]
 236:Generated_Source\PSoC5/Clock_3.c ****                 CLK_DIST_AMASK = 0x00u;
 943              		.loc 1 236 0
 944 004e 0226     		movs	r6, #2
 945              	.LVL17:
 946 0050 0F31     		adds	r1, r1, #15
 947 0052 0E70     		strb	r6, [r1]
 237:Generated_Source\PSoC5/Clock_3.c **** #endif /* Clock_3__CFG3 */
 948              		.loc 1 237 0
 949 0054 0431     		adds	r1, r1, #4
 950 0056 0B70     		strb	r3, [r1]
 240:Generated_Source\PSoC5/Clock_3.c **** 
 951              		.loc 1 240 0
 952 0058 0C39     		subs	r1, r1, #12
 953 005a 0B78     		ldrb	r3, [r1]	@ zero_extendqisi2
 954 005c 03F07F03 		and	r3, r3, #127
 955 0060 0B70     		strb	r3, [r1]
 243:Generated_Source\PSoC5/Clock_3.c ****                 {
 956              		.loc 1 243 0
 957 0062 1B4B     		ldr	r3, .L45+8
 958 0064 1B78     		ldrb	r3, [r3]	@ zero_extendqisi2
 959 0066 13F0080F 		tst	r3, #8
 960 006a 00D0     		beq	.L38
 243:Generated_Source\PSoC5/Clock_3.c ****                 {
 961              		.loc 1 243 0 is_stmt 0 discriminator 1
 962 006c 8CB9     		cbnz	r4, .L37
 963              	.L38:
 246:Generated_Source\PSoC5/Clock_3.c ****                     CLK_DIST_LD = CYCLK_LD_DISABLE|CYCLK_LD_SYNC_EN|CYCLK_LD_LOAD;
 964              		.loc 1 246 0 is_stmt 1
ARM GAS  C:\Users\Luggi\AppData\Local\Temp\ccT3dMHn.s 			page 58


 965 006e 1A4B     		ldr	r3, .L45+16
 966 0070 1880     		strh	r0, [r3]	@ movhi
 247:Generated_Source\PSoC5/Clock_3.c **** 
 967              		.loc 1 247 0
 968 0072 0721     		movs	r1, #7
 969 0074 013B     		subs	r3, r3, #1
 970 0076 1970     		strb	r1, [r3]
 971              	.L39:
 250:Generated_Source\PSoC5/Clock_3.c **** #endif /* HAS_CLKDIST_LD_DISABLE */
 972              		.loc 1 250 0 discriminator 1
 973 0078 164B     		ldr	r3, .L45+12
 974 007a 1B78     		ldrb	r3, [r3]	@ zero_extendqisi2
 975 007c 13F0010F 		tst	r3, #1
 976 0080 FAD1     		bne	.L39
 253:Generated_Source\PSoC5/Clock_3.c **** 
 977              		.loc 1 253 0
 978 0082 1149     		ldr	r1, .L45
 979 0084 0B78     		ldrb	r3, [r1]	@ zero_extendqisi2
 980 0086 03F0FD03 		and	r3, r3, #253
 981 008a 0B70     		strb	r3, [r1]
 257:Generated_Source\PSoC5/Clock_3.c **** #endif /* HAS_CLKDIST_LD_DISABLE */
 982              		.loc 1 257 0
 983 008c 0021     		movs	r1, #0
 984 008e 114B     		ldr	r3, .L45+12
 985 0090 1970     		strb	r1, [r3]
 986              	.L37:
 263:Generated_Source\PSoC5/Clock_3.c ****             {
 987              		.loc 1 263 0
 988 0092 0D4B     		ldr	r3, .L45
 989 0094 1B78     		ldrb	r3, [r3]	@ zero_extendqisi2
 990 0096 13F0020F 		tst	r3, #2
 991 009a 0DD0     		beq	.L40
 266:Generated_Source\PSoC5/Clock_3.c **** 
 992              		.loc 1 266 0
 993 009c 0E4B     		ldr	r3, .L45+16
 994 009e 1C80     		strh	r4, [r3]	@ movhi
 268:Generated_Source\PSoC5/Clock_3.c ****                 while ((CLK_DIST_LD & CYCLK_LD_LOAD) != 0u) { }
 995              		.loc 1 268 0
 996 00a0 0DB1     		cbz	r5, .L43
 997 00a2 0322     		movs	r2, #3
 998              	.LVL18:
 999 00a4 00E0     		b	.L41
 1000              	.LVL19:
 1001              	.L43:
 1002 00a6 0122     		movs	r2, #1
 1003              	.LVL20:
 1004              	.L41:
 268:Generated_Source\PSoC5/Clock_3.c ****                 while ((CLK_DIST_LD & CYCLK_LD_LOAD) != 0u) { }
 1005              		.loc 1 268 0 is_stmt 0 discriminator 4
 1006 00a8 0A4B     		ldr	r3, .L45+12
 1007 00aa 1A70     		strb	r2, [r3]
 1008              	.L42:
 269:Generated_Source\PSoC5/Clock_3.c ****             }
 1009              		.loc 1 269 0 is_stmt 1 discriminator 1
 1010 00ac 094B     		ldr	r3, .L45+12
 1011 00ae 1B78     		ldrb	r3, [r3]	@ zero_extendqisi2
 1012 00b0 13F0010F 		tst	r3, #1
ARM GAS  C:\Users\Luggi\AppData\Local\Temp\ccT3dMHn.s 			page 59


 1013 00b4 FAD1     		bne	.L42
 1014 00b6 70BD     		pop	{r4, r5, r6, pc}
 1015              	.LVL21:
 1016              	.L40:
 274:Generated_Source\PSoC5/Clock_3.c **** 				Clock_3_CLKEN |= enabled;
 1017              		.loc 1 274 0
 1018 00b8 044B     		ldr	r3, .L45+4
 1019 00ba 1C80     		strh	r4, [r3]	@ movhi
 275:Generated_Source\PSoC5/Clock_3.c ****             }
 1020              		.loc 1 275 0
 1021 00bc 0249     		ldr	r1, .L45
 1022 00be 0B78     		ldrb	r3, [r1]	@ zero_extendqisi2
 1023 00c0 1343     		orrs	r3, r3, r2
 1024 00c2 0B70     		strb	r3, [r1]
 1025              	.LVL22:
 1026              	.L32:
 1027 00c4 70BD     		pop	{r4, r5, r6, pc}
 1028              	.L46:
 1029 00c6 00BF     		.align	2
 1030              	.L45:
 1031 00c8 A2430040 		.word	1073759138
 1032 00cc 84400040 		.word	1073758340
 1033 00d0 86400040 		.word	1073758342
 1034 00d4 01400040 		.word	1073758209
 1035 00d8 02400040 		.word	1073758210
 1036              		.cfi_endproc
 1037              	.LFE4:
 1038              		.size	Clock_3_SetDividerRegister, .-Clock_3_SetDividerRegister
 1039              		.section	.text.Clock_3_SetSourceRegister,"ax",%progbits
 1040              		.align	2
 1041              		.global	Clock_3_SetSourceRegister
 1042              		.thumb
 1043              		.thumb_func
 1044              		.type	Clock_3_SetSourceRegister, %function
 1045              	Clock_3_SetSourceRegister:
 1046              	.LFB9:
 420:Generated_Source\PSoC5/Clock_3.c ****     uint16 currDiv = Clock_3_GetDividerRegister();
 1047              		.loc 1 420 0
 1048              		.cfi_startproc
 1049              		@ args = 0, pretend = 0, frame = 0
 1050              		@ frame_needed = 0, uses_anonymous_args = 0
 1051              	.LVL23:
 1052 0000 38B5     		push	{r3, r4, r5, lr}
 1053              		.cfi_def_cfa_offset 16
 1054              		.cfi_offset 3, -16
 1055              		.cfi_offset 4, -12
 1056              		.cfi_offset 5, -8
 1057              		.cfi_offset 14, -4
 1058 0002 0446     		mov	r4, r0
 421:Generated_Source\PSoC5/Clock_3.c ****     uint8 oldSrc = Clock_3_GetSourceRegister();
 1059              		.loc 1 421 0
 1060 0004 FFF7FEFF 		bl	Clock_3_GetDividerRegister
 1061              	.LVL24:
 1062 0008 0546     		mov	r5, r0
 1063              	.LVL25:
 422:Generated_Source\PSoC5/Clock_3.c **** 
 1064              		.loc 1 422 0
ARM GAS  C:\Users\Luggi\AppData\Local\Temp\ccT3dMHn.s 			page 60


 1065 000a FFF7FEFF 		bl	Clock_3_GetSourceRegister
 1066              	.LVL26:
 424:Generated_Source\PSoC5/Clock_3.c ****         (clkSource == ((uint8)CYCLK_SRC_SEL_CLK_SYNC_D))) && (currDiv == 0u))
 1067              		.loc 1 424 0
 1068 000e 0346     		mov	r3, r0
 1069 0010 60B1     		cbz	r0, .L48
 424:Generated_Source\PSoC5/Clock_3.c ****         (clkSource == ((uint8)CYCLK_SRC_SEL_CLK_SYNC_D))) && (currDiv == 0u))
 1070              		.loc 1 424 0 is_stmt 0 discriminator 1
 1071 0012 5CB9     		cbnz	r4, .L48
 425:Generated_Source\PSoC5/Clock_3.c ****     {
 1072              		.loc 1 425 0 is_stmt 1
 1073 0014 55B9     		cbnz	r5, .L48
 429:Generated_Source\PSoC5/Clock_3.c ****         Clock_3_MOD_SRC =
 1074              		.loc 1 429 0
 1075 0016 104A     		ldr	r2, .L52
 1076 0018 1378     		ldrb	r3, [r2]	@ zero_extendqisi2
 1077 001a 43F04003 		orr	r3, r3, #64
 1078 001e 1370     		strb	r3, [r2]
 431:Generated_Source\PSoC5/Clock_3.c ****     }
 1079              		.loc 1 431 0
 1080 0020 1378     		ldrb	r3, [r2]	@ zero_extendqisi2
 430:Generated_Source\PSoC5/Clock_3.c ****             (Clock_3_MOD_SRC & (uint8)(~Clock_3_SRC_SEL_MSK)) | clkSource;
 1081              		.loc 1 430 0
 1082 0022 03F0F803 		and	r3, r3, #248
 1083 0026 1C43     		orrs	r4, r4, r3
 1084 0028 1470     		strb	r4, [r2]
 1085 002a 38BD     		pop	{r3, r4, r5, pc}
 1086              	.LVL27:
 1087              	.L48:
 433:Generated_Source\PSoC5/Clock_3.c ****             (clkSource != ((uint8)CYCLK_SRC_SEL_CLK_SYNC_D))) && (currDiv == 0u))
 1088              		.loc 1 433 0
 1089 002c 63B9     		cbnz	r3, .L50
 433:Generated_Source\PSoC5/Clock_3.c ****             (clkSource != ((uint8)CYCLK_SRC_SEL_CLK_SYNC_D))) && (currDiv == 0u))
 1090              		.loc 1 433 0 is_stmt 0 discriminator 1
 1091 002e 5CB1     		cbz	r4, .L50
 434:Generated_Source\PSoC5/Clock_3.c ****     {
 1092              		.loc 1 434 0 is_stmt 1
 1093 0030 55B9     		cbnz	r5, .L50
 439:Generated_Source\PSoC5/Clock_3.c ****         Clock_3_MOD_SRC &= (uint8)(~CYCLK_SSS);
 1094              		.loc 1 439 0
 1095 0032 094A     		ldr	r2, .L52
 1096 0034 1378     		ldrb	r3, [r2]	@ zero_extendqisi2
 438:Generated_Source\PSoC5/Clock_3.c ****             (Clock_3_MOD_SRC & (uint8)(~Clock_3_SRC_SEL_MSK)) | clkSource;
 1097              		.loc 1 438 0
 1098 0036 03F0F803 		and	r3, r3, #248
 1099 003a 1C43     		orrs	r4, r4, r3
 1100 003c 1470     		strb	r4, [r2]
 440:Generated_Source\PSoC5/Clock_3.c ****     }
 1101              		.loc 1 440 0
 1102 003e 1378     		ldrb	r3, [r2]	@ zero_extendqisi2
 1103 0040 03F0BF03 		and	r3, r3, #191
 1104 0044 1370     		strb	r3, [r2]
 1105 0046 38BD     		pop	{r3, r4, r5, pc}
 1106              	.LVL28:
 1107              	.L50:
 445:Generated_Source\PSoC5/Clock_3.c ****     }
 1108              		.loc 1 445 0
ARM GAS  C:\Users\Luggi\AppData\Local\Temp\ccT3dMHn.s 			page 61


 1109 0048 034A     		ldr	r2, .L52
 1110 004a 1378     		ldrb	r3, [r2]	@ zero_extendqisi2
 444:Generated_Source\PSoC5/Clock_3.c ****             (Clock_3_MOD_SRC & (uint8)(~Clock_3_SRC_SEL_MSK)) | clkSource;
 1111              		.loc 1 444 0
 1112 004c 03F0F803 		and	r3, r3, #248
 1113 0050 1C43     		orrs	r4, r4, r3
 1114 0052 1470     		strb	r4, [r2]
 1115 0054 38BD     		pop	{r3, r4, r5, pc}
 1116              	.LVL29:
 1117              	.L53:
 1118 0056 00BF     		.align	2
 1119              	.L52:
 1120 0058 86400040 		.word	1073758342
 1121              		.cfi_endproc
 1122              	.LFE9:
 1123              		.size	Clock_3_SetSourceRegister, .-Clock_3_SetSourceRegister
 1124              		.text
 1125              	.Letext0:
 1126              		.file 2 "Generated_Source\\PSoC5/cytypes.h"