ARM GAS  C:\Users\Luggi\AppData\Local\Temp\ccMGEkUC.s 			page 1


   1              		.syntax unified
   2              		.cpu cortex-m3
   3              		.fpu softvfp
   4              		.eabi_attribute 20, 1
   5              		.eabi_attribute 21, 1
   6              		.eabi_attribute 23, 3
   7              		.eabi_attribute 24, 1
   8              		.eabi_attribute 25, 1
   9              		.eabi_attribute 26, 1
  10              		.eabi_attribute 30, 1
  11              		.eabi_attribute 34, 1
  12              		.eabi_attribute 18, 4
  13              		.thumb
  14              		.file	"Clock_4.c"
  15              		.text
  16              	.Ltext0:
  17              		.section	.gnu.lto_.profile.d23728b,"",%progbits
  18 0000 789C6366 		.ascii	"x\234cf```c\200\000F\206\353\214+\030\001\005R\001\214"
  18      60606063 
  18      80004686 
  18      EB8C2B18 
  18      01055201 
  19              		.text
  20              		.section	.gnu.lto_.inline.d23728b,"",%progbits
  21 0000 789C6366 		.ascii	"x\234cf\300\016\272\030!47\003\003'\007#\003\023\317"
  21      C00EBA18 
  21      21343703 
  21      03270723 
  21      0313CF
  22 0013 835806B6 		.ascii	"\203X\006\266\005\362L 1FL!&\006\031m\240\220\321\234"
  22      05F24C20 
  22      31464C21 
  22      2606196D 
  22      A090D19C 
  23 0027 0E56B818 		.ascii	"\016V\270\0303\0037;#3C\306G&\306\306e\273{\330_0\375"
  23      3303373B 
  23      233343C6 
  23      4726C6C6 
  23      65BB7BD8 
  24 003e 0489332E 		.ascii	"\004\2113.g\224b`\310\204P@[X\201b`-,\013\344\005\030"
  24      67946260 
  24      C8845040 
  24      5B588162 
  24      602D2C0B 
  25 0055 D8CEC870 		.ascii	"\330\316\310p0\260-\021b\001\231\300\302\300\302\014"
  25      30B02D11 
  25      620199C0 
  25      C2C0C20C 
  26 0065 3495E902 		.ascii	"4\225\351\002?\334PV\006v6FF\220>f\266\017z\020a\240"
  26      3FDC5056 
  26      06763646 
  26      46903E66 
  26      B60F7A10 
  27 007b 3C58391B 		.ascii	"<X9\033\003\007;\272\034\320P\260\034;\003+\013\320"
  27      03073BBA 
  27      1CD050B0 
  27      1C3B032B 
ARM GAS  C:\Users\Luggi\AppData\Local\Temp\ccMGEkUC.s 			page 2


  27      0BD0
  28 008d 2820176E 		.ascii	"( \027n\024\007\246\020'\303a\006[F6T7\003\315c\\\001"
  28      1407A610 
  28      27C36106 
  28      5B463654 
  28      3703CD63 
  29 00a3 71338862 		.ascii	"q3\210b\2048\2351\003\356\003\240\235\014,9oV\260@\314"
  29      84389D31 
  29      03EE03A0 
  29      9D0C2C39 
  29      6F56B040 
  30 00b8 E198C2E5 		.ascii	"\341\230\302\345\300\300\362\202\275\001\034\204L\334"
  30      C0C0F282 
  30      BD011C84 
  30      4CDC
  31 00c6 30828B41 		.ascii	"0\202\213AU\031\024\036\030\001 \260\"\017\252\363\216"
  31      5519141E 
  31      180120B0 
  31      220FAAF3 
  31      8E
  32 00d7 AC0083D0 		.ascii	"\254\000\203\3206\240\347\205\256\010p\240\352f\000"
  32      36A0E785 
  32      AE0870A0 
  32      EA6600
  33 00e6 0066D635 		.ascii	"\000f\3265\011"
  33      09
  34              		.text
  35              		.section	.gnu.lto_.jmpfuncs.d23728b,"",%progbits
  36 0000 789C6D8A 		.ascii	"x\234m\212[\012\000 \014\303R\347\333\343x\300]]\007"
  36      5B0A0020 
  36      0CC352E7 
  36      DBE378C0 
  36      5D5D07
  37 0013 7E5A4803 		.ascii	"~ZH\003\245\306?\373y]\004\011L\222g(\341\032\325\240"
  37      A5C63FFB 
  37      795D0409 
  37      4C926728 
  37      E11AD5A0 
  38 0027 C34892B9 		.ascii	"\303H\222\271\303\214\355\336\017O\350\003\206"
  38      C38CEDDE 
  38      0F4FE803 
  38      86
  39              		.text
  40              		.section	.gnu.lto_.pureconst.d23728b,"",%progbits
  41 0000 789C6366 		.ascii	"x\234cf``\020g\200\000n\006)F)&)f)\026)V)6)v)\016)N"
  41      60601067 
  41      80006E06 
  41      29462926 
  41      29662916 
  42 001e 292E2900 		.ascii	").)\000\022T\001{"
  42      1254017B 
  43              		.text
  44              		.section	.gnu.lto_Clock_4_Start.d23728b,"",%progbits
  45 0000 789C7D91 		.ascii	"x\234}\221\315K\002a\020\207\3477\233\213f\007\351\330"
  45      CD4B0261 
  45      1087E737 
  45      9B8B6607 
ARM GAS  C:\Users\Luggi\AppData\Local\Temp\ccMGEkUC.s 			page 3


  45      E9D8
  46 0012 2D3A78EB 		.ascii	"-:x\353T\177\201\207\256\202WA\302<\025\011RgwI\350"
  46      547F8187 
  46      AE825741 
  46      C23C1509 
  46      52677749 
  47 0027 EB22D121 		.ascii	"\353\"\321!\010/A\237\226\246A\035\333\012\272\010F"
  47      082F419F 
  47      96A6411D 
  47      DB0ABA08 
  47      46
  48 0038 51040605 		.ascii	"Q\004\006\005aP7\305(\015\302\346]\373\200\244\026\336"
  48      615037C5 
  48      280DC2E6 
  48      5DFB80A4 
  48      16DE
  49 004a 79DFDD9D 		.ascii	"y\337\335\235y\346\331Y\215\332\257\036Yy\020\365\311"
  49      79E6D959 
  49      8DDAAF1E 
  49      597910F5 
  49      C9
  50 005b 0E8DC0C9 		.ascii	"\016\215\300\311\"\221\351d@\035\010\024g\304\361\304"
  50      2291E964 
  50      401D0814 
  50      67C4F1C4 
  51 006b 5546D24A 		.ascii	"UF\322J/\271\275\253\206aT.\012\246\337B\203\211j\334"
  51      2FB9BDAB 
  51      8661542E 
  51      0AA6DF42 
  51      83896ADC 
  52 007f E2601D5E 		.ascii	"\342`\035^\222\244j\342\375\332\255'$\311\323z\207\015"
  52      92A46AE2 
  52      FDDAAD27 
  52      24C9D37A 
  52      870D
  53 0091 E8C2A76C 		.ascii	"\350\302\247l\267e4\233{\331\243K8\231\032,\315$8T\320"
  53      B765349B 
  53      7BD9A34B 
  53      38991A2C 
  53      CD243854 
  54 00a6 55202A4B 		.ascii	"U *K\272j\372\300\254v\255\204\343\227\271\323}\207"
  54      BA6AFAC0 
  54      AC76AD84 
  54      E397B9D3 
  54      7D87
  55 00b8 22BCB26D 		.ascii	"\"\274\262m0\177\370\346z\344\006\363\312\264it\250"
  55      307FF8E6 
  55      7AE406F3 
  55      CAB46974 
  55      A8
  56 00c9 7E77E5B3 		.ascii	"~w\345\263s\247\375\210\324m.7Sw\245\260l&\304N\303"
  56      73A7FD88 
  56      D46D2E37 
  56      5377A5B0 
  56      6C26C44E 
  57 00de 267AB005 		.ascii	"&z\260\005\371F\244\221\002\2250\365\254\267pZ\213X"
  57      F946A491 
ARM GAS  C:\Users\Luggi\AppData\Local\Temp\ccMGEkUC.s 			page 4


  57      029530F5 
  57      ACB7705A 
  57      8B58
  58 00f0 B8AFD7BA 		.ascii	"\270\257\327\272T9<\204m\311\224\246\013P)\377\301v"
  58      54393C84 
  58      6DC994A6 
  58      0B5029FF 
  58      C176
  59 0102 042608B2 		.ascii	"\004&\010\262\015\213k\237\206\016)I/\336\234\270m\235"
  59      0D8B6B9F 
  59      860E2949 
  59      2FDE9CB8 
  59      6D9D
  60 0114 FC97E1EC 		.ascii	"\374\227\341\354A\246\322\371C\311|S\262\277\224\024"
  60      41A6D2F9 
  60      43C97C53 
  60      B2BF9414 
  61 0124 A2CDE1CF 		.ascii	"\242\315\341\317\352]\333A\247[\230\326\225m\240~CY"
  61      EA5DDB41 
  61      A75B98D6 
  61      956DA07E 
  61      4359
  62 0136 0629B393 		.ascii	"\006)\263\223a\364\016E\306#\261\341\211\310H(\020\235"
  62      61F40E45 
  62      C623B1E1 
  62      89C84828 
  62      109D
  63 0148 8C852341 		.ascii	"\214\205#A\177 \352\033\014\372\306\242\341\321\320"
  63      7F20EA1B 
  63      0CFAC6A2 
  63      E1D1D0
  64 0157 407F983E 		.ascii	"@\177\230>\000\347b\240\265"
  64      00E762A0 
  64      B5
  65              		.text
  66              		.section	.gnu.lto_Clock_4_Stop.d23728b,"",%progbits
  67 0000 789C7D91 		.ascii	"x\234}\221\317K\002Q\020\307gfs\321\204\210N\342-:x"
  67      CF4B0251 
  67      10C76766 
  67      73D18488 
  67      4EE22D3A 
  68 0015 EB547F81 		.ascii	"\353T\177\201P\327\300\350$D\330\236\212\004\251\263"
  68      50D7C0E8 
  68      2444D89E 
  68      8A04A9B3 
  69 0025 BB646475 		.ascii	"\273ddu\261\350\240\204\227 \312,\315<D\247\244\256"
  69      B1E8A084 
  69      9720CA2C 
  69      CD3C44A7 
  69      A4AE
  70 0037 61742930 		.ascii	"at)0\260\213AuI\013\312\015\302fv\251 \251\007o\336"
  70      B08B4175 
  70      490BCA0D 
  70      C26676A9 
  70      20A9076F 
  71 004c 8FFDCE67 		.ascii	"\217\375\316g\276oV\201\366\341\345YD\200>^Q\001\244"
  71      BE6F5681 
ARM GAS  C:\Users\Luggi\AppData\Local\Temp\ccMGEkUC.s 			page 5


  71      F6E1E559 
  71      44803E5E 
  71      5101A4
  72 005f 4419C070 		.ascii	"D\031\300p\022\242l\000!J\030\305\007j\020&J\331\244"
  72      12A26C00 
  72      214A18C5 
  72      076A1026 
  72      4AD9A4
  73 0072 DBB7A5EB 		.ascii	"\333\267\245\353z\375\271\340Y\360\230\004\360B6\006"
  73      7AFDB9E0 
  73      59F09804 
  73      F0423606 
  74 0082 B7D107AC 		.ascii	"\267\321\007\254i\304>\256\335j\2145\335\3667\334A\225"
  74      69C43EAE 
  74      DD6A8C35 
  74      DDF637DC 
  74      4195
  75 0094 F190EF29 		.ascii	"\361\220\357)\351\255V\361|5\356C'\201I\\\214\203C\202"
  75      E9AD56F1 
  75      7C35EE43 
  75      2781495C 
  75      8C834382 
  76 00a8 2A01A0C6 		.ascii	"*\001\240\306z)zG$\253R\301\323\327\345\253\324\230"
  76      7A297A47 
  76      24AB52C1 
  76      D3D7E5AB 
  76      D498
  77 00ba 20DEC872 		.ascii	" \336\310r\260r\362\356\272'\223hs\321\320;\244\340"
  77      B072F2EE 
  77      BA279368 
  77      73D1D03B 
  77      A4E0
  78 00cc 6DEDE2D2 		.ascii	"m\355\342\322i]\201\034\013\205x\323\225\306\015#\206"
  78      695D811C 
  78      0B8578D3 
  78      95C60D23 
  78      86
  79 00dd 26299841 		.ascii	"&)\230A/\356\"\277\021\263\230F\250\340|S\265q\212M"
  79      2FEE22BF 
  79      11B39846 
  79      A8E07C53 
  79      B5718A4D 
  80 00f1 CC94938F 		.ascii	"\314\224\223\217]\222\256<!\340\036K\271\352\032\212"
  80      5D92AE3C 
  80      21E01E4B 
  80      B9EA1A8A 
  81 0101 E63FDA3E 		.ascii	"\346?\332>\323\230\001\226\305jj\324f:8%\273~s\346\266"
  81      D3980196 
  81      C56A6AD4 
  81      663A3825 
  81      BB7E73E6 
  82 0116 FC1C7E59 		.ascii	"\374\034~Y\\:\312\325;\177(\271oJ\376\227'A\264y\370"
  82      5C3ACAD5 
  82      3B7F28B9 
  82      6F4AFE97 
  82      2741B479 
  83 012b 33FBC0F2 		.ascii	"3\373\300\362\240B\025\215\322\361\220\250\345G\324"
ARM GAS  C:\Users\Luggi\AppData\Local\Temp\ccMGEkUC.s 			page 6


  83      A042158D 
  83      D2F190A8 
  83      E547D4
  84 013a B893DC3C 		.ascii	"\270\223\334<\356F\357\2606\243E&f\265\311\361@x.\022"
  84      EE46EFB0 
  84      36A34526 
  84      66B5C9F1 
  84      40782E12 
  85 014e D2822381 		.ascii	"\322\202#\201\260\1770\350\237\016\207\246\306\007\372"
  85      B07F30E8 
  85      9F0E87A6 
  85      C607FA
  86 015d 43F0095F 		.ascii	"C\360\011_1\240\257"
  86      31A0AF
  87              		.text
  88              		.section	.gnu.lto_Clock_4_StopBlock.d23728b,"",%progbits
  89 0000 789C8D94 		.ascii	"x\234\215\224\337O\024W\024\307\357\2713;\263\313R~"
  89      DF4F1457 
  89      14C7EFB9 
  89      333BB3CB 
  89      527E
  90 0012 280FD407 		.ascii	"(\017\324\007M\243\3217|\301?\240\241\211\011O\215\276"
  90      4DA3D137 
  90      7CC13FA0 
  90      A189094F 
  90      8DBE
  91 0024 D4046B2A 		.ascii	"\324\004k*\354\203\321HC\324\007\037d\006\026\245\310"
  91      EC83D148 
  91      43D4071F 
  91      640616A5 
  91      C8
  92 0035 03A049F1 		.ascii	"\003\240I\361\007\020H\252K\361\327nUDlY\371\265\"v"
  92      071048AA 
  92      4BF1D76E 
  92      55446C59 
  92      F9B52276 
  93 0049 E9368A11 		.ascii	"\3516\212\021Sj\032\266A\242v\011\272\260U\334\236s"
  93      536A1AB6 
  93      41A27609 
  93      BAB055DC 
  93      9E73
  94 005b EFEC006B 		.ascii	"\357\354\000k0\335d\357\314\334{\316\347~\357\371q\025"
  94      30DD64EF 
  94      CCDC7BCE 
  94      E77EEFF9 
  94      7115
  95 006d F6E16F37 		.ascii	"\366\341o7\376\2135\306\012\360\011N\006\274!\314\230"
  95      FE8B35C6 
  95      0AF0094E 
  95      06BC21CC 
  95      98
  96 007e E9E45C79 		.ascii	"\351\344\\y\270\225\031\031\332\235\365\314\310T@\225"
  96      B8951919 
  96      DA9DF5CC 
  96      C8544095 
  97 008e D32AD7EB 		.ascii	"\323*\327\353C\014\347\035^\035\347u9\377\271\0034\271"
  97      430CE71D 
ARM GAS  C:\Users\Luggi\AppData\Local\Temp\ccMGEkUC.s 			page 7


  97      5E1DE775 
  97      39FFB903 
  97      34B9
  98 00a0 AE01D00B 		.ascii	"\256\001\320\013\003V\311\025UwhP\311U\271\321s>\313"
  98      0356C915 
  98      55776850 
  98      C955B9D1 
  98      733ECB
  99 00b3 A121D8D5 		.ascii	"\241!\330\325\354\336\362\203a\030\261\376\236\374\232"
  99      ECDEF283 
  99      6118B1FE 
  99      9EFC9A
 100 00c2 FC04676C 		.ascii	"\374\004gl\216K\003\270\010[\030\332\314z\027\037\273"
 100      8E4B03B8 
 100      085B18DA 
 100      CC7A171F 
 100      BB
 101 00d3 352FDAE4 		.ascii	"5/\332\344\3105\360\201\006\370\3005s\370\204\337\241"
 101      C835F081 
 101      06F8C035 
 101      73F884DF 
 101      A1
 102 00e4 6C02B21B 		.ascii	"l\002\262\033\375ka.s\232'8\344\320\347\331\307\321"
 102      FD6B612E 
 102      739A2738 
 102      E4D0E7D9 
 102      C7D1
 103 00f6 D70A7D72 		.ascii	"\327\012}rN\237\343\201\213>\330\330n\030U\317\236T"
 103      4E9FE381 
 103      8B3ED8D8 
 103      6E1855CF 
 103      9E54
 104 0108 D7651A3E 		.ascii	"\327e\032>\303\373,\231\334\220\340\012t\202\202\\\370"
 104      C3FB2C99 
 104      DC90E00A 
 104      7482825C 
 104      F8
 105 0119 11D64117 		.ascii	"\021\326A\027\254\263\342\000\227`\343\3255A#\231\234"
 105      ACB3E200 
 105      9760E3D5 
 105      35412399 
 105      9C
 106 012a FBBB717A 		.ascii	"\373\273qz3\317WX\202\253*\015N\032\\4\270\205Y\026"
 106      33CF5758 
 106      82AB2A0D 
 106      4E1A5C34 
 106      B8855916 
 107 013e BD66D390 		.ascii	"\275f\323\220CC.\015ki\310\243\201\261)\024=\340fQ\024"
 107      43432E0D 
 107      6B69C8A3 
 107      81B12914 
 107      3DE06651 
 108 0153 32E05626 		.ascii	"2\340V&\240?^\027?_H\247\230\347\012\005\341d\337\277"
 108      A03F5E17 
 108      3F5F48A7 
 108      98E70A05 
 108      E164DFBF 
ARM GAS  C:\Users\Luggi\AppData\Local\Temp\ccMGEkUC.s 			page 8


 109 0167 2E52EAE8 		.ascii	".R\352\3508a\032*\251\375sj,\342\024S\214>\375\376\332"
 109      38611A2A 
 109      A9FD736A 
 109      2CE21453 
 109      8C3EFDFE 
 110 017c 05570B9C 		.ascii	"\005W\013\2343\275\220\340\032\\F\245WH)\\\205\026`"
 110      33BD90E0 
 110      1A5C46A5 
 110      5748295C 
 110      851660
 111 018f 1350BD70 		.ascii	"\023P\275p|P\221\300l\311\264\203\201\232\340\032\332"
 111      7C5091C0 
 111      6CC9B483 
 111      819AE01A 
 111      DA
 112 01a0 3E02EF93 		.ascii	">\002\357\223\352\275\226\015E\356Bo\275.\014\020\343"
 112      EABD960D 
 112      45EE426F 
 112      BD2E0C10 
 112      E3
 113 01b1 B78E1DE5 		.ascii	"\267\216\035\345\012\363\352$1\026{\031q\254\014>\035"
 113      0AF3EA24 
 113      31167B19 
 113      71AC0C3E 
 113      1D
 114 01c2 55C41E1D 		.ascii	"U\304\036\035\002\240\341b\362\214\261M\2104\015K\367"
 114      02A0E162 
 114      F28CB14D 
 114      88340D4B 
 114      F7
 115 01d3 48C7CC2B 		.ascii	"H\307\314+.\204\232\301OI\352O\266\324\353(u\371\311"
 115      2E849AC1 
 115      4F49EA4F 
 115      B6D4EB28 
 115      75F9C9
 116 01e6 08730357 		.ascii	"\010s\003Wh\263koL\335b6UM\034\025\314\206\024\363\373"
 116      68B36B6F 
 116      4CDD6236 
 116      554D1C15 
 116      CC8614F3 
 117 01fb 4EEFA34F 		.ascii	"N\357\243O\2263o\332\314n\311\274\360G\215\014\240\206"
 117      96336FDA 
 117      CC6EC9BC 
 117      F0478D0C 
 117      A086
 118 020d 87BD6531 		.ascii	"\207\275e1cK\314\266\373\221Q.\240\247S\320S\215\247"
 118      634BCCB6 
 118      FB91512E 
 118      A0A753D0 
 118      538DA7
 119 0220 86B29643 		.ascii	"\206\262\226C{l\350m\204\246\224\305\353\336\267~K\224"
 119      7B6CE86D 
 119      84A694C5 
 119      EBDEB77E 
 119      4B94
 120 0232 79EE44AF 		.ascii	"y\356D\257\311\313=\315\242\246\034\265)\320P\330\250"
 120      C9CB3DCD 
ARM GAS  C:\Users\Luggi\AppData\Local\Temp\ccMGEkUC.s 			page 9


 120      A2A61CB5 
 120      29D050D8 
 120      A8
 121 0243 87A5D4F4 		.ascii	"\207\245\324\364\332\230;\251\324h\322\337%\021m\317"
 121      DA983BA9 
 121      D468D2DF 
 121      25116DCF 
 122 0253 DF4FAB42 		.ascii	"\337O\253Bk%\203\237\345.M`\011]\025\366\013\316\"B"
 122      6B25839F 
 122      E52E4D60 
 122      095D15F6 
 122      0BCE2242 
 123 0267 4A0AB77D 		.ascii	"J\012\267}%\221nt\351km\212\003\361\364\0063\275xtQ"
 123      25916E74 
 123      E96B6D8A 
 123      03F1F406 
 123      33BD7874 
 124 027c 3C9D81B7 		.ascii	"<\235\201\267\0175\353\250\005\011\356\204>\304\006"
 124      0F35EBA8 
 124      0509EE84 
 124      3EC406
 125 028b 05F62E69 		.ascii	"\005\366.i\034\207*c\027\001)\301\010\025\212\374\213"
 125      1C872A63 
 125      170129C1 
 125      08158AFC 
 125      8B
 126 029c 8D8A25CA 		.ascii	"\215\212%\312\234m\356\025\321sU\031\351;\270\304\016"
 126      9C6DEE15 
 126      D1735519 
 126      E93BB8C4 
 126      0E
 127 02ad B1F6C88E 		.ascii	"\261\366\310\216\224\352\014\350G\374\200\300\017\012"
 127      94EA0CE8 
 127      47FC80C0 
 127      0F0A
 128 02bb D56E998E 		.ascii	"\325n\231\216\305\210\303\002~\244H\206dB\347\337\205"
 128      C588C302 
 128      7EA44886 
 128      6442E7DF 
 128      85
 129 02cc 6AB24590 		.ascii	"j\262E\220t\006\303\2428\243X\250x\225X\355\323\266"
 129      7406C3A2 
 129      38A358A8 
 129      789558ED 
 129      D3B6
 130 02de 4346206B 		.ascii	"CF k\005\016V\302Bvs\274P\244\271*=B-\323\001\221\003"
 130      050E56C2 
 130      427673BC 
 130      50A4B92A 
 130      3D422DD3 
 131 02f5 1518DC4B 		.ascii	"\025\030\334K5\3071\313\306\356\206)\014 \336n\020\305"
 131      35C731CB 
 131      C6EE8629 
 131      0C20DE6E 
 131      10C5
 132 0307 2E945D11 		.ascii	".\224]\021\257\033\367}-\315r>\326\226#i\271\317\225"
 132      AF1BF77D 
ARM GAS  C:\Users\Luggi\AppData\Local\Temp\ccMGEkUC.s 			page 10


 132      2DCD723E 
 132      D6962369 
 132      B9CF95
 133 031a F69DE1E6 		.ascii	"\366\235\341\346\231,q\254\177p\343\373i\311_\2256*"
 133      992C71AC 
 133      7F70E3FB 
 133      69C95F95 
 133      362A
 134 032c C2982B93 		.ascii	"\302\230+\223?\351\253\220\314\265\350\322u\372\351"
 134      3FE9AB90 
 134      CCB5E8D2 
 134      75FAE9
 135 033b 805BD463 		.ascii	"\200[\324c us|\327}%\226\261Dy`S~M\323\224\207\210\017"
 135      2075737C 
 135      D77D2596 
 135      B1447960 
 135      537E4DD3 
 136 0353 34ACEA1D 		.ascii	"4\254\352\035\026\032\362d*C\277\377\217T\216-k\243"
 136      161AF264 
 136      2A43BFFF 
 136      8F548E2D 
 136      6BA3
 137 0365 A6C607DC 		.ascii	"\246\306\007\334\362\260\353\325e\327\353R\201\212\372"
 137      F2B0EBD5 
 137      65D7EB52 
 137      818AFA
 138 0374 F9CDAE9F 		.ascii	"\371\315\256\237\210U?\224}\215\356\316I0\203\335\305"
 138      88553F94 
 138      7D8DEECE 
 138      493083DD 
 138      C5
 139 0385 F20EA2FC 		.ascii	"\362\016\242\374\000N\342\345\372\331v\317AO\3057\207"
 139      004EE2E5 
 139      FAD976CF 
 139      414FC537 
 139      87
 140 0396 3C657B76 		.ascii	"<e{v\226\037\256(\365\224|\271\263\274h[I\321\201\362"
 140      961FAE28 
 140      F5947CB9 
 140      B3BC685B 
 140      49D181F2 
 141 03aa D2FD7B0A 		.ascii	"\322\375{\012\013JYF\371\201\262/\366\035\331W\346\251"
 141      0B4A5946 
 141      F981B22F 
 141      F61DD957 
 141      E6A9
 142 03bc F80F84A8 		.ascii	"\370\017\204\250M\025"
 142      4D15
 143              		.text
 144              		.section	.gnu.lto_Clock_4_StandbyPower.d23728b,"",%progbits
 145 0000 789C8D91 		.ascii	"x\234\215\221?H\034A\024\306\33773{\267\334\035\"\251"
 145      3F481C41 
 145      14C6DF37 
 145      337BB7DC 
 145      1D22A9
 146 0013 E40A21A0 		.ascii	"\344\012!\240\210`\264HR\006\004\013\2134\202\255 r"
 146      8860B448 
ARM GAS  C:\Users\Luggi\AppData\Local\Temp\ccMGEkUC.s 			page 11


 146      5206040B 
 146      8B3482AD 
 146      2072
 147 0025 5EA5E4E0 		.ascii	"^\245\344\340\242\265\263\272\"\206\024\"\021\004\221"
 147      A2B5B3BA 
 147      22861422 
 147      110491
 148 0034 14891A73 		.ascii	"\024\211\032s\346\374W\210(\341\320*\004.(\212AI\004"
 148      E6FC5788 
 148      28E1D02A 
 148      042E288A 
 148      414904
 149 0047 39416DE2 		.ascii	"9Am\342a\360O!\2277;\246\012H\026f\336\314\333\357\375"
 149      61F04F21 
 149      97373BA6 
 149      0A481666 
 149      DECCDBEF 
 150 005c E69B3792 		.ascii	"\346\2337\222\376\375\236\361x$\210j9\"D\020#y\"\317"
 150      FEFD9EF1 
 150      7824886A 
 150      39224410 
 150      237922CF 
 151 0070 1542AE57 		.ascii	"\025B\256W\222\216\250\235\006\3221\011\307\246\325"
 151      928EA89D 
 151      06D23109 
 151      C7A6D5
 152 007f DF850398 		.ascii	"\337\205\003\230\005\201\372\204T\016\372p*\212\002"
 152      0581FA84 
 152      540EFA70 
 152      2A8A02
 153 008e 23B9CC78 		.ascii	"#\271\314x\264fJk}\276\275W1Xq\303\344\013aO\302\014"
 153      B4664A6B 
 153      7DBEBD57 
 153      315871C3 
 153      E40B614F 
 154 00a4 6A58E2BF 		.ascii	"jX\342\277\277\274U\262\012\304\353\325\037\237\213"
 154      BFBC55B2 
 154      0AC4EBD5 
 154      1F9F8B
 155 00b3 B1EA775A 		.ascii	"\261\352wZ\367\347\276du#n\004\360\001\222+P\027Gm\234"
 155      F7E7BE64 
 155      75236E04 
 155      F001922B 
 155      5017476D 
 156 00c8 38419845 		.ascii	"8A\230E\265\021\027\375\333\275h\310gv\271e\342#B\340"
 156      B51117FD 
 156      DBBD68C8 
 156      6776B965 
 156      E22342E0 
 157 00dc 38FF20A7 		.ascii	"8\377 \247K\245\345\303\321\223\307\"\302\004\326+\256"
 157      4BA5E5C3 
 157      D193C722 
 157      C204D62B 
 157      AE
 158 00ed 148E99C2 		.ascii	"\024\216\231\302fr\315DT\340a\\\037\363\206\243\334"
 158      6672CD44 
 158      54E0615C 
ARM GAS  C:\Users\Luggi\AppData\Local\Temp\ccMGEkUC.s 			page 12


 158      1FF386A3 
 158      DC
 159 00fe 85FF7DA0 		.ascii	"\205\377}\2404\0266\240+a\374{\323k\257\303'\"P#\203"
 159      341636A0 
 159      2B61FC7B 
 159      D36BAFC3 
 159      27225023 
 160 0113 7860FC58 		.ascii	"x`\374XHZ\257\224\373\330\270|\225\237K[\265bu\346\315"
 160      485AAF94 
 160      FBD8B87C 
 160      959F4B5B 
 160      B56275E6 
 161 0128 C166D4A8 		.ascii	"\301f\324\250\345\322\220\247\2251yX\370\266\345\006"
 161      E5D290A7 
 161      95317958 
 161      F8B6E506 
 162 0138 2932DBE1 		.ascii	")2\333\341\225\354yd\022\023\236\317wS\230C\034\237"
 162      95EC7964 
 162      12139ECF 
 162      77539843 
 162      1C9F
 163 014a 0C15594C 		.ascii	"\014\025YL\202\3661p\035\2628\307\022g\363\343ge\246"
 163      82F63170 
 163      1DB238C7 
 163      1267F3E3 
 163      6765A6
 164 015d 5CFDE28B 		.ascii	"\\\375\342\213\317\263\224O\035\205\321\334G[`\0323"
 164      CFB3944F 
 164      1D85D1DC 
 164      475B601A 
 164      33
 165 016e 02AF8A76 		.ascii	"\002\257\212v\032\254\327\263:\313\016\337W\272xg\344"
 165      1AACD7B3 
 165      3ACB0EDF 
 165      57BA7867 
 165      E4
 166 017f F79D11D7 		.ascii	"\367\235\021\327\352\277\036]_\304\202F\224\023\226"
 166      EABF1E5D 
 166      5FC48246 
 166      941396
 167 018e FED7C772 		.ascii	"\376\327\307r\340\303\015|8A\213\177\302\313\275}n\352"
 167      E0C30D7C 
 167      38418B7F 
 167      C2CBBD7D 
 167      6EEA
 168 01a0 4C270BFC 		.ascii	"L'\013\374\234\234\345\346>lN\276H\246;z\222\235\355"
 168      9C9CE5E6 
 168      3E6C4EBE 
 168      48A63B7A 
 168      929DED
 169 01b3 ADA9DE74 		.ascii	"\255\251\336t\"\331\326\322\232jz\332\326\324\235Jt"
 169      22D9D6D2 
 169      9A6A7ADA 
 169      D6D49D4A 
 169      74
 170 01c4 B53FA94F 		.ascii	"\265?\251O\220\363\262\207\177\377\001l\"\315\347"
 170      90F3B287 
ARM GAS  C:\Users\Luggi\AppData\Local\Temp\ccMGEkUC.s 			page 13


 170      7FFF016C 
 170      22CDE7
 171              		.text
 172              		.section	.gnu.lto_Clock_4_GetDividerRegister.d23728b,"",%progbits
 173 0000 789C6366 		.ascii	"x\234cf\300\004R@\374\003\210\225\201\230\221\231\201"
 173      C0045240 
 173      FC038895 
 173      81989199 
 173      81
 174 0011 9169C239 		.ascii	"\221i\3029\006\206F\016&FF\020\203\201\221\241\236\211"
 174      0686460E 
 174      26464610 
 174      838191A1 
 174      9E89
 175 0023 B19EF125 		.ascii	"\261\236\361%\323G&\306\323\217~|\346y\301\364\223\211"
 175      D34726C6 
 175      D38F7E7C 
 175      E679C1F4 
 175      9389
 176 0035 418001C8 		.ascii	"A\200\001\310\235u\375\351\027f\020\227\221\011\304"
 176      9D75FDE9 
 176      17661097 
 176      9109C4
 177 0044 DDFDF9DC 		.ascii	"\335\375\371\334#6\365\245\015\015M\037&\315N\2341e"
 177      2336F5A5 
 177      0D0D4D1F 
 177      26CD4E9C 
 177      3165
 178 0056 01E34F26 		.ascii	"\001\343O&&\206\317L\014\214\313\031\245\030W0\202,"
 178      2686CF4C 
 178      0C8CCB19 
 178      A5185730 
 178      822C
 179 0068 625CC9A8 		.ascii	"b\\\311\250\016R\373\261\345\357un\266\226\206\206\006"
 179      0E52FBB1 
 179      E5EF756E 
 179      B6968686 
 179      06
 180 0079 01900AA0 		.ascii	"\001\220\012\240\304*F6F \275^\350@\303\377\377\233"
 180      C42A4636 
 180      4620BD5E 
 180      E840C3FF 
 180      FF9B
 181 008b DF4EE930 		.ascii	"\337N\3510gafb\000\231\300\360\004\210Any\012\344\000"
 181      67616662 
 181      0099C0F0 
 181      0488416E 
 181      790AE400 
 182 009f 69E65B8C 		.ascii	"i\346[\214\207\276u\335;\313\005\322\363\235\011\344"
 182      87BE75DD 
 182      3BCB05D2 
 182      F39D09E4 
 183 00af B0FDF326 		.ascii	"\260\375\363&}c\004\271\204yBcc\003\013\310\206\373"
 183      7D6304B9 
 183      84794263 
 183      63030BC8 
 183      86FB
ARM GAS  C:\Users\Luggi\AppData\Local\Temp\ccMGEkUC.s 			page 14


 184 00c1 4FCE5FE4 		.ascii	"O\316_\344\000\0131\200\270+7\375\276\3026\227qvcK\343"
 184      000B3180 
 184      B82B37FD 
 184      BEC23697 
 184      7176634B 
 185 00d6 01999F4C 		.ascii	"\001\231\237L,\214\253\201nZ\003r\023\343Z\306\271\214"
 185      2C8CAB81 
 185      6E5A0372 
 185      13E35AC6 
 185      B98C
 186 00e8 0CF7181B 		.ascii	"\014\367\030\033\033\270\241\0062\200\254d\004Y\005"
 186      1BB8A106 
 186      3280AC64 
 186      045905
 187 00f7 642ABAA7 		.ascii	"d*\272\247\346\245\026%\226\244\246\304\007\347\227"
 187      E6A51625 
 187      96A4A6C4 
 187      07E797
 188 0106 1625A7C6 		.ascii	"\026%\247\306\004\004\347;\233\3068\347\344'g\307\233"
 188      0404E73B 
 188      9BC638E7 
 188      E42767C7 
 188      9B
 189 0117 E8253300 		.ascii	"\350%3\000\000\2373h\342"
 189      009F3368 
 189      E2
 190              		.text
 191              		.section	.gnu.lto_Clock_4_SetModeRegister.d23728b,"",%progbits
 192 0000 789C7D91 		.ascii	"x\234}\221\317+DQ\024\307\317\367\336\2317\303\224d"
 192      CF2B4451 
 192      14C7CFF7 
 192      DE9937C3 
 192      9464
 193 0012 C5EC9469 		.ascii	"\305\354\224iRb\303^,\254\224R\026R\223f\336B~L\015"
 193      5262C35E 
 193      2CAC9452 
 193      16529366 
 193      DE427E4C 
 194 0027 D6DE636C 		.ascii	"\326\336cld\201RJV\362s0\013\177\200\327\244l4(%\223"
 194      6481524A 
 194      56F27330 
 194      0B7F80D7 
 194      A46C3428 
 195 003d 466AD450 		.ascii	"Fj\324P\212\010\2434\3161\026J\271u\357=\337s\277\347"
 195      8A08A334 
 195      CE31164A 
 195      B975EF3D 
 195      DF73BFE7 
 196 0051 D379E769 		.ascii	"\323y\347i\372\273\374\274S j\342\033\232\240\346\322"
 196      FABBFCBC 
 196      53206AE2 
 196      1B9AA0E6 
 196      D2
 197 0062 44B65701 		.ascii	"D\266W\001\022\020hBa\002w\352Ia\316I,\371\202k\226"
 197      12106842 
 197      610277EA 
 197      4961CE49 
ARM GAS  C:\Users\Luggi\AppData\Local\Temp\ccMGEkUC.s 			page 15


 197      2CF9826B 
 198 0077 653DA6F6 		.ascii	"e=\246\366k\246\253\013\212\350Y\2250\330@\220-\307"
 198      6BA6AB0B 
 198      8AE85995 
 198      30D84090 
 198      2DC7
 199 0089 EBF30F86 		.ascii	"\353\363\017\206\256\003q|4\225\316z\002\253\2265\351"
 199      AE03717C 
 199      3495CE7A 
 199      02AB9635 
 199      E9
 200 009a 1CEF59AD 		.ascii	"\034\357Y\255(0s\023\232+\320\340G\275\2378A\330B@\314"
 200      28307313 
 200      9A2BD0E0 
 200      47BD9F38 
 200      41D84240 
 201 00af 4FF1CF0B 		.ascii	"O\361\317\013\237\021gve\211\211m\030\334\026%\253\034"
 201      9F116776 
 201      6589896D 
 201      18DC1625 
 201      AB1C
 202 00c1 AB587C4E 		.ascii	"\253X|N/\346\203\356r\3055J\363\241]\220J\267\204\206"
 202      2FE683EE 
 202      72C5354A 
 202      F3A15D90 
 202      4AB78486 
 203 00d5 1C1E39BC 		.ascii	"\034\0369\274\362L\224\343-\315\337\262\340[g\220z\235"
 203      F24C94E3 
 203      2DCDDFB2 
 203      E05B6790 
 203      7A9D
 204 00e7 79BDEC15 		.ascii	"y\275\354\025\344\233\222/\271<L\336\350\274*(\327\202"
 204      E49B922F 
 204      B93C4CDE 
 204      E8BC2A28 
 204      D782
 205 00f9 6D5B2E69 		.ascii	"m[.i\340:wr\346\375N\221\310\253\331\323\217\212\025"
 205      E03A7772 
 205      E6FD4E91 
 205      C8ABD9D3 
 205      8F8A15
 206 010c 2CDB71EE 		.ascii	",\333q\356\333\215\004\374\330\001\317\012\273X\001"
 206      DB8D04FC 
 206      D801CF0A 
 206      BB5801
 207 011b 653099F5 		.ascii	"e0\231\365\224p\232\211\277\265\373\215\011\031L\275"
 207      94709A89 
 207      BFB5FB8D 
 207      09194CBD 
 208 012b 1B252D29 		.ascii	"\033%-)\346\335;\037\347e\202\327\357\305\237\305c\335"
 208      E6DD3B1F 
 208      E76582D7 
 208      EFC59FC5 
 208      63DD
 209 013d 63247B5F 		.ascii	"c${_~\274\236o\234\361\033\347\345,\353\324\002D\377"
 209      7EBC9E6F 
 209      9CF11BE7 
ARM GAS  C:\Users\Luggi\AppData\Local\Temp\ccMGEkUC.s 			page 16


 209      E52CEBD4 
 209      0244FF
 210 0150 D758921B 		.ascii	"\327X\222\033c?ea;\007=\342\226\377\222\343\031\363"
 210      633F6561 
 210      3B073DE2 
 210      96FF92E3 
 210      19F3
 211 0162 0C7822B5 		.ascii	"\014x\"\265\035\346\210\031\353\0373#\241\356\350x,"
 211      1DE68819 
 211      EB1F3323 
 211      A1EEE878 
 211      2C
 212 0173 6CF67575 		.ascii	"l\366uuG\333[\372\332\207\242\341\301Psc\230|\303\321"
 212      47DB5BFA 
 212      DA87A2E1 
 212      C1507363 
 212      987CC3D1 
 213 0187 88D93630 		.ascii	"\210\33160\326\331?:\370\005\221\371\255\351"
 213      D6D93F3A 
 213      F80591F9 
 213      ADE9
 214              		.text
 215              		.section	.gnu.lto_Clock_4_ClearModeRegister.d23728b,"",%progbits
 216 0000 789C7D50 		.ascii	"x\234}P=HBQ\030\375\316\275\372\024\204\210\246r\013"
 216      3D484251 
 216      18FDCEBD 
 216      FA148488 
 216      A6720B
 217 0013 8A08A296 		.ascii	"\212\010\242\226Z\232\242\206\246 h\010B\220\2607D?"
 217      5A9AA286 
 217      A6206808 
 217      4290B037 
 217      443F
 218 0025 82D9EC7B 		.ascii	"\202\331\354{j\015\321\320\017A\020N\322\257\225Cc\213"
 218      6A0DD1D0 
 218      0F41104E 
 218      D2AF9543 
 218      638B
 219 0037 44504358 		.ascii	"DPCX\015\021IX\201AQA\226d\012Q\337\355\215A\027\356"
 219      0D114958 
 219      81415141 
 219      96640A51 
 219      DFED8D41 
 220 004d BDDF3D9C 		.ascii	"\275\337=\234s\276s?I\177\227\233\367\"\210Z\370\206"
 220      73BE733F 
 220      497F979B 
 220      F722885A 
 220      F886
 221 005f 2488B934 		.ascii	"$\210\2714\221\351\024\200*\010\024\022\010\341Q\344"
 221      91E91480 
 221      2A081412 
 221      08E151E4 
 222 006f 05E65289 		.ascii	"\005\346R\211eW\303\252a\030\257o\3735S\325%A\364.,"
 222      6557C3AA 
 222      6118AF6F 
 222      FB3553D5 
 222      2541F42E 
ARM GAS  C:\Users\Luggi\AppData\Local\Temp\ccMGEkUC.s 			page 17


 223 0084 1BACA381 		.ascii	"\033\254\243\201)'k\363/\232\254\003q}\024Ig\035\365"
 223      29276BF3 
 223      2F9AAC03 
 223      717D1449 
 223      671DF5
 224 0097 71C308A7 		.ascii	"q\303\010\247\322\273F\007J\354\271\001\311\0124\271"
 224      D2BB4607 
 224      4AECB901 
 224      C90A34B9 
 225 00a7 D1E82606 		.ascii	"\321\350&\006\010\233\250W\344|\364\353\322\245E\331"
 225      089BA857 
 225      E47CF4EB 
 225      D2A545D9 
 226 00b7 BBD2F2C4 		.ascii	"\273\322\362\304\0264\216E\311\252\224\361\375\275W"
 226      16348E45 
 226      C9AA94F1 
 226      FDBD57
 227 00c6 583A6EB7 		.ascii	"X:n\267;\005k\204\204\022\331TiW\207\246\016\242\034"
 227      3B056B84 
 227      8412D954 
 227      695787A6 
 227      0EA21C
 228 00d9 6F15F99E 		.ascii	"o\025\371\236\037|\313\014\016>f\322\331\001eT\024*"
 228      1F7CCB0C 
 228      0E3E66D2 
 228      D9016554 
 228      142A
 229 00eb FFD561F2 		.ascii	"\377\325a\362N>\210\222\220\013\246i\330T\333\233\334"
 229      4E3E8892 
 229      900BA669 
 229      D854DB9B 
 229      DC
 230 00fc E9B9F317 		.ascii	"\351\271\363\027\"\365\274\236=+W\304\260bF9\255\015"
 230      22F5BC9E 
 230      3D2B57C4 
 230      B0624639 
 230      AD0D
 231 010e 09B8B10D 		.ascii	"\011\270\261\015\236\020v\020\003e\020.O\037J\313\320"
 231      9E107610 
 231      0365102E 
 231      4F1F4ACB 
 231      D0
 232 011f 56644D06 		.ascii	"VdM\006\221\302\364\263\260\020;\203\354Q\214\337>A"
 232      91C2F4B3 
 232      B0103B83 
 232      EC518CDF 
 232      3E41
 233 0131 590A0761 		.ascii	"Y\012\007a\227\325L\372\324,\212\012\302D\206\016\026"
 233      97D54CFA 
 233      D42C8A0A 
 233      C244860E 
 233      16
 234 0142 A0A0FF7A 		.ascii	"\240\240\377z&\271'K(\0133u\321\257\330j\3209\036\032"
 234      26B9274B 
 234      280B3375 
 234      D1AFD86A 
 234      D0391E1A 
ARM GAS  C:\Users\Luggi\AppData\Local\Temp\ccMGEkUC.s 			page 18


 235 0156 7F8F3F5B 		.ascii	"\177\217?[\333\255\217\353\201\301\240>\344\355\363"
 235      DBAD8FEB 
 235      81C1A03E 
 235      E4EDF3
 236 0165 4F067CBA 		.ascii	"O\006|\272\247\267\317\337\325\346\351\032\365\373F"
 236      A7B7CFDF 
 236      D5E6E91A 
 236      F5FB46
 237 0174 BCADCD3E 		.ascii	"\274\255\315>r\215\371\207\364\316\341`\317\340\304"
 237      728DF987 
 237      F4CEE160 
 237      CFE0C4
 238 0183 C80F4560 		.ascii	"\310\017E`\233\020"
 238      9B10
 239              		.text
 240              		.section	.gnu.lto_Clock_4_GetModeRegister.d23728b,"",%progbits
 241 0000 789C6366 		.ascii	"x\234cf\300\004R@\374\027\210\225\201\230\221\231\201"
 241      C0045240 
 241      FC178895 
 241      81989199 
 241      81
 242 0011 9169C239 		.ascii	"\221i\3029\006\206F\016&FF\020\203\201\221\241\236\211"
 242      0686460E 
 242      26464610 
 242      838191A1 
 242      9E89
 243 0023 B19EF125 		.ascii	"\261\236\361%\323G&\3063;\377]fT_\332\320\320\364\341"
 243      D34726C6 
 243      333BFF5D 
 243      66545FDA 
 243      D0D0F4E1 
 244 0037 D0C5BBDC 		.ascii	"\320\305\273\334\255\022?\231\030\030>310\352H1j\202"
 244      AD123F99 
 244      18183E33 
 244      3130EA48 
 244      316A82
 245 004a CC615CCE 		.ascii	"\314a\\\316\250\316\000T\370\261\345\357un\266\226\206"
 245      A8CE0054 
 245      F8B1E5EF 
 245      756EB696 
 245      86
 246 005b 86060190 		.ascii	"\206\006\001\220<Pb\005#\033#\220^/t\240\341\377\377"
 246      3C506205 
 246      231B2390 
 246      5E2F74A0 
 246      E1FFFF
 247 006e CFC7A6BD 		.ascii	"\317\307\246\275Pfcab\370\311\004\264\021d\010\303\023"
 247      50666361 
 247      62F8C904 
 247      B4116408 
 247      C313
 248 0080 2001B2EF 		.ascii	" \001\262\357)\023\023\210f\276\305x\350[\327\267\027"
 248      29131388 
 248      66BEC578 
 248      E85BD7B7 
 248      17
 249 0091 16208DDF 		.ascii	"\026 \215\337\231@\226\337<\262\376!\363\013\246\237"
ARM GAS  C:\Users\Luggi\AppData\Local\Temp\ccMGEkUC.s 			page 19


 249      994096DF 
 249      3CB2FE21 
 249      F30BA69F 
 250 00a1 4C4C931A 		.ascii	"LL\223\032\033\033X@\326\334\177r\376\"\007X\210\001"
 250      1B1B5840 
 250      D6DC7F72 
 250      FE220758 
 250      8801
 251 00b3 C4BDD373 		.ascii	"\304\275\323s\341\027\337\\\306\331\215-\214?\231\230"
 251      E117DF5C 
 251      C6D98D2D 
 251      8C3F9998 
 252 00c3 1957324A 		.ascii	"\031W2J1\256b\004:\213q5\343\\F\206[\214\315?\332t "
 252      31AE6204 
 252      3A8B7135 
 252      E35C4686 
 252      5B8CCD3F 
 253 00da E631438C 		.ascii	"\3461C\214|\367\370O3X?\303\017F\006\3065@\265\367\030"
 253      7CF7F84F 
 253      33583FC3 
 253      0F4606C6 
 253      3540B5F7 
 254 00ef 19A12AC0 		.ascii	"\031\241*\300nb\004\271\005h\270\242{j^jQbIjJ|p~iQr"
 254      6E6204B9 
 254      0568B8A2 
 254      7B6A5E6A 
 254      5162496A 
 255 010a 6A4C4070 		.ascii	"jL@p\276\263i\214sN~rv\274\211^2\003\0008\351h1"
 255      BEB3698C 
 255      734E7E72 
 255      76BC895E 
 255      32030038 
 256              		.text
 257              		.section	.gnu.lto_Clock_4_GetSourceRegister.d23728b,"",%progbits
 258 0000 789C6366 		.ascii	"x\234cf\300\004R@\374\007\210\225\201\230\221\231\201"
 258      C0045240 
 258      FC078895 
 258      81989199 
 258      81
 259 0011 9169C239 		.ascii	"\221i\3029\006\206F\016&FF\020\203\201\221\241\236\211"
 259      0686460E 
 259      26464610 
 259      838191A1 
 259      9E89
 260 0023 B19EF125 		.ascii	"\261\236\361%\323G&\3063;\377]fT_\332\320\320\364\241"
 260      D34726C6 
 260      333BFF5D 
 260      66545FDA 
 260      D0D0F4A1 
 261 0037 E9EB5DEE 		.ascii	"\351\353]\356V\211\237L\014\014\237\231\030\030u\244"
 261      56899F4C 
 261      0C0C9F99 
 261      181875A4 
 262 0047 183541E6 		.ascii	"\0305A\3460.gTg\000*\374\330\362\367:7[KCC\203\000H"
 262      302E6754 
 262      67002AFC 
 262      D8F2F73A 
ARM GAS  C:\Users\Luggi\AppData\Local\Temp\ccMGEkUC.s 			page 20


 262      375B4B43 
 263 005f 1E28B182 		.ascii	"\036(\261\202\221\215\021H\257\027:\320\360\377\377"
 263      918D1148 
 263      AF173AD0 
 263      F0FFFF
 264 006e E72BD35F 		.ascii	"\347+\323_h\261\26301\374d\002\332\0102\204\341\011"
 264      68B1B330 
 264      31FC6402 
 264      DA083284 
 264      E109
 265 0080 9000D9F7 		.ascii	"\220\000\331\367\224\211\011D3\337b<\364\255\353\332"
 265      94890944 
 265      33DF623C 
 265      F4ADEBDA 
 266 0090 2F0B90C6 		.ascii	"/\013\220\306\357L \313o\036Y\377\220\371\005\323O&"
 266      EF4C20CB 
 266      6F1E59FF 
 266      90F905D3 
 266      4F26
 267 00a2 A6498D8D 		.ascii	"\246I\215\215\015, k\356?9\177\221\003,\304\000\342"
 267      0D2C206B 
 267      EE3F397F 
 267      91032CC4 
 267      00E2
 268 00b4 DEE9B9F0 		.ascii	"\336\351\271\360\213o.\343\354\306\026\306\237L\314"
 268      8B6F2EE3 
 268      ECC616C6 
 268      9F4CCC
 269 00c3 8C2B19A5 		.ascii	"\214+\031\245\030W1\002\235\305\270\232q.#\303-\306"
 269      18573102 
 269      9DC5B89A 
 269      712E23C3 
 269      2DC6
 270 00d5 E61F6D3A 		.ascii	"\346\037m:\020\363\230!F~\377s\274\225\037\244\237\201"
 270      10F39821 
 270      467EFF73 
 270      BC951FA4 
 270      9F81
 271 00e7 9D81710D 		.ascii	"\235\201q\015P\351=FF\250\002\260\223\030AN\001\232"
 271      50E93D46 
 271      46A802B0 
 271      9318414E 
 271      019A
 272 00f9 ADE89E9A 		.ascii	"\255\350\236\232\227Z\224X\222\232\022\037\234_Z\224"
 272      975A9458 
 272      929A121F 
 272      9C5F5A94 
 273 0109 9C1A1310 		.ascii	"\234\032\023\020\234\357l\032\343\234\223\237\234\035"
 273      9CEF6C1A 
 273      E39C939F 
 273      9C1D
 274 0117 6FA297CC 		.ascii	"o\242\227\314\000\000\215(g!"
 274      00008D28 
 274      6721
 275              		.text
 276              		.section	.gnu.lto_Clock_4_SetDividerRegister.d23728b,"",%progbits
 277 0000 789C8D56 		.ascii	"x\234\215V[LTG\030\236\177\316\236\275\357\262,\327"
ARM GAS  C:\Users\Luggi\AppData\Local\Temp\ccMGEkUC.s 			page 21


 277      5B4C5447 
 277      189E7FCE 
 277      9EBDEFB2 
 277      2CD7
 278 0012 A0118912 		.ascii	"\240\021\211\022\212\225\366\245\266I\233\266\032\233"
 278      8A95F6A5 
 278      B6499BB6 
 278      1A9B
 279 0020 F8DA6AD3 		.ascii	"\370\332j\323'Sca\037\214D\222\255\366\301\304x\326"
 279      27536361 
 279      1F8C4492 
 279      ADF6C1C4 
 279      78D6
 280 0032 5D855062 		.ascii	"]\205Pb\021\020\251\025QQ\204zA\260\265^Z\330Z.\242"
 280      1110A915 
 280      5151847A 
 280      41B0B55E 
 280      5AD85A2E 
 281 0047 882277AA 		.ascii	"\210\"w\252\353\245,\027\323R(\226\233V:\227s\316.X"
 281      EBA52C17 
 281      D3522896 
 281      9B563A97 
 281      73CE2E58 
 282 005b B66EC270 		.ascii	"\266n\302pf\346\377\276\371\347\373\2773g\004\364\342"
 282      66E6FFBE 
 282      F9E7FBBF 
 282      336704F4 
 282      E2
 283 006c EF4D40E8 		.ascii	"\357M@\350\017\023B\037\221g\210E\200s[\020r\3511\026"
 283      0F13421F 
 283      91678845 
 283      80735B10 
 283      72E93116 
 284 0080 9ADE4392 		.ascii	"\232\336C\2221\2521\014If\001k\262\222H\317@[\263\006"
 284      31AA310C 
 284      4966016B 
 284      B29248CF 
 284      405BB306 
 285 0094 6B594F64 		.ascii	"kYOd=Q\356\3619-\326\261\236\236\365t\020\305\351\364"
 285      3D51EEF1 
 285      392DD6B1 
 285      9E9EF574 
 285      10C5E9F4 
 286 00a8 CA83011B 		.ascii	"\312\203\001\033\331|\030\2337b3\353\231X\317$\367\370"
 286      D97C189B 
 286      376233EB 
 286      9958CF24 
 286      F7F8
 287 00ba 9C192C1C 		.ascii	"\234\031,\034b\30119\215\210\214[=:2\036\303\307WY!"
 287      62C13139 
 287      8D888C5B 
 287      3D3A321E 
 287      C3C75759 
 288 00cf 8CCF8761 		.ascii	"\214\317\207a\033\203E2\230\015\333Y/\234\365\302\301"
 288      1B834532 
 288      980DDB59 
 288      2F9CF5C2 
ARM GAS  C:\Users\Luggi\AppData\Local\Temp\ccMGEkUC.s 			page 22


 288      C1
 289 00e0 CE83EC10 		.ascii	"\316\203\354\020\301\037\"p4g\213bl\321||U\244\222`"
 289      C11F2270 
 289      34678B62 
 289      6CD17C7C 
 289      55A49260 
 290 00f4 14007D40 		.ascii	"\024\000}@\200vbA#juz\203\321d\266\304X\303l\341\366"
 290      80766241 
 290      236A757A 
 290      83D164B6 
 290      C458C36C 
 291 010a 88E8C828 		.ascii	"\210\350\310(\330)X\270t\021\374\337\020\036\305\220"
 291      D82958B8 
 291      7411FCDF 
 291      101EC590 
 292 011a EB3D5564 		.ascii	"\353=UdJ:!I\322H\336h\354\356\330)\214\320\030\346\001"
 292      4A3A2149 
 292      D248DE68 
 292      ECEED829 
 292      8CD018E6 
 293 012f 70129248 		.ascii	"p\022\222H\310d\177\357\001\203\260\024\020y\276\361"
 293      C8647FEF 
 293      0183B014 
 293      1079BEF1 
 294 013f 6872CC3C 		.ascii	"hr\314<\210\2470\330h\367`\227\377\211@\273\030\323"
 294      88A730D8 
 294      68F76097 
 294      FF8940BB 
 294      18D3
 295 0151 EEFEF2B6 		.ascii	"\356\376\362\266\2078\261T\222vy\273\317I+\311\270\000"
 295      8738B154 
 295      927679BB 
 295      CF492BC9 
 295      B800
 296 0163 E520103E 		.ascii	"\345 \020>\250\2008\370\026\342\020\031Bp\012\022It"
 296      A88038F8 
 296      16E21019 
 296      42700A12 
 296      4974
 297 0175 73E6BE2E 		.ascii	"s\346\276.\020^g\274\203\276\366<\013GN\237\225V\302"
 297      105E67BC 
 297      83BEF63C 
 297      0B474E9F 
 297      9556C2
 298 0188 14D6C069 		.ascii	"\024\326\300i\216\\\036\007\311\024\247Ap\006\022i\360"
 298      8E5C1E07 
 298      C914A741 
 298      70061269 
 298      F0
 299 0199 F479BFA4 		.ascii	"\364y\277\244\027\336b\300\202\3543\227\015K\216\022"
 299      17DE62C0 
 299      82EC3397 
 299      0D4B8E12 
 300 01a9 E0839C81 		.ascii	"\340\203\234\201\006\223T$y\036\314\314\304S\374\331"
 300      06935424 
 300      791ECCCC 
 300      C453FCD9 
ARM GAS  C:\Users\Luggi\AppData\Local\Temp\ccMGEkUC.s 			page 23


 301 01b9 603CFF11 		.ascii	"`<\377\021@u\237g\217(\274\317\300\355\356\001\277\205"
 301      40759F67 
 301      8F28BCCF 
 301      C0EDEE01 
 301      BF85
 302 01cb 818FEC1D 		.ascii	"\201\217\354\035\020\203\240\347\376\023\352j\310\254"
 302      1083A0E7 
 302      FE13EA6A 
 302      C8AC
 303 01d9 1285350C 		.ascii	"\022\2055\014\332Y}\262\034\370\272_ef\232\245r\005"
 303      DA597DB2 
 303      1CF8BA5F 
 303      65669AA5 
 303      7205
 304 01eb 2C40F5EC 		.ascii	",@\365\354\035\253\360Q\317?]&\255\207Hm\203JX\002U"
 304      1DABF051 
 304      CF3F5D26 
 304      AD87486D 
 304      834A5802 
 305 0200 E4EF3C2C 		.ascii	"\344\357<,\341r\303w\240%\216\026\202g*\355^iff\254"
 305      E172C377 
 305      A0258E16 
 305      82672AED 
 305      5E696666 
 306 0215 3E7FF055 		.ascii	">\177\360U\015\221i\012\213ZD\347\364\210\316\032\200"
 306      0D91690A 
 306      8B5A44E7 
 306      F488CE1A 
 306      80
 307 0226 EA6824C3 		.ascii	"\352h$\303Z\023\24203}\264\320&\2346v\332\304\320&\226"
 307      5A13A230 
 307      337DB4D0 
 307      269C3676 
 307      DAC4D026 
 308 023b 365442ED 		.ascii	"6TB\355\002\332,\242M<m\026\323&\2016Ki\223H\233$\240"
 308      02DA2CA2 
 308      4D3C6D16 
 308      D3268136 
 308      4B699348 
 309 0252 3227D3C7 		.ascii	"2'\323\307e\264YN\233\024\332 \324G2\315Y\210\374\244"
 309      65B4594E 
 309      9B14DA20 
 309      D44732CD 
 309      5988FCA4 
 310 0266 DA390B85 		.ascii	"\3329\013\205\273\340\366\026\267Xh\346\023XK6x\270"
 310      BBE0F616 
 310      B75868E6 
 310      13584B36 
 310      78B8
 311 0278 6DEF59BC 		.ascii	"m\357Y\274\343\251\224%\351\247\260n\014\223\375\300"
 311      E3A99425 
 311      E9A7B06E 
 311      0C93FDC0 
 312 0288 F7B08360 		.ascii	"\367\260\203`\365\250\0230\333\"I\237\004#\212-\331"
 312      F5A81330 
 312      DB22499F 
 312      04238A2D 
ARM GAS  C:\Users\Luggi\AppData\Local\Temp\ccMGEkUC.s 			page 24


 312      D9
 313 0299 6BE558FD 		.ascii	"k\345X\375\\\254a\214\254\200\340\002\303\032U\354y"
 313      5CAC618C 
 313      AC80E002 
 313      C31A55EC 
 313      79
 314 02aa 8AD5A30E 		.ascii	"\212\325\243\016\360\364\270\007\016\305r\260\201\016"
 314      F0F4B807 
 314      0EC572B0 
 314      810E
 315 02b8 D19F9F38 		.ascii	"\321\237\2378\313\033-\364\302\325\361l\337\245O\370"
 315      CB1B2DF4 
 315      C2D5F16C 
 315      DFA54FF8 
 316 02c8 AC915AFC 		.ascii	"\254\221Z\374\313\332i\0035\251\351X\246K\322\320R\334"
 316      CBDA6903 
 316      35A9E958 
 316      A64BD2D0 
 316      52DC
 317 02da EFBBD5AA 		.ascii	"\357\273\325\252gC\2542UUY\223\206b\370\306\345!\306"
 317      6743AC32 
 317      55555993 
 317      8662F8C6 
 317      E521C6
 318 02ed 13E10752 		.ascii	"\023\341\007R\271\213\264rp\011\212\001\365\202{rO3"
 318      B98BB472 
 318      70098A01 
 318      F5827B72 
 318      4F33
 319 02ff E68426CE 		.ascii	"\346\204&\316Yvo7\347\324\330\020\\&\261J\216\2254G"
 319      59766F37 
 319      E7D4D810 
 319      5C26B14A 
 319      8E953447 
 320 0313 13CDB1DB 		.ascii	"\023\315\261\333=qha@\034W\331\225\034\035E\020\035"
 320      3D716861 
 320      401C57D9 
 320      951C1D45 
 320      101D
 321 0325 E18AEC0B 		.ascii	"\341\212\354\013?q\365\021\223\300\242\037\013\0015"
 321      3F71F511 
 321      93C0A21F 
 321      0B0135
 322 0334 D4603309 		.ascii	"\324`3\011\376Q\015\026\321m\221\007\227\311\262\033"
 322      FE510D16 
 322      D16D9107 
 322      97C9B21B 
 323 0344 8266B5E8 		.ascii	"\202f\265\350\242\236\317\226\026\277\"s\005M\353\320"
 323      A29ECF96 
 323      16BF2273 
 323      054DEBD0 
 324 0354 210D55A7 		.ascii	"!\015U\247p\2643_\244\323d\235\332\303y\343@\327\261"
 324      70B4335F 
 324      A4D3649D 
 324      DAC379E3 
 324      40D7B1
 325 0367 E4BAE64A 		.ascii	"\344\272\346Jca\322TT?m\327*\322X\341'\"M\015\223\246"
ARM GAS  C:\Users\Luggi\AppData\Local\Temp\ccMGEkUC.s 			page 25


 325      6361D254 
 325      543F6DD7 
 325      2AD258E1 
 325      27224D0D 
 326 037d 964843D6 		.ascii	"\226HC\326GL\357\361\313y\300W\014'\230\236\272\312"
 326      474CEFF1 
 326      CB79C057 
 326      0C27989E 
 326      BACA
 327 038f 87EC5430 		.ascii	"\207\354T0\345)\254wsnO[\003\012{U\205\177V\024\326"
 327      E529AC77 
 327      736E4F5B 
 327      030A7B55 
 327      857F5614 
 328 03a4 72BC9D53 		.ascii	"r\274\235S\014\335y\322c\245\024b- \270JB\311:|\215"
 328      0CDD79D2 
 328      63A51462 
 328      2D20B84A 
 328      42C93A7C 
 329 03b9 506CBFB0 		.ascii	"Pl\277\260\244\354l\277zy\277\343\331\217\336\341\334"
 329      A4EC6CBF 
 329      7A79BFE3 
 329      D98FDEE1 
 329      DC
 330 03ca E650D03A 		.ascii	"\346P\320:9\221'r\"\026\036_]z\342\002+\264v%\202\372"
 330      39912772 
 330      22161E5F 
 330      5D7AE202 
 330      2BB47625 
 331 03e0 97CDA381 		.ascii	"\227\315\243\201\345aALn\237*\367\274b6\312b\322\274"
 331      E561414C 
 331      6E9F2AF7 
 331      BC6236CA 
 331      62D2BC
 332 03f3 0D28CB2A 		.ascii	"\015(\313*0\217W\036\226\313h\0122\214\021ytt[##\375"
 332      308F571E 
 332      96CB680A 
 332      328C1179 
 332      74745B23 
 333 0409 6D3A9977 		.ascii	"m:\231w\346ki\005\323\333%\311z7\035{<\214\331J.o2\315"
 333      E66B6905 
 333      D3DB25C9 
 333      7A371D7B 
 333      3C8CD94A 
 334 0421 ED9A9A5B 		.ascii	"\355\232\232[\023Y+\270\316\"\031\273\31676rn\330m\220"
 334      13592BB8 
 334      CE2219BB 
 334      CE373672 
 334      6ED86D90 
 335 0435 39F376F5 		.ascii	"9\363v\365ng\234\271\012\347\201\012O\207%\230\363\206"
 335      6E679CB9 
 335      0AE7810A 
 335      4F872598 
 335      F386
 336 0447 CAD9CC39 		.ascii	"\312\331\3149\325\267B$o\305M\231s$\300Yr\275\365\006"
 336      D5B74224 
 336      6FC54D99 
ARM GAS  C:\Users\Luggi\AppData\Local\Temp\ccMGEkUC.s 			page 26


 336      7324C059 
 336      72BDF506 
 337 045b 66A4050A 		.ascii	"f\244\005\012i\376\276\374zk0i\213Jz\213\220*\231\215"
 337      69FEBEFC 
 337      7A6B3069 
 337      8B4A7A8B 
 337      902A998D 
 338 046f 6737D4E4 		.ascii	"g7\324\344\312\026\213!0\337\231KE\334bY\012S}\213\224"
 338      CA168B21 
 338      30DF994B 
 338      45DC6259 
 338      0A537D8B 
 339 0484 038162DC 		.ascii	"\003\201b\334VyZ\347X,\226S\224\014=\037\324\260dw\""
 339      56795AE7 
 339      582C9653 
 339      940C3D1F 
 339      D4B06477 
 340 0499 B833A7B2 		.ascii	"\2703\247\262\363\222\265\261J\305\362\234|5\237r\312"
 340      F392B5B1 
 340      4AC5F29C 
 340      7C359F72 
 340      CA
 341 04aa B8506668 		.ascii	"\270PfhW\017\221g\032\036\276\214#\216\357/<-2o\221"
 341      570F9167 
 341      1A1EBE8C 
 341      238EEF2F 
 341      3C2D326F 
 342 04bf 13BD83C4 		.ascii	"\023\275\203\304\262\227\267Z\336\346\262\240\242\233"
 342      B297B75A 
 342      DEE6B2A0 
 342      A29B
 343 04cd D05581BF 		.ascii	"\320U\201\277\332\177\011/\276\370fT*RK\344UM\264)V"
 343      DA7F092F 
 343      BEF86654 
 343      2A524BE4 
 343      554DB429 
 344 04e2 738D165D 		.ascii	"s\215\026]aR[v)\002\215\034m]\0330_\247j\276.\266%="
 344      61525B76 
 344      29028D1C 
 344      6D5D1B30 
 344      5FA76ABE 
 345 04fa 2FD644BE 		.ascii	"/\326D\276R\254`\013\245\314\266P7/\367\304\263\306"
 345      52AC600B 
 345      A5CCB650 
 345      372FF7C4 
 345      B3C6
 346 050c DD614C41 		.ascii	"\335aLA\035\202\036\226\216\237\230\276\371m\376\332"
 346      1D821E96 
 346      8E9F98BE 
 346      F96DFEDA 
 347 051c 75D66EE7 		.ascii	"u\326n\347\271.\232\305\006\263\271z\003G\254\310\303"
 347      B92E9AC5 
 347      06B3B97A 
 347      0347ACC8 
 347      C3
 348 052d 17704463 		.ascii	"\027pDc\361`5\253\017\371.\302\257\\\235\036\367\260"
 348      F16035AB 
ARM GAS  C:\Users\Luggi\AppData\Local\Temp\ccMGEkUC.s 			page 27


 348      0FF92EC2 
 348      AF5C9D1E 
 348      F7B0
 349 053f ACCE0255 		.ascii	"\254\316\002U\235>\034\203*V\200\037[e\031\306\263\207"
 349      9D3E1C83 
 349      2A56801F 
 349      5B6519C6 
 349      B387
 350 0551 6B0BE5B0 		.ascii	"k\013\345\260\305\241N\367\273s\214\221\300\343+Z\212"
 350      C5A14EF7 
 350      BB738C91 
 350      C0E32B5A 
 350      8A
 351 0562 1EF3B3E7 		.ascii	"\036\363\263\347O\262\362\2759\316\230\227\315\307d"
 351      4FB2F2BD 
 351      39CE9897 
 351      CDC764
 352 0571 4CE032D6 		.ascii	"L\3402\326\025\274\204\214\367\025\203S\335\302\350"
 352      15BC848C 
 352      F7158353 
 352      DDC2E8
 353 0580 6BCFB27F 		.ascii	"k\317\262\177~\355c\236\317\322P\313=Pu\253\223]\025"
 353      7EED639E 
 353      CFD250CB 
 353      3D5075AB 
 353      935D15
 354 0593 CF11EA15 		.ascii	"\317\021\352\025MK^\302\207\212n\307dA\342\203\\e\223"
 354      4D4B5EC2 
 354      878A6EC7 
 354      6441E283 
 354      5C6593
 355 05a6 8F92C2AA 		.ascii	"\217\222\302\252\233\005\212o\3463\311#\371\204bdc\307"
 355      9B058A6F 
 355      E633C923 
 355      F9846264 
 355      63C7
 356 05b8 DFE56C49 		.ascii	"\337\345lIAU\010\247\036\365\223\303\227\223\252\202"
 356      415508A7 
 356      1EF593C3 
 356      9793AA82 
 357 05c8 85388A7E 		.ascii	"\2058\212~c\244\344\232\320\017\324O\225%\177?g_#\221"
 357      63A4E49A 
 357      D00FD44F 
 357      95257F3F 
 357      675F2391 
 358 05dc DC11FB20 		.ascii	"\334\021\373 \316\326\255#\243\255\007\313\334\334e"
 358      CED6AD23 
 358      A3AD07CB 
 358      DCDC65
 359 05eb A41A7E88 		.ascii	"\244\032~\210\013\247\251G r\331\225\213\335\344\344"
 359      0BA7A947 
 359      2072D995 
 359      8BDDE4E4 
 360 05fb C92487B2 		.ascii	"\311$\207\262Y\277*\327\357\262\\\211\004\021\360U\215"
 360      59BF2AD7 
 360      EFB25C89 
 360      0411F055 
ARM GAS  C:\Users\Luggi\AppData\Local\Temp\ccMGEkUC.s 			page 28


 360      8D
 361 060c AC4F62D0 		.ascii	"\254Ob\320\216\242\021\271q\023cE\252:u\024\374\357"
 361      8EA211B9 
 361      71136345 
 361      AA3A7514 
 361      FCEF
 362 061e 513E10FC 		.ascii	"Q>\020\374]\364]\227\357!\313C\225rp\316\247'\205\304"
 362      5DF45D97 
 362      EF21CB43 
 362      957270CE 
 362      A72785C4 
 363 0632 D34BC44B 		.ascii	"\323K\304K\331n\210\255\227\302\012\032E\257e>py\357"
 363      D96E88AD 
 363      97C20A1A 
 363      45AF653E 
 363      7079EF
 364 0645 AFA530BE 		.ascii	"\257\2450\276\013 \203\3446\225\260\306\261\305\341"
 364      0B2083E4 
 364      3695B0C6 
 364      B1C5E1
 365 0654 DCB8D591 		.ascii	"\334\270\325\221\266a]\3066g\252c\375\207\3532V\257"
 365      B6615DC6 
 365      3667AA63 
 365      FD87EB32 
 365      56AF
 366 0666 58BF3A3D 		.ascii	"X\277:=#u\363\2067^KE\306\324\364\315\037l\372bS\232"
 366      2375F386 
 366      375E4B45 
 366      C6D4F4CD 
 366      1F6CFA62 
 367 067c C3A9733A 		.ascii	"\303\251s:>\337\272\321\271U\347\330\262\361\263tG\232"
 367      3EDFBAD1 
 367      B955E7D8 
 367      B2F1B374 
 367      479A
 368 068e 2E759BD3 		.ascii	".u\233\323\271\316\231j\314HO\223C\376\005\312(L\221"
 368      B9CE996A 
 368      CC484F93 
 368      43FE05CA 
 368      284C91
 369              		.text
 370              		.section	.gnu.lto_Clock_4_SetSourceRegister.d23728b,"",%progbits
 371 0000 789C8D54 		.ascii	"x\234\215T]h\034U\024>\347\316\356\374\354\354n\326"
 371      5D681C55 
 371      143EE7CE 
 371      EEFCECEC 
 371      6ED6
 372 0012 A4699AA5 		.ascii	"\244i\232\245I\032\326\022\012\245\276\250O\205\026"
 372      491AD612 
 372      0AA5BEA8 
 372      4F8516
 373 0021 2AF82AE4 		.ascii	"*\370*\344\321B\221m\036\244\301\300b\373\"%\263\311"
 373      D142916D 
 373      1EA4C1C0 
 373      62FB2225 
 373      B3C9
 374 0033 9606A95A 		.ascii	"\226\006\251Z\362 \305\020Qjml4i\323v\243\266\332m\014"
ARM GAS  C:\Users\Luggi\AppData\Local\Temp\ccMGEkUC.s 			page 29


 374      F220C510 
 374      516A6D6C 
 374      3469D376 
 374      A3B6DA6D 
 375 0048 4190A43F 		.ascii	"A\220\244?Vcj\2115&\375\203$-\033b\266\322\256\347\334"
 375      56636A89 
 375      3526FD83 
 375      242D1B62 
 375      B6D2AEE7 
 376 005d 3BBB1957 		.ascii	";\273\031W]\262\260g\346\236\373}g\276\363\235;\243"
 376      5DB2B067 
 376      E69EFB7D 
 376      67BEF39D 
 376      3BA3
 377 006f C1BF7FDD 		.ascii	"\301\277\177\335\364?\245\003l\247+\006\001\305\321"
 377      F43FA503 
 377      6CA72B06 
 377      01C5D1
 378 007e 0980A429 		.ascii	"\011\200\244)\204\326\325\004N@\347\030\324\204\317"
 378      84D6D504 
 378      4E40E718 
 378      D484CF
 379 008d B3F209FF 		.ascii	"\263\362\011\377\305z^\335x\216V~\264\025E\027\206\004"
 379      C57A5EDD 
 379      788E567E 
 379      B4154517 
 379      8604
 380 009f 0524C810 		.ascii	"\005$\310\020\246ge\012KR\002\222b\025(\201\302\215"
 380      A667650A 
 380      4B520292 
 380      62152881 
 380      C28D
 381 00b1 8DC83780 		.ascii	"\215\3107\200\320.4\237_7L+`c;\336\027\217\004\036\315"
 381      D02E349F 
 381      5F374C2B 
 381      60633BDE 
 381      178F041E 
 382 00c6 F41FB39B 		.ascii	"\364\037\263\233N8\216\363ph\252\366\320\206\234\000"
 382      4E388EF3 
 382      7068AAF6 
 382      D0869C00 
 383 00d6 C80A251F 		.ascii	"\310\012%\037Ob\023Ar3\263\243\001\355Y\004\272?}\375"
 383      4F621341 
 383      7233B3A3 
 383      01ED5904 
 383      BA3F7DFD 
 384 00ea 93EF71F3 		.ascii	"\223\357q\363q\307\351\310L\0148;1'\020\373P#\006n\215"
 384      71C7E9C8 
 384      4C0C383B 
 384      312710FB 
 384      5023066E 
 385 00ff E2962850 		.ascii	"\342\226(P\002\3603\334\314\340\364\370\371\221\012"
 385      02F033DC 
 385      CCE0F4F8 
 385      F9910A
 386 010e 6D9B24FE 		.ascii	"m\233$\3760\263\222\015\336\0239!\"\274\374`rnI\343"
 386      30B3920D 
ARM GAS  C:\Users\Luggi\AppData\Local\Temp\ccMGEkUC.s 			page 30


 386      DE133921 
 386      22BCFC60 
 386      726E49E3 
 387 0122 A5267839 		.ascii	"\245&x9\336\227<\024\212}Leo\217\277s8\350\3649\251"
 387      DE973C14 
 387      8A7D4C65 
 387      6F8FBF73 
 387      38E8F439 
 388 0137 DBF97C43 		.ascii	"\333\371|CN\370\360\224\252\336\217Q\374\034\243\256"
 388      4EF8F094 
 388      AADE8F51 
 388      FC1CA3AE 
 389 0147 B144593C 		.ascii	"\261DY<w\346\200\366\242\254\235}\362\336dX\261'\346"
 389      77E680F6 
 389      A2AC9D7D 
 389      F2DE6458 
 389      B127E6
 390 015a C76CE758 		.ascii	"\307l\347X\201\2158\340\325V\344>J=\231\264\365\024"
 390      818D38E0 
 390      D556E43E 
 390      4A3D99B4 
 390      F514
 391 016c 351DC12F 		.ascii	"5\035\301/0\206\203\030SM\343i\324\021@\024\262\203"
 391      30868318 
 391      534DE369 
 391      D4114014 
 391      B283
 392 017e 9519279F 		.ascii	"\225\031'\237?{\347\375{;\364\230\0178\255\003o\030"
 392      3F7BE7FD 
 392      7B3BF498 
 392      0F38AD03 
 392      6F18
 393 0190 C84D9AD4 		.ascii	"\310M\232\324\256\337\342`s\010R\320C\034\302\034*8"
 393      AEDFE260 
 393      730852D0 
 393      431CC21C 
 393      2A38
 394 01a2 4478A392 		.ascii	"Dx\243\222C\025/\327q\250\346\260\236C\015o\324r`\347"
 394      43152FD7 
 394      71A8E6B0 
 394      9E430D6F 
 394      D47260E7 
 395 01b6 FC1B39D4 		.ascii	"\374\0339\324\361F=\207\006\016\23384\362\006\300,i"
 395      F1463D87 
 395      060E9B38 
 395      34F206C0 
 395      2C69
 396 01c8 E451CE09 		.ascii	"\344Q\316\011\301W\355\026vfzz\302\254\372O\341\243"
 396      C157ED16 
 396      76667A7A 
 396      C2ACFA4F 
 396      E1A3
 397 01da C63EFCF1 		.ascii	"\306>\374\361\335\001q\360/\247\3131s\302\310\322,\000"
 397      DD0171F0 
 397      2FA7CB31 
 397      73C2C8D2 
 397      2C00
ARM GAS  C:\Users\Luggi\AppData\Local\Temp\ccMGEkUC.s 			page 31


 398 01ec CFE04162 		.ascii	"\317\340Ab\233\3603\012\331\036\365@``n\357\257!\305"
 398      9BF0330A 
 398      D91EF540 
 398      60606EEF 
 398      AF21C5
 399 01ff D54BB956 		.ascii	"\325K\271V\226\036\0018$\271\201\"w\220\271:\374\204"
 399      961E0138 
 399      24B98122 
 399      7790B93A 
 399      FC84
 400 0211 A9A9CE3F 		.ascii	"\251\251\316?\322\033V\311\311O/\0341x\236\244\022\317"
 400      D21B56C9 
 400      C94F2F1C 
 400      31789EA4 
 400      12CF
 401 0223 BA739A13 		.ascii	"\272s\232\023\032t5i\204\376\245sFS`\303\263\353\203"
 401      1A743569 
 401      84FEA573 
 401      465360C3 
 401      B3EB83
 402 0236 D12AB57B 		.ascii	"\321*\265{7\375\326j\023\305Z6\325:WD\373\341\212\241"
 402      37FDD66A 
 402      13C55A36 
 402      D53A5744 
 402      FBE18AA1 
 403 024a DDC491E5 		.ascii	"\335\304\221\345\267\027\346\023\012m\022zjt\360wy\222"
 403      B717E613 
 403      0A6D127A 
 403      6A74F077 
 403      7992
 404 025c 82DDC9A4 		.ascii	"\202\335\311\244\343\343\361\3766{\345\232)Sr\332\267"
 404      E3E3F1FE 
 404      367BE59A 
 404      295372DA 
 404      B7
 405 026d 8E5C7D1C 		.ascii	"\216\\}\034\356\305\236d\212\216k\010\317\323IJsU\034"
 405      EEC59E64 
 405      8A8E6B08 
 405      CFD3494A 
 405      73551C
 406 0280 C65E849B 		.ascii	"\306^\204\233\330\271\244\253r\226\2528t\374D\332\222"
 406      D8B9A4AB 
 406      7296AA38 
 406      74FC44DA 
 406      92
 407 0291 BDEC04FC 		.ascii	"\275\354\004\374\222\220\364\320ndH\271b_Q1*\001R\341"
 407      9290F4D0 
 407      6E6448B9 
 407      625F5131 
 407      2A0152E1 
 408 02a5 D3F9EDAA 		.ascii	"\323\371\355\252\244]\216\362\265z~\307\364\341\345"
 408      A45D8EF2 
 408      B57A7EC7 
 408      F4E1E5
 409 02b4 424741A2 		.ascii	"BGA\242\260\244\025WR\210RT\342A\346\361\015)I_\311"
 409      B0A41557 
 409      52885254 
ARM GAS  C:\Users\Luggi\AppData\Local\Temp\ccMGEkUC.s 			page 32


 409      E241E6F1 
 409      0D29495F 
 410 02c9 BB3F7A81 		.ascii	"\273?z\201/Hm\035\323\206\302\206\311]o;\025\222\036"
 410      2F486D1D 
 410      D386C286 
 410      C95D6F3B 
 410      15921E
 411 02dc F6422294 		.ascii	"\366B\"\224\375\237v\222\231\332\177\252\273(\033\212"
 411      FD9F7692 
 411      99DA7FAA 
 411      BB281B8A 
 412 02ec 48EF75B8 		.ascii	"H\357u\270<\006jT'\207\353\334\261{&i\300G1M\236\212"
 412      3C066A54 
 412      2787EBDC 
 412      B17B2669 
 412      C047314D 
 413 0302 E5FF98B3 		.ascii	"\345\377\230\263\011W\237Q\344\376\341vw\316\236\301"
 413      09579F51 
 413      E4FEE176 
 413      77CE9EC1 
 414 0312 5AF05057 		.ascii	"Z\360PW\203}\272\340\332VY\316\266oVm[pm\253\"\212\327"
 414      837DBAE0 
 414      DA5659CE 
 414      B66F566D 
 414      5B706DAB 
 415 0329 B675942A 		.ascii	"\266u\224*\265\247\272\304\236\365\022V\355\205\324"
 415      B5A7BAC4 
 415      9EF51256 
 415      ED85D4
 416 0338 5076ADF6 		.ascii	"Pv\255\366|+\355\251Q\363\036[t\205\324\226\023~\311"
 416      7C2BEDA9 
 416      51F31E5B 
 416      7485D496 
 416      137EC9
 417 034b 3D6F0595 		.ascii	"=o\005\225Q\205\277\177}i*\314\303\015]\242ogf\255\007"
 417      5185BF7F 
 417      7D692ACC 
 417      C30D5DA2 
 417      6F6766AD 
 418 0360 EEB21410 		.ascii	"\356\262\024\020\225\026\006\340\332\016\367\335Xt-"
 418      951606E0 
 418      DA0EF7DD 
 418      58742D
 419 036f DC588E3B 		.ascii	"\334X\216;R\264\360NAy\035Q\274\342\352)UjaC\211\205"
 419      52B4F04E 
 419      41791D51 
 419      BCE2EA29 
 419      556A6143 
 420 0385 9B24ACC1 		.ascii	"\233$\254\301\013i\244\354Z-\374Nv\320(;\260\345\007"
 420      0B69A4EC 
 420      5A2DFC4E 
 420      76D0283B 
 420      B0E507
 421 0398 6D1A9399 		.ascii	"m\032\223\231\374\253\314\344\2431K\337/\312\322\207"
 421      FCABCCE4 
 421      A3314BDF 
 421      2FCAD287 
ARM GAS  C:\Users\Luggi\AppData\Local\Temp\ccMGEkUC.s 			page 33


 422 03a8 A8F1E596 		.ascii	"\250\361\345\2267Z\022\257\275\331\262wOs\333\376D\274"
 422      375A12AF 
 422      BDD9B277 
 422      4F73DBFE 
 422      44BC
 423 03ba 65F72BCD 		.ascii	"e\367+\315m\273^\330\275\253\265-\276o\317\363\333\342"
 423      6DBB5ED8 
 423      BDABB52D 
 423      BE6FCFF3 
 423      DBE2
 424 03cc 60C55BF7 		.ascii	"`\305[\367\251-#\276?\221x\351\365\003z[\353\336\346"
 424      A92D23BE 
 424      3F9178E9 
 424      F5037A5B 
 424      EBDEE6
 425 03df 44FC6F03 		.ascii	"D\374o\003\267c\246"
 425      B763A6
 426              		.text
 427              		.section	.gnu.lto_.symbol_nodes.d23728b,"",%progbits
 428 0000 789C55C7 		.ascii	"x\234U\307\273\015\2000\020\004\321\265\317\306\347"
 428      BB0D8030 
 428      1004D1B5 
 428      CFC6E7
 429 000f 6B7A5B20 		.ascii	"kz[ \"F\024D@\005\210B\020\342\023\260\223\214\236\001"
 429      22461444 
 429      40058842 
 429      10E213B0 
 429      938C9E01 
 430 0023 D8F09541 		.ascii	"\330\360\225A`\\\001\022\323\354\310\211I\234\231\305"
 430      605C0112 
 430      D3ECC889 
 430      499C99C5 
 431 0033 46135716 		.ascii	"F\023W\026\361\300*n\034\304\316&\016\272\270\260\213"
 431      F1C02A6E 
 431      1CC4CE26 
 431      0EBAB8B0 
 431      8B
 432 0044 3BE36FEB 		.ascii	";\343o\353\216e?\223\365\202\343~\224\327\341\217q\001"
 432      8E653F93 
 432      F582E37E 
 432      94D7E18F 
 432      7101
 433 0056 DBE8393B 		.ascii	"\333\3509;"
 434              		.text
 435              		.section	.gnu.lto_.refs.d23728b,"",%progbits
 436 0000 789C6366 		.ascii	"x\234cf```d\200\002\000\000=\000\005"
 436      60606064 
 436      80020000 
 436      3D0005
 437              		.text
 438              		.section	.gnu.lto_.decls.d23728b,"",%progbits
 439 0000 789C8D55 		.ascii	"x\234\215UmLSW\030\276\247\247\264P\012\272d\221\331"
 439      6D4C5357 
 439      18BEA7A7 
 439      B4500ABA 
 439      6491D9
 440 0013 3FEBFE18 		.ascii	"?\353\376\030\227\020\027\223\315\270_[\3062\226,[\310"
ARM GAS  C:\Users\Luggi\AppData\Local\Temp\ccMGEkUC.s 			page 34


 440      97101793 
 440      CDB85F5B 
 440      C632962C 
 440      5BC8
 441 0025 CC92659A 		.ascii	"\314\222e\232\020\0067\216\314\200\251u\213\331\217"
 441      1006378E 
 441      CC80A975 
 441      8BD98F
 442 0034 5D81CDCA 		.ascii	"]\201\315\312\01427\2062 \235\002\023\264\245c\365\243"
 442      0C323786 
 442      32209D02 
 442      13B4A563 
 442      F5A3
 443 0046 A8B4A568 		.ascii	"\250\264\245h\221\026\344K\264\023\001\213\037\230e"
 443      9116E44B 
 443      B413018B 
 443      1F9865
 444 0055 A67ECC89 		.ascii	"\246~\314\211\037\353\336s\356\271\366\264^\2467y\351"
 444      1FEBDE73 
 444      EEB9F6B4 
 444      5EA63779 
 444      E9
 445 0066 3D1FCFF3 		.ascii	"=\037\317\363\276\317\363\236s\301\202 ,\307\202\020"
 445      BECFF39E 
 445      73C18220 
 445      2CC78210 
 446 0076 87675A2F 		.ascii	"\207gZ/\010\237 A0\302\\\001\204\006b\011\204Y\220\237"
 446      089F2041 
 446      30C25C01 
 446      84066209 
 446      8459909F 
 447 008a 4C888310 		.ascii	"L\210\203\020N\010\027\204\007\"\000q\022\"\0101\000"
 447      4E081784 
 447      07220071 
 447      12220831 
 447      00
 448 009b 11861881 		.ascii	"\021\206\030\201\030\023\236|\010V\313\270\011\357y"
 448      18139E7C 
 448      0856CBB8 
 448      09EF79
 449 00aa 8809B686 		.ascii	"\210\011\266\206\330z\352\343|\012\306\251\202q\261"
 449      D87AEAE3 
 449      7C0AC6A9 
 449      8271B1
 450 00b9 5A09265B 		.ascii	"Z\011&[\220\365\370R\360S\020\027!\246!&9>\227\012\037"
 450      90F5F852 
 450      F0531017 
 450      21A62126 
 450      393E970A 
 451 00ce D199C6F8 		.ascii	"\321\231\306\370\334\013\324\341Q\301\005\030\216\257"
 451      DC0BD4E1 
 451      51C10518 
 451      8EAF
 452 00dc 41C9ABE0 		.ascii	"A\311\253\340\002*8\342\247.%_T%\347I\025l\360\031j"
 452      022A38E2 
 452      A72E255F 
 452      5425E749 
ARM GAS  C:\Users\Luggi\AppData\Local\Temp\ccMGEkUC.s 			page 35


 452      156CF019 
 453 00f1 0DAAE048 		.ascii	"\015\252\340H\357\264\377\203\031P\301\204\237\202\011"
 453      EFB4FF83 
 453      1950C184 
 453      9F8209
 454 0100 AB60C8D9 		.ascii	"\253`\310\331X$<\331\0337\303\022\236Y\210~\210\313"
 454      58243CD9 
 454      1B37C312 
 454      9E59887E 
 454      88CB
 455 0112 107EC66B 		.ascii	"\020~\306k\026\222{\205\031\027\311\241\346\341\030"
 455      16927B85 
 455      1917C9A1 
 455      E6E118
 456 0121 E3577C48 		.ascii	"\343W|H=\007Q\216_\311gN\321\200\031O`\001-75\310\343"
 456      3D07518E 
 456      5FC9674E 
 456      D180194F 
 456      60012D37 
 457 0138 BC339839 		.ascii	"\2743\2309\247A\331\0063\031v\357\352\337\255\203\241"
 457      A741D906 
 457      331976EF 
 457      EADFAD83 
 457      A1
 458 0149 D1A025C3 		.ascii	"\321\240%\303c\017\242\343\332\234:\011\236\332Ji\261"
 458      630FA2E3 
 458      DA9C3A09 
 458      9EDA4A69 
 458      B1
 459 015a 16152C41 		.ascii	"\026\025,A\277\"\023\332\217L\340P;\312\201\277k\265"
 459      BF2213DA 
 459      8F4CE050 
 459      3BCA81BF 
 459      6BB5
 460 016c 32933DBC 		.ascii	"2\223=\274}8\033k\020y\337\267\373\322\270!\267\003"
 460      7D381B6B 
 460      1079DFB7 
 460      FBD2B821 
 460      B703
 461 017e 6036C9E7 		.ascii	"`6\311\347\323$\322\265\\;2\25137KvW\254\263;b\224\372"
 461      D324D2B5 
 461      5C3B32A9 
 461      33374B76 
 461      57ACB33B 
 462 0195 255F3CFE 		.ascii	"%_<\376\006\245B\035\010\243\003(\227\232\017\357r\027"
 462      06A5421D 
 462      08A30328 
 462      979A0FEF 
 462      7217
 463 01a7 0E2233C0 		.ascii	"\016\"3\300\352{\352\354\006\374:\345n\013\356i\317"
 463      EA7BEAEC 
 463      06FC3AE5 
 463      6E0BEE69 
 463      CF
 464 01b8 A614F69D 		.ascii	"\246\024\366\235\373t2\001\305;8\274C\301;)~\322\365"
 464      FB743201 
 464      C53B38BC 
ARM GAS  C:\Users\Luggi\AppData\Local\Temp\ccMGEkUC.s 			page 36


 464      43C13B29 
 464      7ED2F5
 465 01cb CBFD74FC 		.ascii	"\313\375t\374\016\305{\\=\26752>\234\204\357\344\360"
 465      0EC57B5C 
 465      3DB73532 
 465      3E9C84EF 
 465      E4F0
 466 01dd 9D0ADE45 		.ascii	"\235\012\336E\361\023\336m\333\322\361\307\024\277\265"
 466      F113DE6D 
 466      DBD2F1C7 
 466      14BFB5
 467 01ec EDD80E3D 		.ascii	"\355\330\016=X\264\304@\025\325\204\032\374\230\016"
 467      58B4C440 
 467      15D5841A 
 467      FC980E
 468 01fb E3645913 		.ascii	"\343dY\023\211\3748\217\221a\231M\222*\244\330.\011"
 468      89FC388F 
 468      9161994D 
 468      922AA4D8 
 468      2E09
 469 020d BF20A05C 		.ascii	"\277 \240\\\023z\331$\240Ch\031l\2439P\027\270\370;"
 469      137AD924 
 469      A0436819 
 469      6CA33950 
 469      17B8F83B 
 470 0221 B8D8021E 		.ascii	"\270\330\002\036\305z\002\035\357UJo\"72\240\337\036"
 470      C57A021D 
 470      EF554A6F 
 470      223732A0 
 470      DF1E
 471 0233 57413330 		.ascii	"WA30\337j\277\361\327j\265`$\335\263\2266\347\357\370"
 471      DF6ABFF1 
 471      D76AB560 
 471      24DDB396 
 471      36E7EFF8 
 472 0247 A556CD82 		.ascii	"\245V\315\202\3159B\233s\030\261\356\354\275\031j1b"
 472      CD39429B 
 472      7318B1EE 
 472      ECBD196A 
 472      3162
 473 0259 0951098E 		.ascii	"\011Q\011\216\231\301G\230u\341~5\336#\331+\244\177"
 473      99C14798 
 473      75E17E35 
 473      DE23D92B 
 473      A47F
 474 026b E3503F41 		.ascii	"\343P?A\241\243\234\017G\025\037<\324\207P\364\336m"
 474      A1A39C0F 
 474      47151F3C 
 474      D48750F4 
 474      DE6D
 475 027d 233D2D8B 		.ascii	"#=-\213\011O\303\271+w0=-\0322l\272u\343x\006\256CI"
 475      094FC3B9 
 475      2B77303D 
 475      2D1A326C 
 475      BA75E378 
 476 0295 3699659B 		.ascii	"6\231e\233\352\377\274\347N\247\303x\034\023\237\332"
 476      EAFFBCE7 
ARM GAS  C:\Users\Luggi\AppData\Local\Temp\ccMGEkUC.s 			page 37


 476      4EA7C378 
 476      1C139FDA 
 477 02a5 86FF69C8 		.ascii	"\206\377i\310F\313\014\262\001\263\262\001>\020w<a\200"
 477      46CB0CB2 
 477      01B3B201 
 477      3E10773C 
 477      6180
 478 02b7 991940BD 		.ascii	"\231\031@\275\224*\245\264\345\002\352\006\205\307@"
 478      942AA5B4 
 478      E502EA06 
 478      85C740
 479 02c6 21F2829B 		.ascii	"!\362\202\233f\346\346\011\230\354\201IH\364 :\346I"
 479      66E6E609 
 479      98EC8149 
 479      48F4203A 
 479      E649
 480 02d8 72857026 		.ascii	"r\205p&l\361'\235\331\246\231\3731\003n\224+nv\0145"
 480      6CF1279D 
 480      D9A699FB 
 480      31036E94 
 480      2B6E760C 
 481 02ed EAC19519 		.ascii	"\352\301\225\031p\245\353\007#\347\012\200P/\347J\257"
 481      70A5EB07 
 481      23E70A80 
 481      502FE74A 
 481      AF
 482 02fe E24A80BA 		.ascii	"\342J\200\272b\337k\363f\341#L\267m\2466\215z;\323\030"
 482      62DF6BF3 
 482      66E1234C 
 482      B76DA636 
 482      8D7A3BD3 
 483 0313 127D55D2 		.ascii	"\022}U\322C\"\230\032\333\307Q\364)\024')\205+\322\346"
 483      4322981A 
 483      DBC751F4 
 483      29142729 
 483      852BD2E6 
 484 0327 5E84CFC8 		.ascii	"^\204\317\310\024\207\273n\366\262\023:}@9\241\204\340"
 484      1487BB6E 
 484      F6B2133A 
 484      7D4039A1 
 484      84E0
 485 0339 1447704A 		.ascii	"\024GpJ!\010R\202\355U.\314\253v'\251\356OR\335\372"
 485      21085282 
 485      ED552ECC 
 485      AB7627A9 
 485      EE4F52DD 
 486 034e 6DCD527C 		.ascii	"m\315R|\235\345\372~\316\237)\227\273\343\257D\271\000"
 486      9DE5FA7E 
 486      CE9F2997 
 486      BBE3AF44 
 486      B900
 487 0360 40A7B96C 		.ascii	"@\247\271l\247\225l\0034[\355\303\326\372\014\274U\276"
 487      A7956C03 
 487      345BEDC3 
 487      D6FA0CBC 
 487      55BE
 488 0372 EC57F75C 		.ascii	"\354W\367\\\261P\333\354\373;\225j\011>\304\341C\012"
ARM GAS  C:\Users\Luggi\AppData\Local\Temp\ccMGEkUC.s 			page 38


 488      B150DBEC 
 488      FB3B956A 
 488      093EC4E1 
 488      430A
 489 0384 3E2CE355 		.ascii	">,\343U\216\363|d\360\256\206\316\221\216\015\":\351"
 489      8EF37C64 
 489      F0AE86CE 
 489      918E0D22 
 489      3AE9
 490 0396 680FD6E9 		.ascii	"h\017\326\351\027<\343g\250\254!\345\214\337\362_\225"
 490      173CE367 
 490      A8AC21E5 
 490      8CDFF25F 
 490      95
 491 03a7 B2F0CF72 		.ascii	"\262\360\317rU\327\347n\314\033da\333\203\011a\000A"
 491      55D7E76E 
 491      CC1B6461 
 491      DB830961 
 491      0041
 492 03b9 C35C61C3 		.ascii	"\303\\a\303Ja#\264\260\252\032\357W\370\260\314\020"
 492      4A6123B4 
 492      B0AA1AEF 
 492      57F8B0CC 
 492      10
 493 03ca 71FB9AF4 		.ascii	"q\373\232\364r\033B\016\276\015\243\034~T\301\217Q\274"
 493      721B420E 
 493      BE0DA31C 
 493      7E54C18F 
 493      51BC
 494 03dc 54FF5D4B 		.ascii	"T\377]K:\036\226\011\016\335\255\366d\031l\344\344>"
 494      3A1E9609 
 494      0EDDADF6 
 494      64196CE4 
 494      E43E
 495 03ee FD430057 		.ascii	"\375C\000Wb|\250z\"C\376t\244\"\316-\370\351\250\364"
 495      627CA87A 
 495      2243FE74 
 495      A422CE2D 
 495      F8E9A8F4 
 496 0402 1A4F4B52 		.ascii	"\032OKR:\232\000\323\306\023W\347,J|<\306C\025\027\260"
 496      3A9A00D3 
 496      C61357E7 
 496      2C4A7C3C 
 496      C6431517 
 497 0417 B19A5C22 		.ascii	"\261\232\\\"01\343]\2727\341\342yd\244\012\340\227|"
 497      3031E35D 
 497      BA37E1E2 
 497      7964A40A 
 497      E0977C
 498 042a 1E872E4C 		.ascii	"\036\207.La|VV\320w\376\247A\243\254\340\331\256\237"
 498      617C5656 
 498      D077FEA7 
 498      41A3ACE0 
 498      D9AE9F
 499 043d 6667DBD6 		.ascii	"fg\333\326\260\236]k\373\243\225\351h\022rE\022u\375"
 499      B09E5D6B 
 499      FBA395E9 
ARM GAS  C:\Users\Luggi\AppData\Local\Temp\ccMGEkUC.s 			page 39


 499      68127245 
 499      1275FD
 500 0450 811277FA 		.ascii	"\201\022w\372I\322\013\352w\3325\325=\232\251\224a{"
 500      49D20BEA 
 500      77DA35D5 
 500      3D9AA994 
 500      617B
 501 0462 16C4B03F 		.ascii	"\026\304\260?\332\220\311K\276\230$y\212I\236\242\222"
 501      DA90C94B 
 501      BE982479 
 501      8A499EA2 
 501      92
 502 0473 FBC227AE 		.ascii	"\373\302'\256\351\370\315\223I\233\247\331\346i\262"
 502      E9F8CD93 
 502      499BA7D9 
 502      E669B2
 503 0482 193B47BC 		.ascii	"\031;G\274\315\032d2\031v\303\377\266{/\242(\010\"\257"
 503      CD1A6432 
 503      1976C3FF 
 503      B67B2FA2 
 503      280822AF 
 504 0496 BEB978FC 		.ascii	"\276\271x\374\353\270\374\354\324\323i\0339\266\261"
 504      EBB8FCEC 
 504      D4D3691B 
 504      39B6B1
 505 04a5 0AAE8F02 		.ascii	"\012\256\217\002\235\027\320% \237!\345\303\220|\206"
 505      9D17D025 
 505      209F21E5 
 505      C3907C86 
 506 04b5 F6C6FA93 		.ascii	"\366\306\372\223\252%\327'Q\300,+`\226V{\3243P\265\210"
 506      AA25D727 
 506      51C02C2B 
 506      6096567B 
 506      D43350B5 
 507 04ca DFEC4FDA 		.ascii	"\337\354O\332|\231m&\277Yy\033\312\213?/|\265p\215\265"
 507      7C996D26 
 507      BF59791B 
 507      CA8B3F2F 
 507      7CB5708D 
 508 04df C862D5E5 		.ascii	"\310b\325\345\177\360\2219Ox)_,\023-EV\261\244pM\371"
 508      7FF09139 
 508      4F78295F 
 508      2C132D45 
 508      56B1A470 
 509 04f5 664BB1B8 		.ascii	"fK\261\270\256`My\336k\353\330\336\025\305\2021\001"
 509      AE604D79 
 509      DE6BEBD8 
 509      DE15C582 
 509      3101
 510 0507 2BDFF81C 		.ascii	"+\337\370\034?x\213\274\247m.-\263\256^\200\346\225"
 510      3F788BBC 
 510      A76D2E2D 
 510      B3AE5E80 
 510      E695
 511 0519 E22DD62D 		.ascii	"\342-\326-\033\305M+>\023\236\347\262\227\225|\272\245"
 511      1BC54D2B 
 511      3E139EE7 
ARM GAS  C:\Users\Luggi\AppData\Local\Temp\ccMGEkUC.s 			page 40


 511      B297957C 
 511      BAA5
 512 052b A0FC4BD1 		.ascii	"\240\374K\321\242#\340\225\253L\312Z\276h}\273\364\213"
 512      A223E095 
 512      AB4CCA5A 
 512      BE687DBB 
 512      F48B
 513 053d D212D1F2 		.ascii	"\322\022\321\362\241\270\276t\223U\264\344<\206\211"
 513      A1B8BE74 
 513      9355B4E4 
 513      3C8689
 514 054c D6F7CB4B 		.ascii	"\326\367\313KDe~\2512\237\267A,\262\360+9\034\231*\002"
 514      44657EA9 
 514      329FB741 
 514      2CB2F02B 
 514      391C992A 
 515 0561 E6E51A95 		.ascii	"\346\345\032\225\025\023\227#%\375Rn)\031\244\265\210"
 515      15139723 
 515      25FD526E 
 515      2919A4B5 
 515      88
 516 0572 EB57A7C1 		.ascii	"\353W\247\301\237\225\253\376\003\322\033/\033"
 516      9F95ABFE 
 516      03D21B2F 
 516      1B
 517              		.text
 518              		.section	.gnu.lto_.symtab.d23728b,"",%progbits
 519 0000 436C6F63 		.ascii	"Clock_4_Start\000\000\000\000\000\000\000\000\000\000"
 519      6B5F345F 
 519      53746172 
 519      74000000 
 519      00000000 
 520 0017 0000AC00 		.ascii	"\000\000\254\000\000\000Clock_4_Stop\000\000\000\000"
 520      0000436C 
 520      6F636B5F 
 520      345F5374 
 520      6F700000 
 521 002d 00000000 		.ascii	"\000\000\000\000\000\000\000\000\256\000\000\000Clo"
 521      00000000 
 521      AE000000 
 521      436C6F
 522 003c 636B5F34 		.ascii	"ck_4_StopBlock\000\000\000\000\000\000\000\000\000\000"
 522      5F53746F 
 522      70426C6F 
 522      636B0000 
 522      00000000 
 523 0054 0000B000 		.ascii	"\000\000\260\000\000\000Clock_4_StandbyPower\000\000"
 523      0000436C 
 523      6F636B5F 
 523      345F5374 
 523      616E6462 
 524 0070 00000000 		.ascii	"\000\000\000\000\000\000\000\000\000\000\271\000\000"
 524      00000000 
 524      0000B900 
 524      00
 525 007d 00436C6F 		.ascii	"\000Clock_4_GetDividerRegister\000\000\000\000\000\000"
 525      636B5F34 
ARM GAS  C:\Users\Luggi\AppData\Local\Temp\ccMGEkUC.s 			page 41


 525      5F476574 
 525      44697669 
 525      64657252 
 526 009e 00000000 		.ascii	"\000\000\000\000\000\000\303\000\000\000Clock_4_Set"
 526      0000C300 
 526      0000436C 
 526      6F636B5F 
 526      345F5365 
 527 00b3 4D6F6465 		.ascii	"ModeRegister\000\000\000\000\000\000\000\000\000\000"
 527      52656769 
 527      73746572 
 527      00000000 
 527      00000000 
 528 00c9 0000C500 		.ascii	"\000\000\305\000\000\000Clock_4_ClearModeRegister\000"
 528      0000436C 
 528      6F636B5F 
 528      345F436C 
 528      6561724D 
 529 00e9 00000000 		.ascii	"\000\000\000\000\000\000\000\000\000\000\000\307\000"
 529      00000000 
 529      000000C7 
 529      00
 530 00f6 0000436C 		.ascii	"\000\000Clock_4_GetModeRegister\000\000\000\000\000"
 530      6F636B5F 
 530      345F4765 
 530      744D6F64 
 530      65526567 
 531 0114 00000000 		.ascii	"\000\000\000\000\000\000\000\312\000\000\000Clock_4"
 531      000000CA 
 531      00000043 
 531      6C6F636B 
 531      5F34
 532 0126 5F476574 		.ascii	"_GetSourceRegister\000\000\000\000\000\000\000\000\000"
 532      536F7572 
 532      63655265 
 532      67697374 
 532      65720000 
 533 0141 000000CC 		.ascii	"\000\000\000\314\000\000\000Clock_4_SetDividerRegis"
 533      00000043 
 533      6C6F636B 
 533      5F345F53 
 533      65744469 
 534 015f 74657200 		.ascii	"ter\000\000\000\000\000\000\000\000\000\000\000\000"
 534      00000000 
 534      00000000 
 534      000000
 535 016e D1000000 		.ascii	"\321\000\000\000Clock_4_SetSourceRegister\000\000\000"
 535      436C6F63 
 535      6B5F345F 
 535      53657453 
 535      6F757263 
 536 018e 00000000 		.ascii	"\000\000\000\000\000\000\000\000\000\323\000\000\000"
 536      00000000 
 536      00D30000 
 536      00
 537              		.text
 538              		.section	.gnu.lto_.opts,"",%progbits
ARM GAS  C:\Users\Luggi\AppData\Local\Temp\ccMGEkUC.s 			page 42


 539 0000 272D666E 		.ascii	"'-fno-trapv' '-fno-strict-overflow' '-mcpu=cortex-m"
 539      6F2D7472 
 539      61707627 
 539      20272D66 
 539      6E6F2D73 
 540 0033 33272027 		.ascii	"3' '-mthumb' '-g' '-Og' '-ffunction-sections' '-flt"
 540      2D6D7468 
 540      756D6227 
 540      20272D67 
 540      2720272D 
 541 0066 6F272027 		.ascii	"o' '-ffat-lto-objects'\000"
 541      2D666661 
 541      742D6C74 
 541      6F2D6F62 
 541      6A656374 
 542              		.text
 543              		.cfi_sections	.debug_frame
 544              		.section	.text.Clock_4_Start,"ax",%progbits
 545              		.align	2
 546              		.global	Clock_4_Start
 547              		.thumb
 548              		.thumb_func
 549              		.type	Clock_4_Start, %function
 550              	Clock_4_Start:
 551              	.LFB0:
 552              		.file 1 "Generated_Source\\PSoC5\\Clock_4.c"
   1:Generated_Source\PSoC5/Clock_4.c **** /*******************************************************************************
   2:Generated_Source\PSoC5/Clock_4.c **** * File Name: Clock_4.c
   3:Generated_Source\PSoC5/Clock_4.c **** * Version 2.20
   4:Generated_Source\PSoC5/Clock_4.c **** *
   5:Generated_Source\PSoC5/Clock_4.c **** *  Description:
   6:Generated_Source\PSoC5/Clock_4.c **** *   This file provides the source code to the API for the clock component.
   7:Generated_Source\PSoC5/Clock_4.c **** *
   8:Generated_Source\PSoC5/Clock_4.c **** *  Note:
   9:Generated_Source\PSoC5/Clock_4.c **** *
  10:Generated_Source\PSoC5/Clock_4.c **** ********************************************************************************
  11:Generated_Source\PSoC5/Clock_4.c **** * Copyright 2008-2012, Cypress Semiconductor Corporation.  All rights reserved.
  12:Generated_Source\PSoC5/Clock_4.c **** * You may use this file only in accordance with the license, terms, conditions, 
  13:Generated_Source\PSoC5/Clock_4.c **** * disclaimers, and limitations in the end user license agreement accompanying 
  14:Generated_Source\PSoC5/Clock_4.c **** * the software package with which this file was provided.
  15:Generated_Source\PSoC5/Clock_4.c **** *******************************************************************************/
  16:Generated_Source\PSoC5/Clock_4.c **** 
  17:Generated_Source\PSoC5/Clock_4.c **** #include <cydevice_trm.h>
  18:Generated_Source\PSoC5/Clock_4.c **** #include "Clock_4.h"
  19:Generated_Source\PSoC5/Clock_4.c **** 
  20:Generated_Source\PSoC5/Clock_4.c **** /* Clock Distribution registers. */
  21:Generated_Source\PSoC5/Clock_4.c **** #define CLK_DIST_LD              (* (reg8 *) CYREG_CLKDIST_LD)
  22:Generated_Source\PSoC5/Clock_4.c **** #define CLK_DIST_BCFG2           (* (reg8 *) CYREG_CLKDIST_BCFG2)
  23:Generated_Source\PSoC5/Clock_4.c **** #define BCFG2_MASK               (0x80u)
  24:Generated_Source\PSoC5/Clock_4.c **** #define CLK_DIST_DMASK           (* (reg8 *) CYREG_CLKDIST_DMASK)
  25:Generated_Source\PSoC5/Clock_4.c **** #define CLK_DIST_AMASK           (* (reg8 *) CYREG_CLKDIST_AMASK)
  26:Generated_Source\PSoC5/Clock_4.c **** 
  27:Generated_Source\PSoC5/Clock_4.c **** #define HAS_CLKDIST_LD_DISABLE   (CY_PSOC3 || CY_PSOC5LP)
  28:Generated_Source\PSoC5/Clock_4.c **** 
  29:Generated_Source\PSoC5/Clock_4.c **** 
  30:Generated_Source\PSoC5/Clock_4.c **** /*******************************************************************************
  31:Generated_Source\PSoC5/Clock_4.c **** * Function Name: Clock_4_Start
ARM GAS  C:\Users\Luggi\AppData\Local\Temp\ccMGEkUC.s 			page 43


  32:Generated_Source\PSoC5/Clock_4.c **** ********************************************************************************
  33:Generated_Source\PSoC5/Clock_4.c **** *
  34:Generated_Source\PSoC5/Clock_4.c **** * Summary:
  35:Generated_Source\PSoC5/Clock_4.c **** *  Starts the clock. Note that on startup, clocks may be already running if the
  36:Generated_Source\PSoC5/Clock_4.c **** *  "Start on Reset" option is enabled in the DWR.
  37:Generated_Source\PSoC5/Clock_4.c **** *
  38:Generated_Source\PSoC5/Clock_4.c **** * Parameters:
  39:Generated_Source\PSoC5/Clock_4.c **** *  None
  40:Generated_Source\PSoC5/Clock_4.c **** *
  41:Generated_Source\PSoC5/Clock_4.c **** * Returns:
  42:Generated_Source\PSoC5/Clock_4.c **** *  None
  43:Generated_Source\PSoC5/Clock_4.c **** *
  44:Generated_Source\PSoC5/Clock_4.c **** *******************************************************************************/
  45:Generated_Source\PSoC5/Clock_4.c **** void Clock_4_Start(void) 
  46:Generated_Source\PSoC5/Clock_4.c **** {
 553              		.loc 1 46 0
 554              		.cfi_startproc
 555              		@ args = 0, pretend = 0, frame = 0
 556              		@ frame_needed = 0, uses_anonymous_args = 0
 557              		@ link register save eliminated.
  47:Generated_Source\PSoC5/Clock_4.c ****     /* Set the bit to enable the clock. */
  48:Generated_Source\PSoC5/Clock_4.c ****     Clock_4_CLKEN |= Clock_4_CLKEN_MASK;
 558              		.loc 1 48 0
 559 0000 054A     		ldr	r2, .L2
 560 0002 1378     		ldrb	r3, [r2]	@ zero_extendqisi2
 561 0004 43F01003 		orr	r3, r3, #16
 562 0008 1370     		strb	r3, [r2]
  49:Generated_Source\PSoC5/Clock_4.c **** 	Clock_4_CLKSTBY |= Clock_4_CLKSTBY_MASK;
 563              		.loc 1 49 0
 564 000a 1032     		adds	r2, r2, #16
 565 000c 1378     		ldrb	r3, [r2]	@ zero_extendqisi2
 566 000e 43F01003 		orr	r3, r3, #16
 567 0012 1370     		strb	r3, [r2]
 568 0014 7047     		bx	lr
 569              	.L3:
 570 0016 00BF     		.align	2
 571              	.L2:
 572 0018 A2430040 		.word	1073759138
 573              		.cfi_endproc
 574              	.LFE0:
 575              		.size	Clock_4_Start, .-Clock_4_Start
 576              		.section	.text.Clock_4_Stop,"ax",%progbits
 577              		.align	2
 578              		.global	Clock_4_Stop
 579              		.thumb
 580              		.thumb_func
 581              		.type	Clock_4_Stop, %function
 582              	Clock_4_Stop:
 583              	.LFB1:
  50:Generated_Source\PSoC5/Clock_4.c **** }
  51:Generated_Source\PSoC5/Clock_4.c **** 
  52:Generated_Source\PSoC5/Clock_4.c **** 
  53:Generated_Source\PSoC5/Clock_4.c **** /*******************************************************************************
  54:Generated_Source\PSoC5/Clock_4.c **** * Function Name: Clock_4_Stop
  55:Generated_Source\PSoC5/Clock_4.c **** ********************************************************************************
  56:Generated_Source\PSoC5/Clock_4.c **** *
  57:Generated_Source\PSoC5/Clock_4.c **** * Summary:
ARM GAS  C:\Users\Luggi\AppData\Local\Temp\ccMGEkUC.s 			page 44


  58:Generated_Source\PSoC5/Clock_4.c **** *  Stops the clock and returns immediately. This API does not require the
  59:Generated_Source\PSoC5/Clock_4.c **** *  source clock to be running but may return before the hardware is actually
  60:Generated_Source\PSoC5/Clock_4.c **** *  disabled. If the settings of the clock are changed after calling this
  61:Generated_Source\PSoC5/Clock_4.c **** *  function, the clock may glitch when it is started. To avoid the clock
  62:Generated_Source\PSoC5/Clock_4.c **** *  glitch, use the StopBlock function.
  63:Generated_Source\PSoC5/Clock_4.c **** *
  64:Generated_Source\PSoC5/Clock_4.c **** * Parameters:
  65:Generated_Source\PSoC5/Clock_4.c **** *  None
  66:Generated_Source\PSoC5/Clock_4.c **** *
  67:Generated_Source\PSoC5/Clock_4.c **** * Returns:
  68:Generated_Source\PSoC5/Clock_4.c **** *  None
  69:Generated_Source\PSoC5/Clock_4.c **** *
  70:Generated_Source\PSoC5/Clock_4.c **** *******************************************************************************/
  71:Generated_Source\PSoC5/Clock_4.c **** void Clock_4_Stop(void) 
  72:Generated_Source\PSoC5/Clock_4.c **** {
 584              		.loc 1 72 0
 585              		.cfi_startproc
 586              		@ args = 0, pretend = 0, frame = 0
 587              		@ frame_needed = 0, uses_anonymous_args = 0
 588              		@ link register save eliminated.
  73:Generated_Source\PSoC5/Clock_4.c ****     /* Clear the bit to disable the clock. */
  74:Generated_Source\PSoC5/Clock_4.c ****     Clock_4_CLKEN &= (uint8)(~Clock_4_CLKEN_MASK);
 589              		.loc 1 74 0
 590 0000 054A     		ldr	r2, .L5
 591 0002 1378     		ldrb	r3, [r2]	@ zero_extendqisi2
 592 0004 03F0EF03 		and	r3, r3, #239
 593 0008 1370     		strb	r3, [r2]
  75:Generated_Source\PSoC5/Clock_4.c **** 	Clock_4_CLKSTBY &= (uint8)(~Clock_4_CLKSTBY_MASK);
 594              		.loc 1 75 0
 595 000a 1032     		adds	r2, r2, #16
 596 000c 1378     		ldrb	r3, [r2]	@ zero_extendqisi2
 597 000e 03F0EF03 		and	r3, r3, #239
 598 0012 1370     		strb	r3, [r2]
 599 0014 7047     		bx	lr
 600              	.L6:
 601 0016 00BF     		.align	2
 602              	.L5:
 603 0018 A2430040 		.word	1073759138
 604              		.cfi_endproc
 605              	.LFE1:
 606              		.size	Clock_4_Stop, .-Clock_4_Stop
 607              		.section	.text.Clock_4_StopBlock,"ax",%progbits
 608              		.align	2
 609              		.global	Clock_4_StopBlock
 610              		.thumb
 611              		.thumb_func
 612              		.type	Clock_4_StopBlock, %function
 613              	Clock_4_StopBlock:
 614              	.LFB2:
  76:Generated_Source\PSoC5/Clock_4.c **** }
  77:Generated_Source\PSoC5/Clock_4.c **** 
  78:Generated_Source\PSoC5/Clock_4.c **** 
  79:Generated_Source\PSoC5/Clock_4.c **** #if(CY_PSOC3 || CY_PSOC5LP)
  80:Generated_Source\PSoC5/Clock_4.c **** 
  81:Generated_Source\PSoC5/Clock_4.c **** 
  82:Generated_Source\PSoC5/Clock_4.c **** /*******************************************************************************
  83:Generated_Source\PSoC5/Clock_4.c **** * Function Name: Clock_4_StopBlock
ARM GAS  C:\Users\Luggi\AppData\Local\Temp\ccMGEkUC.s 			page 45


  84:Generated_Source\PSoC5/Clock_4.c **** ********************************************************************************
  85:Generated_Source\PSoC5/Clock_4.c **** *
  86:Generated_Source\PSoC5/Clock_4.c **** * Summary:
  87:Generated_Source\PSoC5/Clock_4.c **** *  Stops the clock and waits for the hardware to actually be disabled before
  88:Generated_Source\PSoC5/Clock_4.c **** *  returning. This ensures that the clock is never truncated (high part of the
  89:Generated_Source\PSoC5/Clock_4.c **** *  cycle will terminate before the clock is disabled and the API returns).
  90:Generated_Source\PSoC5/Clock_4.c **** *  Note that the source clock must be running or this API will never return as
  91:Generated_Source\PSoC5/Clock_4.c **** *  a stopped clock cannot be disabled.
  92:Generated_Source\PSoC5/Clock_4.c **** *
  93:Generated_Source\PSoC5/Clock_4.c **** * Parameters:
  94:Generated_Source\PSoC5/Clock_4.c **** *  None
  95:Generated_Source\PSoC5/Clock_4.c **** *
  96:Generated_Source\PSoC5/Clock_4.c **** * Returns:
  97:Generated_Source\PSoC5/Clock_4.c **** *  None
  98:Generated_Source\PSoC5/Clock_4.c **** *
  99:Generated_Source\PSoC5/Clock_4.c **** *******************************************************************************/
 100:Generated_Source\PSoC5/Clock_4.c **** void Clock_4_StopBlock(void) 
 101:Generated_Source\PSoC5/Clock_4.c **** {
 615              		.loc 1 101 0
 616              		.cfi_startproc
 617              		@ args = 0, pretend = 0, frame = 0
 618              		@ frame_needed = 0, uses_anonymous_args = 0
 619              		@ link register save eliminated.
 102:Generated_Source\PSoC5/Clock_4.c ****     if ((Clock_4_CLKEN & Clock_4_CLKEN_MASK) != 0u)
 620              		.loc 1 102 0
 621 0000 164B     		ldr	r3, .L10
 622 0002 1B78     		ldrb	r3, [r3]	@ zero_extendqisi2
 623 0004 13F0100F 		tst	r3, #16
 624 0008 27D0     		beq	.L7
 625              	.LBB2:
 103:Generated_Source\PSoC5/Clock_4.c ****     {
 104:Generated_Source\PSoC5/Clock_4.c **** #if HAS_CLKDIST_LD_DISABLE
 105:Generated_Source\PSoC5/Clock_4.c ****         uint16 oldDivider;
 106:Generated_Source\PSoC5/Clock_4.c **** 
 107:Generated_Source\PSoC5/Clock_4.c ****         CLK_DIST_LD = 0u;
 626              		.loc 1 107 0
 627 000a 1549     		ldr	r1, .L10+4
 628 000c 0023     		movs	r3, #0
 629 000e 0B70     		strb	r3, [r1]
 108:Generated_Source\PSoC5/Clock_4.c **** 
 109:Generated_Source\PSoC5/Clock_4.c ****         /* Clear all the mask bits except ours. */
 110:Generated_Source\PSoC5/Clock_4.c **** #if defined(Clock_4__CFG3)
 111:Generated_Source\PSoC5/Clock_4.c ****         CLK_DIST_AMASK = Clock_4_CLKEN_MASK;
 112:Generated_Source\PSoC5/Clock_4.c ****         CLK_DIST_DMASK = 0x00u;
 113:Generated_Source\PSoC5/Clock_4.c **** #else
 114:Generated_Source\PSoC5/Clock_4.c ****         CLK_DIST_DMASK = Clock_4_CLKEN_MASK;
 630              		.loc 1 114 0
 631 0010 1020     		movs	r0, #16
 632 0012 144A     		ldr	r2, .L10+8
 633 0014 1070     		strb	r0, [r2]
 115:Generated_Source\PSoC5/Clock_4.c ****         CLK_DIST_AMASK = 0x00u;
 634              		.loc 1 115 0
 635 0016 0432     		adds	r2, r2, #4
 636 0018 1370     		strb	r3, [r2]
 116:Generated_Source\PSoC5/Clock_4.c **** #endif /* Clock_4__CFG3 */
 117:Generated_Source\PSoC5/Clock_4.c **** 
 118:Generated_Source\PSoC5/Clock_4.c ****         /* Clear mask of bus clock. */
ARM GAS  C:\Users\Luggi\AppData\Local\Temp\ccMGEkUC.s 			page 46


 119:Generated_Source\PSoC5/Clock_4.c ****         CLK_DIST_BCFG2 &= (uint8)(~BCFG2_MASK);
 637              		.loc 1 119 0
 638 001a 0C3A     		subs	r2, r2, #12
 639 001c 1378     		ldrb	r3, [r2]	@ zero_extendqisi2
 640 001e 03F07F03 		and	r3, r3, #127
 641 0022 1370     		strb	r3, [r2]
 120:Generated_Source\PSoC5/Clock_4.c **** 
 121:Generated_Source\PSoC5/Clock_4.c ****         oldDivider = CY_GET_REG16(Clock_4_DIV_PTR);
 642              		.loc 1 121 0
 643 0024 104B     		ldr	r3, .L10+12
 644 0026 1A88     		ldrh	r2, [r3]
 645 0028 92B2     		uxth	r2, r2
 646              	.LVL0:
 122:Generated_Source\PSoC5/Clock_4.c ****         CY_SET_REG16(CYREG_CLKDIST_WRK0, oldDivider);
 647              		.loc 1 122 0
 648 002a 8E3B     		subs	r3, r3, #142
 649 002c 1A80     		strh	r2, [r3]	@ movhi
 123:Generated_Source\PSoC5/Clock_4.c ****         CLK_DIST_LD = CYCLK_LD_DISABLE | CYCLK_LD_SYNC_EN | CYCLK_LD_LOAD;
 650              		.loc 1 123 0
 651 002e 0723     		movs	r3, #7
 652 0030 0B70     		strb	r3, [r1]
 653              	.L9:
 124:Generated_Source\PSoC5/Clock_4.c **** 
 125:Generated_Source\PSoC5/Clock_4.c ****         /* Wait for clock to be disabled */
 126:Generated_Source\PSoC5/Clock_4.c ****         while ((CLK_DIST_LD & CYCLK_LD_LOAD) != 0u) { }
 654              		.loc 1 126 0 discriminator 1
 655 0032 0B4B     		ldr	r3, .L10+4
 656 0034 1B78     		ldrb	r3, [r3]	@ zero_extendqisi2
 657 0036 13F0010F 		tst	r3, #1
 658 003a FAD1     		bne	.L9
 127:Generated_Source\PSoC5/Clock_4.c **** #endif /* HAS_CLKDIST_LD_DISABLE */
 128:Generated_Source\PSoC5/Clock_4.c **** 
 129:Generated_Source\PSoC5/Clock_4.c ****         /* Clear the bit to disable the clock. */
 130:Generated_Source\PSoC5/Clock_4.c ****         Clock_4_CLKEN &= (uint8)(~Clock_4_CLKEN_MASK);
 659              		.loc 1 130 0
 660 003c 0749     		ldr	r1, .L10
 661 003e 0B78     		ldrb	r3, [r1]	@ zero_extendqisi2
 662 0040 03F0EF03 		and	r3, r3, #239
 663 0044 0B70     		strb	r3, [r1]
 131:Generated_Source\PSoC5/Clock_4.c ****         Clock_4_CLKSTBY &= (uint8)(~Clock_4_CLKSTBY_MASK);
 664              		.loc 1 131 0
 665 0046 1031     		adds	r1, r1, #16
 666 0048 0B78     		ldrb	r3, [r1]	@ zero_extendqisi2
 667 004a 03F0EF03 		and	r3, r3, #239
 668 004e 0B70     		strb	r3, [r1]
 132:Generated_Source\PSoC5/Clock_4.c **** 
 133:Generated_Source\PSoC5/Clock_4.c **** #if HAS_CLKDIST_LD_DISABLE
 134:Generated_Source\PSoC5/Clock_4.c ****         /* Clear the disable bit */
 135:Generated_Source\PSoC5/Clock_4.c ****         CLK_DIST_LD = 0x00u;
 669              		.loc 1 135 0
 670 0050 0021     		movs	r1, #0
 671 0052 034B     		ldr	r3, .L10+4
 672 0054 1970     		strb	r1, [r3]
 136:Generated_Source\PSoC5/Clock_4.c ****         CY_SET_REG16(Clock_4_DIV_PTR, oldDivider);
 673              		.loc 1 136 0
 674 0056 8F33     		adds	r3, r3, #143
 675 0058 1A80     		strh	r2, [r3]	@ movhi
ARM GAS  C:\Users\Luggi\AppData\Local\Temp\ccMGEkUC.s 			page 47


 676              	.LVL1:
 677              	.L7:
 678 005a 7047     		bx	lr
 679              	.L11:
 680              		.align	2
 681              	.L10:
 682 005c A2430040 		.word	1073759138
 683 0060 01400040 		.word	1073758209
 684 0064 10400040 		.word	1073758224
 685 0068 90400040 		.word	1073758352
 686              	.LBE2:
 687              		.cfi_endproc
 688              	.LFE2:
 689              		.size	Clock_4_StopBlock, .-Clock_4_StopBlock
 690              		.section	.text.Clock_4_StandbyPower,"ax",%progbits
 691              		.align	2
 692              		.global	Clock_4_StandbyPower
 693              		.thumb
 694              		.thumb_func
 695              		.type	Clock_4_StandbyPower, %function
 696              	Clock_4_StandbyPower:
 697              	.LFB3:
 137:Generated_Source\PSoC5/Clock_4.c **** #endif /* HAS_CLKDIST_LD_DISABLE */
 138:Generated_Source\PSoC5/Clock_4.c ****     }
 139:Generated_Source\PSoC5/Clock_4.c **** }
 140:Generated_Source\PSoC5/Clock_4.c **** #endif /* (CY_PSOC3 || CY_PSOC5LP) */
 141:Generated_Source\PSoC5/Clock_4.c **** 
 142:Generated_Source\PSoC5/Clock_4.c **** 
 143:Generated_Source\PSoC5/Clock_4.c **** /*******************************************************************************
 144:Generated_Source\PSoC5/Clock_4.c **** * Function Name: Clock_4_StandbyPower
 145:Generated_Source\PSoC5/Clock_4.c **** ********************************************************************************
 146:Generated_Source\PSoC5/Clock_4.c **** *
 147:Generated_Source\PSoC5/Clock_4.c **** * Summary:
 148:Generated_Source\PSoC5/Clock_4.c **** *  Sets whether the clock is active in standby mode.
 149:Generated_Source\PSoC5/Clock_4.c **** *
 150:Generated_Source\PSoC5/Clock_4.c **** * Parameters:
 151:Generated_Source\PSoC5/Clock_4.c **** *  state:  0 to disable clock during standby, nonzero to enable.
 152:Generated_Source\PSoC5/Clock_4.c **** *
 153:Generated_Source\PSoC5/Clock_4.c **** * Returns:
 154:Generated_Source\PSoC5/Clock_4.c **** *  None
 155:Generated_Source\PSoC5/Clock_4.c **** *
 156:Generated_Source\PSoC5/Clock_4.c **** *******************************************************************************/
 157:Generated_Source\PSoC5/Clock_4.c **** void Clock_4_StandbyPower(uint8 state) 
 158:Generated_Source\PSoC5/Clock_4.c **** {
 698              		.loc 1 158 0
 699              		.cfi_startproc
 700              		@ args = 0, pretend = 0, frame = 0
 701              		@ frame_needed = 0, uses_anonymous_args = 0
 702              		@ link register save eliminated.
 703              	.LVL2:
 159:Generated_Source\PSoC5/Clock_4.c ****     if(state == 0u)
 704              		.loc 1 159 0
 705 0000 28B9     		cbnz	r0, .L13
 160:Generated_Source\PSoC5/Clock_4.c ****     {
 161:Generated_Source\PSoC5/Clock_4.c ****         Clock_4_CLKSTBY &= (uint8)(~Clock_4_CLKSTBY_MASK);
 706              		.loc 1 161 0
 707 0002 064A     		ldr	r2, .L15
ARM GAS  C:\Users\Luggi\AppData\Local\Temp\ccMGEkUC.s 			page 48


 708 0004 1378     		ldrb	r3, [r2]	@ zero_extendqisi2
 709 0006 03F0EF03 		and	r3, r3, #239
 710 000a 1370     		strb	r3, [r2]
 711 000c 7047     		bx	lr
 712              	.L13:
 162:Generated_Source\PSoC5/Clock_4.c ****     }
 163:Generated_Source\PSoC5/Clock_4.c ****     else
 164:Generated_Source\PSoC5/Clock_4.c ****     {
 165:Generated_Source\PSoC5/Clock_4.c ****         Clock_4_CLKSTBY |= Clock_4_CLKSTBY_MASK;
 713              		.loc 1 165 0
 714 000e 034A     		ldr	r2, .L15
 715 0010 1378     		ldrb	r3, [r2]	@ zero_extendqisi2
 716 0012 43F01003 		orr	r3, r3, #16
 717 0016 1370     		strb	r3, [r2]
 718 0018 7047     		bx	lr
 719              	.L16:
 720 001a 00BF     		.align	2
 721              	.L15:
 722 001c B2430040 		.word	1073759154
 723              		.cfi_endproc
 724              	.LFE3:
 725              		.size	Clock_4_StandbyPower, .-Clock_4_StandbyPower
 726              		.section	.text.Clock_4_GetDividerRegister,"ax",%progbits
 727              		.align	2
 728              		.global	Clock_4_GetDividerRegister
 729              		.thumb
 730              		.thumb_func
 731              		.type	Clock_4_GetDividerRegister, %function
 732              	Clock_4_GetDividerRegister:
 733              	.LFB5:
 166:Generated_Source\PSoC5/Clock_4.c ****     }
 167:Generated_Source\PSoC5/Clock_4.c **** }
 168:Generated_Source\PSoC5/Clock_4.c **** 
 169:Generated_Source\PSoC5/Clock_4.c **** 
 170:Generated_Source\PSoC5/Clock_4.c **** /*******************************************************************************
 171:Generated_Source\PSoC5/Clock_4.c **** * Function Name: Clock_4_SetDividerRegister
 172:Generated_Source\PSoC5/Clock_4.c **** ********************************************************************************
 173:Generated_Source\PSoC5/Clock_4.c **** *
 174:Generated_Source\PSoC5/Clock_4.c **** * Summary:
 175:Generated_Source\PSoC5/Clock_4.c **** *  Modifies the clock divider and, thus, the frequency. When the clock divider
 176:Generated_Source\PSoC5/Clock_4.c **** *  register is set to zero or changed from zero, the clock will be temporarily
 177:Generated_Source\PSoC5/Clock_4.c **** *  disabled in order to change the SSS mode bit. If the clock is enabled when
 178:Generated_Source\PSoC5/Clock_4.c **** *  SetDividerRegister is called, then the source clock must be running.
 179:Generated_Source\PSoC5/Clock_4.c **** *
 180:Generated_Source\PSoC5/Clock_4.c **** * Parameters:
 181:Generated_Source\PSoC5/Clock_4.c **** *  clkDivider:  Divider register value (0-65,535). This value is NOT the
 182:Generated_Source\PSoC5/Clock_4.c **** *    divider; the clock hardware divides by clkDivider plus one. For example,
 183:Generated_Source\PSoC5/Clock_4.c **** *    to divide the clock by 2, this parameter should be set to 1.
 184:Generated_Source\PSoC5/Clock_4.c **** *  restart:  If nonzero, restarts the clock divider: the current clock cycle
 185:Generated_Source\PSoC5/Clock_4.c **** *   will be truncated and the new divide value will take effect immediately. If
 186:Generated_Source\PSoC5/Clock_4.c **** *   zero, the new divide value will take effect at the end of the current clock
 187:Generated_Source\PSoC5/Clock_4.c **** *   cycle.
 188:Generated_Source\PSoC5/Clock_4.c **** *
 189:Generated_Source\PSoC5/Clock_4.c **** * Returns:
 190:Generated_Source\PSoC5/Clock_4.c **** *  None
 191:Generated_Source\PSoC5/Clock_4.c **** *
 192:Generated_Source\PSoC5/Clock_4.c **** *******************************************************************************/
ARM GAS  C:\Users\Luggi\AppData\Local\Temp\ccMGEkUC.s 			page 49


 193:Generated_Source\PSoC5/Clock_4.c **** void Clock_4_SetDividerRegister(uint16 clkDivider, uint8 restart)
 194:Generated_Source\PSoC5/Clock_4.c ****                                 
 195:Generated_Source\PSoC5/Clock_4.c **** {
 196:Generated_Source\PSoC5/Clock_4.c ****     uint8 enabled;
 197:Generated_Source\PSoC5/Clock_4.c **** 
 198:Generated_Source\PSoC5/Clock_4.c ****     uint8 currSrc = Clock_4_GetSourceRegister();
 199:Generated_Source\PSoC5/Clock_4.c ****     uint16 oldDivider = Clock_4_GetDividerRegister();
 200:Generated_Source\PSoC5/Clock_4.c **** 
 201:Generated_Source\PSoC5/Clock_4.c ****     if (clkDivider != oldDivider)
 202:Generated_Source\PSoC5/Clock_4.c ****     {
 203:Generated_Source\PSoC5/Clock_4.c ****         enabled = Clock_4_CLKEN & Clock_4_CLKEN_MASK;
 204:Generated_Source\PSoC5/Clock_4.c **** 
 205:Generated_Source\PSoC5/Clock_4.c ****         if ((currSrc == (uint8)CYCLK_SRC_SEL_CLK_SYNC_D) && ((oldDivider == 0u) || (clkDivider == 0
 206:Generated_Source\PSoC5/Clock_4.c ****         {
 207:Generated_Source\PSoC5/Clock_4.c ****             /* Moving to/from SSS requires correct ordering to prevent halting the clock    */
 208:Generated_Source\PSoC5/Clock_4.c ****             if (oldDivider == 0u)
 209:Generated_Source\PSoC5/Clock_4.c ****             {
 210:Generated_Source\PSoC5/Clock_4.c ****                 /* Moving away from SSS, set the divider first so when SSS is cleared we    */
 211:Generated_Source\PSoC5/Clock_4.c ****                 /* don't halt the clock.  Using the shadow load isn't required as the       */
 212:Generated_Source\PSoC5/Clock_4.c ****                 /* divider is ignored while SSS is set.                                     */
 213:Generated_Source\PSoC5/Clock_4.c ****                 CY_SET_REG16(Clock_4_DIV_PTR, clkDivider);
 214:Generated_Source\PSoC5/Clock_4.c ****                 Clock_4_MOD_SRC &= (uint8)(~CYCLK_SSS);
 215:Generated_Source\PSoC5/Clock_4.c ****             }
 216:Generated_Source\PSoC5/Clock_4.c ****             else
 217:Generated_Source\PSoC5/Clock_4.c ****             {
 218:Generated_Source\PSoC5/Clock_4.c ****                 /* Moving to SSS, set SSS which then ignores the divider and we can set     */
 219:Generated_Source\PSoC5/Clock_4.c ****                 /* it without bothering with the shadow load.                               */
 220:Generated_Source\PSoC5/Clock_4.c ****                 Clock_4_MOD_SRC |= CYCLK_SSS;
 221:Generated_Source\PSoC5/Clock_4.c ****                 CY_SET_REG16(Clock_4_DIV_PTR, clkDivider);
 222:Generated_Source\PSoC5/Clock_4.c ****             }
 223:Generated_Source\PSoC5/Clock_4.c ****         }
 224:Generated_Source\PSoC5/Clock_4.c ****         else
 225:Generated_Source\PSoC5/Clock_4.c ****         {
 226:Generated_Source\PSoC5/Clock_4.c **** 			
 227:Generated_Source\PSoC5/Clock_4.c ****             if (enabled != 0u)
 228:Generated_Source\PSoC5/Clock_4.c ****             {
 229:Generated_Source\PSoC5/Clock_4.c ****                 CLK_DIST_LD = 0x00u;
 230:Generated_Source\PSoC5/Clock_4.c **** 
 231:Generated_Source\PSoC5/Clock_4.c ****                 /* Clear all the mask bits except ours. */
 232:Generated_Source\PSoC5/Clock_4.c **** #if defined(Clock_4__CFG3)
 233:Generated_Source\PSoC5/Clock_4.c ****                 CLK_DIST_AMASK = Clock_4_CLKEN_MASK;
 234:Generated_Source\PSoC5/Clock_4.c ****                 CLK_DIST_DMASK = 0x00u;
 235:Generated_Source\PSoC5/Clock_4.c **** #else
 236:Generated_Source\PSoC5/Clock_4.c ****                 CLK_DIST_DMASK = Clock_4_CLKEN_MASK;
 237:Generated_Source\PSoC5/Clock_4.c ****                 CLK_DIST_AMASK = 0x00u;
 238:Generated_Source\PSoC5/Clock_4.c **** #endif /* Clock_4__CFG3 */
 239:Generated_Source\PSoC5/Clock_4.c ****                 /* Clear mask of bus clock. */
 240:Generated_Source\PSoC5/Clock_4.c ****                 CLK_DIST_BCFG2 &= (uint8)(~BCFG2_MASK);
 241:Generated_Source\PSoC5/Clock_4.c **** 
 242:Generated_Source\PSoC5/Clock_4.c ****                 /* If clock is currently enabled, disable it if async or going from N-to-1*/
 243:Generated_Source\PSoC5/Clock_4.c ****                 if (((Clock_4_MOD_SRC & CYCLK_SYNC) == 0u) || (clkDivider == 0u))
 244:Generated_Source\PSoC5/Clock_4.c ****                 {
 245:Generated_Source\PSoC5/Clock_4.c **** #if HAS_CLKDIST_LD_DISABLE
 246:Generated_Source\PSoC5/Clock_4.c ****                     CY_SET_REG16(CYREG_CLKDIST_WRK0, oldDivider);
 247:Generated_Source\PSoC5/Clock_4.c ****                     CLK_DIST_LD = CYCLK_LD_DISABLE|CYCLK_LD_SYNC_EN|CYCLK_LD_LOAD;
 248:Generated_Source\PSoC5/Clock_4.c **** 
 249:Generated_Source\PSoC5/Clock_4.c ****                     /* Wait for clock to be disabled */
ARM GAS  C:\Users\Luggi\AppData\Local\Temp\ccMGEkUC.s 			page 50


 250:Generated_Source\PSoC5/Clock_4.c ****                     while ((CLK_DIST_LD & CYCLK_LD_LOAD) != 0u) { }
 251:Generated_Source\PSoC5/Clock_4.c **** #endif /* HAS_CLKDIST_LD_DISABLE */
 252:Generated_Source\PSoC5/Clock_4.c **** 
 253:Generated_Source\PSoC5/Clock_4.c ****                     Clock_4_CLKEN &= (uint8)(~Clock_4_CLKEN_MASK);
 254:Generated_Source\PSoC5/Clock_4.c **** 
 255:Generated_Source\PSoC5/Clock_4.c **** #if HAS_CLKDIST_LD_DISABLE
 256:Generated_Source\PSoC5/Clock_4.c ****                     /* Clear the disable bit */
 257:Generated_Source\PSoC5/Clock_4.c ****                     CLK_DIST_LD = 0x00u;
 258:Generated_Source\PSoC5/Clock_4.c **** #endif /* HAS_CLKDIST_LD_DISABLE */
 259:Generated_Source\PSoC5/Clock_4.c ****                 }
 260:Generated_Source\PSoC5/Clock_4.c ****             }
 261:Generated_Source\PSoC5/Clock_4.c **** 
 262:Generated_Source\PSoC5/Clock_4.c ****             /* Load divide value. */
 263:Generated_Source\PSoC5/Clock_4.c ****             if ((Clock_4_CLKEN & Clock_4_CLKEN_MASK) != 0u)
 264:Generated_Source\PSoC5/Clock_4.c ****             {
 265:Generated_Source\PSoC5/Clock_4.c ****                 /* If the clock is still enabled, use the shadow registers */
 266:Generated_Source\PSoC5/Clock_4.c ****                 CY_SET_REG16(CYREG_CLKDIST_WRK0, clkDivider);
 267:Generated_Source\PSoC5/Clock_4.c **** 
 268:Generated_Source\PSoC5/Clock_4.c ****                 CLK_DIST_LD = (CYCLK_LD_LOAD | ((restart != 0u) ? CYCLK_LD_SYNC_EN : 0x00u));
 269:Generated_Source\PSoC5/Clock_4.c ****                 while ((CLK_DIST_LD & CYCLK_LD_LOAD) != 0u) { }
 270:Generated_Source\PSoC5/Clock_4.c ****             }
 271:Generated_Source\PSoC5/Clock_4.c ****             else
 272:Generated_Source\PSoC5/Clock_4.c ****             {
 273:Generated_Source\PSoC5/Clock_4.c ****                 /* If the clock is disabled, set the divider directly */
 274:Generated_Source\PSoC5/Clock_4.c ****                 CY_SET_REG16(Clock_4_DIV_PTR, clkDivider);
 275:Generated_Source\PSoC5/Clock_4.c **** 				Clock_4_CLKEN |= enabled;
 276:Generated_Source\PSoC5/Clock_4.c ****             }
 277:Generated_Source\PSoC5/Clock_4.c ****         }
 278:Generated_Source\PSoC5/Clock_4.c ****     }
 279:Generated_Source\PSoC5/Clock_4.c **** }
 280:Generated_Source\PSoC5/Clock_4.c **** 
 281:Generated_Source\PSoC5/Clock_4.c **** 
 282:Generated_Source\PSoC5/Clock_4.c **** /*******************************************************************************
 283:Generated_Source\PSoC5/Clock_4.c **** * Function Name: Clock_4_GetDividerRegister
 284:Generated_Source\PSoC5/Clock_4.c **** ********************************************************************************
 285:Generated_Source\PSoC5/Clock_4.c **** *
 286:Generated_Source\PSoC5/Clock_4.c **** * Summary:
 287:Generated_Source\PSoC5/Clock_4.c **** *  Gets the clock divider register value.
 288:Generated_Source\PSoC5/Clock_4.c **** *
 289:Generated_Source\PSoC5/Clock_4.c **** * Parameters:
 290:Generated_Source\PSoC5/Clock_4.c **** *  None
 291:Generated_Source\PSoC5/Clock_4.c **** *
 292:Generated_Source\PSoC5/Clock_4.c **** * Returns:
 293:Generated_Source\PSoC5/Clock_4.c **** *  Divide value of the clock minus 1. For example, if the clock is set to
 294:Generated_Source\PSoC5/Clock_4.c **** *  divide by 2, the return value will be 1.
 295:Generated_Source\PSoC5/Clock_4.c **** *
 296:Generated_Source\PSoC5/Clock_4.c **** *******************************************************************************/
 297:Generated_Source\PSoC5/Clock_4.c **** uint16 Clock_4_GetDividerRegister(void) 
 298:Generated_Source\PSoC5/Clock_4.c **** {
 734              		.loc 1 298 0
 735              		.cfi_startproc
 736              		@ args = 0, pretend = 0, frame = 0
 737              		@ frame_needed = 0, uses_anonymous_args = 0
 738              		@ link register save eliminated.
 299:Generated_Source\PSoC5/Clock_4.c ****     return CY_GET_REG16(Clock_4_DIV_PTR);
 739              		.loc 1 299 0
 740 0000 014B     		ldr	r3, .L18
ARM GAS  C:\Users\Luggi\AppData\Local\Temp\ccMGEkUC.s 			page 51


 741 0002 1888     		ldrh	r0, [r3]
 300:Generated_Source\PSoC5/Clock_4.c **** }
 742              		.loc 1 300 0
 743 0004 80B2     		uxth	r0, r0
 744 0006 7047     		bx	lr
 745              	.L19:
 746              		.align	2
 747              	.L18:
 748 0008 90400040 		.word	1073758352
 749              		.cfi_endproc
 750              	.LFE5:
 751              		.size	Clock_4_GetDividerRegister, .-Clock_4_GetDividerRegister
 752              		.section	.text.Clock_4_SetModeRegister,"ax",%progbits
 753              		.align	2
 754              		.global	Clock_4_SetModeRegister
 755              		.thumb
 756              		.thumb_func
 757              		.type	Clock_4_SetModeRegister, %function
 758              	Clock_4_SetModeRegister:
 759              	.LFB6:
 301:Generated_Source\PSoC5/Clock_4.c **** 
 302:Generated_Source\PSoC5/Clock_4.c **** 
 303:Generated_Source\PSoC5/Clock_4.c **** /*******************************************************************************
 304:Generated_Source\PSoC5/Clock_4.c **** * Function Name: Clock_4_SetModeRegister
 305:Generated_Source\PSoC5/Clock_4.c **** ********************************************************************************
 306:Generated_Source\PSoC5/Clock_4.c **** *
 307:Generated_Source\PSoC5/Clock_4.c **** * Summary:
 308:Generated_Source\PSoC5/Clock_4.c **** *  Sets flags that control the operating mode of the clock. This function only
 309:Generated_Source\PSoC5/Clock_4.c **** *  changes flags from 0 to 1; flags that are already 1 will remain unchanged.
 310:Generated_Source\PSoC5/Clock_4.c **** *  To clear flags, use the ClearModeRegister function. The clock must be
 311:Generated_Source\PSoC5/Clock_4.c **** *  disabled before changing the mode.
 312:Generated_Source\PSoC5/Clock_4.c **** *
 313:Generated_Source\PSoC5/Clock_4.c **** * Parameters:
 314:Generated_Source\PSoC5/Clock_4.c **** *  clkMode: Bit mask containing the bits to set. For PSoC 3 and PSoC 5,
 315:Generated_Source\PSoC5/Clock_4.c **** *   clkMode should be a set of the following optional bits or'ed together.
 316:Generated_Source\PSoC5/Clock_4.c **** *   - CYCLK_EARLY Enable early phase mode. Rising edge of output clock will
 317:Generated_Source\PSoC5/Clock_4.c **** *                 occur when the divider count reaches half of the divide
 318:Generated_Source\PSoC5/Clock_4.c **** *                 value.
 319:Generated_Source\PSoC5/Clock_4.c **** *   - CYCLK_DUTY  Enable 50% duty cycle output. When enabled, the output clock
 320:Generated_Source\PSoC5/Clock_4.c **** *                 is asserted for approximately half of its period. When
 321:Generated_Source\PSoC5/Clock_4.c **** *                 disabled, the output clock is asserted for one period of the
 322:Generated_Source\PSoC5/Clock_4.c **** *                 source clock.
 323:Generated_Source\PSoC5/Clock_4.c **** *   - CYCLK_SYNC  Enable output synchronization to master clock. This should
 324:Generated_Source\PSoC5/Clock_4.c **** *                 be enabled for all synchronous clocks.
 325:Generated_Source\PSoC5/Clock_4.c **** *   See the Technical Reference Manual for details about setting the mode of
 326:Generated_Source\PSoC5/Clock_4.c **** *   the clock. Specifically, see the CLKDIST.DCFG.CFG2 register.
 327:Generated_Source\PSoC5/Clock_4.c **** *
 328:Generated_Source\PSoC5/Clock_4.c **** * Returns:
 329:Generated_Source\PSoC5/Clock_4.c **** *  None
 330:Generated_Source\PSoC5/Clock_4.c **** *
 331:Generated_Source\PSoC5/Clock_4.c **** *******************************************************************************/
 332:Generated_Source\PSoC5/Clock_4.c **** void Clock_4_SetModeRegister(uint8 modeBitMask) 
 333:Generated_Source\PSoC5/Clock_4.c **** {
 760              		.loc 1 333 0
 761              		.cfi_startproc
 762              		@ args = 0, pretend = 0, frame = 0
 763              		@ frame_needed = 0, uses_anonymous_args = 0
ARM GAS  C:\Users\Luggi\AppData\Local\Temp\ccMGEkUC.s 			page 52


 764              		@ link register save eliminated.
 765              	.LVL3:
 334:Generated_Source\PSoC5/Clock_4.c ****     Clock_4_MOD_SRC |= modeBitMask & (uint8)Clock_4_MODE_MASK;
 766              		.loc 1 334 0
 767 0000 034B     		ldr	r3, .L21
 768 0002 1A78     		ldrb	r2, [r3]	@ zero_extendqisi2
 769 0004 00F0F800 		and	r0, r0, #248
 770              	.LVL4:
 771 0008 1043     		orrs	r0, r0, r2
 772 000a 1870     		strb	r0, [r3]
 773 000c 7047     		bx	lr
 774              	.L22:
 775 000e 00BF     		.align	2
 776              	.L21:
 777 0010 92400040 		.word	1073758354
 778              		.cfi_endproc
 779              	.LFE6:
 780              		.size	Clock_4_SetModeRegister, .-Clock_4_SetModeRegister
 781              		.section	.text.Clock_4_ClearModeRegister,"ax",%progbits
 782              		.align	2
 783              		.global	Clock_4_ClearModeRegister
 784              		.thumb
 785              		.thumb_func
 786              		.type	Clock_4_ClearModeRegister, %function
 787              	Clock_4_ClearModeRegister:
 788              	.LFB7:
 335:Generated_Source\PSoC5/Clock_4.c **** }
 336:Generated_Source\PSoC5/Clock_4.c **** 
 337:Generated_Source\PSoC5/Clock_4.c **** 
 338:Generated_Source\PSoC5/Clock_4.c **** /*******************************************************************************
 339:Generated_Source\PSoC5/Clock_4.c **** * Function Name: Clock_4_ClearModeRegister
 340:Generated_Source\PSoC5/Clock_4.c **** ********************************************************************************
 341:Generated_Source\PSoC5/Clock_4.c **** *
 342:Generated_Source\PSoC5/Clock_4.c **** * Summary:
 343:Generated_Source\PSoC5/Clock_4.c **** *  Clears flags that control the operating mode of the clock. This function
 344:Generated_Source\PSoC5/Clock_4.c **** *  only changes flags from 1 to 0; flags that are already 0 will remain
 345:Generated_Source\PSoC5/Clock_4.c **** *  unchanged. To set flags, use the SetModeRegister function. The clock must be
 346:Generated_Source\PSoC5/Clock_4.c **** *  disabled before changing the mode.
 347:Generated_Source\PSoC5/Clock_4.c **** *
 348:Generated_Source\PSoC5/Clock_4.c **** * Parameters:
 349:Generated_Source\PSoC5/Clock_4.c **** *  clkMode: Bit mask containing the bits to clear. For PSoC 3 and PSoC 5,
 350:Generated_Source\PSoC5/Clock_4.c **** *   clkMode should be a set of the following optional bits or'ed together.
 351:Generated_Source\PSoC5/Clock_4.c **** *   - CYCLK_EARLY Enable early phase mode. Rising edge of output clock will
 352:Generated_Source\PSoC5/Clock_4.c **** *                 occur when the divider count reaches half of the divide
 353:Generated_Source\PSoC5/Clock_4.c **** *                 value.
 354:Generated_Source\PSoC5/Clock_4.c **** *   - CYCLK_DUTY  Enable 50% duty cycle output. When enabled, the output clock
 355:Generated_Source\PSoC5/Clock_4.c **** *                 is asserted for approximately half of its period. When
 356:Generated_Source\PSoC5/Clock_4.c **** *                 disabled, the output clock is asserted for one period of the
 357:Generated_Source\PSoC5/Clock_4.c **** *                 source clock.
 358:Generated_Source\PSoC5/Clock_4.c **** *   - CYCLK_SYNC  Enable output synchronization to master clock. This should
 359:Generated_Source\PSoC5/Clock_4.c **** *                 be enabled for all synchronous clocks.
 360:Generated_Source\PSoC5/Clock_4.c **** *   See the Technical Reference Manual for details about setting the mode of
 361:Generated_Source\PSoC5/Clock_4.c **** *   the clock. Specifically, see the CLKDIST.DCFG.CFG2 register.
 362:Generated_Source\PSoC5/Clock_4.c **** *
 363:Generated_Source\PSoC5/Clock_4.c **** * Returns:
 364:Generated_Source\PSoC5/Clock_4.c **** *  None
 365:Generated_Source\PSoC5/Clock_4.c **** *
ARM GAS  C:\Users\Luggi\AppData\Local\Temp\ccMGEkUC.s 			page 53


 366:Generated_Source\PSoC5/Clock_4.c **** *******************************************************************************/
 367:Generated_Source\PSoC5/Clock_4.c **** void Clock_4_ClearModeRegister(uint8 modeBitMask) 
 368:Generated_Source\PSoC5/Clock_4.c **** {
 789              		.loc 1 368 0
 790              		.cfi_startproc
 791              		@ args = 0, pretend = 0, frame = 0
 792              		@ frame_needed = 0, uses_anonymous_args = 0
 793              		@ link register save eliminated.
 794              	.LVL5:
 369:Generated_Source\PSoC5/Clock_4.c ****     Clock_4_MOD_SRC &= (uint8)(~modeBitMask) | (uint8)(~(uint8)(Clock_4_MODE_MASK));
 795              		.loc 1 369 0
 796 0000 044B     		ldr	r3, .L24
 797 0002 1A78     		ldrb	r2, [r3]	@ zero_extendqisi2
 798 0004 C043     		mvns	r0, r0
 799              	.LVL6:
 800 0006 C0B2     		uxtb	r0, r0
 801 0008 40F00700 		orr	r0, r0, #7
 802 000c 1040     		ands	r0, r0, r2
 803 000e 1870     		strb	r0, [r3]
 804 0010 7047     		bx	lr
 805              	.L25:
 806 0012 00BF     		.align	2
 807              	.L24:
 808 0014 92400040 		.word	1073758354
 809              		.cfi_endproc
 810              	.LFE7:
 811              		.size	Clock_4_ClearModeRegister, .-Clock_4_ClearModeRegister
 812              		.section	.text.Clock_4_GetModeRegister,"ax",%progbits
 813              		.align	2
 814              		.global	Clock_4_GetModeRegister
 815              		.thumb
 816              		.thumb_func
 817              		.type	Clock_4_GetModeRegister, %function
 818              	Clock_4_GetModeRegister:
 819              	.LFB8:
 370:Generated_Source\PSoC5/Clock_4.c **** }
 371:Generated_Source\PSoC5/Clock_4.c **** 
 372:Generated_Source\PSoC5/Clock_4.c **** 
 373:Generated_Source\PSoC5/Clock_4.c **** /*******************************************************************************
 374:Generated_Source\PSoC5/Clock_4.c **** * Function Name: Clock_4_GetModeRegister
 375:Generated_Source\PSoC5/Clock_4.c **** ********************************************************************************
 376:Generated_Source\PSoC5/Clock_4.c **** *
 377:Generated_Source\PSoC5/Clock_4.c **** * Summary:
 378:Generated_Source\PSoC5/Clock_4.c **** *  Gets the clock mode register value.
 379:Generated_Source\PSoC5/Clock_4.c **** *
 380:Generated_Source\PSoC5/Clock_4.c **** * Parameters:
 381:Generated_Source\PSoC5/Clock_4.c **** *  None
 382:Generated_Source\PSoC5/Clock_4.c **** *
 383:Generated_Source\PSoC5/Clock_4.c **** * Returns:
 384:Generated_Source\PSoC5/Clock_4.c **** *  Bit mask representing the enabled mode bits. See the SetModeRegister and
 385:Generated_Source\PSoC5/Clock_4.c **** *  ClearModeRegister descriptions for details about the mode bits.
 386:Generated_Source\PSoC5/Clock_4.c **** *
 387:Generated_Source\PSoC5/Clock_4.c **** *******************************************************************************/
 388:Generated_Source\PSoC5/Clock_4.c **** uint8 Clock_4_GetModeRegister(void) 
 389:Generated_Source\PSoC5/Clock_4.c **** {
 820              		.loc 1 389 0
 821              		.cfi_startproc
ARM GAS  C:\Users\Luggi\AppData\Local\Temp\ccMGEkUC.s 			page 54


 822              		@ args = 0, pretend = 0, frame = 0
 823              		@ frame_needed = 0, uses_anonymous_args = 0
 824              		@ link register save eliminated.
 390:Generated_Source\PSoC5/Clock_4.c ****     return Clock_4_MOD_SRC & (uint8)(Clock_4_MODE_MASK);
 825              		.loc 1 390 0
 826 0000 024B     		ldr	r3, .L27
 827 0002 1878     		ldrb	r0, [r3]	@ zero_extendqisi2
 391:Generated_Source\PSoC5/Clock_4.c **** }
 828              		.loc 1 391 0
 829 0004 00F0F800 		and	r0, r0, #248
 830 0008 7047     		bx	lr
 831              	.L28:
 832 000a 00BF     		.align	2
 833              	.L27:
 834 000c 92400040 		.word	1073758354
 835              		.cfi_endproc
 836              	.LFE8:
 837              		.size	Clock_4_GetModeRegister, .-Clock_4_GetModeRegister
 838              		.section	.text.Clock_4_GetSourceRegister,"ax",%progbits
 839              		.align	2
 840              		.global	Clock_4_GetSourceRegister
 841              		.thumb
 842              		.thumb_func
 843              		.type	Clock_4_GetSourceRegister, %function
 844              	Clock_4_GetSourceRegister:
 845              	.LFB10:
 392:Generated_Source\PSoC5/Clock_4.c **** 
 393:Generated_Source\PSoC5/Clock_4.c **** 
 394:Generated_Source\PSoC5/Clock_4.c **** /*******************************************************************************
 395:Generated_Source\PSoC5/Clock_4.c **** * Function Name: Clock_4_SetSourceRegister
 396:Generated_Source\PSoC5/Clock_4.c **** ********************************************************************************
 397:Generated_Source\PSoC5/Clock_4.c **** *
 398:Generated_Source\PSoC5/Clock_4.c **** * Summary:
 399:Generated_Source\PSoC5/Clock_4.c **** *  Sets the input source of the clock. The clock must be disabled before
 400:Generated_Source\PSoC5/Clock_4.c **** *  changing the source. The old and new clock sources must be running.
 401:Generated_Source\PSoC5/Clock_4.c **** *
 402:Generated_Source\PSoC5/Clock_4.c **** * Parameters:
 403:Generated_Source\PSoC5/Clock_4.c **** *  clkSource:  For PSoC 3 and PSoC 5 devices, clkSource should be one of the
 404:Generated_Source\PSoC5/Clock_4.c **** *   following input sources:
 405:Generated_Source\PSoC5/Clock_4.c **** *   - CYCLK_SRC_SEL_SYNC_DIG
 406:Generated_Source\PSoC5/Clock_4.c **** *   - CYCLK_SRC_SEL_IMO
 407:Generated_Source\PSoC5/Clock_4.c **** *   - CYCLK_SRC_SEL_XTALM
 408:Generated_Source\PSoC5/Clock_4.c **** *   - CYCLK_SRC_SEL_ILO
 409:Generated_Source\PSoC5/Clock_4.c **** *   - CYCLK_SRC_SEL_PLL
 410:Generated_Source\PSoC5/Clock_4.c **** *   - CYCLK_SRC_SEL_XTALK
 411:Generated_Source\PSoC5/Clock_4.c **** *   - CYCLK_SRC_SEL_DSI_G
 412:Generated_Source\PSoC5/Clock_4.c **** *   - CYCLK_SRC_SEL_DSI_D/CYCLK_SRC_SEL_DSI_A
 413:Generated_Source\PSoC5/Clock_4.c **** *   See the Technical Reference Manual for details on clock sources.
 414:Generated_Source\PSoC5/Clock_4.c **** *
 415:Generated_Source\PSoC5/Clock_4.c **** * Returns:
 416:Generated_Source\PSoC5/Clock_4.c **** *  None
 417:Generated_Source\PSoC5/Clock_4.c **** *
 418:Generated_Source\PSoC5/Clock_4.c **** *******************************************************************************/
 419:Generated_Source\PSoC5/Clock_4.c **** void Clock_4_SetSourceRegister(uint8 clkSource) 
 420:Generated_Source\PSoC5/Clock_4.c **** {
 421:Generated_Source\PSoC5/Clock_4.c ****     uint16 currDiv = Clock_4_GetDividerRegister();
 422:Generated_Source\PSoC5/Clock_4.c ****     uint8 oldSrc = Clock_4_GetSourceRegister();
ARM GAS  C:\Users\Luggi\AppData\Local\Temp\ccMGEkUC.s 			page 55


 423:Generated_Source\PSoC5/Clock_4.c **** 
 424:Generated_Source\PSoC5/Clock_4.c ****     if (((oldSrc != ((uint8)CYCLK_SRC_SEL_CLK_SYNC_D)) && 
 425:Generated_Source\PSoC5/Clock_4.c ****         (clkSource == ((uint8)CYCLK_SRC_SEL_CLK_SYNC_D))) && (currDiv == 0u))
 426:Generated_Source\PSoC5/Clock_4.c ****     {
 427:Generated_Source\PSoC5/Clock_4.c ****         /* Switching to Master and divider is 1, set SSS, which will output master, */
 428:Generated_Source\PSoC5/Clock_4.c ****         /* then set the source so we are consistent.                                */
 429:Generated_Source\PSoC5/Clock_4.c ****         Clock_4_MOD_SRC |= CYCLK_SSS;
 430:Generated_Source\PSoC5/Clock_4.c ****         Clock_4_MOD_SRC =
 431:Generated_Source\PSoC5/Clock_4.c ****             (Clock_4_MOD_SRC & (uint8)(~Clock_4_SRC_SEL_MSK)) | clkSource;
 432:Generated_Source\PSoC5/Clock_4.c ****     }
 433:Generated_Source\PSoC5/Clock_4.c ****     else if (((oldSrc == ((uint8)CYCLK_SRC_SEL_CLK_SYNC_D)) && 
 434:Generated_Source\PSoC5/Clock_4.c ****             (clkSource != ((uint8)CYCLK_SRC_SEL_CLK_SYNC_D))) && (currDiv == 0u))
 435:Generated_Source\PSoC5/Clock_4.c ****     {
 436:Generated_Source\PSoC5/Clock_4.c ****         /* Switching from Master to not and divider is 1, set source, so we don't   */
 437:Generated_Source\PSoC5/Clock_4.c ****         /* lock when we clear SSS.                                                  */
 438:Generated_Source\PSoC5/Clock_4.c ****         Clock_4_MOD_SRC =
 439:Generated_Source\PSoC5/Clock_4.c ****             (Clock_4_MOD_SRC & (uint8)(~Clock_4_SRC_SEL_MSK)) | clkSource;
 440:Generated_Source\PSoC5/Clock_4.c ****         Clock_4_MOD_SRC &= (uint8)(~CYCLK_SSS);
 441:Generated_Source\PSoC5/Clock_4.c ****     }
 442:Generated_Source\PSoC5/Clock_4.c ****     else
 443:Generated_Source\PSoC5/Clock_4.c ****     {
 444:Generated_Source\PSoC5/Clock_4.c ****         Clock_4_MOD_SRC =
 445:Generated_Source\PSoC5/Clock_4.c ****             (Clock_4_MOD_SRC & (uint8)(~Clock_4_SRC_SEL_MSK)) | clkSource;
 446:Generated_Source\PSoC5/Clock_4.c ****     }
 447:Generated_Source\PSoC5/Clock_4.c **** }
 448:Generated_Source\PSoC5/Clock_4.c **** 
 449:Generated_Source\PSoC5/Clock_4.c **** 
 450:Generated_Source\PSoC5/Clock_4.c **** /*******************************************************************************
 451:Generated_Source\PSoC5/Clock_4.c **** * Function Name: Clock_4_GetSourceRegister
 452:Generated_Source\PSoC5/Clock_4.c **** ********************************************************************************
 453:Generated_Source\PSoC5/Clock_4.c **** *
 454:Generated_Source\PSoC5/Clock_4.c **** * Summary:
 455:Generated_Source\PSoC5/Clock_4.c **** *  Gets the input source of the clock.
 456:Generated_Source\PSoC5/Clock_4.c **** *
 457:Generated_Source\PSoC5/Clock_4.c **** * Parameters:
 458:Generated_Source\PSoC5/Clock_4.c **** *  None
 459:Generated_Source\PSoC5/Clock_4.c **** *
 460:Generated_Source\PSoC5/Clock_4.c **** * Returns:
 461:Generated_Source\PSoC5/Clock_4.c **** *  The input source of the clock. See SetSourceRegister for details.
 462:Generated_Source\PSoC5/Clock_4.c **** *
 463:Generated_Source\PSoC5/Clock_4.c **** *******************************************************************************/
 464:Generated_Source\PSoC5/Clock_4.c **** uint8 Clock_4_GetSourceRegister(void) 
 465:Generated_Source\PSoC5/Clock_4.c **** {
 846              		.loc 1 465 0
 847              		.cfi_startproc
 848              		@ args = 0, pretend = 0, frame = 0
 849              		@ frame_needed = 0, uses_anonymous_args = 0
 850              		@ link register save eliminated.
 466:Generated_Source\PSoC5/Clock_4.c ****     return Clock_4_MOD_SRC & Clock_4_SRC_SEL_MSK;
 851              		.loc 1 466 0
 852 0000 024B     		ldr	r3, .L30
 853 0002 1878     		ldrb	r0, [r3]	@ zero_extendqisi2
 467:Generated_Source\PSoC5/Clock_4.c **** }
 854              		.loc 1 467 0
 855 0004 00F00700 		and	r0, r0, #7
 856 0008 7047     		bx	lr
 857              	.L31:
ARM GAS  C:\Users\Luggi\AppData\Local\Temp\ccMGEkUC.s 			page 56


 858 000a 00BF     		.align	2
 859              	.L30:
 860 000c 92400040 		.word	1073758354
 861              		.cfi_endproc
 862              	.LFE10:
 863              		.size	Clock_4_GetSourceRegister, .-Clock_4_GetSourceRegister
 864              		.section	.text.Clock_4_SetDividerRegister,"ax",%progbits
 865              		.align	2
 866              		.global	Clock_4_SetDividerRegister
 867              		.thumb
 868              		.thumb_func
 869              		.type	Clock_4_SetDividerRegister, %function
 870              	Clock_4_SetDividerRegister:
 871              	.LFB4:
 195:Generated_Source\PSoC5/Clock_4.c ****     uint8 enabled;
 872              		.loc 1 195 0
 873              		.cfi_startproc
 874              		@ args = 0, pretend = 0, frame = 0
 875              		@ frame_needed = 0, uses_anonymous_args = 0
 876              	.LVL7:
 877 0000 70B5     		push	{r4, r5, r6, lr}
 878              		.cfi_def_cfa_offset 16
 879              		.cfi_offset 4, -16
 880              		.cfi_offset 5, -12
 881              		.cfi_offset 6, -8
 882              		.cfi_offset 14, -4
 883 0002 0446     		mov	r4, r0
 884 0004 0D46     		mov	r5, r1
 198:Generated_Source\PSoC5/Clock_4.c ****     uint16 oldDivider = Clock_4_GetDividerRegister();
 885              		.loc 1 198 0
 886 0006 FFF7FEFF 		bl	Clock_4_GetSourceRegister
 887              	.LVL8:
 888 000a 0646     		mov	r6, r0
 889              	.LVL9:
 199:Generated_Source\PSoC5/Clock_4.c **** 
 890              		.loc 1 199 0
 891 000c FFF7FEFF 		bl	Clock_4_GetDividerRegister
 892              	.LVL10:
 201:Generated_Source\PSoC5/Clock_4.c ****     {
 893              		.loc 1 201 0
 894 0010 8442     		cmp	r4, r0
 895 0012 57D0     		beq	.L32
 203:Generated_Source\PSoC5/Clock_4.c **** 
 896              		.loc 1 203 0
 897 0014 2C4B     		ldr	r3, .L45
 898 0016 1B78     		ldrb	r3, [r3]	@ zero_extendqisi2
 899 0018 03F01003 		and	r3, r3, #16
 900 001c DAB2     		uxtb	r2, r3
 901              	.LVL11:
 205:Generated_Source\PSoC5/Clock_4.c ****         {
 902              		.loc 1 205 0
 903 001e 96B9     		cbnz	r6, .L34
 205:Generated_Source\PSoC5/Clock_4.c ****         {
 904              		.loc 1 205 0 is_stmt 0 discriminator 1
 905 0020 00B1     		cbz	r0, .L35
 205:Generated_Source\PSoC5/Clock_4.c ****         {
 906              		.loc 1 205 0 discriminator 2
ARM GAS  C:\Users\Luggi\AppData\Local\Temp\ccMGEkUC.s 			page 57


 907 0022 84B9     		cbnz	r4, .L34
 908              	.L35:
 208:Generated_Source\PSoC5/Clock_4.c ****             {
 909              		.loc 1 208 0 is_stmt 1
 910 0024 38B9     		cbnz	r0, .L36
 213:Generated_Source\PSoC5/Clock_4.c ****                 Clock_4_MOD_SRC &= (uint8)(~CYCLK_SSS);
 911              		.loc 1 213 0
 912 0026 294B     		ldr	r3, .L45+4
 913 0028 1C80     		strh	r4, [r3]	@ movhi
 214:Generated_Source\PSoC5/Clock_4.c ****             }
 914              		.loc 1 214 0
 915 002a 294A     		ldr	r2, .L45+8
 916              	.LVL12:
 917 002c 1378     		ldrb	r3, [r2]	@ zero_extendqisi2
 918 002e 03F0BF03 		and	r3, r3, #191
 919 0032 1370     		strb	r3, [r2]
 920 0034 70BD     		pop	{r4, r5, r6, pc}
 921              	.LVL13:
 922              	.L36:
 220:Generated_Source\PSoC5/Clock_4.c ****                 CY_SET_REG16(Clock_4_DIV_PTR, clkDivider);
 923              		.loc 1 220 0
 924 0036 264A     		ldr	r2, .L45+8
 925              	.LVL14:
 926 0038 1378     		ldrb	r3, [r2]	@ zero_extendqisi2
 927              	.LVL15:
 928 003a 43F04003 		orr	r3, r3, #64
 929 003e 1370     		strb	r3, [r2]
 221:Generated_Source\PSoC5/Clock_4.c ****             }
 930              		.loc 1 221 0
 931 0040 224B     		ldr	r3, .L45+4
 932 0042 1C80     		strh	r4, [r3]	@ movhi
 933 0044 70BD     		pop	{r4, r5, r6, pc}
 934              	.LVL16:
 935              	.L34:
 227:Generated_Source\PSoC5/Clock_4.c ****             {
 936              		.loc 1 227 0
 937 0046 22B3     		cbz	r2, .L37
 229:Generated_Source\PSoC5/Clock_4.c **** 
 938              		.loc 1 229 0
 939 0048 0023     		movs	r3, #0
 940 004a 2249     		ldr	r1, .L45+12
 941 004c 0B70     		strb	r3, [r1]
 236:Generated_Source\PSoC5/Clock_4.c ****                 CLK_DIST_AMASK = 0x00u;
 942              		.loc 1 236 0
 943 004e 1026     		movs	r6, #16
 944              	.LVL17:
 945 0050 0F31     		adds	r1, r1, #15
 946 0052 0E70     		strb	r6, [r1]
 237:Generated_Source\PSoC5/Clock_4.c **** #endif /* Clock_4__CFG3 */
 947              		.loc 1 237 0
 948 0054 0431     		adds	r1, r1, #4
 949 0056 0B70     		strb	r3, [r1]
 240:Generated_Source\PSoC5/Clock_4.c **** 
 950              		.loc 1 240 0
 951 0058 0C39     		subs	r1, r1, #12
 952 005a 0B78     		ldrb	r3, [r1]	@ zero_extendqisi2
 953 005c 03F07F03 		and	r3, r3, #127
ARM GAS  C:\Users\Luggi\AppData\Local\Temp\ccMGEkUC.s 			page 58


 954 0060 0B70     		strb	r3, [r1]
 243:Generated_Source\PSoC5/Clock_4.c ****                 {
 955              		.loc 1 243 0
 956 0062 1B4B     		ldr	r3, .L45+8
 957 0064 1B78     		ldrb	r3, [r3]	@ zero_extendqisi2
 958 0066 13F0080F 		tst	r3, #8
 959 006a 00D0     		beq	.L38
 243:Generated_Source\PSoC5/Clock_4.c ****                 {
 960              		.loc 1 243 0 is_stmt 0 discriminator 1
 961 006c 8CB9     		cbnz	r4, .L37
 962              	.L38:
 246:Generated_Source\PSoC5/Clock_4.c ****                     CLK_DIST_LD = CYCLK_LD_DISABLE|CYCLK_LD_SYNC_EN|CYCLK_LD_LOAD;
 963              		.loc 1 246 0 is_stmt 1
 964 006e 1A4B     		ldr	r3, .L45+16
 965 0070 1880     		strh	r0, [r3]	@ movhi
 247:Generated_Source\PSoC5/Clock_4.c **** 
 966              		.loc 1 247 0
 967 0072 0721     		movs	r1, #7
 968 0074 013B     		subs	r3, r3, #1
 969 0076 1970     		strb	r1, [r3]
 970              	.L39:
 250:Generated_Source\PSoC5/Clock_4.c **** #endif /* HAS_CLKDIST_LD_DISABLE */
 971              		.loc 1 250 0 discriminator 1
 972 0078 164B     		ldr	r3, .L45+12
 973 007a 1B78     		ldrb	r3, [r3]	@ zero_extendqisi2
 974 007c 13F0010F 		tst	r3, #1
 975 0080 FAD1     		bne	.L39
 253:Generated_Source\PSoC5/Clock_4.c **** 
 976              		.loc 1 253 0
 977 0082 1149     		ldr	r1, .L45
 978 0084 0B78     		ldrb	r3, [r1]	@ zero_extendqisi2
 979 0086 03F0EF03 		and	r3, r3, #239
 980 008a 0B70     		strb	r3, [r1]
 257:Generated_Source\PSoC5/Clock_4.c **** #endif /* HAS_CLKDIST_LD_DISABLE */
 981              		.loc 1 257 0
 982 008c 0021     		movs	r1, #0
 983 008e 114B     		ldr	r3, .L45+12
 984 0090 1970     		strb	r1, [r3]
 985              	.L37:
 263:Generated_Source\PSoC5/Clock_4.c ****             {
 986              		.loc 1 263 0
 987 0092 0D4B     		ldr	r3, .L45
 988 0094 1B78     		ldrb	r3, [r3]	@ zero_extendqisi2
 989 0096 13F0100F 		tst	r3, #16
 990 009a 0DD0     		beq	.L40
 266:Generated_Source\PSoC5/Clock_4.c **** 
 991              		.loc 1 266 0
 992 009c 0E4B     		ldr	r3, .L45+16
 993 009e 1C80     		strh	r4, [r3]	@ movhi
 268:Generated_Source\PSoC5/Clock_4.c ****                 while ((CLK_DIST_LD & CYCLK_LD_LOAD) != 0u) { }
 994              		.loc 1 268 0
 995 00a0 0DB1     		cbz	r5, .L43
 996 00a2 0322     		movs	r2, #3
 997              	.LVL18:
 998 00a4 00E0     		b	.L41
 999              	.LVL19:
 1000              	.L43:
ARM GAS  C:\Users\Luggi\AppData\Local\Temp\ccMGEkUC.s 			page 59


 1001 00a6 0122     		movs	r2, #1
 1002              	.LVL20:
 1003              	.L41:
 268:Generated_Source\PSoC5/Clock_4.c ****                 while ((CLK_DIST_LD & CYCLK_LD_LOAD) != 0u) { }
 1004              		.loc 1 268 0 is_stmt 0 discriminator 4
 1005 00a8 0A4B     		ldr	r3, .L45+12
 1006 00aa 1A70     		strb	r2, [r3]
 1007              	.L42:
 269:Generated_Source\PSoC5/Clock_4.c ****             }
 1008              		.loc 1 269 0 is_stmt 1 discriminator 1
 1009 00ac 094B     		ldr	r3, .L45+12
 1010 00ae 1B78     		ldrb	r3, [r3]	@ zero_extendqisi2
 1011 00b0 13F0010F 		tst	r3, #1
 1012 00b4 FAD1     		bne	.L42
 1013 00b6 70BD     		pop	{r4, r5, r6, pc}
 1014              	.LVL21:
 1015              	.L40:
 274:Generated_Source\PSoC5/Clock_4.c **** 				Clock_4_CLKEN |= enabled;
 1016              		.loc 1 274 0
 1017 00b8 044B     		ldr	r3, .L45+4
 1018 00ba 1C80     		strh	r4, [r3]	@ movhi
 275:Generated_Source\PSoC5/Clock_4.c ****             }
 1019              		.loc 1 275 0
 1020 00bc 0249     		ldr	r1, .L45
 1021 00be 0B78     		ldrb	r3, [r1]	@ zero_extendqisi2
 1022 00c0 1343     		orrs	r3, r3, r2
 1023 00c2 0B70     		strb	r3, [r1]
 1024              	.LVL22:
 1025              	.L32:
 1026 00c4 70BD     		pop	{r4, r5, r6, pc}
 1027              	.L46:
 1028 00c6 00BF     		.align	2
 1029              	.L45:
 1030 00c8 A2430040 		.word	1073759138
 1031 00cc 90400040 		.word	1073758352
 1032 00d0 92400040 		.word	1073758354
 1033 00d4 01400040 		.word	1073758209
 1034 00d8 02400040 		.word	1073758210
 1035              		.cfi_endproc
 1036              	.LFE4:
 1037              		.size	Clock_4_SetDividerRegister, .-Clock_4_SetDividerRegister
 1038              		.section	.text.Clock_4_SetSourceRegister,"ax",%progbits
 1039              		.align	2
 1040              		.global	Clock_4_SetSourceRegister
 1041              		.thumb
 1042              		.thumb_func
 1043              		.type	Clock_4_SetSourceRegister, %function
 1044              	Clock_4_SetSourceRegister:
 1045              	.LFB9:
 420:Generated_Source\PSoC5/Clock_4.c ****     uint16 currDiv = Clock_4_GetDividerRegister();
 1046              		.loc 1 420 0
 1047              		.cfi_startproc
 1048              		@ args = 0, pretend = 0, frame = 0
 1049              		@ frame_needed = 0, uses_anonymous_args = 0
 1050              	.LVL23:
 1051 0000 38B5     		push	{r3, r4, r5, lr}
 1052              		.cfi_def_cfa_offset 16
ARM GAS  C:\Users\Luggi\AppData\Local\Temp\ccMGEkUC.s 			page 60


 1053              		.cfi_offset 3, -16
 1054              		.cfi_offset 4, -12
 1055              		.cfi_offset 5, -8
 1056              		.cfi_offset 14, -4
 1057 0002 0446     		mov	r4, r0
 421:Generated_Source\PSoC5/Clock_4.c ****     uint8 oldSrc = Clock_4_GetSourceRegister();
 1058              		.loc 1 421 0
 1059 0004 FFF7FEFF 		bl	Clock_4_GetDividerRegister
 1060              	.LVL24:
 1061 0008 0546     		mov	r5, r0
 1062              	.LVL25:
 422:Generated_Source\PSoC5/Clock_4.c **** 
 1063              		.loc 1 422 0
 1064 000a FFF7FEFF 		bl	Clock_4_GetSourceRegister
 1065              	.LVL26:
 424:Generated_Source\PSoC5/Clock_4.c ****         (clkSource == ((uint8)CYCLK_SRC_SEL_CLK_SYNC_D))) && (currDiv == 0u))
 1066              		.loc 1 424 0
 1067 000e 0346     		mov	r3, r0
 1068 0010 60B1     		cbz	r0, .L48
 424:Generated_Source\PSoC5/Clock_4.c ****         (clkSource == ((uint8)CYCLK_SRC_SEL_CLK_SYNC_D))) && (currDiv == 0u))
 1069              		.loc 1 424 0 is_stmt 0 discriminator 1
 1070 0012 5CB9     		cbnz	r4, .L48
 425:Generated_Source\PSoC5/Clock_4.c ****     {
 1071              		.loc 1 425 0 is_stmt 1
 1072 0014 55B9     		cbnz	r5, .L48
 429:Generated_Source\PSoC5/Clock_4.c ****         Clock_4_MOD_SRC =
 1073              		.loc 1 429 0
 1074 0016 104A     		ldr	r2, .L52
 1075 0018 1378     		ldrb	r3, [r2]	@ zero_extendqisi2
 1076 001a 43F04003 		orr	r3, r3, #64
 1077 001e 1370     		strb	r3, [r2]
 431:Generated_Source\PSoC5/Clock_4.c ****     }
 1078              		.loc 1 431 0
 1079 0020 1378     		ldrb	r3, [r2]	@ zero_extendqisi2
 430:Generated_Source\PSoC5/Clock_4.c ****             (Clock_4_MOD_SRC & (uint8)(~Clock_4_SRC_SEL_MSK)) | clkSource;
 1080              		.loc 1 430 0
 1081 0022 03F0F803 		and	r3, r3, #248
 1082 0026 1C43     		orrs	r4, r4, r3
 1083 0028 1470     		strb	r4, [r2]
 1084 002a 38BD     		pop	{r3, r4, r5, pc}
 1085              	.LVL27:
 1086              	.L48:
 433:Generated_Source\PSoC5/Clock_4.c ****             (clkSource != ((uint8)CYCLK_SRC_SEL_CLK_SYNC_D))) && (currDiv == 0u))
 1087              		.loc 1 433 0
 1088 002c 63B9     		cbnz	r3, .L50
 433:Generated_Source\PSoC5/Clock_4.c ****             (clkSource != ((uint8)CYCLK_SRC_SEL_CLK_SYNC_D))) && (currDiv == 0u))
 1089              		.loc 1 433 0 is_stmt 0 discriminator 1
 1090 002e 5CB1     		cbz	r4, .L50
 434:Generated_Source\PSoC5/Clock_4.c ****     {
 1091              		.loc 1 434 0 is_stmt 1
 1092 0030 55B9     		cbnz	r5, .L50
 439:Generated_Source\PSoC5/Clock_4.c ****         Clock_4_MOD_SRC &= (uint8)(~CYCLK_SSS);
 1093              		.loc 1 439 0
 1094 0032 094A     		ldr	r2, .L52
 1095 0034 1378     		ldrb	r3, [r2]	@ zero_extendqisi2
 438:Generated_Source\PSoC5/Clock_4.c ****             (Clock_4_MOD_SRC & (uint8)(~Clock_4_SRC_SEL_MSK)) | clkSource;
 1096              		.loc 1 438 0
ARM GAS  C:\Users\Luggi\AppData\Local\Temp\ccMGEkUC.s 			page 61


 1097 0036 03F0F803 		and	r3, r3, #248
 1098 003a 1C43     		orrs	r4, r4, r3
 1099 003c 1470     		strb	r4, [r2]
 440:Generated_Source\PSoC5/Clock_4.c ****     }
 1100              		.loc 1 440 0
 1101 003e 1378     		ldrb	r3, [r2]	@ zero_extendqisi2
 1102 0040 03F0BF03 		and	r3, r3, #191
 1103 0044 1370     		strb	r3, [r2]
 1104 0046 38BD     		pop	{r3, r4, r5, pc}
 1105              	.LVL28:
 1106              	.L50:
 445:Generated_Source\PSoC5/Clock_4.c ****     }
 1107              		.loc 1 445 0
 1108 0048 034A     		ldr	r2, .L52
 1109 004a 1378     		ldrb	r3, [r2]	@ zero_extendqisi2
 444:Generated_Source\PSoC5/Clock_4.c ****             (Clock_4_MOD_SRC & (uint8)(~Clock_4_SRC_SEL_MSK)) | clkSource;
 1110              		.loc 1 444 0
 1111 004c 03F0F803 		and	r3, r3, #248
 1112 0050 1C43     		orrs	r4, r4, r3
 1113 0052 1470     		strb	r4, [r2]
 1114 0054 38BD     		pop	{r3, r4, r5, pc}
 1115              	.LVL29:
 1116              	.L53:
 1117 0056 00BF     		.align	2
 1118              	.L52:
 1119 0058 92400040 		.word	1073758354
 1120              		.cfi_endproc
 1121              	.LFE9:
 1122              		.size	Clock_4_SetSourceRegister, .-Clock_4_SetSourceRegister
 1123              		.text
 1124              	.Letext0:
 1125              		.file 2 "Generated_Source\\PSoC5/cytypes.h"