ARM GAS  C:\Users\Luggi\AppData\Local\Temp\ccnzdqOk.s 			page 1


   1              		.syntax unified
   2              		.cpu cortex-m3
   3              		.fpu softvfp
   4              		.eabi_attribute 20, 1
   5              		.eabi_attribute 21, 1
   6              		.eabi_attribute 23, 3
   7              		.eabi_attribute 24, 1
   8              		.eabi_attribute 25, 1
   9              		.eabi_attribute 26, 1
  10              		.eabi_attribute 30, 1
  11              		.eabi_attribute 34, 1
  12              		.eabi_attribute 18, 4
  13              		.thumb
  14              		.file	"Comp_2.c"
  15              		.text
  16              	.Ltext0:
  17              		.section	.gnu.lto_.profile.304b31a2,"",%progbits
  18 0000 789C6366 		.ascii	"x\234cf```c\200\000F\206K\214\035\214\000\004\376\001"
  18      60606063 
  18      80004686 
  18      4B8C1D8C 
  18      0004FE01 
  19 0014 67       		.ascii	"g"
  20              		.text
  21              		.section	.gnu.lto_.inline.304b31a2,"",%progbits
  22 0000 789C6366 		.ascii	"x\234cf\300\016r\030!47\003\203J\033\023#3C\306G&\306"
  22      C00E7218 
  22      21343703 
  22      834A1B13 
  22      233343C6 
  23 0017 C665BB7B 		.ascii	"\306e\273{\330_0\375d\002J0.g\224b`\310\204P@\305\254"
  23      D85F30FD 
  23      64024A30 
  23      2E679462 
  23      60C88450 
  24 002e 42874E71 		.ascii	"B\207Nq2\260-\220gb\340\2710\221Y\200A\340\306L&\016"
  24      32B02D90 
  24      6762E0B9 
  24      30915980 
  24      41E0C64C 
  25 0044 30C9C220 		.ascii	"0\311\302 \000\324\300\304\315\310\000\202\234\034\214"
  25      00D4C0C4 
  25      CDC80082 
  25      9C1C8C
  26 0053 0C4C3C0F 		.ascii	"\014L<\017b!jA\022\230B\314\014B\274P;\217\317}\261"
  26      62216A41 
  26      129842CC 
  26      0C42BC50 
  26      3B8FCF7D 
  27 0068 89056C27 		.ascii	"\211\005l'P\363\012\210\235+`vr\034\260\203\350a\373"
  27      50F30A88 
  27      9D2B6076 
  27      721CB083 
  27      E861FB
  28 007b A027C0C0 		.ascii	"\240'\300\300\321`\304\301\300\261\203\207\005d\004"
  28      D160C4C1 
  28      C0B18387 
ARM GAS  C:\Users\Luggi\AppData\Local\Temp\ccnzdqOk.s 			page 2


  28      056404
  29 008a 0B83880C 		.ascii	"\013\203\210\014\320T\271\015\257\030\0216q\203\264"
  29      D054B90D 
  29      AF181136 
  29      7183B4
  30 0099 B132700A 		.ascii	"\2612p\012\003e8~\231\300%\030\271`\004;\003+\013P\222"
  30      0365387E 
  30      99C02518 
  30      B960043B 
  30      032B0B50 
  31 00ae 65813C5C 		.ascii	"e\201<\\\222\203AI\037(dt\241\215\031\315$d\022\350"
  31      92834149 
  31      1F286474 
  31      A18D19CD 
  31      246412E8 
  32 00c2 77564690 		.ascii	"wVF\220\377\030\230\341\232\231.\360\203\335\302\005"
  32      FF1898E1 
  32      9A992EF0 
  32      83DDC205 
  33 00d2 92636002 		.ascii	"\222c`\002:\022n\0007\246\020\003\000\302D16"
  33      3A126E00 
  33      37A61003 
  33      00C24431 
  33      36
  34              		.text
  35              		.section	.gnu.lto_.jmpfuncs.304b31a2,"",%progbits
  36 0000 789C6366 		.ascii	"x\234cf\300\016\252\24147\003##c=#\323G&\306\246\323"
  36      C00EAAA1 
  36      34370323 
  36      23633D23 
  36      D34726C6 
  37 0016 472E33BD 		.ascii	"G.3\275`\372\311\304\310\305\300\270\234Q\212\201\221"
  37      60FAC9C4 
  37      C8C5C0B8 
  37      9C518A81 
  37      91
  38 0027 81818981 		.ascii	"\201\201\211\201\201\031\244\200\205\201\001\254\346"
  38      8119A480 
  38      858101AC 
  38      E6
  39 0034 E2AC65CD 		.ascii	"\342\254e\315\374 5L\214\014\214+\200jXA\206\26030p"
  39      FC20354C 
  39      8C0C8C2B 
  39      806A5841 
  39      86B03330 
  40 0049 4015DC7F 		.ascii	"@\025\334\177r\376\"\007X\001P`%\310\020&\260: \005"
  40      72FE2207 
  40      58015060 
  40      25C81026 
  40      B03A2005 
  41 005d E271820C 		.ascii	"\342q\202\014\343\002Y\313\300\000\000}\231\027\277"
  41      E30259CB 
  41      C000007D 
  41      9917BF
  42              		.text
  43              		.section	.gnu.lto_.pureconst.304b31a2,"",%progbits
  44 0000 789C6366 		.ascii	"x\234cf``\020g\200\000n\006)F)&)f)\026)V\011v)\016)"
ARM GAS  C:\Users\Luggi\AppData\Local\Temp\ccnzdqOk.s 			page 3


  44      60601067 
  44      80006E06 
  44      29462926 
  44      29662916 
  45 001b 4E292E29 		.ascii	"N).)n)\000\022\\\001~"
  45      6E290012 
  45      5C017E
  46              		.text
  47              		.section	.gnu.lto_Comp_2_trimAdjust.304b31a2,"",%progbits
  48 0000 789C8D55 		.ascii	"x\234\215Ukh\024W\024\276\347\316\356\314\354\354c6"
  48      6B681457 
  48      14BEE7CE 
  48      EECCECEC 
  48      6336
  49 0012 C194B8D9 		.ascii	"\301\224\270\331\322B\010\241E\374!\364_[\012\241\364"
  49      D24208A1 
  49      45FC21F4 
  49      5F5B0AA1 
  49      F4
  50 0023 5741C88F 		.ascii	"WA\310\217\376\261XMS\020\232DB\004\377\210\263\331"
  50      FEB1584D 
  50      53109A44 
  50      4204FF88 
  50      B3D9
  51 0035 350D2588 		.ascii	"5\015%\210\210McK\212ZM\264\233\207m\232G\325\324u\315"
  51      884D634B 
  51      8A5A4DB4 
  51      9B876D9A 
  51      47D5D475 
  52 004a C33631D6 		.ascii	"\30361\326\206<Lc*\215\011Z,*\033\022\027\255\333s\317"
  52      863C4C63 
  52      2A8D095A 
  52      2C2A1B12 
  52      17ADDB73 
  53 005f 9D6C9624 		.ascii	"\235l\226$\206.\354\231\331s\316w\316w\036\367\256\302"
  53      862EEC99 
  53      D973CE77 
  53      CE771EF7 
  53      AEC2
  54 0071 D67E7EC7 		.ascii	"\326~~\307\257\2561\366.>!\213\001?2\302XH\347\\\251"
  54      AFAE31F6 
  54      2E3E218B 
  54      013F32C2 
  54      5848E75C 
  55 0086 2D6496E1 		.ascii	"-d\226\341\024\322\243p\007\375\322\350\227\0034\351"
  55      14D2A370 
  55      07FDD2E8 
  55      970334E9 
  56 0096 E4E46A86 		.ascii	"\344\344j\206Z]Vk\334Ej\235\324:\270\244\332\005\246"
  56      5A5D566B 
  56      DC456A9D 
  56      D43AB8A4 
  56      DA05A6
  57 00a9 7C31B89B 		.ascii	"|1\270\233\354\036\262\273\301+\325\236\345\027/\367"
  57      EC1EB2BB 
  57      C12BD59E 
  57      E5172FF7 
ARM GAS  C:\Users\Luggi\AppData\Local\Temp\ccnzdqOk.s 			page 4


  58 00b9 C715B4FB 		.ascii	"\307\025\264\373F~e\350\340\223\270+\272\311\015\322"
  58      467E65E8 
  58      E093B82B 
  58      BAC90DD2 
  59 00c9 1864F6F8 		.ascii	"\030d\366\370\001\204\236\001;\310\025\207S\325t\227"
  59      01849E01 
  59      3BC81587 
  59      53D57497 
  60 00d9 E1F6787D 		.ascii	"\341\366x}\246\037\016rSVw\237?\346p$\026mp\027\236"
  60      A61F0E72 
  60      5356779F 
  60      3FE67024 
  60      166D7017 
  61 00ee B12CEBD1 		.ascii	"\261,\353\321\251/\367Y\307>Jr\306\022\\z@3\024\242"
  61      A92FF759 
  61      C73E4A72 
  61      C6125C7A 
  61      403314A2 
  62 0102 4FD31FB3 		.ascii	"O\323\037\263\247\234J>0|\177~\274\343\223\202o-\253"
  62      A79C4A3E 
  62      307C7F7E 
  62      BCE39382 
  62      6F2DAB
  63 0115 3A76BDCD 		.ascii	":v\275\315z\007\222\034\340,(\010\200-\001x-\300P\301"
  63      7A07921C 
  63      E02C2808 
  63      802D0178 
  63      2DC050C1 
  64 0129 E01C1408 		.ascii	"\340\034\024\010\337\205\331\256\247\240\274N\270\207"
  64      DF85D9AE 
  64      A7A0BC4E 
  64      B887
  65 0137 7317E65D 		.ascii	"s\027\346]\371'\021x\347\322\375\001\267\325`E\356\244"
  65      F9271178 
  65      E7D2FD01 
  65      B7D56045 
  65      EEA4
  66 0149 52AF08FC 		.ascii	"R\257\010\374w\231x\371\021\211\306\342\375\206\262"
  66      779978F9 
  66      1189C6E2 
  66      FD86B2
  67 0158 8DC0871B 		.ascii	"\215\300\207\033\2565\032\004\216\265`\326\320\011\353"
  67      AE351A04 
  67      8EB560D6 
  67      D009EB
  68 0167 792A45B9 		.ascii	"y*E\271[\326\305\3265\214\367\201\362\026a\237\035\217"
  68      5BD6C5D6 
  68      358CF781 
  68      F216619F 
  68      1D8F
  69 0179 4F9A3271 		.ascii	"O\2322q\357\252\304m\353\202\037G\376\235p\253\021\354"
  69      EFAAC46D 
  69      EB821F47 
  69      FE9D70AB 
  69      11EC
  70 018b 881FA290 		.ascii	"\210\037\242\220\017\255\370m\207|\331\0248\017*0\246"
  70      0FADF86D 
ARM GAS  C:\Users\Luggi\AppData\Local\Temp\ccnzdqOk.s 			page 5


  70      877CD914 
  70      380F2A30 
  70      A6
  71 019c 645ADAB3 		.ascii	"dZ\332\263cV*\225\270}\354\354\333\316\227\261z4aT4"
  71      63562A95 
  71      B87DECEC 
  71      DBCE97B1 
  71      7A346154 
  72 01b1 EAD80DEE 		.ascii	"\352\330\015\356b\302\307\000\321\024\267Px\204\360"
  72      62C2C700 
  72      D114B750 
  72      7884F0
  73 01c0 09610A91 		.ascii	"\011a\012\221%D\266\020\233\204\310\021\"W\210\315B"
  73      2544B610 
  73      9B84C811 
  73      225788CD 
  73      42
  74 01d1 88862A79 		.ascii	"\210\206*yB\004)0cw\221\306#\225\315q\216\017e\012\342"
  74      42042930 
  74      637791C6 
  74      2395CD71 
  74      8E0F650A 
  75 01e6 8B9F0F0C 		.ascii	"\213\237\017\014o\027\274\226\270\216\364\307&\256\216"
  75      6F17BC96 
  75      B88EF4C7 
  75      26AE8E
  76 01f5 A8F77892 		.ascii	"\250\367x\222;\352\273C\226CT\364\347\335\0337uRQ\201"
  76      3BEABB43 
  76      964354F4 
  76      E7DD1B37 
  76      75525181 
  77 0209 D1C1DA60 		.ascii	"\321\301\332`#|\035\212`\007\235\360=\004\340\007\300"
  77      237C1D8A 
  77      60079DF0 
  77      3D04E007 
  77      C0
  78 021a FAA1031A 		.ascii	"\372\241\003\032\201MA\370I\315\002\310x.\031r\362\344"
  78      814D41F8 
  78      49CD02C8 
  78      782E1972 
  78      F2E4
  79 022c 837AAFC0 		.ascii	"\203z\257\300\203\316\340G\364\035\007N\215\300\302"
  79      83CEE047 
  79      F41D074E 
  79      8DC0C2
  80 023b D0898D41 		.ascii	"\320\211\215Ad2\034m\312\225 \003\021\241\246\213u\232"
  80      64321C6D 
  80      CA952003 
  80      11A1A68B 
  80      759A
  81 024d 402059E8 		.ascii	"@ Y\350\004\331\3359\256\260\036EA\357[\341\356\246"
  81      04D9DD39 
  81      AEB01E45 
  81      41EF5BE1 
  81      EEA6
  82 025f A09D22C3 		.ascii	"\240\235\"\303\354`\323 +Z\274\276_\232\335\030\254"
  82      EC60D320 
ARM GAS  C:\Users\Luggi\AppData\Local\Temp\ccnzdqOk.s 			page 6


  82      2B5ABCBE 
  82      5F9ADD18 
  82      AC
  83 0270 B33556E3 		.ascii	"\2635V\343&\372]uvE\215\207\316\317\232+5t\245k\350"
  83      26FA5D75 
  83      76458D87 
  83      CECF9A2B 
  83      3574A56B 
  84 0285 B66B5850 		.ascii	"\266kXP%\336#C\014\375\365$\341!>~\006=\350\211Y\216"
  84      25DE2343 
  84      0CFDF524 
  84      E1213E7E 
  84      063DE889 
  85 029b 52911B05 		.ascii	"R\221\033\005\373\011\203a\010\342\346\264\251O\206"
  85      FB098361 
  85      08E2E6B4 
  85      A94F86
  86 02aa BB9BD7A1 		.ascii	"\273\233\327\241\256\256P\277aS\367a\350\337&\343gd"
  86      AEAE50BF 
  86      6153F761 
  86      E8DF26E3 
  86      6764
  87 02bc E7BB97A9 		.ascii	"\347\273\227\251\247\376\351}\350[\311v!\235\355\342"
  87      A7FEE97D 
  87      E85BC976 
  87      219DEDE2 
  88 02cc 2AEA2686 		.ascii	"*\352&\206X\303\365\205\350K\304\325$2\232\330\014\342"
  88      58C3F585 
  88      E84BC4D5 
  88      24329AD8 
  88      0CE2
  89 02de 9A68591E 		.ascii	"\232hY\036J\006W]\2242\016\325\261\261\372\034\032#"
  89      4A06575D 
  89      94320ED5 
  89      B1B1FA1C 
  89      1A23
  90 02f0 AE2A865E 		.ascii	"\256*\206^z6x\310\244)k\014z\311{\016\207\213\241\320"
  90      7A3678C8 
  90      A4296B0C 
  90      7AC97B0E 
  90      878BA1D0 
  91 0304 D74F0BBD 		.ascii	"\327O\013\275\204\363\024\300\333\343\022\030%`z\275"
  91      84F314C0 
  91      DBE31218 
  91      25607ABD 
  92 0314 F060C0CF 		.ascii	"\360`\300\317\0028\017\342ji\357\037\212\323&\202\311"
  92      02380FE2 
  92      6A69EF1F 
  92      8AD32682 
  92      C9
  93 0325 E03204B4 		.ascii	"\3402\004\264\007\035\347@D\326Ow\002\3066\030\336X"
  93      071DE740 
  93      44D64F77 
  93      02C63618 
  93      DE58
  94 0337 92E76C6B 		.ascii	"\222\347lkp-O7k.\220=\035\231\266{\232\265\321\270b"
  94      702D4F37 
ARM GAS  C:\Users\Luggi\AppData\Local\Temp\ccnzdqOk.s 			page 7


  94      6B2E903D 
  94      1D99B67B 
  94      9AB5D1B8 
  95 034c 76038FDA 		.ascii	"v\003\217\332\015\314\226\3767\277j\012S]N<\233W\376"
  95      0DCC96FE 
  95      37BF6A0A 
  95      535D4E3C 
  95      9B57FE
  96 035f EFECE3D4 		.ascii	"\357\354\343\324\317l\"\342I\023\371\373C\031z\323F"
  96      CF6C22E2 
  96      4913F9FB 
  96      43197AD3 
  96      46
  97 0370 A3B8BA8A 		.ascii	"\243\270\272\212G\016\372\257I\374Bt\037%\316\241\304"
  97      470EFAAF 
  97      49FC4274 
  97      1F25CEA1 
  97      C4
  98 0381 5EEAD034 		.ascii	"^\352\3204Db\243\023\036\001\024\013\364\315\350\341"
  98      4462A313 
  98      1E01140B 
  98      F4CDE8E1 
  99 0391 367EE0A9 		.ascii	"6~\340\251Uk\351I\256&\250\353\375p@\230\252\207\372"
  99      556BE949 
  99      AE26A8EB 
  99      FD704098 
  99      AA87FA
 100 03a4 46B92855 		.ascii	"F\271(U3\030\014@ \211\263&\336\3633oJ.\23378\377\203"
 100      33180C40 
 100      2089B326 
 100      DEF3336F 
 100      4A2E9B37 
 101 03bb E9F33FAC 		.ascii	"\351\363?\254H\357\\\0118\375E}\213\223N\017\236\377"
 101      48EF5C09 
 101      38FD457D 
 101      8B934E0F 
 101      9EFF
 102 03cd 6B5448F5 		.ascii	"kTH\365\214&]\002\350E\277?\353\263\313\315\263\257"
 102      8C265D02 
 102      E845BF3F 
 102      EBB3CBCD 
 102      B3AF
 103 03df 845BE1CA 		.ascii	"\204[\341\312\264K\236=R\037;1\310\024\321\233\232\305"
 103      B44B9E3D 
 103      521F3B31 
 103      C814D19B 
 103      9AC5
 104 03f1 A969FB96 		.ascii	"\251i\373\226\011.\341\245\2331'\3009\375\222q\313D"
 104      092EE1A5 
 104      9B3127C0 
 104      39FD9271 
 104      CB44
 105 0403 C5E20509 		.ascii	"\305\342\005\011o2\374W\263\367\221\324 2\015\207_\222"
 105      6F32FC57 
 105      B3F791D4 
 105      20320D87 
 105      5F92
ARM GAS  C:\Users\Luggi\AppData\Local\Temp\ccnzdqOk.s 			page 8


 106 0415 91402C28 		.ascii	"\221@,(\023\373\007b\021]=N\004\372\356y\021\351\027"
 106      13FB0762 
 106      115D3D4E 
 106      04FAEE79 
 106      11E917
 107 0428 8B3C03A1 		.ascii	"\213<\003\241X\342\003j$\0237)\240\022\001\257\276W"
 107      58E2036A 
 107      24133729 
 107      A01201AF 
 107      BE57
 108 043a 5A5E5AB9 		.ascii	"Z^Z\271\253\252\364\343\235\305\025\373*KJwl/\256(z"
 108      ABAAF4E3 
 108      9DC515FB 
 108      2A4B4A77 
 108      6C2FAE28 
 109 044f 63475145 		.ascii	"cGQE\331\336\235\333\266\2260\265|\317\356\335\237\226"
 109      D9DE9DDB 
 109      B69630B5 
 109      7CCFEEDD 
 109      9F96
 110 0461 6A55957B 		.ascii	"jU\225{\312\212\312\253\014\373\371\376\256\375zI\331"
 110      CA8ACAAB 
 110      0CFBF9FE 
 110      AEFD7A49 
 110      D9
 111 0472 DEE22A84 		.ascii	"\336\342*\204\376\007\325m\2029"
 111      FE07D56D 
 111      8239
 112              		.text
 113              		.section	.gnu.lto_Comp_2_Enable.304b31a2,"",%progbits
 114 0000 789C7D91 		.ascii	"x\234}\221?HBQ\024\306\317w\237>\004\033\242I\234\242"
 114      3F484251 
 114      14C6CF77 
 114      9F3E041B 
 114      A2499CA2 
 115 0014 C5AD2168 		.ascii	"\305\255!hiup\015\204&A\302\336X\212\324\354{eD\265"
 115      6975700D 
 115      842641C2 
 115      DE588AD4 
 115      EC7B6544 
 116 0029 985004E9 		.ascii	"\230P\004\351\226Xi\031:D\233TKK\321\222\340`\020\026"
 116      96586919 
 116      3A449B54 
 116      4B4BD192 
 116      E0601016 
 117 003d B6445218 		.ascii	"\266DR\030\257\010;\367=*H\352\302=\367\317\373\316"
 117      AF083BF7 
 117      3D2A48EA 
 117      C23DF7CF 
 117      FBCE
 118 004f EF7CF73C 		.ascii	"\357|\367<\205z\207\227g\031DC\274B!\210\324\005\221"
 118      857A8797 
 118      67194443 
 118      BC422188 
 118      D40591
 119 0062 E11280DC 		.ascii	"\341\022\200\334\020(!\220\300\203h\013\244\252\205"
 119      10282190 
ARM GAS  C:\Users\Luggi\AppData\Local\Temp\ccnzdqOk.s 			page 9


 119      C083680B 
 119      A4AA85
 120 0071 4DB72FA7 		.ascii	"M\267/\247\353\372S\371\330\263\3501\005\321\263\260"
 120      EBFA53F9 
 120      D8B3E831 
 120      05D1B3B0 
 121 0081 31C8C347 		.ascii	"1\310\303G\254i'?jn5\311\232~\373\033v\2402\236J\003"
 121      AC69273F 
 121      6A6E35C9 
 121      9A7EFB1B 
 121      76A0329E 
 122 0097 55BDDBAD 		.ascii	"U\275\333\255\334\257\265\306\340\022d\012.\306\301"
 122      DCAFB5C6 
 122      E012640A 
 122      2EC6C1
 123 00a6 29832A03 		.ascii	")\203*\003Q\223\365\262\350\235\020rU\3528\351\254<"
 123      5193F5B2 
 123      E89D1072 
 123      55EA38E9 
 123      AC3C
 124 00b8 662624E2 		.ascii	"f&$\342UH\007\357\313\215[GK\230B\344\227\014\335!\013"
 124      554807EF 
 124      CB8D5B47 
 124      4B9842E4 
 124      970CDD21 
 125 00cd DE342FAF 		.ascii	"\3364/\257\\\326\025\311c\352<?\337\227\305\226\221"
 125      5CD615C9 
 125      63EA3C3F 
 125      DF97C596 
 125      91
 126 00de 842914EC 		.ascii	"\204)\024\354\302\213=\360\033Q@\026T\307\302\213j\343"
 126      C28B3DF0 
 126      1B514016 
 126      54C7C28B 
 126      6AE3
 127 00f0 149BB8BD 		.ascii	"\024\233\270\275\276Qt\312t\270\010EVr\3214\244\344"
 127      BE5174CA 
 127      74B80845 
 127      5672D134 
 127      A4E4
 128 0102 3FD83EC3 		.ascii	"?\330>\303\030A\226\303N&f#\235\234r\275\372\226\203"
 128      184196C3 
 128      4E266623 
 128      9D9C72BD 
 128      FA9683
 129 0115 65E7E8CB 		.ascii	"e\347\350\313\341i%}\206\037\312\3017\245\364\313\222"
 129      E169257D 
 129      861FCAC1 
 129      37A5F4CB 
 129      92
 130 0126 44F478F8 		.ascii	"D\364x\3703\373\320\362\240R\003F\265\026\220j\371\037"
 130      33FBD0F2 
 130      A0520346 
 130      B516906A 
 130      F91F
 131 0138 9ADC48EE 		.ascii	"\232\334H\356\0357c0\240\315h\361\311Ym*\034\214\316"
 131      1D376330 
ARM GAS  C:\Users\Luggi\AppData\Local\Temp\ccnzdqOk.s 			page 10


 131      A0CD68F1 
 131      C9596D2A 
 131      1C8CCE
 132 014b C5235A68 		.ascii	"\305#Zh<\030\365\217\206\374\321\351Xxd8B\237\232\320"
 132      3C18F58F 
 132      86FCD1E9 
 132      58786438 
 132      429F9AD0 
 133 015f 9F38     		.ascii	"\2378"
 134              		.text
 135              		.section	.gnu.lto_Comp_2_Stop.304b31a2,"",%progbits
 136 0000 789C7D91 		.ascii	"x\234}\221?HBQ\024\306\317w\236>\004\033\242I\234\242"
 136      3F484251 
 136      14C6CF77 
 136      9E3E041B 
 136      A2499CA2 
 137 0014 C5AD2168 		.ascii	"\305\255!hiuhh\011\204&A\302\034K\221\232}\257\214\250"
 137      69756868 
 137      09842641 
 137      C21C4B91 
 137      9A7DAF8C 
 138 0029 16710AC2 		.ascii	"\026q\012\3021\254\324\014\034Z\245$h1jHr0\010#\333"
 138      31ACD40C 
 138      1C5AA524 
 138      68316A48 
 138      72300823 
 139 003e B2207B45 		.ascii	"\262 {E\330\271>*H\352\302=\367\317\373\316\357|\367"
 139      D8B93E2A 
 139      48EAC23D 
 139      F7CFFBCE 
 139      EF7CF7
 140 0051 3C8DFA87 		.ascii	"<\215\372\207Wf\011D#\262B#p\252Jd\272\030P\033\002"
 140      57660944 
 140      23B24223 
 140      70AA4A64 
 140      BA18501B 
 141 0066 2518093C 		.ascii	"%\030\011<p\233\221*\347\266\334\276\035\3030\036/\257"
 141      709B912A 
 141      E7B6DCBE 
 141      1DC3301E 
 141      2FAF
 142 0078 3DAB1E8B 		.ascii	"=\253\036\213\211\236\331\306 \013\037\211\246\235\374"
 142      899ED9C6 
 142      200B1F89 
 142      A69DFC
 143 0087 A8B9F5A4 		.ascii	"\250\271\365\244h\006\355o\330\205.x*\016\225\215n\267"
 143      6806ED6F 
 143      D8852E78 
 143      2A0E958D 
 143      6EB7
 144 0099 749F6E4D 		.ascii	"t\237nM\260\213\311b)&\301\251\202\256\002QS\364\252"
 144      B08BC962 
 144      2926C1A9 
 144      82AE0251 
 144      53F4AA
 145 00ac E81DB35A 		.ascii	"\350\035\263Z\265:\216_6N\0133\012\321a\345\340}\275"
 145      B53A8E5F 
ARM GAS  C:\Users\Luggi\AppData\Local\Temp\ccnzdqOk.s 			page 11


 145      364E0B33 
 145      0AD161E5 
 145      E07DBD
 146 00bf 71EB68B1 		.ascii	"q\353h\261\305\234]3\015\207*x\323<\277p\365\256H\035"
 146      C59C5D33 
 146      0D872A78 
 146      D33CBF70 
 146      F5AE481D 
 147 00d3 5367D9E5 		.ascii	"Sg\331\345\201\014\266\315$,\326\260\007/\366!oD\016"
 147      810CB6CD 
 147      242CD6B0 
 147      072FF621 
 147      6F440E
 148 00e6 19501D2B 		.ascii	"\031P\035+\257\272\215\323lb\361)_\321U\272\326\001"
 148      AFBA8DD3 
 148      6C62F129 
 148      5FD155BA 
 148      D601
 149 00f8 212F52A9 		.ascii	"!/R\251\232\206\322\374G+\010M\030\324\263X-\304l\246"
 149      9A86D2FC 
 149      472B084D 
 149      18D4B358 
 149      2DC46CA6 
 150 010c 5352AE36 		.ascii	"SR\2566\337v\320\363s\364e\361\244\224\256\340\207r"
 150      DF76D0F3 
 150      73F465F1 
 150      A494AEE0 
 150      8772
 151 011e F04D29FE 		.ascii	"\360M)\376\362\244\020}\036\376\314>\354y\320\251\001"
 151      F2A4107D 
 151      1EFECC3E 
 151      EC79D0A9 
 151      01
 152 012f B35C9B52 		.ascii	"\263\\\233Rj\365#\232\322Ii\236tcx2\262\020\211\317"
 152      6AF5239A 
 152      D249699E 
 152      74637832 
 152      B21089CF 
 153 0143 2E46E642 		.ascii	".F\346B\201\350R<\034\011N\007\242\376\361\240?:\037"
 153      81E8523C 
 153      1C094E07 
 153      A2FEF1A0 
 153      3F3A1F
 154 0156 0B8D8D86 		.ascii	"\013\215\215\206\351\023\265<\240\343"
 154      E913B53C 
 154      A0E3
 155              		.text
 156              		.section	.gnu.lto_Comp_2_SetSpeed.304b31a2,"",%progbits
 157 0000 789C7D93 		.ascii	"x\234}\223]H\024Q\024\307\357\271wfvu\227\335e\351A"
 157      5D481451 
 157      14C7EFB9 
 157      77667675 
 157      97DD65E9 
 158 0015 968220C4 		.ascii	"\226\202 \304\202\350\241\3501\011\014z,\260GAB\367"
 158      82E8A1E8 
 158      31090C7A 
 158      2CB04741 
ARM GAS  C:\Users\Luggi\AppData\Local\Temp\ccnzdqOk.s 			page 12


 158      42F7
 159 0027 B114B367 		.ascii	"\261\024\263gg?L\264/Q\350{\263\210Ek\375^?\362+\207"
 159      673F4CB4 
 159      2F51E87B 
 159      B388456B 
 159      FD5E3FF2 
 160 003d 8DDA84D2 		.ascii	"\215\332\204\322\014R\363\301\2504\266\302R\2545\301"
 160      0C52F3C1 
 160      A834B6C2 
 160      52AC35C1 
 161 004d DCCEBD33 		.ascii	"\334\316\2753\263*\013\016\314\271\367\036\316\377\234"
 161      B32A0B0E 
 161      CCB9F71E 
 161      CEFF9C
 162 005c DF397387 		.ascii	"\3379s\207\221\314\347\030\276'$B\366\343\012\012\001"
 162      91CCE718 
 162      BE272442 
 162      F6E30A0A 
 162      01
 163 006d 5A3F4E88 		.ascii	"Z?N\210\317J)\213;\211\232-\215\345\023\325\316@\326"
 163      CF4A298B 
 163      3B899A2D 
 163      8DE513D5 
 163      CE40D6
 164 0080 DD92B991 		.ascii	"\335\222\271\221\001\370\206\000\251\242L\222\241\012"
 164      01F88600 
 164      A9A24C92 
 164      A10A
 165 008e BED1650A 		.ascii	"\276\321e\012\365Z\344\226-/\254\252\352\322\273\345"
 165      F55AE496 
 165      2D2FACAA 
 165      EAD2BBE5 
 166 009e 9CEA9C35 		.ascii	"\234\352\2345J\310\012\325+A3\344aH@\373<je\373\200"
 166      4AC80AD5 
 166      2B4133E4 
 166      614840FB 
 166      3C6A65FB 
 167 00b3 E0FE46B8 		.ascii	"\340\376F\270v\304\231\373HU\375\332p\273z\034\326("
 167      76C499FB 
 167      4855FDDA 
 167      70BB7A1C 
 167      D628
 168 00c5 400B3054 		.ascii	"@\0130T\300A\017\034\360\020t\020x\014\271<x9\370o\332"
 168      C0410F1C 
 168      F0107410 
 168      780CB93C 
 168      7839F86F 
 169 00da A60431B7 		.ascii	"\246\0041\267K\317\011O@\001\\;\334\232\232JE\343\215"
 169      4BCF094F 
 169      40015C3B 
 169      DC9A9A4A 
 169      45E38D
 170 00ed 89236C17 		.ascii	"\211#l\027C\015\225\3200\231\033\005\270\334\302\267"
 170      430D95D0 
 170      30991B05 
 170      B8DCC2B7 
 171 00fd 566EB2B8 		.ascii	"Vn\262\270\311\3461vn\034\334\270\270qsC\310<\276\274"
ARM GAS  C:\Users\Luggi\AppData\Local\Temp\ccnzdqOk.s 			page 13


 171      C9E63176 
 171      6E1CDCB8 
 171      B8717343 
 171      C83CBEBC 
 172 0111 B1053CE0 		.ascii	"\261\005<\340\312f!\226\254{9p\206\327Z\245\0141\246"
 172      CA662196 
 172      AC7B3970 
 172      86D75AA5 
 172      0C31A6
 173 0124 376EB7DA 		.ascii	"7n\267\332\023t\215J\317;}\252\304\311>\316OLZ\205\213"
 173      13748D4A 
 173      CF3B7DAA 
 173      C4C93ECE 
 173      4F4C5A85 
 174 0139 F0636D32 		.ascii	"\360cm2\345\247!\270\353\013bC2D\300\003\255\340A\336"
 174      E5A721B8 
 174      EB0B6243 
 174      3244C003 
 174      ADE041DE 
 175 014d 36080199 		.ascii	"6\010\001\231\005\377\\\315:\350\011%\314\211\236\300"
 175      05FF5CCD 
 175      3AE80925 
 175      CC899EC0 
 176 015d 5F453FCB 		.ascii	"_E?\313\350\302\014?z\336<\240<![O\031\017N\270\035"
 176      E8C20C3F 
 176      7ADE3CA0 
 176      3C215B4F 
 176      190F4EB8 
 177 0172 9370B545 		.ascii	"\223p\265E\217\265\254Re\253\326\212.\324v4\375\331"
 177      8FB5AC52 
 177      65ABD68A 
 177      2ED47634 
 177      FDD9
 178 0184 00A16504 		.ascii	"\000\241e\004:\204$\360\333\010\311\022\025\254[\263"
 178      3A8424F0 
 178      DB08C912 
 178      15AC5BB3 
 179 0194 64A317CF 		.ascii	"d\243\027\317\261\006A\264\215\336\247\311\333\371;"
 179      B10641B4 
 179      8DDEA7C9 
 179      DBF93B
 180 01a3 911F15E4 		.ascii	"\221\037\025\344=\004g\002+\367\214\014\\\024\017%\272"
 180      3D046702 
 180      2BF78C0C 
 180      5C140F25 
 180      BA
 181 01b4 255E947F 		.ascii	"%^\224\177\257.\036L\370\014\031\211;\365\021\376\034"
 181      AF2E1E4C 
 181      F80C1989 
 181      3BF511FE 
 181      1C
 182 01c5 ACD4A3ED 		.ascii	"\254\324\243\355\030\375\341\372\375\257Y<Zi\364\253"
 182      18FDE1FA 
 182      FDAF593C 
 182      5A69F4AB 
 183 01d5 AFB68F50 		.ascii	"\257\266\217P\021#\214~\237H\312\346\010-\320\215\010"
 183      11238C7E 
ARM GAS  C:\Users\Luggi\AppData\Local\Temp\ccnzdqOk.s 			page 14


 183      9F48CAE6 
 183      082DD08D 
 183      08
 184 01e6 5181D0A3 		.ascii	"Q\201\320\243\2170\326\360p\267\301\333\333\246]\262"
 184      8F30D6F0 
 184      70B7C1DB 
 184      DBA65DB2 
 185 01f6 89E1F75D 		.ascii	"\211\341\367]1\276G\250\272\363\213\323ha\017o\2417"
 185      31BE47A8 
 185      BAF38BD3 
 185      68610F6F 
 185      A137
 186 0208 DD429F68 		.ascii	"\335B\237h\301N\004T\322\204r\240h)ru\\\207\272iB]{"
 186      C14E0454 
 186      D28472A0 
 186      68297275 
 186      5C87BA69 
 187 021f D13C64DB 		.ascii	"\321<d\333\244\350OS<\315\240x;\023\013\353W\240\337"
 187      A4E84F53 
 187      3CCDA078 
 187      3B130BEB 
 187      57A0DF
 188 0232 A4482D8E 		.ascii	"\244H-\216\374rl\245\030HS\014\012\012\207\230\221D"
 188      FC726CA5 
 188      1848530C 
 188      0A0A8798 
 188      9144
 189 0244 C6F2F519 		.ascii	"\306\362\365\031M\015\0338.TO^\236\212(\002'\0320p^"
 189      4D0D1B38 
 189      2E544F5E 
 189      9E8A2802 
 189      271A3070 
 190 0259 DFE90FC3 		.ascii	"\337\351\017\303&\316P\032g8\003g\207\011\214\210\332"
 190      26CE501A 
 190      67380367 
 190      87098C88 
 190      DA
 191 026a 2E7D0273 		.ascii	".}\002sfI7\212\232Z\026j\364o0d\226\374T\267\330\305"
 191      6649378A 
 191      9A5A166A 
 191      F46F3064 
 191      96FC54B7 
 192 0280 364B3E4B 		.ascii	"6K>K\227\034\315(\271C\273\232(\351\026\355\312\342"
 192      971CCD28 
 192      B943BB9A 
 192      28E916ED 
 192      CAE2
 193 0292 B79A039F 		.ascii	"\267\232\003\237\326t\212+\371E\231\307[\203^\374\365"
 193      D6748A2B 
 193      F94599C7 
 193      5B835EFC 
 193      F5
 194 02a3 F69EF49E 		.ascii	"\366\236\364\236\367V\234\255\364\226\026\027\226]\254"
 194      F7569CAD 
 194      F4961617 
 194      965DAC
 195 02b2 28F1169D 		.ascii	"(\361\026\235.,+8ZTPv\256\274\370\360\241\022\"_(\367"
ARM GAS  C:\Users\Luggi\AppData\Local\Temp\ccnzdqOk.s 			page 15


 195      2E2C2B38 
 195      5A545076 
 195      AEBCF8F0 
 195      A112225F 
 196 02c8 7A4BFF03 		.ascii	"zK\377\003B\360\224N"
 196      42F0944E 
 197              		.text
 198              		.section	.gnu.lto_Comp_2_Init.304b31a2,"",%progbits
 199 0000 789C8D53 		.ascii	"x\234\215SKL\023Q\024\275\347M;-\245M\033\0227]\031"
 199      4B4C1351 
 199      14BDE74D 
 199      3B2DA54D 
 199      1B12375D 
 200 0015 37EC5C98 		.ascii	"7\354\\\230\270uC\242\333&l\\\020\211\201.\265\204\340"
 200      B87543A2 
 200      DB266C5C 
 200      1089812E 
 200      B584E0
 201 0028 9230035D 		.ascii	"\2220\003]\250\013mH4\255\006V(*\345#\177\301\305T\343"
 201      A80B6D48 
 201      34AD0656 
 201      282AE523 
 201      7FC1C554 
 202 003d C2851002 		.ascii	"\302\205\020\002J\202\237\306\210 ;\011\2468!Z\357\235"
 202      4A829FC6 
 202      88203B09 
 202      A638215A 
 202      EF9D
 203 004f 573529A1 		.ascii	"W5)\241a\2229of\3369\347\236\271\357=\203\016_q\276"
 203      6192396F 
 203      66DE39E7 
 203      9EB9EF3D 
 203      830E5F71 
 204 0064 3306D129 		.ascii	"3\006\321)\036a\020Tf\211\310\016*@\036\010\324\243"
 204      1E611054 
 204      6689C80E 
 204      2A401E08 
 204      D4A3
 205 0076 D0831DB5 		.ascii	"\320\203\035\265\253\220qF\262\365\215\017,\313\372"
 205      AB907146 
 205      B2F58D0F 
 205      2CCBFA
 206 0085 3EF9C64E 		.ascii	">\371\306N8p\025\321\236\322>\030F#1i7\375k\275\336"
 206      387015D1 
 206      9ED23E18 
 206      46233169 
 206      37FD6BBD 
 207 009a 4C3329A6 		.ascii	"L3)\246\347\360\010&x\034op\254ryj\266\260f6\030\344"
 207      E7F00826 
 207      781C6F70 
 207      AC72796A 
 207      B6B06636 
 208 00b0 2AF8044C 		.ascii	"*\370\004L\201\200@\235@H ,\020\021\210\012\304\004"
 208      8180409D 
 208      4048202C 
 208      1011880A 
 208      C404
ARM GAS  C:\Users\Luggi\AppData\Local\Temp\ccnzdqOk.s 			page 16


 209 00c2 8836D94C 		.ascii	"\2106\331L\"}UJF\343\003\322\316\307\023\342.e\007W"
 209      227D554A 
 209      46E303D2 
 209      CEC713E2 
 209      2E650757 
 210 00d6 6F8DA9EE 		.ascii	"o\215\251\356\003\353\272\025t\225\332\023\001\036\243"
 210      03EBBA15 
 210      7495DA13 
 210      011EA3
 211 00e5 5BA656EE 		.ascii	"[\246V\356=\354\213~S\2562@x\202\270\253|\264\201\027"
 211      3DEC8B7E 
 211      53AE3240 
 211      7882B8AB 
 211      7CB48117 
 212 00f9 A59B5B73 		.ascii	"\245\233[s~\221\357+\203Y\353\277s\371\260\260\374/"
 212      7E91EF2B 
 212      8359EBBF 
 212      73F9B0B0 
 212      FC2F
 213 010b 276CCB27 		.ascii	"'l\313'\302\342\346\362J\320\373D\362z\243T\356U\003"
 213      C2E2E6F2 
 213      4AD0FB44 
 213      F27AA354 
 213      EE5503
 214 011e B86FA7F9 		.ascii	"\270o\247\371\307M\214 \216<\270}\030\305\000\330\261"
 214      C74D8C20 
 214      8E3CB87D 
 214      18C500D8 
 214      B1
 215 012f EFA7A9ED 		.ascii	"\357\247\251\355|\332q\341\371\352\262!r\263\310\205"
 215      7CDA71E1 
 215      F9EAB221 
 215      72B3C885 
 216 013f C798CA55 		.ascii	"\307\230\312U\373!\234Zn\343\354\266\3777\342\273\354"
 216      FB219C5A 
 216      6EE3ECB6 
 216      FF37E2BB 
 216      EC
 217 0150 25ED5953 		.ascii	"%\355YS2Q\025 \240\371\303\257\266\013\021/\300\001"
 217      32511520 
 217      A0F9C3AF 
 217      B60B112F 
 217      C001
 218 0162 07787ADC 		.ascii	"\007xz\334\000\223^\200\200\016\260\224;\247=\353jI"
 218      00935E80 
 218      800EB094 
 218      3BA73DEB 
 218      6A49
 219 0174 A62A017E 		.ascii	"\246*\001~T\002\2044\177\350\316\335\274_\002 H\230"
 219      54028434 
 219      7FE8CEDD 
 219      BC5F0220 
 219      4898
 220 0186 3E6EFD19 		.ascii	">n\375\031\257~\250\262F\271\204\266\014\263${\273\367"
 220      AF7EA8B2 
 220      46B984B6 
 220      0CB3247B 
ARM GAS  C:\Users\Luggi\AppData\Local\Temp\ccnzdqOk.s 			page 17


 220      BBF7
 221 0198 BDB792FE 		.ascii	"\275\267\222\376\342Le\215^o\255}1\377\273\314\376s"
 221      E24C658D 
 221      5E6FAD7D 
 221      31FFBBCC 
 221      FE73
 222 01aa 99ABEA49 		.ascii	"\231\253\352ID[\314\0276>\353\236lsO\346\2532\035\351"
 222      445BCC17 
 222      363EEB9E 
 222      6C734FE6 
 222      AB321DE9 
 223 01be F6CCCB14 		.ascii	"\366\314\313\024\321\231J\271\213\3323ZK\262P\325\223"
 223      D1994AB9 
 223      8BDA335A 
 223      4BB250D5 
 223      93
 224 01cf 18F30F35 		.ascii	"\030\363\0175\341H\365\242W0F\237`;o\317{\273\234\344"
 224      E148F5A2 
 224      5730469F 
 224      603B6FCF 
 224      7BBB9CE4 
 225 01e3 0C40F63E 		.ascii	"\014@\366>\237\204\223\027\222W\223\235\227\273\222"
 225      9F849317 
 225      9257939D 
 225      97BB92
 226 01f2 EDADCDA9 		.ascii	"\355\255\315\251k\235m\311\226Ds\252\351lKS\352JG\353"
 226      6B9D6DC9 
 226      964473AA 
 226      E96C4B53 
 226      EA4A47EB 
 227 0206 99D36DF4 		.ascii	"\231\323m\364\007Lt@\216"
 227      074C7440 
 227      8E
 228              		.text
 229              		.section	.gnu.lto_Comp_2_Start.304b31a2,"",%progbits
 230 0000 789C7590 		.ascii	"x\234u\220\275KBQ\030\306\337\367=\327\017J(\232\244"
 230      BD4B4251 
 230      18C6DFF7 
 230      3DD70F4A 
 230      289AA4
 231 0013 21A2C521 		.ascii	"!\242\305!((\372\013\034\202\246\300U\2202\3072\244"
 231      2828FA0B 
 231      1C82A6C0 
 231      559032C7 
 231      32A4
 232 0025 46E95CBD 		.ascii	"F\351\\\275\201C\2048E_[f\331\347\322\220\313\235\245"
 232      81438438 
 232      455F5B66 
 232      D9E7D290 
 232      CB9DA5
 233 0038 1291B222 		.ascii	"\022\221\262\"j)\250Mq\010\011\261\367\\\243\300\360"
 233      6A29A84D 
 233      710809B1 
 233      F75CA3C0 
 233      F0
 234 0049 C0E59CFB 		.ascii	"\300\345\234\373\234\347}\236\037G\300\3775\316\337"
 234      9CE77D9E 
ARM GAS  C:\Users\Luggi\AppData\Local\Temp\ccnzdqOk.s 			page 18


 234      1F47C0FF 
 234      35CEDF
 235 0058 05020CF1 		.ascii	"\005\002\014\361\2166@J\336\000\350N\"q9\000\262K\273"
 235      8E36404A 
 235      DE00E84E 
 235      22713900 
 235      B24BBB
 236 006b 1B05E912 		.ascii	"\033\005\351\022\250\265d\015Q\035\000a\205\204\206"
 236      A8B5640D 
 236      511D0061 
 236      858486
 237 007a 2BF84155 		.ascii	"+\370AU\302\244\231\335\350\366\354I)+\261\222{\325"
 237      C2A499DD 
 237      E8F6EC49 
 237      292BB192 
 237      7BD5
 238 008c 5D27801A 		.ascii	"]'\200\032\265\362q\037=\300\236\252\321(w\333\015\366"
 238      B5F2711F 
 238      3DC09EAA 
 238      D12877DB 
 238      0DF6
 239 009e F4B6EE30 		.ascii	"\364\266\3560\203v\356\205\323>S6\233\265\253Tb\230"
 239      8376EE85 
 239      D33E5336 
 239      9BB5AB54 
 239      6298
 240 00b0 1C02EAC4 		.ascii	"\034\002\352\304\342+\033T\317\033\221\332\305#\306"
 240      E22B1B54 
 240      CF1B91DA 
 240      C523C6
 241 00bf 52D5EB94 		.ascii	"R\325\353\224C\315|\222\340\270\335\322\372\011E\277"
 241      43CD7C92 
 241      E0B8DDD2 
 241      FA0945BF 
 242 00cf 64423AEB 		.ascii	"dB:\353D\015\025\310\352\313k\241\350|'V\254\337\214"
 242      440D15C8 
 242      EACB6BA1 
 242      E87C2756 
 242      ACDF8C
 243 00e2 6E6CE30E 		.ascii	"nl\343\016n\351R\271\004\036`\024\017\261\237\273\263"
 243      6EE952B9 
 243      041E6014 
 243      0FB19FBB 
 243      B3
 244 00f3 2CC32D1A 		.ascii	",\303-\032\367\361\331\277L=\235[s\250i&\300#\345\003"
 244      F7F1D9BF 
 244      4C3D9D5B 
 244      73A86926 
 244      C023E503 
 245 0107 8520E072 		.ascii	"\205 \340r@<a\334\314\345]\312\014\355\365Z\315\232"
 245      403C61DC 
 245      CCE55DCA 
 245      0CEDF55A 
 245      CD9A
 246 0119 38C628D3 		.ascii	"8\306(\323\333\200a+\225B\314\202\355H\332\216v\362"
 246      DB80612B 
 246      9542CC82 
ARM GAS  C:\Users\Luggi\AppData\Local\Temp\ccnzdqOk.s 			page 19


 246      ED48DA8E 
 246      76F2
 247 012b 8B76CA32 		.ascii	"\213v\3122\033\212\233\351x\217\202\021\010xf\301\274"
 247      1B8A9BE9 
 247      788F8211 
 247      087866C1 
 247      BC
 248 013c 9166BD86 		.ascii	"\221f\275\206b)\347\251\023\0137\340\371\017\3133\352"
 248      6229E7A9 
 248      130B37E0 
 248      F90FCB33 
 248      EA
 249 014d E6C394E5 		.ascii	"\346\303\224\345\004\365\254\250\002\33008\031Z\010"
 249      04F5ACA8 
 249      02D83038 
 249      195A08
 250 015c 45669642 		.ascii	"Ef\226Bs\001_x9\022\014\371\247}a\357\204\337\033\236"
 250      73015F78 
 250      39120CF9 
 250      A77D61EF 
 250      84DF1B9E 
 251 0170 5F0C8C8D 		.ascii	"_\014\214\215\004\341\033\356\312\250\025"
 251      04E11BEE 
 251      CAA815
 252              		.text
 253              		.section	.gnu.lto_Comp_2_GetCompare.304b31a2,"",%progbits
 254 0000 789C6366 		.ascii	"x\234cf\300\004R@\374\033\210\225\200\230\221\231\201"
 254      C0045240 
 254      FC1B8895 
 254      80989199 
 254      81
 255 0011 9169C239 		.ascii	"\221i\3029\006\206F\016&FF\020\203\201\221\241\236\211"
 255      0686460E 
 255      26464610 
 255      838191A1 
 255      9E89
 256 0023 B19EF125 		.ascii	"\261\236\361%\323G&\3063;\377]fT_\332\320\320\364a\323"
 256      D34726C6 
 256      333BFF5D 
 256      66545FDA 
 256      D0D0F461 
 257 0038 FF3BDCAD 		.ascii	"\377;\334\255\022?\231\030\030>310\352H1j\202\314a\\"
 257      123F9918 
 257      183E3331 
 257      30EA4831 
 257      6A82CC61 
 258 004d CEA8CE00 		.ascii	"\316\250\316\000T\370\261\345\357un\266\226\206\206"
 258      54F8B1E5 
 258      EF756EB6 
 258      968686
 259 005c 0601903C 		.ascii	"\006\001\220<Pb\005#\033#\220^/t\240\341\377\377\315"
 259      50620523 
 259      1B23905E 
 259      2F74A0E1 
 259      FFFFCD
 260 006f FF269FB0 		.ascii	"\377&\237\260gfab\370\311\004\264\021d\010\303\023 "
 260      67666162 
ARM GAS  C:\Users\Luggi\AppData\Local\Temp\ccnzdqOk.s 			page 20


 260      F8C904B4 
 260      116408C3 
 260      1320
 261 0081 01B2EF29 		.ascii	"\001\262\357)\023\023\210f\276\305x\350[\327\273\375"
 261      13138866 
 261      BEC578E8 
 261      5BD7BBFD 
 262 0091 56208DDF 		.ascii	"V \215\337\231@\226_\275~\370\034\333\013\246\237LL"
 262      9940965F 
 262      BD7EF81C 
 262      DB0BA69F 
 262      4C4C
 263 00a3 D3B63736 		.ascii	"\323\26676\260\200\254\271\377\344\374E\016\260\020"
 263      B080ACB9 
 263      FFE4FC45 
 263      0EB010
 264 00b2 0388BBFA 		.ascii	"\003\210\273\372x\207\314\\\306\331\215-\214?\231\230"
 264      7887CC5C 
 264      C6D98D2D 
 264      8C3F9998 
 265 00c2 1957324A 		.ascii	"\031W2J1\256b\004\272\212q5\343\\F\206[\214\315?\332"
 265      31AE6204 
 265      BA8A7135 
 265      E35C4686 
 265      5B8CCD3F 
 266 00d7 7420C631 		.ascii	"t \3061CL\274\261\360\3154^\220v\006\016\006\3065@\245"
 266      434CBCB1 
 266      F0CD345E 
 266      9076060E 
 266      06C63540 
 267 00ec F71819A1 		.ascii	"\367\030\031\241\012\300.b\004\271\004h\264\202{j^j"
 267      0AC02E62 
 267      04B90468 
 267      B4827B6A 
 267      5E6A
 268 00fe 5162496A 		.ascii	"QbIjJ|p~iQrjL@p\276\263i\214s~nA\274\221^2\003\000r"
 268      4A7C707E 
 268      6951726A 
 268      4C4070BE 
 268      B3698C73 
 269 011c A3658C   		.ascii	"\243e\214"
 270              		.text
 271              		.section	.gnu.lto_Comp_2_ZeroCal.304b31a2,"",%progbits
 272 0000 789C8D95 		.ascii	"x\234\215\225MlTU\024\307\357\271\357c\2463\203\323"
 272      4D6C5455 
 272      14C7EFB9 
 272      EF63A633 
 272      83D3
 273 0012 18361D68 		.ascii	"\0306\035hk\322\005\321\030\203\030\025\027\326E\027"
 273      6BD205D1 
 273      18831815 
 273      17D64517 
 274 0022 6E895DB8 		.ascii	"n\211]\270!!\025\273\304\022\202\013\027\204\327\351"
 274      212115BB 
 274      C412820B 
 274      1784D7E9 
 275 0032 D00A1234 		.ascii	"\320\012\0224\223\202P\034\003\266\240\305~L\201R\261"
ARM GAS  C:\Users\Luggi\AppData\Local\Temp\ccnzdqOk.s 			page 21


 275      9382501C 
 275      03B6A0C5 
 275      7E4C8152 
 275      B1
 276 0043 7C0C0332 		.ascii	"|\014\0032\366\303BEh\203\244\003\330j\215B[\247L\373"
 276      F6C34245 
 276      6883A403 
 276      D86A8D42 
 276      5BA74CFB 
 277 0057 A0763CE7 		.ascii	"\240v<\347\3367\323\367\2406L\362\356\327;\377\337\275"
 277      DE37D3F7 
 277      A0364CF2 
 277      EED73BFF 
 277      DFBD
 278 0069 E7DC73DE 		.ascii	"\347\334s\336(\354\311\337\233\370\244\\\262\007\235"
 278      28ECC9DF 
 278      9BF8A45C 
 278      B2079D
 279 0078 01FF6C80 		.ascii	"\001\377l\200\261j7\347J\302\317\014\217\332S\312\014"
 279      B16A37E7 
 279      4AC2CF0C 
 279      8FDA53CA 
 279      0C
 280 0089 9F029A5C 		.ascii	"\237\002\232\\V\263\003\015\200\006\014\330v\256\250"
 280      56B3030D 
 280      80060CD8 
 280      76AEA8
 281 0098 1A6C873F 		.ascii	"\032l\207?\371\024\207\276\273\263)\337879\313g8m\030"
 281      F91487BE 
 281      BBB329DF 
 281      383739CB 
 281      67386D18 
 282 00ac 1A9B5668 		.ascii	"\032\233Vh\012\234\246\335\251\201\273\372\252#\206"
 282      0A9CA6DD 
 282      A981BBFA 
 282      AA2386
 283 00bb 119CFC27 		.ascii	"\021\234\374'Y\261\277\376\020\230\234\263\024g\360"
 283      59B1BFFE 
 283      10989CB3 
 283      1467F0
 284 00ca 3504E01B 		.ascii	"5\004\340\033\010\020\260\031V\221\355\271\303\367\233"
 284      0810B019 
 284      5691EDB9 
 284      C3F79B
 285 00d9 DC4A09D0 		.ascii	"\334J\011\320\370B*8\355/9\214\272\333;'.{\215\375F"
 285      F8422A38 
 285      ED2F398C 
 285      BADB3B27 
 285      2E7B8DFD 
 286 00ee E8762653 		.ascii	"\350v&Slr\005\216\201B\372\027\003\360|\300\362\010"
 286      6C72058E 
 286      8142FA17 
 286      03F07CC0 
 286      F208
 287 0100 05F752DD 		.ascii	"\005\367R\335\315\\yA\210G\016\230uyB|h\327\204f\223"
 287      CD5C7941 
 287      88470E98 
ARM GAS  C:\Users\Luggi\AppData\Local\Temp\ccnzdqOk.s 			page 22


 287      7579427C 
 287      68D78466 
 288 0115 B62C2A7D 		.ascii	"\266,*}\364\351\037\177\371\225\227\205\264\351\253"
 288      F4E91F7F 
 288      F9959785 
 288      B4E9AB
 289 0124 64EF3229 		.ascii	"d\3572)\375\304!m[Tz\247\357\213\203.e\255\220\266\236"
 289      FDC4216D 
 289      5B547AA7 
 289      EF8B832E 
 289      65AD90B6 
 290 0139 BE6378A4 		.ascii	"\276cx\244t\267C\032]T:\025\372w\310\253\207\014\303"
 290      74B7431A 
 290      5D543A15 
 290      FA77C8AB 
 290      870CC3
 291 014c C8876FA1 		.ascii	"\310\207o\241\004Z\361i\307\247\003J(>\030\226\343\240"
 291      045AF169 
 291      C7A7034A 
 291      283E1896 
 291      E3A0
 292 015e 0363EAE3 		.ascii	"\003c\352\343o\333\237\215\031\231\314\211K\237\217"
 292      6FDB9F8D 
 292      1999CC89 
 292      4B9F8F
 293 016d BFE52A56 		.ascii	"\277\345*V\030\275V\031\031h\214L\334\314\344\252\207"
 293      18BD5619 
 293      19688C4C 
 293      DCCCE4AA 
 293      87
 294 017e 91A59786 		.ascii	"\221\245\227\206>j\362\251YNM\0015\001l\264\025\324"
 294      3E6AF2A9 
 294      594E4D01 
 294      35016CB4 
 294      15D4
 295 0190 ACA46921 		.ascii	"\254\244i!\215\212\030\335\014\033\305\207\256y\014"
 295      8D8A18DD 
 295      0C1BC587 
 295      AE790C
 296 019f 27D82B37 		.ascii	"'\330+7!\236\3365?\273\226N3\303\025<xt\337\264\271"
 296      219EDE35 
 296      3FBB964E 
 296      33C3153C 
 296      7874DFB4 
 297 01b4 8C6E581F 		.ascii	"\214nX\037\356\2546T\362%9ze\320-\226\204k\307z\307"
 297      EEAC3654 
 297      F225397A 
 297      65D02D96 
 297      846BC77A 
 298 01c9 2A2270B0 		.ascii	"*\"p\260:T\035+2\271\013N\340U\237\244\253\206N\210"
 298      3A541D2B 
 298      32B90B4E 
 298      E0559FA4 
 298      AB864E88 
 299 01dd 00BB0141 		.ascii	"\000\273\001A\343\015\341\035\036\035\231L\354\021\377"
 299      E30DE11D 
 299      1E1D994C 
ARM GAS  C:\Users\Luggi\AppData\Local\Temp\ccnzdqOk.s 			page 23


 299      EC11FF
 300 01ec 486EA122 		.ascii	"Hn\241\"\240\276y\307\234\344\335\314nq\264\1772\252"
 300      A0BE79C7 
 300      9CE4DDCC 
 300      6E71B47F 
 300      32AA
 301 01fe DAA1A772 		.ascii	"\332\241\247r\320.'\264\225\240\252\204\366ZP\015\011"
 301      D02E27B4 
 301      95A0AA84 
 301      F65A500D 
 301      09
 302 020f F38DC660 		.ascii	"\363\215\306`\236\200\376\232\20565\326\237\321\355"
 302      9E80FE9A 
 302      853635D6 
 302      9FD1ED
 303 021e D0EF72D0 		.ascii	"\320\357r\320\323Nh;A5\202NF\007\3524Zs:\2529\035\375"
 303      D34E683B 
 303      4135824E 
 303      4607EA34 
 303      5A733AAA 
 304 0235 1EE5F6C0 		.ascii	"\036\345\366\300`\271A7\276!\300\344\002\300\356\225"
 304      60B94137 
 304      BE21C0E4 
 304      02C0EE95 
 305 0245 E6F4EA0C 		.ascii	"\346\364\352\014\022,I\315lm\332\\'=qKg\032\032\367"
 305      122C49CD 
 305      6C6DDA5C 
 305      273D714B 
 305      671A1AF7 
 306 0259 8655014E 		.ascii	"\206U\001N\003\203\263\222\034\006\013k\367Ks\372u\016"
 306      0383B392 
 306      1C060B6B 
 306      F74B73FA 
 306      750E
 307 026b B14891E1 		.ascii	"\261H\221\341\371\375\341k\222\352A\321\320\374\201"
 307      F9FDE16B 
 307      92EA41D1 
 307      D0FC81
 308 027a 1651C8FA 		.ascii	"\026Q\310\372\305\250\025\237\235\351L\220[\234B\342"
 308      C5A8159F 
 308      9DE94C90 
 308      5B9C42E2 
 309 028a 9CCF7162 		.ascii	"\234\317qb\331\370\274.\342\323A\361\361H\352\375\207"
 309      D9F8BC2E 
 309      E2D341F1 
 309      F148EAFD 
 309      87
 310 029b A592EA75 		.ascii	"\245\222\352u \300\011\270@\000\364mZ\227\306>i\237"
 310      20C009B8 
 310      4000F46D 
 310      5A97C63E 
 310      699F
 311 02ad 9C49C65D 		.ascii	"\234I\306]t\012u5\203\370c~\375/\354\242\360\312'\303"
 311      740A7535 
 311      83F8637E 
 311      FD2FECA2 
 311      F0CA27C3 
ARM GAS  C:\Users\Luggi\AppData\Local\Temp\ccnzdqOk.s 			page 24


 312 02c1 9B4C64C3 		.ascii	"\233Ld\303\333\331\032\253\365\012\227N\355\266\\\212"
 312      DBD91AAB 
 312      F50A974E 
 312      EDB65C8A 
 313 02d1 EC88FEE6 		.ascii	"\354\210\376\346\267\\* \310\245\034\344\207\205\210"
 313      B75C2A20 
 313      C8A51CE4 
 313      878588
 314 02e0 E32D8FE6 		.ascii	"\343-\217\346(W\207\343Gd6ve)\231{g'\236\261S.\347("
 314      285787E3 
 314      47643676 
 314      6529997B 
 314      67279EB1 
 315 02f8 091B0523 		.ascii	"\011\033\005#<gE8\177\251\343\377h\305b\266\366o.\315"
 315      3C674538 
 315      7FA9E3FF 
 315      68C562B6 
 315      F66F2ECD 
 316 030c 974BC59E 		.ascii	"\227K\305\236\266\246\224_D\003\013\275\007m\257Ch\270"
 316      B6A6945F 
 316      44030BBD 
 316      076DAF43 
 316      68B8
 317 031e E63DCB06 		.ascii	"\346=\313\006\015\022\221\361\343\"\017TL\203^\220\337"
 317      0D1291F1 
 317      E3220F54 
 317      4C835E90 
 317      DF
 318 032f 9731ACA9 		.ascii	"\2271\254\251\204_\271\005\241X$\351#c:\363\227\327"
 318      845FB905 
 318      A15824E9 
 318      23633AF3 
 318      97D7
 319 0341 F6B4F16D 		.ascii	"\366\264\361m\217\214\217\015\267\311\335)\216\337\026"
 319      8F8C8F0D 
 319      B7C9DD29 
 319      8EDF16
 320 0350 E8836D8E 		.ascii	"\350\203m\216\372Up\255\037\002&\317\023\030\225\365"
 320      FA5570AD 
 320      1F0226CF 
 320      131895F5 
 321 0360 940ACCC9 		.ascii	"\224\012\314\311\342\245(?I\312`\303\321\032qX\005\317"
 321      E2A5283F 
 321      49CA60C3 
 321      D11A7158 
 321      05CF
 322 0372 32202924 		.ascii	"2 )$\356J\302R\352+\250\266o\252e\277;\341\251\211\031"
 322      EE4AC252 
 322      EA2BA8B6 
 322      6FAA65BF 
 322      3BE1A989 
 323 0387 E5899BB7 		.ascii	"\345\211\233\2672z!xW\305\335\213\334\013w<x\212\332"
 323      327A2178 
 323      57C5DD8B 
 323      DC0B773C 
 323      788ADA
 324 039a 1C1402F1 		.ascii	"\034\024\002\361\331\011O=x\232Z\374Y(T\271E:\247X\242"
ARM GAS  C:\Users\Luggi\AppData\Local\Temp\ccnzdqOk.s 			page 25


 324      D9094F3D 
 324      789A5AFC 
 324      592854B9 
 324      453AA758 
 325 03af CCAE0985 		.ascii	"\314\256\011\205f\025D\246\036\344\225\0258r\007\234"
 325      661544A6 
 325      1EE49515 
 325      3872079C 
 326 03bf 99F38BCC 		.ascii	"\231\363\213\314\202\340H]\277\225\005\001TP^\334\262"
 326      82E0485D 
 326      BF950501 
 326      54505EDC 
 326      B2
 327 03d0 6A64052E 		.ascii	"jd\005.\321\276{\367\265h\024h\315\315\340z6\325\346"
 327      D1BE7BF7 
 327      B5681468 
 327      CDCDE07A 
 327      36D5E6
 328 03e3 2CA3958E 		.ascii	",\243\225\216,\007g\216\337X\330\303:R!*\354uX$\266"
 328      2C07678E 
 328      DF58D8C3 
 328      3A52212A 
 328      EC755824 
 329 03f8 29642360 		.ascii	")d#`\031\0241\372W\000\272\025\374ox\356\355\312\017"
 329      191431FA 
 329      5700BA15 
 329      FC6F78EE 
 329      EDCA0F
 330 040b 2AB7546C 		.ascii	"*\267Tl\255|\177Cy\325\207[6V\256_W^U\366\352\372\262"
 330      AD7C7F43 
 330      79D5875B 
 330      3656AE5F 
 330      575E55F6 
 331 0422 AA4D9B37 		.ascii	"\252M\2337\254yi#\323\267n\332\\\376\356j\331\255\221"
 331      AC796923 
 331      D3B76EDA 
 331      5CFEEE6A 
 331      D9AD91
 332 0435 DD2B1A76 		.ascii	"\335+\032ve\357\374\007\262\232\337n"
 332      65EFFC07 
 332      B29ADF6E 
 333              		.text
 334              		.section	.gnu.lto_Comp_2_LoadTrim.304b31a2,"",%progbits
 335 0000 789C6591 		.ascii	"x\234e\221O(lq\024\307\317\367\3673wnF\236,\224Y)M\352"
 335      4F286C71 
 335      14C7CFF7 
 335      F733776E 
 335      469E2C94 
 336 0018 258B57F6 		.ascii	"%\213W\366\312\302V)+\205\274Y\274\302hb\355w\347\215"
 336      CAC25629 
 336      2B85BC59 
 336      BCC26862 
 336      ED77E78D 
 337 002c B16021FF 		.ascii	"\261`!\377\022\315B\350y\317\237\231G\310B\335\330("
 337      12CD42E8 
 337      79CF9F99 
 337      47C842DD 
ARM GAS  C:\Users\Luggi\AppData\Local\Temp\ccnzdqOk.s 			page 26


 337      D828
 338 003e F5DEB310 		.ascii	"\365\336\263\020YP\014\261\320{\362\212Y0\3161\021\271"
 338      59500CB1 
 338      D07BF28A 
 338      5930CE31 
 338      11B9
 339 0050 F5BBBF73 		.ascii	"\365\273\277sN\347|?\337s\257\246\367\217\237\3176\210"
 339      4EE77C3F 
 339      DF73AFA6 
 339      F78F9FCF 
 339      3688
 340 0062 3EF20D4D 		.ascii	">\362\015MP\003\277\210\034[\001\022\020\250[\241\033"
 340      5003BF88 
 340      1C5B0112 
 340      10A85BA1 
 340      1B
 341 0073 97EA5A61 		.ascii	"\227\352Za\300\235\033\363\225\315\030c\376\015\216"
 341      C09D1BF3 
 341      95CD1863 
 341      FE0D8E
 342 0082 C4B4196E 		.ascii	"\304\264\031nJ+\242\033\225\025\3027\224q\223\231\234"
 342      4A2BA21B 
 342      9515C237 
 342      94719399 
 342      9C
 343 0093 4AE4EA52 		.ascii	"J\344\352R\020\307;'w7y\027*\255P \351\370\376\331\177"
 343      10C73B27 
 343      77377917 
 343      2AAD5020 
 343      E9F8FED9 
 344 00a8 2DA95292 		.ascii	"-\251R\222\316\256'\313\003S\306D\334\215\244\251\342"
 344      CEAE27CB 
 344      0353C644 
 344      DC8DA4A9 
 344      E2
 345 00b9 B2C62C34 		.ascii	"\262\306,4\313\341;\374\370\001?q\2110\207\200t_G\357"
 345      CBE13BFC 
 345      F8013F71 
 345      89308780 
 345      745F47EF 
 346 00cd F77D5694 		.ascii	"\367}V\224\341\005Y$\346a\261oJ\024\272&\223Y\336\033"
 346      E1055924 
 346      E661B16F 
 346      4A14BA26 
 346      9359DE1B 
 347 00e1 8B04FAB5 		.ascii	"\213\004\372\265\015\310\200\342\321\034\017\277<\226"
 347      0DC880E2 
 347      D11C0FBF 
 347      3C96
 348 00ef 4444299E 		.ascii	"DD)\236\220}\316\030\315\267>D\344\240\367\274o\313"
 348      907DCE18 
 348      CDB73E44 
 348      E4A0F7BC 
 348      6FCB
 349 0101 272AB74A 		.ascii	"'*\267J\335*\320!6\007'\213\244\300\270\225\0057\346"
 349      DD2AD021 
 349      3607278B 
ARM GAS  C:\Users\Luggi\AppData\Local\Temp\ccnzdqOk.s 			page 27


 349      A4C0B895 
 349      0537E6
 350 0114 13AFD66A 		.ascii	"\023\257\326j\277cr\304\301q\352\367\256\375T\"I\343"
 350      BF6372C4 
 350      C171EAF7 
 350      AEFD5422 
 350      49E3
 351 0126 3DC9D30F 		.ascii	"=\311\323\017qL8Q\307-N+/\026\330\365\"\273&$\020\007"
 351      714C3851 
 351      C72D4E2B 
 351      2F16D8F5 
 351      22BB2624 
 352 013c 8BB2E2D7 		.ascii	"\213\262\342\327\243\330\303\013\305\303\024\036\234"
 352      A3D8C30B 
 352      C5C3141E 
 352      9C
 353 0149 1E199DF7 		.ascii	"\036\031\235\367\210\216m\023\222< f\274\331\026\351"
 353      888E6D13 
 353      923C2066 
 353      BCD916E9 
 354 0159 7A6BE4CF 		.ascii	"zk\344\317\301\346L\226\272\366l$s\265\3617\3775\371"
 354      C1E64C96 
 354      BAF66C24 
 354      73B5F137 
 354      FF35F9
 355 016c E70B79E9 		.ascii	"\347\013y\351\211l\321\021\034w\350\324\026\015\371"
 355      896CD111 
 355      1C77E8D4 
 355      160DF9
 356 017b 37295E8F 		.ascii	"7)^\217\327\346\217PR\023l\017\206\233;\203\237\033"
 356      D7E68F50 
 356      52136C0F 
 356      869B3B83 
 356      9F1B
 357 018d EB425DE1 		.ascii	"\353B]\341\226`Cm]\250\272\262\241:\324\326\321\370"
 357      9660436D 
 357      5DA8BAB2 
 357      A13AD4D6 
 357      D1F8
 358 019f A9A285BC 		.ascii	"\251\242\205\274\235\341/m\365\315\255\217\025\023\257"
 358      9DE12F6D 
 358      F5CDAD8F 
 358      1513AF
 359 01ae E8       		.ascii	"\350"
 360              		.text
 361              		.section	.gnu.lto_Comp_2_PwrDwnOverrideEnable.304b31a2,"",%progbits
 362 0000 789C6366 		.ascii	"x\234cf\300\004R@\254\311\310\300\240\004\244\031\231"
 362      C0045240 
 362      ACC9C8C0 
 362      A004A419 
 362      99
 363 0011 19189926 		.ascii	"\031\030\231&\234c`h\344`bd\0041\030\030\031\352\231"
 363      9C636068 
 363      E4606264 
 363      04311818 
 363      19EA99
 364 0024 18EB195F 		.ascii	"\030\353\031_2}db\234p`\365\014n\365\245\015\015\015"
ARM GAS  C:\Users\Luggi\AppData\Local\Temp\ccnzdqOk.s 			page 28


 364      327D6462 
 364      9C7060F5 
 364      0C6EF5A5 
 364      0D0D0D
 365 0037 1F2ECD6D 		.ascii	"\037.\315m\343m\230\222\360\223\211\201\3413\023\304"
 365      E36D9892 
 365      F0938981 
 365      E13313C4 
 366 0047 20C6E58C 		.ascii	" \306\345\214\352\014@U\037[\376^\347fk\001\252\022"
 366      EA0C4055 
 366      1F5BFE5E 
 366      E7666B01 
 366      AA12
 367 0059 80C831AE 		.ascii	"\200\3101\256`d\003Z\300\260^\350@\303\377\377\233\277"
 367      6064035A 
 367      C0B05EE8 
 367      40C3FFFF 
 367      9BBF
 368 006b CFE852ED 		.ascii	"\317\350R\355gfeb\370\311\004\264\017H00<\001*\003\331"
 368      67666562 
 368      F8C904B4 
 368      0F483030 
 368      3C012A03 
 369 0080 F6948909 		.ascii	"\366\224\211\011D3\337b<\364\255\353X\377c.\220\326"
 369      4433DF62 
 369      3CF4ADEB 
 369      58FF632E 
 369      90D6
 370 0092 EF4C20BB 		.ascii	"\357L \273\257\377\233\271\206\347\005\323O&\246\303"
 370      AFFF9BB9 
 370      86E705D3 
 370      4F26A6C3 
 371 00a2 1B1A1B58 		.ascii	"\033\032\033X@\026\335\177r\376\"\007X\210\001\304\355"
 371      4016DD7F 
 371      72FE2207 
 371      588801C4 
 371      ED
 372 00b3 FCF6BF89 		.ascii	"\374\366\277\211i.\343\354\306\026\306\237L\314\214"
 372      692EE3EC 
 372      C616C69F 
 372      4CCC8C
 373 00c2 2B19A518 		.ascii	"+\031\245\030W1\002}\307\270\232q.#\303-\306\346/l\020"
 373      5731027D 
 373      C7B89A71 
 373      2E23C32D 
 373      C6E62F6C 
 374 00d7 E3982126 		.ascii	"\343\230!&\356\232tb\006\033H;#\013\003\343\032\240"
 374      EE9A7462 
 374      061B483B 
 374      230B03E3 
 374      1AA0
 375 00e9 4AA0AD93 		.ascii	"J\240\255\223\030AJ\360\031\266\026h\030\320\010\206"
 375      18414AF0 
 375      19B61668 
 375      18D00886 
 376 00f9 7B8C8D07 		.ascii	"{\214\215\007>?\326\000)\007y\376\011\320\033@\227\003"
 376      3E3FD600 
ARM GAS  C:\Users\Luggi\AppData\Local\Temp\ccnzdqOk.s 			page 29


 376      290779FE 
 376      09D01B40 
 376      9703
 377 010b 5DA2E09E 		.ascii	"]\242\340\236\232\227Z\224X\222\232\022\037\234_Z\224"
 377      9A975A94 
 377      58929A12 
 377      1F9C5F5A 
 377      94
 378 011c 9C1A1310 		.ascii	"\234\032\023\020\234\357l\032\343\234\237[\020o\244"
 378      9CEF6C1A 
 378      E39C9F5B 
 378      106FA4
 379 012b 97CC0000 		.ascii	"\227\314\000\000l\327t]"
 379      6CD7745D 
 380              		.text
 381              		.section	.gnu.lto_Comp_2_PwrDwnOverrideDisable.304b31a2,"",%progbits
 382 0000 789C7D8F 		.ascii	"x\234}\217\275K\003A\020\305\347\315j\010\306\200X\246"
 382      BD4B0341 
 382      10C5E7CD 
 382      6A08C680 
 382      58A6
 383 0012 129B8885 		.ascii	"\022\233\210\205\205`i\225\302VH\033\210\022\257\324"
 383      85606995 
 383      C256481B 
 383      8812AFD4 
 384 0022 93A075EE 		.ascii	"\223\240u\356\364\020L\025\304\302CRJ\324D\024\363\007"
 384      F4104C15 
 384      C4C24352 
 384      4AD44414 
 384      F307
 385 0034 1815DB88 		.ascii	"\030\025\333\210U \205\026\236_\235A8=D\317Y\257\024"
 385      55208516 
 385      9E5F9D41 
 385      383D44CF 
 385      59AF14
 386 0047 5CD89DDD 		.ascii	"\\\330\235\335\2357\2777\243\350\357J\311\036\007\321"
 386      9D37BF37 
 386      A3E8EF4A 
 386      C91E07D1 
 387 0057 A8442802 		.ascii	"\250D(\002W\332Dv\234\001}!P\211Q\302\013\367\030\225"
 387      57DA4476 
 387      9C017D21 
 387      508951C2 
 387      0BF71895 
 388 006b 567D2791 		.ascii	"V}'\221\336\263,\353\365\264\271\221\264\266\347\002"
 388      DEB32CEB 
 388      F5B4B991 
 388      B4B6E702 
 389 007b 267AE308 		.ascii	"&z\343\010\204\032\322$\252\236\363\325I\304\034Q\015"
 389      841AD224 
 389      AA9EF3D5 
 389      49C41C51 
 389      0D
 390 008c 4539EC23 		.ascii	"E9\354#&\006t<\334\262\302\260\331v\313\323\256\352"
 390      2606743C 
 390      DCB2C2B0 
 390      D976CBD3 
ARM GAS  C:\Users\Luggi\AppData\Local\Temp\ccnzdqOk.s 			page 30


 390      AEEA
 391 009e 670A58FC 		.ascii	"g\012X\374\344 \362D\246\335\036\230uT]\\\370e\337\275"
 391      E420F244 
 391      A6DD1E98 
 391      75545D5C 
 391      F865DFBD 
 392 00b2 1FD0A5EF 		.ascii	"\037\320\245\357\254\275;\337nc\360\231\003\346\313"
 392      ACBD3BDF 
 392      6E63F099 
 392      03E6CB
 393 00c1 13DBEAD3 		.ascii	"\023\333\352\323Fw\336\365M\374\367\213\364s\323\017"
 393      4677DEF5 
 393      4DFCF78B 
 393      F473D30F 
 394 00d1 D7B88A5D 		.ascii	"\327\270\212]\333A\300\012\007H\341\0202\035\352\250"
 394      DB41C00A 
 394      0748E110 
 394      321DEAA8 
 395 00e1 82BA58FF 		.ascii	"\202\272X\377\210E8\025\021kWO\347I]\256>Ah\210Tl\267"
 395      88453815 
 395      116B574F 
 395      E7495DAE 
 395      3E416888 
 396 00f8 A035FFD1 		.ascii	"\2405\377\321\216\204&\014\272\205\335:{\034\323r=\275"
 396      8E84260C 
 396      BA85DD3A 
 396      7B1CD372 
 396      3DBD
 397 010a 277348EB 		.ascii	"'sH\353\322\312\310\214\261d\024\347W\214\205|\326\\"
 397      D2CAC88C 
 397      B16414E7 
 397      578C857C 
 397      D65C
 398 011c 2D168CDC 		.ascii	"-\026\214\334l\326\314L\3452\346\342r~r\242@?wSu\304"
 398      6CD6CC4C 
 398      E532E6E2 
 398      727E72A2 
 398      403F7753 
 399              		.text
 400              		.section	.gnu.lto_.symbol_nodes.304b31a2,"",%progbits
 401 0000 789C55CA 		.ascii	"x\234U\312;\012\302P\020\205\34133\367&7\217%\270\014"
 401      3B0AC250 
 401      1085E133 
 401      33F72637 
 401      8F25B80C 
 402 0014 F777520A 		.ascii	"\367wR\012\202\330h\035\203Kp\0056\026Bz;\015\3422\304"
 402      82D8681D 
 402      834B7005 
 402      3616427A 
 402      3B0DE232 
 403 0029 842064A6 		.ascii	"\204 d\246\371\371\016c\000D0\237\346\004\366=@\342"
 403      F9F90E63 
 403      0044309F 
 403      E604F63D 
 403      40E2
 404 003b D06E6AA8 		.ascii	"\320nj\250R\376\303\261M\320@u\2164gap6\306\245#pRB"
 404      52FEC3B1 
ARM GAS  C:\Users\Luggi\AppData\Local\Temp\ccnzdqOk.s 			page 31


 404      4DD04075 
 404      8E346761 
 404      7036C6A5 
 405 0053 3366EE2D 		.ascii	"3f\356-1w.\230\234K\026\316\025\313\245\245f5\033M\223"
 405      31772E98 
 405      9C4B16CE 
 405      15CBA5A5 
 405      66351B4D 
 406 0068 60A871DE 		.ascii	"`\250q\336}\036\321\202\241{~\305b\300pY[\024t\257\221"
 406      7D1ED182 
 406      A17B7EC5 
 406      62C07059 
 406      5B1474AF 
 407 007d 09E8EE37 		.ascii	"\011\350\3567\233z\335\276WS\207\261\370\001(\210C\331"
 407      9B7ADDBE 
 407      575387B1 
 407      F8012888 
 407      43D9
 408              		.text
 409              		.section	.gnu.lto_.refs.304b31a2,"",%progbits
 410 0000 789C6366 		.ascii	"x\234cf``\340d\200\000&V\0066FF6\026\006\000\001n\000"
 410      6060E064 
 410      80002656 
 410      06364646 
 410      36160600 
 411 0017 26       		.ascii	"&"
 412              		.text
 413              		.section	.gnu.lto_.decls.304b31a2,"",%progbits
 414 0000 789C8555 		.ascii	"x\234\205UkLTG\024\236\331Y\036\273,`\377`Cm\304\230"
 414      6B4C5447 
 414      149ED959 
 414      1EBB2C60 
 414      FF60436D 
 415 0016 983631A6 		.ascii	"\23061\2465i\343\277\332`\243mLKB\355\217jjV\271\251"
 415      3569E3BF 
 415      DA60A36D 
 415      4C4B42ED 
 415      8F6A6A56 
 416 002c 5805B2AC 		.ascii	"X\005\262\2545\374\352\024P\021\252\245Z\013\342\243"
 416      35FCEA14 
 416      5011AAA5 
 416      5A0BE2A3 
 417 003c D0AA55D4 		.ascii	"\320\252U\324e\005\025\027\020\026\220\207\274\301\025"
 417      65051517 
 417      10169087 
 417      BCC115
 418 004b 5CF0B10B 		.ascii	"\\\360\261\013\330\332Z\233\365Q\305\256z{f\346^\366"
 418      D8DA5A9B 
 418      F551C5AE 
 418      7A7B66E6 
 418      5EF6
 419 005d 2E5DCA4D 		.ascii	".]\312M\016\334\231{\276\3079s\030\010Bh\016AH\206'"
 419      0EDC997B 
 419      BEC73973 
 419      18084268 
 419      0E414886 
 420 0072 2A12A155 		.ascii	"*\022\241U\030!\023\354%A\3006\212\203\260AT\"\361\260"
ARM GAS  C:\Users\Luggi\AppData\Local\Temp\ccnzdqOk.s 			page 32


 420      182113EC 
 420      2541C036 
 420      8A83B041 
 420      5422F1B0 
 421 0086 6F0E883A 		.ascii	"o\016\210:\210z\010'D\023\304%\2106\210\016\210\036"
 421      887A0827 
 421      4413C425 
 421      8836880E 
 421      881E
 422 0098 883E8801 		.ascii	"\210>\210\001\010\027\004P\242!\024\3740\016\203\242"
 422      08170450 
 422      A22114FC 
 422      300E83A2 
 423 00a8 53A9E8AC 		.ascii	"S\251\350\254\200\270\0161\014qC\321\355R\362u\012\306"
 423      80B80E31 
 423      0C7143D1 
 423      ED52F275 
 423      0AC6
 424 00ba 85FEFB30 		.ascii	"\205\376\3730/z\205+N\303\201\024\355\272\020\230\372"
 424      2F7A852B 
 424      4EC38114 
 424      EDBA1098 
 424      FA
 425 00cb 1930F521 		.ascii	"\0310\365!0\254\326\310)\236=\032\354(\204W\303\341"
 425      30ACD6C8 
 425      299E3D1A 
 425      EC288457 
 425      C3E1
 426 00dd 0CC1C17A 		.ascii	"\014\301\301z\025\241\321\035S\270\252\247x\320)\271"
 426      15A1D11D 
 426      53B8AAA7 
 426      78D029B9 
 427 00ed A13858AF 		.ascii	"\2418X\257\3035\034\343\012\307m\210\032%\207(yMJ\375"
 427      C3351CE3 
 427      0AC76D88 
 427      1A258728 
 427      794D4AFD 
 428 0101 A1CEA04D 		.ascii	"\241\316\240M\351\201Z\313\324\036\264\205\320f\347"
 428      E9815ACB 
 428      D41EB485 
 428      D066E7
 429 0110 6B848841 		.ascii	"k\204\210Ab\026l\032|\202\206cL\251I\255\205\341\034"
 429      62166C1A 
 429      7C828663 
 429      4CA949AD 
 429      85E11C
 430 0123 21F8D8AC 		.ascii	"!\370\330\254\250s\240\345\234\312\367\201\306WO\010"
 430      A873A0E5 
 430      9CCAF781 
 430      C6574F08 
 431 0133 9E3EF4FF 		.ascii	"\236>\364\377\347\331\027\00230\003f \004\346\276\016"
 431      E7D91702 
 431      33300366 
 431      2004E6BE 
 431      0E
 432 0144 778E4E3C 		.ascii	"w\216N<4\335\321\341\030\343,\266,\031\272\375\210\300"
 432      34DDD1E1 
ARM GAS  C:\Users\Luggi\AppData\Local\Temp\ccnzdqOk.s 			page 33


 432      18E32CB6 
 432      2C19BAFD 
 432      88C0
 433 0156 D264D4B1 		.ascii	"\322d\324\261\345\241\007\177\325\031\210\016\263\367"
 433      E5A1077F 
 433      D519880E 
 433      B3F7
 434 0164 9F8BBD2E 		.ascii	"\237\213\275.\343\302rJi\036u\266\343\000\305\327\307"
 434      E3C2724A 
 434      691E75B6 
 434      E300C5D7 
 434      C7
 435 0175 6ABF8900 		.ascii	"j\277\211\000L\202\221/\213\356N\234\215\344KY&\260"
 435      4C82912F 
 435      8BEE4E9C 
 435      8DE44B59 
 435      26B0
 436 0187 A13BD6F7 		.ascii	"\241;\326\367\244$\006/0\036\001\250\357\370\340\360"
 436      A424062F 
 436      301E01A8 
 436      EFF8E0F0 
 437 0197 1C4AF5D8 		.ascii	"\034J\365\330\206\215\370\004&\270\034/d\006\031\226"
 437      868DF804 
 437      26B81C2F 
 437      64061996 
 438 01a7 3D799466 		.ascii	"=y\224fS\232C\303^C\370\027\034\217\217\343x\204O\343"
 438      539A43C3 
 438      5E43F817 
 438      1C8F8FE3 
 438      78844FE3 
 439 01bb 0590C053 		.ascii	"\005\220\300S\361I\330<\3056\201\000\304\006\033v\354"
 439      F149D83C 
 439      C5368100 
 439      C4061B76 
 439      EC
 440 01cc 88248BB1 		.ascii	"\210$\213\261\326G\234\360\261\273\263\244\221\360\245"
 440      D6479CF0 
 440      B1BBB3A4 
 440      91F0A5
 441 01db CC3EEBDC 		.ascii	"\314>\353\334\356\357\237\022l\\\300%|{(y\031\341\205"
 441      EEEF9F12 
 441      6C5CC025 
 441      7C7B2879 
 441      19E185
 442 01ee F1F875E0 		.ascii	"\361\370u\340\252\002\2018E\300\016\002g@\200\271--"
 442      AA028138 
 442      45C00E02 
 442      674080B9 
 442      2D2D
 443 0200 8FC6B812 		.ascii	"\217\306\270\022\234V\004\234\306)N\331>\2508l\217\272"
 443      9C56049C 
 443      C6294ED9 
 443      3EA8386C 
 443      8FBA
 444 0212 A378FF12 		.ascii	"\243x\377\022\230h\315\236\366\342p\336?=[\026nk,\324"
 444      9868CD9E 
 444      F6E270DE 
ARM GAS  C:\Users\Luggi\AppData\Local\Temp\ccnzdqOk.s 			page 34


 444      3F3D5B16 
 444      6E6B2CD4 
 445 0226 EB75221B 		.ascii	"\353u\"\033\257\346{\177\313\336\243\272\331\373\200"
 445      AFE67B7F 
 445      CBDEA3BA 
 445      D9FB80
 446 0235 9E16E6D0 		.ascii	"\236\026\346\320Yz\234\024\207\317\202\3509\020E\270"
 446      597A9C14 
 446      87CF82E8 
 446      391045B8 
 447 0245 1ACF869F 		.ascii	"\032\317\206\237\347\261^\364\266}\273\273 \232,\341"
 447      E7B15EF4 
 447      B67DBBBB 
 447      209A2CE1 
 448 0255 F5EDAC3A 		.ascii	"\365\355\254:\375<*\3410u\332}%\315\266\215\337\345"
 448      FD3C2AE1 
 448      3075DA7D 
 448      25CDB68D 
 448      DFE5
 449 0267 D023D423 		.ascii	"\320#\324#\313s9\010_\230\264\210\330\273\360\350\300"
 449      CB733908 
 449      5F98B488 
 449      D8BBF0E8 
 449      C0
 450 0278 0900ACF5 		.ascii	"\011\000\254\365\217\272\364\323*\326p\305\325\212\340"
 450      8FBAF4D3 
 450      2AD670C5 
 450      D58AE0
 451 0287 83F37BBB 		.ascii	"\203\363{\273b\311\027\\\360\361\037\277n\013\007A\217"
 451      62C9175C 
 451      F0F11FBF 
 451      6E0B0741 
 451      8F
 452 0298 DDD3D92C 		.ascii	"\335\323\331,9s\3513v\242\014\200k5j\265\252Z\035W\253"
 452      3973E933 
 452      76A20C80 
 452      6B356AB5 
 452      AA5A1D57 
 453 02ad A78DF7F5 		.ascii	"\247\215\367\365$\2133T\354m}\025\010J\355\245\335G"
 453      248B3354 
 453      EC6D7D15 
 453      084AEDA5 
 453      DD47
 454 02bf C3DBA953 		.ascii	"\303\333\251S\226\337\341\360\213\032\370E\025^\317"
 454      96DFE1F0 
 454      8B1AF845 
 454      155ECF
 455 02ce E1A75AFF 		.ascii	"\341\247Z\377\251\212&\3330\307?,\254t\033\270\203\322"
 455      A98A26DB 
 455      30C73F2C 
 455      AC741BB8 
 455      83D2
 456 02e0 5DBFA804 		.ascii	"]\277\250\004\254\332\006\015A\203J\340\344\004\364"
 456      ACDA060D 
 456      41834AE0 
 456      E404F4
 457 02ef E9939A58 		.ascii	"\351\223\232X\262O\020\344v\271\313c\004\301\335J\272"
ARM GAS  C:\Users\Luggi\AppData\Local\Temp\ccnzdqOk.s 			page 35


 457      B24F10E4 
 457      76B9CB63 
 457      04C1DD4A 
 457      BA
 458 0300 5494C02D 		.ascii	"T\224\300-4j\030\032U\206&\316P\335|m\234\2202\3010"
 458      346A181A 
 458      558626CE 
 458      50DD7C6D 
 458      9C9032C1 
 459 0315 7CE8C250 		.ascii	"|\350\302P\204\250\2418\250\206f\015A\263Jp\211\023"
 459      84A8A138 
 459      A886660D 
 459      41B34A70 
 459      8913
 460 0327 ECCCB513 		.ascii	"\354\314\265\023m\277\331\341\007\032\336\022\324\360"
 460      6DBFD9E1 
 460      071ADE12 
 460      D4F0
 461 0335 5E57C581 		.ascii	"^W\305\201\010b\023b\247\344\261\002\003\027\363\370"
 461      08621362 
 461      A7E4B102 
 461      0317F3F8 
 462 0345 7F0B741C 		.ascii	"\177\013t\034\020\270U#\327\252\312\265q9\377\350\025"
 462      10B85523 
 462      D7AACAB5 
 462      7139FFE8 
 462      15
 463 0356 47D044D9 		.ascii	"G\320D\331\202\364\332\203\364\212\252\253\362b\210"
 463      82F4DA83 
 463      F48AAAAB 
 463      F26288
 464 0365 53E8D515 		.ascii	"S\350\325\025<\313\027\305y\344]\255&*\312\343\020|"
 464      3CCB17C5 
 464      79E45DAD 
 464      262ACAE3 
 464      107C
 465 0377 59237859 		.ascii	"Y#xY\025\354\340\202?\266\375y5\226\217\265mr\254\355"
 465      15ECE082 
 465      3FB6FD79 
 465      35968FB5 
 465      6D72ACED 
 466 038b 0DB696A8 		.ascii	"\015\266\226\250i\207\254\213{\350T\307z\367p\273\333"
 466      6987AC8B 
 466      7BE854C7 
 466      7AF770BB 
 466      DB
 467 039c 447A8589 		.ascii	"Dz\205\211\355{\274eX\2308q\346Z\300\004`p\267\306D"
 467      ED7BBC65 
 467      58983871 
 467      E65AC004 
 467      6070B7C6 
 468 03b1 B76AA287 		.ascii	"\267j\242\207\233\030t\373\216\306\220[\202\343ds\323"
 468      9B1874FB 
 468      8EC6905B 
 468      82E36473 
 468      D3
 469 03c2 6E2238EE 		.ascii	"n\"8\356\235\331\260\237\226f\323\0272\374\335\363\223"
ARM GAS  C:\Users\Luggi\AppData\Local\Temp\ccnzdqOk.s 			page 36


 469      9DD9B09F 
 469      9666D317 
 469      32FCDDF3 
 469      93
 470 03d3 EAD590F4 		.ascii	"\352\325\220\364\252$}\234\344\340`v\213\236\370\005"
 470      AA247D9C 
 470      E4E06076 
 470      8B9EF805 
 471 03e3 89FF263D 		.ascii	"\211\377&=k\022G}\240*%h\336\3735\024\375*\305\000\247"
 471      6B12477D 
 471      A02A2568 
 471      DEFB3514 
 471      FD2AC500 
 472 03f8 D8EBF594 		.ascii	"\330\353\365\224\204\221bqI>kr\264\204\261y\243\276"
 472      84916271 
 472      493E6B72 
 472      B484B179 
 472      A3BE
 473 040a 8EDFFD6F 		.ascii	"\216\337\375o\354\247e\252\021V\315\025\015\313\025"
 473      ECA765AA 
 473      1156CD15 
 473      0DCB15
 474 0419 95C5C559 		.ascii	"\225\305\305Y\012\236{\374\006\322$X^\214\330\253\331"
 474      0A9E7BFC 
 474      06D22458 
 474      5E8CD8AB 
 474      D9
 475 042a 2D0273C3 		.ascii	"-\002s\303\333u\357\372\017#x~\031-\375\311W\222\323"
 475      DB75EFFA 
 475      0F23787E 
 475      192DFDC9 
 475      5792D3
 476 043d 498A809E 		.ascii	"I\212\200\236R6\207|\262\256\012V\3452Cl\015?\007\331"
 476      5236877C 
 476      B2AE0A56 
 476      E532436C 
 476      0D3F07D9 
 477 0451 253984E7 		.ascii	"%9\204\347\263\277\210\242\202#\221\244_p\237{\234\357"
 477      B3BF88A2 
 477      822391A4 
 477      5F709F7B 
 477      9CEF
 478 0463 8836E6B1 		.ascii	"\2106\346\261Kv\346K\020\256MWO\376\240A\\\233S\021"
 478      4B76E64B 
 478      10AE4D57 
 478      4FFEA041 
 478      5C9B5311 
 479 0477 23D35C9B 		.ascii	"#\323\\\233\276\343\023c+r\351R<\014\356\256\005\256"
 479      BEE31363 
 479      2B72E952 
 479      3C0CEEAE 
 479      05AE
 480 0489 4E37364E 		.ascii	"N76N\376\323puf\217\020S>\273\213a\\\014+xn`^\256c\023"
 480      FED37075 
 480      668F1053 
 480      3EBB8B61 
 480      5C0C2B78 
ARM GAS  C:\Users\Luggi\AppData\Local\Temp\ccnzdqOk.s 			page 37


 481 04a3 6F0EFC66 		.ascii	"o\016\374fG\335\361\2407B\233\314\232\031H\276\241$"
 481      47DDF1A0 
 481      37429BCC 
 481      9A1948BE 
 481      A124
 482 04b5 DF60C9C4 		.ascii	"\337`\311\304\326\337pX\207\343\343\215\305\360\217"
 482      D6DF7058 
 482      87E3E38D 
 482      C5F08F
 483 04c4 6A622EF6 		.ascii	"jb.\366\200*{u\336\221\345\257d\361|\033\301\267\363"
 483      802A7B75 
 483      DE91E5AF 
 483      64F17C1B 
 483      C1B7F3
 484 04d7 D8B4FAB2 		.ascii	"\330\264\372\26255!\276\217\360- \277\311:\350\341\267"
 484      353521BE 
 484      8FF02D20 
 484      BFC93AE8 
 484      E1B7
 485 04e9 BCB7B0B5 		.ascii	"\274\267\260\265\316\2406-o\206\026@~\316\366\203\255"
 485      CEA0362D 
 485      6F861640 
 485      7ECEF683 
 485      AD
 486 04fa 915AC3DE 		.ascii	"\221Z\303\336\240\352F\025\303\243\274\272\303\366\341"
 486      A0EA4615 
 486      C3A3BCBA 
 486      C3F6E1
 487 0509 79DADCEA 		.ascii	"y\332\334\352\240\342\306\224\3341\236\333\357\223?"
 487      A0E2C694 
 487      DC319EDB 
 487      EF933F
 488 0518 D3E606DF 		.ascii	"\323\346\006\337,\343J\3568\317\255x\334W\036\245M\256"
 488      2CE34AEE 
 488      38CFAD78 
 488      DC571EA5 
 488      4DAE
 489 052a 0922BE8D 		.ascii	"\011\"\276\215M\352\301\300+\012\337\222\232f}\363\355"
 489      4DEAC1C0 
 489      2B0ADF92 
 489      9A667DF3 
 489      ED
 490 053b F0E51FAE 		.ascii	"\360\345\037\256JHD\363\226Ki\222\305l\225R\326&\247"
 490      4A4844F3 
 490      964B6992 
 490      C56C9552 
 490      D626A7
 491 054e 6FB1AC97 		.ascii	"o\261\254\227\326$%\247'\276\265f}\2265+C\312\\\264"
 491      D62425A7 
 491      27BEB566 
 491      7D96352B 
 491      43CA5CB4 
 492 0562 0185B1FC 		.ascii	"\001\205\261\374%/%\246o\316X\273x\255\325\222\272\371"
 492      252F25A6 
 492      6FCE58BB 
 492      78ADD592 
 492      BAF9
ARM GAS  C:\Users\Luggi\AppData\Local\Temp\ccnzdqOk.s 			page 38


 493 0574 DD948D5B 		.ascii	"\335\224\215[2\255\011\323 E\342\242\365(Z\201\274\227"
 493      32AD09D3 
 493      2045E2A2 
 493      F5285A81 
 493      BC97
 494 0586 665EB749 		.ascii	"f^\267I\212RV\311\326\364\214X\365]\262&gHR\212\372"
 494      8A5256C9 
 494      D6F48C58 
 494      F55DB226 
 494      6748528A 
 495 059b EDFDB454 		.ascii	"\355\375\264T\253i2\317l\261\252\252\313%+{3[\244\030"
 495      AB6932CF 
 495      6CB1AAAA 
 495      CB252B7B 
 495      335BA418 
 496 05af 65E753C9 		.ascii	"e\347S\311\222\236h\336\2442\255L7\247|\014\326^Q\326"
 496      929E68DE 
 496      A432AD4C 
 496      37A77C0C 
 496      D65E51D6 
 497 05c3 495B2DCB 		.ascii	"I[-\313\266\246}\364\245d\261\244\246H\302\301\234\220"
 497      B6A67DF4 
 497      A564B1A4 
 497      A648C2C1 
 497      9C90
 498 05d5 DF96A566 		.ascii	"\337\226\245f\262\217\206\304\254e\322&s\326\252\314"
 498      B28F86C4 
 498      AC65D226 
 498      73D6AACC 
 499 05e5 B9D3D595 		.ascii	"\271\323\325\225\2652u\035\364Cu\220\012f?1[\364\026"
 499      B532751D 
 499      F4437590 
 499      0A663F31 
 499      5BF416
 500 05f8 E9F325FF 		.ascii	"\351\363%\377\002\324gD\320"
 500      02D46744 
 500      D0
 501              		.text
 502              		.section	.gnu.lto_.symtab.304b31a2,"",%progbits
 503 0000 436F6D70 		.ascii	"Comp_2_Enable\000\000\000\000\000\000\000\000\000\000"
 503      5F325F45 
 503      6E61626C 
 503      65000000 
 503      00000000 
 504 0017 0000BC00 		.ascii	"\000\000\274\000\000\000Comp_2_Stop\000\000\000\000"
 504      0000436F 
 504      6D705F32 
 504      5F53746F 
 504      70000000 
 505 002c 00000000 		.ascii	"\000\000\000\000\000\000\000\000\276\000\000\000Com"
 505      00000000 
 505      BE000000 
 505      436F6D
 506 003b 705F325F 		.ascii	"p_2_SetSpeed\000\000\000\000\000\000\000\000\000\000"
 506      53657453 
 506      70656564 
 506      00000000 
ARM GAS  C:\Users\Luggi\AppData\Local\Temp\ccnzdqOk.s 			page 39


 506      00000000 
 507 0051 0000C000 		.ascii	"\000\000\300\000\000\000Comp_2_Init\000\000\000\000"
 507      0000436F 
 507      6D705F32 
 507      5F496E69 
 507      74000000 
 508 0066 00000000 		.ascii	"\000\000\000\000\000\000\000\000\302\000\000\000Com"
 508      00000000 
 508      C2000000 
 508      436F6D
 509 0075 705F325F 		.ascii	"p_2_Start\000\000\000\000\000\000\000\000\000\000\000"
 509      53746172 
 509      74000000 
 509      00000000 
 509      00000000 
 510 0089 00C40000 		.ascii	"\000\304\000\000\000Comp_2_initVar\000\000\000\000\000"
 510      00436F6D 
 510      705F325F 
 510      696E6974 
 510      56617200 
 511 00a1 00000000 		.ascii	"\000\000\000\000\000\000\000\327\000\000\000Comp_2_"
 511      000000D7 
 511      00000043 
 511      6F6D705F 
 511      325F
 512 00b3 47657443 		.ascii	"GetCompare\000\000\000\000\000\000\000\000\000\000\000"
 512      6F6D7061 
 512      72650000 
 512      00000000 
 512      00000000 
 513 00c8 00C70000 		.ascii	"\000\307\000\000\000Comp_2_ZeroCal\000\000\000\000\000"
 513      00436F6D 
 513      705F325F 
 513      5A65726F 
 513      43616C00 
 514 00e0 00000000 		.ascii	"\000\000\000\000\000\000\000\312\000\000\000Comp_2_"
 514      000000CA 
 514      00000043 
 514      6F6D705F 
 514      325F
 515 00f2 4C6F6164 		.ascii	"LoadTrim\000\000\000\000\000\000\000\000\000\000\000"
 515      5472696D 
 515      00000000 
 515      00000000 
 515      000000
 516 0105 00CE0000 		.ascii	"\000\316\000\000\000Comp_2_PwrDwnOverrideEnable\000"
 516      00436F6D 
 516      705F325F 
 516      50777244 
 516      776E4F76 
 517 0126 00000000 		.ascii	"\000\000\000\000\000\000\000\000\000\000\000\320\000"
 517      00000000 
 517      000000D0 
 517      00
 518 0133 0000436F 		.ascii	"\000\000Comp_2_PwrDwnOverrideDisable\000\000\000\000"
 518      6D705F32 
 518      5F507772 
ARM GAS  C:\Users\Luggi\AppData\Local\Temp\ccnzdqOk.s 			page 40


 518      44776E4F 
 518      76657272 
 519 0155 00000000 		.ascii	"\000\000\000\000\000\000\000\000\322\000\000\000CyD"
 519      00000000 
 519      D2000000 
 519      437944
 520 0164 656C6179 		.ascii	"elayUs\000\000\002\000\000\000\000\000\000\000\000\000"
 520      55730000 
 520      02000000 
 520      00000000 
 520      0000
 521 0176 D4000000 		.ascii	"\324\000\000\000"
 522              		.text
 523              		.section	.gnu.lto_.opts,"",%progbits
 524 0000 272D666E 		.ascii	"'-fno-trapv' '-fno-strict-overflow' '-mcpu=cortex-m"
 524      6F2D7472 
 524      61707627 
 524      20272D66 
 524      6E6F2D73 
 525 0033 33272027 		.ascii	"3' '-mthumb' '-g' '-Og' '-ffunction-sections' '-flt"
 525      2D6D7468 
 525      756D6227 
 525      20272D67 
 525      2720272D 
 526 0066 6F272027 		.ascii	"o' '-ffat-lto-objects'\000"
 526      2D666661 
 526      742D6C74 
 526      6F2D6F62 
 526      6A656374 
 527              		.text
 528              		.cfi_sections	.debug_frame
 529              		.section	.text.Comp_2_trimAdjust,"ax",%progbits
 530              		.align	2
 531              		.thumb
 532              		.thumb_func
 533              		.type	Comp_2_trimAdjust, %function
 534              	Comp_2_trimAdjust:
 535              	.LFB6:
 536              		.file 1 "Generated_Source\\PSoC5\\Comp_2.c"
   1:Generated_Source\PSoC5/Comp_2.c **** /*******************************************************************************
   2:Generated_Source\PSoC5/Comp_2.c **** * File Name: Comp_2.c
   3:Generated_Source\PSoC5/Comp_2.c **** * Version 2.0
   4:Generated_Source\PSoC5/Comp_2.c **** *
   5:Generated_Source\PSoC5/Comp_2.c **** * Description:
   6:Generated_Source\PSoC5/Comp_2.c **** *  This file provides the source code to the API for the Comparator component
   7:Generated_Source\PSoC5/Comp_2.c **** *
   8:Generated_Source\PSoC5/Comp_2.c **** * Note:
   9:Generated_Source\PSoC5/Comp_2.c **** *  None
  10:Generated_Source\PSoC5/Comp_2.c **** *
  11:Generated_Source\PSoC5/Comp_2.c **** ********************************************************************************
  12:Generated_Source\PSoC5/Comp_2.c **** * Copyright 2008-2012, Cypress Semiconductor Corporation.  All rights reserved.
  13:Generated_Source\PSoC5/Comp_2.c **** * You may use this file only in accordance with the license, terms, conditions, 
  14:Generated_Source\PSoC5/Comp_2.c **** * disclaimers, and limitations in the end user license agreement accompanying 
  15:Generated_Source\PSoC5/Comp_2.c **** * the software package with which this file was provided.
  16:Generated_Source\PSoC5/Comp_2.c **** *******************************************************************************/
  17:Generated_Source\PSoC5/Comp_2.c **** 
  18:Generated_Source\PSoC5/Comp_2.c **** #include "Comp_2.h"
ARM GAS  C:\Users\Luggi\AppData\Local\Temp\ccnzdqOk.s 			page 41


  19:Generated_Source\PSoC5/Comp_2.c **** 
  20:Generated_Source\PSoC5/Comp_2.c **** uint8 Comp_2_initVar = 0u;
  21:Generated_Source\PSoC5/Comp_2.c **** 
  22:Generated_Source\PSoC5/Comp_2.c **** /* Internal functions definitoin */
  23:Generated_Source\PSoC5/Comp_2.c **** static void Comp_2_trimAdjust(uint8 nibble) ;
  24:Generated_Source\PSoC5/Comp_2.c **** 
  25:Generated_Source\PSoC5/Comp_2.c **** /* static Comp_2_backupStruct  Comp_2_backup; */
  26:Generated_Source\PSoC5/Comp_2.c **** #if (CY_PSOC5A)
  27:Generated_Source\PSoC5/Comp_2.c ****     static Comp_2_LOWPOWER_BACKUP_STRUCT  Comp_2_lowPowerBackup;
  28:Generated_Source\PSoC5/Comp_2.c **** #endif /* CY_PSOC5A */
  29:Generated_Source\PSoC5/Comp_2.c **** 
  30:Generated_Source\PSoC5/Comp_2.c **** /* variable to decide whether or not to restore the control register in 
  31:Generated_Source\PSoC5/Comp_2.c ****    Enable() API for PSoC5A only */
  32:Generated_Source\PSoC5/Comp_2.c **** #if (CY_PSOC5A)
  33:Generated_Source\PSoC5/Comp_2.c ****     static uint8 Comp_2_restoreReg = 0u;
  34:Generated_Source\PSoC5/Comp_2.c **** #endif /* CY_PSOC5A */
  35:Generated_Source\PSoC5/Comp_2.c **** 
  36:Generated_Source\PSoC5/Comp_2.c **** 
  37:Generated_Source\PSoC5/Comp_2.c **** /*******************************************************************************
  38:Generated_Source\PSoC5/Comp_2.c **** * Function Name: Comp_2_Init
  39:Generated_Source\PSoC5/Comp_2.c **** ********************************************************************************
  40:Generated_Source\PSoC5/Comp_2.c **** *
  41:Generated_Source\PSoC5/Comp_2.c **** * Summary:
  42:Generated_Source\PSoC5/Comp_2.c **** *  Initialize to the schematic state
  43:Generated_Source\PSoC5/Comp_2.c **** * 
  44:Generated_Source\PSoC5/Comp_2.c **** * Parameters:
  45:Generated_Source\PSoC5/Comp_2.c **** *  void
  46:Generated_Source\PSoC5/Comp_2.c **** *
  47:Generated_Source\PSoC5/Comp_2.c **** * Return:
  48:Generated_Source\PSoC5/Comp_2.c **** *  void
  49:Generated_Source\PSoC5/Comp_2.c **** *
  50:Generated_Source\PSoC5/Comp_2.c **** *******************************************************************************/
  51:Generated_Source\PSoC5/Comp_2.c **** void Comp_2_Init(void) 
  52:Generated_Source\PSoC5/Comp_2.c **** {
  53:Generated_Source\PSoC5/Comp_2.c ****     /* Set default speed/power */
  54:Generated_Source\PSoC5/Comp_2.c ****     Comp_2_SetSpeed(Comp_2_DEFAULT_SPEED);
  55:Generated_Source\PSoC5/Comp_2.c **** 
  56:Generated_Source\PSoC5/Comp_2.c ****     /* Set default Hysteresis */
  57:Generated_Source\PSoC5/Comp_2.c ****     #if ( Comp_2_DEFAULT_HYSTERESIS == 0u )
  58:Generated_Source\PSoC5/Comp_2.c ****         Comp_2_CR |= Comp_2_HYST_OFF;
  59:Generated_Source\PSoC5/Comp_2.c ****     #else
  60:Generated_Source\PSoC5/Comp_2.c ****         Comp_2_CR &= (uint8)(~Comp_2_HYST_OFF);
  61:Generated_Source\PSoC5/Comp_2.c ****     #endif /* Comp_2_DEFAULT_HYSTERESIS == 0u */
  62:Generated_Source\PSoC5/Comp_2.c ****     /* Power down override feature is not supported for PSoC5A. */
  63:Generated_Source\PSoC5/Comp_2.c ****     #if (CY_PSOC3 || CY_PSOC5LP)
  64:Generated_Source\PSoC5/Comp_2.c ****         /* Set default Power Down Override */
  65:Generated_Source\PSoC5/Comp_2.c ****         #if ( Comp_2_DEFAULT_PWRDWN_OVRD == 0u )
  66:Generated_Source\PSoC5/Comp_2.c ****             Comp_2_CR &= (uint8)(~Comp_2_PWRDWN_OVRD);
  67:Generated_Source\PSoC5/Comp_2.c ****         #else 
  68:Generated_Source\PSoC5/Comp_2.c ****             Comp_2_CR |= Comp_2_PWRDWN_OVRD;
  69:Generated_Source\PSoC5/Comp_2.c ****         #endif /* Comp_2_DEFAULT_PWRDWN_OVRD == 0u */
  70:Generated_Source\PSoC5/Comp_2.c ****     #endif /* CY_PSOC3 || CY_PSOC5LP */
  71:Generated_Source\PSoC5/Comp_2.c ****     
  72:Generated_Source\PSoC5/Comp_2.c ****     /* Set mux always on logic */
  73:Generated_Source\PSoC5/Comp_2.c ****     Comp_2_CR |= Comp_2_MX_AO;
  74:Generated_Source\PSoC5/Comp_2.c **** 
  75:Generated_Source\PSoC5/Comp_2.c ****     /* Set default sync */
ARM GAS  C:\Users\Luggi\AppData\Local\Temp\ccnzdqOk.s 			page 42


  76:Generated_Source\PSoC5/Comp_2.c ****     Comp_2_CLK &= (uint8)(~Comp_2_SYNCCLK_MASK);
  77:Generated_Source\PSoC5/Comp_2.c ****     #if ( Comp_2_DEFAULT_BYPASS_SYNC == 0u )
  78:Generated_Source\PSoC5/Comp_2.c ****         Comp_2_CLK |= Comp_2_SYNC_CLK_EN;
  79:Generated_Source\PSoC5/Comp_2.c ****     #else
  80:Generated_Source\PSoC5/Comp_2.c ****         Comp_2_CLK |= Comp_2_BYPASS_SYNC;
  81:Generated_Source\PSoC5/Comp_2.c ****     #endif /* Comp_2_DEFAULT_BYPASS_SYNC == 0u */
  82:Generated_Source\PSoC5/Comp_2.c **** }
  83:Generated_Source\PSoC5/Comp_2.c **** 
  84:Generated_Source\PSoC5/Comp_2.c **** 
  85:Generated_Source\PSoC5/Comp_2.c **** /*******************************************************************************
  86:Generated_Source\PSoC5/Comp_2.c **** * Function Name: Comp_2_Enable
  87:Generated_Source\PSoC5/Comp_2.c **** ********************************************************************************
  88:Generated_Source\PSoC5/Comp_2.c **** *
  89:Generated_Source\PSoC5/Comp_2.c **** * Summary:
  90:Generated_Source\PSoC5/Comp_2.c **** *  Enable the Comparator
  91:Generated_Source\PSoC5/Comp_2.c **** * 
  92:Generated_Source\PSoC5/Comp_2.c **** * Parameters:
  93:Generated_Source\PSoC5/Comp_2.c **** *  void
  94:Generated_Source\PSoC5/Comp_2.c **** *
  95:Generated_Source\PSoC5/Comp_2.c **** * Return:
  96:Generated_Source\PSoC5/Comp_2.c **** *  void
  97:Generated_Source\PSoC5/Comp_2.c **** *
  98:Generated_Source\PSoC5/Comp_2.c **** *******************************************************************************/
  99:Generated_Source\PSoC5/Comp_2.c **** void Comp_2_Enable(void) 
 100:Generated_Source\PSoC5/Comp_2.c **** {
 101:Generated_Source\PSoC5/Comp_2.c ****     Comp_2_PWRMGR |= Comp_2_ACT_PWR_EN;
 102:Generated_Source\PSoC5/Comp_2.c ****     Comp_2_STBY_PWRMGR |= Comp_2_STBY_PWR_EN;
 103:Generated_Source\PSoC5/Comp_2.c ****      
 104:Generated_Source\PSoC5/Comp_2.c ****      /* This is to restore the value of register CR which is saved 
 105:Generated_Source\PSoC5/Comp_2.c ****     in prior to the modification in stop() API */
 106:Generated_Source\PSoC5/Comp_2.c ****     #if (CY_PSOC5A)
 107:Generated_Source\PSoC5/Comp_2.c ****         if(Comp_2_restoreReg == 1u)
 108:Generated_Source\PSoC5/Comp_2.c ****         {
 109:Generated_Source\PSoC5/Comp_2.c ****             Comp_2_CR = Comp_2_lowPowerBackup.compCRReg;
 110:Generated_Source\PSoC5/Comp_2.c **** 
 111:Generated_Source\PSoC5/Comp_2.c ****             /* Clear the flag */
 112:Generated_Source\PSoC5/Comp_2.c ****             Comp_2_restoreReg = 0u;
 113:Generated_Source\PSoC5/Comp_2.c ****         }
 114:Generated_Source\PSoC5/Comp_2.c ****     #endif /* CY_PSOC5A */
 115:Generated_Source\PSoC5/Comp_2.c **** }
 116:Generated_Source\PSoC5/Comp_2.c **** 
 117:Generated_Source\PSoC5/Comp_2.c **** 
 118:Generated_Source\PSoC5/Comp_2.c **** /*******************************************************************************
 119:Generated_Source\PSoC5/Comp_2.c **** * Function Name: Comp_2_Start
 120:Generated_Source\PSoC5/Comp_2.c **** ********************************************************************************
 121:Generated_Source\PSoC5/Comp_2.c **** *
 122:Generated_Source\PSoC5/Comp_2.c **** * Summary:
 123:Generated_Source\PSoC5/Comp_2.c **** *  The start function initializes the Analog Comparator with the default values.
 124:Generated_Source\PSoC5/Comp_2.c **** *
 125:Generated_Source\PSoC5/Comp_2.c **** * Parameters:
 126:Generated_Source\PSoC5/Comp_2.c **** *  void
 127:Generated_Source\PSoC5/Comp_2.c **** *
 128:Generated_Source\PSoC5/Comp_2.c **** * Return:
 129:Generated_Source\PSoC5/Comp_2.c **** *  void 
 130:Generated_Source\PSoC5/Comp_2.c **** *
 131:Generated_Source\PSoC5/Comp_2.c **** * Global variables:
 132:Generated_Source\PSoC5/Comp_2.c **** *  Comp_2_initVar: Is modified when this function is called for the 
ARM GAS  C:\Users\Luggi\AppData\Local\Temp\ccnzdqOk.s 			page 43


 133:Generated_Source\PSoC5/Comp_2.c **** *   first time. Is used to ensure that initialization happens only once.
 134:Generated_Source\PSoC5/Comp_2.c **** *  
 135:Generated_Source\PSoC5/Comp_2.c **** *******************************************************************************/
 136:Generated_Source\PSoC5/Comp_2.c **** void Comp_2_Start(void) 
 137:Generated_Source\PSoC5/Comp_2.c **** {
 138:Generated_Source\PSoC5/Comp_2.c **** 
 139:Generated_Source\PSoC5/Comp_2.c ****     if ( Comp_2_initVar == 0u )
 140:Generated_Source\PSoC5/Comp_2.c ****     {
 141:Generated_Source\PSoC5/Comp_2.c ****         Comp_2_Init();
 142:Generated_Source\PSoC5/Comp_2.c ****         
 143:Generated_Source\PSoC5/Comp_2.c ****         Comp_2_initVar = 1u;
 144:Generated_Source\PSoC5/Comp_2.c ****     }   
 145:Generated_Source\PSoC5/Comp_2.c **** 
 146:Generated_Source\PSoC5/Comp_2.c ****     /* Enable power to comparator */
 147:Generated_Source\PSoC5/Comp_2.c ****     Comp_2_Enable();    
 148:Generated_Source\PSoC5/Comp_2.c **** }
 149:Generated_Source\PSoC5/Comp_2.c **** 
 150:Generated_Source\PSoC5/Comp_2.c **** 
 151:Generated_Source\PSoC5/Comp_2.c **** /*******************************************************************************
 152:Generated_Source\PSoC5/Comp_2.c **** * Function Name: Comp_2_Stop
 153:Generated_Source\PSoC5/Comp_2.c **** ********************************************************************************
 154:Generated_Source\PSoC5/Comp_2.c **** *
 155:Generated_Source\PSoC5/Comp_2.c **** * Summary:
 156:Generated_Source\PSoC5/Comp_2.c **** *  Powers down amplifier to lowest power state.
 157:Generated_Source\PSoC5/Comp_2.c **** *
 158:Generated_Source\PSoC5/Comp_2.c **** * Parameters:
 159:Generated_Source\PSoC5/Comp_2.c **** *  void
 160:Generated_Source\PSoC5/Comp_2.c **** *
 161:Generated_Source\PSoC5/Comp_2.c **** * Return:
 162:Generated_Source\PSoC5/Comp_2.c **** *  void
 163:Generated_Source\PSoC5/Comp_2.c **** *
 164:Generated_Source\PSoC5/Comp_2.c **** *******************************************************************************/
 165:Generated_Source\PSoC5/Comp_2.c **** void Comp_2_Stop(void) 
 166:Generated_Source\PSoC5/Comp_2.c **** {
 167:Generated_Source\PSoC5/Comp_2.c ****     /* Disable power to comparator */
 168:Generated_Source\PSoC5/Comp_2.c ****     Comp_2_PWRMGR &= (uint8)(~Comp_2_ACT_PWR_EN);
 169:Generated_Source\PSoC5/Comp_2.c ****     Comp_2_STBY_PWRMGR &= (uint8)(~Comp_2_STBY_PWR_EN);
 170:Generated_Source\PSoC5/Comp_2.c ****     
 171:Generated_Source\PSoC5/Comp_2.c ****     #if (CY_PSOC5A)
 172:Generated_Source\PSoC5/Comp_2.c ****         /* Enable the variable */
 173:Generated_Source\PSoC5/Comp_2.c ****         Comp_2_restoreReg = 1u;
 174:Generated_Source\PSoC5/Comp_2.c **** 
 175:Generated_Source\PSoC5/Comp_2.c ****         /* Save the control register before clearing it */
 176:Generated_Source\PSoC5/Comp_2.c ****         Comp_2_lowPowerBackup.compCRReg = Comp_2_CR;
 177:Generated_Source\PSoC5/Comp_2.c ****         Comp_2_CR = Comp_2_COMP_REG_CLR;
 178:Generated_Source\PSoC5/Comp_2.c ****     #endif /* CY_PSOC5A */
 179:Generated_Source\PSoC5/Comp_2.c **** }
 180:Generated_Source\PSoC5/Comp_2.c **** 
 181:Generated_Source\PSoC5/Comp_2.c **** 
 182:Generated_Source\PSoC5/Comp_2.c **** /*******************************************************************************
 183:Generated_Source\PSoC5/Comp_2.c **** * Function Name: Comp_2_SetSpeed
 184:Generated_Source\PSoC5/Comp_2.c **** ********************************************************************************
 185:Generated_Source\PSoC5/Comp_2.c **** *
 186:Generated_Source\PSoC5/Comp_2.c **** * Summary:
 187:Generated_Source\PSoC5/Comp_2.c **** *  This function sets the speed of the Analog Comparator. The faster the speed
 188:Generated_Source\PSoC5/Comp_2.c **** *  the more power that is used.
 189:Generated_Source\PSoC5/Comp_2.c **** *
ARM GAS  C:\Users\Luggi\AppData\Local\Temp\ccnzdqOk.s 			page 44


 190:Generated_Source\PSoC5/Comp_2.c **** * Parameters:
 191:Generated_Source\PSoC5/Comp_2.c **** *  speed: (uint8) Sets operation mode of Comparator
 192:Generated_Source\PSoC5/Comp_2.c **** *
 193:Generated_Source\PSoC5/Comp_2.c **** * Return:
 194:Generated_Source\PSoC5/Comp_2.c **** *  void
 195:Generated_Source\PSoC5/Comp_2.c **** *
 196:Generated_Source\PSoC5/Comp_2.c **** *******************************************************************************/
 197:Generated_Source\PSoC5/Comp_2.c **** void Comp_2_SetSpeed(uint8 speed) 
 198:Generated_Source\PSoC5/Comp_2.c **** {
 199:Generated_Source\PSoC5/Comp_2.c ****     /* Clear and Set power level */    
 200:Generated_Source\PSoC5/Comp_2.c ****     Comp_2_CR = (Comp_2_CR & (uint8)(~Comp_2_PWR_MODE_MASK)) |
 201:Generated_Source\PSoC5/Comp_2.c ****                            (speed & Comp_2_PWR_MODE_MASK);
 202:Generated_Source\PSoC5/Comp_2.c **** 
 203:Generated_Source\PSoC5/Comp_2.c ****     /* Set trim value for high speed comparator */
 204:Generated_Source\PSoC5/Comp_2.c ****     if(speed == Comp_2_HIGHSPEED)
 205:Generated_Source\PSoC5/Comp_2.c ****     {
 206:Generated_Source\PSoC5/Comp_2.c ****         /* PSoC5A */
 207:Generated_Source\PSoC5/Comp_2.c ****         #if (CY_PSOC5A)
 208:Generated_Source\PSoC5/Comp_2.c ****             Comp_2_TR = Comp_2_HS_TRIM_TR0;
 209:Generated_Source\PSoC5/Comp_2.c ****         #endif /* CY_PSOC5A */
 210:Generated_Source\PSoC5/Comp_2.c ****         
 211:Generated_Source\PSoC5/Comp_2.c ****         /* PSoC3, PSoC5LP or later */
 212:Generated_Source\PSoC5/Comp_2.c ****         #if (CY_PSOC3 || CY_PSOC5LP) 
 213:Generated_Source\PSoC5/Comp_2.c ****             Comp_2_TR0 = Comp_2_HS_TRIM_TR0;
 214:Generated_Source\PSoC5/Comp_2.c ****             Comp_2_TR1 = Comp_2_HS_TRIM_TR1;
 215:Generated_Source\PSoC5/Comp_2.c ****         #endif /* CY_PSOC3 || CY_PSOC5LP */
 216:Generated_Source\PSoC5/Comp_2.c ****     }
 217:Generated_Source\PSoC5/Comp_2.c ****     else
 218:Generated_Source\PSoC5/Comp_2.c ****     {
 219:Generated_Source\PSoC5/Comp_2.c ****     /* PSoC5A */
 220:Generated_Source\PSoC5/Comp_2.c ****         #if (CY_PSOC5A)
 221:Generated_Source\PSoC5/Comp_2.c ****             Comp_2_TR = Comp_2_LS_TRIM_TR0;
 222:Generated_Source\PSoC5/Comp_2.c ****         #endif /* CY_PSOC5A */
 223:Generated_Source\PSoC5/Comp_2.c ****         
 224:Generated_Source\PSoC5/Comp_2.c ****         /* PSoC3, PSoC5LP or later */
 225:Generated_Source\PSoC5/Comp_2.c ****         #if (CY_PSOC3 || CY_PSOC5LP) 
 226:Generated_Source\PSoC5/Comp_2.c ****             Comp_2_TR0 = Comp_2_LS_TRIM_TR0;
 227:Generated_Source\PSoC5/Comp_2.c ****             Comp_2_TR1 = Comp_2_LS_TRIM_TR1;
 228:Generated_Source\PSoC5/Comp_2.c ****         #endif /* CY_PSOC3 || CY_PSOC5LP */
 229:Generated_Source\PSoC5/Comp_2.c ****     }
 230:Generated_Source\PSoC5/Comp_2.c **** 
 231:Generated_Source\PSoC5/Comp_2.c **** }
 232:Generated_Source\PSoC5/Comp_2.c **** 
 233:Generated_Source\PSoC5/Comp_2.c **** 
 234:Generated_Source\PSoC5/Comp_2.c **** /*******************************************************************************
 235:Generated_Source\PSoC5/Comp_2.c **** * Function Name: Comp_2_GetCompare
 236:Generated_Source\PSoC5/Comp_2.c **** ********************************************************************************
 237:Generated_Source\PSoC5/Comp_2.c **** *
 238:Generated_Source\PSoC5/Comp_2.c **** * Summary:
 239:Generated_Source\PSoC5/Comp_2.c **** *  This function returns the comparator output value.
 240:Generated_Source\PSoC5/Comp_2.c **** *  This value is not affected by the Polarity parameter.
 241:Generated_Source\PSoC5/Comp_2.c **** *  This valuea lways reflects a noninverted state.
 242:Generated_Source\PSoC5/Comp_2.c **** *
 243:Generated_Source\PSoC5/Comp_2.c **** * Parameters:
 244:Generated_Source\PSoC5/Comp_2.c **** *   None
 245:Generated_Source\PSoC5/Comp_2.c **** *
 246:Generated_Source\PSoC5/Comp_2.c **** * Return:
ARM GAS  C:\Users\Luggi\AppData\Local\Temp\ccnzdqOk.s 			page 45


 247:Generated_Source\PSoC5/Comp_2.c **** *  (uint8)  0     - if Pos_Input less than Neg_input
 248:Generated_Source\PSoC5/Comp_2.c **** *           non 0 - if Pos_Input greater than Neg_input.
 249:Generated_Source\PSoC5/Comp_2.c **** *
 250:Generated_Source\PSoC5/Comp_2.c **** *******************************************************************************/
 251:Generated_Source\PSoC5/Comp_2.c **** uint8 Comp_2_GetCompare(void) 
 252:Generated_Source\PSoC5/Comp_2.c **** {
 253:Generated_Source\PSoC5/Comp_2.c ****     return( Comp_2_WRK & Comp_2_CMP_OUT_MASK);
 254:Generated_Source\PSoC5/Comp_2.c **** }
 255:Generated_Source\PSoC5/Comp_2.c **** 
 256:Generated_Source\PSoC5/Comp_2.c **** 
 257:Generated_Source\PSoC5/Comp_2.c **** /*******************************************************************************
 258:Generated_Source\PSoC5/Comp_2.c **** * Function Name: Comp_2_trimAdjust
 259:Generated_Source\PSoC5/Comp_2.c **** ********************************************************************************
 260:Generated_Source\PSoC5/Comp_2.c **** *
 261:Generated_Source\PSoC5/Comp_2.c **** * Summary:
 262:Generated_Source\PSoC5/Comp_2.c **** *  This function adjusts the value in the low nibble/high nibble of the Analog 
 263:Generated_Source\PSoC5/Comp_2.c **** *  Comparator trim register
 264:Generated_Source\PSoC5/Comp_2.c **** *
 265:Generated_Source\PSoC5/Comp_2.c **** * Parameters:  
 266:Generated_Source\PSoC5/Comp_2.c **** *  nibble:
 267:Generated_Source\PSoC5/Comp_2.c **** *      0 -- adjusts the value in the low nibble
 268:Generated_Source\PSoC5/Comp_2.c **** *      1 -- adjusts the value in the high nibble
 269:Generated_Source\PSoC5/Comp_2.c **** *
 270:Generated_Source\PSoC5/Comp_2.c **** * Return:
 271:Generated_Source\PSoC5/Comp_2.c **** *  None
 272:Generated_Source\PSoC5/Comp_2.c **** *
 273:Generated_Source\PSoC5/Comp_2.c **** * Theory: 
 274:Generated_Source\PSoC5/Comp_2.c **** *  Function assumes comparator block is setup for trim adjust.
 275:Generated_Source\PSoC5/Comp_2.c **** *  Intended to be called from Comp_ZeroCal()
 276:Generated_Source\PSoC5/Comp_2.c **** * 
 277:Generated_Source\PSoC5/Comp_2.c **** * Side Effects:
 278:Generated_Source\PSoC5/Comp_2.c **** *  Routine uses a course 1ms delay following each trim adjustment to allow 
 279:Generated_Source\PSoC5/Comp_2.c **** *  the comparator output to respond.
 280:Generated_Source\PSoC5/Comp_2.c **** *
 281:Generated_Source\PSoC5/Comp_2.c **** *******************************************************************************/
 282:Generated_Source\PSoC5/Comp_2.c **** static void Comp_2_trimAdjust(uint8 nibble) 
 283:Generated_Source\PSoC5/Comp_2.c **** {
 537              		.loc 1 283 0
 538              		.cfi_startproc
 539              		@ args = 0, pretend = 0, frame = 0
 540              		@ frame_needed = 0, uses_anonymous_args = 0
 541              	.LVL0:
 542 0000 F8B5     		push	{r3, r4, r5, r6, r7, lr}
 543              		.cfi_def_cfa_offset 24
 544              		.cfi_offset 3, -24
 545              		.cfi_offset 4, -20
 546              		.cfi_offset 5, -16
 547              		.cfi_offset 6, -12
 548              		.cfi_offset 7, -8
 549              		.cfi_offset 14, -4
 284:Generated_Source\PSoC5/Comp_2.c ****     uint8 trimCnt, trimCntMax;
 285:Generated_Source\PSoC5/Comp_2.c ****     uint8 cmpState;   
 286:Generated_Source\PSoC5/Comp_2.c **** 
 287:Generated_Source\PSoC5/Comp_2.c ****     /* get current state of comparator output */
 288:Generated_Source\PSoC5/Comp_2.c ****     cmpState = Comp_2_WRK & Comp_2_CMP_OUT_MASK;
 550              		.loc 1 288 0
 551 0002 1A4B     		ldr	r3, .L12
ARM GAS  C:\Users\Luggi\AppData\Local\Temp\ccnzdqOk.s 			page 46


 552 0004 1D78     		ldrb	r5, [r3]	@ zero_extendqisi2
 553 0006 05F00805 		and	r5, r5, #8
 554 000a EDB2     		uxtb	r5, r5
 555              	.LVL1:
 289:Generated_Source\PSoC5/Comp_2.c ****     
 290:Generated_Source\PSoC5/Comp_2.c ****     if (nibble == 0u)
 556              		.loc 1 290 0
 557 000c 0646     		mov	r6, r0
 558 000e 30B9     		cbnz	r0, .L2
 291:Generated_Source\PSoC5/Comp_2.c ****     {    
 292:Generated_Source\PSoC5/Comp_2.c ****         /* if comparator output is high, negative offset adjust is required */
 293:Generated_Source\PSoC5/Comp_2.c ****         if ( cmpState != 0u )
 559              		.loc 1 293 0
 560 0010 5DB1     		cbz	r5, .L3
 294:Generated_Source\PSoC5/Comp_2.c ****         {
 295:Generated_Source\PSoC5/Comp_2.c ****             /* PSoC5A */
 296:Generated_Source\PSoC5/Comp_2.c ****             #if (CY_PSOC5A)
 297:Generated_Source\PSoC5/Comp_2.c ****                 Comp_2_TR |= Comp_2_CMP_TRIM1_DIR;
 298:Generated_Source\PSoC5/Comp_2.c ****             #endif /* CY_PSOC5A */
 299:Generated_Source\PSoC5/Comp_2.c ****             
 300:Generated_Source\PSoC5/Comp_2.c ****             /* PSoC3, PSoC5LP or later */
 301:Generated_Source\PSoC5/Comp_2.c ****             #if (CY_PSOC3 || CY_PSOC5LP)
 302:Generated_Source\PSoC5/Comp_2.c ****                 Comp_2_TR0 |= Comp_2_CMP_TR0_DIR;
 561              		.loc 1 302 0
 562 0012 174A     		ldr	r2, .L12+4
 563 0014 1378     		ldrb	r3, [r2]	@ zero_extendqisi2
 564 0016 43F01003 		orr	r3, r3, #16
 565 001a 1370     		strb	r3, [r2]
 566 001c 05E0     		b	.L3
 567              	.L2:
 303:Generated_Source\PSoC5/Comp_2.c ****             #endif /* CY_PSOC3 || CY_PSOC5LP */
 304:Generated_Source\PSoC5/Comp_2.c ****         }
 305:Generated_Source\PSoC5/Comp_2.c ****     }
 306:Generated_Source\PSoC5/Comp_2.c ****     else
 307:Generated_Source\PSoC5/Comp_2.c ****     {
 308:Generated_Source\PSoC5/Comp_2.c ****         /* if comparator output is low, positive offset adjust is required */
 309:Generated_Source\PSoC5/Comp_2.c ****         if ( cmpState == 0u )
 568              		.loc 1 309 0
 569 001e 25B9     		cbnz	r5, .L3
 310:Generated_Source\PSoC5/Comp_2.c ****         {
 311:Generated_Source\PSoC5/Comp_2.c ****             /* PSoC5A */
 312:Generated_Source\PSoC5/Comp_2.c ****             #if (CY_PSOC5A)
 313:Generated_Source\PSoC5/Comp_2.c ****                 Comp_2_TR |= Comp_2_CMP_TRIM2_DIR; 
 314:Generated_Source\PSoC5/Comp_2.c ****             #endif /* CY_PSOC5A */
 315:Generated_Source\PSoC5/Comp_2.c ****             
 316:Generated_Source\PSoC5/Comp_2.c ****             /* PSoC3, PSoC5LP or later */
 317:Generated_Source\PSoC5/Comp_2.c ****             #if (CY_PSOC3 || CY_PSOC5LP)
 318:Generated_Source\PSoC5/Comp_2.c ****                 Comp_2_TR1 |= Comp_2_CMP_TR1_DIR;
 570              		.loc 1 318 0
 571 0020 144A     		ldr	r2, .L12+8
 572 0022 1378     		ldrb	r3, [r2]	@ zero_extendqisi2
 573 0024 43F01003 		orr	r3, r3, #16
 574 0028 1370     		strb	r3, [r2]
 575              	.L3:
 319:Generated_Source\PSoC5/Comp_2.c ****             #endif /* CY_PSOC3 || CY_PSOC5LP */
 320:Generated_Source\PSoC5/Comp_2.c ****         }
 321:Generated_Source\PSoC5/Comp_2.c ****     }
ARM GAS  C:\Users\Luggi\AppData\Local\Temp\ccnzdqOk.s 			page 47


 322:Generated_Source\PSoC5/Comp_2.c **** 
 323:Generated_Source\PSoC5/Comp_2.c ****     /* Increment trim value until compare output changes state */
 324:Generated_Source\PSoC5/Comp_2.c **** 	
 325:Generated_Source\PSoC5/Comp_2.c ****     /* PSoC5A */
 326:Generated_Source\PSoC5/Comp_2.c **** 	#if (CY_PSOC5A)
 327:Generated_Source\PSoC5/Comp_2.c **** 	    trimCntMax = 7u;
 328:Generated_Source\PSoC5/Comp_2.c ****     #endif
 329:Generated_Source\PSoC5/Comp_2.c **** 	
 330:Generated_Source\PSoC5/Comp_2.c **** 	/* PSoC3, PSoC5LP or later */
 331:Generated_Source\PSoC5/Comp_2.c **** 	#if (CY_PSOC3 || CY_PSOC5LP)
 332:Generated_Source\PSoC5/Comp_2.c ****     	if(nibble == 0u)
 576              		.loc 1 332 0
 577 002a 0EB9     		cbnz	r6, .L10
 333:Generated_Source\PSoC5/Comp_2.c ****     	{
 334:Generated_Source\PSoC5/Comp_2.c ****     		trimCntMax = 15u;
 578              		.loc 1 334 0
 579 002c 0F27     		movs	r7, #15
 580 002e 00E0     		b	.L4
 581              	.L10:
 335:Generated_Source\PSoC5/Comp_2.c ****     	}
 336:Generated_Source\PSoC5/Comp_2.c ****     	else
 337:Generated_Source\PSoC5/Comp_2.c ****     	{
 338:Generated_Source\PSoC5/Comp_2.c ****     		trimCntMax = 7u;
 582              		.loc 1 338 0
 583 0030 0727     		movs	r7, #7
 584              	.L4:
 585              	.LVL2:
 339:Generated_Source\PSoC5/Comp_2.c ****     	}
 340:Generated_Source\PSoC5/Comp_2.c **** 	#endif
 341:Generated_Source\PSoC5/Comp_2.c **** 	
 342:Generated_Source\PSoC5/Comp_2.c ****     for ( trimCnt = 0u; trimCnt < trimCntMax; trimCnt++ )
 586              		.loc 1 342 0
 587 0032 0024     		movs	r4, #0
 588 0034 17E0     		b	.L5
 589              	.LVL3:
 590              	.L9:
 343:Generated_Source\PSoC5/Comp_2.c **** 	{
 344:Generated_Source\PSoC5/Comp_2.c ****         if (nibble == 0u)
 591              		.loc 1 344 0
 592 0036 2EB9     		cbnz	r6, .L6
 345:Generated_Source\PSoC5/Comp_2.c ****         {
 346:Generated_Source\PSoC5/Comp_2.c ****             /* PSoC5A */
 347:Generated_Source\PSoC5/Comp_2.c ****             #if (CY_PSOC5A)
 348:Generated_Source\PSoC5/Comp_2.c ****                 Comp_2_TR += 1u;
 349:Generated_Source\PSoC5/Comp_2.c ****             #endif /* CY_PSOC5A */
 350:Generated_Source\PSoC5/Comp_2.c ****             
 351:Generated_Source\PSoC5/Comp_2.c ****             /* PSoC3, PSoC5LP or later */
 352:Generated_Source\PSoC5/Comp_2.c ****             #if (CY_PSOC3 || CY_PSOC5LP)
 353:Generated_Source\PSoC5/Comp_2.c ****                 Comp_2_TR0 += 1u;
 593              		.loc 1 353 0
 594 0038 0D4A     		ldr	r2, .L12+4
 595 003a 1378     		ldrb	r3, [r2]	@ zero_extendqisi2
 596 003c 0133     		adds	r3, r3, #1
 597 003e DBB2     		uxtb	r3, r3
 598 0040 1370     		strb	r3, [r2]
 599 0042 04E0     		b	.L7
 600              	.L6:
ARM GAS  C:\Users\Luggi\AppData\Local\Temp\ccnzdqOk.s 			page 48


 354:Generated_Source\PSoC5/Comp_2.c ****             #endif /* CY_PSOC3 || CY_PSOC5LP */
 355:Generated_Source\PSoC5/Comp_2.c ****         }
 356:Generated_Source\PSoC5/Comp_2.c ****         else
 357:Generated_Source\PSoC5/Comp_2.c ****         {
 358:Generated_Source\PSoC5/Comp_2.c ****             /* PSoC5A */
 359:Generated_Source\PSoC5/Comp_2.c ****             #if (CY_PSOC5A)
 360:Generated_Source\PSoC5/Comp_2.c ****                 Comp_2_TR += 0x10u;
 361:Generated_Source\PSoC5/Comp_2.c ****             #endif /* CY_PSOC5A */
 362:Generated_Source\PSoC5/Comp_2.c ****             
 363:Generated_Source\PSoC5/Comp_2.c ****             /* PSoC3, PSoC5LP or later */
 364:Generated_Source\PSoC5/Comp_2.c ****             #if (CY_PSOC3 || CY_PSOC5LP)
 365:Generated_Source\PSoC5/Comp_2.c ****                 Comp_2_TR1 += 1u;
 601              		.loc 1 365 0
 602 0044 0B4A     		ldr	r2, .L12+8
 603 0046 1378     		ldrb	r3, [r2]	@ zero_extendqisi2
 604 0048 0133     		adds	r3, r3, #1
 605 004a DBB2     		uxtb	r3, r3
 606 004c 1370     		strb	r3, [r2]
 607              	.L7:
 366:Generated_Source\PSoC5/Comp_2.c ****             #endif /* CY_PSOC3 || CY_PSOC5LP */
 367:Generated_Source\PSoC5/Comp_2.c ****         }
 368:Generated_Source\PSoC5/Comp_2.c ****         
 369:Generated_Source\PSoC5/Comp_2.c ****         CyDelayUs(10u);
 608              		.loc 1 369 0
 609 004e 0A20     		movs	r0, #10
 610 0050 FFF7FEFF 		bl	CyDelayUs
 611              	.LVL4:
 370:Generated_Source\PSoC5/Comp_2.c ****         
 371:Generated_Source\PSoC5/Comp_2.c ****         /* Check for change in comparator output */
 372:Generated_Source\PSoC5/Comp_2.c ****         if ((Comp_2_WRK & Comp_2_CMP_OUT_MASK) != cmpState)
 612              		.loc 1 372 0
 613 0054 054B     		ldr	r3, .L12
 614 0056 1B78     		ldrb	r3, [r3]	@ zero_extendqisi2
 615 0058 03F00803 		and	r3, r3, #8
 616 005c DBB2     		uxtb	r3, r3
 617 005e AB42     		cmp	r3, r5
 618 0060 03D1     		bne	.L1
 342:Generated_Source\PSoC5/Comp_2.c **** 	{
 619              		.loc 1 342 0 discriminator 2
 620 0062 0134     		adds	r4, r4, #1
 621              	.LVL5:
 622 0064 E4B2     		uxtb	r4, r4
 623              	.LVL6:
 624              	.L5:
 342:Generated_Source\PSoC5/Comp_2.c **** 	{
 625              		.loc 1 342 0 is_stmt 0 discriminator 1
 626 0066 BC42     		cmp	r4, r7
 627 0068 E5D3     		bcc	.L9
 628              	.L1:
 629 006a F8BD     		pop	{r3, r4, r5, r6, r7, pc}
 630              	.LVL7:
 631              	.L13:
 632              		.align	2
 633              	.L12:
 634 006c 965B0040 		.word	1073765270
 635 0070 36460040 		.word	1073759798
 636 0074 37460040 		.word	1073759799
ARM GAS  C:\Users\Luggi\AppData\Local\Temp\ccnzdqOk.s 			page 49


 637              		.cfi_endproc
 638              	.LFE6:
 639              		.size	Comp_2_trimAdjust, .-Comp_2_trimAdjust
 640              		.section	.text.Comp_2_Enable,"ax",%progbits
 641              		.align	2
 642              		.global	Comp_2_Enable
 643              		.thumb
 644              		.thumb_func
 645              		.type	Comp_2_Enable, %function
 646              	Comp_2_Enable:
 647              	.LFB1:
 100:Generated_Source\PSoC5/Comp_2.c ****     Comp_2_PWRMGR |= Comp_2_ACT_PWR_EN;
 648              		.loc 1 100 0 is_stmt 1
 649              		.cfi_startproc
 650              		@ args = 0, pretend = 0, frame = 0
 651              		@ frame_needed = 0, uses_anonymous_args = 0
 652              		@ link register save eliminated.
 101:Generated_Source\PSoC5/Comp_2.c ****     Comp_2_STBY_PWRMGR |= Comp_2_STBY_PWR_EN;
 653              		.loc 1 101 0
 654 0000 054A     		ldr	r2, .L15
 655 0002 1378     		ldrb	r3, [r2]	@ zero_extendqisi2
 656 0004 43F00803 		orr	r3, r3, #8
 657 0008 1370     		strb	r3, [r2]
 102:Generated_Source\PSoC5/Comp_2.c ****      
 658              		.loc 1 102 0
 659 000a 1032     		adds	r2, r2, #16
 660 000c 1378     		ldrb	r3, [r2]	@ zero_extendqisi2
 661 000e 43F00803 		orr	r3, r3, #8
 662 0012 1370     		strb	r3, [r2]
 663 0014 7047     		bx	lr
 664              	.L16:
 665 0016 00BF     		.align	2
 666              	.L15:
 667 0018 A7430040 		.word	1073759143
 668              		.cfi_endproc
 669              	.LFE1:
 670              		.size	Comp_2_Enable, .-Comp_2_Enable
 671              		.section	.text.Comp_2_Stop,"ax",%progbits
 672              		.align	2
 673              		.global	Comp_2_Stop
 674              		.thumb
 675              		.thumb_func
 676              		.type	Comp_2_Stop, %function
 677              	Comp_2_Stop:
 678              	.LFB3:
 166:Generated_Source\PSoC5/Comp_2.c ****     /* Disable power to comparator */
 679              		.loc 1 166 0
 680              		.cfi_startproc
 681              		@ args = 0, pretend = 0, frame = 0
 682              		@ frame_needed = 0, uses_anonymous_args = 0
 683              		@ link register save eliminated.
 168:Generated_Source\PSoC5/Comp_2.c ****     Comp_2_STBY_PWRMGR &= (uint8)(~Comp_2_STBY_PWR_EN);
 684              		.loc 1 168 0
 685 0000 054A     		ldr	r2, .L18
 686 0002 1378     		ldrb	r3, [r2]	@ zero_extendqisi2
 687 0004 03F0F703 		and	r3, r3, #247
 688 0008 1370     		strb	r3, [r2]
ARM GAS  C:\Users\Luggi\AppData\Local\Temp\ccnzdqOk.s 			page 50


 169:Generated_Source\PSoC5/Comp_2.c ****     
 689              		.loc 1 169 0
 690 000a 1032     		adds	r2, r2, #16
 691 000c 1378     		ldrb	r3, [r2]	@ zero_extendqisi2
 692 000e 03F0F703 		and	r3, r3, #247
 693 0012 1370     		strb	r3, [r2]
 694 0014 7047     		bx	lr
 695              	.L19:
 696 0016 00BF     		.align	2
 697              	.L18:
 698 0018 A7430040 		.word	1073759143
 699              		.cfi_endproc
 700              	.LFE3:
 701              		.size	Comp_2_Stop, .-Comp_2_Stop
 702              		.section	.text.Comp_2_SetSpeed,"ax",%progbits
 703              		.align	2
 704              		.global	Comp_2_SetSpeed
 705              		.thumb
 706              		.thumb_func
 707              		.type	Comp_2_SetSpeed, %function
 708              	Comp_2_SetSpeed:
 709              	.LFB4:
 198:Generated_Source\PSoC5/Comp_2.c ****     /* Clear and Set power level */    
 710              		.loc 1 198 0
 711              		.cfi_startproc
 712              		@ args = 0, pretend = 0, frame = 0
 713              		@ frame_needed = 0, uses_anonymous_args = 0
 714              		@ link register save eliminated.
 715              	.LVL8:
 200:Generated_Source\PSoC5/Comp_2.c ****                            (speed & Comp_2_PWR_MODE_MASK);
 716              		.loc 1 200 0
 717 0000 0F49     		ldr	r1, .L23
 718 0002 0B78     		ldrb	r3, [r1]	@ zero_extendqisi2
 719 0004 03F0FC02 		and	r2, r3, #252
 720 0008 00F00303 		and	r3, r0, #3
 721 000c 1343     		orrs	r3, r3, r2
 722 000e 0B70     		strb	r3, [r1]
 204:Generated_Source\PSoC5/Comp_2.c ****     {
 723              		.loc 1 204 0
 724 0010 0128     		cmp	r0, #1
 725 0012 0AD1     		bne	.L21
 213:Generated_Source\PSoC5/Comp_2.c ****             Comp_2_TR1 = Comp_2_HS_TRIM_TR1;
 726              		.loc 1 213 0
 727 0014 0B4B     		ldr	r3, .L23+4
 728 0016 1B78     		ldrb	r3, [r3]	@ zero_extendqisi2
 729 0018 DBB2     		uxtb	r3, r3
 730 001a 0B4A     		ldr	r2, .L23+8
 731 001c 1370     		strb	r3, [r2]
 214:Generated_Source\PSoC5/Comp_2.c ****         #endif /* CY_PSOC3 || CY_PSOC5LP */
 732              		.loc 1 214 0
 733 001e 0B4B     		ldr	r3, .L23+12
 734 0020 1B78     		ldrb	r3, [r3]	@ zero_extendqisi2
 735 0022 DBB2     		uxtb	r3, r3
 736 0024 0132     		adds	r2, r2, #1
 737 0026 1370     		strb	r3, [r2]
 738 0028 7047     		bx	lr
 739              	.L21:
ARM GAS  C:\Users\Luggi\AppData\Local\Temp\ccnzdqOk.s 			page 51


 226:Generated_Source\PSoC5/Comp_2.c ****             Comp_2_TR1 = Comp_2_LS_TRIM_TR1;
 740              		.loc 1 226 0
 741 002a 094B     		ldr	r3, .L23+16
 742 002c 1B78     		ldrb	r3, [r3]	@ zero_extendqisi2
 743 002e DBB2     		uxtb	r3, r3
 744 0030 054A     		ldr	r2, .L23+8
 745 0032 1370     		strb	r3, [r2]
 227:Generated_Source\PSoC5/Comp_2.c ****         #endif /* CY_PSOC3 || CY_PSOC5LP */
 746              		.loc 1 227 0
 747 0034 074B     		ldr	r3, .L23+20
 748 0036 1B78     		ldrb	r3, [r3]	@ zero_extendqisi2
 749 0038 DBB2     		uxtb	r3, r3
 750 003a 0132     		adds	r2, r2, #1
 751 003c 1370     		strb	r3, [r2]
 752 003e 7047     		bx	lr
 753              	.L24:
 754              		.align	2
 755              	.L23:
 756 0040 43580040 		.word	1073764419
 757 0044 13010049 		.word	1224737043
 758 0048 36460040 		.word	1073759798
 759 004c 17010049 		.word	1224737047
 760 0050 B3010049 		.word	1224737203
 761 0054 BB010049 		.word	1224737211
 762              		.cfi_endproc
 763              	.LFE4:
 764              		.size	Comp_2_SetSpeed, .-Comp_2_SetSpeed
 765              		.section	.text.Comp_2_Init,"ax",%progbits
 766              		.align	2
 767              		.global	Comp_2_Init
 768              		.thumb
 769              		.thumb_func
 770              		.type	Comp_2_Init, %function
 771              	Comp_2_Init:
 772              	.LFB0:
  52:Generated_Source\PSoC5/Comp_2.c ****     /* Set default speed/power */
 773              		.loc 1 52 0
 774              		.cfi_startproc
 775              		@ args = 0, pretend = 0, frame = 0
 776              		@ frame_needed = 0, uses_anonymous_args = 0
 777 0000 08B5     		push	{r3, lr}
 778              		.cfi_def_cfa_offset 8
 779              		.cfi_offset 3, -8
 780              		.cfi_offset 14, -4
  54:Generated_Source\PSoC5/Comp_2.c **** 
 781              		.loc 1 54 0
 782 0002 0120     		movs	r0, #1
 783 0004 FFF7FEFF 		bl	Comp_2_SetSpeed
 784              	.LVL9:
  60:Generated_Source\PSoC5/Comp_2.c ****     #endif /* Comp_2_DEFAULT_HYSTERESIS == 0u */
 785              		.loc 1 60 0
 786 0008 0B4B     		ldr	r3, .L27
 787 000a 1A78     		ldrb	r2, [r3]	@ zero_extendqisi2
 788 000c 02F0DF02 		and	r2, r2, #223
 789 0010 1A70     		strb	r2, [r3]
  66:Generated_Source\PSoC5/Comp_2.c ****         #else 
 790              		.loc 1 66 0
ARM GAS  C:\Users\Luggi\AppData\Local\Temp\ccnzdqOk.s 			page 52


 791 0012 1A78     		ldrb	r2, [r3]	@ zero_extendqisi2
 792 0014 02F0FB02 		and	r2, r2, #251
 793 0018 1A70     		strb	r2, [r3]
  73:Generated_Source\PSoC5/Comp_2.c **** 
 794              		.loc 1 73 0
 795 001a 1A78     		ldrb	r2, [r3]	@ zero_extendqisi2
 796 001c 42F00802 		orr	r2, r2, #8
 797 0020 1A70     		strb	r2, [r3]
  76:Generated_Source\PSoC5/Comp_2.c ****     #if ( Comp_2_DEFAULT_BYPASS_SYNC == 0u )
 798              		.loc 1 76 0
 799 0022 03F52773 		add	r3, r3, #668
 800 0026 1A78     		ldrb	r2, [r3]	@ zero_extendqisi2
 801 0028 02F0E702 		and	r2, r2, #231
 802 002c 1A70     		strb	r2, [r3]
  78:Generated_Source\PSoC5/Comp_2.c ****     #else
 803              		.loc 1 78 0
 804 002e 1A78     		ldrb	r2, [r3]	@ zero_extendqisi2
 805 0030 42F00802 		orr	r2, r2, #8
 806 0034 1A70     		strb	r2, [r3]
 807 0036 08BD     		pop	{r3, pc}
 808              	.L28:
 809              		.align	2
 810              	.L27:
 811 0038 43580040 		.word	1073764419
 812              		.cfi_endproc
 813              	.LFE0:
 814              		.size	Comp_2_Init, .-Comp_2_Init
 815              		.section	.text.Comp_2_Start,"ax",%progbits
 816              		.align	2
 817              		.global	Comp_2_Start
 818              		.thumb
 819              		.thumb_func
 820              		.type	Comp_2_Start, %function
 821              	Comp_2_Start:
 822              	.LFB2:
 137:Generated_Source\PSoC5/Comp_2.c **** 
 823              		.loc 1 137 0
 824              		.cfi_startproc
 825              		@ args = 0, pretend = 0, frame = 0
 826              		@ frame_needed = 0, uses_anonymous_args = 0
 827 0000 08B5     		push	{r3, lr}
 828              		.cfi_def_cfa_offset 8
 829              		.cfi_offset 3, -8
 830              		.cfi_offset 14, -4
 139:Generated_Source\PSoC5/Comp_2.c ****     {
 831              		.loc 1 139 0
 832 0002 054B     		ldr	r3, .L32
 833 0004 1B78     		ldrb	r3, [r3]	@ zero_extendqisi2
 834 0006 23B9     		cbnz	r3, .L30
 141:Generated_Source\PSoC5/Comp_2.c ****         
 835              		.loc 1 141 0
 836 0008 FFF7FEFF 		bl	Comp_2_Init
 837              	.LVL10:
 143:Generated_Source\PSoC5/Comp_2.c ****     }   
 838              		.loc 1 143 0
 839 000c 0122     		movs	r2, #1
 840 000e 024B     		ldr	r3, .L32
ARM GAS  C:\Users\Luggi\AppData\Local\Temp\ccnzdqOk.s 			page 53


 841 0010 1A70     		strb	r2, [r3]
 842              	.L30:
 147:Generated_Source\PSoC5/Comp_2.c **** }
 843              		.loc 1 147 0
 844 0012 FFF7FEFF 		bl	Comp_2_Enable
 845              	.LVL11:
 846 0016 08BD     		pop	{r3, pc}
 847              	.L33:
 848              		.align	2
 849              	.L32:
 850 0018 00000000 		.word	.LANCHOR0
 851              		.cfi_endproc
 852              	.LFE2:
 853              		.size	Comp_2_Start, .-Comp_2_Start
 854              		.section	.text.Comp_2_GetCompare,"ax",%progbits
 855              		.align	2
 856              		.global	Comp_2_GetCompare
 857              		.thumb
 858              		.thumb_func
 859              		.type	Comp_2_GetCompare, %function
 860              	Comp_2_GetCompare:
 861              	.LFB5:
 252:Generated_Source\PSoC5/Comp_2.c ****     return( Comp_2_WRK & Comp_2_CMP_OUT_MASK);
 862              		.loc 1 252 0
 863              		.cfi_startproc
 864              		@ args = 0, pretend = 0, frame = 0
 865              		@ frame_needed = 0, uses_anonymous_args = 0
 866              		@ link register save eliminated.
 253:Generated_Source\PSoC5/Comp_2.c **** }
 867              		.loc 1 253 0
 868 0000 024B     		ldr	r3, .L35
 869 0002 1878     		ldrb	r0, [r3]	@ zero_extendqisi2
 254:Generated_Source\PSoC5/Comp_2.c **** 
 870              		.loc 1 254 0
 871 0004 00F00800 		and	r0, r0, #8
 872 0008 7047     		bx	lr
 873              	.L36:
 874 000a 00BF     		.align	2
 875              	.L35:
 876 000c 965B0040 		.word	1073765270
 877              		.cfi_endproc
 878              	.LFE5:
 879              		.size	Comp_2_GetCompare, .-Comp_2_GetCompare
 880              		.section	.text.Comp_2_ZeroCal,"ax",%progbits
 881              		.align	2
 882              		.global	Comp_2_ZeroCal
 883              		.thumb
 884              		.thumb_func
 885              		.type	Comp_2_ZeroCal, %function
 886              	Comp_2_ZeroCal:
 887              	.LFB7:
 373:Generated_Source\PSoC5/Comp_2.c ****         {
 374:Generated_Source\PSoC5/Comp_2.c ****             break;      /* output changed state, trim phase is complete */
 375:Generated_Source\PSoC5/Comp_2.c ****         }        
 376:Generated_Source\PSoC5/Comp_2.c ****     }    
 377:Generated_Source\PSoC5/Comp_2.c **** }
 378:Generated_Source\PSoC5/Comp_2.c **** 
ARM GAS  C:\Users\Luggi\AppData\Local\Temp\ccnzdqOk.s 			page 54


 379:Generated_Source\PSoC5/Comp_2.c **** 
 380:Generated_Source\PSoC5/Comp_2.c **** /*******************************************************************************
 381:Generated_Source\PSoC5/Comp_2.c **** * Function Name: Comp_2_ZeroCal
 382:Generated_Source\PSoC5/Comp_2.c **** ********************************************************************************
 383:Generated_Source\PSoC5/Comp_2.c **** *
 384:Generated_Source\PSoC5/Comp_2.c **** * Summary:
 385:Generated_Source\PSoC5/Comp_2.c **** *  This function calibrates the offset of the Analog Comparator.
 386:Generated_Source\PSoC5/Comp_2.c **** *
 387:Generated_Source\PSoC5/Comp_2.c **** * Parameters:
 388:Generated_Source\PSoC5/Comp_2.c **** *  None
 389:Generated_Source\PSoC5/Comp_2.c **** *
 390:Generated_Source\PSoC5/Comp_2.c **** * Return:
 391:Generated_Source\PSoC5/Comp_2.c **** *  (uint16)  value written in trim register when calibration complete.
 392:Generated_Source\PSoC5/Comp_2.c **** *
 393:Generated_Source\PSoC5/Comp_2.c **** * Theory: 
 394:Generated_Source\PSoC5/Comp_2.c **** *  This function is used to optimize the calibration for user specific voltage
 395:Generated_Source\PSoC5/Comp_2.c **** *  range.  The comparator trim is adjusted to counter transistor offsets
 396:Generated_Source\PSoC5/Comp_2.c **** *   - offset is defined as positive if the output transitions to high before inP
 397:Generated_Source\PSoC5/Comp_2.c **** *     is greater than inN
 398:Generated_Source\PSoC5/Comp_2.c **** *   - offset is defined as negative if the output transitions to high after inP
 399:Generated_Source\PSoC5/Comp_2.c **** *     is greater than inP
 400:Generated_Source\PSoC5/Comp_2.c **** *
 401:Generated_Source\PSoC5/Comp_2.c **** *  PSoC5A
 402:Generated_Source\PSoC5/Comp_2.c **** *  The Analog Comparator provides 1 byte for offset trim.  The byte contains two
 403:Generated_Source\PSoC5/Comp_2.c **** *  4 bit trim fields - one is a course trim and the other allows smaller
 404:Generated_Source\PSoC5/Comp_2.c **** *  offset adjustments only for slow modes.
 405:Generated_Source\PSoC5/Comp_2.c **** *  - low nibble - fine trim
 406:Generated_Source\PSoC5/Comp_2.c **** *  - high nibble - course trim
 407:Generated_Source\PSoC5/Comp_2.c **** *  PSoC3, PSoC5LP or later
 408:Generated_Source\PSoC5/Comp_2.c **** *  The Analog Comparator provides 2 bytes for offset trim.  The bytes contain two
 409:Generated_Source\PSoC5/Comp_2.c **** *  5 bit trim fields - one is a course trim and the other allows smaller
 410:Generated_Source\PSoC5/Comp_2.c **** *  offset adjustments only for slow modes.
 411:Generated_Source\PSoC5/Comp_2.c **** *  - TR0 - fine trim
 412:Generated_Source\PSoC5/Comp_2.c **** *  - TR1 - course trim
 413:Generated_Source\PSoC5/Comp_2.c **** *
 414:Generated_Source\PSoC5/Comp_2.c **** *  Trim algorithm is a two phase process
 415:Generated_Source\PSoC5/Comp_2.c **** *  The first phase performs course offset adjustment
 416:Generated_Source\PSoC5/Comp_2.c **** *  The second phase serves one of two purposes depending on the outcome of the
 417:Generated_Source\PSoC5/Comp_2.c **** *  first phase
 418:Generated_Source\PSoC5/Comp_2.c **** *  - if the first trim value was maxed out without a comparator output 
 419:Generated_Source\PSoC5/Comp_2.c **** *    transition, more offset will be added by adjusting the second trim value.
 420:Generated_Source\PSoC5/Comp_2.c **** *  - if the first trim phase resulted in a comparator output transition, the
 421:Generated_Source\PSoC5/Comp_2.c **** *    second trim value will serve as fine trim (in the opposite direction)to
 422:Generated_Source\PSoC5/Comp_2.c **** *    ensure the offset is < 1 mV.
 423:Generated_Source\PSoC5/Comp_2.c **** *
 424:Generated_Source\PSoC5/Comp_2.c **** * Trim Process:   
 425:Generated_Source\PSoC5/Comp_2.c **** *  1) User applies a voltage to the negative input.  Voltage should be in the
 426:Generated_Source\PSoC5/Comp_2.c **** *     comparator operating range or an average of the operating voltage range.
 427:Generated_Source\PSoC5/Comp_2.c **** *  2) Clear registers associated with analog routing to the positive input.
 428:Generated_Source\PSoC5/Comp_2.c **** *  3) Disable Hysteresis
 429:Generated_Source\PSoC5/Comp_2.c **** *  4) Set the calibration bit to short the negative and positive inputs to
 430:Generated_Source\PSoC5/Comp_2.c **** *     the users calibration voltage.
 431:Generated_Source\PSoC5/Comp_2.c **** *  5) Clear the TR register  ( TR = 0x00 )
 432:Generated_Source\PSoC5/Comp_2.c **** *  ** LOW MODES
 433:Generated_Source\PSoC5/Comp_2.c **** *  6) Check if compare output is high, if so, set the MSb of course trim field 
 434:Generated_Source\PSoC5/Comp_2.c **** *     to a 1.
 435:Generated_Source\PSoC5/Comp_2.c **** *  7) Increment the course trim field until the compare output changes
ARM GAS  C:\Users\Luggi\AppData\Local\Temp\ccnzdqOk.s 			page 55


 436:Generated_Source\PSoC5/Comp_2.c **** *  8) Check if compare output is low, if so, set the MSb of fine trim field
 437:Generated_Source\PSoC5/Comp_2.c **** *     to a 1.
 438:Generated_Source\PSoC5/Comp_2.c **** *  9) Increment the fine trim field until the compare output changes
 439:Generated_Source\PSoC5/Comp_2.c **** *  ** FAST MODE - skip the steps 8,9
 440:Generated_Source\PSoC5/Comp_2.c **** *
 441:Generated_Source\PSoC5/Comp_2.c **** * Side Effects:
 442:Generated_Source\PSoC5/Comp_2.c **** *  Routine clears analog routing associated with the comparator positive input.  
 443:Generated_Source\PSoC5/Comp_2.c **** *  This may affect routing of signals from other components that are connected
 444:Generated_Source\PSoC5/Comp_2.c **** *  to the positive input of the comparator.
 445:Generated_Source\PSoC5/Comp_2.c **** *
 446:Generated_Source\PSoC5/Comp_2.c **** *******************************************************************************/
 447:Generated_Source\PSoC5/Comp_2.c **** uint16 Comp_2_ZeroCal(void) 
 448:Generated_Source\PSoC5/Comp_2.c **** {
 888              		.loc 1 448 0
 889              		.cfi_startproc
 890              		@ args = 0, pretend = 0, frame = 0
 891              		@ frame_needed = 0, uses_anonymous_args = 0
 892 0000 F8B5     		push	{r3, r4, r5, r6, r7, lr}
 893              		.cfi_def_cfa_offset 24
 894              		.cfi_offset 3, -24
 895              		.cfi_offset 4, -20
 896              		.cfi_offset 5, -16
 897              		.cfi_offset 6, -12
 898              		.cfi_offset 7, -8
 899              		.cfi_offset 14, -4
 449:Generated_Source\PSoC5/Comp_2.c ****     uint8 tmpSW0;
 450:Generated_Source\PSoC5/Comp_2.c ****     uint8 tmpSW2;
 451:Generated_Source\PSoC5/Comp_2.c ****     uint8 tmpSW3;
 452:Generated_Source\PSoC5/Comp_2.c ****     uint8 tmpCR;
 453:Generated_Source\PSoC5/Comp_2.c **** 
 454:Generated_Source\PSoC5/Comp_2.c ****     /* Save a copy of routing registers associated with inP */
 455:Generated_Source\PSoC5/Comp_2.c ****     tmpSW0 = Comp_2_SW0;
 900              		.loc 1 455 0
 901 0002 1E48     		ldr	r0, .L41
 902 0004 0678     		ldrb	r6, [r0]	@ zero_extendqisi2
 903 0006 F6B2     		uxtb	r6, r6
 904              	.LVL12:
 456:Generated_Source\PSoC5/Comp_2.c ****     tmpSW2 = Comp_2_SW2;
 905              		.loc 1 456 0
 906 0008 1D49     		ldr	r1, .L41+4
 907 000a 0D78     		ldrb	r5, [r1]	@ zero_extendqisi2
 908 000c EDB2     		uxtb	r5, r5
 909              	.LVL13:
 457:Generated_Source\PSoC5/Comp_2.c ****     tmpSW3 = Comp_2_SW3;
 910              		.loc 1 457 0
 911 000e 1D4B     		ldr	r3, .L41+8
 912 0010 1C78     		ldrb	r4, [r3]	@ zero_extendqisi2
 913 0012 E4B2     		uxtb	r4, r4
 914              	.LVL14:
 458:Generated_Source\PSoC5/Comp_2.c **** 
 459:Generated_Source\PSoC5/Comp_2.c ****      /* Clear routing for inP, retain routing for inN */
 460:Generated_Source\PSoC5/Comp_2.c ****     Comp_2_SW0 = 0x00u;
 915              		.loc 1 460 0
 916 0014 0022     		movs	r2, #0
 917 0016 0270     		strb	r2, [r0]
 461:Generated_Source\PSoC5/Comp_2.c ****     Comp_2_SW2 = 0x00u;
 918              		.loc 1 461 0
ARM GAS  C:\Users\Luggi\AppData\Local\Temp\ccnzdqOk.s 			page 56


 919 0018 0A70     		strb	r2, [r1]
 462:Generated_Source\PSoC5/Comp_2.c ****     Comp_2_SW3 = tmpSW3 & (uint8)(~Comp_2_CMP_SW3_INPCTL_MASK);
 920              		.loc 1 462 0
 921 001a 04F0F601 		and	r1, r4, #246
 922 001e 1970     		strb	r1, [r3]
 463:Generated_Source\PSoC5/Comp_2.c **** 
 464:Generated_Source\PSoC5/Comp_2.c ****     /* Preserve original configuration
 465:Generated_Source\PSoC5/Comp_2.c ****      * - turn off Hysteresis
 466:Generated_Source\PSoC5/Comp_2.c ****      * - set calibration bit - shorts inN to inP
 467:Generated_Source\PSoC5/Comp_2.c ****     */
 468:Generated_Source\PSoC5/Comp_2.c ****     tmpCR = Comp_2_CR;
 923              		.loc 1 468 0
 924 0020 A3F52673 		sub	r3, r3, #664
 925 0024 1F78     		ldrb	r7, [r3]	@ zero_extendqisi2
 926 0026 FFB2     		uxtb	r7, r7
 927              	.LVL15:
 469:Generated_Source\PSoC5/Comp_2.c ****     Comp_2_CR |= (Comp_2_CAL_ON | Comp_2_HYST_OFF);
 928              		.loc 1 469 0
 929 0028 1978     		ldrb	r1, [r3]	@ zero_extendqisi2
 930 002a 41F03001 		orr	r1, r1, #48
 931 002e 1970     		strb	r1, [r3]
 470:Generated_Source\PSoC5/Comp_2.c ****     
 471:Generated_Source\PSoC5/Comp_2.c ****     /* Write default low values to trim register - no offset adjust */
 472:Generated_Source\PSoC5/Comp_2.c ****     /* PSoC5A */
 473:Generated_Source\PSoC5/Comp_2.c ****     #if (CY_PSOC5A)
 474:Generated_Source\PSoC5/Comp_2.c ****         Comp_2_TR = Comp_2_DEFAULT_CMP_TRIM;
 475:Generated_Source\PSoC5/Comp_2.c ****     #endif /* CY_PSOC5A */
 476:Generated_Source\PSoC5/Comp_2.c ****     
 477:Generated_Source\PSoC5/Comp_2.c ****     /* PSoC3, PSoC5LP or later */
 478:Generated_Source\PSoC5/Comp_2.c ****     #if (CY_PSOC3 || CY_PSOC5LP)
 479:Generated_Source\PSoC5/Comp_2.c ****         Comp_2_TR0 = Comp_2_DEFAULT_CMP_TRIM;
 932              		.loc 1 479 0
 933 0030 1549     		ldr	r1, .L41+12
 934 0032 0A70     		strb	r2, [r1]
 480:Generated_Source\PSoC5/Comp_2.c ****         Comp_2_TR1 = Comp_2_DEFAULT_CMP_TRIM;
 935              		.loc 1 480 0
 936 0034 0131     		adds	r1, r1, #1
 937 0036 0A70     		strb	r2, [r1]
 481:Generated_Source\PSoC5/Comp_2.c ****     #endif /* CY_PSOC3 || CY_PSOC5LP */
 482:Generated_Source\PSoC5/Comp_2.c **** 	
 483:Generated_Source\PSoC5/Comp_2.c **** 	/* Two phase trim - slow modes, one phase trim - for fast */ 
 484:Generated_Source\PSoC5/Comp_2.c ****     if ( (Comp_2_CR & Comp_2_PWR_MODE_MASK) == Comp_2_PWR_MODE_FAST)
 938              		.loc 1 484 0
 939 0038 1B78     		ldrb	r3, [r3]	@ zero_extendqisi2
 940 003a 03F00303 		and	r3, r3, #3
 941 003e 012B     		cmp	r3, #1
 942 0040 03D1     		bne	.L38
 485:Generated_Source\PSoC5/Comp_2.c ****     {
 486:Generated_Source\PSoC5/Comp_2.c ****         Comp_2_trimAdjust(0u);
 943              		.loc 1 486 0
 944 0042 1046     		mov	r0, r2
 945 0044 FFF7FEFF 		bl	Comp_2_trimAdjust
 946              	.LVL16:
 947 0048 05E0     		b	.L39
 948              	.L38:
 487:Generated_Source\PSoC5/Comp_2.c ****     }
 488:Generated_Source\PSoC5/Comp_2.c ****     else /* default to trim for fast modes */
ARM GAS  C:\Users\Luggi\AppData\Local\Temp\ccnzdqOk.s 			page 57


 489:Generated_Source\PSoC5/Comp_2.c ****     {
 490:Generated_Source\PSoC5/Comp_2.c ****         Comp_2_trimAdjust(1u);
 949              		.loc 1 490 0
 950 004a 0120     		movs	r0, #1
 951 004c FFF7FEFF 		bl	Comp_2_trimAdjust
 952              	.LVL17:
 491:Generated_Source\PSoC5/Comp_2.c **** 		Comp_2_trimAdjust(0u);
 953              		.loc 1 491 0
 954 0050 0020     		movs	r0, #0
 955 0052 FFF7FEFF 		bl	Comp_2_trimAdjust
 956              	.LVL18:
 957              	.L39:
 492:Generated_Source\PSoC5/Comp_2.c ****     }
 493:Generated_Source\PSoC5/Comp_2.c ****    
 494:Generated_Source\PSoC5/Comp_2.c ****     /* Restore Config Register */
 495:Generated_Source\PSoC5/Comp_2.c ****     Comp_2_CR = tmpCR;
 958              		.loc 1 495 0
 959 0056 0D4B     		ldr	r3, .L41+16
 960 0058 1F70     		strb	r7, [r3]
 496:Generated_Source\PSoC5/Comp_2.c ****     
 497:Generated_Source\PSoC5/Comp_2.c ****     /* Restore routing registers for inP */
 498:Generated_Source\PSoC5/Comp_2.c ****     Comp_2_SW0 = tmpSW0;
 961              		.loc 1 498 0
 962 005a 03F29523 		addw	r3, r3, #661
 963 005e 1E70     		strb	r6, [r3]
 499:Generated_Source\PSoC5/Comp_2.c ****     Comp_2_SW2 = tmpSW2;
 964              		.loc 1 499 0
 965 0060 0233     		adds	r3, r3, #2
 966 0062 1D70     		strb	r5, [r3]
 500:Generated_Source\PSoC5/Comp_2.c ****     Comp_2_SW3 = tmpSW3;
 967              		.loc 1 500 0
 968 0064 0133     		adds	r3, r3, #1
 969 0066 1C70     		strb	r4, [r3]
 501:Generated_Source\PSoC5/Comp_2.c ****     
 502:Generated_Source\PSoC5/Comp_2.c ****     /* PSoC5A */
 503:Generated_Source\PSoC5/Comp_2.c ****     #if (CY_PSOC5A)
 504:Generated_Source\PSoC5/Comp_2.c ****         return (uint16) Comp_2_TR;
 505:Generated_Source\PSoC5/Comp_2.c ****     #endif /* CY_PSOC5A */
 506:Generated_Source\PSoC5/Comp_2.c ****     
 507:Generated_Source\PSoC5/Comp_2.c ****     /* PSoC3, PSoC5LP or later */
 508:Generated_Source\PSoC5/Comp_2.c ****     #if (CY_PSOC3 || CY_PSOC5LP)
 509:Generated_Source\PSoC5/Comp_2.c ****         return ((uint16)((uint16)Comp_2_TR1 << 8u) | (Comp_2_TR0));        
 970              		.loc 1 509 0
 971 0068 A3F5A553 		sub	r3, r3, #5280
 972 006c 043B     		subs	r3, r3, #4
 973 006e 1878     		ldrb	r0, [r3]	@ zero_extendqisi2
 974 0070 013B     		subs	r3, r3, #1
 975 0072 1B78     		ldrb	r3, [r3]	@ zero_extendqisi2
 510:Generated_Source\PSoC5/Comp_2.c ****     #endif /* CY_PSOC3 || CY_PSOC5LP */
 511:Generated_Source\PSoC5/Comp_2.c **** }
 976              		.loc 1 511 0
 977 0074 43EA0020 		orr	r0, r3, r0, lsl #8
 978 0078 F8BD     		pop	{r3, r4, r5, r6, r7, pc}
 979              	.LVL19:
 980              	.L42:
 981 007a 00BF     		.align	2
 982              	.L41:
ARM GAS  C:\Users\Luggi\AppData\Local\Temp\ccnzdqOk.s 			page 58


 983 007c D85A0040 		.word	1073765080
 984 0080 DA5A0040 		.word	1073765082
 985 0084 DB5A0040 		.word	1073765083
 986 0088 36460040 		.word	1073759798
 987 008c 43580040 		.word	1073764419
 988              		.cfi_endproc
 989              	.LFE7:
 990              		.size	Comp_2_ZeroCal, .-Comp_2_ZeroCal
 991              		.section	.text.Comp_2_LoadTrim,"ax",%progbits
 992              		.align	2
 993              		.global	Comp_2_LoadTrim
 994              		.thumb
 995              		.thumb_func
 996              		.type	Comp_2_LoadTrim, %function
 997              	Comp_2_LoadTrim:
 998              	.LFB8:
 512:Generated_Source\PSoC5/Comp_2.c **** 
 513:Generated_Source\PSoC5/Comp_2.c **** 
 514:Generated_Source\PSoC5/Comp_2.c **** /*******************************************************************************
 515:Generated_Source\PSoC5/Comp_2.c **** * Function Name: Comp_2_LoadTrim
 516:Generated_Source\PSoC5/Comp_2.c **** ********************************************************************************
 517:Generated_Source\PSoC5/Comp_2.c **** *
 518:Generated_Source\PSoC5/Comp_2.c **** * Summary:
 519:Generated_Source\PSoC5/Comp_2.c **** *  This function stores a value in the Analog Comparator trim register.
 520:Generated_Source\PSoC5/Comp_2.c **** *
 521:Generated_Source\PSoC5/Comp_2.c **** * Parameters:  
 522:Generated_Source\PSoC5/Comp_2.c **** *  uint8 trimVal - trim value.  This value is the same format as the value 
 523:Generated_Source\PSoC5/Comp_2.c **** *  returned by the _ZeroCal routine.
 524:Generated_Source\PSoC5/Comp_2.c **** *
 525:Generated_Source\PSoC5/Comp_2.c **** * Return:
 526:Generated_Source\PSoC5/Comp_2.c **** *  None
 527:Generated_Source\PSoC5/Comp_2.c **** *
 528:Generated_Source\PSoC5/Comp_2.c **** *******************************************************************************/
 529:Generated_Source\PSoC5/Comp_2.c **** void Comp_2_LoadTrim(uint16 trimVal) 
 530:Generated_Source\PSoC5/Comp_2.c **** {
 999              		.loc 1 530 0
 1000              		.cfi_startproc
 1001              		@ args = 0, pretend = 0, frame = 0
 1002              		@ frame_needed = 0, uses_anonymous_args = 0
 1003              		@ link register save eliminated.
 1004              	.LVL20:
 531:Generated_Source\PSoC5/Comp_2.c ****     /* Stores value in the Analog Comparator trim register */
 532:Generated_Source\PSoC5/Comp_2.c ****     /* PSoC5A */
 533:Generated_Source\PSoC5/Comp_2.c ****     #if (CY_PSOC5A)
 534:Generated_Source\PSoC5/Comp_2.c ****         Comp_2_TR = (uint8) trimVal;
 535:Generated_Source\PSoC5/Comp_2.c ****     #endif /* CY_PSOC5A */
 536:Generated_Source\PSoC5/Comp_2.c ****     
 537:Generated_Source\PSoC5/Comp_2.c ****     /* PSoC3, PSoC5LP or later */
 538:Generated_Source\PSoC5/Comp_2.c ****     #if (CY_PSOC3 || CY_PSOC5LP)
 539:Generated_Source\PSoC5/Comp_2.c ****         /* Stores value in the Analog Comparator trim register for P-type load */
 540:Generated_Source\PSoC5/Comp_2.c ****         Comp_2_TR0 = (uint8) trimVal;
 1005              		.loc 1 540 0
 1006 0000 C2B2     		uxtb	r2, r0
 1007 0002 034B     		ldr	r3, .L44
 1008 0004 1A70     		strb	r2, [r3]
 541:Generated_Source\PSoC5/Comp_2.c ****         
 542:Generated_Source\PSoC5/Comp_2.c ****         /* Stores value in the Analog Comparator trim register for N-type load */
ARM GAS  C:\Users\Luggi\AppData\Local\Temp\ccnzdqOk.s 			page 59


 543:Generated_Source\PSoC5/Comp_2.c ****         Comp_2_TR1 = (uint8) (trimVal >> 8); 
 1009              		.loc 1 543 0
 1010 0006 000A     		lsrs	r0, r0, #8
 1011              	.LVL21:
 1012 0008 0133     		adds	r3, r3, #1
 1013 000a 1870     		strb	r0, [r3]
 1014 000c 7047     		bx	lr
 1015              	.L45:
 1016 000e 00BF     		.align	2
 1017              	.L44:
 1018 0010 36460040 		.word	1073759798
 1019              		.cfi_endproc
 1020              	.LFE8:
 1021              		.size	Comp_2_LoadTrim, .-Comp_2_LoadTrim
 1022              		.section	.text.Comp_2_PwrDwnOverrideEnable,"ax",%progbits
 1023              		.align	2
 1024              		.global	Comp_2_PwrDwnOverrideEnable
 1025              		.thumb
 1026              		.thumb_func
 1027              		.type	Comp_2_PwrDwnOverrideEnable, %function
 1028              	Comp_2_PwrDwnOverrideEnable:
 1029              	.LFB9:
 544:Generated_Source\PSoC5/Comp_2.c ****     #endif /* CY_PSOC3 || CY_PSOC5LP */
 545:Generated_Source\PSoC5/Comp_2.c **** }
 546:Generated_Source\PSoC5/Comp_2.c **** 
 547:Generated_Source\PSoC5/Comp_2.c **** 
 548:Generated_Source\PSoC5/Comp_2.c **** #if (CY_PSOC3 || CY_PSOC5LP)
 549:Generated_Source\PSoC5/Comp_2.c **** 
 550:Generated_Source\PSoC5/Comp_2.c ****     /*******************************************************************************
 551:Generated_Source\PSoC5/Comp_2.c ****     * Function Name: Comp_2_PwrDwnOverrideEnable
 552:Generated_Source\PSoC5/Comp_2.c ****     ********************************************************************************
 553:Generated_Source\PSoC5/Comp_2.c ****     *
 554:Generated_Source\PSoC5/Comp_2.c ****     * Summary:
 555:Generated_Source\PSoC5/Comp_2.c ****     *  This is the power down over-ride feature. This function ignores sleep 
 556:Generated_Source\PSoC5/Comp_2.c ****     *  parameter and allows the component to stay active during sleep mode.
 557:Generated_Source\PSoC5/Comp_2.c ****     *
 558:Generated_Source\PSoC5/Comp_2.c ****     * Parameters:
 559:Generated_Source\PSoC5/Comp_2.c ****     *  None
 560:Generated_Source\PSoC5/Comp_2.c ****     *
 561:Generated_Source\PSoC5/Comp_2.c ****     * Return:
 562:Generated_Source\PSoC5/Comp_2.c ****     *  None
 563:Generated_Source\PSoC5/Comp_2.c ****     *
 564:Generated_Source\PSoC5/Comp_2.c ****     *******************************************************************************/
 565:Generated_Source\PSoC5/Comp_2.c ****     void Comp_2_PwrDwnOverrideEnable(void) 
 566:Generated_Source\PSoC5/Comp_2.c ****     {
 1030              		.loc 1 566 0
 1031              		.cfi_startproc
 1032              		@ args = 0, pretend = 0, frame = 0
 1033              		@ frame_needed = 0, uses_anonymous_args = 0
 1034              		@ link register save eliminated.
 567:Generated_Source\PSoC5/Comp_2.c ****         /* Set the pd_override bit in CMP_CR register */
 568:Generated_Source\PSoC5/Comp_2.c ****         Comp_2_CR |= Comp_2_PWRDWN_OVRD;
 1035              		.loc 1 568 0
 1036 0000 024A     		ldr	r2, .L47
 1037 0002 1378     		ldrb	r3, [r2]	@ zero_extendqisi2
 1038 0004 43F00403 		orr	r3, r3, #4
 1039 0008 1370     		strb	r3, [r2]
ARM GAS  C:\Users\Luggi\AppData\Local\Temp\ccnzdqOk.s 			page 60


 1040 000a 7047     		bx	lr
 1041              	.L48:
 1042              		.align	2
 1043              	.L47:
 1044 000c 43580040 		.word	1073764419
 1045              		.cfi_endproc
 1046              	.LFE9:
 1047              		.size	Comp_2_PwrDwnOverrideEnable, .-Comp_2_PwrDwnOverrideEnable
 1048              		.section	.text.Comp_2_PwrDwnOverrideDisable,"ax",%progbits
 1049              		.align	2
 1050              		.global	Comp_2_PwrDwnOverrideDisable
 1051              		.thumb
 1052              		.thumb_func
 1053              		.type	Comp_2_PwrDwnOverrideDisable, %function
 1054              	Comp_2_PwrDwnOverrideDisable:
 1055              	.LFB10:
 569:Generated_Source\PSoC5/Comp_2.c ****     }
 570:Generated_Source\PSoC5/Comp_2.c **** 
 571:Generated_Source\PSoC5/Comp_2.c **** 
 572:Generated_Source\PSoC5/Comp_2.c ****     /*******************************************************************************
 573:Generated_Source\PSoC5/Comp_2.c ****     * Function Name: Comp_2_PwrDwnOverrideDisable
 574:Generated_Source\PSoC5/Comp_2.c ****     ********************************************************************************
 575:Generated_Source\PSoC5/Comp_2.c ****     *
 576:Generated_Source\PSoC5/Comp_2.c ****     * Summary:
 577:Generated_Source\PSoC5/Comp_2.c ****     *  This is the power down over-ride feature. This allows the component to stay
 578:Generated_Source\PSoC5/Comp_2.c ****     *  inactive during sleep.
 579:Generated_Source\PSoC5/Comp_2.c ****     *
 580:Generated_Source\PSoC5/Comp_2.c ****     * Parameters:
 581:Generated_Source\PSoC5/Comp_2.c ****     *  None
 582:Generated_Source\PSoC5/Comp_2.c ****     *
 583:Generated_Source\PSoC5/Comp_2.c ****     * Return:
 584:Generated_Source\PSoC5/Comp_2.c ****     *  None
 585:Generated_Source\PSoC5/Comp_2.c ****     *
 586:Generated_Source\PSoC5/Comp_2.c ****     *******************************************************************************/
 587:Generated_Source\PSoC5/Comp_2.c ****     void Comp_2_PwrDwnOverrideDisable(void) 
 588:Generated_Source\PSoC5/Comp_2.c ****     {
 1056              		.loc 1 588 0
 1057              		.cfi_startproc
 1058              		@ args = 0, pretend = 0, frame = 0
 1059              		@ frame_needed = 0, uses_anonymous_args = 0
 1060              		@ link register save eliminated.
 589:Generated_Source\PSoC5/Comp_2.c ****         /* Reset the pd_override bit in CMP_CR register */
 590:Generated_Source\PSoC5/Comp_2.c ****         Comp_2_CR &= (uint8)(~Comp_2_PWRDWN_OVRD);
 1061              		.loc 1 590 0
 1062 0000 024A     		ldr	r2, .L50
 1063 0002 1378     		ldrb	r3, [r2]	@ zero_extendqisi2
 1064 0004 03F0FB03 		and	r3, r3, #251
 1065 0008 1370     		strb	r3, [r2]
 1066 000a 7047     		bx	lr
 1067              	.L51:
 1068              		.align	2
 1069              	.L50:
 1070 000c 43580040 		.word	1073764419
 1071              		.cfi_endproc
 1072              	.LFE10:
 1073              		.size	Comp_2_PwrDwnOverrideDisable, .-Comp_2_PwrDwnOverrideDisable
 1074              		.global	Comp_2_initVar
ARM GAS  C:\Users\Luggi\AppData\Local\Temp\ccnzdqOk.s 			page 61


 1075              		.bss
 1076              		.set	.LANCHOR0,. + 0
 1077              		.type	Comp_2_initVar, %object
 1078              		.size	Comp_2_initVar, 1
 1079              	Comp_2_initVar:
 1080 0000 00       		.space	1
 1081              		.text
 1082              	.Letext0:
 1083              		.file 2 "Generated_Source\\PSoC5\\cytypes.h"
 1084              		.file 3 "Generated_Source\\PSoC5\\CyLib.h"