ARM GAS  C:\Users\Luggi\AppData\Local\Temp\ccfRUu5w.s 			page 1


   1              		.syntax unified
   2              		.cpu cortex-m3
   3              		.fpu softvfp
   4              		.eabi_attribute 20, 1
   5              		.eabi_attribute 21, 1
   6              		.eabi_attribute 23, 3
   7              		.eabi_attribute 24, 1
   8              		.eabi_attribute 25, 1
   9              		.eabi_attribute 26, 1
  10              		.eabi_attribute 30, 1
  11              		.eabi_attribute 34, 1
  12              		.eabi_attribute 18, 4
  13              		.thumb
  14              		.file	"Comp_2_PM.c"
  15              		.text
  16              	.Ltext0:
  17              		.section	.gnu.lto_.profile.304b3db1,"",%progbits
  18 0000 789C6366 		.ascii	"x\234cf```a\200\000F\006U~\000\000\315\000="
  18      60606061 
  18      80004606 
  18      557E0000 
  18      CD003D
  19              		.text
  20              		.section	.gnu.lto_.inline.304b3db1,"",%progbits
  21 0000 789C6366 		.ascii	"x\234cf\300\016\302\2404\013\003\0033\023#\003\023\220"
  21      C00EC2A0 
  21      340B0303 
  21      33132303 
  21      1390
  22 0012 C9B6401E 		.ascii	"\311\266@\036D10b\21001p\011\002Ex&\370!\024q\2015\263"
  22      44313062 
  22      88303170 
  22      09024578 
  22      26F82114 
  23 002a B303C5D9 		.ascii	"\263\003\305\331>\350\241\2123\000\000\364\226\005\344"
  23      3EE8A18A 
  23      330000F4 
  23      9605E4
  24              		.text
  25              		.section	.gnu.lto_.jmpfuncs.304b3db1,"",%progbits
  26 0000 789C6366 		.ascii	"x\234cf\300\016\004\2404\013\0203200A\231\014\000\002"
  26      C00E04A0 
  26      340B1033 
  26      32303041 
  26      990C0002 
  27 0014 B2001F   		.ascii	"\262\000\037"
  28              		.text
  29              		.section	.gnu.lto_.pureconst.304b3db1,"",%progbits
  30 0000 789C6366 		.ascii	"x\234cf``\340d\200\000\026\006\006F\006&)\026\011\000"
  30      6060E064 
  30      80001606 
  30      06460626 
  30      29160900 
  31 0014 018D004A 		.ascii	"\001\215\000J"
  32              		.text
  33              		.section	.gnu.lto_Comp_2_SaveConfig.304b3db1,"",%progbits
  34 0000 789C6366 		.ascii	"x\234cf\300\004R@\\\012\304\252@\314\310\314\300\310"
ARM GAS  C:\Users\Luggi\AppData\Local\Temp\ccfRUu5w.s 			page 2


  34      C0045240 
  34      5C0AC4AA 
  34      40CCC8CC 
  34      C0C8
  35 0012 34E11C03 		.ascii	"4\341\034\003C#\007\023##\210\301\300\310P\317\304X"
  35      43230713 
  35      232388C1 
  35      C0C850CF 
  35      C458
  36 0024 CFF892E9 		.ascii	"\317\370\222\351#\023\343\204\003\253gp\253/mhh\370"
  36      2313E384 
  36      03AB6770 
  36      AB2F6D68 
  36      68F8
  37 0036 F0E86463 		.ascii	"\360\350dc\300\001\306\237L\014\014\237\231 \3460.g"
  37      C001C69F 
  37      4C0C0C9F 
  37      9920E630 
  37      2E67
  38 0048 5467002A 		.ascii	"Tg\000*\372\330\362\367:7[\013P\221\000D\216q\005#\033"
  38      FAD8F2F7 
  38      3A375B0B 
  38      50910044 
  38      8E710523 
  39 005d 23905E2F 		.ascii	"#\220^/t\240\341\377\377\317\313\017nb\004\012?\001"
  39      74A0E1FF 
  39      FFCFCB0F 
  39      6E62040A 
  39      3F01
  40 006f 6290054F 		.ascii	"b\220\005O\231\230@4\363=FF\220B\220IO\230\030AB@\005"
  40      99984034 
  40      F33D4646 
  40      90429049 
  40      4F981841 
  41 0086 CAEEA979 		.ascii	"\312\356\251y\251E\211%\251)\361\301\371\245E\311\251"
  41      A9458925 
  41      A929F1C1 
  41      F9A545C9 
  41      A9
  42 0097 3101C1F9 		.ascii	"1\001\301\371\316\2461\316\371\271\005\361F\361\001"
  42      CEA631CE 
  42      F9B905F1 
  42      46F101
  43 00a6 BE7AC90C 		.ascii	"\276z\311\014\000N\"6\256"
  43      004E2236 
  43      AE
  44              		.text
  45              		.section	.gnu.lto_Comp_2_RestoreConfig.304b3db1,"",%progbits
  46 0000 789C6366 		.ascii	"x\234cf\300\004R@\\\012\304\252@\314\310\314\300\310"
  46      C0045240 
  46      5C0AC4AA 
  46      40CCC8CC 
  46      C0C8
  47 0012 34E11C03 		.ascii	"4\341\034\003C#\007\023##\210\301\300\310P\317\304X"
  47      43230713 
  47      232388C1 
  47      C0C850CF 
ARM GAS  C:\Users\Luggi\AppData\Local\Temp\ccfRUu5w.s 			page 3


  47      C458
  48 0024 CFF892E9 		.ascii	"\317\370\222\351#\023\343\204\003\253gp\253/mhh\370"
  48      2313E384 
  48      03AB6770 
  48      AB2F6D68 
  48      68F8
  49 0036 B0E87C63 		.ascii	"\260\350|c\300\001\306\237L\014\014\237\231 \3460.g"
  49      C001C69F 
  49      4C0C0C9F 
  49      9920E630 
  49      2E67
  50 0048 5467002A 		.ascii	"Tg\000*\372\330\362\367:7[\013P\221\000D\216q\005#\033"
  50      FAD8F2F7 
  50      3A375B0B 
  50      50910044 
  50      8E710523 
  51 005d 23905E2F 		.ascii	"#\220^/t\240\341\377\377\317{\017\376b\004\012?\001"
  51      74A0E1FF 
  51      FFCF7B0F 
  51      FE62040A 
  51      3F01
  52 006f 6290054F 		.ascii	"b\220\005O\231\230@4\363=FF\220B\220IO\230\030AB@\005"
  52      99984034 
  52      F33D4646 
  52      90429049 
  52      4F981841 
  53 0086 CAEEA979 		.ascii	"\312\356\251y\251E\211%\251)\361\301\371\245E\311\251"
  53      A9458925 
  53      A929F1C1 
  53      F9A545C9 
  53      A9
  54 0097 3101C1F9 		.ascii	"1\001\301\371\316\2461\316\371\271\005\361F\361\001"
  54      CEA631CE 
  54      F9B905F1 
  54      46F101
  55 00a6 BE7AC90C 		.ascii	"\276z\311\014\000K\2506\322"
  55      004BA836 
  55      D2
  56              		.text
  57              		.section	.gnu.lto_Comp_2_Sleep.304b3db1,"",%progbits
  58 0000 789C8591 		.ascii	"x\234\205\221MH\024a\030\307\237\3773\357\214S\012E"
  58      4D481461 
  58      18C79FFF 
  58      33EF8C53 
  58      0A45
  59 0012 27F1B097 		.ascii	"'\361\260\227\010O*\010\035;y\360\024\010^:\010K\330"
  59      084F2A08 
  59      1D3B79F0 
  59      14085E3A 
  59      084BD8
  60 0025 1E6B43EA 		.ascii	"\036kC\352\326\342;\356\364I\344z0\302\262C\224k\355"
  60      D6E23BEE 
  60      F449E47A 
  60      30C2B243 
  60      946BED
  61 0038 E6575987 		.ascii	"\346WY\207<\014]\252K!)\221\310\006\261B]bm\241\032"
  61      3C0C5DAA 
ARM GAS  C:\Users\Luggi\AppData\Local\Temp\ccfRUu5w.s 			page 4


  61      4B212991 
  61      C806B142 
  61      5D626DA1 
  62 004d C4EC79DF 		.ascii	"\304\354y\337\261\017\014j`\346y?~\363\377\377\337\347"
  62      B10F0C6A 
  62      60E6793F 
  62      7EF3FFFF 
  62      DFE7
  63 005f 75E8EFE7 		.ascii	"u\350\357\347\220\274G\230\350\200Tx\004.\274$\012|"
  63      90BC4798 
  63      E8805478 
  63      042EBC24 
  63      0A7C
  64 0071 66672145 		.ascii	"fg!Ez\267Z\352 \335\344\300M\226\325\317\201\013\230"
  64      7AB75AEA 
  64      20DDE4C0 
  64      4D96D5CF 
  64      810B98
  65 0084 018106D9 		.ascii	"\001\201\006\331Q.\006\361\221\327\031\205\250t\255"
  65      512E06F1 
  65      91D71985 
  65      A874AD
  66 0093 B1F58ED6 		.ascii	"\261\365\216\326\272vk\276\371ls,\312uN\234PD+\011\263"
  66      BA766BBE 
  66      F96C732C 
  66      CA754E9C 
  66      50442B09 
  67 00a8 1E6EBE69 		.ascii	"\036n\276i\364Ba\366&{\230\204\007\251\323\373\"\275"
  67      F44261F6 
  67      267B9884 
  67      07A9D3FB 
  67      22BD
  68 00ba B5555F1E 		.ascii	"\265U_\036y\336\011\237)f(\363!\252\012e\334\326\230"
  68      79DE099F 
  68      296628F3 
  68      21AA0A65 
  68      DCD698
  69 00cd 4D7556F0 		.ascii	"MuV\360\364\313\245Ocg\314\217_Y\211\346\306\305\312"
  69      F4CBA54F 
  69      6367CC8F 
  69      5F5989E6 
  69      C6C5CA
  70 00e0 7BF58163 		.ascii	"{\365\201c\346\342\371@+c\363\256\372j\321\267Kd\246"
  70      E6E2F940 
  70      2B63F3AE 
  70      FA6AD1B7 
  70      4B64A6
  71 00f3 8517C5A1 		.ascii	"\205\027\305\241\246q\\\017B\304\354\340.Zp\017-b^\302"
  71      A6715C0F 
  71      42C4ECE0 
  71      2E5A700F 
  71      2D625EC2 
  72 0107 386805F9 		.ascii	"8h\005\371o\347\252n\"\310\211\346\355\321\253e\327"
  72      6FE7AA6E 
  72      22C889E6 
  72      EDD1AB65 
  72      D7
ARM GAS  C:\Users\Luggi\AppData\Local\Temp\ccfRUu5w.s 			page 5


  73 0118 08C02794 		.ascii	"\010\300'\224\205]F\3706\237\332f\004\010&\236\\n\260"
  73      855D46F8 
  73      369FDA66 
  73      0408269E 
  73      5C6EB0
  74 012b 80C8DC37 		.ascii	"\200\310\3347bd2:\264\220\222\210C\265\231\325\331]"
  74      6264323A 
  74      B4909288 
  74      43B599D5 
  74      D95D
  75 013d 8616F4E6 		.ascii	"\206\026\364\346\353+S\234\333\320\027\264\037\263\332"
  75      EB2B539C 
  75      DBD017B4 
  75      1FB3DA
  76 014c 34A7FE33 		.ascii	"4\247\3763\242\262\323\311 \274\001\023Q\033\312\305"
  76      A2B2D3C9 
  76      20BC0113 
  76      511BCAC5 
  77 015c 14729836 		.ascii	"\024r\2306\262\262\367\275<<\347\265\225\244iQ{\314"
  77      B2B2F7BD 
  77      3C3CE7B5 
  77      95A46951 
  77      7BCC
  78 016e 1E6604FC 		.ascii	"\036f\004\374l\033\213Y\264\011\26086\221\337c\264\244"
  78      6C1B8B59 
  78      B409B038 
  78      3691DF63 
  78      B4A4
  79 0180 9598B361 		.ascii	"\225\230\263a\326Dw\251\303F\251U\376\023e\247\367\203"
  79      D64477A9 
  79      C346A955 
  79      FE1365A7 
  79      F783
  80 0192 7F783FFC 		.ascii	"\177x?\374\355=o\275\177\235\303\223\245G\333\336\256"
  80      ED3D6FBD 
  80      7F9DC393 
  80      A547DBDE 
  80      AE
  81 01a3 BDAA55E4 		.ascii	"\275\252U\344\243\221gl\274i\247yC\335v\3561rr\315>"
  81      A391676C 
  81      BC69A779 
  81      43DD76EE 
  81      317272CD 
  82 01b8 551044A3 		.ascii	"U\020D\243\335\226$s\3470\002b\263\277;s\"3p\364T\346"
  82      DD962473 
  82      E7300262 
  82      B3BF3B73 
  82      223370F4 
  83 01ce 58BA377B 		.ascii	"X\2727{z\240?\323\327\323\233\355:\330\327\225=~2\335"
  83      7AA03FD3 
  83      D7D39BED 
  83      3AD8D795 
  83      3D7E32DD 
  84 01e2 99EE39DC 		.ascii	"\231\3569\334\336O?\000\016\015\344\200"
  84      DE4F3F00 
  84      0E0DE480 
  85              		.text
ARM GAS  C:\Users\Luggi\AppData\Local\Temp\ccfRUu5w.s 			page 6


  86              		.section	.gnu.lto_Comp_2_Wakeup.304b3db1,"",%progbits
  87 0000 789C654F 		.ascii	"x\234eO1HBQ\024\275\347\276\257H\012FS44\024\341\020"
  87      31484251 
  87      14BDE7BE 
  87      AF480A46 
  87      53343414 
  88 0016 3614AD2D 		.ascii	"6\024\255-\016A\021\010\256\202\2049\226!5\212\3174"
  88      0E411108 
  88      AE828439 
  88      9621358A 
  88      CF34
  89 0028 682AA325 		.ascii	"h*\243%(\333\"K30h\013\234\024\032\012\211(\"j1\260"
  89      28DB224B 
  89      3330680B 
  89      9C141A0A 
  89      8928226A 
  90 003e 2D750829 		.ascii	"-u\010)\263\367\276CP\017\036\367\275s\3179\367\036"
  90      B3F7BE43 
  90      500F1EF7 
  90      BD73CF39 
  90      F71E
  91 0050 41FFCF84 		.ascii	"A\377\317\204\272\263 \032Q\025\026\002\247\256\211"
  91      BAB3201A 
  91      51151602 
  91      A7AE89
  92 005f E2366651 		.ascii	"\3426fQr\222\3541\256\246H:\004\214.l\000\372A\240\030"
  92      7292EC31 
  92      AEA6483A 
  92      048C2E6C 
  92      00FA41A0 
  93 0074 0B0331BC 		.ascii	"\013\0031\274q\235\221*fw\355\256C)\345{\343\262\177"
  93      719D912A 
  93      6677EDAE 
  93      4329E57B 
  93      E3B27F
  94 0087 BDBFC544 		.ascii	"\275\277\305DM\356\372\343\010.R\234z\262}o\267&\025"
  94      4DEEFAE3 
  94      082E529C 
  94      7AB27D6F 
  94      B72615
  95 009a A7B7DB43 		.ascii	"\247\267\333C\006V5\227\316\372\212\262\3239\377\332"
  95      06563597 
  95      CEFA8AB2 
  95      D339FFDA 
  96 00aa CE0CB145 		.ascii	"\316\014\261EP\213\025XU\004=\347\225YW\361\210\265"
  96      508B1558 
  96      55043DE7 
  96      955957F1 
  96      88B5
  97 00bc 8B7ABB62 		.ascii	"\213z\273b\321\232\017\026\312\356\340v3\317\321O\271"
  97      D19A0F16 
  97      CAEEE076 
  97      33CFD14F 
  97      B9
  98 00cd 216D2DE6 		.ascii	"!m-\346\2666T\350K\365\246b\253\261B\314o&\236\334G"
  98      B63654E8 
  98      4BF5A662 
ARM GAS  C:\Users\Luggi\AppData\Local\Temp\ccfRUu5w.s 			page 7


  98      ABB142CC 
  98      6F269EDC 
  99 00e2 1A7B71A9 		.ascii	"\032{q\251Y\002\307\210\342\004\003f\357;\267U\260\272"
  99      5902C788 
  99      E2040366 
  99      EF3BB755 
  99      B0BA
 100 00f4 475B6C20 		.ascii	"G[l \2538\015s]\344\340\246;$\037\022\203\277\243\312"
 100      AB380D73 
 100      5DE4E0A6 
 100      3B241F12 
 100      83BFA3CA 
 101 0108 E95AC1D0 		.ascii	"\351Z\301\320\246\000\341T\313Io&\250\344\024OH\024"
 101      A600E154 
 101      CB496F26 
 101      A8E4144F 
 101      4814
 102 011a DB658726 		.ascii	"\333e\207&\323\337\255,M\035\005yDU(\253\2511\3144\317"
 102      D3DFAD2C 
 102      4D1D0579 
 102      445528AB 
 102      A931CC34 
 103 012f 88177766 		.ascii	"\210\027wfL\015\351\254\320\250\232?<\035Z\012E\346"
 103      4C0DE9AC 
 103      D0A89A3F 
 103      3C1D5A0A 
 103      45E6
 104 0141 57420B01 		.ascii	"WB\013\001_x5\022\014\371\275\276\260g\322\357\011/"
 104      5F783512 
 104      0CF9BDBE 
 104      B067D2EF 
 104      092F
 105 0153 2E07C603 		.ascii	".\007\306\003\336\271\261 \375\0006\377\203."
 105      DEB9B120 
 105      FD0036FF 
 105      832E
 106              		.text
 107              		.section	.gnu.lto_.symbol_nodes.304b3db1,"",%progbits
 108 0000 789C55C8 		.ascii	"x\234U\310\261\015\2000\014\005\321\213\035G\014\301"
 108      B10D8030 
 108      0C05D18B 
 108      1D470CC1 
 109 0010 9CB43F23 		.ascii	"\234\264?#PQg\020Jjv@b\016\004\022\024\341\272w\016"
 109      50516710 
 109      4A6A7640 
 109      620E0412 
 109      14E1BA77 
 110 0025 4C7C5912 		.ascii	"L|Y\022\314;H,m\300L\351g\227\365\016h&\267,\357w\012"
 110      CC3B482C 
 110      6DC04CE9 
 110      6797F50E 
 110      6826B72C 
 111 003c E5D7D4FA 		.ascii	"\345\327\324\372\260(:\272\005\333q%\317\205s\035\271"
 111      B0283ABA 
 111      05DB7125 
 111      CF85731D 
 111      B9
ARM GAS  C:\Users\Luggi\AppData\Local\Temp\ccfRUu5w.s 			page 8


 112 004d 01DAB81D 		.ascii	"\001\332\270\035t"
 112      74
 113              		.text
 114              		.section	.gnu.lto_.refs.304b3db1,"",%progbits
 115 0000 789C6366 		.ascii	"x\234cf``\340c\200\000&&Ff\026FfVF\026\006fF\006\000"
 115      6060E063 
 115      80002626 
 115      46661646 
 115      66564616 
 116 0019 02900030 		.ascii	"\002\220\0000"
 117              		.text
 118              		.section	.gnu.lto_.decls.304b3db1,"",%progbits
 119 0000 789C8D94 		.ascii	"x\234\215\224kh\023K\024\307\347d\266i\232&\326K\245"
 119      6B68134B 
 119      14C7E764 
 119      B6699A26 
 119      D64BA5
 120 0013 4ABF182D 		.ascii	"J\277\030-\024\225\"\"\010~S(\242pQ\212Q\374\240Pb\\"
 120      14952222 
 120      087E5328 
 120      A270518A 
 120      51FCA050 
 121 0029 1FA84D88 		.ascii	"\037\250M\210\211\340\267i\"F\252\224\326\007-\245H"
 121      89E0B769 
 121      2246AA94 
 121      D6072DA5 
 121      48
 122 003a D46035D6 		.ascii	"\324`5\326\264\366\2455\332w\355\313\212xk\261\212\020"
 122      B4F6A535 
 122      DA77EDCB 
 122      8A786BB1 
 122      8A10
 123 004c 7B2FDEAB 		.ascii	"{/\336\253\242]\253\026\264\302\336\263\263\273&U\253"
 123      A25DAB16 
 123      B4C2DEB3 
 123      B3BB2655 
 123      AB
 124 005d 0E9CCDCC 		.ascii	"\016\234\315\314\316\371\377\3169s&K\011!+\200\020\031"
 124      CEF9FFCE 
 124      3973264B 
 124      09212B80 
 124      1019
 125 006f 47AF4088 		.ascii	"G\257@\210\200\363\024|W@\022\303\210V\213\026E\253"
 125      80F3147C 
 125      574012C3 
 125      88568B16 
 125      45AB
 126 0081 476B406B 		.ascii	"Gk@kBkACw\322Cf\216Z\355\275\316\000\355\335\267#\372"
 126      426B4143 
 126      77D24366 
 126      8E5AEDBD 
 126      CE00EDDD 
 127 0098 03BFE80F 		.ascii	"\003\277\350\017\374\224\230i\232_\026\332\000Z\037"
 127      FC949869 
 127      9A5F16DA 
 127      005A1F
 128 00a7 DA205A27 		.ascii	"\332 Z'Z\014m\010\355\212\306hC3h\272\246YrTjHMb\376"
ARM GAS  C:\Users\Luggi\AppData\Local\Temp\ccfRUu5w.s 			page 9


 128      5A0C6D08 
 128      ED8AC668 
 128      433368BA 
 128      A6597254 
 129 00c0 8AD5F093 		.ascii	"\212\325\360\223z\337\031\2405\372a8\375?\003\3141\333"
 129      7ADF19A0 
 129      35FA6138 
 129      FD3F03CC 
 129      31DB
 130 00d2 94E5AD53 		.ascii	"\224\345\255S\375\225F\\Z\314\202\262\214M\217\217\010"
 130      FD95465C 
 130      5ACC82B2 
 130      8C4D8F8F 
 130      08
 131 00e3 F3CF321C 		.ascii	"\363\3172\034e\0016W\200\202,\250\201l\270\014\331H"
 131      65013657 
 131      80822CA8 
 131      816CB80C 
 131      D948
 132 00f5 BC02F3F1 		.ascii	"\274\002\363\361\271]PI\323=\217'L\324\000\312\374b"
 132      B95D5049 
 132      D33D8F27 
 132      4CD400CA 
 132      FC62
 133 0107 E5F31173 		.ascii	"\345\363\021s^\004e\307YG\334\220\010\327\365\357\303"
 133      5E0465C7 
 133      5947DC90 
 133      08D7F5EF 
 133      C3
 134 0118 6AABED1C 		.ascii	"j\253\355\034\223\352\245X\365\230\205\365\263\016Y"
 134      93EAA558 
 134      F59885F5 
 134      B30E59
 135 0127 5EC35110 		.ascii	"^\303Q\020\001\012W!\217\037(\316\325\223\255\005\033"
 135      010A5721 
 135      8F1F28CE 
 135      D593AD05 
 135      1B
 136 0138 CA2E7C8E 		.ascii	"\312.|\216\235N\241k8{\374U\360K*G\204>7\260\265G\331"
 136      9D4EA16B 
 136      387BFC55 
 136      F04B2A47 
 136      843E37B0 
 137 014f 1759A61C 		.ascii	"\027Y\246\034p-\011pM\007D9 X5\0346\322-\034p\257\365"
 137      702D0970 
 137      4D074439 
 137      2058351C 
 137      36D22D1C 
 138 0166 CDDB0C04 		.ascii	"\315\333\014\004\204\352C\221\213F5\003\256\257K\322"
 138      84EA4391 
 138      8B463503 
 138      AEAF4BD2 
 139 0176 D7E9FA7A 		.ascii	"\327\351\372z\256\017O\214\027\033\251\203\353\207\375"
 139      AE0F4F8C 
 139      171BA983 
 139      EB87FD
 140 0185 CD8D5655 		.ascii	"\315\215VU?1C\177=I\177]\3277p}\033\353|'P\027\327\227"
ARM GAS  C:\Users\Luggi\AppData\Local\Temp\ccfRUu5w.s 			page 10


 140      3F31437F 
 140      3D497F5D 
 140      D737707D 
 140      1BEB7C27 
 141 019d 753FA951 		.ascii	"u?\251Q\364q&M\007\3067\224\007\312\302,.\313\013\325"
 141      F471264D 
 141      07C63794 
 141      07CAC22C 
 141      2ECB0BD5 
 142 01b1 53684C82 		.ascii	"ShL\2024\352\220&\016\231l9}/\203V\003\247L\276|]\223"
 142      34EA9026 
 142      0E996C39 
 142      7D2F8356 
 142      03A74CBE 
 143 01c8 C629F1D2 		.ascii	"\306)\361\322n\261K=\006\025\321\234\204h\326\021-\034"
 143      6EB14B3D 
 143      0615D19C 
 143      8468D611 
 143      2D1C
 144 01da 119BBA14 		.ascii	"\021\233\272\024\267\320\210\212\030m\017\006M\264M"
 144      B7D0888A 
 144      186D0F06 
 144      4DB44D
 145 01e9 5D145F8A 		.ascii	"]\024_\212\235L\305\316g\231y\243J\207\252:)_\312\312"
 145      9D4CC5CE 
 145      679979A3 
 145      4A87AA3A 
 145      295FCACA 
 146 01fd B6616CEC 		.ascii	"\266al\354\314'\012\346\334\343\214\371\231t\212\321"
 146      CC270AE6 
 146      DCE38CF9 
 146      99748AD1 
 147 020d 0504F2B2 		.ascii	"\005\004\362\262ai6\201\333\220\213n<\"\264\342\345"
 147      61693681 
 147      DB908B6E 
 147      3C22B4E2 
 147      E5
 148 021e B8859723 		.ascii	"\270\205\227#\214\255\227N\366E\376\014\260\265\020"
 148      8CAD974E 
 148      F645FE0C 
 148      B0B510
 149 022d 0333DCFC 		.ascii	"\0033\334\374\232\023\217\240]\207\366\350_\225&\372"
 149      9A138FA0 
 149      5D87F6E8 
 149      5F9526FA 
 150 023d 8267404B 		.ascii	"\202g@K\337\027\367f\300\342\314\334\020\306\220\246"
 150      DF17F766 
 150      C0E2CCDC 
 150      10C690A6 
 151 024d FF1EB556 		.ascii	"\377\036\265V\260x\007p\371\035\224\267C\246\036r\211"
 151      B0780770 
 151      F91D94B7 
 151      43A61E72 
 151      89
 152 025e 72FD96E1 		.ascii	"r\375\226\341\203\224+wS\362c\024=\037\302\0351\026"
 152      83942B77 
 152      53F26314 
ARM GAS  C:\Users\Luggi\AppData\Local\Temp\ccfRUu5w.s 			page 11


 152      3D1FC21D 
 152      3116
 153 0270 7460626D 		.ascii	"t`bm\260\230\007S\022\212\217\2554)\233D?\035=\017\303"
 153      B0980753 
 153      128A8FAD 
 153      34299B44 
 153      3F1D3D0F 
 154 0285 C7AA477E 		.ascii	"\307\252G~\200\314\334\357i\320\205\220Y\201\317\004"
 154      80CCDCEF 
 154      69D08590 
 154      5981CF04 
 155 0295 804EDCBC 		.ascii	"\200N\334\274\221\250N\341\353\345\335\375X>\010tR="
 155      91A84EE1 
 155      EBE5DDFD 
 155      583E0874 
 155      523D
 156 02a7 E092636F 		.ascii	"\340\222co\036\245\344\234g,$\305\236HP\301B~\306\224"
 156      1EA5E49C 
 156      672C24C5 
 156      9E4850C1 
 156      427EC694 
 157 02bb ABC309DD 		.ascii	"\253\303\011\335*\341k\015\335j\337\240\007rP\313*N"
 157      2AE16B0D 
 157      DD6ADFA0 
 157      077250CB 
 157      2A4E
 158 02cd 844D94A9 		.ascii	"\204M\224\251\177\256\346\251\222V\253\031\033\021\370"
 158      7FAEE6A9 
 158      9256AB19 
 158      1B11F8
 159 02dc 8D466071 		.ascii	"\215F`q#\367KF\323\324\326}\253\350\237\265u\301v\313"
 159      23F74B46 
 159      D3D4D67D 
 159      ABE89FB5 
 159      75C176CB 
 160 02f0 006326E8 		.ascii	"\000c&\350\303\303\357MTw\027\022\315\033\031\362?\245"
 160      C3C3EF4D 
 160      54771712 
 160      CD1B19F2 
 160      3FA5
 161 0302 9612E542 		.ascii	"\226\022\345B\340\307!m\003\367M|\035\006\300\302+\300"
 161      E0C7216D 
 161      03F74D7C 
 161      1D06C0C2 
 161      2BC0
 162 0314 5F74965F 		.ascii	"_t\226_\364\376\223\232\354\254\024\235p\036\324\234"
 162      F4FE939A 
 162      ECAC149D 
 162      701ED49C 
 163 0324 07B973DD 		.ascii	"\007\271s\335\324\203Hz\262\263r\253\023\316C`\321\363"
 163      D483487A 
 163      B2B372AB 
 163      13CE4360 
 163      D1F3
 164 0336 C129F923 		.ascii	"\301)\371#\337u\320]\270\262\320\3568,\346\273\212v"
 164      DF75D05D 
 164      B8B2D0EE 
ARM GAS  C:\Users\Luggi\AppData\Local\Temp\ccfRUu5w.s 			page 12


 164      382CE6BB 
 164      8A76
 165 0348 EFDB635C 		.ascii	"\357\333c\\\277i\253-\237\344\254\027\213D\217\303+"
 165      BF69AB2D 
 165      9FE4AC17 
 165      8B448FC3 
 165      2B
 166 0359 EE2AB4BB 		.ascii	"\356*\264\273|\036\247\270\243\300\356\312_\265C\363"
 166      7C1EA7B8 
 166      A3C0EECA 
 166      5FB543F3 
 167 0369 2FD8B8DC 		.ascii	"/\330\270\334I\346i\213\315\342!\257\313\243\351-:\361"
 167      49E6698B 
 167      CDE221AF 
 167      CBA3E92D 
 167      3AF1
 168 037b 8028BAAD 		.ascii	"\200(\272\255\332b\233c\277\350s\247\353[^\227\333\366"
 168      DA629B63 
 168      BFE873A7 
 168      EB5B5E97 
 168      DBF6
 169 038d 53FEF2BD 		.ascii	"S\376\362\275D\227\256+r\354< fj\253\235\016\347~\237"
 169      4497AE2B 
 169      72EC3C20 
 169      666AAB9D 
 169      0EE77E9F 
 170 03a1 DBEEF5F8 		.ascii	"\333\356\365\370\234\336\024\337\276\"\357\352E\263"
 170      9CDE14DF 
 170      BE22EFEA 
 170      45B3
 171 03af 809C47BC 		.ascii	"\200\234G\274G\334\342!$\245\213\034a\367\242\223u\006"
 171      47DCE221 
 171      24A58B1C 
 171      61F7A293 
 171      7506
 172 03c1 47F0887B 		.ascii	"G\360\210{V\377\017\230\233\347\325"
 172      56FF0F98 
 172      9BE7D5
 173              		.text
 174              		.section	.gnu.lto_.symtab.304b3db1,"",%progbits
 175 0000 436F6D70 		.ascii	"Comp_2_SaveConfig\000\000\000\000\000\000\000\000\000"
 175      5F325F53 
 175      61766543 
 175      6F6E6669 
 175      67000000 
 176 001a 000000AC 		.ascii	"\000\000\000\254\000\000\000Comp_2_RestoreConfig\000"
 176      00000043 
 176      6F6D705F 
 176      325F5265 
 176      73746F72 
 177 0036 00000000 		.ascii	"\000\000\000\000\000\000\000\000\000\000\000\256\000"
 177      00000000 
 177      000000AE 
 177      00
 178 0043 0000436F 		.ascii	"\000\000Comp_2_Sleep\000\000\000\000\000\000\000\000"
 178      6D705F32 
 178      5F536C65 
ARM GAS  C:\Users\Luggi\AppData\Local\Temp\ccfRUu5w.s 			page 13


 178      65700000 
 178      00000000 
 179 0059 00000000 		.ascii	"\000\000\000\000\260\000\000\000Comp_2_Wakeup\000\000"
 179      B0000000 
 179      436F6D70 
 179      5F325F57 
 179      616B6575 
 180 0070 00000000 		.ascii	"\000\000\000\000\000\000\000\000\000\000\262\000\000"
 180      00000000 
 180      0000B200 
 180      00
 181 007d 00436F6D 		.ascii	"\000Comp_2_Stop\000\000\002\000\000\000\000\000\000"
 181      705F325F 
 181      53746F70 
 181      00000200 
 181      00000000 
 182 0092 000000B4 		.ascii	"\000\000\000\264\000\000\000Comp_2_Enable\000\000\002"
 182      00000043 
 182      6F6D705F 
 182      325F456E 
 182      61626C65 
 183 00a9 00000000 		.ascii	"\000\000\000\000\000\000\000\000\000\266\000\000\000"
 183      00000000 
 183      00B60000 
 183      00
 184              		.text
 185              		.section	.gnu.lto_.opts,"",%progbits
 186 0000 272D666E 		.ascii	"'-fno-trapv' '-fno-strict-overflow' '-mcpu=cortex-m"
 186      6F2D7472 
 186      61707627 
 186      20272D66 
 186      6E6F2D73 
 187 0033 33272027 		.ascii	"3' '-mthumb' '-g' '-Og' '-ffunction-sections' '-flt"
 187      2D6D7468 
 187      756D6227 
 187      20272D67 
 187      2720272D 
 188 0066 6F272027 		.ascii	"o' '-ffat-lto-objects'\000"
 188      2D666661 
 188      742D6C74 
 188      6F2D6F62 
 188      6A656374 
 189              		.text
 190              		.cfi_sections	.debug_frame
 191              		.section	.text.Comp_2_SaveConfig,"ax",%progbits
 192              		.align	2
 193              		.global	Comp_2_SaveConfig
 194              		.thumb
 195              		.thumb_func
 196              		.type	Comp_2_SaveConfig, %function
 197              	Comp_2_SaveConfig:
 198              	.LFB0:
 199              		.file 1 "Generated_Source\\PSoC5\\Comp_2_PM.c"
   1:Generated_Source\PSoC5/Comp_2_PM.c **** /*******************************************************************************
   2:Generated_Source\PSoC5/Comp_2_PM.c **** * File Name: Comp_2.c
   3:Generated_Source\PSoC5/Comp_2_PM.c **** * Version 2.0
   4:Generated_Source\PSoC5/Comp_2_PM.c **** *
ARM GAS  C:\Users\Luggi\AppData\Local\Temp\ccfRUu5w.s 			page 14


   5:Generated_Source\PSoC5/Comp_2_PM.c **** * Description:
   6:Generated_Source\PSoC5/Comp_2_PM.c **** *  This file provides the power management source code APIs for the
   7:Generated_Source\PSoC5/Comp_2_PM.c **** *  Comparator.
   8:Generated_Source\PSoC5/Comp_2_PM.c **** *
   9:Generated_Source\PSoC5/Comp_2_PM.c **** * Note:
  10:Generated_Source\PSoC5/Comp_2_PM.c **** *  None
  11:Generated_Source\PSoC5/Comp_2_PM.c **** *
  12:Generated_Source\PSoC5/Comp_2_PM.c **** ********************************************************************************
  13:Generated_Source\PSoC5/Comp_2_PM.c **** * Copyright 2008-2012, Cypress Semiconductor Corporation.  All rights reserved.
  14:Generated_Source\PSoC5/Comp_2_PM.c **** * You may use this file only in accordance with the license, terms, conditions, 
  15:Generated_Source\PSoC5/Comp_2_PM.c **** * disclaimers, and limitations in the end user license agreement accompanying 
  16:Generated_Source\PSoC5/Comp_2_PM.c **** * the software package with which this file was provided.
  17:Generated_Source\PSoC5/Comp_2_PM.c **** *******************************************************************************/
  18:Generated_Source\PSoC5/Comp_2_PM.c **** 
  19:Generated_Source\PSoC5/Comp_2_PM.c **** #include "Comp_2.h"
  20:Generated_Source\PSoC5/Comp_2_PM.c **** 
  21:Generated_Source\PSoC5/Comp_2_PM.c **** static Comp_2_backupStruct Comp_2_backup;
  22:Generated_Source\PSoC5/Comp_2_PM.c **** 
  23:Generated_Source\PSoC5/Comp_2_PM.c **** 
  24:Generated_Source\PSoC5/Comp_2_PM.c **** /*******************************************************************************
  25:Generated_Source\PSoC5/Comp_2_PM.c **** * Function Name: Comp_2_SaveConfig
  26:Generated_Source\PSoC5/Comp_2_PM.c **** ********************************************************************************
  27:Generated_Source\PSoC5/Comp_2_PM.c **** *
  28:Generated_Source\PSoC5/Comp_2_PM.c **** * Summary:
  29:Generated_Source\PSoC5/Comp_2_PM.c **** *  Save the current user configuration
  30:Generated_Source\PSoC5/Comp_2_PM.c **** *
  31:Generated_Source\PSoC5/Comp_2_PM.c **** * Parameters:
  32:Generated_Source\PSoC5/Comp_2_PM.c **** *  void:
  33:Generated_Source\PSoC5/Comp_2_PM.c **** *
  34:Generated_Source\PSoC5/Comp_2_PM.c **** * Return:
  35:Generated_Source\PSoC5/Comp_2_PM.c **** *  void
  36:Generated_Source\PSoC5/Comp_2_PM.c **** *
  37:Generated_Source\PSoC5/Comp_2_PM.c **** *******************************************************************************/
  38:Generated_Source\PSoC5/Comp_2_PM.c **** void Comp_2_SaveConfig(void) 
  39:Generated_Source\PSoC5/Comp_2_PM.c **** {
 200              		.loc 1 39 0
 201              		.cfi_startproc
 202              		@ args = 0, pretend = 0, frame = 0
 203              		@ frame_needed = 0, uses_anonymous_args = 0
 204              		@ link register save eliminated.
 205 0000 7047     		bx	lr
 206              		.cfi_endproc
 207              	.LFE0:
 208              		.size	Comp_2_SaveConfig, .-Comp_2_SaveConfig
 209 0002 00BF     		.section	.text.Comp_2_RestoreConfig,"ax",%progbits
 210              		.align	2
 211              		.global	Comp_2_RestoreConfig
 212              		.thumb
 213              		.thumb_func
 214              		.type	Comp_2_RestoreConfig, %function
 215              	Comp_2_RestoreConfig:
 216              	.LFB1:
  40:Generated_Source\PSoC5/Comp_2_PM.c ****     /* Empty since all are system reset for retention flops */
  41:Generated_Source\PSoC5/Comp_2_PM.c **** }
  42:Generated_Source\PSoC5/Comp_2_PM.c **** 
  43:Generated_Source\PSoC5/Comp_2_PM.c **** 
  44:Generated_Source\PSoC5/Comp_2_PM.c **** /*******************************************************************************
ARM GAS  C:\Users\Luggi\AppData\Local\Temp\ccfRUu5w.s 			page 15


  45:Generated_Source\PSoC5/Comp_2_PM.c **** * Function Name: Comp_2_RestoreConfig
  46:Generated_Source\PSoC5/Comp_2_PM.c **** ********************************************************************************
  47:Generated_Source\PSoC5/Comp_2_PM.c **** *
  48:Generated_Source\PSoC5/Comp_2_PM.c **** * Summary:
  49:Generated_Source\PSoC5/Comp_2_PM.c **** *  Restores the current user configuration.
  50:Generated_Source\PSoC5/Comp_2_PM.c **** *
  51:Generated_Source\PSoC5/Comp_2_PM.c **** * Parameters:
  52:Generated_Source\PSoC5/Comp_2_PM.c **** *  void
  53:Generated_Source\PSoC5/Comp_2_PM.c **** *
  54:Generated_Source\PSoC5/Comp_2_PM.c **** * Return:
  55:Generated_Source\PSoC5/Comp_2_PM.c **** *  void
  56:Generated_Source\PSoC5/Comp_2_PM.c **** *
  57:Generated_Source\PSoC5/Comp_2_PM.c **** ********************************************************************************/
  58:Generated_Source\PSoC5/Comp_2_PM.c **** void Comp_2_RestoreConfig(void) 
  59:Generated_Source\PSoC5/Comp_2_PM.c **** {
 217              		.loc 1 59 0
 218              		.cfi_startproc
 219              		@ args = 0, pretend = 0, frame = 0
 220              		@ frame_needed = 0, uses_anonymous_args = 0
 221              		@ link register save eliminated.
 222 0000 7047     		bx	lr
 223              		.cfi_endproc
 224              	.LFE1:
 225              		.size	Comp_2_RestoreConfig, .-Comp_2_RestoreConfig
 226 0002 00BF     		.section	.text.Comp_2_Sleep,"ax",%progbits
 227              		.align	2
 228              		.global	Comp_2_Sleep
 229              		.thumb
 230              		.thumb_func
 231              		.type	Comp_2_Sleep, %function
 232              	Comp_2_Sleep:
 233              	.LFB2:
  60:Generated_Source\PSoC5/Comp_2_PM.c ****     /* Empty since all are system reset for retention flops */    
  61:Generated_Source\PSoC5/Comp_2_PM.c **** }
  62:Generated_Source\PSoC5/Comp_2_PM.c **** 
  63:Generated_Source\PSoC5/Comp_2_PM.c **** 
  64:Generated_Source\PSoC5/Comp_2_PM.c **** /*******************************************************************************
  65:Generated_Source\PSoC5/Comp_2_PM.c **** * Function Name: Comp_2_Sleep
  66:Generated_Source\PSoC5/Comp_2_PM.c **** ********************************************************************************
  67:Generated_Source\PSoC5/Comp_2_PM.c **** *
  68:Generated_Source\PSoC5/Comp_2_PM.c **** * Summary:
  69:Generated_Source\PSoC5/Comp_2_PM.c **** *  Stop and Save the user configuration
  70:Generated_Source\PSoC5/Comp_2_PM.c **** *
  71:Generated_Source\PSoC5/Comp_2_PM.c **** * Parameters:
  72:Generated_Source\PSoC5/Comp_2_PM.c **** *  void:
  73:Generated_Source\PSoC5/Comp_2_PM.c **** *
  74:Generated_Source\PSoC5/Comp_2_PM.c **** * Return:
  75:Generated_Source\PSoC5/Comp_2_PM.c **** *  void
  76:Generated_Source\PSoC5/Comp_2_PM.c **** *
  77:Generated_Source\PSoC5/Comp_2_PM.c **** * Global variables:
  78:Generated_Source\PSoC5/Comp_2_PM.c **** *  Comp_2_backup.enableState:  Is modified depending on the enable 
  79:Generated_Source\PSoC5/Comp_2_PM.c **** *   state of the block before entering sleep mode.
  80:Generated_Source\PSoC5/Comp_2_PM.c **** *
  81:Generated_Source\PSoC5/Comp_2_PM.c **** *******************************************************************************/
  82:Generated_Source\PSoC5/Comp_2_PM.c **** void Comp_2_Sleep(void) 
  83:Generated_Source\PSoC5/Comp_2_PM.c **** {
 234              		.loc 1 83 0
ARM GAS  C:\Users\Luggi\AppData\Local\Temp\ccfRUu5w.s 			page 16


 235              		.cfi_startproc
 236              		@ args = 0, pretend = 0, frame = 0
 237              		@ frame_needed = 0, uses_anonymous_args = 0
 238              		.loc 1 83 0
 239 0000 08B5     		push	{r3, lr}
 240              		.cfi_def_cfa_offset 8
 241              		.cfi_offset 3, -8
 242              		.cfi_offset 14, -4
  84:Generated_Source\PSoC5/Comp_2_PM.c ****     /* Save Comp's enable state */    
  85:Generated_Source\PSoC5/Comp_2_PM.c ****     if(Comp_2_ACT_PWR_EN == (Comp_2_PWRMGR & Comp_2_ACT_PWR_EN))
 243              		.loc 1 85 0
 244 0002 074B     		ldr	r3, .L7
 245 0004 1B78     		ldrb	r3, [r3]	@ zero_extendqisi2
 246 0006 13F0080F 		tst	r3, #8
 247 000a 03D0     		beq	.L4
  86:Generated_Source\PSoC5/Comp_2_PM.c ****     {
  87:Generated_Source\PSoC5/Comp_2_PM.c ****         /* Comp is enabled */
  88:Generated_Source\PSoC5/Comp_2_PM.c ****         Comp_2_backup.enableState = 1u;
 248              		.loc 1 88 0
 249 000c 0122     		movs	r2, #1
 250 000e 054B     		ldr	r3, .L7+4
 251 0010 1A70     		strb	r2, [r3]
 252 0012 02E0     		b	.L5
 253              	.L4:
  89:Generated_Source\PSoC5/Comp_2_PM.c ****     }
  90:Generated_Source\PSoC5/Comp_2_PM.c ****     else
  91:Generated_Source\PSoC5/Comp_2_PM.c ****     {
  92:Generated_Source\PSoC5/Comp_2_PM.c ****         /* Comp is disabled */
  93:Generated_Source\PSoC5/Comp_2_PM.c ****         Comp_2_backup.enableState = 0u;
 254              		.loc 1 93 0
 255 0014 0022     		movs	r2, #0
 256 0016 034B     		ldr	r3, .L7+4
 257 0018 1A70     		strb	r2, [r3]
 258              	.L5:
  94:Generated_Source\PSoC5/Comp_2_PM.c ****     }    
  95:Generated_Source\PSoC5/Comp_2_PM.c ****     
  96:Generated_Source\PSoC5/Comp_2_PM.c ****     Comp_2_Stop();
 259              		.loc 1 96 0
 260 001a FFF7FEFF 		bl	Comp_2_Stop
 261              	.LVL0:
 262 001e 08BD     		pop	{r3, pc}
 263              	.L8:
 264              		.align	2
 265              	.L7:
 266 0020 A7430040 		.word	1073759143
 267 0024 00000000 		.word	.LANCHOR0
 268              		.cfi_endproc
 269              	.LFE2:
 270              		.size	Comp_2_Sleep, .-Comp_2_Sleep
 271              		.section	.text.Comp_2_Wakeup,"ax",%progbits
 272              		.align	2
 273              		.global	Comp_2_Wakeup
 274              		.thumb
 275              		.thumb_func
 276              		.type	Comp_2_Wakeup, %function
 277              	Comp_2_Wakeup:
 278              	.LFB3:
ARM GAS  C:\Users\Luggi\AppData\Local\Temp\ccfRUu5w.s 			page 17


  97:Generated_Source\PSoC5/Comp_2_PM.c ****     Comp_2_SaveConfig();
  98:Generated_Source\PSoC5/Comp_2_PM.c **** }
  99:Generated_Source\PSoC5/Comp_2_PM.c **** 
 100:Generated_Source\PSoC5/Comp_2_PM.c **** 
 101:Generated_Source\PSoC5/Comp_2_PM.c **** /*******************************************************************************
 102:Generated_Source\PSoC5/Comp_2_PM.c **** * Function Name: Comp_2_Wakeup
 103:Generated_Source\PSoC5/Comp_2_PM.c **** ********************************************************************************
 104:Generated_Source\PSoC5/Comp_2_PM.c **** *
 105:Generated_Source\PSoC5/Comp_2_PM.c **** * Summary:
 106:Generated_Source\PSoC5/Comp_2_PM.c **** *  Restores and enables the user configuration
 107:Generated_Source\PSoC5/Comp_2_PM.c **** *  
 108:Generated_Source\PSoC5/Comp_2_PM.c **** * Parameters:
 109:Generated_Source\PSoC5/Comp_2_PM.c **** *  void
 110:Generated_Source\PSoC5/Comp_2_PM.c **** *
 111:Generated_Source\PSoC5/Comp_2_PM.c **** * Return:
 112:Generated_Source\PSoC5/Comp_2_PM.c **** *  void
 113:Generated_Source\PSoC5/Comp_2_PM.c **** *
 114:Generated_Source\PSoC5/Comp_2_PM.c **** * Global variables:
 115:Generated_Source\PSoC5/Comp_2_PM.c **** *  Comp_2_backup.enableState:  Is used to restore the enable state of 
 116:Generated_Source\PSoC5/Comp_2_PM.c **** *  block on wakeup from sleep mode.
 117:Generated_Source\PSoC5/Comp_2_PM.c **** *
 118:Generated_Source\PSoC5/Comp_2_PM.c **** *******************************************************************************/
 119:Generated_Source\PSoC5/Comp_2_PM.c **** void Comp_2_Wakeup(void) 
 120:Generated_Source\PSoC5/Comp_2_PM.c **** {
 279              		.loc 1 120 0
 280              		.cfi_startproc
 281              		@ args = 0, pretend = 0, frame = 0
 282              		@ frame_needed = 0, uses_anonymous_args = 0
 283 0000 08B5     		push	{r3, lr}
 284              		.cfi_def_cfa_offset 8
 285              		.cfi_offset 3, -8
 286              		.cfi_offset 14, -4
 121:Generated_Source\PSoC5/Comp_2_PM.c ****     Comp_2_RestoreConfig();
 122:Generated_Source\PSoC5/Comp_2_PM.c ****     
 123:Generated_Source\PSoC5/Comp_2_PM.c ****     if(Comp_2_backup.enableState == 1u)
 287              		.loc 1 123 0
 288 0002 034B     		ldr	r3, .L12
 289 0004 1B78     		ldrb	r3, [r3]	@ zero_extendqisi2
 290 0006 012B     		cmp	r3, #1
 291 0008 01D1     		bne	.L9
 124:Generated_Source\PSoC5/Comp_2_PM.c ****     {
 125:Generated_Source\PSoC5/Comp_2_PM.c ****         /* Enable Comp's operation */
 126:Generated_Source\PSoC5/Comp_2_PM.c ****         Comp_2_Enable();
 292              		.loc 1 126 0
 293 000a FFF7FEFF 		bl	Comp_2_Enable
 294              	.LVL1:
 295              	.L9:
 296 000e 08BD     		pop	{r3, pc}
 297              	.L13:
 298              		.align	2
 299              	.L12:
 300 0010 00000000 		.word	.LANCHOR0
 301              		.cfi_endproc
 302              	.LFE3:
 303              		.size	Comp_2_Wakeup, .-Comp_2_Wakeup
 304              		.bss
 305              		.align	2
ARM GAS  C:\Users\Luggi\AppData\Local\Temp\ccfRUu5w.s 			page 18


 306              		.set	.LANCHOR0,. + 0
 307              		.type	Comp_2_backup, %object
 308              		.size	Comp_2_backup, 1
 309              	Comp_2_backup:
 310 0000 00       		.space	1
 311 0001 000000   		.text
 312              	.Letext0:
 313              		.file 2 "Generated_Source\\PSoC5\\cytypes.h"
 314              		.file 3 "Generated_Source\\PSoC5\\Comp_2.h"