ARM GAS  C:\Users\Luggi\AppData\Local\Temp\ccn69jLd.s 			page 1


   1              		.syntax unified
   2              		.cpu cortex-m3
   3              		.fpu softvfp
   4              		.eabi_attribute 20, 1
   5              		.eabi_attribute 21, 1
   6              		.eabi_attribute 23, 3
   7              		.eabi_attribute 24, 1
   8              		.eabi_attribute 25, 1
   9              		.eabi_attribute 26, 1
  10              		.eabi_attribute 30, 1
  11              		.eabi_attribute 34, 1
  12              		.eabi_attribute 18, 4
  13              		.thumb
  14              		.file	"Comp_4_PM.c"
  15              		.text
  16              	.Ltext0:
  17              		.section	.gnu.lto_.profile.53c7c204,"",%progbits
  18 0000 789C6366 		.ascii	"x\234cf```a\200\000F\006U~\000\000\315\000="
  18      60606061 
  18      80004606 
  18      557E0000 
  18      CD003D
  19              		.text
  20              		.section	.gnu.lto_.inline.53c7c204,"",%progbits
  21 0000 789C6366 		.ascii	"x\234cf\300\016\302\2404\013\003\0033\023#\003\023\220"
  21      C00EC2A0 
  21      340B0303 
  21      33132303 
  21      1390
  22 0012 C9B6401E 		.ascii	"\311\266@\036D10b\21001p\011\002Ex&\370!\024q\2015\263"
  22      44313062 
  22      88303170 
  22      09024578 
  22      26F82114 
  23 002a B303C5D9 		.ascii	"\263\003\305\331>\350\241\2123\000\000\364\226\005\344"
  23      3EE8A18A 
  23      330000F4 
  23      9605E4
  24              		.text
  25              		.section	.gnu.lto_.jmpfuncs.53c7c204,"",%progbits
  26 0000 789C6366 		.ascii	"x\234cf\300\016\004\2404\013\0203200A\231\014\000\002"
  26      C00E04A0 
  26      340B1033 
  26      32303041 
  26      990C0002 
  27 0014 B2001F   		.ascii	"\262\000\037"
  28              		.text
  29              		.section	.gnu.lto_.pureconst.53c7c204,"",%progbits
  30 0000 789C6366 		.ascii	"x\234cf``\340d\200\000\026\006\006F\006&)\026\011\000"
  30      6060E064 
  30      80001606 
  30      06460626 
  30      29160900 
  31 0014 018D004A 		.ascii	"\001\215\000J"
  32              		.text
  33              		.section	.gnu.lto_Comp_4_SaveConfig.53c7c204,"",%progbits
  34 0000 789C6366 		.ascii	"x\234cf\300\004R@\\\012\304\252@\314\310\314\300\310"
ARM GAS  C:\Users\Luggi\AppData\Local\Temp\ccn69jLd.s 			page 2


  34      C0045240 
  34      5C0AC4AA 
  34      40CCC8CC 
  34      C0C8
  35 0012 34E11C03 		.ascii	"4\341\034\003C#\007\023##\210\301\300\310P\317\304X"
  35      43230713 
  35      232388C1 
  35      C0C850CF 
  35      C458
  36 0024 CFF892E9 		.ascii	"\317\370\222\351#\023\343\204\003\253gp\253/mhh\370"
  36      2313E384 
  36      03AB6770 
  36      AB2F6D68 
  36      68F8
  37 0036 F0E86463 		.ascii	"\360\350dc\300\001\306\237L\014\014\237\231 \3460.g"
  37      C001C69F 
  37      4C0C0C9F 
  37      9920E630 
  37      2E67
  38 0048 5467002A 		.ascii	"Tg\000*\372\330\362\367:7[\013P\221\000D\216q\005#\033"
  38      FAD8F2F7 
  38      3A375B0B 
  38      50910044 
  38      8E710523 
  39 005d 23905E2F 		.ascii	"#\220^/t\240\341\377\377\317\313\017nb\004\012?\001"
  39      74A0E1FF 
  39      FFCFCB0F 
  39      6E62040A 
  39      3F01
  40 006f 6290054F 		.ascii	"b\220\005O\231\230@4\363=FF\220B\220IO\230\030AB@\005"
  40      99984034 
  40      F33D4646 
  40      90429049 
  40      4F981841 
  41 0086 CAEEA979 		.ascii	"\312\356\251y\251E\211%\251)\361\301\371\245E\311\251"
  41      A9458925 
  41      A929F1C1 
  41      F9A545C9 
  41      A9
  42 0097 3101C1F9 		.ascii	"1\001\301\371\316\2461\316\371\271\005\361&\361\001"
  42      CEA631CE 
  42      F9B905F1 
  42      26F101
  43 00a6 BE7AC90C 		.ascii	"\276z\311\014\000N06\260"
  43      004E3036 
  43      B0
  44              		.text
  45              		.section	.gnu.lto_Comp_4_RestoreConfig.53c7c204,"",%progbits
  46 0000 789C6366 		.ascii	"x\234cf\300\004R@\\\012\304\252@\314\310\314\300\310"
  46      C0045240 
  46      5C0AC4AA 
  46      40CCC8CC 
  46      C0C8
  47 0012 34E11C03 		.ascii	"4\341\034\003C#\007\023##\210\301\300\310P\317\304X"
  47      43230713 
  47      232388C1 
  47      C0C850CF 
ARM GAS  C:\Users\Luggi\AppData\Local\Temp\ccn69jLd.s 			page 3


  47      C458
  48 0024 CFF892E9 		.ascii	"\317\370\222\351#\023\343\204\003\253gp\253/mhh\370"
  48      2313E384 
  48      03AB6770 
  48      AB2F6D68 
  48      68F8
  49 0036 B0E87C63 		.ascii	"\260\350|c\300\001\306\237L\014\014\237\231 \3460.g"
  49      C001C69F 
  49      4C0C0C9F 
  49      9920E630 
  49      2E67
  50 0048 5467002A 		.ascii	"Tg\000*\372\330\362\367:7[\013P\221\000D\216q\005#\033"
  50      FAD8F2F7 
  50      3A375B0B 
  50      50910044 
  50      8E710523 
  51 005d 23905E2F 		.ascii	"#\220^/t\240\341\377\377\317{\017\376b\004\012?\001"
  51      74A0E1FF 
  51      FFCF7B0F 
  51      FE62040A 
  51      3F01
  52 006f 6290054F 		.ascii	"b\220\005O\231\230@4\363=FF\220B\220IO\230\030AB@\005"
  52      99984034 
  52      F33D4646 
  52      90429049 
  52      4F981841 
  53 0086 CAEEA979 		.ascii	"\312\356\251y\251E\211%\251)\361\301\371\245E\311\251"
  53      A9458925 
  53      A929F1C1 
  53      F9A545C9 
  53      A9
  54 0097 3101C1F9 		.ascii	"1\001\301\371\316\2461\316\371\271\005\361&\361\001"
  54      CEA631CE 
  54      F9B905F1 
  54      26F101
  55 00a6 BE7AC90C 		.ascii	"\276z\311\014\000K\2666\324"
  55      004BB636 
  55      D4
  56              		.text
  57              		.section	.gnu.lto_Comp_4_Sleep.53c7c204,"",%progbits
  58 0000 789C8591 		.ascii	"x\234\205\221;h\024Q\024\206\317\177\346\316d4\001\305"
  58      3B681451 
  58      1486CF7F 
  58      E6CE6434 
  58      01C5
  59 0012 2AA4D846 		.ascii	"*\244\330F$U\022\020-\255R\244\022\002i,\002\213\304"
  59      24551210 
  59      2DAD52A4 
  59      1202692C 
  59      028BC4
  60 0025 2D752568 		.ascii	"-u%h\347\222;\331\361\211\350\246\020d5\026\202\331"
  60      E7923BD9 
  60      F189E8A6 
  60      10643516 
  60      82D9
  61 0037 E8C6BC34 		.ascii	"\350\306\2744Z\230b\260Q\033%\230\020\014a\005\331\005"
  61      5A9862B0 
ARM GAS  C:\Users\Luggi\AppData\Local\Temp\ccn69jLd.s 			page 4


  61      511B2598 
  61      100C6105 
  61      D905
  62 0049 6D64E38A 		.ascii	"md\343\212:\204\030\317\275\023\037D\320\201\231s\037"
  62      3A8418CF 
  62      BD131F44 
  62      D0819973 
  62      1F
  63 005a DFFCFF7F 		.ascii	"\337\374\377\177\317u\350\357\347\220\274G\230h\237"
  63      CF75E8EF 
  63      E790BC47 
  63      98689F
  64 0069 5478042E 		.ascii	"Tx\004.\274$\012|fg>Ez\247Z\354\"\335\342\300M\226\325"
  64      BC240A7C 
  64      66673E45 
  64      7AA75AEC 
  64      22DDE2C0 
  65 0080 CF810B98 		.ascii	"\317\201\013\230\001\201\206\330Q.\206\360\201\327\030"
  65      018186D8 
  65      512E86F0 
  65      81D718
  66 008f 85A87CBD 		.ascii	"\205\250|\275\271\375\216\326\272~{\256\365lk,\312\015"
  66      B9FD8ED6 
  66      BA7E7BAE 
  66      F56C6B2C 
  66      CA0D
  67 00a1 4E9C5042 		.ascii	"N\234PB;\011\263\026n,7{\2410\273\223=\214\303\203\324"
  67      3B09B316 
  67      6E2C377B 
  67      A130BB93 
  67      3D8CC383 
  68 00b6 A93D91DE 		.ascii	"\251=\221\336\334l,\215<\337\017\237)f(\363!\252\012"
  68      DC6C2C8D 
  68      3CDF0F9F 
  68      296628F3 
  68      21AA0A
  69 00c9 65DC6ACC 		.ascii	"e\334j\314\246:+x\372\345\322\307\342\031\363\343WV"
  69      A63A2B78 
  69      FAE5D2C7 
  69      E219F3E3 
  69      5756
  70 00db A2B97EB1 		.ascii	"\242\271~\261\362N\275\347\230\271t>\320\312\330\274"
  70      F24EBDE7 
  70      98B9743E 
  70      D0CAD8BC 
  71 00eb ADBE5AF0 		.ascii	"\255\276Z\360\355\022\231i\341Ei\270e\0247\202\0201"
  71      ED129969 
  71      E14569B8 
  71      65143782 
  71      1031
  72 00fd 3BB88B36 		.ascii	";\270\2136\334C\233\230\2271\012ZA\376\333\271\252\233"
  72      DC439B98 
  72      97310A5A 
  72      41FEDBB9 
  72      AA9B
  73 010f 0872A259 		.ascii	"\010r\242Y\\\256}v\214\000\2300!\354\022\3027\371\324"
  73      5CAE7D76 
ARM GAS  C:\Users\Luggi\AppData\Local\Temp\ccn69jLd.s 			page 5


  73      8C009830 
  73      21EC12C2 
  73      37F9D4
  74 0122 16234030 		.ascii	"\026#@0\366\344r\223\005D\346\276\021#\223\321\241\371"
  74      F6E47293 
  74      0544E6BE 
  74      112393D1 
  74      A1F9
  75 0134 94441CAE 		.ascii	"\224D\034\256O\257\316\3540\264\240\267^_\231\344\334"
  75      4FAFCEEC 
  75      30B4A0B7 
  75      5E5F99E4 
  75      DC
  76 0145 BABEA0FD 		.ascii	"\272\276\240\375\230\325\2069\365\237\021\225\235\216"
  76      98D58639 
  76      F59F1195 
  76      9D8E
  77 0153 07E14D98 		.ascii	"\007\341M\230\210\332P.&\221\303\224\221\225\275\357"
  77      88DA502E 
  77      2691C394 
  77      9195BDEF 
  78 0163 135767BD 		.ascii	"\023Wg\275\216\2624-\352\214\331\303\264\200\237lc1"
  78      8EB2342D 
  78      EA8CD9C3 
  78      B4809F6C 
  78      6331
  79 0175 830E0116 		.ascii	"\203\016\001\026\212c\371]FKZ\211Y\033\246&\272\213"
  79      8A63F95D 
  79      464B5A89 
  79      591BA626 
  79      BA8B
  80 0187 5D364ABD 		.ascii	"]6J\275\362\237(\333\275\037\374\303\373\341o\3579\353"
  80      F29F28DB 
  80      BD1FFCC3 
  80      FBE16FEF 
  80      39EB
  81 0199 FDEB1C9E 		.ascii	"\375\353\034\236,=\332\362v\355U\255\"\037\215<c\343"
  81      2C3DDAF2 
  81      76ED55AD 
  81      221F8D3C 
  81      63E3
  82 01ab 4DDBCD9B 		.ascii	"M\333\315\233\032\266s\217\221\223k\366\251\202 \272"
  82      1AB6738F 
  82      91936BF6 
  82      A98220BA 
  83 01bb D6634932 		.ascii	"\326cI2w\016# 6{{2'2\203GOe\216\245\373\262\247\007"
  83      770E2320 
  83      367B7B32 
  83      27328347 
  83      4F658EA5 
  84 01d3 0732FDBD 		.ascii	"\0072\375\275}\331\356\203\375\335\331\343'\323\007"
  84      7DD9EE83 
  84      FDDDD9E3 
  84      27D307
  85 01e2 D2BD873B 		.ascii	"\322\275\207;\007\350\007Yj\345I"
  85      07E80759 
  85      6AE549
ARM GAS  C:\Users\Luggi\AppData\Local\Temp\ccn69jLd.s 			page 6


  86              		.text
  87              		.section	.gnu.lto_Comp_4_Wakeup.53c7c204,"",%progbits
  88 0000 789C654F 		.ascii	"x\234eO1HBQ\024\275\347\276\257H\012FS44\024\341\020"
  88      31484251 
  88      14BDE7BE 
  88      AF480A46 
  88      53343414 
  89 0016 B6546B8B 		.ascii	"\266Tk\213CP\004\202\253 a\216eH\215\3423\015\232\312"
  89      43500482 
  89      AB20618E 
  89      65488DE2 
  89      330D9ACA 
  90 002a 6809CAB6 		.ascii	"h\011\312\266\310\322\014\014\332\002'\205\206B\"\212"
  90      C8D20C0C 
  90      DA022785 
  90      8642228A 
  91 003a 885A0C6C 		.ascii	"\210Z\014lK\035B\312\354\275\357\020\324\203\307}\357"
  91      4B1D42CA 
  91      ECBDEF10 
  91      D483C77D 
  91      EF
  92 004b DC73CEBD 		.ascii	"\334s\316\275G\320\3773\256\356,\210FT\205\205\300\251"
  92      47D0FF33 
  92      AEEE2C88 
  92      46548585 
  92      C0A9
  93 005d 6BA2B88D 		.ascii	"k\242\270\215Y\224\234${\214\253)\222\016\001\243\013"
  93      59949C24 
  93      7B8CAB29 
  93      920E01A3 
  93      0B
  94 006e 1B807E10 		.ascii	"\033\200~\020(\306\302@\014o\\g\244\212\331]\273\353"
  94      28C6C240 
  94      0C6F5C67 
  94      A48AD95D 
  94      BBEB
  95 0080 504AF9DE 		.ascii	"PJ\371\336\270\354_\357o1Q\223\273\3768\202\213\024"
  95      B8EC5FEF 
  95      6F315193 
  95      BBFE3882 
  95      8B14
  96 0092 A79E6CDF 		.ascii	"\247\236l\337\333\255I\305\351\355\366\220\201U\315"
  96      DBAD49C5 
  96      E9EDF690 
  96      8155CD
  97 00a1 A5B3BEA2 		.ascii	"\245\263\276\242\354t\316\277\2663Cl\021\324b\005V\025"
  97      EC74CEBF 
  97      B633436C 
  97      11D46205 
  97      5615
  98 00b3 41CF7965 		.ascii	"A\317ye\326U<b\355\242\336\256X\264\346\203\205\262"
  98      D6553C62 
  98      EDA2DEAE 
  98      58B4E683 
  98      85B2
  99 00c5 3BB8DDCC 		.ascii	";\270\335\314s\364SnH[\213\271\255\015\025\372R\275"
  99      73F4536E 
ARM GAS  C:\Users\Luggi\AppData\Local\Temp\ccn69jLd.s 			page 7


  99      485B8BB9 
  99      AD0D15FA 
  99      52BD
 100 00d7 A9D86AAC 		.ascii	"\251\330j\254\020\363\233\211'\367\221\306^\\j\226\300"
 100      10F39B89 
 100      27F791C6 
 100      5E5C6A96 
 100      C0
 101 00e8 31A238C1 		.ascii	"1\2428\301\200\331\373\316m\025\254\356\321\026\033"
 101      80D9FBCE 
 101      6D15ACEE 
 101      D1161B
 102 00f7 C82A4EC3 		.ascii	"\310*N\303\\\0279\270\351\016\311\207\304\340\357\250"
 102      5C1739B8 
 102      E90EC987 
 102      C4E0EFA8 
 103 0107 72BA5630 		.ascii	"r\272V0\264)@8\325r\322\233\011*9\305\023\022\305v\331"
 103      B4294038 
 103      D572D29B 
 103      092A39C5 
 103      1312C576 
 104 011c A1C9F477 		.ascii	"\241\311\364w+KSGA\036Q\025\312jj\0143\3153\342\305"
 104      2B4B5347 
 104      411E5115 
 104      CA6A6A0C 
 104      33CD33E2 
 105 0131 9D195343 		.ascii	"\235\031SC:+4\252\346\017O\207\226B\221\371\225\320"
 105      3A2B34AA 
 105      E60F4F87 
 105      964291F9 
 105      95D0
 106 0143 42C0175E 		.ascii	"B\300\027^\215\004C~\257/\354\231\364{\302\213\313\201"
 106      8D04437E 
 106      AF2FEC99 
 106      F47BC28B 
 106      CB81
 107 0155 8980776E 		.ascii	"\211\200wn,H?7\015\2030"
 107      2C483F37 
 107      0D8330
 108              		.text
 109              		.section	.gnu.lto_.symbol_nodes.53c7c204,"",%progbits
 110 0000 789C55C8 		.ascii	"x\234U\310\261\015\2000\014\005\321\213\035G\014\301"
 110      B10D8030 
 110      0C05D18B 
 110      1D470CC1 
 111 0010 9CB43F23 		.ascii	"\234\264?#PQg\020Jjv@b\016\004\022\024\341\272w\016"
 111      50516710 
 111      4A6A7640 
 111      620E0412 
 111      14E1BA77 
 112 0025 4C7C5912 		.ascii	"L|Y\022\314;H,m\300L\351g\227\365\016h&\267,\357w\012"
 112      CC3B482C 
 112      6DC04CE9 
 112      6797F50E 
 112      6826B72C 
 113 003c E5D7D4FA 		.ascii	"\345\327\324\372\260(:\272\005\333q%\317\205s\035\271"
 113      B0283ABA 
ARM GAS  C:\Users\Luggi\AppData\Local\Temp\ccn69jLd.s 			page 8


 113      05DB7125 
 113      CF85731D 
 113      B9
 114 004d 01DAB81D 		.ascii	"\001\332\270\035t"
 114      74
 115              		.text
 116              		.section	.gnu.lto_.refs.53c7c204,"",%progbits
 117 0000 789C6366 		.ascii	"x\234cf``\340c\200\000&&Ff\026FfVF\026\006fF\006\000"
 117      6060E063 
 117      80002626 
 117      46661646 
 117      66564616 
 118 0019 02900030 		.ascii	"\002\220\0000"
 119              		.text
 120              		.section	.gnu.lto_.decls.53c7c204,"",%progbits
 121 0000 789C8D94 		.ascii	"x\234\215\224]L\023Y\024\307\357\351\255P\332)h0hx\331"
 121      5D4C1359 
 121      14C7EFE9 
 121      AD50DA29 
 121      68306878 
 122 0015 2A09D935 		.ascii	"*\011\3315\304\030\263&\372\244\0111\232\030\015\331"
 122      C418B326 
 122      FAA40931 
 122      9A180DD9 
 123 0025 EEC68735 		.ascii	"\356\306\2075!\265;\253F\245Mm7\361\355\332\252(\"Q"
 123      21B53BAB 
 123      46A54D6D 
 123      37F1EDDA 
 123      AA282251 
 124 0039 A2816C74 		.ascii	"\242\201lt\255\013\272K\027\206\017A\205j\013\202\362"
 124      AD0BBA4B 
 124      17860F41 
 124      856A0B82 
 124      F2
 125 004a A51B9245 		.ascii	"\245\033\222E\"~$\025\022\202/:~\304(`\3063wflqE\275"
 125      227E2415 
 125      12822F3A 
 125      7EC42860 
 125      C6337766 
 126 0062 C999DE3B 		.ascii	"\311\231\336;\367\374\177\347\234{n\207\022BV\000!\012"
 126      F7FC7FE7 
 126      9C7B6E87 
 126      12425600 
 126      210A
 127 0074 8E1E3321 		.ascii	"\216\0363!f\234\317\303wE$9\322\320\352\321$\264&\264"
 127      669CCFC3 
 127      77452439 
 127      D2D0EAD1 
 127      24B426B4 
 128 0088 16B456B4 		.ascii	"\026\264V\264\313h\350Nz\310\354Q\257\2777\030\240\277"
 128      CB68E84E 
 128      7AC8EC51 
 128      AFBF3718 
 128      A0BF
 129 009a FB78489F 		.ascii	"\373xH\237\360\223>\341\247\306\314\320\375r\320\372"
 129      F0933EE1 
 129      A7C6CCD0 
ARM GAS  C:\Users\Luggi\AppData\Local\Temp\ccn69jLd.s 			page 9


 129      FD72D0FA 
 130 00aa D17AD106 		.ascii	"\321z\321\006\320\272\320\242h\203hu:#\206f\322u\255"
 130      D0BAD0A2 
 130      68836875 
 130      3A238666 
 130      D275AD
 131 00bd 73E4A8D6 		.ascii	"s\344\250\326\220\236\302\374\022\253\3453\365>7A\273"
 131      909EC2FC 
 131      12ABE533 
 131      F53E3741 
 131      BB
 132 00ce F4EA8E6D 		.ascii	"\364\352\216m\322\004\231V\207\272\354\250\354\253N"
 132      D2049956 
 132      87BAECA8 
 132      ECAB4E
 133 00dd C3A56035 		.ascii	"\303\245`5\253\313\350\364\330\260y\321i\206\343D\210"
 133      ABCBE8F4 
 133      D8B079D1 
 133      6986E344 
 133      88
 134 00ee CD374351 		.ascii	"\3157CQ\016\374\005\271\3607\344\"\261\016\026\341\363"
 134      0EFC05B9 
 134      F037E422 
 134      B10E16E1 
 134      F3
 135 00ff 67B34692 		.ascii	"g\263F\222\316>\271C\251\011\324yM\365\343akA\004eG"
 135      CE3EB943 
 135      A909D479 
 135      4DF5E361 
 135      6B410465 
 136 0114 5867C294 		.ascii	"Xg\302\224\0147~\366\350@\246\343\017&7\311\3213\243"
 136      0C377EF6 
 136      E840A6E3 
 136      0F2637C9 
 136      D133A3
 137 0127 02EB639D 		.ascii	"\002\353c\235\212\262\226\243 \002\024\376\201\002~"
 137      8AB296A3 
 137      200214FE 
 137      81027E
 138 0136 A038D74E 		.ascii	"\2408\327N\266\036\034(\233\211M\335\267\322\265\234"
 138      B61E1C28 
 138      9B894DDD 
 138      B7D2B59C 
 139 0146 7D411E3F 		.ascii	"}A\036?\224\305\021\341\251\026\266\356 \233Q\024\312"
 139      94C511E1 
 139      A916B6EE 
 139      209B5114 
 139      CA
 140 0157 010D2980 		.ascii	"\001\015)\200\006\003 q\300\330\355\304\363,\372#\007"
 140      06032071 
 140      C0D8EDC4 
 140      F32CFA23 
 140      07
 141 0168 3487CECD 		.ascii	"4\207\316\315\330\021\020n\012Gj\322\264\014\270\276"
 141      D811106E 
 141      0A476AD2 
 141      B40CB8BE 
ARM GAS  C:\Users\Luggi\AppData\Local\Temp\ccn69jLd.s 			page 10


 142 0178 3145DF68 		.ascii	"1E\337h\350\233\270\276|\252\365\256\235\272\270\376"
 142      E89BB8BE 
 142      7CAAF5AE 
 142      9DBAB8FE 
 143 0188 E1E4D335 		.ascii	"\341\344\3235\232\374\331,ys\212\274\331\220\267p\271"
 143      9AFCD92C 
 143      79738ABC 
 143      D990B770 
 143      B9
 144 0199 325975CC 		.ascii	"2Yu\314F=\\.\325L5\010\250O0y:4\266\361d\350D-K(\312"
 144      463D5C2E 
 144      D54C3508 
 144      A84F3079 
 144      3A34B6F1 
 145 01b4 37DA215C 		.ascii	"7\332!\\J\201\\2 \255\034\3624>4\221N\317\000\247\374"
 145      4A815C32 
 145      20AD1CF2 
 145      343E3491 
 145      4ECF00A7 
 146 01c9 39147C02 		.ascii	"9\024|\002\234\222\250\350\026oh\247\240!\332R\020m"
 146      9C92A8E8 
 146      166F68A7 
 146      A021DA52 
 146      106D
 147 01db 06E23247 		.ascii	"\006\3422G<;|\345\215\215F4\304H\274\264\324Bc\332\342"
 147      3C3B7CE5 
 147      8D8D4634 
 147      C448BCB4 
 147      D44263DA 
 148 01f0 C0C56879 		.ascii	"\300\305hy:6>\307\312\373T1\370{\027\345KE\3356\215"
 148      3A363EC7 
 148      CAFB5431 
 148      F87B17E5 
 148      4B45DD36 
 149 0205 8E9E7A4B 		.ascii	"\216\236zK\301\232\177\204\261 \223+\031]L\240 \027"
 149      C19A7F84 
 149      B120932B 
 149      195D4CA0 
 149      2017
 150 0217 BECB2570 		.ascii	"\276\313%p\015\362\321\215G\204v\274\033\035x7j\261"
 150      0DF2D18D 
 150      478476BC 
 150      1B1D7837 
 150      6AB1
 151 0229 F372796F 		.ascii	"\363ryodS\210\255\203(X\341\352\207\234x\004\3756\304"
 151      645388AD 
 151      832858E1 
 151      EA879C78 
 151      04FD36C4 
 152 023d A5FFAA2D 		.ascii	"\245\377\252-t\202g@+^\036\270\231\005K\263\363\303"
 152      74826740 
 152      2B5E1EB8 
 152      99054BB3 
 152      F3C3
 153 024f 18439E1E 		.ascii	"\030C\236\036\037\261W\261D'p\371u\224\307!\333\010"
 153      1FB157B1 
 153      442770F9 
ARM GAS  C:\Users\Luggi\AppData\Local\Temp\ccn69jLd.s 			page 11


 153      7594C721 
 153      DB08
 154 0261 F9AD7AFB 		.ascii	"\371\255z\373\226\341\203\234T\257\246\034\304(F>\204"
 154      96E1839C 
 154      54AFA61C 
 154      C428463E 
 154      84
 155 0272 3B622CE8 		.ascii	";b,\350\304\304b\260\224\007S\023J\214\256\264\250\233"
 155      C4C462B0 
 155      94075313 
 155      4A8CAEB4 
 155      A89B
 156 0284 C4381D23 		.ascii	"\3048\035#\017\323\203\351Xw&d\347\377\237\0067\020"
 156      0FD383E9 
 156      58772664 
 156      E7FF9F06 
 156      3710
 157 0296 3227F091 		.ascii	"2'\360\221\031\240\0137\257$\253S\371Fy\301{\035\225"
 157      19A00B37 
 157      AF24AB53 
 157      F94679C1 
 157      7B1D95
 158 02a9 027DA11D 		.ascii	"\002}\241\035\360\335\240Tg\317;\317XX\216\336\227\241"
 158      F0DDA054 
 158      67CF3BCF 
 158      58588EDE 
 158      97A1
 159 02bb 8A85838C 		.ascii	"\212\205\203\214\251W\207\023\2725\302\207\032\272\265"
 159      A9578713 
 159      BA35C287 
 159      1ABAB5
 160 02ca BE410FE4 		.ascii	"\276A\017\344\241\226U\035\253\265P\246\375\267\332"
 160      A196551D 
 160      ABB550A6 
 160      FDB7DA
 161 02d9 5E97B5DB 		.ascii	"^\227\265\333\255\330\210\320W4\002\213\033\376\267"
 161      ADD888D0 
 161      5734028B 
 161      1BFEB7
 162 02e8 6C24436B 		.ascii	"l$Ck\335\307\212\2769[W\032\027\372\031\263@/\036\376"
 162      DDC78ABE 
 162      395B571A 
 162      17FA19B3 
 162      402F1EFE 
 163 02fc CD6475B7 		.ascii	"\315du\267 \331\274\341\301\340\003*\224\251\027\002"
 163      20D9BCE1 
 163      C1E0032A 
 163      94A91702 
 164 030c BF0D191B 		.ascii	"\277\015\031\033\271o\362\343\320\017\002\257\000\177"
 164      B96FF2E3 
 164      D00F02AF 
 164      007F
 165 031a D179E2DD 		.ascii	"\321y\342\335\361\304,g\265\350\244\363\200\356<\300"
 165      F1C42C67 
 165      B5E8A4F3 
 165      80EE3CC0 
 166 032a 9D1B5F0F 		.ascii	"\235\033_\017El\251\316\352\255N:\017\202`\344\203S"
ARM GAS  C:\Users\Luggi\AppData\Local\Temp\ccn69jLd.s 			page 12


 166      456CA9CE 
 166      EAAD4E3A 
 166      0F8260E4 
 166      8353
 167 033c B2A0D0B3 		.ascii	"\262\240\320\263\327[\374}\261\323\365\233X\350)\371"
 167      D75BFC7D 
 167      B1D3F59B 
 167      58E829F9 
 168 034c 75D78EB4 		.ascii	"u\327\216\264\015[~r\024\222\274\015b\211\350s\371\305"
 168      0D5B7E72 
 168      1492BC0D 
 168      6289E873 
 168      F9C5
 169 035e 5F8A9D9E 		.ascii	"_\212\235\236\200\317-n+rz\012Wm\323\375\2136/w\223"
 169      80CF2D6E 
 169      2B727A0A 
 169      576DD3FD 
 169      8B362F77 
 170 0373 85FAE207 		.ascii	"\205\372\342\007q\237\337\343\323\365\202A\334#\212"
 170      719FDFE3 
 170      D3F58241 
 170      DC238A
 171 0382 5EBBBED8 		.ascii	"^\273\276\330\352\332-\006\2746c\313\357\361:>\313_"
 171      EADA2D06 
 171      BC3663CB 
 171      EFF13A3E 
 171      CB5F
 172 0394 BE9318D2 		.ascii	"\276\223\030\322\365%\256\355{\304l}\265\335\345\336"
 172      F525AEED 
 172      7BC46C7D 
 172      B5DDE5DE 
 173 03a4 1DF03AFD 		.ascii	"\035\360:\375\276\200\333?/\260\253\304\277z\311\034"
 173      BE80DB3F 
 173      2FB0ABC4 
 173      BF7AC91C 
 174 03b4 20F77EFF 		.ascii	" \367~\377~\257\270\017I6\221#\234~t\262\317\342\230"
 174      7EAFB80F 
 174      49369123 
 174      9C7E74B2 
 174      CFE298
 175 03c7 7DE28ED5 		.ascii	"}\342\216\325\357\001fa\347\312"
 175      EF016661 
 175      E7CA
 176              		.text
 177              		.section	.gnu.lto_.symtab.53c7c204,"",%progbits
 178 0000 436F6D70 		.ascii	"Comp_4_SaveConfig\000\000\000\000\000\000\000\000\000"
 178      5F345F53 
 178      61766543 
 178      6F6E6669 
 178      67000000 
 179 001a 000000AC 		.ascii	"\000\000\000\254\000\000\000Comp_4_RestoreConfig\000"
 179      00000043 
 179      6F6D705F 
 179      345F5265 
 179      73746F72 
 180 0036 00000000 		.ascii	"\000\000\000\000\000\000\000\000\000\000\000\256\000"
 180      00000000 
ARM GAS  C:\Users\Luggi\AppData\Local\Temp\ccn69jLd.s 			page 13


 180      000000AE 
 180      00
 181 0043 0000436F 		.ascii	"\000\000Comp_4_Sleep\000\000\000\000\000\000\000\000"
 181      6D705F34 
 181      5F536C65 
 181      65700000 
 181      00000000 
 182 0059 00000000 		.ascii	"\000\000\000\000\260\000\000\000Comp_4_Wakeup\000\000"
 182      B0000000 
 182      436F6D70 
 182      5F345F57 
 182      616B6575 
 183 0070 00000000 		.ascii	"\000\000\000\000\000\000\000\000\000\000\262\000\000"
 183      00000000 
 183      0000B200 
 183      00
 184 007d 00436F6D 		.ascii	"\000Comp_4_Stop\000\000\002\000\000\000\000\000\000"
 184      705F345F 
 184      53746F70 
 184      00000200 
 184      00000000 
 185 0092 000000B4 		.ascii	"\000\000\000\264\000\000\000Comp_4_Enable\000\000\002"
 185      00000043 
 185      6F6D705F 
 185      345F456E 
 185      61626C65 
 186 00a9 00000000 		.ascii	"\000\000\000\000\000\000\000\000\000\266\000\000\000"
 186      00000000 
 186      00B60000 
 186      00
 187              		.text
 188              		.section	.gnu.lto_.opts,"",%progbits
 189 0000 272D666E 		.ascii	"'-fno-trapv' '-fno-strict-overflow' '-mcpu=cortex-m"
 189      6F2D7472 
 189      61707627 
 189      20272D66 
 189      6E6F2D73 
 190 0033 33272027 		.ascii	"3' '-mthumb' '-g' '-Og' '-ffunction-sections' '-flt"
 190      2D6D7468 
 190      756D6227 
 190      20272D67 
 190      2720272D 
 191 0066 6F272027 		.ascii	"o' '-ffat-lto-objects'\000"
 191      2D666661 
 191      742D6C74 
 191      6F2D6F62 
 191      6A656374 
 192              		.text
 193              		.cfi_sections	.debug_frame
 194              		.section	.text.Comp_4_SaveConfig,"ax",%progbits
 195              		.align	2
 196              		.global	Comp_4_SaveConfig
 197              		.thumb
 198              		.thumb_func
 199              		.type	Comp_4_SaveConfig, %function
 200              	Comp_4_SaveConfig:
 201              	.LFB0:
ARM GAS  C:\Users\Luggi\AppData\Local\Temp\ccn69jLd.s 			page 14


 202              		.file 1 "Generated_Source\\PSoC5\\Comp_4_PM.c"
   1:Generated_Source\PSoC5/Comp_4_PM.c **** /*******************************************************************************
   2:Generated_Source\PSoC5/Comp_4_PM.c **** * File Name: Comp_4.c
   3:Generated_Source\PSoC5/Comp_4_PM.c **** * Version 2.0
   4:Generated_Source\PSoC5/Comp_4_PM.c **** *
   5:Generated_Source\PSoC5/Comp_4_PM.c **** * Description:
   6:Generated_Source\PSoC5/Comp_4_PM.c **** *  This file provides the power management source code APIs for the
   7:Generated_Source\PSoC5/Comp_4_PM.c **** *  Comparator.
   8:Generated_Source\PSoC5/Comp_4_PM.c **** *
   9:Generated_Source\PSoC5/Comp_4_PM.c **** * Note:
  10:Generated_Source\PSoC5/Comp_4_PM.c **** *  None
  11:Generated_Source\PSoC5/Comp_4_PM.c **** *
  12:Generated_Source\PSoC5/Comp_4_PM.c **** ********************************************************************************
  13:Generated_Source\PSoC5/Comp_4_PM.c **** * Copyright 2008-2012, Cypress Semiconductor Corporation.  All rights reserved.
  14:Generated_Source\PSoC5/Comp_4_PM.c **** * You may use this file only in accordance with the license, terms, conditions, 
  15:Generated_Source\PSoC5/Comp_4_PM.c **** * disclaimers, and limitations in the end user license agreement accompanying 
  16:Generated_Source\PSoC5/Comp_4_PM.c **** * the software package with which this file was provided.
  17:Generated_Source\PSoC5/Comp_4_PM.c **** *******************************************************************************/
  18:Generated_Source\PSoC5/Comp_4_PM.c **** 
  19:Generated_Source\PSoC5/Comp_4_PM.c **** #include "Comp_4.h"
  20:Generated_Source\PSoC5/Comp_4_PM.c **** 
  21:Generated_Source\PSoC5/Comp_4_PM.c **** static Comp_4_backupStruct Comp_4_backup;
  22:Generated_Source\PSoC5/Comp_4_PM.c **** 
  23:Generated_Source\PSoC5/Comp_4_PM.c **** 
  24:Generated_Source\PSoC5/Comp_4_PM.c **** /*******************************************************************************
  25:Generated_Source\PSoC5/Comp_4_PM.c **** * Function Name: Comp_4_SaveConfig
  26:Generated_Source\PSoC5/Comp_4_PM.c **** ********************************************************************************
  27:Generated_Source\PSoC5/Comp_4_PM.c **** *
  28:Generated_Source\PSoC5/Comp_4_PM.c **** * Summary:
  29:Generated_Source\PSoC5/Comp_4_PM.c **** *  Save the current user configuration
  30:Generated_Source\PSoC5/Comp_4_PM.c **** *
  31:Generated_Source\PSoC5/Comp_4_PM.c **** * Parameters:
  32:Generated_Source\PSoC5/Comp_4_PM.c **** *  void:
  33:Generated_Source\PSoC5/Comp_4_PM.c **** *
  34:Generated_Source\PSoC5/Comp_4_PM.c **** * Return:
  35:Generated_Source\PSoC5/Comp_4_PM.c **** *  void
  36:Generated_Source\PSoC5/Comp_4_PM.c **** *
  37:Generated_Source\PSoC5/Comp_4_PM.c **** *******************************************************************************/
  38:Generated_Source\PSoC5/Comp_4_PM.c **** void Comp_4_SaveConfig(void) 
  39:Generated_Source\PSoC5/Comp_4_PM.c **** {
 203              		.loc 1 39 0
 204              		.cfi_startproc
 205              		@ args = 0, pretend = 0, frame = 0
 206              		@ frame_needed = 0, uses_anonymous_args = 0
 207              		@ link register save eliminated.
 208 0000 7047     		bx	lr
 209              		.cfi_endproc
 210              	.LFE0:
 211              		.size	Comp_4_SaveConfig, .-Comp_4_SaveConfig
 212 0002 00BF     		.section	.text.Comp_4_RestoreConfig,"ax",%progbits
 213              		.align	2
 214              		.global	Comp_4_RestoreConfig
 215              		.thumb
 216              		.thumb_func
 217              		.type	Comp_4_RestoreConfig, %function
 218              	Comp_4_RestoreConfig:
 219              	.LFB1:
ARM GAS  C:\Users\Luggi\AppData\Local\Temp\ccn69jLd.s 			page 15


  40:Generated_Source\PSoC5/Comp_4_PM.c ****     /* Empty since all are system reset for retention flops */
  41:Generated_Source\PSoC5/Comp_4_PM.c **** }
  42:Generated_Source\PSoC5/Comp_4_PM.c **** 
  43:Generated_Source\PSoC5/Comp_4_PM.c **** 
  44:Generated_Source\PSoC5/Comp_4_PM.c **** /*******************************************************************************
  45:Generated_Source\PSoC5/Comp_4_PM.c **** * Function Name: Comp_4_RestoreConfig
  46:Generated_Source\PSoC5/Comp_4_PM.c **** ********************************************************************************
  47:Generated_Source\PSoC5/Comp_4_PM.c **** *
  48:Generated_Source\PSoC5/Comp_4_PM.c **** * Summary:
  49:Generated_Source\PSoC5/Comp_4_PM.c **** *  Restores the current user configuration.
  50:Generated_Source\PSoC5/Comp_4_PM.c **** *
  51:Generated_Source\PSoC5/Comp_4_PM.c **** * Parameters:
  52:Generated_Source\PSoC5/Comp_4_PM.c **** *  void
  53:Generated_Source\PSoC5/Comp_4_PM.c **** *
  54:Generated_Source\PSoC5/Comp_4_PM.c **** * Return:
  55:Generated_Source\PSoC5/Comp_4_PM.c **** *  void
  56:Generated_Source\PSoC5/Comp_4_PM.c **** *
  57:Generated_Source\PSoC5/Comp_4_PM.c **** ********************************************************************************/
  58:Generated_Source\PSoC5/Comp_4_PM.c **** void Comp_4_RestoreConfig(void) 
  59:Generated_Source\PSoC5/Comp_4_PM.c **** {
 220              		.loc 1 59 0
 221              		.cfi_startproc
 222              		@ args = 0, pretend = 0, frame = 0
 223              		@ frame_needed = 0, uses_anonymous_args = 0
 224              		@ link register save eliminated.
 225 0000 7047     		bx	lr
 226              		.cfi_endproc
 227              	.LFE1:
 228              		.size	Comp_4_RestoreConfig, .-Comp_4_RestoreConfig
 229 0002 00BF     		.section	.text.Comp_4_Sleep,"ax",%progbits
 230              		.align	2
 231              		.global	Comp_4_Sleep
 232              		.thumb
 233              		.thumb_func
 234              		.type	Comp_4_Sleep, %function
 235              	Comp_4_Sleep:
 236              	.LFB2:
  60:Generated_Source\PSoC5/Comp_4_PM.c ****     /* Empty since all are system reset for retention flops */    
  61:Generated_Source\PSoC5/Comp_4_PM.c **** }
  62:Generated_Source\PSoC5/Comp_4_PM.c **** 
  63:Generated_Source\PSoC5/Comp_4_PM.c **** 
  64:Generated_Source\PSoC5/Comp_4_PM.c **** /*******************************************************************************
  65:Generated_Source\PSoC5/Comp_4_PM.c **** * Function Name: Comp_4_Sleep
  66:Generated_Source\PSoC5/Comp_4_PM.c **** ********************************************************************************
  67:Generated_Source\PSoC5/Comp_4_PM.c **** *
  68:Generated_Source\PSoC5/Comp_4_PM.c **** * Summary:
  69:Generated_Source\PSoC5/Comp_4_PM.c **** *  Stop and Save the user configuration
  70:Generated_Source\PSoC5/Comp_4_PM.c **** *
  71:Generated_Source\PSoC5/Comp_4_PM.c **** * Parameters:
  72:Generated_Source\PSoC5/Comp_4_PM.c **** *  void:
  73:Generated_Source\PSoC5/Comp_4_PM.c **** *
  74:Generated_Source\PSoC5/Comp_4_PM.c **** * Return:
  75:Generated_Source\PSoC5/Comp_4_PM.c **** *  void
  76:Generated_Source\PSoC5/Comp_4_PM.c **** *
  77:Generated_Source\PSoC5/Comp_4_PM.c **** * Global variables:
  78:Generated_Source\PSoC5/Comp_4_PM.c **** *  Comp_4_backup.enableState:  Is modified depending on the enable 
  79:Generated_Source\PSoC5/Comp_4_PM.c **** *   state of the block before entering sleep mode.
ARM GAS  C:\Users\Luggi\AppData\Local\Temp\ccn69jLd.s 			page 16


  80:Generated_Source\PSoC5/Comp_4_PM.c **** *
  81:Generated_Source\PSoC5/Comp_4_PM.c **** *******************************************************************************/
  82:Generated_Source\PSoC5/Comp_4_PM.c **** void Comp_4_Sleep(void) 
  83:Generated_Source\PSoC5/Comp_4_PM.c **** {
 237              		.loc 1 83 0
 238              		.cfi_startproc
 239              		@ args = 0, pretend = 0, frame = 0
 240              		@ frame_needed = 0, uses_anonymous_args = 0
 241              		.loc 1 83 0
 242 0000 08B5     		push	{r3, lr}
 243              		.cfi_def_cfa_offset 8
 244              		.cfi_offset 3, -8
 245              		.cfi_offset 14, -4
  84:Generated_Source\PSoC5/Comp_4_PM.c ****     /* Save Comp's enable state */    
  85:Generated_Source\PSoC5/Comp_4_PM.c ****     if(Comp_4_ACT_PWR_EN == (Comp_4_PWRMGR & Comp_4_ACT_PWR_EN))
 246              		.loc 1 85 0
 247 0002 074B     		ldr	r3, .L7
 248 0004 1B78     		ldrb	r3, [r3]	@ zero_extendqisi2
 249 0006 13F0020F 		tst	r3, #2
 250 000a 03D0     		beq	.L4
  86:Generated_Source\PSoC5/Comp_4_PM.c ****     {
  87:Generated_Source\PSoC5/Comp_4_PM.c ****         /* Comp is enabled */
  88:Generated_Source\PSoC5/Comp_4_PM.c ****         Comp_4_backup.enableState = 1u;
 251              		.loc 1 88 0
 252 000c 0122     		movs	r2, #1
 253 000e 054B     		ldr	r3, .L7+4
 254 0010 1A70     		strb	r2, [r3]
 255 0012 02E0     		b	.L5
 256              	.L4:
  89:Generated_Source\PSoC5/Comp_4_PM.c ****     }
  90:Generated_Source\PSoC5/Comp_4_PM.c ****     else
  91:Generated_Source\PSoC5/Comp_4_PM.c ****     {
  92:Generated_Source\PSoC5/Comp_4_PM.c ****         /* Comp is disabled */
  93:Generated_Source\PSoC5/Comp_4_PM.c ****         Comp_4_backup.enableState = 0u;
 257              		.loc 1 93 0
 258 0014 0022     		movs	r2, #0
 259 0016 034B     		ldr	r3, .L7+4
 260 0018 1A70     		strb	r2, [r3]
 261              	.L5:
  94:Generated_Source\PSoC5/Comp_4_PM.c ****     }    
  95:Generated_Source\PSoC5/Comp_4_PM.c ****     
  96:Generated_Source\PSoC5/Comp_4_PM.c ****     Comp_4_Stop();
 262              		.loc 1 96 0
 263 001a FFF7FEFF 		bl	Comp_4_Stop
 264              	.LVL0:
 265 001e 08BD     		pop	{r3, pc}
 266              	.L8:
 267              		.align	2
 268              	.L7:
 269 0020 A7430040 		.word	1073759143
 270 0024 00000000 		.word	.LANCHOR0
 271              		.cfi_endproc
 272              	.LFE2:
 273              		.size	Comp_4_Sleep, .-Comp_4_Sleep
 274              		.section	.text.Comp_4_Wakeup,"ax",%progbits
 275              		.align	2
 276              		.global	Comp_4_Wakeup
ARM GAS  C:\Users\Luggi\AppData\Local\Temp\ccn69jLd.s 			page 17


 277              		.thumb
 278              		.thumb_func
 279              		.type	Comp_4_Wakeup, %function
 280              	Comp_4_Wakeup:
 281              	.LFB3:
  97:Generated_Source\PSoC5/Comp_4_PM.c ****     Comp_4_SaveConfig();
  98:Generated_Source\PSoC5/Comp_4_PM.c **** }
  99:Generated_Source\PSoC5/Comp_4_PM.c **** 
 100:Generated_Source\PSoC5/Comp_4_PM.c **** 
 101:Generated_Source\PSoC5/Comp_4_PM.c **** /*******************************************************************************
 102:Generated_Source\PSoC5/Comp_4_PM.c **** * Function Name: Comp_4_Wakeup
 103:Generated_Source\PSoC5/Comp_4_PM.c **** ********************************************************************************
 104:Generated_Source\PSoC5/Comp_4_PM.c **** *
 105:Generated_Source\PSoC5/Comp_4_PM.c **** * Summary:
 106:Generated_Source\PSoC5/Comp_4_PM.c **** *  Restores and enables the user configuration
 107:Generated_Source\PSoC5/Comp_4_PM.c **** *  
 108:Generated_Source\PSoC5/Comp_4_PM.c **** * Parameters:
 109:Generated_Source\PSoC5/Comp_4_PM.c **** *  void
 110:Generated_Source\PSoC5/Comp_4_PM.c **** *
 111:Generated_Source\PSoC5/Comp_4_PM.c **** * Return:
 112:Generated_Source\PSoC5/Comp_4_PM.c **** *  void
 113:Generated_Source\PSoC5/Comp_4_PM.c **** *
 114:Generated_Source\PSoC5/Comp_4_PM.c **** * Global variables:
 115:Generated_Source\PSoC5/Comp_4_PM.c **** *  Comp_4_backup.enableState:  Is used to restore the enable state of 
 116:Generated_Source\PSoC5/Comp_4_PM.c **** *  block on wakeup from sleep mode.
 117:Generated_Source\PSoC5/Comp_4_PM.c **** *
 118:Generated_Source\PSoC5/Comp_4_PM.c **** *******************************************************************************/
 119:Generated_Source\PSoC5/Comp_4_PM.c **** void Comp_4_Wakeup(void) 
 120:Generated_Source\PSoC5/Comp_4_PM.c **** {
 282              		.loc 1 120 0
 283              		.cfi_startproc
 284              		@ args = 0, pretend = 0, frame = 0
 285              		@ frame_needed = 0, uses_anonymous_args = 0
 286 0000 08B5     		push	{r3, lr}
 287              		.cfi_def_cfa_offset 8
 288              		.cfi_offset 3, -8
 289              		.cfi_offset 14, -4
 121:Generated_Source\PSoC5/Comp_4_PM.c ****     Comp_4_RestoreConfig();
 122:Generated_Source\PSoC5/Comp_4_PM.c ****     
 123:Generated_Source\PSoC5/Comp_4_PM.c ****     if(Comp_4_backup.enableState == 1u)
 290              		.loc 1 123 0
 291 0002 034B     		ldr	r3, .L12
 292 0004 1B78     		ldrb	r3, [r3]	@ zero_extendqisi2
 293 0006 012B     		cmp	r3, #1
 294 0008 01D1     		bne	.L9
 124:Generated_Source\PSoC5/Comp_4_PM.c ****     {
 125:Generated_Source\PSoC5/Comp_4_PM.c ****         /* Enable Comp's operation */
 126:Generated_Source\PSoC5/Comp_4_PM.c ****         Comp_4_Enable();
 295              		.loc 1 126 0
 296 000a FFF7FEFF 		bl	Comp_4_Enable
 297              	.LVL1:
 298              	.L9:
 299 000e 08BD     		pop	{r3, pc}
 300              	.L13:
 301              		.align	2
 302              	.L12:
 303 0010 00000000 		.word	.LANCHOR0
ARM GAS  C:\Users\Luggi\AppData\Local\Temp\ccn69jLd.s 			page 18


 304              		.cfi_endproc
 305              	.LFE3:
 306              		.size	Comp_4_Wakeup, .-Comp_4_Wakeup
 307              		.bss
 308              		.align	2
 309              		.set	.LANCHOR0,. + 0
 310              		.type	Comp_4_backup, %object
 311              		.size	Comp_4_backup, 1
 312              	Comp_4_backup:
 313 0000 00       		.space	1
 314 0001 000000   		.text
 315              	.Letext0:
 316              		.file 2 "Generated_Source\\PSoC5\\cytypes.h"
 317              		.file 3 "Generated_Source\\PSoC5\\Comp_4.h"