ARM GAS  C:\Users\Luggi\AppData\Local\Temp\cc4duQZB.s 			page 1


   1              		.syntax unified
   2              		.cpu cortex-m3
   3              		.fpu softvfp
   4              		.eabi_attribute 20, 1
   5              		.eabi_attribute 21, 1
   6              		.eabi_attribute 23, 3
   7              		.eabi_attribute 24, 1
   8              		.eabi_attribute 25, 1
   9              		.eabi_attribute 26, 1
  10              		.eabi_attribute 30, 1
  11              		.eabi_attribute 34, 1
  12              		.eabi_attribute 18, 4
  13              		.thumb
  14              		.file	"Comp_3.c"
  15              		.text
  16              	.Ltext0:
  17              		.section	.gnu.lto_.profile.d235a6e,"",%progbits
  18 0000 789C6366 		.ascii	"x\234cf```c\200\000F\206K\214\035\214\000\004\376\001"
  18      60606063 
  18      80004686 
  18      4B8C1D8C 
  18      0004FE01 
  19 0014 67       		.ascii	"g"
  20              		.text
  21              		.section	.gnu.lto_.inline.d235a6e,"",%progbits
  22 0000 789C6366 		.ascii	"x\234cf\300\016r\030!47\003\203J\033\023#3C\306G&\306"
  22      C00E7218 
  22      21343703 
  22      834A1B13 
  22      233343C6 
  23 0017 C665BB7B 		.ascii	"\306e\273{\330_0\375d\002J0.g\224b`\310\204P@\305\254"
  23      D85F30FD 
  23      64024A30 
  23      2E679462 
  23      60C88450 
  24 002e 42874E71 		.ascii	"B\207Nq2\260-\220gb\340\2710\221Y\200A\340\306L&\016"
  24      32B02D90 
  24      6762E0B9 
  24      30915980 
  24      41E0C64C 
  25 0044 30C9C220 		.ascii	"0\311\302 \000\324\300\304\315\310\000\202\234\034\214"
  25      00D4C0C4 
  25      CDC80082 
  25      9C1C8C
  26 0053 0C4C3C0F 		.ascii	"\014L<\017b!jA\022\230B\314\014B\274P;\217\317}\261"
  26      62216A41 
  26      129842CC 
  26      0C42BC50 
  26      3B8FCF7D 
  27 0068 89056C27 		.ascii	"\211\005l'P\363\012\210\235+`vr\034\260\203\350a\373"
  27      50F30A88 
  27      9D2B6076 
  27      721CB083 
  27      E861FB
  28 007b A027C0C0 		.ascii	"\240'\300\300\321`\304\301\300\261\203\207\005d\004"
  28      D160C4C1 
  28      C0B18387 
ARM GAS  C:\Users\Luggi\AppData\Local\Temp\cc4duQZB.s 			page 2


  28      056404
  29 008a 0B83880C 		.ascii	"\013\203\210\014\320T\271\015\257\030\0216q\203\264"
  29      D054B90D 
  29      AF181136 
  29      7183B4
  30 0099 B132700A 		.ascii	"\2612p\012\003e8~\231\300%\030\271`\004;\003+\013P\222"
  30      0365387E 
  30      99C02518 
  30      B960043B 
  30      032B0B50 
  31 00ae 65813C5C 		.ascii	"e\201<\\\222\203AI\037(dt\241\215\031\315$d\022\350"
  31      92834149 
  31      1F286474 
  31      A18D19CD 
  31      246412E8 
  32 00c2 77564690 		.ascii	"wVF\220\377\030\230\341\232\231.\360\203\335\302\005"
  32      FF1898E1 
  32      9A992EF0 
  32      83DDC205 
  33 00d2 92636002 		.ascii	"\222c`\002:\022n\0007\246\020\003\000\302D16"
  33      3A126E00 
  33      37A61003 
  33      00C24431 
  33      36
  34              		.text
  35              		.section	.gnu.lto_.jmpfuncs.d235a6e,"",%progbits
  36 0000 789C6366 		.ascii	"x\234cf\300\016\252\24147\003##c=#\323G&\306\246\323"
  36      C00EAAA1 
  36      34370323 
  36      23633D23 
  36      D34726C6 
  37 0016 472E33BD 		.ascii	"G.3\275`\372\311\304\310\305\300\270\234Q\212\201\221"
  37      60FAC9C4 
  37      C8C5C0B8 
  37      9C518A81 
  37      91
  38 0027 81818981 		.ascii	"\201\201\211\201\201\031\244\200\205\201\001\254\346"
  38      8119A480 
  38      858101AC 
  38      E6
  39 0034 E2AC65CD 		.ascii	"\342\254e\315\374 5L\214\014\214+\200jXA\206\26030p"
  39      FC20354C 
  39      8C0C8C2B 
  39      806A5841 
  39      86B03330 
  40 0049 4015DC7F 		.ascii	"@\025\334\177r\376\"\007X\001P`%\310\020&\260: \005"
  40      72FE2207 
  40      58015060 
  40      25C81026 
  40      B03A2005 
  41 005d E271820C 		.ascii	"\342q\202\014\343\002Y\313\300\000\000}\231\027\277"
  41      E30259CB 
  41      C000007D 
  41      9917BF
  42              		.text
  43              		.section	.gnu.lto_.pureconst.d235a6e,"",%progbits
  44 0000 789C6366 		.ascii	"x\234cf``\020g\200\000n\006)F)&)f)\026)V\011v)\016)"
ARM GAS  C:\Users\Luggi\AppData\Local\Temp\cc4duQZB.s 			page 3


  44      60601067 
  44      80006E06 
  44      29462926 
  44      29662916 
  45 001b 4E292E29 		.ascii	"N).)n)\000\022\\\001~"
  45      6E290012 
  45      5C017E
  46              		.text
  47              		.section	.gnu.lto_Comp_3_trimAdjust.d235a6e,"",%progbits
  48 0000 789C8D55 		.ascii	"x\234\215U[H\034g\024\376\317?\2733\263\263\353\316"
  48      5B481C67 
  48      14FECF3F 
  48      BB33B3B3 
  48      EBCE
  49 0012 2AB1E8BA 		.ascii	"*\261\350\272\245\005\021i\011}h\351[[\012R\372T\010"
  49      A5051169 
  49      097D68E9 
  49      5B5B0A52 
  49      FA5408
  50 0025 F8D09794 		.ascii	"\370\320\227\2244\261[\010T\015b /!\263\3566\221T$\204"
  50      34B15B08 
  50      540D6220 
  50      2F21B3EE 
  50      36915424 
  51 003a 909A164B 		.ascii	"\220\232\026K\232\246j\272F\223\330D\233K\273\331\250"
  51      9AA66ABA 
  51      4693D844 
  51      9B4BBBD9 
  51      A8
  52 004b 1BE22524 		.ascii	"\033\342%$\342\265\306\206z\301\224B\023V\274\2204\333"
  52      E2B5C686 
  52      7AC19442 
  52      1356BC90 
  52      34DB
  53 005d F39F7F5C 		.ascii	"\363\237\177\\\0275\322\20593s\316\371\316\371\316e"
  53      1735D285 
  53      393373CE 
  53      F9CEF9CE 
  53      65
  54 006e FE55D8C6 		.ascii	"\376U\330\306\337}\274\226U\306>\300;d3\340\307\006"
  54      DF7DBC96 
  54      55C63EC0 
  54      3B6433E0 
  54      C706
  55 0080 190BE99C 		.ascii	"\031\013\351\234+\265\305\3142\234Bz\024\356\2407\215"
  55      2BB5C5CC 
  55      329C427A 
  55      14EEA037 
  55      8D
  56 0091 DE1CA049 		.ascii	"\336\034\240I''W3\324\352\252Z\343.R\353\244\326\301"
  56      27275733 
  56      D4EAAA5A 
  56      E32E52EB 
  56      A4D6C1
  57 00a4 25D52E30 		.ascii	"%\325.0\345\203\301\335d\367\220\335\015YR\355Y}\310"
  57      E583C1DD 
  57      64F790DD 
ARM GAS  C:\Users\Luggi\AppData\Local\Temp\cc4duQZB.s 			page 4


  57      0D5952ED 
  57      597DC8
  58 00b7 E2BEB882 		.ascii	"\342\276\270\202v\357\340\035\206\016^\211\273\251\233"
  58      76EFE01D 
  58      860E5E89 
  58      BBA99B
  59 00c6 DC208D41 		.ascii	"\334 \215Af\217\017@\350\031\260C\\q8UMw\031nO\226\327"
  59      668F0F40 
  59      E819B043 
  59      5C713855 
  59      4D77196E 
  60 00dd F4C1216E 		.ascii	"\364\301!n\312\352\036\361'\034\216\305\242\015\356"
  60      CAEA1EF1 
  60      271C8EC5 
  60      A20DEE
  61 00ec E21F2DCB 		.ascii	"\342\037-\313z|\346\353\375\326\211OW8cI.=\240\031\212"
  61      7A7CE6EB 
  61      FDD6894F 
  61      57386349 
  61      2E3DA019 
  62 0101 D1A7E9F7 		.ascii	"\321\247\351\367\3513N\245\020\030>??\325\361y\321\017"
  62      E9334EA5 
  62      10183E3F 
  62      3FD5F179 
  62      D10F
  63 0113 9655131B 		.ascii	"\226U\023\033h\263\336\207\025\016\320\002\012\002`"
  63      68B3DE87 
  63      150ED002 
  63      0A0260
  64 0122 BB1F5EF3 		.ascii	"\273\037^\3633T08\007E\302wa\372\312SP^'\334?\263W\347"
  64      33543038 
  64      0745C277 
  64      61FACA53 
  64      505E27DC 
  65 013a 5C85DF23 		.ascii	"\\\205\337#\360\341\365G\275n\253\301\212<L\245^\021"
  65      F0E1F547 
  65      BD6EABC1 
  65      8A3C4CA5 
  65      5E11
  66 014c F89F32F1 		.ascii	"\370\2372\361\362'\022\015\307{\014\345M\002\3277\334"
  66      F227120D 
  66      C77B0CE5 
  66      4D02D737 
  66      DC
  67 015d 6E34081C 		.ascii	"n4\010\034k\305\254\241\323\326\363T\212r\267n\212\255"
  67      6BC5ACA1 
  67      D3D6F354 
  67      8A72B76E 
  67      8AAD
  68 016f 6B18E906 		.ascii	"k\030\351\006\345]\302>;\025\0373e\342\033\353\022\267"
  68      E55DC23E 
  68      3B151F33 
  68      65E21BEB 
  68      12B7
  69 0181 6D0A7E12 		.ascii	"m\012~\022\371w\324\255F\260#>\210B!\234\307\253\035"
  69      F977D4AD 
  69      46B0233E 
ARM GAS  C:\Users\Luggi\AppData\Local\Temp\cc4duQZB.s 			page 5


  69      8842219C 
  69      C7AB1D
  70 0194 0A6553E0 		.ascii	"\012eS\340\002\250\300\230\222ii\317\211Y\251T\362\301"
  70      02A8C098 
  70      926969CF 
  70      8959A954 
  70      F2C1
  71 01a6 8996F79C 		.ascii	"\211\226\367\234/c\365h\302\250h\324\261\033\334\305"
  71      2F63F568 
  71      C2A868D4 
  71      B11BDCC5 
  72 01b6 848F01A2 		.ascii	"\204\217\001\242)n\241\360\010\341\025\302\024\"[\210"
  72      296EA1F0 
  72      08E115C2 
  72      14225B88 
  73 01c6 1C21B609 		.ascii	"\034!\266\011\221+D\236\020\371B\210\206*\005B\004("
  73      912B449E 
  73      10F94288 
  73      862A0542 
  73      0428
  74 01d8 30633348 		.ascii	"0c3H\343\261\312f9\307\2332\001\361\305\243\275\375"
  74      E3B1CA66 
  74      39C79B32 
  74      01F1C5A3 
  74      BDFD
  75 01ea 3B04AF25 		.ascii	";\004\257%\256#\375\341\321[\203\352<_\341\216\223\235"
  75      AE23FDE1 
  75      D15B83EA 
  75      3C5FE18E 
  75      939D
  76 01fc 21CB212A 		.ascii	"!\313!*\372c\346\356=\235TT`4Q\033h\204oC\021\354\240"
  76      FA63E6EE 
  76      3D9D5454 
  76      6034511B 
  76      68846F43 
  77 0213 132E821F 		.ascii	"\023.\202\037.\001\326\017\035\320\010l\002\302\313"
  77      2E01D60F 
  77      1DD0086C 
  77      02C2CB
  78 0222 871740C6 		.ascii	"\207\027@\306s\311\220\367\276i\012\233\002\017X\335"
  78      73C990F7 
  78      BE690A9B 
  78      020F58DD 
  79 0232 CFE83B02 		.ascii	"\317\350;\002\234\032\201\205\241\023\033\206\310X8"
  79      9C1A8185 
  79      A1131B86 
  79      C85838
  80 0241 DA942741 		.ascii	"\332\224'A\006\"BM\327\3524\201@\262p\031dwg\271\302"
  80      0622424D 
  80      D7EA3481 
  80      40B27019 
  80      647767B9 
  81 0256 BA1405BD 		.ascii	"\272\024\005\275\307\303\235M\001;E\206\331\301&AV\264"
  81      C7C39D4D 
  81      013B4586 
  81      D9C12641 
  81      56B4
ARM GAS  C:\Users\Luggi\AppData\Local\Temp\cc4duQZB.s 			page 6


  82 0268 3870409A 		.ascii	"8p@\232\335b\375\216\236mq\023\375\013uvE\241Pk\275"
  82      DD62FD8E 
  82      9E6D7113 
  82      FD0B7576 
  82      45A1506B 
  83 027d BA56C395 		.ascii	"\272V\303\225t\015\235v\015\013\252\304{d\210\276?\227"
  83      740D9D76 
  83      0D0BAAC4 
  83      7B6488BE 
  83      3F97
  84 028f 931EE2E3 		.ascii	"\223\036\342\343c\320\205\236\230\3458\025\271U\260"
  84      63D0859E 
  84      98E53815 
  84      B955B0
  85 029e 5F301886 		.ascii	"_0\030\206 nN\233\372X\270\263y\023\352\352\032\365"
  85      206E4E9B 
  85      FA58B8B3 
  85      7913EAEA 
  85      1AF5
  86 02b0 BB36752F 		.ascii	"\2736u/\206\376jt<\237\230_\\e~d\346\316\000_Kv5\235"
  86      86FE6A74 
  86      3C9F985F 
  86      5C657E64 
  86      E6CE005F 
  87 02c8 ECDA3AE6 		.ascii	"\354\332:\346&F\330@\365\205\350\353D\325$.\232X\014"
  87      2646D840 
  87      F585E8EB 
  87      44D5242E 
  87      9A580C
  88 02db A29A6C5D 		.ascii	"\242\232l]\235I\006U]T2\0025\261\341\223\2714E\334T"
  88      9D490655 
  88      5D543202 
  88      35B1E193 
  88      B93445DC 
  89 02f0 0CBDF42C 		.ascii	"\014\275\364,\361\245\034\262\306\340\006y\317\342l"
  89      F1A51CB2 
  89      C6E00679 
  89      CFE26C
  90 02ff 3114FAFA 		.ascii	"1\024\372\372h\237\227p\234\002\370`D\002\243\004Lo"
  90      689F9770 
  90      9C02F860 
  90      4402A304 
  90      4C6F
  91 0311 177E17F0 		.ascii	"\027~\027\360\253\000\316\2018Y\332{\372\342\264\210"
  91      AB00CE81 
  91      3859DA7B 
  91      FAE2B488 
  92 0321 6032F80D 		.ascii	"`2\370\015\374\332\337\035\347@D\326\317^\006\214m0"
  92      FCDADF1D 
  92      E74044D6 
  92      CF5E068C 
  92      6D30
  93 0333 3CB024CF 		.ascii	"<\260$\317\351\363\201\215<\335\254\271H\266tp\322n"
  93      E9F3818D 
  93      3CDDACB9 
  93      48B67470 
  93      D26E
ARM GAS  C:\Users\Luggi\AppData\Local\Temp\cc4duQZB.s 			page 7


  94 0345 69F656D3 		.ascii	"i\366V\323\212\331\015<n70G\372\247\227\327\211\313"
  94      8AD90D3C 
  94      6E373047 
  94      FAA797D7 
  94      89CB
  95 0357 7BF3FF8E 		.ascii	"{\363\377\216>N\375\314!\"\2364\221\277>\221\241\267"
  95      3E4EFDCC 
  95      21229E34 
  95      91BF3E91 
  95      A1B7
  96 0369 6D358A5B 		.ascii	"m5\212[\353x\344\242\377\206\304/DwS\342\\J\234E\035"
  96      EB78E4A2 
  96      FF86C42F 
  96      447753E2 
  96      5C4A9C45 
  97 037e 9A84486C 		.ascii	"\232\204Hlh\324#\200b\201\276\033\252o\343\007\237Z"
  97      68D42380 
  97      6281BE1B 
  97      AA6FE307 
  97      9F5A
  98 0390 B596BEC2 		.ascii	"\265\226\276\302\325$u\275\007\016\012SM_\367\020\027"
  98      D52475BD 
  98      070E0A53 
  98      4D5FF710 
  98      17
  99 03a1 A56A0683 		.ascii	"\245j\006\203^\360\257\340\254\211\367\334\324;\222"
  99      5EF0AFE0 
  99      AC89F7DC 
  99      D43B92
 100 03b0 4BFE169F 		.ascii	"K\376\026\237\177\"\375\371\367+\322;O\002\022\215\363"
 100      7F22FDF9 
 100      F72BD23B 
 100      4F02128D 
 100      F3
 101 03c1 971CF4F1 		.ascii	"\227\034\364\361`\007oS!5S\232t\361\243\027\275\037"
 101      60076F53 
 101      2135539A 
 101      74F1A317 
 101      BD1F
 102 03d3 E9B6CB2D 		.ascii	"\351\266\313-\260O\204\361pU\332\245\300\036\251\227"
 102      B04F84F1 
 102      7055DAA5 
 102      C01EA997 
 103 03e3 9D4E3045 		.ascii	"\235N0E\364\346\360\342\304\244}\310\004\226\360\\\311"
 103      F4E6F0E2 
 103      C4A47DC8 
 103      0496F05C 
 103      C9
 104 03f4 3C55A262 		.ascii	"<U\242b\323\002\0040\031\376\213\331\013Hj\020\241\373"
 104      D3020430 
 104      19FE8BD9 
 104      0B486A10 
 104      A1FB
 105 0406 C32F4928 		.ascii	"\303/I(\210\215db\341@l\236\253\313\211@\357|\026\""
 105      888D6462 
 105      E1406C9E 
 105      ABCB8940 
ARM GAS  C:\Users\Luggi\AppData\Local\Temp\cc4duQZB.s 			page 8


 105      EF7C1622 
 106 041a 7D6273A7 		.ascii	"}bs\247 \024K~L\235c\342\344\004T\"\340\325\017\203"
 106      20144B7E 
 106      4C9D63E2 
 106      E4045422 
 106      E0D50F83 
 107 042e 15C1AADD 		.ascii	"\025\301\252\335\325\301\317v\225V\356\257*\013\356"
 107      D5C1CF76 
 107      9556EEAF 
 107      2A0BEE
 108 043d DC515A59 		.ascii	"\334QZY\362\366\316\222\312\362}\273\336z\243\214\251"
 108      F2F6CE92 
 108      CAF27DBB 
 108      DE7AA38C 
 108      A9
 109 044e 157BF7EC 		.ascii	"\025{\367\354\371\"\250UW\355-/\251\2506\354\373G\273"
 109      F922A855 
 109      57ED2D2F 
 109      A9A836EC 
 109      FB47BB
 110 0461 0FE865E5 		.ascii	"\017\350e\345\373J\253\021\372\037m\356x\032"
 110      FB4AAB11 
 110      FA1F6DEE 
 110      781A
 111              		.text
 112              		.section	.gnu.lto_Comp_3_Enable.d235a6e,"",%progbits
 113 0000 789C7D91 		.ascii	"x\234}\221?HBQ\024\306\317w\236>\004\033\242I\234\242"
 113      3F484251 
 113      14C6CF77 
 113      9E3E041B 
 113      A2499CA2 
 114 0014 C5AD255A 		.ascii	"\305\255%ZZ\035\\\003\241I\2200\307R\244f\237eD\265"
 114      5A1D5C03 
 114      A1499030 
 114      C752A466 
 114      9F6544B5 
 115 0028 9853908E 		.ascii	"\230S\220\216b\377\015\035\242M*\210\226\242%\301\301"
 115      62FF0D1D 
 115      A24D2A88 
 115      96A225C1 
 115      C1
 116 0039 202C6C89 		.ascii	" ,l\211\2440^\021v\356{T\220\324\205{\356\277\357\376"
 116      A4305E11 
 116      76EE7B54 
 116      90D4857B 
 116      EEBFEFFE 
 117 004d CE77CFD5 		.ascii	"\316w\317\325\250\267y\245\227A4$#4\002g.\210R.\006"
 117      A8B779A5 
 117      97413424 
 117      23340267 
 117      2E88522E 
 118 0062 D4844049 		.ascii	"\324\204@IF\022\017\334fd\252;\353n_\3010\214\247\362"
 118      46120FDC 
 118      6664AA3B 
 118      EB6E5FC1 
 118      308CA7F2 
 119 0076 9167D163 		.ascii	"\221g\321c2\3213\333\030\024\341#\321\264\323\0375\267"
ARM GAS  C:\Users\Luggi\AppData\Local\Temp\cc4duQZB.s 			page 9


 119      32D133DB 
 119      1814E123 
 119      D1B4D31F 
 119      35B7
 120 0088 9E164DBF 		.ascii	"\236\026M\277}\206M\350\202\247\322@\325\350v+\367k"
 120      7D864DE8 
 120      82A7D240 
 120      D5E8762B 
 120      F76B
 121 009a AD31B898 		.ascii	"\2551\270\230L\226d\022\234*\350*\0205E\257\222\336"
 121      4C966412 
 121      9C2AE82A 
 121      103545AF 
 121      92DE
 122 00ac 31AB51AB 		.ascii	"1\253Q\253\343\270\263\362\230\233P\210WV\016\336\227"
 122      E3B8B3F2 
 122      989B5088 
 122      57560EDE 
 122      97
 123 00bd 1BB78E16 		.ascii	"\033\267\216\026\233\314\305\245\224\341P\011o\232\227"
 123      9BCCC5A5 
 123      94E15009 
 123      6F9A97
 124 00cc 572E6B8B 		.ascii	"W.k\213\3242s^\234\357\313c#\225\206\311\032\266\340"
 124      D432735E 
 124      9CEFCB63 
 124      239586C9 
 124      1AB6E0
 125 00df C536E48D 		.ascii	"\3056\344\215\330A\036T\307\302\213n\3434\233x\226o"
 125      D8411E54 
 125      C7C28B6E 
 125      E3349B78 
 125      966F
 126 00f1 952D2240 		.ascii	"\225-\"@\330\025\245$\315BI\376\203\355\011L\020d9\354"
 126      D815A524 
 126      CD4249FE 
 126      83ED094C 
 126      106439EC 
 127 0105 E4E236D2 		.ascii	"\344\3426\322)W\256W\337\012\260\354\034~9<\251dO\361"
 127      2957AE57 
 127      DF0AB0EC 
 127      1C7E393C 
 127      A9644FF1 
 128 0119 43D9FFA6 		.ascii	"C\331\377\246\224~YR\210\036\017\177\336>\260<\350\324"
 128      947E5952 
 128      881E0F7F 
 128      DE3EB03C 
 128      E8D4
 129 012b 40AA5A0B 		.ascii	"@\252Z\013(\265\372\207\246\024Rj'\305\030\014Dg\242"
 129      28B5FA87 
 129      A614526A 
 129      27C5180C 
 129      4467A2
 130 013e 89C9D9E8 		.ascii	"\211\311\331\350T8\030\233KD\242\241\361`\314?\032\362"
 130      5438189B 
 130      4B44A2A1 
 130      F160CC3F 
ARM GAS  C:\Users\Luggi\AppData\Local\Temp\cc4duQZB.s 			page 10


 130      1AF2
 131 0150 C7A6E3E1 		.ascii	"\307\246\343\341\221\341\010}\002\023\010\237\264"
 131      91E1087D 
 131      0213089F 
 131      B4
 132              		.text
 133              		.section	.gnu.lto_Comp_3_Stop.d235a6e,"",%progbits
 134 0000 789C7D91 		.ascii	"x\234}\221?HBQ\024\306\317w\236>\004#\242I\232\242\305"
 134      3F484251 
 134      14C6CF77 
 134      9E3E0423 
 134      A2499AA2 
 135 0015 AD255A5A 		.ascii	"\255%ZZ\035\032Z\002\241I\2200\307R\244f\237eD\265\250"
 135      1D1A5A02 
 135      A1499030 
 135      C752A466 
 135      9F6544B5 
 136 002a 5310B689 		.ascii	"S\020\266\211\225\231\201A\253T\004-F\015I\016\006a"
 136      95998141 
 136      AB54042D 
 136      460D490E 
 136      0661
 137 003c 645B1254 		.ascii	"d[\022T\026e\347\276G\005I]\270\347\376y\337\371\235"
 137      1665E7BE 
 137      4705495D 
 137      B8E7FE79 
 137      DFF99D
 138 004f EF9EA751 		.ascii	"\357\236\247Q\347\350\223Y\004\321\200\254\320\010\234"
 138      E7E89359 
 138      04D180AC 
 138      D0089C
 139 005e 2813C51C 		.ascii	"(\023\305\034\014\250\015\201\242\214(\356\271\311H"
 139      0CA80D81 
 139      A28C28EE 
 139      B9C948
 140 006d 94726B4E 		.ascii	"\224rkNw\3060\214\207\213+\327\242\253\305D\217la\220"
 140      77C6308C 
 140      878B2BD7 
 140      A2ABC544 
 140      8F6C6190 
 141 0081 859B44D3 		.ascii	"\205\233D\323\214\277W\234z\\4=\3267lB\027<\025zKF\273"
 141      8CBF579C 
 141      7A5C343D 
 141      D6376C42 
 141      173C157A 
 142 0098 5DBC4B35 		.ascii	"]\274K5F\330\301\324b)&\301\256\202\256\002Q]\364\252"
 142      46D8C1D4 
 142      622926C1 
 142      AE82AE02 
 142      515DF4AA 
 143 00ac E82DB35A 		.ascii	"\350-\263Z\265*\016\237VN\362\023\012\361\314\312\301"
 143      B52A0E9F 
 143      564EF213 
 143      0AF1CCCA 
 143      C1
 144 00bd DB72EDC6 		.ascii	"\333r\355\306\326\340\026sv)f\330T\301\353\372\331\271"
 144      D6E01673 
ARM GAS  C:\Users\Luggi\AppData\Local\Temp\cc4duQZB.s 			page 11


 144      762966D8 
 144      54C1EBFA 
 144      D9B9
 145 00cf C3BC2275 		.ascii	"\303\274\"uL\234f\347\273\322X\217\305\321b\015[\350"
 145      4C9C66E7 
 145      BBD2588F 
 145      C5D1620D 
 145      5BE8
 146 00e1 C336E48D 		.ascii	"\3036\344\215\310!\015\252b\341E\267p\232EL&\3677\272"
 146      C8210DAA 
 146      62E145B7 
 146      709A454C 
 146      26F737BA 
 147 00f5 55BAF601 		.ascii	"U\272\366\001\302\216H\245j\012J\363\037-/4a\220i\261"
 147      C28E48A5 
 147      6A0A4AF3 
 147      1F2D2F34 
 147      619069B1 
 148 0109 9C0F5B4C 		.ascii	"\234\017[L\273\244\\\256\276f`\3729\370\262xTL\035\343"
 148      BBA45CAE 
 148      BE6660FA 
 148      39F8B278 
 148      544C1DE3 
 149 011d 87B2FB4D 		.ascii	"\207\262\373M)\374\362\244\020\035\036\376\314\3363"
 149      29FCF2A4 
 149      101D1EFE 
 149      CCDE33
 150 012c 3DE85443 		.ascii	"=\350TC\254T\031Sj\365#\352\322Ii\236t\243\17748\023"
 150      AC541953 
 150      6AF523EA 
 150      D249699E 
 150      74A37F34 
 151 0142 8C4CCE06 		.ascii	"\214L\316\006\247\374\336\320\\$\020\364\215{C\236a"
 151      A7FCDED0 
 151      5C2410F4 
 151      8D7B439E 
 151      61
 152 0153 9F27341D 		.ascii	"\237'4\035\366\017\015\006\350\023)\325\240V"
 152      F60F0D06 
 152      E81329D5 
 152      A056
 153              		.text
 154              		.section	.gnu.lto_Comp_3_SetSpeed.d235a6e,"",%progbits
 155 0000 789C7D93 		.ascii	"x\234}\223]H\024Q\024\307\357\271wfvW\027wYz\260\245"
 155      5D481451 
 155      14C7EFB9 
 155      77667657 
 155      1777597A 
 156 0016 2008B120 		.ascii	" \010\261 z\221\036\223\300\207\036\013\354Q\220\320"
 156      7A911E93 
 156      C0871E0B 
 156      EC5190D0 
 157 0026 7D2CC5EC 		.ascii	"},\305\354\331\231\335-\311\242\304B\214Z\314\322\262"
 157      D999DD2D 
 157      C9A2C442 
 157      8C5ACCD2 
 157      B2
ARM GAS  C:\Users\Luggi\AppData\Local\Temp\cc4duQZB.s 			page 12


 158 0037 FCFE2C4D 		.ascii	"\374\376,Ms\330\2076\015\225\002\265\0146\210\015\024"
 158      73D88736 
 158      0D9502B5 
 158      0C36880D 
 158      14
 159 0048 A35A3575 		.ascii	"\243Z5u\305\332\316\2753\263\256,80\347\336{8\037\277"
 159      C5DACEBD 
 159      33B3AE2C 
 159      3830E7DE 
 159      7B381FBF 
 160 005c F39F3B8C 		.ascii	"\363\237;\214d>\247\361-\222\0109\206+(\004h\375\014"
 160      643EA7F1 
 160      2D920839 
 160      862B2804 
 160      68FD0C
 161 006f 219A9D52 		.ascii	"!\232\235R\026q\0215K\232,$\252\223\201l\270%k#\003"
 161      16711135 
 161      4B9A2C24 
 161      AA93816C 
 161      B8256B23 
 162 0084 F00D0152 		.ascii	"\360\015\001RC\231$C\015,\3238\205z\275\243);\277MU"
 162      43992443 
 162      0D2CD338 
 162      857ABDA3 
 162      293BBF4D 
 163 0099 D5DF1FE3 		.ascii	"\325\337\037\343\271\327r\023\224\2205jt\202g\220\217"
 163      B9D77213 
 163      9490356A 
 163      74826790 
 163      8F
 164 00aa 2101FDDB 		.ascii	"!\001\375\333\204\235\035\005\202\373\306\266\033\343"
 164      849D1D05 
 164      82FBC6B6 
 164      1BE3
 165 00b8 AEBC27AA 		.ascii	"\256\274'\252\352\327\307\272\3253\220\240\000\355\300"
 165      EAD7C7BA 
 165      D53390A0 
 165      00EDC0
 166 00c7 30034E78 		.ascii	"0\003Nx\341\270\227\240\203\300s\310\343\301\361\340"
 166      E1B897A0 
 166      83C073C8 
 166      E3C1F1E0 
 167 00d7 DF856C25 		.ascii	"\337\205l%\210\265\335FMx\001\012\340\332\343\321\325"
 167      88B5DD46 
 167      4D78010A 
 167      E0DAE3D1 
 167      D5
 168 00e8 64722072 		.ascii	"dr rw\251\200\035`\230C%4L\346F\001\236n\343[;7\016"
 168      77A9801D 
 168      60984325 
 168      344CE646 
 168      019E6EE3 
 169 0100 6EB2788C 		.ascii	"n\262x\214\223\233\034n\334\334x\270!$\206/\037\354"
 169      939B1C6E 
 169      DCDC78B8 
 169      2124862F 
 169      1FEC
ARM GAS  C:\Users\Luggi\AppData\Local\Temp\cc4duQZB.s 			page 13


 170 0112 3B1E7065 		.ascii	";\036pe\213\020\336\250{;r\201\367\332\244\0141\206"
 170      8B10DEA8 
 170      7B3B7281 
 170      F7DAA40C 
 170      3186
 171 0124 9BA7561D 		.ascii	"\233\247V\035K4A%\275WS%N\36656\373\301.\\\204\037\257"
 171      4B344125 
 171      BD575325 
 171      4EF63536 
 171      FBC12E5C 
 172 013b 87EF245D 		.ascii	"\207\357$]!x\240\005q \031:\300\013\235\340E\336.\010"
 172      2178A005 
 172      7120193A 
 172      C00B9DE0 
 172      45DE2E08 
 173 014f 0159047F 		.ascii	"\001Y\004\177\264v\007\214\202\022\326DO`K1\3162\272"
 173      B476078C 
 173      8212D644 
 173      4F604B31 
 173      CE32BA
 174 0162 B0C2CAE0 		.ascii	"\260\302\312\340\364#\312\013\262\235\244\371\240\302"
 174      F423CA0B 
 174      B29DA4F9 
 174      A0C2
 175 0170 DD588467 		.ascii	"\335X\204g\333\214X\333&U\322s\355\350\302\334\236\346"
 175      DB8C58DB 
 175      2655D273 
 175      EDE8C2DC 
 175      9EE6
 176 0182 3FFF40E4 		.ascii	"?\377@\3442\002=\"%\260n\2068D\007{z\225,\364\3429\334"
 176      32023D22 
 176      25B06E86 
 176      3844077B 
 176      7A952CF4 
 177 0199 2088F6D0 		.ascii	" \210\366\320k\272\274\227\277\027\3711\203\314A\360"
 177      6BBABC97 
 177      BF17F931 
 177      83CC41F0 
 178 01a9 5360EDA1 		.ascii	"S`\355\241Y\201'EBK\375\022o\312\277W\037\017&\\CF\""
 178      59812745 
 178      424BFD12 
 178      6FCABF57 
 178      1F0F265C 
 179 01c0 2E43C29F 		.ascii	".C\302\237\243\325F\264\023\243\273\374\335\3336\036"
 179      A3D546B4 
 179      13A3BBFC 
 179      DDDB361E 
 180 01d0 ADD4FBD5 		.ascii	"\255\324\373\325w{%T\204\204\277\342\253+\016KB\033"
 180      777B2554 
 180      8484BFE2 
 180      AB2B0E4B 
 180      421B
 181 01e2 F423C280 		.ascii	"\364#\302\200@\0304$\0147\264\0342y\237\326\265\266"
 181      40183424 
 181      0C37B41C 
 181      32799FD6 
 181      B5B6
ARM GAS  C:\Users\Luggi\AppData\Local\Temp\cc4duQZB.s 			page 14


 182 01f4 670BF17B 		.ascii	"g\013\361{o\231\337C\323:o+\346\010\207\371\010C\251"
 182      6F99DF43 
 182      D33A6F2B 
 182      E60887F9 
 182      0843A9
 183 0207 1186C508 		.ascii	"\021\206\305\010N\"\2406,\250\034Lz\277<\361\305)\010"
 183      4E22A036 
 183      2CA81C4C 
 183      7ABF3CF1 
 183      C52908
 184 021a EE5950B3 		.ascii	"\356YP\263\333\215\213l\227\342e\212\342U\006\305\315"
 184      DB8D8B6C 
 184      97E2658A 
 184      E25506C5 
 184      CD
 185 022b 85CF0705 		.ascii	"\205\317\007\005D\237\005Q\033\233\232\246\351\020#"
 185      449F0551 
 185      1B9B9AA6 
 185      E91023
 186 023a 29885101 		.ascii	")\210Q\001\221#$\222\310d\241!\321\374\230I\343\346"
 186      91232492 
 186      C864A121 
 186      D1FC9849 
 186      E3E6
 187 024c 977D6BA6 		.ascii	"\227}k\246\326%h\272\002&Mk\323\360\017e\227\346u\212"
 187      D62568BA 
 187      02264D6B 
 187      D3F00F65 
 187      97E6758A 
 188 0260 662C8366 		.ascii	"f,\203f\037\001\306Eo\267!@\324j\351\301\244\373\321"
 188      1F01C645 
 188      6FB72140 
 188      D46AE9C1 
 188      A4FBD1
 189 0273 B9C7E21B 		.ascii	"\271\307\342\033*CV\313\365\226\301\3714\001\336\244"
 189      2A4356CB 
 189      F596C1F9 
 189      3401DEA4 
 190 0283 5A4E64B4 		.ascii	"ZNd\264\334g\\]\264\364\210qe\361WEA\323\233\317\361"
 190      DC675C5D 
 190      B4F48871 
 190      65F15745 
 190      41D39BCF 
 191 0298 4C7E4F62 		.ascii	"L~Obxi\320\213\177\336\221\263\276\313\276\252\213\325"
 191      7869D08B 
 191      7FDE91B3 
 191      BECBBEAA 
 191      8BD5
 192 02aa BEF2D2E2 		.ascii	"\276\362\322\342\212\253Ue\276\222\363\305\025E\247"
 192      8AAB5565 
 192      BE92F3C5 
 192      1545A7
 193 02b9 4A8A2A2E 		.ascii	"J\212*.U\226\026\234,#\362\225J\237\257\374?\345\213"
 193      5596169C 
 193      2C23F295 
 193      4A9FAFFC 
 193      3FE58B
ARM GAS  C:\Users\Luggi\AppData\Local\Temp\cc4duQZB.s 			page 15


 194 02cc 92A7     		.ascii	"\222\247"
 195              		.text
 196              		.section	.gnu.lto_Comp_3_Init.d235a6e,"",%progbits
 197 0000 789C8D93 		.ascii	"x\234\215\223Mh\023Q\024\205\357y3\231\3744!C\301MV"
 197      4D681351 
 197      1485EF79 
 197      3399FC34 
 197      2143C14D 
 198 0015 E2A63B41 		.ascii	"\342\246;A\304\255\233\202n\003\335\270(\026\251Yj\244"
 198      C4AD9B82 
 198      6E03DDB8 
 198      2816A959 
 198      6AA4
 199 0027 E8B27486 		.ascii	"\350\262t\206\004\021\027Z\004K[i\013\242Vmmkc\323Z"
 199      0411175A 
 199      044B5B69 
 199      0BA2566D 
 199      6D6B63D3 
 200 003c BB981454 		.ascii	"\273\230\024TPl)\361\007\212Z\224jtg\033\265\035\212"
 200      506C29F1 
 200      078A5A94 
 200      6A74671B 
 200      B51D8A
 201 004f A4EFBE17 		.ascii	"\244\357\276\027\025\"\206\004\346\274I\346\334\357"
 201      15228604 
 201      E6BC49E6 
 201      DCEF
 202 005d 9EDC37CF 		.ascii	"\236\3347\317\240\177?\011y\015\033D\373\344\012\203"
 202      A07F3F09 
 202      790D1B44 
 202      FBE40A83 
 203 006d 207A9788 		.ascii	" z\227\210\334\220\000\370\206@=\002=\370*6\004z\275"
 203      DC9000F8 
 203      86403D02 
 203      3DF82A36 
 203      047ABD
 204 0080 B1FEA696 		.ascii	"\261\376\246\226\233\216\343|\233~\341&=\370\202\250"
 204      9B8EE37C 
 204      9B7EE126 
 204      3DF882A8 
 205 0090 2C3407A3 		.ascii	",4\007\243h!i\332\310\376z\323de\245\311\326\317p\033"
 205      682169DA 
 205      C8FE7AD3 
 205      6465A5C9 
 205      D6CF701B 
 206 00a4 16E43AD9 		.ascii	"\026\344:\331\3549\225J._xi5\033\344\013\230,\026K\220"
 206      EC39954A 
 206      2E5F7869 
 206      351BE40B 
 206      982C164B 
 207 00b9 25CC1261 		.ascii	"%\314\022a\211\262\304X\342,6\013\321\272\204q\244O"
 207      89B2C458 
 207      E22C360B 
 207      D1BA8471 
 207      A44F
 208 00cb 42F06ABC 		.ascii	"B\360j\274E\326{\267\207\351\334v\270xiBt\3578\027\234"
 208      45D67BB7 
ARM GAS  C:\Users\Luggi\AppData\Local\Temp\cc4duQZB.s 			page 16


 208      87E9DC76 
 208      B8786942 
 208      74EF3817 
 209 00e0 902F4499 		.ascii	"\220/D\231\013p\007\335\374he\360V&\376E\370\302\000"
 209      0B7007DD 
 209      FC6865F0 
 209      5626FE45 
 209      F8C200
 210 00f3 E12E12BE 		.ascii	"\341.\022\2760i\025\213?/~\236\015p\371\2260\244+?\362"
 210      3069158B 
 210      3F2F7E9E 
 210      0D70F996 
 210      30A42B3F 
 211 0108 6C33CCAE 		.ascii	"l3\314\256\2007\345:&\027\256\255/\257\204\324O\304"
 211      8037E53A 
 211      2617AEAD 
 211      2FAF84D4 
 211      4FC4
 212 011a 5FCF2F5E 		.ascii	"_\317/^\256\304\207p\315\315\312?na\014\011\214C\216"
 212      AEC48770 
 212      CDCDCA3F 
 212      6E610C09 
 212      8C438E
 213 012d 0FF73004 		.ascii	"\017\3670\004I\314l[\032gj\342\374Bq\331\340rkM6\236"
 213      49CC6C5B 
 213      1A676AE2 
 213      FC4271D9 
 213      E0726B4D 
 214 0143 9056D9F5 		.ascii	"\220V\331\365\012\330S\2176)i[\277#\276\356?\256\231"
 214      0AD8538F 
 214      3629695B 
 214      BF23BEEE 
 214      3FAE99
 215 0156 754BA66A 		.ascii	"uK\246j\002\004\265\177\364q\251\020S\001vd\200\373"
 215      0204B57F 
 215      F471A910 
 215      53017664 
 215      80FB
 216 0168 8D069856 		.ascii	"\215\006\230V\001\202:\300\322\300a\315\014\327+\311"
 216      01823AC0 
 216      D2C061CD 
 216      0CD72BC9 
 217 0178 55037CAF 		.ascii	"U\003|\257\006\210h\377\215\253}\343\001\016\200\020"
 217      068868FF 
 217      8DAB7DE3 
 217      010E8010 
 218 0188 E141A3FD 		.ascii	"\341A\243\375gT\377Hu\217\006\222\032\031\225%\327\213"
 218      6754FF48 
 218      758F0692 
 218      1A199525 
 218      D78B
 219 019a B9036A3F 		.ascii	"\271\003j?\236\316T\267(S\352\373a\376\205\344\377@"
 219      9ECE54B7 
 219      2853EAFB 
 219      61FE85E4 
 219      FF40
 220 01ac 666B4612 		.ascii	"fkF\022\323\204\271\302\352\007=\222\222\034\311\\M"
ARM GAS  C:\Users\Luggi\AppData\Local\Temp\cc4duQZB.s 			page 17


 220      D384B9C2 
 220      EA073D92 
 220      921CC95C 
 220      4D
 221 01bd A4FFD21E 		.ascii	"\244\377\322\036\252H1\035\351\311\3401\315\214\327"
 221      AA48311D 
 221      E9C9E031 
 221      CD8CD7
 222 01cc 2B99AF19 		.ascii	"+\231\257\031\211\255\375\317?n\227\243j$6\341Q\243"
 222      89ADFDCF 
 222      3F6E97A3 
 222      6A2436E1 
 222      51A3
 223 01de FD17547F 		.ascii	"\375\027T\177\233\336\303\365^\035Q\357<\361\211\000"
 223      9BDEC3F5 
 223      5E1D51EF 
 223      3CF18900 
 224 01ee 9F04792E 		.ascii	"\237\004y.\366\036M\235Nu\2358\233:\331\321\226>\327"
 224      F61E4D9D 
 224      4E759D38 
 224      9B3AD9D1 
 224      963ED7
 225 0201 D5996A4F 		.ascii	"\325\231jO\266\245[\017\265\267\246O\235\3518\270\277"
 225      B6A55B0F 
 225      B5B7A64F 
 225      9DE938B8 
 225      BF
 226 0212 93760109 		.ascii	"\223v\001\011'D)"
 226      274429
 227              		.text
 228              		.section	.gnu.lto_Comp_3_Start.d235a6e,"",%progbits
 229 0000 789C7590 		.ascii	"x\234u\220\277KBQ\024\307\3179\367\231\222B\321\024"
 229      BF4B4251 
 229      14C7CF39 
 229      F7999242 
 229      D114
 230 0012 0D122D0E 		.ascii	"\015\022-\016A\015\321_\340\0204\005\255\202\224\275"
 230      410DD15F 
 230      E0103405 
 230      AD8294BD 
 231 0022 B10CA951 		.ascii	"\261\014\251Q\274O\015\034\"\304)\372\265e?,\255\245"
 231      BC4F0D1C 
 231      22C429FA 
 231      B5653F2C 
 231      ADA5
 232 0034 C196374B 		.ascii	"\301\2267K%\"eE\324\222P\233\342\020\022R\347>\243\300"
 232      25226545 
 232      D492509B 
 232      E2101252 
 232      E73EA3C0 
 233 0048 F0C2E3DE 		.ascii	"\360\302\343\336\367\275\337\363\375~\270\002\376\257"
 233      F7BDDFF3 
 233      FD7EB802 
 233      FEAF
 234 0056 09FE2E10 		.ascii	"\011\376.\020`\204w\264\001R\362\006\300p\020\211\274"
 234      608477B4 
 234      0152F206 
ARM GAS  C:\Users\Luggi\AppData\Local\Temp\cc4duQZB.s 			page 18


 234      C0701089 
 234      BC
 235 0067 1B64AF76 		.ascii	"\033d\257v7\016\322%Pk\313\032\242:\000B\204\204\206"
 235      370ED225 
 235      506BCB1A 
 235      A23A0042 
 235      848486
 236 007a 117CA73A 		.ascii	"\021|\247:a\322\314l:=\373R\312Z\264<\2706\330$\200"
 236      61D2CC6C 
 236      3A3DFB52 
 236      CA5AB43C 
 236      B836D824 
 237 008f 06B5F3F1 		.ascii	"\006\265\363\361\000=\300\236z\274Uq\366\304\331\323"
 237      003DC09E 
 237      7ABC5571 
 237      F6C4D9D3 
 238 009f DFBEC343 		.ascii	"\337\276\303C\354\341^\310\015\230\362\353\253q\225"
 238      ECE15EC8 
 238      0D98F2EB 
 238      AB7195
 239 00ae 4A8C925D 		.ascii	"J\214\222]@\223X|e\203\352\251\022\251]<b4U\277N\331"
 239      4093587C 
 239      6583EAA9 
 239      12A95D3C 
 239      623455BF 
 240 00c4 D5CC0709 		.ascii	"\325\314\007\011\216\333+od)\374)\023\322\321$j\251"
 240      8EDB2B6F 
 240      6429FC29 
 240      13D2D124 
 240      6AA9
 241 00d6 40565F5E 		.ascii	"@V_^\213%\307\033\261b\375\036\032\361\035\334\305m"
 241      8B25C71B 
 241      B162FD1E 
 241      1AF11DDC 
 241      C56D
 242 00e8 432A97C0 		.ascii	"C*\227\300#\014\3431\016qw\206e\270\305\370}l\376/\323"
 242      230CE331 
 242      0E717786 
 242      65B8C5F8 
 242      7D6CFE2F 
 243 00fd 485FAEDB 		.ascii	"H_\256\333\3254\023\340\211\362\201B\020\220w\213'\214"
 243      D53413E0 
 243      89F28142 
 243      1090778B 
 243      278C
 244 010f 99970597 		.ascii	"\231\227\005\2272Cg\275\326\260&N1\314\3646`\330Z\255"
 244      324367BD 
 244      D6B0264E 
 244      31CCF436 
 244      60D85AAD 
 245 0123 18B560BB 		.ascii	"\030\265`\273\222v\242e\177\321r,\263\241\264\225\216"
 245      9276A265 
 245      7FD1722C 
 245      B3A1B495 
 245      8E
 246 0134 F5291881 		.ascii	"\365)\030\201\200g\026L\2254\3535\024K\245@\335X\270"
 246      8067164C 
ARM GAS  C:\Users\Luggi\AppData\Local\Temp\cc4duQZB.s 			page 19


 246      9534EB35 
 246      144BA540 
 246      DD58B8
 247 0147 01CF7F58 		.ascii	"\001\317\177X\236\3210\037\246-'\250gE\025\300\206\341"
 247      9ED1301F 
 247      A62D27A8 
 247      674515C0 
 247      86E1
 248 0159 297D490F 		.ascii	")}I\017\315\255\350\013\376\331\340j(\240\373ff\203"
 248      CDADE80B 
 248      FED9E06A 
 248      28A0FB66 
 248      6683
 249 016b DE499F37 		.ascii	"\336I\2377\270\270\354\237\030\013\3007\356\316\250"
 249      B8B8EC9F 
 249      180BC037 
 249      EECEA8
 250 017a 16       		.ascii	"\026"
 251              		.text
 252              		.section	.gnu.lto_Comp_3_GetCompare.d235a6e,"",%progbits
 253 0000 789C6366 		.ascii	"x\234cf\300\004R@\374\033\210\225\200\230\221\231\201"
 253      C0045240 
 253      FC1B8895 
 253      80989199 
 253      81
 254 0011 9169C239 		.ascii	"\221i\3029\006\206F\016&FF\020\203\201\221\241\236\211"
 254      0686460E 
 254      26464610 
 254      838191A1 
 254      9E89
 255 0023 B19EF125 		.ascii	"\261\236\361%\323G&\3063;\377]fT_\332\320\320\364a\323"
 255      D34726C6 
 255      333BFF5D 
 255      66545FDA 
 255      D0D0F461 
 256 0038 FF3BDCAD 		.ascii	"\377;\334\255\022?\231\030\030>310\352H1j\202\314a\\"
 256      123F9918 
 256      183E3331 
 256      30EA4831 
 256      6A82CC61 
 257 004d CEA8CE00 		.ascii	"\316\250\316\000T\370\261\345\357un\266\226\206\206"
 257      54F8B1E5 
 257      EF756EB6 
 257      968686
 258 005c 0601903C 		.ascii	"\006\001\220<Pb\005#\033#\220^/t\240\341\377\377\315"
 258      50620523 
 258      1B23905E 
 258      2F74A0E1 
 258      FFFFCD
 259 006f FF269FB0 		.ascii	"\377&\237\260gfab\370\311\004\264\021d\010\303\023 "
 259      67666162 
 259      F8C904B4 
 259      116408C3 
 259      1320
 260 0081 01B2EF29 		.ascii	"\001\262\357)\023\023\210f\276\305x\350[\327\273\375"
 260      13138866 
 260      BEC578E8 
ARM GAS  C:\Users\Luggi\AppData\Local\Temp\cc4duQZB.s 			page 20


 260      5BD7BBFD 
 261 0091 56208DDF 		.ascii	"V \215\337\231@\226_\275~\370\034\333\013\246\237LL"
 261      9940965F 
 261      BD7EF81C 
 261      DB0BA69F 
 261      4C4C
 262 00a3 D3B63736 		.ascii	"\323\26676\260\200\254\271\377\344\374E\016\260\020"
 262      B080ACB9 
 262      FFE4FC45 
 262      0EB010
 263 00b2 0388BBFA 		.ascii	"\003\210\273\372x\207\314\\\306\331\215-\214?\231\230"
 263      7887CC5C 
 263      C6D98D2D 
 263      8C3F9998 
 264 00c2 1957324A 		.ascii	"\031W2J1\256b\004\272\212q5\343\\F\206[\214\315?\332"
 264      31AE6204 
 264      BA8A7135 
 264      E35C4686 
 264      5B8CCD3F 
 265 00d7 7420C631 		.ascii	"t \3061CL\2748kY3?H;\320\223\214k\200J\35712B\025\200"
 265      434CBC38 
 265      6B59333F 
 265      483BD093 
 265      8C6B804A 
 266 00f1 5DC40872 		.ascii	"]\304\010r\011\320h\005\367\324\274\324\242\304\222"
 266      09D06805 
 266      F7D4BCD4 
 266      A2C492
 267 0100 D494F8E0 		.ascii	"\324\224\370\340\374\322\242\344\324\230\200\340|g\323"
 267      FCD2A2E4 
 267      D49880E0 
 267      7C67D3
 268 010f 18E7FCDC 		.ascii	"\030\347\374\334\202xc\275d\006\000T\345e!"
 268      827863BD 
 268      64060054 
 268      E56521
 269              		.text
 270              		.section	.gnu.lto_Comp_3_ZeroCal.d235a6e,"",%progbits
 271 0000 789C8D95 		.ascii	"x\234\215\225_lSU\034\307\317\357\334{\333\256\255\351"
 271      5F6C5355 
 271      1CC7CFEF 
 271      DC7BDBAE 
 271      ADE9
 272 0012 42785961 		.ascii	"BxYa\233\311\036\210\306\030\224\250\370\340|\330\203"
 272      9BC91E88 
 272      C61894A8 
 272      F8E07CD8 
 272      83
 273 0023 AFC43DF8 		.ascii	"\257\304=\370BB\020\367\210#\004\036| \334n\315\246"
 273      424210F7 
 273      8823041E 
 273      7C20DC6E 
 273      CDA6
 274 0035 0337D30C 		.ascii	"\0037\323\014\235\303)\350D\320\375\353` NG)H]\307\006"
 274      9DC329E8 
 274      44D0FDEB 
 274      60204E47 
ARM GAS  C:\Users\Luggi\AppData\Local\Temp\cc4duQZB.s 			page 21


 274      29485DC7 
 275 004a 13C79490 		.ascii	"\023\307\224\220\225\221MgD\366\247\373w\307\244\376"
 275      95914D67 
 275      44F6A7FB 
 275      77C7A4FE 
 276 005a 7EE7DCB6 		.ascii	"~\347\334\266\367\216\261\320\344\236\177\367\367\375"
 276      F78EB1D0 
 276      E49E7FF7 
 276      F7FD
 277 0068 9CF3FB73 		.ascii	"\234\363\373sn\025\366\350\3575|\346\234\262\007\007"
 277      6E15F6E8 
 277      EF357CE6 
 277      9CB20707 
 278 0078 03FED100 		.ascii	"\003\376\321\000c\001\027\347J\314\307t\267\332[\314"
 278      630117E7 
 278      4ACCC774 
 278      B7DA5BCC 
 279 0088 74AF029A 		.ascii	"t\257\002\232\\V\323\003\015\200\006\014\330A\256\250"
 279      5C56D303 
 279      0D80060C 
 279      D841AEA8 
 280 0098 1A1C84BF 		.ascii	"\032\034\204\277\3714\207\276\273\213I\357\00478\313"
 280      F93487BE 
 280      BB8B49EF 
 280      043738CB 
 281 00a8 65386D1C 		.ascii	"e8m\034\036\237Uh\012\234\246\335\311\201\273\216M_"
 281      1E9F5568 
 281      0A9CA6DD 
 281      C981BB8E 
 281      4D5F
 282 00ba EB7AC5D4 		.ascii	"\353z\305\324LbgC\375108gI\316\340\033\360\303I\360"
 282      4C626743 
 282      FD313038 
 282      6749CEE0 
 282      1BF0C349 
 283 00cf 13F0146C 		.ascii	"\023\360\024l\"\333\236\343\367\233]J\021\320\370b\262"
 283      22DB9EE3 
 283      F79B5D4A 
 283      11D0F862 
 283      B2
 284 00e0 62D65774 		.ascii	"b\326Wt\034uw>\230\274\342\321\033\364\340\235T\252"
 284      1C75773E 
 284      98BCE2D1 
 284      1BF4E09D 
 284      54AA
 285 00f2 D0E00A7C 		.ascii	"\320\340\012|\013\012\351\237\363\3033~\323#\024\374"
 285      0B0AE99F 
 285      F3C3337E 
 285      D32314FC 
 286 0102 9BEC3EC5 		.ascii	"\233\354>\305\225g\205x\344S\243:G\210\217\325Lj\026"
 286      95678578 
 286      E453A33A 
 286      47888FD5 
 286      4C6A16
 287 0115 69CBAAD2 		.ascii	"i\313\252\322\007u\177\375\343S^\020\322\346/\023\361"
 287      07757FFD 
 287      E3535E10 
ARM GAS  C:\Users\Luggi\AppData\Local\Temp\cc4duQZB.s 			page 22


 287      D2E62F13 
 287      F1
 288 0126 A7A4F490 		.ascii	"\247\244\364\220M\332\266\252t\264\357\263\243Ne\253"
 288      4DDAB6AA 
 288      74B4EFB3 
 288      A34E65AB 
 289 0136 90B69E1F 		.ascii	"\220\266\236\037\325\335Rz\330&\355XU:\035\374o\330"
 289      D5DD527A 
 289      D826ED58 
 289      553A1DFC 
 289      6FD8
 290 0148 E308EABA 		.ascii	"\343\010\352\272\236\013\337A\021\264\342\323\216O\030"
 290      9E0BDF41 
 290      11B4E2D3 
 290      8E4F18
 291 0157 8A283E18 		.ascii	"\212(>\030\226Np\000c\352\312\267\355\353\"z*u\372\362"
 291      964E7000 
 291      63EACAB7 
 291      EDEB227A 
 291      2A75FAF2 
 292 016b 2713AF3B 		.ascii	"'\023\257;\013\025F\257UF\006\032#\023\0273\270\352"
 292      0B1546AF 
 292      5546061A 
 292      23131733 
 292      B8EA
 293 017d 6664E9A1 		.ascii	"fd\351\241\241\227\232\\j\326S\223G\215\037\033m\003"
 293      A1979A5C 
 293      6AD65393 
 293      478D1F1B 
 293      6D03
 294 018f 351B699A 		.ascii	"5\033i\232O\243\002F\231ac\370P\232\307q\202\275r\013"
 294      4FA30246 
 294      996163F8 
 294      509AC771 
 294      82BD720B 
 295 01a3 A2F3350F 		.ascii	"\242\3635\017\027\267\322i\026\270\202\007\177\330?"
 295      17B7D269 
 295      16B88207 
 295      7FD83F
 296 01b2 34E7A40C 		.ascii	"4\347\244\014;\"]\001]%_\022c\327\006]bI\270\326\265"
 296      3B225D01 
 296      5D255F12 
 296      63D7065D 
 296      6249B8D6 
 297 01c7 1CBEA734 		.ascii	"\034\276\2474\301\321@0\020)0\270\023Nc\256\317P\256"
 297      C1D14030 
 297      102930B8 
 297      134E63AE 
 297      CF50AE
 298 01da A10B9A80 		.ascii	"\241\013\232\200\335\204\012\375U\341\036\236\035\241"
 298      DD840AFD 
 298      55E11E9E 
 298      1DA1
 299 01e8 4C6C127D 		.ascii	"Ll\022}O\356\241\"\241a\350V\275\334#\232\336\243\356"
 299      4FEEA122 
 299      A161E856 
 299      BDDC239A 
ARM GAS  C:\Users\Luggi\AppData\Local\Temp\cc4duQZB.s 			page 23


 299      DEA3EE
 300 01fb 42D592D3 		.ascii	"B\325\222\323\012=\233\201\236\263C[\011\252Jh\334\204"
 300      0A3D9B81 
 300      9EB3435B 
 300      09AA4A68 
 300      DC84
 301 020d 6A48F850 		.ascii	"jH\370P\037\235Q\005\364R\006\3329\336\343\260B\277"
 301      1F9D5105 
 301      F45206DA 
 301      39DEE3B0 
 301      42BF
 302 021f CF40CFDB 		.ascii	"\317@\317\333\241\355\004\325\010:\3251P\255\321\332"
 302      A1ED04D5 
 302      083AD531 
 302      50ADD1DA 
 303 022f 0A4F35BB 		.ascii	"\012O5\273\247?\240\336\032\032\274p\320\215o\2100\225"
 303      A73FA0DE 
 303      1A1ABC70 
 303      D08D6F88 
 303      3095
 304 0241 2558DDD2 		.ascii	"%X\335\322\354n\375\210\004SR\271X5ol\223\256\270\244"
 304      EC6EFD88 
 304      045352B9 
 304      58356F6C 
 304      93AEB8A4 
 305 0255 378D5F1D 		.ascii	"7\215_\035\011\011o\234\363\300\340'I\016A\032kqL\263"
 305      09096F9C 
 305      F3C0E027 
 305      490E411A 
 305      6B714CB3 
 306 0269 3BD68358 		.ascii	";\326\203X\244\310\370\374\271\364\262\244\272Qt\366"
 306      A4C8F8FC 
 306      B9F4B2A4 
 306      BA5174F6 
 307 0279 8BF84C8E 		.ascii	"\213\370L\216\314l\207\031\240\252h]\312gr\362\211s"
 307      CC6C8719 
 307      A0AA685D 
 307      CA6772F2 
 307      8973
 308 028b 21C389A4 		.ascii	"!\303\211\244\003\364\212\010P\230\002\344\226\324\373"
 308      03F48A08 
 308      509802E4 
 308      96D4FB
 309 029a 4BC592EA 		.ascii	"K\305\222\352\261!\300\016\270H\000\364m\326!\215\275"
 309      B121C00E 
 309      B84800F4 
 309      6DD6218D 
 309      BD
 310 02ab D23EB190 		.ascii	"\322>\261\220\210\212\334\253\233\031DW\370\365X\330"
 310      888ADCAB 
 310      9B194457 
 310      F8F558D8 
 311 02bb 25E19557 		.ascii	"%\341\225W\2067\021K\207\367DM\363I\217p\251\343\260"
 311      8637114B 
 311      87F7444D 
 311      F3498F70 
 311      A9E3B0
ARM GAS  C:\Users\Luggi\AppData\Local\Temp\cc4duQZB.s 			page 24


 312 02ce E95220D0 		.ascii	"\351R \320R\233\016M\036A.g ?g#\216i\036\313P\016\015"
 312      529B0E4D 
 312      1E412E67 
 312      203F6723 
 312      8E691ECB 
 313 02e5 FF912720 		.ascii	"\377\221' \3414\244z,\336\317\255\220+\031H\314\002"
 313      E134A47A 
 313      2CDECFAD 
 313      902B1948 
 313      CC02
 314 02f7 C1002F9B 		.ascii	"\301\000/\233\001\316]\353\364\277\230\241X\254\272"
 314      01CE5DEB 
 314      F4BF98A1 
 314      58ACBA
 315 0306 C7A5F97A 		.ascii	"\307\245\371z\251\250mkN\372D0\360\246\367\242\355\020"
 315      A9A86D6B 
 315      4EFA4430 
 315      F0A6F7A2 
 315      ED10
 316 0318 047FAF7C 		.ascii	"\004\177\257|\333\264A\203X\323D\247(\003\025\253 \016"
 316      DBB44183 
 316      58D344A7 
 316      280315AB 
 316      200E
 317 032a F203338E 		.ascii	"\362\0033\216w*\346SnC0\322\224\360\2221\235\371\363"
 317      772AE653 
 317      6E4330D2 
 317      94F09231 
 317      9DF9F3
 318 033d 1BB56DFC 		.ascii	"\033\265m\374\300\003\375}\335epW\222\343\307\005\372"
 318      C003FD7D 
 318      DD657057 
 318      92E3C705 
 318      FA
 319 034e E080ED02 		.ascii	"\340\200\355\002+\270v\025\374\006\317\021\030\225\365"
 319      2BB87615 
 319      FC06CF11 
 319      1895F5
 320 035d 160BCC99 		.ascii	"\026\013\314\231\302\265(\375\2222\330x\242R\034V\301"
 320      C2B528FD 
 320      9232D878 
 320      A2521C56 
 320      C1
 321 036e B30C480A 		.ascii	"\263\014H\012\211\317%`-\3655T[7\325\322\037\236\320"
 321      89CF2560 
 321      2DF53554 
 321      5B37D5D2 
 321      1F9ED0
 322 0381 F4E482F2 		.ascii	"\364\344\202\362H\342\315\202\316\006\357\272H\275("
 322      48E2CD82 
 322      CE06EFBA 
 322      48BD28
 323 0390 BD5078EE 		.ascii	"\275Px\356I\356\346\240P\210\357Nhz\356I\356\342\257"
 323      49EEE6A0 
 323      5088EF4E 
 323      687AEE49 
 323      EEE2AF
ARM GAS  C:\Users\Luggi\AppData\Local\Temp\cc4duQZB.s 			page 25


 324 03a3 42A1CA3D 		.ascii	"B\241\312=\346\263\212\307_\263\033B\241\231\027\"U"
 324      E6B38AC7 
 324      5FB31B42 
 324      A1991722 
 324      55
 325 03b4 0F326779 		.ascii	"\0172gy\266\342\001{\351\374&\313\240b\244\372\252Y"
 325      B6E2017B 
 325      E9FC26CB 
 325      A062A4FA 
 325      AA59
 326 03c6 067E5450 		.ascii	"\006~TPa\3346\357\310\006\\\242\277\251#\037\267h\024"
 326      61DC36EF 
 326      C8065CA2 
 326      BFA9231F 
 326      B76814
 327 03d9 69CDC560 		.ascii	"i\315\305`(]k\313\246\321F[\225\203\275\306of\3670\217"
 327      285D6BCB 
 327      A6D1465B 
 327      9583BDC6 
 327      6F66F730 
 328 03ee 948F0AEB 		.ascii	"\224\217\012\353=,\020\333\344\263\0210\015\012\030"
 328      3D2C10DB 
 328      E4B31130 
 328      0D0A18
 329 03fd FD2F00A5 		.ascii	"\375/\000\245\005\377\035\236~\243\354\335\262\275;"
 329      05FF1D9E 
 329      7EA3ECDD 
 329      B2BD3B
 330 040c F795BDB3 		.ascii	"\367\225\275\263\243\264|\377\336]e\333\267\225\226"
 330      A3B47CFF 
 330      DE5D65DB 
 330      B79596
 331 041b 97BCB4BD 		.ascii	"\227\274\264\275\244|\367\236\035[\236\337\305\034\373"
 331      A47CF79E 
 331      1D5B9EDF 
 331      C51CFB
 332 042a 76EF297D 		.ascii	"v\357)}k\263\354^\224\335\026\015\273\2227\377\007\245"
 332      6BB3EC5E 
 332      94DD160D 
 332      BB9237FF 
 332      07A5
 333 043c 9FDD90   		.ascii	"\237\335\220"
 334              		.text
 335              		.section	.gnu.lto_Comp_3_LoadTrim.d235a6e,"",%progbits
 336 0000 789C6591 		.ascii	"x\234e\221?H[q\020\307\357{?\363\3620\035\304\241`&"
 336      3F485B71 
 336      10C7EF7B 
 336      3FF3F230 
 336      1DC4A160 
 337 0015 A10441A4 		.ascii	"\241\004A\244K\351.8\270\012B'A\305f\020\324H\320\331"
 337      4BE92E38 
 337      B80A4227 
 337      41C56610 
 337      D448D0D9 
 338 0029 DF4B8342 		.ascii	"\337K\203B\225\"VE\024\007\361_Z\243\211:9\010\017\035"
 338      95225645 
 338      1407F15F 
ARM GAS  C:\Users\Luggi\AppData\Local\Temp\cc4duQZB.s 			page 26


 338      5AA3893A 
 338      39080F1D 
 339 003d 04C5960E 		.ascii	"\004\305\226\016%\255\203\2056J\273U\0244C\325\273\204"
 339      25AD8385 
 339      364ABB55 
 339      143443D5 
 339      BB84
 340 004f 8AE283DF 		.ascii	"\212\342\203\337\373\335\035w\337\317\367\3363\364\370"
 340      FBDD1D77 
 340      DFCFF7DE 
 340      33F4F8
 341 005e 09CBD903 		.ascii	"\011\313\331\003Q\255\3340\004\036\375D\344\271\014"
 341      51ADDC30 
 341      041EFD44 
 341      E4B90C
 342 006d 6840A001 		.ascii	"h@\240\001\306\000\376\360\031c\324_\231\012\325,Zk"
 342      C600FEF0 
 342      1963D45F 
 342      990AD52C 
 342      5A6B
 343 007f FF8E4D0C 		.ascii	"\377\216M\014\032;\336V`\242s.\011a\0315\322d\347\346"
 343      1A3BDE56 
 343      60A2732E 
 343      09611935 
 343      D264E7E6 
 344 0093 33E5E619 		.ascii	"3\345\346\031H\342\203\237W\347O~s\201Q\241\351t\356"
 344      48E2839F 
 344      57E74F7E 
 344      738151A1 
 344      E974EE
 345 00a6 E4C268CA 		.ascii	"\344\302h\312\254ij+[\027\231\2676\341ogm\275\224\015"
 345      AC696A2B 
 345      5B1799B7 
 345      36E16F67 
 345      6DBD940D 
 346 00ba 52302287 		.ascii	"R0\"\207\017\010\343#\302$%\302\012\"\332}\226\374\227"
 346      0F08E323 
 346      C22425C2 
 346      0A22DA7D 
 346      96FC97
 347 00cd 0B394981 		.ascii	"\0139I\201W\224\220H\303\021\337\224\251\364\355\315"
 347      57949048 
 347      C311DF94 
 347      A9F4EDCD 
 348 00dd CDE6D7A9 		.ascii	"\315\346\327\251Dd\304\270\200\016\260\214\226\005\344"
 348      4464C4B8 
 348      800EB08C 
 348      9605E4
 349 00ec 15703422 		.ascii	"\025p4\"\312\313\204\356s\"h\271\315\021\022\337\206"
 349      CACB84EE 
 349      732268B9 
 349      CD1112DF 
 349      86
 350 00fd 4E877743 		.ascii	"N\207wC\252r\311|\311\240#\354\214\315=\325\202\340"
 350      AA72C97C 
 350      C9A023EC 
 350      8CCD3DD5 
ARM GAS  C:\Users\Luggi\AppData\Local\Temp\cc4duQZB.s 			page 27


 350      82E0
 351 010f 96DE2EA4 		.ascii	"\226\336.\244B\352\325\311\216x\266L\035\374\310\177"
 351      42EAD5C9 
 351      8E78B64C 
 351      1DFCC87F 
 352 011f FEE2164B 		.ascii	"\376\342\026K\244\251\347\245\3379\263\230\361\222\236"
 352      A4A9E7A5 
 352      DF39B398 
 352      F1929E
 353 012e 5F55E020 		.ascii	"_U\340 V\305\365\232\270&d0\013\021\025\3057\307\203"
 353      56C5F59A 
 353      B8266430 
 353      0B1115C5 
 353      37C783
 354 0141 D7779480 		.ascii	"\327w\224\200Pdpab2\035P\035\327%de@\315\004K-\332\365"
 354      50647061 
 354      62321D50 
 354      1DD72564 
 354      6540CD04 
 355 0159 D0C870EE 		.ascii	"\320\310p\356{U\021\272\376\337\307P~\377\220\357\203"
 355      7B5511BA 
 355      FEDFC750 
 355      7EFF90EF 
 355      83
 356 016a D7EFC01B 		.ascii	"\327\357\300\033E\260C\307\360\374\367\277\\\225\320"
 356      45B043C7 
 356      F0FCF7BF 
 356      5C95D0
 357 0179 5F9397ED 		.ascii	"_\223\227\355dk\371\006\325\215\321\236h\274\275/\372"
 357      646BF906 
 357      D58DD19E 
 357      68BCBD2F 
 357      FA
 358 018a BAB539D6 		.ascii	"\272\2659\326\037\357\210\26645\307\032^\2664\304\272"
 358      1FEF88B6 
 358      3435C71A 
 358      5EB634C4 
 358      BA
 359 019b 7B5B5F3C 		.ascii	"{[_<\357\240`_\274\263\373U{\327-L\343\255\311"
 359      EFA0605F 
 359      BCB3FB55 
 359      7BD72D4C 
 359      E3ADC9
 360              		.text
 361              		.section	.gnu.lto_Comp_3_PwrDwnOverrideEnable.d235a6e,"",%progbits
 362 0000 789C6366 		.ascii	"x\234cf\300\004R@\254\311\310\300\240\004\244\031\231"
 362      C0045240 
 362      ACC9C8C0 
 362      A004A419 
 362      99
 363 0011 19189926 		.ascii	"\031\030\231&\234c`h\344`bd\0041\030\030\031\352\231"
 363      9C636068 
 363      E4606264 
 363      04311818 
 363      19EA99
 364 0024 18EB195F 		.ascii	"\030\353\031_2}db\234p`\365\014n\365\245\015\015\015"
 364      327D6462 
ARM GAS  C:\Users\Luggi\AppData\Local\Temp\cc4duQZB.s 			page 28


 364      9C7060F5 
 364      0C6EF5A5 
 364      0D0D0D
 365 0037 1F2ECD6D 		.ascii	"\037.\315m\343m\230\222\360\223\211\201\3413\023\304"
 365      E36D9892 
 365      F0938981 
 365      E13313C4 
 366 0047 20C6E58C 		.ascii	" \306\345\214\352\014@U\037[\376^\347fk\001\252\022"
 366      EA0C4055 
 366      1F5BFE5E 
 366      E7666B01 
 366      AA12
 367 0059 80C831AE 		.ascii	"\200\3101\256`d\003Z\300\260^\350@\303\377\377\233\277"
 367      6064035A 
 367      C0B05EE8 
 367      40C3FFFF 
 367      9BBF
 368 006b CFE852ED 		.ascii	"\317\350R\355gfeb\370\311\004\264\017H00<\001*\003\331"
 368      67666562 
 368      F8C904B4 
 368      0F483030 
 368      3C012A03 
 369 0080 F6948909 		.ascii	"\366\224\211\011D3\337b<\364\255\353X\377c.\220\326"
 369      4433DF62 
 369      3CF4ADEB 
 369      58FF632E 
 369      90D6
 370 0092 EF4C20BB 		.ascii	"\357L \273\267\315?\365\211\363\005\323O&\246\003\033"
 370      B7CD3FF5 
 370      89F305D3 
 370      4F26A603 
 370      1B
 371 00a3 1A1B5840 		.ascii	"\032\033X@\026\335\177r\376\"\007X\210\001\304m;\324"
 371      16DD7F72 
 371      FE220758 
 371      8801C46D 
 371      3BD4
 372 00b5 FF9F7F2E 		.ascii	"\377\237\177.\343\354\306\026\306\237L\314\214+\031"
 372      E3ECC616 
 372      C69F4CCC 
 372      8C2B19
 373 00c4 A5185731 		.ascii	"\245\030W1\002}\307\270\232q.#\303-\306\346/l\020\343"
 373      027DC7B8 
 373      9A712E23 
 373      C32DC6E6 
 373      2F6C10E3 
 374 00d8 982126EE 		.ascii	"\230!&\356\232tb\006\033H;#\013\003\343\032\240J\240"
 374      9A746206 
 374      1B483B23 
 374      0B03E31A 
 374      A04AA0
 375 00eb AD931841 		.ascii	"\255\223\030AJ\360\031\266\026h\030\320\010\206{\214"
 375      4AF019B6 
 375      166818D0 
 375      08867B8C 
 376 00fb 8D073E3F 		.ascii	"\215\007>?\326\000)\007y\376\011\320\033@\227\003]\242"
 376      D6002907 
ARM GAS  C:\Users\Luggi\AppData\Local\Temp\cc4duQZB.s 			page 29


 376      79FE09D0 
 376      1B409703 
 376      5DA2
 377 010d E09E9A97 		.ascii	"\340\236\232\227Z\224X\222\232\022\037\234_Z\224\234"
 377      5A945892 
 377      9A121F9C 
 377      5F5A949C 
 378 011d 1A13109C 		.ascii	"\032\023\020\234\357l\032\343\234\237[\020o\254\227"
 378      EF6C1AE3 
 378      9C9F5B10 
 378      6FAC97
 379 012c CC000041 		.ascii	"\314\000\000A\325t\025"
 379      D57415
 380              		.text
 381              		.section	.gnu.lto_Comp_3_PwrDwnOverrideDisable.d235a6e,"",%progbits
 382 0000 789C6366 		.ascii	"x\234cf\300\004R@\254\305\310\300\240\004\244\031\231"
 382      C0045240 
 382      ACC5C8C0 
 382      A004A419 
 382      99
 383 0011 19189926 		.ascii	"\031\030\231&\234c`h\344`bd\0041\030\030\031\352\231"
 383      9C636068 
 383      E4606264 
 383      04311818 
 383      19EA99
 384 0024 18EB195F 		.ascii	"\030\353\031_2}db\234p`\365\014n\365\245\015\015\015"
 384      327D6462 
 384      9C7060F5 
 384      0C6EF5A5 
 384      0D0D0D
 385 0037 1F366D6E 		.ascii	"\0376mn\343m\230\222\360\223\211\201\3413\023\304 \306"
 385      E36D9892 
 385      F0938981 
 385      E13313C4 
 385      20C6
 386 0049 E58CEA0C 		.ascii	"\345\214\352\014@U\037[\376^\347fk\001\252\022\200\310"
 386      40551F5B 
 386      FE5EE766 
 386      6B01AA12 
 386      80C8
 387 005b 31AE6064 		.ascii	"1\256`d\003Z\300\260^\350@\303\377\377\233\317\315\354"
 387      035AC0B0 
 387      5EE840C3 
 387      FFFF9BCF 
 387      CDEC
 388 006d B29DC9CC 		.ascii	"\262\235\311\314\312\304\360\223\011h\037\220``x\002"
 388      CAC4F093 
 388      09681F90 
 388      60607802 
 389 007d 5406B2ED 		.ascii	"T\006\262\355)\023\023\210f\276\305x\350[\327\267\231"
 389      29131388 
 389      66BEC578 
 389      E85BD7B7 
 389      99
 390 008e 8FB9405A 		.ascii	"\217\271@Z\2773\201\354\3366\377\324'\316\027L?\231"
 390      BF3381EC 
 390      DE36FFD4 
ARM GAS  C:\Users\Luggi\AppData\Local\Temp\cc4duQZB.s 			page 30


 390      27CE174C 
 390      3F99
 391 00a0 980E6C68 		.ascii	"\230\016lhl`\001Yt\377\311\371\213\034`!\006\020\267"
 391      6C600159 
 391      74FFC9F9 
 391      8B1C6021 
 391      0610B7
 392 00b3 ED50FF7F 		.ascii	"\355P\377\177\376\271\214\263\033[\030\177213\256d\224"
 392      FEB98CB3 
 392      1B5B187F 
 392      323133AE 
 392      6494
 393 00c5 625CC508 		.ascii	"b\\\305\010\364\035\343j\306\271\214\014\267\030\233"
 393      F41DE36A 
 393      C6B98C0C 
 393      B7189B
 394 00d4 7FB0418C 		.ascii	"\177\260A\214c\206\230\270\374\350\363\203\274 \355"
 394      638698B8 
 394      FCE8F383 
 394      BC20ED
 395 00e3 CCBF1919 		.ascii	"\314\277\031\031\030\327\000\225\002\255\235\304\010"
 395      18D70095 
 395      02AD9DC4 
 395      08
 396 00f0 5283CFB4 		.ascii	"R\203\317\264\265@\323\200f0\334cl<\260\377\231\006"
 396      B540D380 
 396      6630DC63 
 396      6C3CB0FF 
 396      9906
 397 0102 4839C8F7 		.ascii	"H9\310\367O\200\376\000:\035\350\024\005\367\324\274"
 397      4F80FE00 
 397      3A1DE814 
 397      05F7D4BC 
 398 0112 D4A2C492 		.ascii	"\324\242\304\222\324\224\370\340\374\322\242\344\324"
 398      D494F8E0 
 398      FCD2A2E4 
 398      D4
 399 011f 9880E07C 		.ascii	"\230\200\340|g\323\030\347\374\334\202xc\275d\006\000"
 399      67D318E7 
 399      FCDC8278 
 399      63BD6406 
 399      00
 400 0130 4C25757C 		.ascii	"L%u|"
 401              		.text
 402              		.section	.gnu.lto_.symbol_nodes.d235a6e,"",%progbits
 403 0000 789C55CA 		.ascii	"x\234U\312;\012\302P\020\205\34133\367&7\217%\270\014"
 403      3B0AC250 
 403      1085E133 
 403      33F72637 
 403      8F25B80C 
 404 0014 F777520A 		.ascii	"\367wR\012\202\330h\035\203Kp\0056\026Bz;\015\3422\304"
 404      82D8681D 
 404      834B7005 
 404      3616427A 
 404      3B0DE232 
 405 0029 842064A6 		.ascii	"\204 d\246\371\371\016c\000D0\237\346\004\366=@\342"
 405      F9F90E63 
ARM GAS  C:\Users\Luggi\AppData\Local\Temp\cc4duQZB.s 			page 31


 405      0044309F 
 405      E604F63D 
 405      40E2
 406 003b D06E6AA8 		.ascii	"\320nj\250R\376\303\261M\320@u\2164gap6\306\245#pRB"
 406      52FEC3B1 
 406      4DD04075 
 406      8E346761 
 406      7036C6A5 
 407 0053 3366EE2D 		.ascii	"3f\356-1w.\230\234K\026\316\025\313\245\245f5\033M\223"
 407      31772E98 
 407      9C4B16CE 
 407      15CBA5A5 
 407      66351B4D 
 408 0068 60A871DE 		.ascii	"`\250q\336}\036\321\202\241{~\305b\300pY[\024t\257\221"
 408      7D1ED182 
 408      A17B7EC5 
 408      62C07059 
 408      5B1474AF 
 409 007d 09E8EE37 		.ascii	"\011\350\3567\233z\335\276WS\207\261\370\001(\210C\331"
 409      9B7ADDBE 
 409      575387B1 
 409      F8012888 
 409      43D9
 410              		.text
 411              		.section	.gnu.lto_.refs.d235a6e,"",%progbits
 412 0000 789C6366 		.ascii	"x\234cf``\340d\200\000&V\0066FF6\026\006\000\001n\000"
 412      6060E064 
 412      80002656 
 412      06364646 
 412      36160600 
 413 0017 26       		.ascii	"&"
 414              		.text
 415              		.section	.gnu.lto_.decls.d235a6e,"",%progbits
 416 0000 789C8555 		.ascii	"x\234\205U{LSW\030?\247\247Ph\013\272\177pa&\326\230"
 416      7B4C5357 
 416      183FA7A7 
 416      50680BBA 
 416      7F706126 
 417 0016 989918B3 		.ascii	"\230\231\030\263G\266\370\337\\p\321-f#a\356\217if\252"
 417      47B6F8DF 
 417      5C70D12D 
 417      662361EE 
 417      8F6966AA 
 418 002a DC4C9C02 		.ascii	"\334L\234\002)u\206\277v\2448\031\216\011>\221\371\200"
 418      297586BF 
 418      76A43819 
 418      8E093E91 
 418      F980
 419 003c 4D11516B 		.ascii	"M\021QkE\034+ -\240\200\255@\201\312\313W\001\331\\"
 419      451C2B20 
 419      2DA080AD 
 419      4081CACB 
 419      5701D95C 
 420 0050 DC48654E 		.ascii	"\334HeNQ\214w\3379\367^z\313\312\270\311\007\367\234"
 420      518C77DF 
 420      39F75E7A 
 420      CBCAB8C9 
ARM GAS  C:\Users\Luggi\AppData\Local\Temp\cc4duQZB.s 			page 32


 420      07F79C
 421 0063 FBFD1EDF 		.ascii	"\373\375\036\337w>\016\004!4\237 $\302c\210Ah-F\310"
 421      773E0E04 
 421      21349F20 
 421      24C26388 
 421      41682D46 
 422 0078 087BC910 		.ascii	"\010{\311\020\260\215\022 \354\020UHz\3307'D=D\003\204"
 422      B08D1220 
 422      EC105548 
 422      7AD83727 
 422      443D4403 
 423 008d 1BA209E2 		.ascii	"\033\242\011\342*D+\204\007\242\003\302\007\321\015"
 423      2A442B84 
 423      07A203C2 
 423      07D10D
 424 009c E187004A 		.ascii	"\341\207\000J\324\207\302\037\306\021+\353T\311:\253"
 424      D487C21F 
 424      C6112BEB 
 424      54C93AAB 
 425 00ac 216E430C 		.ascii	"!nC\014B\334\221uo\310\371\032\031\343G\377}\230\027"
 425      42DC9175 
 425      6FC8F91A 
 425      19E347FF 
 425      7D9817
 426 00bf ADCC95A0 		.ascii	"\255\314\225\240\342@\262v}\004L\303,\230\206\010\030"
 426      E240B276 
 426      7D044CC3 
 426      2C988608 
 426      18
 427 00d0 566BCC34 		.ascii	"Vk\3144\317\001\025v\030bH\305\341\216\300\301z\245"
 427      CF011576 
 427      186248C5 
 427      E18EC0C1 
 427      7AA5
 428 00e2 53E98EC8 		.ascii	"S\351\216\310\\5\323<h\344\334H\034\254\327\321*\216"
 428      5C35D33C 
 428      68E4DC48 
 428      1CACD7D1 
 428      2A8E
 429 00f4 FB32C728 		.ascii	"\3732\307(D\255\234C\344\274&\271\376Hg\320*\367@\251"
 429      44AD9C43 
 429      E4BC26B9 
 429      FE4867D0 
 429      2AF740A9 
 430 0108 657A0F5A 		.ascii	"ez\017Z#h\263\363\325C\304#i\026\354*\274I\3051\"\327"
 430      2368B3F3 
 430      D543C423 
 430      6916EC2A 
 430      BC49C531 
 431 011e A4D4C270 		.ascii	"\244\324\302p\316\010|lV\2249PsN\347\373H\345\253#\002"
 431      CE087C6C 
 431      56943950 
 431      734EE7FB 
 431      48E5AB23 
 432 0133 8F0FFDFF 		.ascii	"\217\017\375\377y\372\"`\272g\301tG\300<\322`\357\360"
 432      79FA2260 
 432      BA67C174 
ARM GAS  C:\Users\Luggi\AppData\Local\Temp\cc4duQZB.s 			page 33


 432      47C03CD2 
 432      60EFF0
 433 0146 C4DFC607 		.ascii	"\304\337\306\007\032\034\257\237\313\226%}\243\217\011"
 433      1A1CAF9F 
 433      CB96257D 
 433      A38F09
 434 0155 2C8D7A0D 		.ascii	",\215z\015[\036\033\037\253\217%\032\314\336\177.\036"
 434      5B1E1B1F 
 434      AB8F251A 
 434      CCDE7F2E 
 434      1E
 435 0166 F2EB9756 		.ascii	"\362\353\227VRJ\363\250\273\015\207(v\226\327}\257\003"
 435      524AF3A8 
 435      BB0D8728 
 435      7696D77D 
 435      AF03
 436 0178 8C49CF97 		.ascii	"\214I\317\227\207\037NT\307\360\245(\022\330\320\224"
 436      871F4E54 
 436      C7F0A528 
 436      12D8D094 
 437 0188 FB9E96C4 		.ascii	"\373\236\226\304\343\305\372\223\000\015V\364\016\316"
 437      E3C5FA93 
 437      000D56F4 
 437      0ECE
 438 0196 A7548BED 		.ascii	"\247T\213\355X\217\317`\202+\361Rf\220a\331\223Gi\016"
 438      588FCF60 
 438      822BF152 
 438      669061D9 
 438      9347690E 
 439 01aa A5361AF5 		.ascii	"\2456\032\365:\302\247q\"\256\300\211\010\237\307\213"
 439      3AC2A771 
 439      22AEC089 
 439      089FC78B 
 440 01ba 2181A7E2 		.ascii	"!\201\247\342\263\260y\216m\002\001\210\365\272v\357"
 440      B3B0798E 
 440      6D020188 
 440      F5BA76EF 
 441 01ca 8E216F61 		.ascii	"\216!oa\265\217\004\311\307\017\336\222F\302\227\"\373"
 441      B58F04C9 
 441      C70FDE92 
 441      46C29722 
 441      FB
 442 01db AC191838 		.ascii	"\254\031\0308\360\214`\375b.\021\334G\311\253\010/M"
 442      F08C60FD 
 442      622E11DC 
 442      47C9AB08 
 442      2F4D
 443 01ed C44B80EB 		.ascii	"\304K\200\353\022\010$\310\002\016\020\270\010\002\314"
 443      120824C8 
 443      020E10B8 
 443      0802CC
 444 01fc 6D69651C 		.ascii	"mie\034\306U\340\364B\310i\202\354\224\355\203\212\323"
 444      C655E0F4 
 444      42C86982 
 444      EC94ED83 
 444      8AD3
 445 020e FEB8DDC0 		.ascii	"\376\270\335\300\373gb\242\265\373\332\212\243y\377"
ARM GAS  C:\Users\Luggi\AppData\Local\Temp\cc4duQZB.s 			page 34


 445      FB6762A2 
 445      B5FBDA8A 
 445      A379FF
 446 021d B46C59B8 		.ascii	"\264lY\270\253\261P\253\325H\331x\035\337\373G\034:"
 446      ABB150AB 
 446      D548D978 
 446      1DDFFB47 
 446      1C3A
 447 022f A5997710 		.ascii	"\245\231w\020\350i\241\215\316\325\342\344\004\\\015"
 447      E869A18D 
 447      CED5E2E4 
 447      045C0D
 448 023e A2974114 		.ascii	"\242\227A\024\341\032<\017~\376\202\265Ro\213\304g\373"
 448      E11A3C0F 
 448      7EFE82B5 
 448      526F8BC4 
 448      67FB
 449 0250 756439AF 		.ascii	"ud9\257\317u~\374h\224\3518u;\202%\315\366-E6z\222\006"
 449      CF757EFC 
 449      6894E938 
 449      753B8225 
 449      CDF62D45 
 450 0268 44710107 		.ascii	"Dq\001\007\341_\247,\"\366.ytb\023\000\353&\207\375"
 450      E15FA72C 
 450      22F62E79 
 450      74621300 
 450      EB2687FD 
 451 027c DA19156B 		.ascii	"\332\031\025k\271\342:Y\260\321\333\327\211\311W\\\260"
 451      B9E23A59 
 451      B0D1DBD7 
 451      89C9575C 
 451      B0
 452 028d A9BABC3D 		.ascii	"\251\272\274=\032\004\003\216\200\267Yp\347\322\027"
 452      1A04038E 
 452      80B75970 
 452      E7D217
 453 029c EC441900 		.ascii	"\354D\031\000\327\251\324\352\024\265z\256V\375\362"
 453      D7A9D4EA 
 453      14B57AAE 
 453      56FDF2
 454 02ab 6C998664 		.ascii	"l\231\206ds\206\261\252\234\"\0350\224:J\333OE\267Q"
 454      7386B1AA 
 454      9C221D30 
 454      943A4ADB 
 454      4F45B751 
 455 02bf B728BEC7 		.ascii	"\267(\276\307\361WT\370+\012\276\201\343\317?\356w\021"
 455      F15754F8 
 455      2B0ABE81 
 455      E3CF3FEE 
 455      7711
 456 02d1 B20B7382 		.ascii	"\262\013s\202\272\243ycQ\334Bi\301i\205\200\225\353"
 456      BAA37963 
 456      51DC4269 
 456      C1698580 
 456      95EB
 457 02e3 5211B814 		.ascii	"R\021\270\024\0027'xq\250\337\023M\016J\004;;r}\006"
 457      02372778 
ARM GAS  C:\Users\Luggi\AppData\Local\Temp\cc4duQZB.s 			page 35


 457      71A8DF13 
 457      4D0E4A04 
 457      3B3B727D 
 458 02f8 89E06115 		.ascii	"\211\340a\025]!\325\300-4\252\030\032\025\206&\316\320"
 458      5D21D5C0 
 458      2D34AA18 
 458      1A158626 
 458      CED0
 459 030a F5A8ED88 		.ascii	"\365\250\355\210\216\224I\014\327\313\016\356\211\227"
 459      8E94490C 
 459      D7CB0EEE 
 459      8997
 460 0318 6A280EAB 		.ascii	"j(\016\253\241YE\320\254\020\\\345\004\337\345:\210"
 460      A15945D0 
 460      AC105CE5 
 460      04DFE53A 
 460      88
 461 0329 BAE1ECF4 		.ascii	"\272\341\354\364C\035\277\026\326\361\347\317\236\006"
 461      431DBF16 
 461      D6F1E7CF 
 461      9E06
 462 0337 62885D12 		.ascii	"b\210]\022;f\033\270\024\307\305\002\223\277\207Z\016"
 462      3B661BB8 
 462      14C7C502 
 462      93BF875A 
 462      0E
 463 0348 08DCA292 		.ascii	"\010\334\242\222kQ\344Z\271\334\344p\2173l\244\354a"
 463      6B51E45A 
 463      B9DCE470 
 463      8F336CA4 
 463      EC61
 464 035a 7A6D617A 		.ascii	"zmaz\007\316\025\364k\211[\322\273\233\263\327&\035"
 464      07CE15F4 
 464      6B895BD2 
 464      BB9BB3D7 
 464      261D
 465 036c 50402C68 		.ascii	"P@,h1R\251<\016\301\327U\202\327\025A\017\027<\321\372"
 465      3152A93C 
 465      0EC1D755 
 465      82D71541 
 465      0F173CD1 
 466 0381 E7CD397C 		.ascii	"\347\3159|\256\355Ss\355p\331\257\031f\234\262\033\334"
 466      AEED5373 
 466      ED70D9AF 
 466      19669CB2 
 466      1BDC
 467 0393 835799EB 		.ascii	"\203W\231\353C\023\277\215E\221N\311\304\225\007\025"
 467      4313BF8D 
 467      45914EC9 
 467      C4950715 
 468 03a3 4B240F67 		.ascii	"K$\017g.\366\207<\000\004\267\253<\264+\036:\270\207"
 468      2EF6873C 
 468      0004B7AB 
 468      3CB42B1E 
 468      3AB887
 469 03b6 82139E32 		.ascii	"\202\023\2362B\356I\024\205gG\355r\337\376\272\270\371"
 469      42EE4914 
ARM GAS  C:\Users\Luggi\AppData\Local\Temp\cc4duQZB.s 			page 36


 469      856747ED 
 469      72DFFEBA 
 469      B8F9
 470 03c8 082DCDA1 		.ascii	"\010-\315\241/E\370\273\347\007\325\251\"\351TH|\234"
 470      2F45F8BB 
 470      E707D5A9 
 470      22E95448 
 470      7C9C
 471 03da A4E7C0A9 		.ascii	"\244\347\300\251\362x2)\221<\231\350\317\327K'\375\343"
 471      F2783229 
 471      913C99E8 
 471      CFD74B27 
 471      FDE3
 472 03ec A5D4B079 		.ascii	"\245\324\260y\357RQt)\024\335\234b\377P\240$\212\024"
 472      EF525174 
 472      2914DD9C 
 472      62FF50A0 
 472      248A14
 473 03ff 4B97E48B 		.ascii	"K\227\344\213&\3475>\2574\350\371c\362\215#\264L1\302"
 473      26E7353E 
 473      AF34E8F9 
 473      63F28D23 
 473      B44C31C2 
 474 0413 AAE951B1 		.ascii	"\252\351Q\261\364(,~\3162^\361\234\352H\223\304\362"
 474      F4282C7E 
 474      CE325EF1 
 474      9CEA4893 
 474      C4F2
 475 0425 F296A386 		.ascii	"\362\226\243\206\335\"06\274[\236\242\006jXTFK\177\012"
 475      DD223036 
 475      BC5B9EA2 
 475      066A5854 
 475      464B7F0A 
 476 0439 96D8BCE4 		.ascii	"\226\330\274\3440\320S\312\306\220\017\326M\211U\276"
 476      30D053CA 
 476      C6900FD6 
 476      4D8955BE 
 477 0449 CC105BC3 		.ascii	"\314\020[\303\317^vI\366\341E\000\247\207\367\234\214"
 477      CF5E7649 
 477      F6E14500 
 477      A787F79C 
 477      8C
 478 045a 215D12F7 		.ascii	"!]\022\367\345'\371\3168}\036\273dg\277\004\341\332"
 478      E527F9CE 
 478      387D1EBB 
 478      6467BF04 
 478      E1DA
 479 046c F477E4F7 		.ascii	"\364w\344\367\306J\327\346t\304\255\031\256\315`\305"
 479      C64AD7E6 
 479      74C4AD19 
 479      AECD60C5 
 480 047c C4C8EA5C 		.ascii	"\304\310\352\\\272\002\017\202\273\376\320\3259\200"
 480      BA020F82 
 480      BBFED0D5 
 480      3980
 481 048a F553FF34 		.ascii	"\365S\3774\374\336\234[\304\230\317\356b\230\226\330"
 481      FCDE9C5B 
ARM GAS  C:\Users\Luggi\AppData\Local\Temp\cc4duQZB.s 			page 37


 481      C498CFEE 
 481      629896D8 
 482 049a D53C3734 		.ascii	"\325<74.\267\261\2217\007~\263[\3363\336\251S'\263f"
 482      2EB7B191 
 482      37077EB3 
 482      5BDE33DE 
 482      A95327B3 
 483 04af 8692EFC8 		.ascii	"\206\222\357\310\311wX2\261w\271\216kpb\242\276\030"
 483      C9775832 
 483      B177B98E 
 483      6B7062A2 
 483      BE18
 484 04c1 FE514D2C 		.ascii	"\376QM,\300\001Pe\257\356\007\242\370\215(={u|;\217"
 484      C0015065 
 484      AFEE07A2 
 484      F88D283D 
 484      7B757C3B 
 485 04d6 0D6B3047 		.ascii	"\015k0GU\023\342\373\010\337\003\362\273\254\203\001"
 485      5513E2FB 
 485      08DF03F2 
 485      BBAC8301 
 486 04e6 7ECB0F15 		.ascii	"~\313\017\025\266\324\307*M\313\233\245\005\220o\373"
 486      B6D4C72A 
 486      4DCB9BA5 
 486      05906FFB 
 487 04f6 F6684B8C 		.ascii	"\366hK\214\332\360PXu\303\262\341a^\335q\307\340Bun"
 487      DAF05058 
 487      75C3B2E1 
 487      615EDD71 
 487      C7E04275 
 488 050b 4D587123 		.ascii	"MXq#r\356\010\317\355\012\212_\250s\303/\226\373r\356"
 488      72EE08CF 
 488      ED0A8A5F 
 488      A873C32F 
 488      96FB72EE 
 489 051f 7D9E7BE1 		.ascii	"}\236{\341\211\257\322\240N\256\015#\036\305F\345`\340"
 489      89AFD2A0 
 489      4EAE0D23 
 489      1EC546E5 
 489      60E0
 490 0531 15456F4F 		.ascii	"\025EoOK\267\276\371n\364\252\217\327\232\222\320\302"
 490      4BB7BEF9 
 490      6EF4AA8F 
 490      D79A92D0 
 490      C2
 491 0542 5542BA60 		.ascii	"UB\272`1[\205\324\015)\031\333-\233\204\365\311)\031"
 491      315B85D4 
 491      0D2919DB 
 491      2D9B84F5 
 491      C92919
 492 0555 49EFACDF 		.ascii	"I\357\254\337\224m\315\316\024\262\226mFQ,\177\371+"
 492      946DCDCE 
 492      14B2966D 
 492      46512C7F 
 492      F92B
 493 0567 4919DB32 		.ascii	"I\031\33327\274\275\301jI\333\366~\352\226\355YV\323"
 493      37BCBDC1 
ARM GAS  C:\Users\Luggi\AppData\Local\Temp\cc4duQZB.s 			page 38


 493      6A49DBF6 
 493      7EEA96ED 
 493      5956D3
 494 057a 0C482971 		.ascii	"\014H)q\331&\024'C>H7o\334*\030\344U\2125#s\216\362"
 494      D9261427 
 494      433E4837 
 494      6FDC2A18 
 494      E4558A35 
 495 0592 2E585332 		.ascii	".XS2\005!U\371\366az\232\3258\225g\266X\025\325U\202"
 495      052155F9 
 495      F6617A9A 
 495      D5389567 
 495      B65815D5 
 496 05a8 95BD992D 		.ascii	"\225\275\231-B\274\274\363\271`\311H2oU\230\326d\230"
 496      42BCBCF3 
 496      B960C948 
 496      326F5598 
 496      D66498
 497 05bb 533F056B 		.ascii	"S?\005k\257\311\353\344\035\226\225;\322?\371Z\260X"
 497      AFC9EBE4 
 497      1D96953B 
 497      D23FF95A 
 497      B058
 498 05cd D25205C9 		.ascii	"\322R\005\311\301\374\210\337V\246e\261\217\261I\331"
 498      C1FC88DF 
 498      56A665B1 
 498      8FB149D9 
 499 05dd 2B85ADE6 		.ascii	"+\205\255\346\354\265Y\013f\252+{M\332F\350\207\342"
 499      ECB5590B 
 499      66AA2B7B 
 499      4DDA46E8 
 499      87E2
 500 05ef 200DCC7E 		.ascii	" \015\314~f\266h-\302\227\313\377\005\033\344C\326"
 500      66B6682D 
 500      C297CBFF 
 500      051BE443 
 500      D6
 501              		.text
 502              		.section	.gnu.lto_.symtab.d235a6e,"",%progbits
 503 0000 436F6D70 		.ascii	"Comp_3_Enable\000\000\000\000\000\000\000\000\000\000"
 503      5F335F45 
 503      6E61626C 
 503      65000000 
 503      00000000 
 504 0017 0000BC00 		.ascii	"\000\000\274\000\000\000Comp_3_Stop\000\000\000\000"
 504      0000436F 
 504      6D705F33 
 504      5F53746F 
 504      70000000 
 505 002c 00000000 		.ascii	"\000\000\000\000\000\000\000\000\276\000\000\000Com"
 505      00000000 
 505      BE000000 
 505      436F6D
 506 003b 705F335F 		.ascii	"p_3_SetSpeed\000\000\000\000\000\000\000\000\000\000"
 506      53657453 
 506      70656564 
 506      00000000 
ARM GAS  C:\Users\Luggi\AppData\Local\Temp\cc4duQZB.s 			page 39


 506      00000000 
 507 0051 0000C000 		.ascii	"\000\000\300\000\000\000Comp_3_Init\000\000\000\000"
 507      0000436F 
 507      6D705F33 
 507      5F496E69 
 507      74000000 
 508 0066 00000000 		.ascii	"\000\000\000\000\000\000\000\000\302\000\000\000Com"
 508      00000000 
 508      C2000000 
 508      436F6D
 509 0075 705F335F 		.ascii	"p_3_Start\000\000\000\000\000\000\000\000\000\000\000"
 509      53746172 
 509      74000000 
 509      00000000 
 509      00000000 
 510 0089 00C40000 		.ascii	"\000\304\000\000\000Comp_3_initVar\000\000\000\000\000"
 510      00436F6D 
 510      705F335F 
 510      696E6974 
 510      56617200 
 511 00a1 00000000 		.ascii	"\000\000\000\000\000\000\000\327\000\000\000Comp_3_"
 511      000000D7 
 511      00000043 
 511      6F6D705F 
 511      335F
 512 00b3 47657443 		.ascii	"GetCompare\000\000\000\000\000\000\000\000\000\000\000"
 512      6F6D7061 
 512      72650000 
 512      00000000 
 512      00000000 
 513 00c8 00C70000 		.ascii	"\000\307\000\000\000Comp_3_ZeroCal\000\000\000\000\000"
 513      00436F6D 
 513      705F335F 
 513      5A65726F 
 513      43616C00 
 514 00e0 00000000 		.ascii	"\000\000\000\000\000\000\000\312\000\000\000Comp_3_"
 514      000000CA 
 514      00000043 
 514      6F6D705F 
 514      335F
 515 00f2 4C6F6164 		.ascii	"LoadTrim\000\000\000\000\000\000\000\000\000\000\000"
 515      5472696D 
 515      00000000 
 515      00000000 
 515      000000
 516 0105 00CE0000 		.ascii	"\000\316\000\000\000Comp_3_PwrDwnOverrideEnable\000"
 516      00436F6D 
 516      705F335F 
 516      50777244 
 516      776E4F76 
 517 0126 00000000 		.ascii	"\000\000\000\000\000\000\000\000\000\000\000\320\000"
 517      00000000 
 517      000000D0 
 517      00
 518 0133 0000436F 		.ascii	"\000\000Comp_3_PwrDwnOverrideDisable\000\000\000\000"
 518      6D705F33 
 518      5F507772 
ARM GAS  C:\Users\Luggi\AppData\Local\Temp\cc4duQZB.s 			page 40


 518      44776E4F 
 518      76657272 
 519 0155 00000000 		.ascii	"\000\000\000\000\000\000\000\000\322\000\000\000CyD"
 519      00000000 
 519      D2000000 
 519      437944
 520 0164 656C6179 		.ascii	"elayUs\000\000\002\000\000\000\000\000\000\000\000\000"
 520      55730000 
 520      02000000 
 520      00000000 
 520      0000
 521 0176 D4000000 		.ascii	"\324\000\000\000"
 522              		.text
 523              		.section	.gnu.lto_.opts,"",%progbits
 524 0000 272D666E 		.ascii	"'-fno-trapv' '-fno-strict-overflow' '-mcpu=cortex-m"
 524      6F2D7472 
 524      61707627 
 524      20272D66 
 524      6E6F2D73 
 525 0033 33272027 		.ascii	"3' '-mthumb' '-g' '-Og' '-ffunction-sections' '-flt"
 525      2D6D7468 
 525      756D6227 
 525      20272D67 
 525      2720272D 
 526 0066 6F272027 		.ascii	"o' '-ffat-lto-objects'\000"
 526      2D666661 
 526      742D6C74 
 526      6F2D6F62 
 526      6A656374 
 527              		.text
 528              		.cfi_sections	.debug_frame
 529              		.section	.text.Comp_3_trimAdjust,"ax",%progbits
 530              		.align	2
 531              		.thumb
 532              		.thumb_func
 533              		.type	Comp_3_trimAdjust, %function
 534              	Comp_3_trimAdjust:
 535              	.LFB6:
 536              		.file 1 "Generated_Source\\PSoC5\\Comp_3.c"
   1:Generated_Source\PSoC5/Comp_3.c **** /*******************************************************************************
   2:Generated_Source\PSoC5/Comp_3.c **** * File Name: Comp_3.c
   3:Generated_Source\PSoC5/Comp_3.c **** * Version 2.0
   4:Generated_Source\PSoC5/Comp_3.c **** *
   5:Generated_Source\PSoC5/Comp_3.c **** * Description:
   6:Generated_Source\PSoC5/Comp_3.c **** *  This file provides the source code to the API for the Comparator component
   7:Generated_Source\PSoC5/Comp_3.c **** *
   8:Generated_Source\PSoC5/Comp_3.c **** * Note:
   9:Generated_Source\PSoC5/Comp_3.c **** *  None
  10:Generated_Source\PSoC5/Comp_3.c **** *
  11:Generated_Source\PSoC5/Comp_3.c **** ********************************************************************************
  12:Generated_Source\PSoC5/Comp_3.c **** * Copyright 2008-2012, Cypress Semiconductor Corporation.  All rights reserved.
  13:Generated_Source\PSoC5/Comp_3.c **** * You may use this file only in accordance with the license, terms, conditions, 
  14:Generated_Source\PSoC5/Comp_3.c **** * disclaimers, and limitations in the end user license agreement accompanying 
  15:Generated_Source\PSoC5/Comp_3.c **** * the software package with which this file was provided.
  16:Generated_Source\PSoC5/Comp_3.c **** *******************************************************************************/
  17:Generated_Source\PSoC5/Comp_3.c **** 
  18:Generated_Source\PSoC5/Comp_3.c **** #include "Comp_3.h"
ARM GAS  C:\Users\Luggi\AppData\Local\Temp\cc4duQZB.s 			page 41


  19:Generated_Source\PSoC5/Comp_3.c **** 
  20:Generated_Source\PSoC5/Comp_3.c **** uint8 Comp_3_initVar = 0u;
  21:Generated_Source\PSoC5/Comp_3.c **** 
  22:Generated_Source\PSoC5/Comp_3.c **** /* Internal functions definitoin */
  23:Generated_Source\PSoC5/Comp_3.c **** static void Comp_3_trimAdjust(uint8 nibble) ;
  24:Generated_Source\PSoC5/Comp_3.c **** 
  25:Generated_Source\PSoC5/Comp_3.c **** /* static Comp_3_backupStruct  Comp_3_backup; */
  26:Generated_Source\PSoC5/Comp_3.c **** #if (CY_PSOC5A)
  27:Generated_Source\PSoC5/Comp_3.c ****     static Comp_3_LOWPOWER_BACKUP_STRUCT  Comp_3_lowPowerBackup;
  28:Generated_Source\PSoC5/Comp_3.c **** #endif /* CY_PSOC5A */
  29:Generated_Source\PSoC5/Comp_3.c **** 
  30:Generated_Source\PSoC5/Comp_3.c **** /* variable to decide whether or not to restore the control register in 
  31:Generated_Source\PSoC5/Comp_3.c ****    Enable() API for PSoC5A only */
  32:Generated_Source\PSoC5/Comp_3.c **** #if (CY_PSOC5A)
  33:Generated_Source\PSoC5/Comp_3.c ****     static uint8 Comp_3_restoreReg = 0u;
  34:Generated_Source\PSoC5/Comp_3.c **** #endif /* CY_PSOC5A */
  35:Generated_Source\PSoC5/Comp_3.c **** 
  36:Generated_Source\PSoC5/Comp_3.c **** 
  37:Generated_Source\PSoC5/Comp_3.c **** /*******************************************************************************
  38:Generated_Source\PSoC5/Comp_3.c **** * Function Name: Comp_3_Init
  39:Generated_Source\PSoC5/Comp_3.c **** ********************************************************************************
  40:Generated_Source\PSoC5/Comp_3.c **** *
  41:Generated_Source\PSoC5/Comp_3.c **** * Summary:
  42:Generated_Source\PSoC5/Comp_3.c **** *  Initialize to the schematic state
  43:Generated_Source\PSoC5/Comp_3.c **** * 
  44:Generated_Source\PSoC5/Comp_3.c **** * Parameters:
  45:Generated_Source\PSoC5/Comp_3.c **** *  void
  46:Generated_Source\PSoC5/Comp_3.c **** *
  47:Generated_Source\PSoC5/Comp_3.c **** * Return:
  48:Generated_Source\PSoC5/Comp_3.c **** *  void
  49:Generated_Source\PSoC5/Comp_3.c **** *
  50:Generated_Source\PSoC5/Comp_3.c **** *******************************************************************************/
  51:Generated_Source\PSoC5/Comp_3.c **** void Comp_3_Init(void) 
  52:Generated_Source\PSoC5/Comp_3.c **** {
  53:Generated_Source\PSoC5/Comp_3.c ****     /* Set default speed/power */
  54:Generated_Source\PSoC5/Comp_3.c ****     Comp_3_SetSpeed(Comp_3_DEFAULT_SPEED);
  55:Generated_Source\PSoC5/Comp_3.c **** 
  56:Generated_Source\PSoC5/Comp_3.c ****     /* Set default Hysteresis */
  57:Generated_Source\PSoC5/Comp_3.c ****     #if ( Comp_3_DEFAULT_HYSTERESIS == 0u )
  58:Generated_Source\PSoC5/Comp_3.c ****         Comp_3_CR |= Comp_3_HYST_OFF;
  59:Generated_Source\PSoC5/Comp_3.c ****     #else
  60:Generated_Source\PSoC5/Comp_3.c ****         Comp_3_CR &= (uint8)(~Comp_3_HYST_OFF);
  61:Generated_Source\PSoC5/Comp_3.c ****     #endif /* Comp_3_DEFAULT_HYSTERESIS == 0u */
  62:Generated_Source\PSoC5/Comp_3.c ****     /* Power down override feature is not supported for PSoC5A. */
  63:Generated_Source\PSoC5/Comp_3.c ****     #if (CY_PSOC3 || CY_PSOC5LP)
  64:Generated_Source\PSoC5/Comp_3.c ****         /* Set default Power Down Override */
  65:Generated_Source\PSoC5/Comp_3.c ****         #if ( Comp_3_DEFAULT_PWRDWN_OVRD == 0u )
  66:Generated_Source\PSoC5/Comp_3.c ****             Comp_3_CR &= (uint8)(~Comp_3_PWRDWN_OVRD);
  67:Generated_Source\PSoC5/Comp_3.c ****         #else 
  68:Generated_Source\PSoC5/Comp_3.c ****             Comp_3_CR |= Comp_3_PWRDWN_OVRD;
  69:Generated_Source\PSoC5/Comp_3.c ****         #endif /* Comp_3_DEFAULT_PWRDWN_OVRD == 0u */
  70:Generated_Source\PSoC5/Comp_3.c ****     #endif /* CY_PSOC3 || CY_PSOC5LP */
  71:Generated_Source\PSoC5/Comp_3.c ****     
  72:Generated_Source\PSoC5/Comp_3.c ****     /* Set mux always on logic */
  73:Generated_Source\PSoC5/Comp_3.c ****     Comp_3_CR |= Comp_3_MX_AO;
  74:Generated_Source\PSoC5/Comp_3.c **** 
  75:Generated_Source\PSoC5/Comp_3.c ****     /* Set default sync */
ARM GAS  C:\Users\Luggi\AppData\Local\Temp\cc4duQZB.s 			page 42


  76:Generated_Source\PSoC5/Comp_3.c ****     Comp_3_CLK &= (uint8)(~Comp_3_SYNCCLK_MASK);
  77:Generated_Source\PSoC5/Comp_3.c ****     #if ( Comp_3_DEFAULT_BYPASS_SYNC == 0u )
  78:Generated_Source\PSoC5/Comp_3.c ****         Comp_3_CLK |= Comp_3_SYNC_CLK_EN;
  79:Generated_Source\PSoC5/Comp_3.c ****     #else
  80:Generated_Source\PSoC5/Comp_3.c ****         Comp_3_CLK |= Comp_3_BYPASS_SYNC;
  81:Generated_Source\PSoC5/Comp_3.c ****     #endif /* Comp_3_DEFAULT_BYPASS_SYNC == 0u */
  82:Generated_Source\PSoC5/Comp_3.c **** }
  83:Generated_Source\PSoC5/Comp_3.c **** 
  84:Generated_Source\PSoC5/Comp_3.c **** 
  85:Generated_Source\PSoC5/Comp_3.c **** /*******************************************************************************
  86:Generated_Source\PSoC5/Comp_3.c **** * Function Name: Comp_3_Enable
  87:Generated_Source\PSoC5/Comp_3.c **** ********************************************************************************
  88:Generated_Source\PSoC5/Comp_3.c **** *
  89:Generated_Source\PSoC5/Comp_3.c **** * Summary:
  90:Generated_Source\PSoC5/Comp_3.c **** *  Enable the Comparator
  91:Generated_Source\PSoC5/Comp_3.c **** * 
  92:Generated_Source\PSoC5/Comp_3.c **** * Parameters:
  93:Generated_Source\PSoC5/Comp_3.c **** *  void
  94:Generated_Source\PSoC5/Comp_3.c **** *
  95:Generated_Source\PSoC5/Comp_3.c **** * Return:
  96:Generated_Source\PSoC5/Comp_3.c **** *  void
  97:Generated_Source\PSoC5/Comp_3.c **** *
  98:Generated_Source\PSoC5/Comp_3.c **** *******************************************************************************/
  99:Generated_Source\PSoC5/Comp_3.c **** void Comp_3_Enable(void) 
 100:Generated_Source\PSoC5/Comp_3.c **** {
 101:Generated_Source\PSoC5/Comp_3.c ****     Comp_3_PWRMGR |= Comp_3_ACT_PWR_EN;
 102:Generated_Source\PSoC5/Comp_3.c ****     Comp_3_STBY_PWRMGR |= Comp_3_STBY_PWR_EN;
 103:Generated_Source\PSoC5/Comp_3.c ****      
 104:Generated_Source\PSoC5/Comp_3.c ****      /* This is to restore the value of register CR which is saved 
 105:Generated_Source\PSoC5/Comp_3.c ****     in prior to the modification in stop() API */
 106:Generated_Source\PSoC5/Comp_3.c ****     #if (CY_PSOC5A)
 107:Generated_Source\PSoC5/Comp_3.c ****         if(Comp_3_restoreReg == 1u)
 108:Generated_Source\PSoC5/Comp_3.c ****         {
 109:Generated_Source\PSoC5/Comp_3.c ****             Comp_3_CR = Comp_3_lowPowerBackup.compCRReg;
 110:Generated_Source\PSoC5/Comp_3.c **** 
 111:Generated_Source\PSoC5/Comp_3.c ****             /* Clear the flag */
 112:Generated_Source\PSoC5/Comp_3.c ****             Comp_3_restoreReg = 0u;
 113:Generated_Source\PSoC5/Comp_3.c ****         }
 114:Generated_Source\PSoC5/Comp_3.c ****     #endif /* CY_PSOC5A */
 115:Generated_Source\PSoC5/Comp_3.c **** }
 116:Generated_Source\PSoC5/Comp_3.c **** 
 117:Generated_Source\PSoC5/Comp_3.c **** 
 118:Generated_Source\PSoC5/Comp_3.c **** /*******************************************************************************
 119:Generated_Source\PSoC5/Comp_3.c **** * Function Name: Comp_3_Start
 120:Generated_Source\PSoC5/Comp_3.c **** ********************************************************************************
 121:Generated_Source\PSoC5/Comp_3.c **** *
 122:Generated_Source\PSoC5/Comp_3.c **** * Summary:
 123:Generated_Source\PSoC5/Comp_3.c **** *  The start function initializes the Analog Comparator with the default values.
 124:Generated_Source\PSoC5/Comp_3.c **** *
 125:Generated_Source\PSoC5/Comp_3.c **** * Parameters:
 126:Generated_Source\PSoC5/Comp_3.c **** *  void
 127:Generated_Source\PSoC5/Comp_3.c **** *
 128:Generated_Source\PSoC5/Comp_3.c **** * Return:
 129:Generated_Source\PSoC5/Comp_3.c **** *  void 
 130:Generated_Source\PSoC5/Comp_3.c **** *
 131:Generated_Source\PSoC5/Comp_3.c **** * Global variables:
 132:Generated_Source\PSoC5/Comp_3.c **** *  Comp_3_initVar: Is modified when this function is called for the 
ARM GAS  C:\Users\Luggi\AppData\Local\Temp\cc4duQZB.s 			page 43


 133:Generated_Source\PSoC5/Comp_3.c **** *   first time. Is used to ensure that initialization happens only once.
 134:Generated_Source\PSoC5/Comp_3.c **** *  
 135:Generated_Source\PSoC5/Comp_3.c **** *******************************************************************************/
 136:Generated_Source\PSoC5/Comp_3.c **** void Comp_3_Start(void) 
 137:Generated_Source\PSoC5/Comp_3.c **** {
 138:Generated_Source\PSoC5/Comp_3.c **** 
 139:Generated_Source\PSoC5/Comp_3.c ****     if ( Comp_3_initVar == 0u )
 140:Generated_Source\PSoC5/Comp_3.c ****     {
 141:Generated_Source\PSoC5/Comp_3.c ****         Comp_3_Init();
 142:Generated_Source\PSoC5/Comp_3.c ****         
 143:Generated_Source\PSoC5/Comp_3.c ****         Comp_3_initVar = 1u;
 144:Generated_Source\PSoC5/Comp_3.c ****     }   
 145:Generated_Source\PSoC5/Comp_3.c **** 
 146:Generated_Source\PSoC5/Comp_3.c ****     /* Enable power to comparator */
 147:Generated_Source\PSoC5/Comp_3.c ****     Comp_3_Enable();    
 148:Generated_Source\PSoC5/Comp_3.c **** }
 149:Generated_Source\PSoC5/Comp_3.c **** 
 150:Generated_Source\PSoC5/Comp_3.c **** 
 151:Generated_Source\PSoC5/Comp_3.c **** /*******************************************************************************
 152:Generated_Source\PSoC5/Comp_3.c **** * Function Name: Comp_3_Stop
 153:Generated_Source\PSoC5/Comp_3.c **** ********************************************************************************
 154:Generated_Source\PSoC5/Comp_3.c **** *
 155:Generated_Source\PSoC5/Comp_3.c **** * Summary:
 156:Generated_Source\PSoC5/Comp_3.c **** *  Powers down amplifier to lowest power state.
 157:Generated_Source\PSoC5/Comp_3.c **** *
 158:Generated_Source\PSoC5/Comp_3.c **** * Parameters:
 159:Generated_Source\PSoC5/Comp_3.c **** *  void
 160:Generated_Source\PSoC5/Comp_3.c **** *
 161:Generated_Source\PSoC5/Comp_3.c **** * Return:
 162:Generated_Source\PSoC5/Comp_3.c **** *  void
 163:Generated_Source\PSoC5/Comp_3.c **** *
 164:Generated_Source\PSoC5/Comp_3.c **** *******************************************************************************/
 165:Generated_Source\PSoC5/Comp_3.c **** void Comp_3_Stop(void) 
 166:Generated_Source\PSoC5/Comp_3.c **** {
 167:Generated_Source\PSoC5/Comp_3.c ****     /* Disable power to comparator */
 168:Generated_Source\PSoC5/Comp_3.c ****     Comp_3_PWRMGR &= (uint8)(~Comp_3_ACT_PWR_EN);
 169:Generated_Source\PSoC5/Comp_3.c ****     Comp_3_STBY_PWRMGR &= (uint8)(~Comp_3_STBY_PWR_EN);
 170:Generated_Source\PSoC5/Comp_3.c ****     
 171:Generated_Source\PSoC5/Comp_3.c ****     #if (CY_PSOC5A)
 172:Generated_Source\PSoC5/Comp_3.c ****         /* Enable the variable */
 173:Generated_Source\PSoC5/Comp_3.c ****         Comp_3_restoreReg = 1u;
 174:Generated_Source\PSoC5/Comp_3.c **** 
 175:Generated_Source\PSoC5/Comp_3.c ****         /* Save the control register before clearing it */
 176:Generated_Source\PSoC5/Comp_3.c ****         Comp_3_lowPowerBackup.compCRReg = Comp_3_CR;
 177:Generated_Source\PSoC5/Comp_3.c ****         Comp_3_CR = Comp_3_COMP_REG_CLR;
 178:Generated_Source\PSoC5/Comp_3.c ****     #endif /* CY_PSOC5A */
 179:Generated_Source\PSoC5/Comp_3.c **** }
 180:Generated_Source\PSoC5/Comp_3.c **** 
 181:Generated_Source\PSoC5/Comp_3.c **** 
 182:Generated_Source\PSoC5/Comp_3.c **** /*******************************************************************************
 183:Generated_Source\PSoC5/Comp_3.c **** * Function Name: Comp_3_SetSpeed
 184:Generated_Source\PSoC5/Comp_3.c **** ********************************************************************************
 185:Generated_Source\PSoC5/Comp_3.c **** *
 186:Generated_Source\PSoC5/Comp_3.c **** * Summary:
 187:Generated_Source\PSoC5/Comp_3.c **** *  This function sets the speed of the Analog Comparator. The faster the speed
 188:Generated_Source\PSoC5/Comp_3.c **** *  the more power that is used.
 189:Generated_Source\PSoC5/Comp_3.c **** *
ARM GAS  C:\Users\Luggi\AppData\Local\Temp\cc4duQZB.s 			page 44


 190:Generated_Source\PSoC5/Comp_3.c **** * Parameters:
 191:Generated_Source\PSoC5/Comp_3.c **** *  speed: (uint8) Sets operation mode of Comparator
 192:Generated_Source\PSoC5/Comp_3.c **** *
 193:Generated_Source\PSoC5/Comp_3.c **** * Return:
 194:Generated_Source\PSoC5/Comp_3.c **** *  void
 195:Generated_Source\PSoC5/Comp_3.c **** *
 196:Generated_Source\PSoC5/Comp_3.c **** *******************************************************************************/
 197:Generated_Source\PSoC5/Comp_3.c **** void Comp_3_SetSpeed(uint8 speed) 
 198:Generated_Source\PSoC5/Comp_3.c **** {
 199:Generated_Source\PSoC5/Comp_3.c ****     /* Clear and Set power level */    
 200:Generated_Source\PSoC5/Comp_3.c ****     Comp_3_CR = (Comp_3_CR & (uint8)(~Comp_3_PWR_MODE_MASK)) |
 201:Generated_Source\PSoC5/Comp_3.c ****                            (speed & Comp_3_PWR_MODE_MASK);
 202:Generated_Source\PSoC5/Comp_3.c **** 
 203:Generated_Source\PSoC5/Comp_3.c ****     /* Set trim value for high speed comparator */
 204:Generated_Source\PSoC5/Comp_3.c ****     if(speed == Comp_3_HIGHSPEED)
 205:Generated_Source\PSoC5/Comp_3.c ****     {
 206:Generated_Source\PSoC5/Comp_3.c ****         /* PSoC5A */
 207:Generated_Source\PSoC5/Comp_3.c ****         #if (CY_PSOC5A)
 208:Generated_Source\PSoC5/Comp_3.c ****             Comp_3_TR = Comp_3_HS_TRIM_TR0;
 209:Generated_Source\PSoC5/Comp_3.c ****         #endif /* CY_PSOC5A */
 210:Generated_Source\PSoC5/Comp_3.c ****         
 211:Generated_Source\PSoC5/Comp_3.c ****         /* PSoC3, PSoC5LP or later */
 212:Generated_Source\PSoC5/Comp_3.c ****         #if (CY_PSOC3 || CY_PSOC5LP) 
 213:Generated_Source\PSoC5/Comp_3.c ****             Comp_3_TR0 = Comp_3_HS_TRIM_TR0;
 214:Generated_Source\PSoC5/Comp_3.c ****             Comp_3_TR1 = Comp_3_HS_TRIM_TR1;
 215:Generated_Source\PSoC5/Comp_3.c ****         #endif /* CY_PSOC3 || CY_PSOC5LP */
 216:Generated_Source\PSoC5/Comp_3.c ****     }
 217:Generated_Source\PSoC5/Comp_3.c ****     else
 218:Generated_Source\PSoC5/Comp_3.c ****     {
 219:Generated_Source\PSoC5/Comp_3.c ****     /* PSoC5A */
 220:Generated_Source\PSoC5/Comp_3.c ****         #if (CY_PSOC5A)
 221:Generated_Source\PSoC5/Comp_3.c ****             Comp_3_TR = Comp_3_LS_TRIM_TR0;
 222:Generated_Source\PSoC5/Comp_3.c ****         #endif /* CY_PSOC5A */
 223:Generated_Source\PSoC5/Comp_3.c ****         
 224:Generated_Source\PSoC5/Comp_3.c ****         /* PSoC3, PSoC5LP or later */
 225:Generated_Source\PSoC5/Comp_3.c ****         #if (CY_PSOC3 || CY_PSOC5LP) 
 226:Generated_Source\PSoC5/Comp_3.c ****             Comp_3_TR0 = Comp_3_LS_TRIM_TR0;
 227:Generated_Source\PSoC5/Comp_3.c ****             Comp_3_TR1 = Comp_3_LS_TRIM_TR1;
 228:Generated_Source\PSoC5/Comp_3.c ****         #endif /* CY_PSOC3 || CY_PSOC5LP */
 229:Generated_Source\PSoC5/Comp_3.c ****     }
 230:Generated_Source\PSoC5/Comp_3.c **** 
 231:Generated_Source\PSoC5/Comp_3.c **** }
 232:Generated_Source\PSoC5/Comp_3.c **** 
 233:Generated_Source\PSoC5/Comp_3.c **** 
 234:Generated_Source\PSoC5/Comp_3.c **** /*******************************************************************************
 235:Generated_Source\PSoC5/Comp_3.c **** * Function Name: Comp_3_GetCompare
 236:Generated_Source\PSoC5/Comp_3.c **** ********************************************************************************
 237:Generated_Source\PSoC5/Comp_3.c **** *
 238:Generated_Source\PSoC5/Comp_3.c **** * Summary:
 239:Generated_Source\PSoC5/Comp_3.c **** *  This function returns the comparator output value.
 240:Generated_Source\PSoC5/Comp_3.c **** *  This value is not affected by the Polarity parameter.
 241:Generated_Source\PSoC5/Comp_3.c **** *  This valuea lways reflects a noninverted state.
 242:Generated_Source\PSoC5/Comp_3.c **** *
 243:Generated_Source\PSoC5/Comp_3.c **** * Parameters:
 244:Generated_Source\PSoC5/Comp_3.c **** *   None
 245:Generated_Source\PSoC5/Comp_3.c **** *
 246:Generated_Source\PSoC5/Comp_3.c **** * Return:
ARM GAS  C:\Users\Luggi\AppData\Local\Temp\cc4duQZB.s 			page 45


 247:Generated_Source\PSoC5/Comp_3.c **** *  (uint8)  0     - if Pos_Input less than Neg_input
 248:Generated_Source\PSoC5/Comp_3.c **** *           non 0 - if Pos_Input greater than Neg_input.
 249:Generated_Source\PSoC5/Comp_3.c **** *
 250:Generated_Source\PSoC5/Comp_3.c **** *******************************************************************************/
 251:Generated_Source\PSoC5/Comp_3.c **** uint8 Comp_3_GetCompare(void) 
 252:Generated_Source\PSoC5/Comp_3.c **** {
 253:Generated_Source\PSoC5/Comp_3.c ****     return( Comp_3_WRK & Comp_3_CMP_OUT_MASK);
 254:Generated_Source\PSoC5/Comp_3.c **** }
 255:Generated_Source\PSoC5/Comp_3.c **** 
 256:Generated_Source\PSoC5/Comp_3.c **** 
 257:Generated_Source\PSoC5/Comp_3.c **** /*******************************************************************************
 258:Generated_Source\PSoC5/Comp_3.c **** * Function Name: Comp_3_trimAdjust
 259:Generated_Source\PSoC5/Comp_3.c **** ********************************************************************************
 260:Generated_Source\PSoC5/Comp_3.c **** *
 261:Generated_Source\PSoC5/Comp_3.c **** * Summary:
 262:Generated_Source\PSoC5/Comp_3.c **** *  This function adjusts the value in the low nibble/high nibble of the Analog 
 263:Generated_Source\PSoC5/Comp_3.c **** *  Comparator trim register
 264:Generated_Source\PSoC5/Comp_3.c **** *
 265:Generated_Source\PSoC5/Comp_3.c **** * Parameters:  
 266:Generated_Source\PSoC5/Comp_3.c **** *  nibble:
 267:Generated_Source\PSoC5/Comp_3.c **** *      0 -- adjusts the value in the low nibble
 268:Generated_Source\PSoC5/Comp_3.c **** *      1 -- adjusts the value in the high nibble
 269:Generated_Source\PSoC5/Comp_3.c **** *
 270:Generated_Source\PSoC5/Comp_3.c **** * Return:
 271:Generated_Source\PSoC5/Comp_3.c **** *  None
 272:Generated_Source\PSoC5/Comp_3.c **** *
 273:Generated_Source\PSoC5/Comp_3.c **** * Theory: 
 274:Generated_Source\PSoC5/Comp_3.c **** *  Function assumes comparator block is setup for trim adjust.
 275:Generated_Source\PSoC5/Comp_3.c **** *  Intended to be called from Comp_ZeroCal()
 276:Generated_Source\PSoC5/Comp_3.c **** * 
 277:Generated_Source\PSoC5/Comp_3.c **** * Side Effects:
 278:Generated_Source\PSoC5/Comp_3.c **** *  Routine uses a course 1ms delay following each trim adjustment to allow 
 279:Generated_Source\PSoC5/Comp_3.c **** *  the comparator output to respond.
 280:Generated_Source\PSoC5/Comp_3.c **** *
 281:Generated_Source\PSoC5/Comp_3.c **** *******************************************************************************/
 282:Generated_Source\PSoC5/Comp_3.c **** static void Comp_3_trimAdjust(uint8 nibble) 
 283:Generated_Source\PSoC5/Comp_3.c **** {
 537              		.loc 1 283 0
 538              		.cfi_startproc
 539              		@ args = 0, pretend = 0, frame = 0
 540              		@ frame_needed = 0, uses_anonymous_args = 0
 541              	.LVL0:
 542 0000 F8B5     		push	{r3, r4, r5, r6, r7, lr}
 543              		.cfi_def_cfa_offset 24
 544              		.cfi_offset 3, -24
 545              		.cfi_offset 4, -20
 546              		.cfi_offset 5, -16
 547              		.cfi_offset 6, -12
 548              		.cfi_offset 7, -8
 549              		.cfi_offset 14, -4
 284:Generated_Source\PSoC5/Comp_3.c ****     uint8 trimCnt, trimCntMax;
 285:Generated_Source\PSoC5/Comp_3.c ****     uint8 cmpState;   
 286:Generated_Source\PSoC5/Comp_3.c **** 
 287:Generated_Source\PSoC5/Comp_3.c ****     /* get current state of comparator output */
 288:Generated_Source\PSoC5/Comp_3.c ****     cmpState = Comp_3_WRK & Comp_3_CMP_OUT_MASK;
 550              		.loc 1 288 0
 551 0002 194B     		ldr	r3, .L12
ARM GAS  C:\Users\Luggi\AppData\Local\Temp\cc4duQZB.s 			page 46


 552 0004 1D78     		ldrb	r5, [r3]	@ zero_extendqisi2
 553 0006 05F00105 		and	r5, r5, #1
 554              	.LVL1:
 289:Generated_Source\PSoC5/Comp_3.c ****     
 290:Generated_Source\PSoC5/Comp_3.c ****     if (nibble == 0u)
 555              		.loc 1 290 0
 556 000a 0646     		mov	r6, r0
 557 000c 30B9     		cbnz	r0, .L2
 291:Generated_Source\PSoC5/Comp_3.c ****     {    
 292:Generated_Source\PSoC5/Comp_3.c ****         /* if comparator output is high, negative offset adjust is required */
 293:Generated_Source\PSoC5/Comp_3.c ****         if ( cmpState != 0u )
 558              		.loc 1 293 0
 559 000e 5DB1     		cbz	r5, .L3
 294:Generated_Source\PSoC5/Comp_3.c ****         {
 295:Generated_Source\PSoC5/Comp_3.c ****             /* PSoC5A */
 296:Generated_Source\PSoC5/Comp_3.c ****             #if (CY_PSOC5A)
 297:Generated_Source\PSoC5/Comp_3.c ****                 Comp_3_TR |= Comp_3_CMP_TRIM1_DIR;
 298:Generated_Source\PSoC5/Comp_3.c ****             #endif /* CY_PSOC5A */
 299:Generated_Source\PSoC5/Comp_3.c ****             
 300:Generated_Source\PSoC5/Comp_3.c ****             /* PSoC3, PSoC5LP or later */
 301:Generated_Source\PSoC5/Comp_3.c ****             #if (CY_PSOC3 || CY_PSOC5LP)
 302:Generated_Source\PSoC5/Comp_3.c ****                 Comp_3_TR0 |= Comp_3_CMP_TR0_DIR;
 560              		.loc 1 302 0
 561 0010 164A     		ldr	r2, .L12+4
 562 0012 1378     		ldrb	r3, [r2]	@ zero_extendqisi2
 563 0014 43F01003 		orr	r3, r3, #16
 564 0018 1370     		strb	r3, [r2]
 565 001a 05E0     		b	.L3
 566              	.L2:
 303:Generated_Source\PSoC5/Comp_3.c ****             #endif /* CY_PSOC3 || CY_PSOC5LP */
 304:Generated_Source\PSoC5/Comp_3.c ****         }
 305:Generated_Source\PSoC5/Comp_3.c ****     }
 306:Generated_Source\PSoC5/Comp_3.c ****     else
 307:Generated_Source\PSoC5/Comp_3.c ****     {
 308:Generated_Source\PSoC5/Comp_3.c ****         /* if comparator output is low, positive offset adjust is required */
 309:Generated_Source\PSoC5/Comp_3.c ****         if ( cmpState == 0u )
 567              		.loc 1 309 0
 568 001c 25B9     		cbnz	r5, .L3
 310:Generated_Source\PSoC5/Comp_3.c ****         {
 311:Generated_Source\PSoC5/Comp_3.c ****             /* PSoC5A */
 312:Generated_Source\PSoC5/Comp_3.c ****             #if (CY_PSOC5A)
 313:Generated_Source\PSoC5/Comp_3.c ****                 Comp_3_TR |= Comp_3_CMP_TRIM2_DIR; 
 314:Generated_Source\PSoC5/Comp_3.c ****             #endif /* CY_PSOC5A */
 315:Generated_Source\PSoC5/Comp_3.c ****             
 316:Generated_Source\PSoC5/Comp_3.c ****             /* PSoC3, PSoC5LP or later */
 317:Generated_Source\PSoC5/Comp_3.c ****             #if (CY_PSOC3 || CY_PSOC5LP)
 318:Generated_Source\PSoC5/Comp_3.c ****                 Comp_3_TR1 |= Comp_3_CMP_TR1_DIR;
 569              		.loc 1 318 0
 570 001e 144A     		ldr	r2, .L12+8
 571 0020 1378     		ldrb	r3, [r2]	@ zero_extendqisi2
 572 0022 43F01003 		orr	r3, r3, #16
 573 0026 1370     		strb	r3, [r2]
 574              	.L3:
 319:Generated_Source\PSoC5/Comp_3.c ****             #endif /* CY_PSOC3 || CY_PSOC5LP */
 320:Generated_Source\PSoC5/Comp_3.c ****         }
 321:Generated_Source\PSoC5/Comp_3.c ****     }
 322:Generated_Source\PSoC5/Comp_3.c **** 
ARM GAS  C:\Users\Luggi\AppData\Local\Temp\cc4duQZB.s 			page 47


 323:Generated_Source\PSoC5/Comp_3.c ****     /* Increment trim value until compare output changes state */
 324:Generated_Source\PSoC5/Comp_3.c **** 	
 325:Generated_Source\PSoC5/Comp_3.c ****     /* PSoC5A */
 326:Generated_Source\PSoC5/Comp_3.c **** 	#if (CY_PSOC5A)
 327:Generated_Source\PSoC5/Comp_3.c **** 	    trimCntMax = 7u;
 328:Generated_Source\PSoC5/Comp_3.c ****     #endif
 329:Generated_Source\PSoC5/Comp_3.c **** 	
 330:Generated_Source\PSoC5/Comp_3.c **** 	/* PSoC3, PSoC5LP or later */
 331:Generated_Source\PSoC5/Comp_3.c **** 	#if (CY_PSOC3 || CY_PSOC5LP)
 332:Generated_Source\PSoC5/Comp_3.c ****     	if(nibble == 0u)
 575              		.loc 1 332 0
 576 0028 0EB9     		cbnz	r6, .L10
 333:Generated_Source\PSoC5/Comp_3.c ****     	{
 334:Generated_Source\PSoC5/Comp_3.c ****     		trimCntMax = 15u;
 577              		.loc 1 334 0
 578 002a 0F27     		movs	r7, #15
 579 002c 00E0     		b	.L4
 580              	.L10:
 335:Generated_Source\PSoC5/Comp_3.c ****     	}
 336:Generated_Source\PSoC5/Comp_3.c ****     	else
 337:Generated_Source\PSoC5/Comp_3.c ****     	{
 338:Generated_Source\PSoC5/Comp_3.c ****     		trimCntMax = 7u;
 581              		.loc 1 338 0
 582 002e 0727     		movs	r7, #7
 583              	.L4:
 584              	.LVL2:
 339:Generated_Source\PSoC5/Comp_3.c ****     	}
 340:Generated_Source\PSoC5/Comp_3.c **** 	#endif
 341:Generated_Source\PSoC5/Comp_3.c **** 	
 342:Generated_Source\PSoC5/Comp_3.c ****     for ( trimCnt = 0u; trimCnt < trimCntMax; trimCnt++ )
 585              		.loc 1 342 0
 586 0030 0024     		movs	r4, #0
 587 0032 16E0     		b	.L5
 588              	.LVL3:
 589              	.L9:
 343:Generated_Source\PSoC5/Comp_3.c **** 	{
 344:Generated_Source\PSoC5/Comp_3.c ****         if (nibble == 0u)
 590              		.loc 1 344 0
 591 0034 2EB9     		cbnz	r6, .L6
 345:Generated_Source\PSoC5/Comp_3.c ****         {
 346:Generated_Source\PSoC5/Comp_3.c ****             /* PSoC5A */
 347:Generated_Source\PSoC5/Comp_3.c ****             #if (CY_PSOC5A)
 348:Generated_Source\PSoC5/Comp_3.c ****                 Comp_3_TR += 1u;
 349:Generated_Source\PSoC5/Comp_3.c ****             #endif /* CY_PSOC5A */
 350:Generated_Source\PSoC5/Comp_3.c ****             
 351:Generated_Source\PSoC5/Comp_3.c ****             /* PSoC3, PSoC5LP or later */
 352:Generated_Source\PSoC5/Comp_3.c ****             #if (CY_PSOC3 || CY_PSOC5LP)
 353:Generated_Source\PSoC5/Comp_3.c ****                 Comp_3_TR0 += 1u;
 592              		.loc 1 353 0
 593 0036 0D4A     		ldr	r2, .L12+4
 594 0038 1378     		ldrb	r3, [r2]	@ zero_extendqisi2
 595 003a 0133     		adds	r3, r3, #1
 596 003c DBB2     		uxtb	r3, r3
 597 003e 1370     		strb	r3, [r2]
 598 0040 04E0     		b	.L7
 599              	.L6:
 354:Generated_Source\PSoC5/Comp_3.c ****             #endif /* CY_PSOC3 || CY_PSOC5LP */
ARM GAS  C:\Users\Luggi\AppData\Local\Temp\cc4duQZB.s 			page 48


 355:Generated_Source\PSoC5/Comp_3.c ****         }
 356:Generated_Source\PSoC5/Comp_3.c ****         else
 357:Generated_Source\PSoC5/Comp_3.c ****         {
 358:Generated_Source\PSoC5/Comp_3.c ****             /* PSoC5A */
 359:Generated_Source\PSoC5/Comp_3.c ****             #if (CY_PSOC5A)
 360:Generated_Source\PSoC5/Comp_3.c ****                 Comp_3_TR += 0x10u;
 361:Generated_Source\PSoC5/Comp_3.c ****             #endif /* CY_PSOC5A */
 362:Generated_Source\PSoC5/Comp_3.c ****             
 363:Generated_Source\PSoC5/Comp_3.c ****             /* PSoC3, PSoC5LP or later */
 364:Generated_Source\PSoC5/Comp_3.c ****             #if (CY_PSOC3 || CY_PSOC5LP)
 365:Generated_Source\PSoC5/Comp_3.c ****                 Comp_3_TR1 += 1u;
 600              		.loc 1 365 0
 601 0042 0B4A     		ldr	r2, .L12+8
 602 0044 1378     		ldrb	r3, [r2]	@ zero_extendqisi2
 603 0046 0133     		adds	r3, r3, #1
 604 0048 DBB2     		uxtb	r3, r3
 605 004a 1370     		strb	r3, [r2]
 606              	.L7:
 366:Generated_Source\PSoC5/Comp_3.c ****             #endif /* CY_PSOC3 || CY_PSOC5LP */
 367:Generated_Source\PSoC5/Comp_3.c ****         }
 368:Generated_Source\PSoC5/Comp_3.c ****         
 369:Generated_Source\PSoC5/Comp_3.c ****         CyDelayUs(10u);
 607              		.loc 1 369 0
 608 004c 0A20     		movs	r0, #10
 609 004e FFF7FEFF 		bl	CyDelayUs
 610              	.LVL4:
 370:Generated_Source\PSoC5/Comp_3.c ****         
 371:Generated_Source\PSoC5/Comp_3.c ****         /* Check for change in comparator output */
 372:Generated_Source\PSoC5/Comp_3.c ****         if ((Comp_3_WRK & Comp_3_CMP_OUT_MASK) != cmpState)
 611              		.loc 1 372 0
 612 0052 054B     		ldr	r3, .L12
 613 0054 1B78     		ldrb	r3, [r3]	@ zero_extendqisi2
 614 0056 03F00103 		and	r3, r3, #1
 615 005a AB42     		cmp	r3, r5
 616 005c 03D1     		bne	.L1
 342:Generated_Source\PSoC5/Comp_3.c **** 	{
 617              		.loc 1 342 0 discriminator 2
 618 005e 0134     		adds	r4, r4, #1
 619              	.LVL5:
 620 0060 E4B2     		uxtb	r4, r4
 621              	.LVL6:
 622              	.L5:
 342:Generated_Source\PSoC5/Comp_3.c **** 	{
 623              		.loc 1 342 0 is_stmt 0 discriminator 1
 624 0062 BC42     		cmp	r4, r7
 625 0064 E6D3     		bcc	.L9
 626              	.L1:
 627 0066 F8BD     		pop	{r3, r4, r5, r6, r7, pc}
 628              	.LVL7:
 629              	.L13:
 630              		.align	2
 631              	.L12:
 632 0068 965B0040 		.word	1073765270
 633 006c 30460040 		.word	1073759792
 634 0070 31460040 		.word	1073759793
 635              		.cfi_endproc
 636              	.LFE6:
ARM GAS  C:\Users\Luggi\AppData\Local\Temp\cc4duQZB.s 			page 49


 637              		.size	Comp_3_trimAdjust, .-Comp_3_trimAdjust
 638              		.section	.text.Comp_3_Enable,"ax",%progbits
 639              		.align	2
 640              		.global	Comp_3_Enable
 641              		.thumb
 642              		.thumb_func
 643              		.type	Comp_3_Enable, %function
 644              	Comp_3_Enable:
 645              	.LFB1:
 100:Generated_Source\PSoC5/Comp_3.c ****     Comp_3_PWRMGR |= Comp_3_ACT_PWR_EN;
 646              		.loc 1 100 0 is_stmt 1
 647              		.cfi_startproc
 648              		@ args = 0, pretend = 0, frame = 0
 649              		@ frame_needed = 0, uses_anonymous_args = 0
 650              		@ link register save eliminated.
 101:Generated_Source\PSoC5/Comp_3.c ****     Comp_3_STBY_PWRMGR |= Comp_3_STBY_PWR_EN;
 651              		.loc 1 101 0
 652 0000 054A     		ldr	r2, .L15
 653 0002 1378     		ldrb	r3, [r2]	@ zero_extendqisi2
 654 0004 43F00103 		orr	r3, r3, #1
 655 0008 1370     		strb	r3, [r2]
 102:Generated_Source\PSoC5/Comp_3.c ****      
 656              		.loc 1 102 0
 657 000a 1032     		adds	r2, r2, #16
 658 000c 1378     		ldrb	r3, [r2]	@ zero_extendqisi2
 659 000e 43F00103 		orr	r3, r3, #1
 660 0012 1370     		strb	r3, [r2]
 661 0014 7047     		bx	lr
 662              	.L16:
 663 0016 00BF     		.align	2
 664              	.L15:
 665 0018 A7430040 		.word	1073759143
 666              		.cfi_endproc
 667              	.LFE1:
 668              		.size	Comp_3_Enable, .-Comp_3_Enable
 669              		.section	.text.Comp_3_Stop,"ax",%progbits
 670              		.align	2
 671              		.global	Comp_3_Stop
 672              		.thumb
 673              		.thumb_func
 674              		.type	Comp_3_Stop, %function
 675              	Comp_3_Stop:
 676              	.LFB3:
 166:Generated_Source\PSoC5/Comp_3.c ****     /* Disable power to comparator */
 677              		.loc 1 166 0
 678              		.cfi_startproc
 679              		@ args = 0, pretend = 0, frame = 0
 680              		@ frame_needed = 0, uses_anonymous_args = 0
 681              		@ link register save eliminated.
 168:Generated_Source\PSoC5/Comp_3.c ****     Comp_3_STBY_PWRMGR &= (uint8)(~Comp_3_STBY_PWR_EN);
 682              		.loc 1 168 0
 683 0000 054A     		ldr	r2, .L18
 684 0002 1378     		ldrb	r3, [r2]	@ zero_extendqisi2
 685 0004 03F0FE03 		and	r3, r3, #254
 686 0008 1370     		strb	r3, [r2]
 169:Generated_Source\PSoC5/Comp_3.c ****     
 687              		.loc 1 169 0
ARM GAS  C:\Users\Luggi\AppData\Local\Temp\cc4duQZB.s 			page 50


 688 000a 1032     		adds	r2, r2, #16
 689 000c 1378     		ldrb	r3, [r2]	@ zero_extendqisi2
 690 000e 03F0FE03 		and	r3, r3, #254
 691 0012 1370     		strb	r3, [r2]
 692 0014 7047     		bx	lr
 693              	.L19:
 694 0016 00BF     		.align	2
 695              	.L18:
 696 0018 A7430040 		.word	1073759143
 697              		.cfi_endproc
 698              	.LFE3:
 699              		.size	Comp_3_Stop, .-Comp_3_Stop
 700              		.section	.text.Comp_3_SetSpeed,"ax",%progbits
 701              		.align	2
 702              		.global	Comp_3_SetSpeed
 703              		.thumb
 704              		.thumb_func
 705              		.type	Comp_3_SetSpeed, %function
 706              	Comp_3_SetSpeed:
 707              	.LFB4:
 198:Generated_Source\PSoC5/Comp_3.c ****     /* Clear and Set power level */    
 708              		.loc 1 198 0
 709              		.cfi_startproc
 710              		@ args = 0, pretend = 0, frame = 0
 711              		@ frame_needed = 0, uses_anonymous_args = 0
 712              		@ link register save eliminated.
 713              	.LVL8:
 200:Generated_Source\PSoC5/Comp_3.c ****                            (speed & Comp_3_PWR_MODE_MASK);
 714              		.loc 1 200 0
 715 0000 0F49     		ldr	r1, .L23
 716 0002 0B78     		ldrb	r3, [r1]	@ zero_extendqisi2
 717 0004 03F0FC02 		and	r2, r3, #252
 718 0008 00F00303 		and	r3, r0, #3
 719 000c 1343     		orrs	r3, r3, r2
 720 000e 0B70     		strb	r3, [r1]
 204:Generated_Source\PSoC5/Comp_3.c ****     {
 721              		.loc 1 204 0
 722 0010 0128     		cmp	r0, #1
 723 0012 0AD1     		bne	.L21
 213:Generated_Source\PSoC5/Comp_3.c ****             Comp_3_TR1 = Comp_3_HS_TRIM_TR1;
 724              		.loc 1 213 0
 725 0014 0B4B     		ldr	r3, .L23+4
 726 0016 1B78     		ldrb	r3, [r3]	@ zero_extendqisi2
 727 0018 DBB2     		uxtb	r3, r3
 728 001a 0B4A     		ldr	r2, .L23+8
 729 001c 1370     		strb	r3, [r2]
 214:Generated_Source\PSoC5/Comp_3.c ****         #endif /* CY_PSOC3 || CY_PSOC5LP */
 730              		.loc 1 214 0
 731 001e 0B4B     		ldr	r3, .L23+12
 732 0020 1B78     		ldrb	r3, [r3]	@ zero_extendqisi2
 733 0022 DBB2     		uxtb	r3, r3
 734 0024 0132     		adds	r2, r2, #1
 735 0026 1370     		strb	r3, [r2]
 736 0028 7047     		bx	lr
 737              	.L21:
 226:Generated_Source\PSoC5/Comp_3.c ****             Comp_3_TR1 = Comp_3_LS_TRIM_TR1;
 738              		.loc 1 226 0
ARM GAS  C:\Users\Luggi\AppData\Local\Temp\cc4duQZB.s 			page 51


 739 002a 094B     		ldr	r3, .L23+16
 740 002c 1B78     		ldrb	r3, [r3]	@ zero_extendqisi2
 741 002e DBB2     		uxtb	r3, r3
 742 0030 054A     		ldr	r2, .L23+8
 743 0032 1370     		strb	r3, [r2]
 227:Generated_Source\PSoC5/Comp_3.c ****         #endif /* CY_PSOC3 || CY_PSOC5LP */
 744              		.loc 1 227 0
 745 0034 074B     		ldr	r3, .L23+20
 746 0036 1B78     		ldrb	r3, [r3]	@ zero_extendqisi2
 747 0038 DBB2     		uxtb	r3, r3
 748 003a 0132     		adds	r2, r2, #1
 749 003c 1370     		strb	r3, [r2]
 750 003e 7047     		bx	lr
 751              	.L24:
 752              		.align	2
 753              	.L23:
 754 0040 40580040 		.word	1073764416
 755 0044 10010049 		.word	1224737040
 756 0048 30460040 		.word	1073759792
 757 004c 14010049 		.word	1224737044
 758 0050 AD010049 		.word	1224737197
 759 0054 B5010049 		.word	1224737205
 760              		.cfi_endproc
 761              	.LFE4:
 762              		.size	Comp_3_SetSpeed, .-Comp_3_SetSpeed
 763              		.section	.text.Comp_3_Init,"ax",%progbits
 764              		.align	2
 765              		.global	Comp_3_Init
 766              		.thumb
 767              		.thumb_func
 768              		.type	Comp_3_Init, %function
 769              	Comp_3_Init:
 770              	.LFB0:
  52:Generated_Source\PSoC5/Comp_3.c ****     /* Set default speed/power */
 771              		.loc 1 52 0
 772              		.cfi_startproc
 773              		@ args = 0, pretend = 0, frame = 0
 774              		@ frame_needed = 0, uses_anonymous_args = 0
 775 0000 08B5     		push	{r3, lr}
 776              		.cfi_def_cfa_offset 8
 777              		.cfi_offset 3, -8
 778              		.cfi_offset 14, -4
  54:Generated_Source\PSoC5/Comp_3.c **** 
 779              		.loc 1 54 0
 780 0002 0120     		movs	r0, #1
 781 0004 FFF7FEFF 		bl	Comp_3_SetSpeed
 782              	.LVL9:
  60:Generated_Source\PSoC5/Comp_3.c ****     #endif /* Comp_3_DEFAULT_HYSTERESIS == 0u */
 783              		.loc 1 60 0
 784 0008 0B4B     		ldr	r3, .L27
 785 000a 1A78     		ldrb	r2, [r3]	@ zero_extendqisi2
 786 000c 02F0DF02 		and	r2, r2, #223
 787 0010 1A70     		strb	r2, [r3]
  66:Generated_Source\PSoC5/Comp_3.c ****         #else 
 788              		.loc 1 66 0
 789 0012 1A78     		ldrb	r2, [r3]	@ zero_extendqisi2
 790 0014 02F0FB02 		and	r2, r2, #251
ARM GAS  C:\Users\Luggi\AppData\Local\Temp\cc4duQZB.s 			page 52


 791 0018 1A70     		strb	r2, [r3]
  73:Generated_Source\PSoC5/Comp_3.c **** 
 792              		.loc 1 73 0
 793 001a 1A78     		ldrb	r2, [r3]	@ zero_extendqisi2
 794 001c 42F00802 		orr	r2, r2, #8
 795 0020 1A70     		strb	r2, [r3]
  76:Generated_Source\PSoC5/Comp_3.c ****     #if ( Comp_3_DEFAULT_BYPASS_SYNC == 0u )
 796              		.loc 1 76 0
 797 0022 03F28723 		addw	r3, r3, #647
 798 0026 1A78     		ldrb	r2, [r3]	@ zero_extendqisi2
 799 0028 02F0E702 		and	r2, r2, #231
 800 002c 1A70     		strb	r2, [r3]
  80:Generated_Source\PSoC5/Comp_3.c ****     #endif /* Comp_3_DEFAULT_BYPASS_SYNC == 0u */
 801              		.loc 1 80 0
 802 002e 1A78     		ldrb	r2, [r3]	@ zero_extendqisi2
 803 0030 42F01002 		orr	r2, r2, #16
 804 0034 1A70     		strb	r2, [r3]
 805 0036 08BD     		pop	{r3, pc}
 806              	.L28:
 807              		.align	2
 808              	.L27:
 809 0038 40580040 		.word	1073764416
 810              		.cfi_endproc
 811              	.LFE0:
 812              		.size	Comp_3_Init, .-Comp_3_Init
 813              		.section	.text.Comp_3_Start,"ax",%progbits
 814              		.align	2
 815              		.global	Comp_3_Start
 816              		.thumb
 817              		.thumb_func
 818              		.type	Comp_3_Start, %function
 819              	Comp_3_Start:
 820              	.LFB2:
 137:Generated_Source\PSoC5/Comp_3.c **** 
 821              		.loc 1 137 0
 822              		.cfi_startproc
 823              		@ args = 0, pretend = 0, frame = 0
 824              		@ frame_needed = 0, uses_anonymous_args = 0
 825 0000 08B5     		push	{r3, lr}
 826              		.cfi_def_cfa_offset 8
 827              		.cfi_offset 3, -8
 828              		.cfi_offset 14, -4
 139:Generated_Source\PSoC5/Comp_3.c ****     {
 829              		.loc 1 139 0
 830 0002 054B     		ldr	r3, .L32
 831 0004 1B78     		ldrb	r3, [r3]	@ zero_extendqisi2
 832 0006 23B9     		cbnz	r3, .L30
 141:Generated_Source\PSoC5/Comp_3.c ****         
 833              		.loc 1 141 0
 834 0008 FFF7FEFF 		bl	Comp_3_Init
 835              	.LVL10:
 143:Generated_Source\PSoC5/Comp_3.c ****     }   
 836              		.loc 1 143 0
 837 000c 0122     		movs	r2, #1
 838 000e 024B     		ldr	r3, .L32
 839 0010 1A70     		strb	r2, [r3]
 840              	.L30:
ARM GAS  C:\Users\Luggi\AppData\Local\Temp\cc4duQZB.s 			page 53


 147:Generated_Source\PSoC5/Comp_3.c **** }
 841              		.loc 1 147 0
 842 0012 FFF7FEFF 		bl	Comp_3_Enable
 843              	.LVL11:
 844 0016 08BD     		pop	{r3, pc}
 845              	.L33:
 846              		.align	2
 847              	.L32:
 848 0018 00000000 		.word	.LANCHOR0
 849              		.cfi_endproc
 850              	.LFE2:
 851              		.size	Comp_3_Start, .-Comp_3_Start
 852              		.section	.text.Comp_3_GetCompare,"ax",%progbits
 853              		.align	2
 854              		.global	Comp_3_GetCompare
 855              		.thumb
 856              		.thumb_func
 857              		.type	Comp_3_GetCompare, %function
 858              	Comp_3_GetCompare:
 859              	.LFB5:
 252:Generated_Source\PSoC5/Comp_3.c ****     return( Comp_3_WRK & Comp_3_CMP_OUT_MASK);
 860              		.loc 1 252 0
 861              		.cfi_startproc
 862              		@ args = 0, pretend = 0, frame = 0
 863              		@ frame_needed = 0, uses_anonymous_args = 0
 864              		@ link register save eliminated.
 253:Generated_Source\PSoC5/Comp_3.c **** }
 865              		.loc 1 253 0
 866 0000 024B     		ldr	r3, .L35
 867 0002 1878     		ldrb	r0, [r3]	@ zero_extendqisi2
 254:Generated_Source\PSoC5/Comp_3.c **** 
 868              		.loc 1 254 0
 869 0004 00F00100 		and	r0, r0, #1
 870 0008 7047     		bx	lr
 871              	.L36:
 872 000a 00BF     		.align	2
 873              	.L35:
 874 000c 965B0040 		.word	1073765270
 875              		.cfi_endproc
 876              	.LFE5:
 877              		.size	Comp_3_GetCompare, .-Comp_3_GetCompare
 878              		.section	.text.Comp_3_ZeroCal,"ax",%progbits
 879              		.align	2
 880              		.global	Comp_3_ZeroCal
 881              		.thumb
 882              		.thumb_func
 883              		.type	Comp_3_ZeroCal, %function
 884              	Comp_3_ZeroCal:
 885              	.LFB7:
 373:Generated_Source\PSoC5/Comp_3.c ****         {
 374:Generated_Source\PSoC5/Comp_3.c ****             break;      /* output changed state, trim phase is complete */
 375:Generated_Source\PSoC5/Comp_3.c ****         }        
 376:Generated_Source\PSoC5/Comp_3.c ****     }    
 377:Generated_Source\PSoC5/Comp_3.c **** }
 378:Generated_Source\PSoC5/Comp_3.c **** 
 379:Generated_Source\PSoC5/Comp_3.c **** 
 380:Generated_Source\PSoC5/Comp_3.c **** /*******************************************************************************
ARM GAS  C:\Users\Luggi\AppData\Local\Temp\cc4duQZB.s 			page 54


 381:Generated_Source\PSoC5/Comp_3.c **** * Function Name: Comp_3_ZeroCal
 382:Generated_Source\PSoC5/Comp_3.c **** ********************************************************************************
 383:Generated_Source\PSoC5/Comp_3.c **** *
 384:Generated_Source\PSoC5/Comp_3.c **** * Summary:
 385:Generated_Source\PSoC5/Comp_3.c **** *  This function calibrates the offset of the Analog Comparator.
 386:Generated_Source\PSoC5/Comp_3.c **** *
 387:Generated_Source\PSoC5/Comp_3.c **** * Parameters:
 388:Generated_Source\PSoC5/Comp_3.c **** *  None
 389:Generated_Source\PSoC5/Comp_3.c **** *
 390:Generated_Source\PSoC5/Comp_3.c **** * Return:
 391:Generated_Source\PSoC5/Comp_3.c **** *  (uint16)  value written in trim register when calibration complete.
 392:Generated_Source\PSoC5/Comp_3.c **** *
 393:Generated_Source\PSoC5/Comp_3.c **** * Theory: 
 394:Generated_Source\PSoC5/Comp_3.c **** *  This function is used to optimize the calibration for user specific voltage
 395:Generated_Source\PSoC5/Comp_3.c **** *  range.  The comparator trim is adjusted to counter transistor offsets
 396:Generated_Source\PSoC5/Comp_3.c **** *   - offset is defined as positive if the output transitions to high before inP
 397:Generated_Source\PSoC5/Comp_3.c **** *     is greater than inN
 398:Generated_Source\PSoC5/Comp_3.c **** *   - offset is defined as negative if the output transitions to high after inP
 399:Generated_Source\PSoC5/Comp_3.c **** *     is greater than inP
 400:Generated_Source\PSoC5/Comp_3.c **** *
 401:Generated_Source\PSoC5/Comp_3.c **** *  PSoC5A
 402:Generated_Source\PSoC5/Comp_3.c **** *  The Analog Comparator provides 1 byte for offset trim.  The byte contains two
 403:Generated_Source\PSoC5/Comp_3.c **** *  4 bit trim fields - one is a course trim and the other allows smaller
 404:Generated_Source\PSoC5/Comp_3.c **** *  offset adjustments only for slow modes.
 405:Generated_Source\PSoC5/Comp_3.c **** *  - low nibble - fine trim
 406:Generated_Source\PSoC5/Comp_3.c **** *  - high nibble - course trim
 407:Generated_Source\PSoC5/Comp_3.c **** *  PSoC3, PSoC5LP or later
 408:Generated_Source\PSoC5/Comp_3.c **** *  The Analog Comparator provides 2 bytes for offset trim.  The bytes contain two
 409:Generated_Source\PSoC5/Comp_3.c **** *  5 bit trim fields - one is a course trim and the other allows smaller
 410:Generated_Source\PSoC5/Comp_3.c **** *  offset adjustments only for slow modes.
 411:Generated_Source\PSoC5/Comp_3.c **** *  - TR0 - fine trim
 412:Generated_Source\PSoC5/Comp_3.c **** *  - TR1 - course trim
 413:Generated_Source\PSoC5/Comp_3.c **** *
 414:Generated_Source\PSoC5/Comp_3.c **** *  Trim algorithm is a two phase process
 415:Generated_Source\PSoC5/Comp_3.c **** *  The first phase performs course offset adjustment
 416:Generated_Source\PSoC5/Comp_3.c **** *  The second phase serves one of two purposes depending on the outcome of the
 417:Generated_Source\PSoC5/Comp_3.c **** *  first phase
 418:Generated_Source\PSoC5/Comp_3.c **** *  - if the first trim value was maxed out without a comparator output 
 419:Generated_Source\PSoC5/Comp_3.c **** *    transition, more offset will be added by adjusting the second trim value.
 420:Generated_Source\PSoC5/Comp_3.c **** *  - if the first trim phase resulted in a comparator output transition, the
 421:Generated_Source\PSoC5/Comp_3.c **** *    second trim value will serve as fine trim (in the opposite direction)to
 422:Generated_Source\PSoC5/Comp_3.c **** *    ensure the offset is < 1 mV.
 423:Generated_Source\PSoC5/Comp_3.c **** *
 424:Generated_Source\PSoC5/Comp_3.c **** * Trim Process:   
 425:Generated_Source\PSoC5/Comp_3.c **** *  1) User applies a voltage to the negative input.  Voltage should be in the
 426:Generated_Source\PSoC5/Comp_3.c **** *     comparator operating range or an average of the operating voltage range.
 427:Generated_Source\PSoC5/Comp_3.c **** *  2) Clear registers associated with analog routing to the positive input.
 428:Generated_Source\PSoC5/Comp_3.c **** *  3) Disable Hysteresis
 429:Generated_Source\PSoC5/Comp_3.c **** *  4) Set the calibration bit to short the negative and positive inputs to
 430:Generated_Source\PSoC5/Comp_3.c **** *     the users calibration voltage.
 431:Generated_Source\PSoC5/Comp_3.c **** *  5) Clear the TR register  ( TR = 0x00 )
 432:Generated_Source\PSoC5/Comp_3.c **** *  ** LOW MODES
 433:Generated_Source\PSoC5/Comp_3.c **** *  6) Check if compare output is high, if so, set the MSb of course trim field 
 434:Generated_Source\PSoC5/Comp_3.c **** *     to a 1.
 435:Generated_Source\PSoC5/Comp_3.c **** *  7) Increment the course trim field until the compare output changes
 436:Generated_Source\PSoC5/Comp_3.c **** *  8) Check if compare output is low, if so, set the MSb of fine trim field
 437:Generated_Source\PSoC5/Comp_3.c **** *     to a 1.
ARM GAS  C:\Users\Luggi\AppData\Local\Temp\cc4duQZB.s 			page 55


 438:Generated_Source\PSoC5/Comp_3.c **** *  9) Increment the fine trim field until the compare output changes
 439:Generated_Source\PSoC5/Comp_3.c **** *  ** FAST MODE - skip the steps 8,9
 440:Generated_Source\PSoC5/Comp_3.c **** *
 441:Generated_Source\PSoC5/Comp_3.c **** * Side Effects:
 442:Generated_Source\PSoC5/Comp_3.c **** *  Routine clears analog routing associated with the comparator positive input.  
 443:Generated_Source\PSoC5/Comp_3.c **** *  This may affect routing of signals from other components that are connected
 444:Generated_Source\PSoC5/Comp_3.c **** *  to the positive input of the comparator.
 445:Generated_Source\PSoC5/Comp_3.c **** *
 446:Generated_Source\PSoC5/Comp_3.c **** *******************************************************************************/
 447:Generated_Source\PSoC5/Comp_3.c **** uint16 Comp_3_ZeroCal(void) 
 448:Generated_Source\PSoC5/Comp_3.c **** {
 886              		.loc 1 448 0
 887              		.cfi_startproc
 888              		@ args = 0, pretend = 0, frame = 0
 889              		@ frame_needed = 0, uses_anonymous_args = 0
 890 0000 F8B5     		push	{r3, r4, r5, r6, r7, lr}
 891              		.cfi_def_cfa_offset 24
 892              		.cfi_offset 3, -24
 893              		.cfi_offset 4, -20
 894              		.cfi_offset 5, -16
 895              		.cfi_offset 6, -12
 896              		.cfi_offset 7, -8
 897              		.cfi_offset 14, -4
 449:Generated_Source\PSoC5/Comp_3.c ****     uint8 tmpSW0;
 450:Generated_Source\PSoC5/Comp_3.c ****     uint8 tmpSW2;
 451:Generated_Source\PSoC5/Comp_3.c ****     uint8 tmpSW3;
 452:Generated_Source\PSoC5/Comp_3.c ****     uint8 tmpCR;
 453:Generated_Source\PSoC5/Comp_3.c **** 
 454:Generated_Source\PSoC5/Comp_3.c ****     /* Save a copy of routing registers associated with inP */
 455:Generated_Source\PSoC5/Comp_3.c ****     tmpSW0 = Comp_3_SW0;
 898              		.loc 1 455 0
 899 0002 1E48     		ldr	r0, .L41
 900 0004 0678     		ldrb	r6, [r0]	@ zero_extendqisi2
 901 0006 F6B2     		uxtb	r6, r6
 902              	.LVL12:
 456:Generated_Source\PSoC5/Comp_3.c ****     tmpSW2 = Comp_3_SW2;
 903              		.loc 1 456 0
 904 0008 1D49     		ldr	r1, .L41+4
 905 000a 0D78     		ldrb	r5, [r1]	@ zero_extendqisi2
 906 000c EDB2     		uxtb	r5, r5
 907              	.LVL13:
 457:Generated_Source\PSoC5/Comp_3.c ****     tmpSW3 = Comp_3_SW3;
 908              		.loc 1 457 0
 909 000e 1D4B     		ldr	r3, .L41+8
 910 0010 1C78     		ldrb	r4, [r3]	@ zero_extendqisi2
 911 0012 E4B2     		uxtb	r4, r4
 912              	.LVL14:
 458:Generated_Source\PSoC5/Comp_3.c **** 
 459:Generated_Source\PSoC5/Comp_3.c ****      /* Clear routing for inP, retain routing for inN */
 460:Generated_Source\PSoC5/Comp_3.c ****     Comp_3_SW0 = 0x00u;
 913              		.loc 1 460 0
 914 0014 0022     		movs	r2, #0
 915 0016 0270     		strb	r2, [r0]
 461:Generated_Source\PSoC5/Comp_3.c ****     Comp_3_SW2 = 0x00u;
 916              		.loc 1 461 0
 917 0018 0A70     		strb	r2, [r1]
 462:Generated_Source\PSoC5/Comp_3.c ****     Comp_3_SW3 = tmpSW3 & (uint8)(~Comp_3_CMP_SW3_INPCTL_MASK);
ARM GAS  C:\Users\Luggi\AppData\Local\Temp\cc4duQZB.s 			page 56


 918              		.loc 1 462 0
 919 001a 04F0F601 		and	r1, r4, #246
 920 001e 1970     		strb	r1, [r3]
 463:Generated_Source\PSoC5/Comp_3.c **** 
 464:Generated_Source\PSoC5/Comp_3.c ****     /* Preserve original configuration
 465:Generated_Source\PSoC5/Comp_3.c ****      * - turn off Hysteresis
 466:Generated_Source\PSoC5/Comp_3.c ****      * - set calibration bit - shorts inN to inP
 467:Generated_Source\PSoC5/Comp_3.c ****     */
 468:Generated_Source\PSoC5/Comp_3.c ****     tmpCR = Comp_3_CR;
 921              		.loc 1 468 0
 922 0020 A3F28323 		subw	r3, r3, #643
 923 0024 1F78     		ldrb	r7, [r3]	@ zero_extendqisi2
 924 0026 FFB2     		uxtb	r7, r7
 925              	.LVL15:
 469:Generated_Source\PSoC5/Comp_3.c ****     Comp_3_CR |= (Comp_3_CAL_ON | Comp_3_HYST_OFF);
 926              		.loc 1 469 0
 927 0028 1978     		ldrb	r1, [r3]	@ zero_extendqisi2
 928 002a 41F03001 		orr	r1, r1, #48
 929 002e 1970     		strb	r1, [r3]
 470:Generated_Source\PSoC5/Comp_3.c ****     
 471:Generated_Source\PSoC5/Comp_3.c ****     /* Write default low values to trim register - no offset adjust */
 472:Generated_Source\PSoC5/Comp_3.c ****     /* PSoC5A */
 473:Generated_Source\PSoC5/Comp_3.c ****     #if (CY_PSOC5A)
 474:Generated_Source\PSoC5/Comp_3.c ****         Comp_3_TR = Comp_3_DEFAULT_CMP_TRIM;
 475:Generated_Source\PSoC5/Comp_3.c ****     #endif /* CY_PSOC5A */
 476:Generated_Source\PSoC5/Comp_3.c ****     
 477:Generated_Source\PSoC5/Comp_3.c ****     /* PSoC3, PSoC5LP or later */
 478:Generated_Source\PSoC5/Comp_3.c ****     #if (CY_PSOC3 || CY_PSOC5LP)
 479:Generated_Source\PSoC5/Comp_3.c ****         Comp_3_TR0 = Comp_3_DEFAULT_CMP_TRIM;
 930              		.loc 1 479 0
 931 0030 1549     		ldr	r1, .L41+12
 932 0032 0A70     		strb	r2, [r1]
 480:Generated_Source\PSoC5/Comp_3.c ****         Comp_3_TR1 = Comp_3_DEFAULT_CMP_TRIM;
 933              		.loc 1 480 0
 934 0034 0131     		adds	r1, r1, #1
 935 0036 0A70     		strb	r2, [r1]
 481:Generated_Source\PSoC5/Comp_3.c ****     #endif /* CY_PSOC3 || CY_PSOC5LP */
 482:Generated_Source\PSoC5/Comp_3.c **** 	
 483:Generated_Source\PSoC5/Comp_3.c **** 	/* Two phase trim - slow modes, one phase trim - for fast */ 
 484:Generated_Source\PSoC5/Comp_3.c ****     if ( (Comp_3_CR & Comp_3_PWR_MODE_MASK) == Comp_3_PWR_MODE_FAST)
 936              		.loc 1 484 0
 937 0038 1B78     		ldrb	r3, [r3]	@ zero_extendqisi2
 938 003a 03F00303 		and	r3, r3, #3
 939 003e 012B     		cmp	r3, #1
 940 0040 03D1     		bne	.L38
 485:Generated_Source\PSoC5/Comp_3.c ****     {
 486:Generated_Source\PSoC5/Comp_3.c ****         Comp_3_trimAdjust(0u);
 941              		.loc 1 486 0
 942 0042 1046     		mov	r0, r2
 943 0044 FFF7FEFF 		bl	Comp_3_trimAdjust
 944              	.LVL16:
 945 0048 05E0     		b	.L39
 946              	.L38:
 487:Generated_Source\PSoC5/Comp_3.c ****     }
 488:Generated_Source\PSoC5/Comp_3.c ****     else /* default to trim for fast modes */
 489:Generated_Source\PSoC5/Comp_3.c ****     {
 490:Generated_Source\PSoC5/Comp_3.c ****         Comp_3_trimAdjust(1u);
ARM GAS  C:\Users\Luggi\AppData\Local\Temp\cc4duQZB.s 			page 57


 947              		.loc 1 490 0
 948 004a 0120     		movs	r0, #1
 949 004c FFF7FEFF 		bl	Comp_3_trimAdjust
 950              	.LVL17:
 491:Generated_Source\PSoC5/Comp_3.c **** 		Comp_3_trimAdjust(0u);
 951              		.loc 1 491 0
 952 0050 0020     		movs	r0, #0
 953 0052 FFF7FEFF 		bl	Comp_3_trimAdjust
 954              	.LVL18:
 955              	.L39:
 492:Generated_Source\PSoC5/Comp_3.c ****     }
 493:Generated_Source\PSoC5/Comp_3.c ****    
 494:Generated_Source\PSoC5/Comp_3.c ****     /* Restore Config Register */
 495:Generated_Source\PSoC5/Comp_3.c ****     Comp_3_CR = tmpCR;
 956              		.loc 1 495 0
 957 0056 0D4B     		ldr	r3, .L41+16
 958 0058 1F70     		strb	r7, [r3]
 496:Generated_Source\PSoC5/Comp_3.c ****     
 497:Generated_Source\PSoC5/Comp_3.c ****     /* Restore routing registers for inP */
 498:Generated_Source\PSoC5/Comp_3.c ****     Comp_3_SW0 = tmpSW0;
 959              		.loc 1 498 0
 960 005a 03F52073 		add	r3, r3, #640
 961 005e 1E70     		strb	r6, [r3]
 499:Generated_Source\PSoC5/Comp_3.c ****     Comp_3_SW2 = tmpSW2;
 962              		.loc 1 499 0
 963 0060 0233     		adds	r3, r3, #2
 964 0062 1D70     		strb	r5, [r3]
 500:Generated_Source\PSoC5/Comp_3.c ****     Comp_3_SW3 = tmpSW3;
 965              		.loc 1 500 0
 966 0064 0133     		adds	r3, r3, #1
 967 0066 1C70     		strb	r4, [r3]
 501:Generated_Source\PSoC5/Comp_3.c ****     
 502:Generated_Source\PSoC5/Comp_3.c ****     /* PSoC5A */
 503:Generated_Source\PSoC5/Comp_3.c ****     #if (CY_PSOC5A)
 504:Generated_Source\PSoC5/Comp_3.c ****         return (uint16) Comp_3_TR;
 505:Generated_Source\PSoC5/Comp_3.c ****     #endif /* CY_PSOC5A */
 506:Generated_Source\PSoC5/Comp_3.c ****     
 507:Generated_Source\PSoC5/Comp_3.c ****     /* PSoC3, PSoC5LP or later */
 508:Generated_Source\PSoC5/Comp_3.c ****     #if (CY_PSOC3 || CY_PSOC5LP)
 509:Generated_Source\PSoC5/Comp_3.c ****         return ((uint16)((uint16)Comp_3_TR1 << 8u) | (Comp_3_TR0));        
 968              		.loc 1 509 0
 969 0068 A3F5A453 		sub	r3, r3, #5248
 970 006c 123B     		subs	r3, r3, #18
 971 006e 1878     		ldrb	r0, [r3]	@ zero_extendqisi2
 972 0070 013B     		subs	r3, r3, #1
 973 0072 1B78     		ldrb	r3, [r3]	@ zero_extendqisi2
 510:Generated_Source\PSoC5/Comp_3.c ****     #endif /* CY_PSOC3 || CY_PSOC5LP */
 511:Generated_Source\PSoC5/Comp_3.c **** }
 974              		.loc 1 511 0
 975 0074 43EA0020 		orr	r0, r3, r0, lsl #8
 976 0078 F8BD     		pop	{r3, r4, r5, r6, r7, pc}
 977              	.LVL19:
 978              	.L42:
 979 007a 00BF     		.align	2
 980              	.L41:
 981 007c C05A0040 		.word	1073765056
 982 0080 C25A0040 		.word	1073765058
ARM GAS  C:\Users\Luggi\AppData\Local\Temp\cc4duQZB.s 			page 58


 983 0084 C35A0040 		.word	1073765059
 984 0088 30460040 		.word	1073759792
 985 008c 40580040 		.word	1073764416
 986              		.cfi_endproc
 987              	.LFE7:
 988              		.size	Comp_3_ZeroCal, .-Comp_3_ZeroCal
 989              		.section	.text.Comp_3_LoadTrim,"ax",%progbits
 990              		.align	2
 991              		.global	Comp_3_LoadTrim
 992              		.thumb
 993              		.thumb_func
 994              		.type	Comp_3_LoadTrim, %function
 995              	Comp_3_LoadTrim:
 996              	.LFB8:
 512:Generated_Source\PSoC5/Comp_3.c **** 
 513:Generated_Source\PSoC5/Comp_3.c **** 
 514:Generated_Source\PSoC5/Comp_3.c **** /*******************************************************************************
 515:Generated_Source\PSoC5/Comp_3.c **** * Function Name: Comp_3_LoadTrim
 516:Generated_Source\PSoC5/Comp_3.c **** ********************************************************************************
 517:Generated_Source\PSoC5/Comp_3.c **** *
 518:Generated_Source\PSoC5/Comp_3.c **** * Summary:
 519:Generated_Source\PSoC5/Comp_3.c **** *  This function stores a value in the Analog Comparator trim register.
 520:Generated_Source\PSoC5/Comp_3.c **** *
 521:Generated_Source\PSoC5/Comp_3.c **** * Parameters:  
 522:Generated_Source\PSoC5/Comp_3.c **** *  uint8 trimVal - trim value.  This value is the same format as the value 
 523:Generated_Source\PSoC5/Comp_3.c **** *  returned by the _ZeroCal routine.
 524:Generated_Source\PSoC5/Comp_3.c **** *
 525:Generated_Source\PSoC5/Comp_3.c **** * Return:
 526:Generated_Source\PSoC5/Comp_3.c **** *  None
 527:Generated_Source\PSoC5/Comp_3.c **** *
 528:Generated_Source\PSoC5/Comp_3.c **** *******************************************************************************/
 529:Generated_Source\PSoC5/Comp_3.c **** void Comp_3_LoadTrim(uint16 trimVal) 
 530:Generated_Source\PSoC5/Comp_3.c **** {
 997              		.loc 1 530 0
 998              		.cfi_startproc
 999              		@ args = 0, pretend = 0, frame = 0
 1000              		@ frame_needed = 0, uses_anonymous_args = 0
 1001              		@ link register save eliminated.
 1002              	.LVL20:
 531:Generated_Source\PSoC5/Comp_3.c ****     /* Stores value in the Analog Comparator trim register */
 532:Generated_Source\PSoC5/Comp_3.c ****     /* PSoC5A */
 533:Generated_Source\PSoC5/Comp_3.c ****     #if (CY_PSOC5A)
 534:Generated_Source\PSoC5/Comp_3.c ****         Comp_3_TR = (uint8) trimVal;
 535:Generated_Source\PSoC5/Comp_3.c ****     #endif /* CY_PSOC5A */
 536:Generated_Source\PSoC5/Comp_3.c ****     
 537:Generated_Source\PSoC5/Comp_3.c ****     /* PSoC3, PSoC5LP or later */
 538:Generated_Source\PSoC5/Comp_3.c ****     #if (CY_PSOC3 || CY_PSOC5LP)
 539:Generated_Source\PSoC5/Comp_3.c ****         /* Stores value in the Analog Comparator trim register for P-type load */
 540:Generated_Source\PSoC5/Comp_3.c ****         Comp_3_TR0 = (uint8) trimVal;
 1003              		.loc 1 540 0
 1004 0000 C2B2     		uxtb	r2, r0
 1005 0002 034B     		ldr	r3, .L44
 1006 0004 1A70     		strb	r2, [r3]
 541:Generated_Source\PSoC5/Comp_3.c ****         
 542:Generated_Source\PSoC5/Comp_3.c ****         /* Stores value in the Analog Comparator trim register for N-type load */
 543:Generated_Source\PSoC5/Comp_3.c ****         Comp_3_TR1 = (uint8) (trimVal >> 8); 
 1007              		.loc 1 543 0
ARM GAS  C:\Users\Luggi\AppData\Local\Temp\cc4duQZB.s 			page 59


 1008 0006 000A     		lsrs	r0, r0, #8
 1009              	.LVL21:
 1010 0008 0133     		adds	r3, r3, #1
 1011 000a 1870     		strb	r0, [r3]
 1012 000c 7047     		bx	lr
 1013              	.L45:
 1014 000e 00BF     		.align	2
 1015              	.L44:
 1016 0010 30460040 		.word	1073759792
 1017              		.cfi_endproc
 1018              	.LFE8:
 1019              		.size	Comp_3_LoadTrim, .-Comp_3_LoadTrim
 1020              		.section	.text.Comp_3_PwrDwnOverrideEnable,"ax",%progbits
 1021              		.align	2
 1022              		.global	Comp_3_PwrDwnOverrideEnable
 1023              		.thumb
 1024              		.thumb_func
 1025              		.type	Comp_3_PwrDwnOverrideEnable, %function
 1026              	Comp_3_PwrDwnOverrideEnable:
 1027              	.LFB9:
 544:Generated_Source\PSoC5/Comp_3.c ****     #endif /* CY_PSOC3 || CY_PSOC5LP */
 545:Generated_Source\PSoC5/Comp_3.c **** }
 546:Generated_Source\PSoC5/Comp_3.c **** 
 547:Generated_Source\PSoC5/Comp_3.c **** 
 548:Generated_Source\PSoC5/Comp_3.c **** #if (CY_PSOC3 || CY_PSOC5LP)
 549:Generated_Source\PSoC5/Comp_3.c **** 
 550:Generated_Source\PSoC5/Comp_3.c ****     /*******************************************************************************
 551:Generated_Source\PSoC5/Comp_3.c ****     * Function Name: Comp_3_PwrDwnOverrideEnable
 552:Generated_Source\PSoC5/Comp_3.c ****     ********************************************************************************
 553:Generated_Source\PSoC5/Comp_3.c ****     *
 554:Generated_Source\PSoC5/Comp_3.c ****     * Summary:
 555:Generated_Source\PSoC5/Comp_3.c ****     *  This is the power down over-ride feature. This function ignores sleep 
 556:Generated_Source\PSoC5/Comp_3.c ****     *  parameter and allows the component to stay active during sleep mode.
 557:Generated_Source\PSoC5/Comp_3.c ****     *
 558:Generated_Source\PSoC5/Comp_3.c ****     * Parameters:
 559:Generated_Source\PSoC5/Comp_3.c ****     *  None
 560:Generated_Source\PSoC5/Comp_3.c ****     *
 561:Generated_Source\PSoC5/Comp_3.c ****     * Return:
 562:Generated_Source\PSoC5/Comp_3.c ****     *  None
 563:Generated_Source\PSoC5/Comp_3.c ****     *
 564:Generated_Source\PSoC5/Comp_3.c ****     *******************************************************************************/
 565:Generated_Source\PSoC5/Comp_3.c ****     void Comp_3_PwrDwnOverrideEnable(void) 
 566:Generated_Source\PSoC5/Comp_3.c ****     {
 1028              		.loc 1 566 0
 1029              		.cfi_startproc
 1030              		@ args = 0, pretend = 0, frame = 0
 1031              		@ frame_needed = 0, uses_anonymous_args = 0
 1032              		@ link register save eliminated.
 567:Generated_Source\PSoC5/Comp_3.c ****         /* Set the pd_override bit in CMP_CR register */
 568:Generated_Source\PSoC5/Comp_3.c ****         Comp_3_CR |= Comp_3_PWRDWN_OVRD;
 1033              		.loc 1 568 0
 1034 0000 024A     		ldr	r2, .L47
 1035 0002 1378     		ldrb	r3, [r2]	@ zero_extendqisi2
 1036 0004 43F00403 		orr	r3, r3, #4
 1037 0008 1370     		strb	r3, [r2]
 1038 000a 7047     		bx	lr
 1039              	.L48:
ARM GAS  C:\Users\Luggi\AppData\Local\Temp\cc4duQZB.s 			page 60


 1040              		.align	2
 1041              	.L47:
 1042 000c 40580040 		.word	1073764416
 1043              		.cfi_endproc
 1044              	.LFE9:
 1045              		.size	Comp_3_PwrDwnOverrideEnable, .-Comp_3_PwrDwnOverrideEnable
 1046              		.section	.text.Comp_3_PwrDwnOverrideDisable,"ax",%progbits
 1047              		.align	2
 1048              		.global	Comp_3_PwrDwnOverrideDisable
 1049              		.thumb
 1050              		.thumb_func
 1051              		.type	Comp_3_PwrDwnOverrideDisable, %function
 1052              	Comp_3_PwrDwnOverrideDisable:
 1053              	.LFB10:
 569:Generated_Source\PSoC5/Comp_3.c ****     }
 570:Generated_Source\PSoC5/Comp_3.c **** 
 571:Generated_Source\PSoC5/Comp_3.c **** 
 572:Generated_Source\PSoC5/Comp_3.c ****     /*******************************************************************************
 573:Generated_Source\PSoC5/Comp_3.c ****     * Function Name: Comp_3_PwrDwnOverrideDisable
 574:Generated_Source\PSoC5/Comp_3.c ****     ********************************************************************************
 575:Generated_Source\PSoC5/Comp_3.c ****     *
 576:Generated_Source\PSoC5/Comp_3.c ****     * Summary:
 577:Generated_Source\PSoC5/Comp_3.c ****     *  This is the power down over-ride feature. This allows the component to stay
 578:Generated_Source\PSoC5/Comp_3.c ****     *  inactive during sleep.
 579:Generated_Source\PSoC5/Comp_3.c ****     *
 580:Generated_Source\PSoC5/Comp_3.c ****     * Parameters:
 581:Generated_Source\PSoC5/Comp_3.c ****     *  None
 582:Generated_Source\PSoC5/Comp_3.c ****     *
 583:Generated_Source\PSoC5/Comp_3.c ****     * Return:
 584:Generated_Source\PSoC5/Comp_3.c ****     *  None
 585:Generated_Source\PSoC5/Comp_3.c ****     *
 586:Generated_Source\PSoC5/Comp_3.c ****     *******************************************************************************/
 587:Generated_Source\PSoC5/Comp_3.c ****     void Comp_3_PwrDwnOverrideDisable(void) 
 588:Generated_Source\PSoC5/Comp_3.c ****     {
 1054              		.loc 1 588 0
 1055              		.cfi_startproc
 1056              		@ args = 0, pretend = 0, frame = 0
 1057              		@ frame_needed = 0, uses_anonymous_args = 0
 1058              		@ link register save eliminated.
 589:Generated_Source\PSoC5/Comp_3.c ****         /* Reset the pd_override bit in CMP_CR register */
 590:Generated_Source\PSoC5/Comp_3.c ****         Comp_3_CR &= (uint8)(~Comp_3_PWRDWN_OVRD);
 1059              		.loc 1 590 0
 1060 0000 024A     		ldr	r2, .L50
 1061 0002 1378     		ldrb	r3, [r2]	@ zero_extendqisi2
 1062 0004 03F0FB03 		and	r3, r3, #251
 1063 0008 1370     		strb	r3, [r2]
 1064 000a 7047     		bx	lr
 1065              	.L51:
 1066              		.align	2
 1067              	.L50:
 1068 000c 40580040 		.word	1073764416
 1069              		.cfi_endproc
 1070              	.LFE10:
 1071              		.size	Comp_3_PwrDwnOverrideDisable, .-Comp_3_PwrDwnOverrideDisable
 1072              		.global	Comp_3_initVar
 1073              		.bss
 1074              		.set	.LANCHOR0,. + 0
ARM GAS  C:\Users\Luggi\AppData\Local\Temp\cc4duQZB.s 			page 61


 1075              		.type	Comp_3_initVar, %object
 1076              		.size	Comp_3_initVar, 1
 1077              	Comp_3_initVar:
 1078 0000 00       		.space	1
 1079              		.text
 1080              	.Letext0:
 1081              		.file 2 "Generated_Source\\PSoC5\\cytypes.h"
 1082              		.file 3 "Generated_Source\\PSoC5\\CyLib.h"