ARM GAS  C:\Users\Luggi\AppData\Local\Temp\ccP9NNOM.s 			page 1


   1              		.syntax unified
   2              		.cpu cortex-m3
   3              		.fpu softvfp
   4              		.eabi_attribute 20, 1
   5              		.eabi_attribute 21, 1
   6              		.eabi_attribute 23, 3
   7              		.eabi_attribute 24, 1
   8              		.eabi_attribute 25, 1
   9              		.eabi_attribute 26, 1
  10              		.eabi_attribute 30, 1
  11              		.eabi_attribute 34, 1
  12              		.eabi_attribute 18, 4
  13              		.thumb
  14              		.file	"Comp_1.c"
  15              		.text
  16              	.Ltext0:
  17              		.section	.gnu.lto_.profile.d234976,"",%progbits
  18 0000 789C6366 		.ascii	"x\234cf```c\200\000F\206K\214\035\214\000\004\376\001"
  18      60606063 
  18      80004686 
  18      4B8C1D8C 
  18      0004FE01 
  19 0014 67       		.ascii	"g"
  20              		.text
  21              		.section	.gnu.lto_.inline.d234976,"",%progbits
  22 0000 789C6366 		.ascii	"x\234cf\300\016r\030!47\003\203J\033\023#3C\306G&\306"
  22      C00E7218 
  22      21343703 
  22      834A1B13 
  22      233343C6 
  23 0017 C665BB7B 		.ascii	"\306e\273{\330_0\375d\002J0.g\224b`\310\204P@\305\254"
  23      D85F30FD 
  23      64024A30 
  23      2E679462 
  23      60C88450 
  24 002e 42874E71 		.ascii	"B\207Nq2\260-\220gb\340\2710\221Y\200A\340\306L&\016"
  24      32B02D90 
  24      6762E0B9 
  24      30915980 
  24      41E0C64C 
  25 0044 30C9C220 		.ascii	"0\311\302 \000\324\300\304\315\310\000\202\234\034\214"
  25      00D4C0C4 
  25      CDC80082 
  25      9C1C8C
  26 0053 0C4C3C0F 		.ascii	"\014L<\017b!jA\022\230B\314\014B\274P;\217\317}\261"
  26      62216A41 
  26      129842CC 
  26      0C42BC50 
  26      3B8FCF7D 
  27 0068 89056C27 		.ascii	"\211\005l'P\363\012\210\235+`vr\034\260\203\350a\373"
  27      50F30A88 
  27      9D2B6076 
  27      721CB083 
  27      E861FB
  28 007b A027C0C0 		.ascii	"\240'\300\300\321`\304\301\300\261\203\207\005d\004"
  28      D160C4C1 
  28      C0B18387 
ARM GAS  C:\Users\Luggi\AppData\Local\Temp\ccP9NNOM.s 			page 2


  28      056404
  29 008a 0B83880C 		.ascii	"\013\203\210\014\320T\271\015\257\030\0216q\203\264"
  29      D054B90D 
  29      AF181136 
  29      7183B4
  30 0099 B132700A 		.ascii	"\2612p\012\003e8~\231\300%\030\271`\004;\003+\013P\222"
  30      0365387E 
  30      99C02518 
  30      B960043B 
  30      032B0B50 
  31 00ae 65813C5C 		.ascii	"e\201<\\\222\203AI\037(dt\241\215\031\315$d\022\350"
  31      92834149 
  31      1F286474 
  31      A18D19CD 
  31      246412E8 
  32 00c2 77564690 		.ascii	"wVF\220\377\030\230\341\232\231.\360\203\335\302\005"
  32      FF1898E1 
  32      9A992EF0 
  32      83DDC205 
  33 00d2 92636002 		.ascii	"\222c`\002:\022n\0007\246\020\003\000\302D16"
  33      3A126E00 
  33      37A61003 
  33      00C24431 
  33      36
  34              		.text
  35              		.section	.gnu.lto_.jmpfuncs.d234976,"",%progbits
  36 0000 789C6366 		.ascii	"x\234cf\300\016\252\24147\003##c=#\323G&\306\246\323"
  36      C00EAAA1 
  36      34370323 
  36      23633D23 
  36      D34726C6 
  37 0016 472E33BD 		.ascii	"G.3\275`\372\311\304\310\305\300\270\234Q\212\201\221"
  37      60FAC9C4 
  37      C8C5C0B8 
  37      9C518A81 
  37      91
  38 0027 81818981 		.ascii	"\201\201\211\201\201\031\244\200\205\201\001\254\346"
  38      8119A480 
  38      858101AC 
  38      E6
  39 0034 E2AC65CD 		.ascii	"\342\254e\315\374 5L\214\014\214+\200jXA\206\26030p"
  39      FC20354C 
  39      8C0C8C2B 
  39      806A5841 
  39      86B03330 
  40 0049 4015DC7F 		.ascii	"@\025\334\177r\376\"\007X\001P`%\310\020&\260: \005"
  40      72FE2207 
  40      58015060 
  40      25C81026 
  40      B03A2005 
  41 005d E271820C 		.ascii	"\342q\202\014\343\002Y\313\300\000\000}\231\027\277"
  41      E30259CB 
  41      C000007D 
  41      9917BF
  42              		.text
  43              		.section	.gnu.lto_.pureconst.d234976,"",%progbits
  44 0000 789C6366 		.ascii	"x\234cf``\020g\200\000n\006)F)&)f)\026)V\011v)\016)"
ARM GAS  C:\Users\Luggi\AppData\Local\Temp\ccP9NNOM.s 			page 3


  44      60601067 
  44      80006E06 
  44      29462926 
  44      29662916 
  45 001b 4E292E29 		.ascii	"N).)n)\000\022\\\001~"
  45      6E290012 
  45      5C017E
  46              		.text
  47              		.section	.gnu.lto_Comp_1_trimAdjust.d234976,"",%progbits
  48 0000 789C8D55 		.ascii	"x\234\215UkH\034W\024\276\347\316\356\314\354\354cV"
  48      6B481C57 
  48      14BEE7CE 
  48      EECCECEC 
  48      6356
  49 0012 89C5AC5B 		.ascii	"\211\305\254[Z\020\221\226Rh\241\377\332R\220\322_\205"
  49      5A109196 
  49      5268A1FF 
  49      DA5290D2 
  49      5F85
  50 0024 803FFA27 		.ascii	"\200?\372'%M\254\205@\325 \006\362'd\326\335&R$\004"
  50      254DAC85 
  50      40D52006 
  50      F22764D6 
  50      DD265224 
  51 0039 09A969B1 		.ascii	"\011\251i\261\244i\262\232\256\3216\306h\215i6\033_"
  51      A469B29A 
  51      AED136C6 
  51      688D6936 
  51      1B5F
  52 004b A9C660C5 		.ascii	"\251\306`\305G\2541!FI\332B\023V4\222\307\366\334s\307"
  52      47AC3121 
  52      4649DA42 
  52      13563492 
  52      C7F6DC73 
  53 0060 7551235D 		.ascii	"uQ#]\23033\347\234\357\234\357<\346\256\302\326\377"
  53      983333E7 
  53      9CEF9CEF 
  53      3CE6AEC2 
  53      D6FF
  54 0072 FEC04BD7 		.ascii	"\376\300K\327\030\373\020\357\220\305\200\037\031f,"
  54      18FB10EF 
  54      90C5801F 
  54      19662C
  55 0081 A473AED4 		.ascii	"\244s\256\324\0242\313p\012\351Q\270\203\3364zs\200"
  55      1432CB70 
  55      0AE951B8 
  55      83DE347A 
  55      7380
  56 0093 269D9C5C 		.ascii	"&\235\234\\\315P\253+j\215\273H\255\223Z\007\227T\273"
  56      CD50AB2B 
  56      6A8DBB48 
  56      AD935A07 
  56      9754BB
  57 00a6 C0940F06 		.ascii	"\300\224\017\006w\223\335Cv7x\245\332\263\362\340\345"
  57      7793DD43 
  57      763778A5 
  57      DAB3F2E0 
ARM GAS  C:\Users\Luggi\AppData\Local\Temp\ccP9NNOM.s 			page 4


  57      E5
  58 00b7 FE848276 		.ascii	"\376\204\202v\337\360\357\014\035|\022wE7\271A\032\203"
  58      DFF0EF0C 
  58      1D7C1277 
  58      4537B941 
  58      1A83
  59 00c9 CC1E3F80 		.ascii	"\314\036?\200\3203`\007\270\342p\252\232\3562\334\036"
  59      D0336007 
  59      B8E270AA 
  59      9AEE32DC 
  59      1E
  60 00da AFCFF4C3 		.ascii	"\257\317\364\303\001n\312\352\036\360G\034\216\304c"
  60      016ECAEA 
  60      1EF0471C 
  60      8EC463
  61 00e9 F5EEC2D3 		.ascii	"\365\356\302\323\226e=<\371\315^\353\350g\313\234\261"
  61      96653D3C 
  61      F9CD5EEB 
  61      E867CB9C 
  61      B1
  62 00fa 24971ED0 		.ascii	"$\227\036\320\010\205\350\023\375s\366\244S\311\007"
  62      0885E813 
  62      FD73F6A4 
  62      53C907
  63 0109 86CFCF8F 		.ascii	"\206\317\317\217\267}Q\360\243eU\307\257\267X\037\300"
  63      B77D51F0 
  63      A36555C7 
  63      AFB7581F 
  63      C0
  64 011a 32076802 		.ascii	"2\007h\002\005\001\360F\000^\0130T08\003\005\302wa\366"
  64      0501F046 
  64      005E0B30 
  64      54303803 
  64      05C27761 
  65 012f C213505E 		.ascii	"\302\023P^'\334\277s]\363\256\374\037\020x\247\373A"
  65      27DCBF73 
  65      5DF3AEFC 
  65      1F1078A7 
  65      FB41
  66 0141 9FDBAAB7 		.ascii	"\237\333\252\267\"wR\251W\004\376\247L\274\374\211D"
  66      227752A9 
  66      5704FEA7 
  66      4CBCFC89 
  66      44
  67 0152 63895E43 		.ascii	"c\211^Cy\233\300\207\353\007\032\014\002\307\2331k\350"
  67      799BC087 
  67      EB071A0C 
  67      02C79B31 
  67      6BE8
  68 0164 84F53C95 		.ascii	"\204\365<\225\242\334\315\033bk\353\307{@y\217\260O"
  68      A2DCCD1B 
  68      626BEBC7 
  68      7B40798F 
  68      B04F
  69 0176 8F27264D 		.ascii	"\217'&M\231\370\322\232\304-\033\202\037E\236M\270\325"
  69      99F8D29A 
  69      C42D1B82 
ARM GAS  C:\Users\Luggi\AppData\Local\Temp\ccP9NNOM.s 			page 5


  69      1F459E4D 
  69      B8D5
  70 0188 0876C40F 		.ascii	"\010v\304\0171\310\207\263x\265B\276l\012\374\014*0"
  70      31C887B3 
  70      78B542BE 
  70      6C0AFC0C 
  70      2A30
  71 019a A6645A5A 		.ascii	"\246dZZ\263\343V*\225\274u\264\351}\347\313X=\2320*"
  71      B3E3562A 
  71      95BC75B4 
  71      E97DE7CB 
  71      583D9A30 
  72 01af 1A75EC06 		.ascii	"\032u\354\006w1\341c\200h\212[(<B\370\2040\205\310\022"
  72      7731E163 
  72      80688A5B 
  72      283C42F8 
  72      843085C8 
  73 01c4 225B882D 		.ascii	"\"[\210-B\344\010\221+\304V!DC\225<!\202\024\230\261"
  73      42E40891 
  73      2BC45621 
  73      4443953C 
  73      21821498 
  74 01d9 7B48E3A1 		.ascii	"{H\343\241\312\3468\307\2332\005\211\305\257\373\206"
  74      CAE638C7 
  74      9B320589 
  74      C5AFFB86 
  75 01e9 B6095E4B 		.ascii	"\266\011^K\\G\372c\023W\207\325\373|\231;\216u\204,"
  75      5C47FA63 
  75      135787D5 
  75      FB7C993B 
  75      8E75842C 
  76 01fd 87A8E8F6 		.ascii	"\207\250\350\366\275\033#:\251\250\300X\177M\260\001"
  76      BD1B233A 
  76      A9A8C058 
  76      7F4DB001 
  77 020d BE0B45B0 		.ascii	"\276\013E\260\203N\370\005\002p\016\260~h\203\006`S"
  77      834EF805 
  77      02700EB0 
  77      7E688306 
  77      6053
  78 021f 107E7C70 		.ascii	"\020~|p\001d<\227\014yj\344\366\210\"\360\340`p\036"
  78      01643C97 
  78      0C796AE4 
  78      F68822F0 
  78      E060701E 
  79 0233 7DC78153 		.ascii	"}\307\201S#\2600tbc\020\231\014\307\242\271\022d \""
  79      23B03074 
  79      62631099 
  79      0CC7A2B9 
  79      12642022 
  80 0247 14BD58AB 		.ascii	"\024\275X\253\011\004\222\205v\220\335\235\343\012\353"
  80      09049285 
  80      7690DD9D 
  80      E30AEB
  81 0256 5414F4BE 		.ascii	"T\024\364\276\031\356\210\006\355\024\031f\007\233\006"
  81      19EE8806 
  81      ED141966 
ARM GAS  C:\Users\Luggi\AppData\Local\Temp\ccP9NNOM.s 			page 6


  81      079B06
  82 0265 59D1E2F5 		.ascii	"Y\321\342\365}\322\354\306`5\035\203\243\024\314q\276"
  82      7DD2ECC6 
  82      60351D83 
  82      A314CC71 
  82      BE
  83 0276 D6AEA8E9 		.ascii	"\326\256\250\351r\350o\367j\015\027\3225t\3305,\250"
  83      72E86FF7 
  83      6A0D17D2 
  83      3574D835 
  83      2CA8
  84 0288 12EF9121 		.ascii	"\022\357\221!\006\357>Nz\210\217\237A'zb\226:*r\263"
  84      06EF3E4E 
  84      7A888F9F 
  84      41277A62 
  84      963A2A72 
  85 029d 60BF6230 		.ascii	"`\277b0\014A\334\2346\365\311pG\343\006\324\325U\352"
  85      0C41DC9C 
  85      36F5C970 
  85      47E306D4 
  85      D555EA
  86 02b0 376CEA3E 		.ascii	"7l\352>\014\375\254\373\356!\312\353h_\241>u\356t\213"
  86      0CFDACFB 
  86      EE21CAEB 
  86      685FA13E 
  86      75EE748B 
  87 02c4 63355B57 		.ascii	"c5[W:\333\3055\324M\014\261\216\353\013\321\335\304"
  87      3ADBC535 
  87      D44D0CB1 
  87      8EEB0BD1 
  87      DDC4
  88 02d6 D524329A 		.ascii	"\325$2\232\330\014\342\232l^\031J\006W]\2242\016\325"
  88      D80CE29A 
  88      6C5E194A 
  88      06575D94 
  88      320ED5
  89 02e9 F1B16339 		.ascii	"\361\261c94F\\U\014\275\364\264\377+\223\246\2541\270"
  89      34465C55 
  89      0CBDF4B4 
  89      FF2B93A6 
  89      AC31B8
  90 02fc 44DE7338 		.ascii	"D\336s8\\\014\205\276~Z\350%\234\247\000\336\032\227"
  90      5C0C85BE 
  90      7E5AE825 
  90      9CA700DE 
  90      1A97
  91 030e C01801D3 		.ascii	"\300\030\001\323\353\205\037\006\374&\200\363 \216\226"
  91      EB851F06 
  91      FC2680F3 
  91      208E96
  92 031d D6DEC104 		.ascii	"\326\336\301\004m\"\230\014.C@\373\247\355\014\210\310"
  92      6D22980C 
  92      2E4340FB 
  92      A7ED0C88 
  92      C8
  93 032e FAA976C0 		.ascii	"\372\251v\300\330\006\303\023K\362\234=\033\\\317\323"
  93      D806C313 
ARM GAS  C:\Users\Luggi\AppData\Local\Temp\ccP9NNOM.s 			page 7


  93      4BF29C3D 
  93      1B5CCFD3 
  94 033e CD1A0B64 		.ascii	"\315\032\013dO\207\247\355\236fm6\256\270\335\300:\273"
  94      4F87A7ED 
  94      9E666D36 
  94      AEB8DDC0 
  94      3ABB
  95 0350 81D9D27F 		.ascii	"\201\331\322\177\344\333h\230\352r\342\267y\345\377"
  95      E4DB6898 
  95      EA72E2B7 
  95      79E5FF
  96 035f CE3E41FD 		.ascii	"\316>A\375\314&\"\2364\221\277>\225\241\267l6\212\253"
  96      CC26229E 
  96      3491BF3E 
  96      95A1B76C 
  96      368AAB
  97 0372 6B78E4A0 		.ascii	"kx\344\240\377\272\304/D\367P\342\034J\354\245\016M"
  97      FFBAC42F 
  97      44F750E2 
  97      1C4AECA5 
  97      0E4D
  98 0384 43243E3A 		.ascii	"C$>:\341\021@\261@\337\217\036n\341\373\237X5\226\276"
  98      E11140B1 
  98      40DF8F1E 
  98      6EE1FB9F 
  98      583596BE 
  99 0398 CCD52475 		.ascii	"\314\325$u\275\027\366\013S\365`\317(\027\245j\006\203"
  99      BD17F60B 
  99      53F560CF 
  99      2817A56A 
  99      0683
 100 03aa 3E082CE3 		.ascii	">\010,\343\254\211\367\374\314\273\222\313\326M\276"
 100      AC89F7FC 
 100      CCBB92CB 
 100      D64DBE
 101 03b9 FFFEF4F7 		.ascii	"\377\376\364\367?\244H\357\\\011\350\252\033\250\247"
 101      3FA448EF 
 101      5C09E8AA 
 101      1BA8A7
 102 03c8 41E2170A 		.ascii	"A\342\027\012\003TH\365\214&]\002\350E\357\207z\354"
 102      035448F5 
 102      8C265D02 
 102      E845EF87 
 102      7AEC
 103 03da 72F3EC23 		.ascii	"r\363\354#\341f\2702\355\222g\217\324\307N\3643E\364"
 103      E166B832 
 103      ED92678F 
 103      D4C74EF4 
 103      3345F4
 104 03ed E6E0E2D4 		.ascii	"\346\340\342\324\264}\312\004\227\360\320\315\230\023"
 104      B47DCA04 
 104      97F0D0CD 
 104      9813
 105 03fb E09CAE65 		.ascii	"\340\234\256e\23421\261xA\302\233\014\377\325\354}$"
 105      9C3231B1 
 105      7841C29B 
 105      0CFFD5EC 
ARM GAS  C:\Users\Luggi\AppData\Local\Temp\ccP9NNOM.s 			page 8


 105      7D24
 106 040d 35884C43 		.ascii	"5\210LC\341\227d$\020\013\312\304\376\201XDW\247\023"
 106      E1976424 
 106      100BCAC4 
 106      FE815844 
 106      57A713
 107 0420 81BEFB5E 		.ascii	"\201\276\373^D\372\305\"\317@(\236\374\204\032\311\304"
 107      44FAC522 
 107      CF40289E 
 107      FC841AC9 
 107      C4
 108 0431 490AA844 		.ascii	"I\012\250D\300\253\037\225\226\227V\356\254*\375|Gq"
 108      C0AB1F95 
 108      969756EE 
 108      AC2AFD7C 
 108      4771
 109 0443 C5DECA92 		.ascii	"\305\336\312\222\322\355\333\212+\212\336\331^TQ\266"
 109      D2EDDB8A 
 109      2B8ADED9 
 109      5E5451B6 
 110 0453 67C75B6F 		.ascii	"g\307[o\2260\265|\367\256]_\226jU\225\273\313\212\312"
 110      9630B57C 
 110      F7AE5D5F 
 110      966A5595 
 110      BBCB8ACA 
 111 0467 AB0CFBFE 		.ascii	"\253\014\373\376\361\316}zI\331\236\342*\204\376\007"
 111      F1CE7D7A 
 111      49D99EE2 
 111      2A84FE07 
 112 0477 92998022 		.ascii	"\222\231\200\""
 113              		.text
 114              		.section	.gnu.lto_Comp_1_Enable.d234976,"",%progbits
 115 0000 789C7D91 		.ascii	"x\234}\221?HBQ\024\306\317w\236>\004\033\242I\234\242"
 115      3F484251 
 115      14C6CF77 
 115      9E3E041B 
 115      A2499CA2 
 116 0014 C52D6868 		.ascii	"\305-hhiup\015\204&A\302\336X\212\324\354\263\214\250"
 116      6975700D 
 116      842641C2 
 116      DE588AD4 
 116      ECB38CA8 
 117 0028 167312D2 		.ascii	"\026s\022\322Q\354\277\241C\324$\325PK\321\222\340`"
 117      51ECBFA1 
 117      43D424D5 
 117      504BD192 
 117      E060
 118 003a 1016B644 		.ascii	"\020\026\266DR\030\026a\347\372\250 \251\013\367\334"
 118      52181661 
 118      E7FAA820 
 118      A90BF7DC 
 119 004a 3FEF3BBF 		.ascii	"?\357;\277\363\335\3634\352\035n\231E\020\015\311\012"
 119      F3DDF334 
 119      EA1D6E99 
 119      45100DC9 
 119      0A
 120 005b 8DC0C90B 		.ascii	"\215\300\311\013\242\270\203\001\265!P\214\021\303\003"
ARM GAS  C:\Users\Luggi\AppData\Local\Temp\ccP9NNOM.s 			page 9


 120      A2B88301 
 120      B521508C 
 120      11C303
 121 006a 3719C9F2 		.ascii	"7\031\311\362v\332\351\311\231\246\371T<t-\272\332L"
 121      76DAE9C9 
 121      99A6F954 
 121      3C742DBA 
 121      DA4C
 122 007c F4CC1606 		.ascii	"\364\314\026\006yxH4\315\304G\305\251'D\323o}\303\006"
 122      79784834 
 122      CDC447C5 
 122      A92744D3 
 122      6F7DC306 
 123 0090 74C15361 		.ascii	"t\301Sa\240lv:\245\373\265\306\030\034Lm\226b\022\354"
 123      A06C763A 
 123      A5FBB5C6 
 123      181C4C6D 
 123      966212EC 
 124 00a4 2AE82A10 		.ascii	"*\350*\020\325E\257\212\3361\253U\253\342\270\265\362"
 124      D545AF8A 
 124      DE31AB55 
 124      ABE2B8B5 
 124      F2
 125 00b5 98995088 		.ascii	"\230\231P\210WV\016\336\227k\267\266\006\267\231\363"
 125      57560EDE 
 125      976BB7B6 
 125      06B799F3 
 126 00c5 4B71D3A6 		.ascii	"Kq\323\246\012\336\324/\257\034\335+R\307\344y~\276"
 126      0ADED42F 
 126      AF1CDD2B 
 126      52C7E479 
 126      7EBE
 127 00d7 2F8BF578 		.ascii	"/\213\365x\002m\326\260\0117\266 o\3046\262\240*\026"
 127      026DD6B0 
 127      0937B620 
 127      6FC436B2 
 127      A02A16
 128 00ea 5E740BA7 		.ascii	"^t\013\247Y\304\243\324YZW\351\260\021vD)ESP\222\377"
 128      59C4A3D4 
 128      595A57E9 
 128      B0117644 
 128      29455350 
 129 0100 60BB0213 		.ascii	"`\273\002\023\004u\035\2662\021\013i\227\224\353\325"
 129      04751DB6 
 129      32110B69 
 129      9794EBD5 
 130 0110 B71CBA76 		.ascii	"\267\034\272v\016\276\034\236\224R\247\370\241\354}"
 130      0EBE1C9E 
 130      9452A7F8 
 130      A1EC7D
 131 011f 530ABF2C 		.ascii	"S\012\277,)D\217\207?\263\367\273\036t\252!^\256\370"
 131      29448F87 
 131      3FB3F7BB 
 131      1E74AA21 
 131      5EAEF8
 132 0132 945AFD87 		.ascii	"\224Z\375\207\2724Rz'\315\030\364\0313Ftr\326\230\012"
 132      BA34527A 
ARM GAS  C:\Users\Luggi\AppData\Local\Temp\ccP9NNOM.s 			page 10


 132      27CD18F4 
 132      19334674 
 132      72D6980A 
 133 0146 FAC373D1 		.ascii	"\372\303s\321\220\021\030\367\207\275\243\001ox:\022"
 133      901118F7 
 133      87BDA301 
 133      6F783A12 
 134 0156 1C190ED1 		.ascii	"\034\031\016\321'\307\345\237e"
 134      27C7E59F 
 134      65
 135              		.text
 136              		.section	.gnu.lto_Comp_1_Stop.d234976,"",%progbits
 137 0000 789C7D91 		.ascii	"x\234}\221?H\002q\024\307\337{\247\207`A4\211S\264\270"
 137      3F480271 
 137      14C7DF7B 
 137      A7876041 
 137      348953B4 
 138 0015 050D2DAD 		.ascii	"\005\015-\255\016\015-\201\320$H\330\215\245H\315\336"
 138      0E0D2D81 
 138      D02448D8 
 138      8DA548CD 
 138      DE
 139 0026 9511D522 		.ascii	"\225\021\325\"NA8\312Uf\006\016\255\366\027Z\214\032"
 139      4E4138CA 
 139      5566060E 
 139      ADF6175A 
 139      8C1A
 140 0038 921C0CC2 		.ascii	"\222\034\014\302\320\266$\250.\011{\357\216\012\222"
 140      D0B624A8 
 140      2E097BEF 
 140      8E0A92
 141 0047 FAC1EFFD 		.ascii	"\372\301\357\375\376\334\367}\336\367\367N\201\336\341"
 141      FEDCF77D 
 141      DEF7F74E 
 141      81DEE1
 142 0056 E7594280 		.ascii	"\347YB\200a^Q\001\244t\005\300\360\020\242l\000!I\230"
 142      615E5101 
 142      A47405C0 
 142      F010A26C 
 142      00214998 
 143 006a C4476A13 		.ascii	"\304Gj\023\246\313\371Mo \247\353\372\323\365\255o\305"
 143      A6CBF94D 
 143      6F20A7EB 
 143      FAD3F5AD 
 143      6FC5
 144 007c 6711C033 		.ascii	"g\021\30039\03041\000\254i\247>\252^5\305\232\001\347"
 144      39183431 
 144      00AC69A7 
 144      3EAA5E35 
 144      C59A01E7 
 145 0090 1B6EA3CA 		.ascii	"\033n\243\312x(\016\226\365n\267\324\314\264\306\311"
 145      78280E96 
 145      F56EB7D4 
 145      CCB4C6C9 
 146 00a0 43601117 		.ascii	"C`\021\027\343\340\226\240J\000h\260^\212>\020\311\252"
 146      E3E096A0 
 146      4A0068B0 
ARM GAS  C:\Users\Luggi\AppData\Local\Temp\ccP9NNOM.s 			page 11


 146      5E8A3E10 
 146      C9AA
 147 00b2 D4F0F865 		.ascii	"\324\360\370e\375\2740-\210W\022\007\235\265\372\275"
 147      FDBC302D 
 147      88571207 
 147      9DB5FABD 
 148 00c2 AB451691 		.ascii	"\253E\026\221\271j\350.)x\327\270\274\362\330W \307"
 148      B96AE82E 
 148      2978D7B8 
 148      BCF2D857 
 148      20C7
 149 00d4 F485B9D4 		.ascii	"\364\205\271\324\227\305-#\205\026)\270\203~\334E~#"
 149      97C52D23 
 149      851629B8 
 149      837EDC45 
 149      7E23
 150 00e6 E6318B50 		.ascii	"\3461\213P\303\3457\325\301)\016\321<k\036\365K\272"
 150      C3E537D5 
 150      C1290ED1 
 150      3C6B1EF5 
 150      4BBA
 151 00f8 D241C03D 		.ascii	"\322A\300=\226r\325\014\212\346?Z\201i\314\000\333b"
 151      9672D50C 
 151      8AE63F5A 
 151      8169CC00 
 151      DB62
 152 010a A5107798 		.ascii	"\245\020w\230nN\271\331x\317\241\355\347\360\313\342"
 152      6E4EB9D9 
 152      78CFA1ED 
 152      E7F0CBE2 
 153 011a 4929738A 		.ascii	"I)s\212?\224\375oJ\361\227'A\364x\3703\373\300\366\240"
 153      3F94FD6F 
 153      4AF19727 
 153      41F478F8 
 153      33FBC0F6 
 154 012f 421D8D72 		.ascii	"B\035\215ruR\324\362#\032\334In\036wchB\233\327\022"
 154      7552D4F2 
 154      231ADC49 
 154      6E1E7763 
 154      68429BD7 
 155 0144 330BDA6C 		.ascii	"3\013\332l$\024[LD\265\360T(\026\034\013\007cs\361\310"
 155      24145B4C 
 155      44B5F054 
 155      28161C0B 
 155      076373F1 
 156 0159 E848143E 		.ascii	"\350H\024>\001\302|\240\360"
 156      01C27CA0 
 156      F0
 157              		.text
 158              		.section	.gnu.lto_Comp_1_SetSpeed.d234976,"",%progbits
 159 0000 789C7D93 		.ascii	"x\234}\223]H\024Q\024\307\357\271wfv\325M\227\245\007"
 159      5D481451 
 159      14C7EFB9 
 159      776676D5 
 159      4D97A507 
 160 0014 590A8210 		.ascii	"Y\012\202\020\013\"\210\3501\011|\350\261\300\036\005"
 160      0B2288E8 
ARM GAS  C:\Users\Luggi\AppData\Local\Temp\ccP9NNOM.s 			page 12


 160      31097CE8 
 160      B1C01E05 
 161 0024 095DE8A5 		.ascii	"\011]\350\245\024\263gg\335-K\244\304H\202\022\213\220"
 161      14B36767 
 161      DD2D4BA4 
 161      C4488212 
 161      8B90
 162 0036 CC2D3FD6 		.ascii	"\314-?\3265S\327v\330\240m\3732\225J\014,\304\300\022"
 162      3553D776 
 162      D8A06DFB 
 162      32954A0C 
 162      2CC4C012 
 163 004a 22B1FC20 		.ascii	"\"\261\374 ?:\347\316\314\272\262\340\300\234{\357\341"
 163      3F3AE7CE 
 163      CCBAB2E0 
 163      C09C7BEF 
 163      E1
 164 005b FCCFF99D 		.ascii	"\374\317\371\2353w\004\313|\216\343[\2540v\000W\320"
 164      337704CB 
 164      7C8EE35B 
 164      AC307600 
 164      57D0
 165 006d 18F0A6F7 		.ascii	"\030\360\246\367\214\371\235\234\213D\036\323\263\225"
 165      8CF99D9C 
 165      8B441ED3 
 165      B395
 166 007b 6411D35D 		.ascii	"d\021\323]\002T\323\255\330\033\025\2006\014X-\027\212"
 166      0254D3AD 
 166      D81B1580 
 166      360C582D 
 166      178A
 167 008d 0AB5F083 		.ascii	"\012\265\360\203/ph2B\267s\012\333u]\377=\276\220\177"
 167      2F706832 
 167      42B7730A 
 167      DB755DFF 
 167      3DBE907F 
 168 00a1 397F9533 		.ascii	"9\177\2253\266\310\315J\360\020\0121$`\314\304\234b"
 168      B6C8CD4A 
 168      F0100A31 
 168      2460CCC4 
 168      9C62
 169 00b3 3F30DCB7 		.ascii	"?0\334\267\264_\033\311+x\240\353uF\264K?\001\253\034"
 169      B45F1BC9 
 169      2B78A0EB 
 169      7546B44B 
 169      3F01AB1C 
 170 00c7 A003042A 		.ascii	"\240\003\004*\340\220\027\016z\031:\030<\202\002\012"
 170      E090170E 
 170      7A193A18 
 170      3C82020A 
 171 00d7 5E08AE7F 		.ascii	"^\010\256\177\316\321\202\230\333m\346\204N\320\000"
 171      CED18298 
 171      DB6DE684 
 171      4ED000
 172 00e6 D76E8FA1 		.ascii	"\327n\217\241on\366%n\316\035\025\273\005j\270\202F"
 172      6F6EF625 
 172      6ECE1D15 
ARM GAS  C:\Users\Luggi\AppData\Local\Temp\ccP9NNOM.s 			page 13


 172      BB056AB8 
 172      8246
 173 00f8 A8643420 		.ascii	"\250d4 \271\203\266N2Yd\262)\306E&\227\214\233\214\207"
 173      B983B64E 
 173      325964B2 
 173      29C64526 
 173      978C9B8C 
 174 010d 0C63B3F8 		.ascii	"\014c\263\370Rc\337\361\200\253\230\202\370R\303\313"
 174      5263DFF1 
 174      80AB9882 
 174      F852C3CB 
 175 011d C133546B 		.ascii	"\3013Tk\231\013\304HN\206\256\270\346\370*W\342=~]!"
 175      990BC448 
 175      4E86AEB8 
 175      E6F82A57 
 175      E23D7E5D 
 176 0132 B2AFB3A3 		.ascii	"\262\257\263\243cN\351bt\274\336\370\341\233\332\012"
 176      634EE962 
 176      74BCDEF8 
 176      E19BDA0A 
 177 0142 77FC416C 		.ascii	"w\374AlH\205\020x\3411x\221\367\011\264\002\233\202"
 177      48851078 
 177      E1317891 
 177      F709B402 
 177      9B82
 178 0154 BAE9FA35 		.ascii	"\272\351\37250\023*\230\023=\201\025\315<\253\350\302"
 178      30132A98 
 178      133D8115 
 178      CD3CABE8 
 178      C2
 179 0165 0CF39177 		.ascii	"\014\363\221w\3678%\024k\233\326\203\023\356\302$\244"
 179      F7382514 
 179      6B9BD683 
 179      13EEC224 
 179      A4
 180 0176 7698B18E 		.ascii	"v\230\261\216e\256\245k\235\350Bmw\333\337\015\220Z"
 180      65AEA56B 
 180      9DE8426D 
 180      77DBDF0D 
 180      905A
 181 0188 C1A05B4A 		.ascii	"\301\240[J\002\177\254\220,Y\301\231\236%\033\275x\216"
 181      027FAC90 
 181      2C59C199 
 181      9E251BBD 
 181      788E
 182 019a 374BA26D 		.ascii	"7K\242m\364~C\335\316\337\203\374\250`\037!8\031X\274"
 182      F47E43DD 
 182      CEDF83FC 
 182      A8601F21 
 182      381958BC 
 183 01ae 6B652051 		.ascii	"ke Q\242u.\254PQ\372^\275\024\314h\206\202%\362\314"
 183      A2752EAC 
 183      5051FA5E 
 183      BD14CC68 
 183      868225F2 
 184 01c3 11FE1AAA 		.ascii	"\021\376\032\2521\243]\030\035\011\315\237\243`\255"
 184      31A35D18 
ARM GAS  C:\Users\Luggi\AppData\Local\Temp\ccP9NNOM.s 			page 14


 184      1D09CD9F 
 184      A360AD
 185 01d2 B94E7FB5 		.ascii	"\271N\177\265}\202\232\234\340\333/+\015`O\320\001a"
 185      7D829A9C 
 185      E0DB2F2B 
 185      0D604FD0 
 185      0161
 186 01e4 24E89304 		.ascii	"$\350\223\004\021s\202\361\346\373{,\334\253\003o&\034"
 186      117382F1 
 186      E6FB7B2C 
 186      DCAB036F 
 186      261C
 187 01f6 72F69146 		.ascii	"r\366\221F\353st\304\374\3639V\007{\251\203\376T\007"
 187      EB7374C4 
 187      FCF33956 
 187      077BA983 
 187      FE5407
 188 0209 4F65072E 		.ascii	"Oe\007.&\231\226l\246\\\024\215N\274\030\225y\264\026"
 188      2699966C 
 188      A65C148D 
 188      4EBC1895 
 188      79B416
 189 021c 1B6AB83E 		.ascii	"\033j\270>\364\332\261E1\220\242x\226A\261\036\235\251"
 189      F4DAB145 
 189      3190A278 
 189      9641B11E 
 189      9DA9
 190 022e 372F45BF 		.ascii	"7/E\277M1\025n\357R\322)\006S\024C\222\"W\216Ha\311"
 190      4D31156E 
 190      EF52D229 
 190      06531443 
 190      9222578E 
 191 0245 2273449F 		.ascii	"\"sD\237\242\026\216\033\3253\311\215\177\252\304\351"
 191      A2168E1B 
 191      D533C98D 
 191      7FAAC4E9 
 192 0255 0D583863 		.ascii	"\015X8c\267~\366\355\332\302\031N\341D3pv\230\300\210"
 192      B77EF6ED 
 192      DAC2194E 
 192      E1443370 
 192      7698C088 
 193 0269 ACED3627 		.ascii	"\254\3556'0m\227\364\240\2503\326\0204'0h\227l\212\205"
 193      306D97F4 
 193      A0A833D6 
 193      10342730 
 193      68976C8A 
 194 027e 6FA4957C 		.ascii	"o\244\225|\236*\031\313(\271C\273\206,\351\221\355\252"
 194      9E2A19CB 
 194      28B943BB 
 194      862CE991 
 194      EDAA
 195 0290 F2AF9A06 		.ascii	"\362\257\232\006\277\321v\212\224tOf\361\322\240\027"
 195      BFD1768A 
 195      94744F66 
 195      F1D2A017 
 196 02a0 FFBC7D27 		.ascii	"\377\274}'}\027|\325gk|\025e%\225\227\252\313}\245\247"
 196      7D177CD5 
ARM GAS  C:\Users\Luggi\AppData\Local\Temp\ccP9NNOM.s 			page 15


 196      676B7C15 
 196      65259597 
 196      AACB7DA5 
 197 02b5 4B2A8B8F 		.ascii	"K*\213\217\225\026W\236\257*;r\270\234\251\027\253|"
 197      9516579E 
 197      AF2A3B72 
 197      B89CA917 
 197      AB7C
 198 02c7 BE8AFFAE 		.ascii	"\276\212\377\256!\222\252"
 198      2192AA
 199              		.text
 200              		.section	.gnu.lto_Comp_1_Init.d234976,"",%progbits
 201 0000 789C8D53 		.ascii	"x\234\215SAH\024Q\030\376\2777\273\263\353\272\353."
 201      41481451 
 201      18FEBF37 
 201      BBB3EBBA 
 201      EB2E
 202 0012 82973D45 		.ascii	"\202\227=E\027oA\207\256]\204\272.x\351 I\350\036kC"
 202      176F4187 
 202      AE5D84BA 
 202      2E78E920 
 202      49E81E6B 
 203 0027 EA28CEE0 		.ascii	"\352(\316\340\022\021!\026(jh\227\312jMmm\325LbV(\210"
 203      12112116 
 203      286A6897 
 203      CA6A4D6D 
 203      6DD54C62 
 204 003e 48134B43 		.ascii	"H\023KC*+,\363\226l\244\203\204\375\377\274-a\303e\007"
 204      2A2B2CF3 
 204      966CA483 
 204      84FDFFBC 
 204      2D61C365 
 205 0053 E67B33F3 		.ascii	"\346{3\363\276\357\373\277\371\337{\006\375\177\305"
 205      BEEFFBBF 
 205      F9DF7B06 
 205      FD7FC5
 206 0062 F9BE6910 		.ascii	"\371\276i\020\035\346\021\006Au\317\023\331A\005\310"
 206      1DE61106 
 206      4175CF13 
 206      D94105C8 
 207 0072 03813A14 		.ascii	"\003\201:\024:\260\251\266\024\272\235L_u\375m\313\262"
 207      3AB0A9B6 
 207      14BA9D4C 
 207      5F75FD6D 
 207      CBB2
 208 0084 7E645FD9 		.ascii	"~d_\331\011\007\256\"*(\355\203a\324\023\223\266\322"
 208      0907AE22 
 208      2A28ED83 
 208      61D41393 
 208      B6D2
 209 0096 BF57AACD 		.ascii	"\277W\252\3154\223bz\016wa\202\307\261Z\307\332\333"
 209      3493627A 
 209      0E776182 
 209      C7B15AC7 
 209      DADB
 210 00a8 9B98CCBF 		.ascii	"\233\230\314\2771k\015r\025|\002\246@@\240J $\020\026"
 210      316B0D72 
ARM GAS  C:\Users\Luggi\AppData\Local\Temp\ccP9NNOM.s 			page 16


 210      157C02A6 
 210      4040A04A 
 210      20241016 
 211 00bc 88084405 		.ascii	"\210\010D\005b\002D\353l&\221\276*%\243\361\036i\347"
 211      620244EB 
 211      6C2691BE 
 211      2A25A3F1 
 211      1E69E7
 212 00cf 439DB84B 		.ascii	"C\235\270K\331\241\245\256Q\325\276k]\266\202\256R\005"
 212      D9A1A5AE 
 212      51D5BE6B 
 212      5DB682AE 
 212      5205
 213 00e1 11E01EDA 		.ascii	"\021\340\036\332ejq\340Ng\364\273r\225\001\302}\304"
 213      656A71E0 
 213      4E67F4BB 
 213      729501C2 
 213      7DC4
 214 00f3 5DE5A355 		.ascii	"]\345\243U\314\375\272\362m\312/\362me0\353\305\273"
 214      CCFDBAF2 
 214      6DCA2FF2 
 214      6D6530EB 
 214      C5BB
 215 0105 CCA5B0B0 		.ascii	"\314\245\260\260\374s\343\266\345\023\341\332\372\302"
 215      FC73E3B6 
 215      E513E1DA 
 215      FAC2
 216 0113 62D0FB44 		.ascii	"b\320\373D\362\332u\365\365'\377 n\330i\376q\023\031"
 216      F2DA75F5 
 216      F527FF20 
 216      6ED869FE 
 216      711319
 217 0126 C431026E 		.ascii	"\3041\002n\037\036`\020\354\330\271cj;\237v\234\231"
 217      1F1E6010 
 217      ECD8B963 
 217      6A3B9F76 
 217      9C99
 218 0138 5D5A3044 		.ascii	"]Z0Dn\256q\341Q\246r\325\353\020N9\2671v\333\376\033"
 218      6EAE71E1 
 218      51A672D5 
 218      EB104E39 
 218      B73176DB 
 219 014e 71B9EFB4 		.ascii	"q\271\357\264\366,+\031/\011\020\320\374\341g\033\371"
 219      F62C2B19 
 219      2F0910D0 
 219      FCE1671B 
 219      F9
 220 015f 88176097 		.ascii	"\210\027`\227\003<\2544@\326\013\020\320\001\346\373"
 220      033CAC34 
 220      40D60B10 
 220      D001E6FB 
 221 016f 8F6BCFAA 		.ascii	"\217k\317\252r\222\211b\200\237\305\000!\315\277\325"
 221      72928962 
 221      809FC500 
 221      21CDBFD5 
 222 017f D33BE297 		.ascii	"\323;\342\227\000\010\022\036UZ?\347\325\017\025\327"
 222      0008121E 
ARM GAS  C:\Users\Luggi\AppData\Local\Temp\ccP9NNOM.s 			page 17


 222      555A3FE7 
 222      D50F15D7 
 223 018f A83FA12D 		.ascii	"\250?\241-\303,\311>\315\016\005\274\005Y\311\025\327"
 223      C32CC93E 
 223      CD0E05BC 
 223      0559C915 
 223      D7
 224 01a0 E85ACF72 		.ascii	"\350Z\317r\256f\337e\362\237\313TIO\"\332b:\277\372"
 224      AE66DF65 
 224      F29FCB54 
 224      494F22DA 
 224      623ABFFA 
 225 01b4 59F76483 		.ascii	"Y\367d\203{2]\222\351@\267\307^\246\210\316\364|\340"
 225      7B325D92 
 225      E940B7C7 
 225      5EA688CE 
 225      F47CE0
 226 01c7 94F68C96 		.ascii	"\224\366\214\226\223\314\224\364$\246\371/\277\354\024"
 226      93CC94F4 
 226      24A6F92F 
 226      BFEC14
 227 01d6 BC7DC6FB 		.ascii	"\274}\306\373\032O*\255?\353\325\217\321G\330\316\333"
 227      1A4F2AAD 
 227      3FEBD58F 
 227      D147D8CE 
 227      DB
 228 01e7 13DEA627 		.ascii	"\023\336\246'9\022\220\243\300\007\343\320\311\344\271"
 228      391290A3 
 228      C007E3D0 
 228      C9E4B9
 229 01f6 64DB990B 		.ascii	"d\333\231\013\311\326\346\306\324\305\266\226dS\242"
 229      C9D6E6C6 
 229      D4C5B696 
 229      6453A2
 230 0205 31D570AC 		.ascii	"1\325p\254\251!u\366|\363\321#-\364\007\037\325C\000"
 230      A92175F6 
 230      7CF3D123 
 230      2DF4071F 
 230      D54300
 231              		.text
 232              		.section	.gnu.lto_Comp_1_Start.d234976,"",%progbits
 233 0000 789C7590 		.ascii	"x\234u\220\275KBQ\030\306\337\367=\327\017J(\232\244"
 233      BD4B4251 
 233      18C6DFF7 
 233      3DD70F4A 
 233      289AA4
 234 0013 21A2C521 		.ascii	"!\242\305!(\"\372\013\034\202\246\300U\2202\3072\244"
 234      2822FA0B 
 234      1C82A6C0 
 234      559032C7 
 234      32A4
 235 0025 46E95CBD 		.ascii	"F\351\\\275\201C\2048E_[f\331\347\322\220\313\235\245"
 235      81438438 
 235      455F5B66 
 235      D9E7D290 
 235      CB9DA5
 236 0038 1291B222 		.ascii	"\022\221\262\"j)\250Mq\010\011\261\367\\\243\300\360"
ARM GAS  C:\Users\Luggi\AppData\Local\Temp\ccP9NNOM.s 			page 18


 236      6A29A84D 
 236      710809B1 
 236      F75CA3C0 
 236      F0
 237 0049 C0E59CFB 		.ascii	"\300\345\234\373\234\347}\236\037G\300\3775\316\337"
 237      9CE77D9E 
 237      1F47C0FF 
 237      35CEDF
 238 0058 05020CF1 		.ascii	"\005\002\014\361\2166@J\336\000\350N\"q9\000\262K\273"
 238      8E36404A 
 238      DE00E84E 
 238      22713900 
 238      B24BBB
 239 006b 1B05E912 		.ascii	"\033\005\351\022\250\265d\015Q\035\000a\205\204\206"
 239      A8B5640D 
 239      511D0061 
 239      858486
 240 007a 2BF84155 		.ascii	"+\370AU\302\244\231\335\350\366\354I)+\261\222{\325"
 240      C2A499DD 
 240      E8F6EC49 
 240      292BB192 
 240      7BD5
 241 008c 5D27801A 		.ascii	"]'\200\032\265\362q\037=\300\236\252\321(w\333\015\366"
 241      B5F2711F 
 241      3DC09EAA 
 241      D12877DB 
 241      0DF6
 242 009e F4B6EE30 		.ascii	"\364\266\3560\203v\356\205\323>S6\233\265\253Tb\230"
 242      8376EE85 
 242      D33E5336 
 242      9BB5AB54 
 242      6298
 243 00b0 1C02EAC4 		.ascii	"\034\002\352\304\342+\033T\317\033\221\332\305#\306"
 243      E22B1B54 
 243      CF1B91DA 
 243      C523C6
 244 00bf 52D5EB94 		.ascii	"R\325\353\224C\315|\222\340\270\335\322\372\011E\277"
 244      43CD7C92 
 244      E0B8DDD2 
 244      FA0945BF 
 245 00cf 64423AEB 		.ascii	"dB:\353D\015\025\310\352\313k\241\350|'V\254\337\214"
 245      440D15C8 
 245      EACB6BA1 
 245      E87C2756 
 245      ACDF8C
 246 00e2 6E6CE30E 		.ascii	"nl\343\016n\351R\271\004\036`\024\017\261\237\273\263"
 246      6EE952B9 
 246      041E6014 
 246      0FB19FBB 
 246      B3
 247 00f3 2CC32D1A 		.ascii	",\303-\032\367\361\331\277L=\235[s\250i&\300#\345\003"
 247      F7F1D9BF 
 247      4C3D9D5B 
 247      73A86926 
 247      C023E503 
 248 0107 8520E072 		.ascii	"\205 \340r@<a\334\314\345]\312\014\355\365Z\315\232"
 248      403C61DC 
ARM GAS  C:\Users\Luggi\AppData\Local\Temp\ccP9NNOM.s 			page 19


 248      CCE55DCA 
 248      0CEDF55A 
 248      CD9A
 249 0119 38C628D3 		.ascii	"8\306(\323\333\200a+\225B\314\202\355H\332\216v\362"
 249      DB80612B 
 249      9542CC82 
 249      ED48DA8E 
 249      76F2
 250 012b 8B76CA32 		.ascii	"\213v\3122\033\212\233\351x\217\202\021\010xf\301\274"
 250      1B8A9BE9 
 250      788F8211 
 250      087866C1 
 250      BC
 251 013c 9166BD86 		.ascii	"\221f\275\206b)\347\251\023\0137\340\371\017\3133\352"
 251      6229E7A9 
 251      130B37E0 
 251      F90FCB33 
 251      EA
 252 014d E6C394E5 		.ascii	"\346\303\224\345\004\365\254\250\002\33008\031Z\010"
 252      04F5ACA8 
 252      02D83038 
 252      195A08
 253 015c 45669642 		.ascii	"Ef\226Bs\001_x9\022\014\371\247}a\357\204\337\033\236"
 253      73015F78 
 253      39120CF9 
 253      A77D61EF 
 253      84DF1B9E 
 254 0170 5F0C8C8D 		.ascii	"_\014\214\215\004\341\033\356\306\250\024"
 254      04E11BEE 
 254      C6A814
 255              		.text
 256              		.section	.gnu.lto_Comp_1_GetCompare.d234976,"",%progbits
 257 0000 789C6366 		.ascii	"x\234cf\300\004R@\374\033\210\225\200\230\221\231\201"
 257      C0045240 
 257      FC1B8895 
 257      80989199 
 257      81
 258 0011 9169C239 		.ascii	"\221i\3029\006\206F\016&FF\020\203\201\221\241\236\211"
 258      0686460E 
 258      26464610 
 258      838191A1 
 258      9E89
 259 0023 B19EF125 		.ascii	"\261\236\361%\323G&\3063;\377]fT_\332\320\320\364a\323"
 259      D34726C6 
 259      333BFF5D 
 259      66545FDA 
 259      D0D0F461 
 260 0038 FF3BDCAD 		.ascii	"\377;\334\255\022?\231\030\030>310\352H1j\202\314a\\"
 260      123F9918 
 260      183E3331 
 260      30EA4831 
 260      6A82CC61 
 261 004d CEA8CE00 		.ascii	"\316\250\316\000T\370\261\345\357un\266\226\206\206"
 261      54F8B1E5 
 261      EF756EB6 
 261      968686
 262 005c 0601903C 		.ascii	"\006\001\220<Pb\005#\033#\220^/t\240\341\377\377\315"
ARM GAS  C:\Users\Luggi\AppData\Local\Temp\ccP9NNOM.s 			page 20


 262      50620523 
 262      1B23905E 
 262      2F74A0E1 
 262      FFFFCD
 263 006f FF269FB0 		.ascii	"\377&\237\260gfab\370\311\004\264\021d\010\303\023 "
 263      67666162 
 263      F8C904B4 
 263      116408C3 
 263      1320
 264 0081 01B2EF29 		.ascii	"\001\262\357)\023\023\210f\276\305x\350[\327\273\375"
 264      13138866 
 264      BEC578E8 
 264      5BD7BBFD 
 265 0091 56208DDF 		.ascii	"V \215\337\231@\226_\275~\370\034\333\013\246\237LL"
 265      9940965F 
 265      BD7EF81C 
 265      DB0BA69F 
 265      4C4C
 266 00a3 D3B63736 		.ascii	"\323\26676\260\200\254\271\377\344\374E\016\260\020"
 266      B080ACB9 
 266      FFE4FC45 
 266      0EB010
 267 00b2 0388BBFA 		.ascii	"\003\210\273\372x\207\314\\\306\331\215-\214?\231\230"
 267      7887CC5C 
 267      C6D98D2D 
 267      8C3F9998 
 268 00c2 1957324A 		.ascii	"\031W2J1\256b\004\272\212q5\343\\F\206[\214\315?\332"
 268      31AE6204 
 268      BA8A7135 
 268      E35C4686 
 268      5B8CCD3F 
 269 00d7 7420C631 		.ascii	"t \3061CL\\r\361\376Ef\220v\006\026\006\3065@\245\367"
 269      434C5C72 
 269      F1FE4566 
 269      90760616 
 269      06C63540 
 270 00ed 1819A10A 		.ascii	"\030\031\241\012\300.b\004\271\004h\264\202{j^jQbIj"
 270      C02E6204 
 270      B90468B4 
 270      827B6A5E 
 270      6A516249 
 271 0102 4A7C707E 		.ascii	"J|p~iQrjL@p\276\263i\214s~nA\274\241^2\003\000z$e\247"
 271      6951726A 
 271      4C4070BE 
 271      B3698C73 
 271      7E6E41BC 
 272              		.text
 273              		.section	.gnu.lto_Comp_1_ZeroCal.d234976,"",%progbits
 274 0000 789C8D95 		.ascii	"x\234\215\225MLTW\024\307\357\271\357c\206\231i\206"
 274      4D4C5457 
 274      14C7EFB9 
 274      EF638699 
 274      6986
 275 0012 346E1805 		.ascii	"4n\030\005\232\2600m\232F\333\264\265\213\322\005\213"
 275      9AB0306D 
 275      9A46DBB4 
 275      B58BD205 
ARM GAS  C:\Users\Luggi\AppData\Local\Temp\ccP9NNOM.s 			page 21


 275      8B
 276 0023 6E4D5974 		.ascii	"nMYtcb\254ei1F\027]\030\337\300\004\324\022m&\332R\024"
 276      6362AC65 
 276      69314617 
 276      5D18DFC0 
 276      04D4126D 
 277 003b A32D5A2D 		.ascii	"\243-Z-\362)H)Vqj\031a\024A\252\022K\030\244Pi\240\002"
 277      F2294829 
 277      56716A19 
 277      611441AA 
 277      124B18A4 
 278 0053 1D1C78A8 		.ascii	"\035\034x\250\235\236s\357\233a\036R\342$\357~\274w"
 278      9D9E73EF 
 278      9B611E52 
 278      E224EF7E 
 278      BC77
 279 0065 FEBF7BCF 		.ascii	"\376\277{\317\271\347\334Q\330\363\277\367\361\211;"
 279      B9E7DC51 
 279      D8F3BFF7 
 279      F1893B
 280 0074 640F3A03 		.ascii	"d\017:\003\376e/c~'\347J\330\313\014\227\332\235\317"
 280      FE652F63 
 280      7E27E74A 
 280      D8CB0C97 
 280      DA9DCF
 281 0087 0C8F029A 		.ascii	"\014\217\002\232|\255&\007\032\000\015\030\260}\\Q5"
 281      7CAD2607 
 281      1A000D18 
 281      B07D5C51 
 281      35
 282 0098 D8077FF1 		.ascii	"\330\007\177\361Y\016\221\321\205\230g\202\233\234e"
 282      590E91D1 
 282      85986782 
 282      9B9C65
 283 00a7 329C56DD 		.ascii	"2\234V\335\033\237Sh\012\234\246\035\261\336Q}\375i"
 283      1B9F5368 
 283      0A9CA61D 
 283      B1DE517D 
 283      FD69
 284 00b9 C32899F9 		.ascii	"\303(\231\371'\272\255\362\310I09g1\316\340{\360\301"
 284      27BAADF2 
 284      C8493039 
 284      6731CEE0 
 284      7BF0C1
 285 00cc 59F011F0 		.ascii	"Y\360\021\360\034\254'\333\313\247\036\3258\225<\240"
 285      1CAC27DB 
 285      CBA71ED5 
 285      38953CA0 
 286 00dc F1D558C9 		.ascii	"\361\325X\311\2347\357\024\352F\016Lw\271\215J#0\222"
 286      9C37EF14 
 286      EA460E4C 
 286      77B98D4A 
 286      233092
 287 00ef 48E49A5C 		.ascii	"H\344\232\\\201\037@!\375\353>x\325gy\204\202\277c\035"
 287      811F4021 
 287      FDEB3E78 
 287      D5677984 
ARM GAS  C:\Users\Luggi\AppData\Local\Temp\ccP9NNOM.s 			page 22


 287      82BF631D 
 288 0103 E7B8F29A 		.ascii	"\347\270\362\232\020\017\177c\226g\010\361\311\203\323"
 288      100F7F63 
 288      966708F1 
 288      C983D3
 289 0112 5A9AF4FC 		.ascii	"Z\232\364\374\212\322'\207\037Nz\225\215BZ\363m\264"
 289      8AD22787 
 289      1F4E7A95 
 289      8D425AF3 
 289      6DB4
 290 0124 E72529FD 		.ascii	"\347%)\375\302&\255_Q\372 r\374\230C\331$\244u\355\017"
 290      C226AD5F 
 290      51FA2072 
 290      FC9843D9 
 290      24A475ED 
 291 0139 0C979456 		.ascii	"\014\227\224V\330\244\215+Jg\003\317\356\271\365\200"
 291      D8A48D2B 
 291      4A6703CF 
 291      EEB9F580 
 292 0149 61189950 		.ascii	"a\030\231P\013yP\207O\003>M\220G\361\301\2604\203\016"
 292      0B795087 
 292      4F033E4D 
 292      9047F1C1 
 292      B034830E 
 293 015d 8CA9CBBF 		.ascii	"\214\251\313\2776\274\334i$\022\027\256}=\361\201#W"
 293      36BCDC69 
 293      241217AE 
 293      7D3DF181 
 293      2357
 294 016f 61F45965 		.ascii	"a\364Yed\24012q2\223\253.F\226n\032z\250\311\244f\015"
 294      64A03132 
 294      713293AB 
 294      2E46966E 
 294      1A7AA8C9 
 295 0186 3559D4F8 		.ascii	"5Y\324\370\260\321\326R\263\216\246\3314\312at2l\014"
 295      B0D1D652 
 295      B38EA6D9 
 295      34CA6174 
 295      326C0C
 296 0199 1F3AE671 		.ascii	"\037:\346q\234`\257\334\207P\374\340\277\013\233h7\363"
 296      9C60AFDC 
 296      8750FCE0 
 296      BF0B9B68 
 296      37F3
 297 01ab 5CC18D0F 		.ascii	"\\\301\215\017\036\030\352q\321\011\353}\255~C%_\242"
 297      1E18EA71 
 297      D109EB7D 
 297      AD7E4325 
 297      5FA2
 298 01bd 63B7FA9D 		.ascii	"c\267\372\235\342\225pm*\022\370#\243\032\216\371\003"
 298      E295706D 
 298      2A12F823 
 298      A31A8EF9 
 298      03
 299 01ce FECE1C93 		.ascii	"\376\316\034\223;\340\002\236u\013\2355\264B5\260\273"
 299      3BE0029E 
 299      750B9D35 
ARM GAS  C:\Users\Luggi\AppData\Local\Temp\ccP9NNOM.s 			page 23


 299      B44235B0 
 299      BB
 300 01df 5062BC27 		.ascii	"Pb\274'\334\303\275#\224\211EB\237\3135T$\\\354\252"
 300      DCC3BD23 
 300      94894542 
 300      9FCB3554 
 300      245CECAA 
 301 01f3 9DD205F0 		.ascii	"\235\322\005\360vr\215\305\311\343\017\365t\350\305"
 301      76728DC5 
 301      C9E30FF5 
 301      74E8C5
 302 0202 14B4CD0E 		.ascii	"\024\264\315\016\255#\250*\241=\026TC\302\341\023\376"
 302      AD23A82A 
 302      A13D1654 
 302      43C2E113 
 302      FE
 303 0213 764D4007 		.ascii	"vM@\007\222P\363\367\3123\266\235\376\230\202\266\333"
 303      9250F3F7 
 303      CA33B69D 
 303      FE9882B6 
 303      DB
 304 0224 A10D04D5 		.ascii	"\241\015\004\325\010:\323\330[\256\321\273e\236jvO\177"
 304      083AD3D8 
 304      5BAED1BB 
 304      659E6A76 
 304      4F7F
 305 0236 427D7A68 		.ascii	"B}zh\260\340\240\003\277\020af\211\220\356\226fw\353"
 305      B0E0A003 
 305      BF106166 
 305      8990EE96 
 305      6677EB
 306 0249 12122C49 		.ascii	"\022\022,I\351BY\334\334,]qJo\252\276;\032T\0058\016"
 306      E94259DC 
 306      DC2C5D71 
 306      4A6FAABE 
 306      3B1A5405 
 307 025f 0C7E96E4 		.ascii	"\014~\226\344 X\330t\3074\273c\227\021\213\024\031\237"
 307      2058D874 
 307      C734BB63 
 307      97118B14 
 307      199F
 308 0271 3F17DF91 		.ascii	"?\027\337\221T\027\212\272\007k\313D)\353\241F+@\207"
 308      54178ABA 
 308      076BCB44 
 308      29EBA146 
 308      2B4087
 309 0284 2AFA4634 		.ascii	"*\372F4\213\223M\234+)Ng2@\357\212\0005Q\200\\\222\372"
 309      8B934D9C 
 309      2B294E67 
 309      3240EF8A 
 309      00355180 
 310 029b 68315F52 		.ascii	"h1_R\3356\004\330\001W\011\200\276\315\351\322\330#"
 310      DD3604D8 
 310      01570980 
 310      BECDE9D2 
 310      D823
 311 02ad EDA3F3D1 		.ascii	"\355\243\363\321\220\203v\241n`\020Z\346\327\377\302"
ARM GAS  C:\Users\Luggi\AppData\Local\Temp\ccP9NNOM.s 			page 24


 311      908376A1 
 311      6E60105A 
 311      E6D7FFC2 
 312 02bd 7E115E79 		.ascii	"~\021^ydx\243\341dx\367\267E\006\004Lo\251\260\\:{\305"
 312      6478A3E1 
 312      6478F7B7 
 312      4506044C 
 312      6FA9B05C 
 313 02d4 3FE9B65C 		.ascii	"?\351\266\\\312\"\310\265\024\344\327\245\210\3431\217"
 313      CA22C8B5 
 313      14E4D7A5 
 313      88E3318F 
 314 02e4 A528CF2E 		.ascii	"\245(\317.\215\226\313\300\264&)\367\233O\327\253\351"
 314      8D96CBC0 
 314      B42629F7 
 314      9B4FD7AB 
 314      E9
 315 02f5 94AE1425 		.ascii	"\224\256\024%\234F\301\010?\265\"\234\271\332\366\257"
 315      9C46C108 
 315      3FB5229C 
 315      B9DAF6AF 
 316 0305 5BB15828 		.ascii	"[\261X(\233\342\322|\215\245\250\257\211yE4\260\324"
 316      9BE2D27C 
 316      8DA5A8AF 
 316      89794534 
 316      B0D4
 317 0317 BBD1F60E 		.ascii	"\273\321\366\016\004\006K?\261l\320 \\=\321,\362@\305"
 317      04064B3F 
 317      B16CD020 
 317      5C3DD12C 
 317      F240C5
 318 032a 34E80179 		.ascii	"4\350\001y\303\214cQ\205\275\312\020\004:\253\243\036"
 318      C38C6351 
 318      85BDCA10 
 318      043AABA3 
 318      1E
 319 033b 32A63D9F 		.ascii	"2\246=\237\0308T\317\367>1\366\033N\223;c\034o\027\210"
 319      183854CF 
 319      F73E31F6 
 319      1B4E933B 
 319      631C6F17 
 320 0350 C05E5B05 		.ascii	"\300^[\005+\370\356\006\370L\236!0*\353\316\027\230"
 320      2BF8EE06 
 320      F84C9E21 
 320      302AEBCE 
 320      1798
 321 0362 96DCD528 		.ascii	"\226\334\325(7%\245\277\352L\251\330\254\202{\351\225"
 321      3725A5BF 
 321      EA4CA9D8 
 321      AC827BE9 
 321      95
 322 0373 1412B745 		.ascii	"\024\022\267Ea5\365-T\247/\252%o\236\340\354\364\274"
 322      6135F52D 
 322      54A72FAA 
 322      256F9EE0 
 322      ECF4BC
 323 0386 F2DCC95B 		.ascii	"\362\334\311[\031\275\024\274>q\366\"\367\202M\217_"
ARM GAS  C:\Users\Luggi\AppData\Local\Temp\ccP9NNOM.s 			page 25


 323      19BD14BC 
 323      3E71F622 
 323      F7824D8F 
 323      5F
 324 0397 A438FB85 		.ascii	"\2448\373\205B\\<\301\331\307/R\214\267\205B\225k\304"
 324      425C3CC1 
 324      D9C72F52 
 324      8CB78542 
 324      956BC4
 325 03aa 538A55EA 		.ascii	"S\212U\352l@(4\253\"\022G@\236Y\226-y\300\236:\277\311"
 325      6C402834 
 325      AB221247 
 325      409E5996 
 325      2D79C09E 
 326 03c1 3428192E 		.ascii	"4(\031.\277a\245\201\017\025\224\030CV\221\254\305W"
 326      BF61A581 
 326      0F159418 
 326      435691AC 
 326      C557
 327 03d3 F43F75F4 		.ascii	"\364?u\364\253\363\342.\323\234\014\356$s\355\251e\264"
 327      ABF3E22E 
 327      D39C0CEE 
 327      2473EDA9 
 327      65B4
 328 03e5 CE96E660 		.ascii	"\316\226\346`O\362\273KkX[\312FEz!\346\210e\262\331"
 328      4FF2BB4B 
 328      6B585BCA 
 328      46457A21 
 328      E68865B2 
 329 03fa 30580639 		.ascii	"0X\0069\214\376\030\200\216\005\377\036^\371\260\350"
 329      8CFE1880 
 329      8E05FF1E 
 329      5EF9B0E8 
 330 040a B3A25DDB 		.ascii	"\263\242]\333v\027}\272\265\260x\317\256\355E[6\027"
 330      76177DBA 
 330      B5B078CF 
 330      AEED455B 
 330      3617
 331 041c 1617BCBD 		.ascii	"\026\027\274\275\245\240x\307\316\255\033\337\330\316"
 331      A5A078C7 
 331      CEAD1BDF 
 331      D8CE
 332 042a F4DD3B76 		.ascii	"\364\335;v\026~\274Avo\312\356-\015\273\202\217\376"
 332      167EBC41 
 332      766FCAEE 
 332      2D0DBB82 
 332      8FFE
 333 043c 03C8D4E0 		.ascii	"\003\310\324\340`"
 333      60
 334              		.text
 335              		.section	.gnu.lto_Comp_1_LoadTrim.d234976,"",%progbits
 336 0000 789C6551 		.ascii	"x\234eQ_(\244Q\024?\277{g\276\3712\036\344A\231'\245"
 336      5F28A451 
 336      143FBF7B 
 336      67BEF932 
 336      1EE44199 
 337 0016 496DDAF2 		.ascii	"Im\332\362\340]y\360\252\324>)+\346Aa\266\211g\367\033"
ARM GAS  C:\Users\Luggi\AppData\Local\Temp\ccP9NNOM.s 			page 26


 337      E05D79F0 
 337      AAD43E29 
 337      2BE64161 
 337      B68967F7 
 338 002b 138A0759 		.ascii	"\023\212\007Y#\355\346AV\353\377\214\177I\355\346\213"
 338      23EDE641 
 338      56EBFF8C 
 338      7F49EDE6 
 338      8B
 339 003c 17A55692 		.ascii	"\027\245V\222h\036(\206\310\013Q\314\003\366\234\231"
 339      681E2886 
 339      C80B51CC 
 339      03F69C99 
 340 004c 5636B7EE 		.ascii	"V6\267\356\275\347\234\316\357\317\271W\323\373\025"
 340      BDE79CCE 
 340      EFCFB957 
 340      D3FB15
 341 005b E0BD0DA2 		.ascii	"\340\275\015\242\017|C\023\324\340\037\"\307V\200\004"
 341      0F7C4313 
 341      D4E01F22 
 341      C7568004 
 342 006b 04EA52E8 		.ascii	"\004\352R\350\302\225\272U\030tgG\375e\223\306\230\233"
 342      C295BA55 
 342      18746747 
 342      FD6593C6 
 342      989B
 343 007d A1788F36 		.ascii	"\241x\2176\303\2373\212\350N\345\210\360\023e\334d\306"
 343      C39F338A 
 343      E84EE588 
 343      F01365DC 
 343      64C6
 344 008f 271279BA 		.ascii	"'\022y\272\024\304\361\316\351\343]\376\245\312(\024"
 344      14C4F1CE 
 344      E9E35DFE 
 344      A5CA2814 
 345 009f 48FAEDF0 		.ascii	"H\372\355\360\374^K\252\224\244S\353\311\362\340\204"
 345      FC5E4BAA 
 345      94A453EB 
 345      C9F2E084 
 346 00af 3151F777 		.ascii	"1Q\367w\322TqYc\012\232\3510\215\000f\020 .\021f\021"
 346      D2547159 
 346      630A9AE9 
 346      308D0066 
 346      10202E11 
 347 00c5 94EEDBD8 		.ascii	"\224\356\333\330\323\241\337\212\261xAN\022s\260\330"
 347      D3A1DF8A 
 347      B178414E 
 347      1273B0D8 
 348 00d5 37250A5D 		.ascii	"7%\012]\363\362\262|0\032\015\016h\033\020\200b\250"
 348      F3F2B27C 
 348      301A0D0E 
 348      681B1080 
 348      62A8
 349 00e7 C7CB87D7 		.ascii	"\307\313\207\327\222\210(\315\010\231\347\234\245\371"
 349      928828CD 
 349      0899E79C 
 349      A5F9
ARM GAS  C:\Users\Luggi\AppData\Local\Temp\ccP9NNOM.s 			page 27


 350 00f5 D629448F 		.ascii	"\326)D\217z/\372\267\374\302\362\240\324\203\002\245"
 350      7A2FFAB7 
 350      FCC2F2A0 
 350      D48302A5 
 351 0105 B039345E 		.ascii	"\26094^$\005\226\353[\333\331\367\211Wke\3001\036qp"
 351      240596EB 
 351      5BDBD9F7 
 351      89576B65 
 351      C0311E71 
 352 011a 92DEDDB3 		.ascii	"\222\336\335\263\263%\312\332\337p\256\375c\370\356"
 352      B325CADA 
 352      DF70AEFD 
 352      63F8EE
 353 0129 C41CB738 		.ascii	"\304\034\2678\243|\230g\327\013\354\232\220\300\030"
 353      A37C9867 
 353      D70BEC9A 
 353      90C018
 354 0138 989419BB 		.ascii	"\230\224\031\273\217{\236_U\274\254\302\300\037\361"
 354      8F7B9E5F 
 354      55BCACC2 
 354      C01FF1
 355 0147 9139AFF0 		.ascii	"\2219\257\360\3306!\311\0001\343\313\265H\327\377F\236"
 355      D83621C9 
 355      0031E3CB 
 355      B548D7FF 
 355      469E
 356 0159 7E9DF666 		.ascii	"~\235\366f\337\320Z\375g$\2654\271\340y\253\274\370"
 356      DFD05AFD 
 356      6724B534 
 356      B9E079AB 
 356      BCF8
 357 016b AABC9455 		.ascii	"\252\274\224U\266\350\030\216\373\365\314\026\016\371"
 357      B6E8188E 
 357      FBF5CC16 
 357      0EF9
 358 0179 9B348FC7 		.ascii	"\2334\217\307c\363#\224\324\204\332C\221\306\216PsC"
 358      63F32394 
 358      D484DA43 
 358      91C68E50 
 358      7343
 359 018b 5DB833D2 		.ascii	"]\2703\322\024\252\257\255\013WW\326W\207\333\2764T"
 359      14AAAFAD 
 359      0B5757D6 
 359      5787DBBE 
 359      3454
 360 019d 7C6C225F 		.ascii	"|l\"_G\244\245\355Sc\353_\030\216\257\202"
 360      47A4A5ED 
 360      5363EB5F 
 360      188EAF82 
 361              		.text
 362              		.section	.gnu.lto_Comp_1_PwrDwnOverrideEnable.d234976,"",%progbits
 363 0000 789C6366 		.ascii	"x\234cf\300\004R@\254\311\310\300\240\004\244\031\231"
 363      C0045240 
 363      ACC9C8C0 
 363      A004A419 
 363      99
 364 0011 19189926 		.ascii	"\031\030\231&\234c`h\344`bd\0041\030\030\031\352\231"
ARM GAS  C:\Users\Luggi\AppData\Local\Temp\ccP9NNOM.s 			page 28


 364      9C636068 
 364      E4606264 
 364      04311818 
 364      19EA99
 365 0024 18EB195F 		.ascii	"\030\353\031_2}db\234p`\365\014n\365\245\015\015\015"
 365      327D6462 
 365      9C7060F5 
 365      0C6EF5A5 
 365      0D0D0D
 366 0037 1F2ECD6D 		.ascii	"\037.\315m\343m\230\222\360\223\211\201\3413\023\304"
 366      E36D9892 
 366      F0938981 
 366      E13313C4 
 367 0047 20C6E58C 		.ascii	" \306\345\214\352\014@U\037[\376^\347fk\001\252\022"
 367      EA0C4055 
 367      1F5BFE5E 
 367      E7666B01 
 367      AA12
 368 0059 80C831AE 		.ascii	"\200\3101\256`d\003Z\300\260^\350@\303\377\377\233\277"
 368      6064035A 
 368      C0B05EE8 
 368      40C3FFFF 
 368      9BBF
 369 006b CFE852ED 		.ascii	"\317\350R\355gfeb\370\311\004\264\017H00<\001*\003\331"
 369      67666562 
 369      F8C904B4 
 369      0F483030 
 369      3C012A03 
 370 0080 F6948909 		.ascii	"\366\224\211\011D3\337b<\364\255\353X\377c.\220\326"
 370      4433DF62 
 370      3CF4ADEB 
 370      58FF632E 
 370      90D6
 371 0092 EF4C20BB 		.ascii	"\357L \273O\336X\335\306\363\202\351'\023\323\241\015"
 371      4FDE58DD 
 371      C6F382E9 
 371      2713D3A1 
 371      0D
 372 00a3 8D0D2C20 		.ascii	"\215\015, \213\356?9\177\221\003,\304\000\342\366\365"
 372      8BEE3F39 
 372      7F91032C 
 372      C400E2F6 
 372      F5
 373 00b4 5C78C03A 		.ascii	"\\x\300:\227qvc\013\343O&f\306\225\214R\214\253\030"
 373      97717663 
 373      0BE34F26 
 373      66C6958C 
 373      528CAB18 
 374 00c8 81BE635C 		.ascii	"\201\276c\\\3158\227\221\341\026c\363\0276\210q\314"
 374      CD389791 
 374      E11663F3 
 374      17368871 
 374      CC
 375 00d9 1013774D 		.ascii	"\020\023wM:1\203\015\244\235\221\205\201q\015P%\320"
 375      3A31830D 
 375      A49D9185 
 375      81710D50 
ARM GAS  C:\Users\Luggi\AppData\Local\Temp\ccP9NNOM.s 			page 29


 375      25D0
 376 00eb D6498C20 		.ascii	"\326I\214 %\370\014[\0134\014h\004\303=\306\306\003"
 376      25F80C5B 
 376      0B340C68 
 376      04C33DC6 
 376      C603
 377 00fd 9F1F6B80 		.ascii	"\237\037k\200\224\203<\377\004\350\015\240\313\201."
 377      94833CFF 
 377      04E80DA0 
 377      CB812E
 378 010c 51704FCD 		.ascii	"QpO\315K-J,IM\211\017\316/-JN\215\011\010\316w6\215"
 378      4B2D4A2C 
 378      494D890F 
 378      CE2F2D4A 
 378      4E8D0908 
 379 0124 71CECF2D 		.ascii	"q\316\317-\2107\324Kf\000\000\377Ss\255"
 379      8837D44B 
 379      660000FF 
 379      5373AD
 380              		.text
 381              		.section	.gnu.lto_Comp_1_PwrDwnOverrideDisable.d234976,"",%progbits
 382 0000 789C6366 		.ascii	"x\234cf\300\004R@\254\305\310\300\240\004\244\031\231"
 382      C0045240 
 382      ACC5C8C0 
 382      A004A419 
 382      99
 383 0011 19189926 		.ascii	"\031\030\231&\234c`h\344`bd\0041\030\030\031\352\231"
 383      9C636068 
 383      E4606264 
 383      04311818 
 383      19EA99
 384 0024 18EB195F 		.ascii	"\030\353\031_2}db\234p`\365\014n\365\245\015\015\015"
 384      327D6462 
 384      9C7060F5 
 384      0C6EF5A5 
 384      0D0D0D
 385 0037 1F366D6E 		.ascii	"\0376mn\343m\230\222\360\223\211\201\3413\023\304 \306"
 385      E36D9892 
 385      F0938981 
 385      E13313C4 
 385      20C6
 386 0049 E58CEA0C 		.ascii	"\345\214\352\014@U\037[\376^\347fk\001\252\022\200\310"
 386      40551F5B 
 386      FE5EE766 
 386      6B01AA12 
 386      80C8
 387 005b 31AE6064 		.ascii	"1\256`d\003Z\300\260^\350@\303\377\377\233\317\315\354"
 387      035AC0B0 
 387      5EE840C3 
 387      FFFF9BCF 
 387      CDEC
 388 006d B29DC9CC 		.ascii	"\262\235\311\314\312\304\360\223\011h\037\220``x\002"
 388      CAC4F093 
 388      09681F90 
 388      60607802 
 389 007d 5406B2ED 		.ascii	"T\006\262\355)\023\023\210f\276\305x\350[\327\267\231"
 389      29131388 
ARM GAS  C:\Users\Luggi\AppData\Local\Temp\ccP9NNOM.s 			page 30


 389      66BEC578 
 389      E85BD7B7 
 389      99
 390 008e 8FB9405A 		.ascii	"\217\271@Z\2773\201\354>ycu\033\317\013\246\237LL\207"
 390      BF3381EC 
 390      3E796375 
 390      1BCF0BA6 
 390      9F4C4C87 
 391 00a2 363436B0 		.ascii	"646\260\200,\272\377\344\374E\016\260\020\003\210\333"
 391      802CBAFF 
 391      E4FC450E 
 391      B0100388 
 391      DB
 392 00b3 D773E101 		.ascii	"\327s\341\001\353\\\306\331\215-\214?\231\230\031W2"
 392      EB5CC6D9 
 392      8D2D8C3F 
 392      99981957 
 392      32
 393 00c4 4A31AE62 		.ascii	"J1\256b\004\372\216q5\343\\F\206[\214\315?\330 \306"
 393      04FA8E71 
 393      35E35C46 
 393      865B8CCD 
 393      3FD820C6 
 394 00d8 31434C5C 		.ascii	"1CL\\~\364\371A^\220v\346\337\214\014\214k\200J\201"
 394      7EF4F941 
 394      5E9076E6 
 394      DF8C0C8C 
 394      6B804A81 
 395 00ec D64E6204 		.ascii	"\326Nb\004\251\301g\332Z\240i@3\030\35616\036\330\377"
 395      A9C167DA 
 395      5AA06940 
 395      3318EE31 
 395      361ED8FF 
 396 0100 4C03A41C 		.ascii	"L\003\244\034\344\373'@\177\000\235\016t\212\202{j^"
 396      E4FB2740 
 396      7F009D0E 
 396      748A827B 
 396      6A5E
 397 0112 6A516249 		.ascii	"jQbIjJ|p~iQrjL@p\276\263i\214s~nA\274\241^2\003\000"
 397      6A4A7C70 
 397      7E695172 
 397      6A4C4070 
 397      BEB3698C 
 398 0130 09627514 		.ascii	"\011bu\024"
 399              		.text
 400              		.section	.gnu.lto_.symbol_nodes.d234976,"",%progbits
 401 0000 789C55CA 		.ascii	"x\234U\312;\012\302P\020\205\34133\367&7\217%\270\014"
 401      3B0AC250 
 401      1085E133 
 401      33F72637 
 401      8F25B80C 
 402 0014 F777520A 		.ascii	"\367wR\012\202\330h\035\203Kp\0056\026Bz;\015\3422\304"
 402      82D8681D 
 402      834B7005 
 402      3616427A 
 402      3B0DE232 
 403 0029 842064A6 		.ascii	"\204 d\246\371\371\016c\000D0\237\346\004\366=@\342"
ARM GAS  C:\Users\Luggi\AppData\Local\Temp\ccP9NNOM.s 			page 31


 403      F9F90E63 
 403      0044309F 
 403      E604F63D 
 403      40E2
 404 003b D06E6AA8 		.ascii	"\320nj\250R\376\303\261M\320@u\2164gap6\306\245#pRB"
 404      52FEC3B1 
 404      4DD04075 
 404      8E346761 
 404      7036C6A5 
 405 0053 3366EE2D 		.ascii	"3f\356-1w.\230\234K\026\316\025\313\245\245f5\033M\223"
 405      31772E98 
 405      9C4B16CE 
 405      15CBA5A5 
 405      66351B4D 
 406 0068 60A871DE 		.ascii	"`\250q\336}\036\321\202\241{~\305b\300pY[\024t\257\221"
 406      7D1ED182 
 406      A17B7EC5 
 406      62C07059 
 406      5B1474AF 
 407 007d 09E8EE37 		.ascii	"\011\350\3567\233z\335\276WS\207\261\370\001(\210C\331"
 407      9B7ADDBE 
 407      575387B1 
 407      F8012888 
 407      43D9
 408              		.text
 409              		.section	.gnu.lto_.refs.d234976,"",%progbits
 410 0000 789C6366 		.ascii	"x\234cf``\340d\200\000&V\0066FF6\026\006\000\001n\000"
 410      6060E064 
 410      80002656 
 410      06364646 
 410      36160600 
 411 0017 26       		.ascii	"&"
 412              		.text
 413              		.section	.gnu.lto_.decls.d234976,"",%progbits
 414 0000 789C8555 		.ascii	"x\234\205UkLTG\024\236\271\263<vY\300\376\301\206\232"
 414      6B4C5447 
 414      149EB9B3 
 414      3C7659C0 
 414      FEC1869A 
 415 0014 8831316D 		.ascii	"\21011mbLm\322\306\177\332`\243mLKB\355\217jjV\271\251"
 415      624C6DD2 
 415      C67FDA60 
 415      A36D4C4B 
 415      42ED8F6A 
 416 002c 5805B2AC 		.ascii	"X\005\262\2545\374\352\024|P\305\212Z\002R\213h\361"
 416      35FCEA14 
 416      7C50C58A 
 416      5A02528B 
 416      68F1
 417 003e 85BA2CAB 		.ascii	"\205\272,\253H\027\020\026\220\367\033VT|-\257\326\206"
 417      48171016 
 417      90F71B56 
 417      547C2DAF 
 417      D686
 418 0050 B66ED55A 		.ascii	"\266n\325Z\032\210\267gf\356e\357\322\245\334\344\300"
 418      1A88B767 
 418      66EE65EF 
ARM GAS  C:\Users\Luggi\AppData\Local\Temp\ccP9NNOM.s 			page 32


 418      D2A5DCE4 
 418      C0
 419 0061 9DB9E77B 		.ascii	"\235\271\347{\2343\207\201 \204\026\021\204\024x\"\302"
 419      9C338781 
 419      20841611 
 419      84147822 
 419      C2
 420 0072 11DA8811 		.ascii	"\021\332\210\0212\303^\002\004l\243\030\010;\204\023"
 420      32C35E02 
 420      046CA318 
 420      083B8413 
 421 0082 89877D73 		.ascii	"\211\207}sA\324@\324B\270!\032 nB\264@\264CtC\364B\364"
 421      41D440D4 
 421      42B8211A 
 421      206E42B4 
 421      40B44374 
 422 009a 43782080 		.ascii	"Cx \200\022\335F\201\017\3430\252:NUg=\304}\210!\210"
 422      12DD4681 
 422      0FE330AA 
 422      3A4E5567 
 422      3DC47D88 
 423 00b0 07AA6EA7 		.ascii	"\007\252n\247\232/\251\030\017\372\357\303\274\030T"
 423      9A2FA918 
 423      0FFAEFC3 
 423      BC1854
 424 00bf AE181D07 		.ascii	"\256\030\035\007R\265k\202`j\347\301\324\006\301\260"
 424      52B56B82 
 424      606AE7C1 
 424      D406C1B0 
 425 00cf 5AC36779 		.ascii	"Z\303gy\366\352\260#\020\303:\016w\020\016\326\2530"
 425      F6EAB023 
 425      10C33A0E 
 425      77100ED6 
 425      AB30
 426 00e1 9DEEA8CA 		.ascii	"\235\356\250\312U9\313\203\244\346\006\343`\275\016"
 426      5539CB83 
 426      A4E606E3 
 426      60BD0E
 427 00f0 D5718CA9 		.ascii	"\325q\214\251\034\343\020Uj\016Q\363\032\324\372\203"
 427      1CE31055 
 427      6A0E51F3 
 427      1AD4FA83 
 428 0100 9D418BDA 		.ascii	"\235A\213\332\003\255\226\331=h\011\242\315\316\327"
 428      03AD96D9 
 428      3D6809A2 
 428      CDCED7
 429 010f 041185C4 		.ascii	"\004\021\205\304,\330u\3708\035\307\250Z\223V\013\303"
 429      2CD875F8 
 429      381DC7A8 
 429      5A93560B 
 429      C3
 430 0120 B982F0B1 		.ascii	"\271\202\360\261Y\321\346@\3179\233\357\003\235\257"
 430      59D1E640 
 430      CF399BEF 
 430      039DAF
 431 012f EE203CBD 		.ascii	"\356 <\275\350\377\317\2637\010\246\177\036L\177\020"
 431      E8FFCFB3 
ARM GAS  C:\Users\Luggi\AppData\Local\Temp\ccP9NNOM.s 			page 33


 431      3708A67F 
 431      1E4C7F10 
 432 013f CC9F12EE 		.ascii	"\314\237\022\356\030\231|f~,\341(\323\002\266,\274="
 432      18997C66 
 432      7E2CE128 
 432      D302B62C 
 432      BC3D
 433 0151 FE9CC0D2 		.ascii	"\376\234\300\322l\222\330\362\207\247\177\324\030\211"
 433      6C92D8F2 
 433      87A77FD4 
 433      1889
 434 015f 84D9FB8F 		.ascii	"\204\331\373\217\005\303\036\323\362RJi6u\267b?\305"
 434      05C31ED3 
 434      F2524A69 
 434      3675B762 
 434      3FC5
 435 0171 D7E7AA73 		.ascii	"\327\347\252s\302\000\023g\342\313\374\211\311k\341"
 435      C2001367 
 435      E2CBFC89 
 435      C96BE1
 436 0180 7CA92804 		.ascii	"|\251(\0046\244s\275\177\027F\341e\246\022\200\372."
 436      36A473BD 
 436      7F1746E1 
 436      65A61280 
 436      FA2E
 437 0192 0C0E2DA2 		.ascii	"\014\016-\242\324\200\355\330\204/b\202K\361rf\220a"
 437      D480EDD8 
 437      842F6282 
 437      4BF17266 
 437      9061
 438 01a4 D9934D69 		.ascii	"\331\223Mi&\245Y4\344u\204\317\343X|\001\307\"|\005"
 438      26A55934 
 438      E47584CF 
 438      E3587C01 
 438      C7227C05 
 439 01b8 2F83049E 		.ascii	"/\203\004\236\212/\301\346e\266\011\004 6Xw\340@8y\013"
 439      8A2FC1E6 
 439      65B60904 
 439      20365877 
 439      E0403879 
 440 01cd EB7DC408 		.ascii	"\353}\304\010\037\337v\024\326\023\276T\330g\351\356"
 440      1FDF7614 
 440      D613BE54 
 440      D867E9EE 
 441 01dd DDEFFE21 		.ascii	"\335\357\376!\330\264\214K\370\216Q\362*\302\313c\361"
 441      D8B48C4B 
 441      F88E51F2 
 441      2AC2CB63 
 441      F1
 442 01ee 1BC07515 		.ascii	"\033\300u\025\004bT\001\007\010\224\203\000s[\\\032"
 442      04625401 
 442      07089483 
 442      00735B5C 
 442      1A
 443 01ff 89B1139C 		.ascii	"\211\261\023\234\226\371\235\306\250N\331>\250\270\354"
 443      96F99DC6 
 443      A84ED93E 
ARM GAS  C:\Users\Luggi\AppData\Local\Temp\ccP9NNOM.s 			page 34


 443      A8B8EC
 444 020e CFBB2278 		.ascii	"\317\273\"x\377\342\230h\325\261\326\202P\336?\003["
 444      FFE29868 
 444      D5B1D682 
 444      50DE3F03 
 444      5B
 445 021f E6EEABCF 		.ascii	"\346\356\253\3175\030$\221\2157\361\275\277\224\341"
 445      35182491 
 445      8D37F1BD 
 445      BF94E1
 446 022e B3D2C23C 		.ascii	"\263\322\302<\240\247\271Yt\201\001'\304\340k Z\001"
 446      A0A7B959 
 446      74810127 
 446      C4E06B20 
 446      5A01
 447 0240 A20857E2 		.ascii	"\242\010W\342\205\360\363:6\210\336\036\257-q\206\220"
 447      85F0F33A 
 447      3688DE1E 
 447      AF2D7186 
 447      90
 448 0251 55BCBEE9 		.ascii	"U\274\276\351\274\237\333\"\343\212\250\333\341+l\264"
 448      BC9FDB22 
 448      E38AA8DB 
 448      E12B6CB4 
 449 0261 EF389A45 		.ascii	"\3578\232EK\250WQ\026s\020\376i\306\"b\357\302\243\013"
 449      4BA85751 
 449      167310FE 
 449      69C62262 
 449      EFC2A30B 
 450 0275 C701B07A 		.ascii	"\307\001\260zj\304c\230S\261\212+nR\005\353\256\347"
 450      6AC46398 
 450      53B18A2B 
 450      6E5205EB 
 450      AEE7
 451 0287 9C34912F 		.ascii	"\2344\221/\270`[{\336x\030\010z\035\336\216F\331\275"
 451      B8605B7B 
 451      DE781808 
 451      7A1DDE8E 
 451      46D9BD
 452 029a 974EB313 		.ascii	"\227N\263\023e\000\\\255S\253\326\324j\270\332\321\261"
 452      65005CAD 
 452      53ABD6D4 
 452      6AB8DAD1 
 452      B1
 453 02ab AC4233C9 		.ascii	"\254B3\311\340\014\373\2364\2652\313\305\216\342\256"
 453      E00CFB9E 
 453      34B532CB 
 453      C58EE2AE 
 454 02bb B3A1ADD4 		.ascii	"\263\241\255\324\255(\2539\376\206\016\177C\303\327"
 454      AD28AB39 
 454      FE860E7F 
 454      43C3D7
 455 02ca 727C8373 		.ascii	"r|\203s\364\206\211\354\303\234\300}\250\302\035\315"
 455      F48689EC 
 455      C39CC07D 
 455      A8C21DCD 
 456 02da 2D141F3E 		.ascii	"-\024\037>\257\021\260r\353t\004u\032\201\233\023L\347"
ARM GAS  C:\Users\Luggi\AppData\Local\Temp\ccP9NNOM.s 			page 35


 456      AF11B072 
 456      EB740475 
 456      1A819B13 
 456      4CE7
 457 02ec 799A2349 		.ascii	"y\232#I\236 \270\364\344T\226Q\020L8\351\032Q\003\267"
 457      9E20B8F4 
 457      E4549651 
 457      104C38E9 
 457      1A5103B7 
 458 0300 50AF63A8 		.ascii	"P\257c\250\327\030\0328\303!7]MN\013\202\246\242\016"
 458      D7181A38 
 458      C321375D 
 458      4D4E0B82 
 458      A6A20E
 459 0313 25429450 		.ascii	"%B\224P\020PB\243\016\337\250\341or\3747{\035D\337o"
 459      105042A3 
 459      0EDFA8E1 
 459      6F72FC37 
 459      7B1D44DF 
 460 0328 76F8FE86 		.ascii	"v\370\376\2067\0054<\347D\363##\261\013\261\362\316"
 460      3705343C 
 460      E744F323 
 460      23B10BB1 
 460      F2CE
 461 033a AB031217 		.ascii	"\253\003\022\027\363N\375\342\3578 p\263N\256Y\223k"
 461      F34EFDE2 
 461      EF382070 
 461      B34EAE59 
 461      936B
 462 034c E1725323 		.ascii	"\341rS#\003\256\200\211\262\007\350\265\006\350\335"
 462      03AE8089 
 462      B207E8B5 
 462      06E8DD
 463 035b EA3F3C81 		.ascii	"\352?<\201\211[\350=s\226U\030\204\236r\270\331LEy\034"
 463      895BE83D 
 463      73965518 
 463      849E72B8 
 463      D94C4579 
 464 0370 82DB7482 		.ascii	"\202\333t\202m\232`;\027<\325\362\333\255h>\326\366"
 464      6D9A603B 
 464      173CD5F2 
 464      DBAD683E 
 464      D6F6
 465 0382 99B176D4 		.ascii	"\231\261v\324\331\233\"\346\034\262N\356\241C\033\353"
 465      D99B22E6 
 465      1CB24EEE 
 465      A1431BEB 
 466 0392 B2AABE92 		.ascii	"\262\252\276\222H\322#LLW\237l\014\023&.\226\337\361"
 466      48D2234C 
 466      4C579F6C 
 466      0C13262E 
 466      96DFF1
 467 03a5 9B000CEE 		.ascii	"\233\000\014\356\322\231\350\322Lts\023\225\327\217"
 467      D299E8D2 
 467      4C747313 
 467      95D78F
 468 03b4 9548E491 		.ascii	"\225H\344\221\340p\270:\253\242\005\307\357\345\333"
ARM GAS  C:\Users\Luggi\AppData\Local\Temp\ccP9NNOM.s 			page 36


 468      E070B83A 
 468      ABA205C7 
 468      EFE5DB
 469 03c3 4FD0E24C 		.ascii	"O\320\342L\372R\201\277{~R=:\222\036\215\244\227\223"
 469      FA5281BF 
 469      7B7E523D 
 469      3A921E8D 
 469      A49793
 470 03d6 E48C9C99 		.ascii	"\344\214\234\231\210\"S\202$\277\274\377\241I\034\365"
 470      88225382 
 470      24BFBCFF 
 470      A1491CF5 
 471 03e6 F7579302 		.ascii	"\367W\223\002\346\275OG\321\247Q\364s\212\343\303\336"
 471      E6BD4F47 
 471      D1A751F4 
 471      738AE3C3 
 471      DE
 472 03f7 C2105220 		.ascii	"\302\020R .\311\351\006WS\010\0337\352k\377u\352\315"
 472      2EC9E906 
 472      5753081B 
 472      37EA6BFF 
 472      75EACD
 473 040a 13F4B466 		.ascii	"\023\364\264f\204U3\240c\031\320X<\234\345\310\305\274"
 473      845533A0 
 473      6319D058 
 473      3C9CE5C8 
 473      C5BC
 474 041c FD126910 		.ascii	"\375\022i\020,/\3579*\331-\002s\303\333u \367\312\013"
 474      2C2FEF39 
 474      2AD92D02 
 474      73C3DB75 
 474      20F7CA0B 
 475 0430 69E9695A 		.ascii	"i\351iZ|\306W\230\325A\362\201\236R6\207|\262n\011V"
 475      7CC65798 
 475      D541F281 
 475      9E523687 
 475      7CB26E09 
 476 0445 F532436C 		.ascii	"\3652Cl\015?\007\331%y\033/\0058\315?T\022N\372\004"
 476      0D3F07D9 
 476      25791B2F 
 476      0538CD3F 
 476      54124EFA 
 477 045a 77C58B83 		.ascii	"w\305\213\203\256HS6\273d\347\277\004\341\332\364t\037"
 477      AE485336 
 477      BB64E7BF 
 477      04E1DAF4 
 477      741F
 478 046c 1C348A6B 		.ascii	"\0344\212ks6\342\336\034\327\246\357\302\344\350\372"
 478      7336E2DE 
 478      1CD7A6EF 
 478      C2E4E8FA 
 479 047c BD740D1E 		.ascii	"\275t\015\036\002ww\374W\347]l\232\371\247\341\351\310"
 479      027777FC 
 479      57E75D6C 
 479      9AF9A7E1 
 479      E9C8
 480 048e BC47CC07 		.ascii	"\274G\314\007\331]\014\343b\\\317s\375\363r\037\233"
ARM GAS  C:\Users\Luggi\AppData\Local\Temp\ccP9NNOM.s 			page 37


 480      D95D0CE3 
 480      625CCF73 
 480      FDF3721F 
 480      9B
 481 049f 7973E037 		.ascii	"ys\3407\273\345\333\237\366\204\351\223Y3\375\311\017"
 481      BBE5DB9F 
 481      F684E993 
 481      5933FDC9 
 481      0F
 482 04b0 D4E4072C 		.ascii	"\324\344\007,\231\330\373\352\212$\034\033k*\200\177"
 482      99D8FBEA 
 482      8A241C1B 
 482      6B2A807F 
 483 04c0 54938BB1 		.ascii	"T\223\213\261\027T\331\253\373\261\242|\245\210\347"
 483      1754D9AB 
 483      FBB1A27C 
 483      A588E7
 484 04cf 4818DFCE 		.ascii	"H\030\337\316f\323\352\313\324\325\204\370>\302\217"
 484      66D3EACB 
 484      D4D584F8 
 484      3EC28F
 485 04de 80FC21EB 		.ascii	"\200\374!\353\240\227\337\362\303\271\3155F\255i\331"
 485      A097DFF2 
 485      C3B9CD35 
 485      46AD69D9 
 486 04ee F3B400F2 		.ascii	"\363\264\000\362\263\366\237l\016\327\033\036\016\250"
 486      B3F69F6C 
 486      0ED71B1E 
 486      0EA8
 487 04fc 6E44353C 		.ascii	"nD5<\302\253+r\014-\321\347V\006\0247\252\346\216\362"
 487      C2AB2B72 
 487      0C2DD1E7 
 487      56061437 
 487      AAE68EF2 
 488 0510 DC3E9FF2 		.ascii	"\334>\237\362\231>7\360f\031Ss\307xn\331\213\336\322"
 488      993E37F0 
 488      66195373 
 488      C7786ED9 
 488      8BDED2
 489 0523 087D7255 		.ascii	"\010}rU\000\36186k\007\003\257(twr\212m\345;\241\353"
 489      00F13836 
 489      6B0703AF 
 489      28747772 
 489      8A6DE53B 
 490 0539 3EDC1817 		.ascii	">\334\030\027\217\226\254\223Sd\253\305&'mIL\335m\335"
 490      8F96AC93 
 490      5364ABC5 
 490      26276D49 
 490      4CDD6DDD 
 491 054d 266F4E48 		.ascii	"&oNHL\215\177{\363\266\014[F\232\234\276b;\012a\371"
 491      4C8D7F7B 
 491      F3B60C5B 
 491      469A9CBE 
 491      623B0A61 
 492 0562 AB5E894F 		.ascii	"\253^\211O\335\225\266e\345\026\2335y\327\273I;v\247"
 492      DD95B665 
 492      E5169B35 
ARM GAS  C:\Users\Luggi\AppData\Local\Temp\ccP9NNOM.s 			page 38


 492      79D7BB49 
 492      3B76A7
 493 0575 DBE2E640 		.ascii	"\333\342\346@\212\304\025\333P\244\012y/\305\262u\247"
 493      8AC415DB 
 493      50A40A79 
 493      2FC5B275 
 493      A7
 494 0586 1CA1AE12 		.ascii	"\034\241\256\022m\251i\321\332\273lKL\223\345$\355\333"
 494      6DA969D1 
 494      DABB6C4B 
 494      4C93E524 
 494      EDDB
 495 0598 FB29C936 		.ascii	"\373)\3116\363L\236\305j\323T\327\3116\366f\261\312"
 495      F34C9EC5 
 495      6AD354D7 
 495      C936F666 
 495      B1CA
 496 05aa 51EACEA7 		.ascii	"Q\352\316\247\26255\336\262Sc\332\220jI\372\030\254"
 496      B23535DE 
 496      B25363DA 
 496      906A49FA 
 496      18AC
 497 05bc BDA6AE13 		.ascii	"\275\246\256\023\366X\327\356I\371\350K\331jMN\222\205"
 497      F658D7EE 
 497      49F9E84B 
 497      D96A4D4E 
 497      9285
 498 05ce 834541BF 		.ascii	"\203EA\277\255MNg\037\215\361\031k\345\235\226\214\215"
 498      AD4D4E67 
 498      1F8DF119 
 498      6BE59D96 
 498      8C8D
 499 05e0 E98BE7AA 		.ascii	"\351\213\347\252+cC\362V\350\207\346 \031\314~b\261"
 499      2B6343F2 
 499      56E887E6 
 499      2019CC7E 
 499      62B1
 500 05f2 1AACF2E7 		.ascii	"\032\254\362\347\253\376\005\251LB\207"
 500      ABFE05A9 
 500      4C4287
 501              		.text
 502              		.section	.gnu.lto_.symtab.d234976,"",%progbits
 503 0000 436F6D70 		.ascii	"Comp_1_Enable\000\000\000\000\000\000\000\000\000\000"
 503      5F315F45 
 503      6E61626C 
 503      65000000 
 503      00000000 
 504 0017 0000BC00 		.ascii	"\000\000\274\000\000\000Comp_1_Stop\000\000\000\000"
 504      0000436F 
 504      6D705F31 
 504      5F53746F 
 504      70000000 
 505 002c 00000000 		.ascii	"\000\000\000\000\000\000\000\000\276\000\000\000Com"
 505      00000000 
 505      BE000000 
 505      436F6D
 506 003b 705F315F 		.ascii	"p_1_SetSpeed\000\000\000\000\000\000\000\000\000\000"
ARM GAS  C:\Users\Luggi\AppData\Local\Temp\ccP9NNOM.s 			page 39


 506      53657453 
 506      70656564 
 506      00000000 
 506      00000000 
 507 0051 0000C000 		.ascii	"\000\000\300\000\000\000Comp_1_Init\000\000\000\000"
 507      0000436F 
 507      6D705F31 
 507      5F496E69 
 507      74000000 
 508 0066 00000000 		.ascii	"\000\000\000\000\000\000\000\000\302\000\000\000Com"
 508      00000000 
 508      C2000000 
 508      436F6D
 509 0075 705F315F 		.ascii	"p_1_Start\000\000\000\000\000\000\000\000\000\000\000"
 509      53746172 
 509      74000000 
 509      00000000 
 509      00000000 
 510 0089 00C40000 		.ascii	"\000\304\000\000\000Comp_1_initVar\000\000\000\000\000"
 510      00436F6D 
 510      705F315F 
 510      696E6974 
 510      56617200 
 511 00a1 00000000 		.ascii	"\000\000\000\000\000\000\000\327\000\000\000Comp_1_"
 511      000000D7 
 511      00000043 
 511      6F6D705F 
 511      315F
 512 00b3 47657443 		.ascii	"GetCompare\000\000\000\000\000\000\000\000\000\000\000"
 512      6F6D7061 
 512      72650000 
 512      00000000 
 512      00000000 
 513 00c8 00C70000 		.ascii	"\000\307\000\000\000Comp_1_ZeroCal\000\000\000\000\000"
 513      00436F6D 
 513      705F315F 
 513      5A65726F 
 513      43616C00 
 514 00e0 00000000 		.ascii	"\000\000\000\000\000\000\000\312\000\000\000Comp_1_"
 514      000000CA 
 514      00000043 
 514      6F6D705F 
 514      315F
 515 00f2 4C6F6164 		.ascii	"LoadTrim\000\000\000\000\000\000\000\000\000\000\000"
 515      5472696D 
 515      00000000 
 515      00000000 
 515      000000
 516 0105 00CE0000 		.ascii	"\000\316\000\000\000Comp_1_PwrDwnOverrideEnable\000"
 516      00436F6D 
 516      705F315F 
 516      50777244 
 516      776E4F76 
 517 0126 00000000 		.ascii	"\000\000\000\000\000\000\000\000\000\000\000\320\000"
 517      00000000 
 517      000000D0 
 517      00
ARM GAS  C:\Users\Luggi\AppData\Local\Temp\ccP9NNOM.s 			page 40


 518 0133 0000436F 		.ascii	"\000\000Comp_1_PwrDwnOverrideDisable\000\000\000\000"
 518      6D705F31 
 518      5F507772 
 518      44776E4F 
 518      76657272 
 519 0155 00000000 		.ascii	"\000\000\000\000\000\000\000\000\322\000\000\000CyD"
 519      00000000 
 519      D2000000 
 519      437944
 520 0164 656C6179 		.ascii	"elayUs\000\000\002\000\000\000\000\000\000\000\000\000"
 520      55730000 
 520      02000000 
 520      00000000 
 520      0000
 521 0176 D4000000 		.ascii	"\324\000\000\000"
 522              		.text
 523              		.section	.gnu.lto_.opts,"",%progbits
 524 0000 272D666E 		.ascii	"'-fno-trapv' '-fno-strict-overflow' '-mcpu=cortex-m"
 524      6F2D7472 
 524      61707627 
 524      20272D66 
 524      6E6F2D73 
 525 0033 33272027 		.ascii	"3' '-mthumb' '-g' '-Og' '-ffunction-sections' '-flt"
 525      2D6D7468 
 525      756D6227 
 525      20272D67 
 525      2720272D 
 526 0066 6F272027 		.ascii	"o' '-ffat-lto-objects'\000"
 526      2D666661 
 526      742D6C74 
 526      6F2D6F62 
 526      6A656374 
 527              		.text
 528              		.cfi_sections	.debug_frame
 529              		.section	.text.Comp_1_trimAdjust,"ax",%progbits
 530              		.align	2
 531              		.thumb
 532              		.thumb_func
 533              		.type	Comp_1_trimAdjust, %function
 534              	Comp_1_trimAdjust:
 535              	.LFB6:
 536              		.file 1 "Generated_Source\\PSoC5\\Comp_1.c"
   1:Generated_Source\PSoC5/Comp_1.c **** /*******************************************************************************
   2:Generated_Source\PSoC5/Comp_1.c **** * File Name: Comp_1.c
   3:Generated_Source\PSoC5/Comp_1.c **** * Version 2.0
   4:Generated_Source\PSoC5/Comp_1.c **** *
   5:Generated_Source\PSoC5/Comp_1.c **** * Description:
   6:Generated_Source\PSoC5/Comp_1.c **** *  This file provides the source code to the API for the Comparator component
   7:Generated_Source\PSoC5/Comp_1.c **** *
   8:Generated_Source\PSoC5/Comp_1.c **** * Note:
   9:Generated_Source\PSoC5/Comp_1.c **** *  None
  10:Generated_Source\PSoC5/Comp_1.c **** *
  11:Generated_Source\PSoC5/Comp_1.c **** ********************************************************************************
  12:Generated_Source\PSoC5/Comp_1.c **** * Copyright 2008-2012, Cypress Semiconductor Corporation.  All rights reserved.
  13:Generated_Source\PSoC5/Comp_1.c **** * You may use this file only in accordance with the license, terms, conditions, 
  14:Generated_Source\PSoC5/Comp_1.c **** * disclaimers, and limitations in the end user license agreement accompanying 
  15:Generated_Source\PSoC5/Comp_1.c **** * the software package with which this file was provided.
ARM GAS  C:\Users\Luggi\AppData\Local\Temp\ccP9NNOM.s 			page 41


  16:Generated_Source\PSoC5/Comp_1.c **** *******************************************************************************/
  17:Generated_Source\PSoC5/Comp_1.c **** 
  18:Generated_Source\PSoC5/Comp_1.c **** #include "Comp_1.h"
  19:Generated_Source\PSoC5/Comp_1.c **** 
  20:Generated_Source\PSoC5/Comp_1.c **** uint8 Comp_1_initVar = 0u;
  21:Generated_Source\PSoC5/Comp_1.c **** 
  22:Generated_Source\PSoC5/Comp_1.c **** /* Internal functions definitoin */
  23:Generated_Source\PSoC5/Comp_1.c **** static void Comp_1_trimAdjust(uint8 nibble) ;
  24:Generated_Source\PSoC5/Comp_1.c **** 
  25:Generated_Source\PSoC5/Comp_1.c **** /* static Comp_1_backupStruct  Comp_1_backup; */
  26:Generated_Source\PSoC5/Comp_1.c **** #if (CY_PSOC5A)
  27:Generated_Source\PSoC5/Comp_1.c ****     static Comp_1_LOWPOWER_BACKUP_STRUCT  Comp_1_lowPowerBackup;
  28:Generated_Source\PSoC5/Comp_1.c **** #endif /* CY_PSOC5A */
  29:Generated_Source\PSoC5/Comp_1.c **** 
  30:Generated_Source\PSoC5/Comp_1.c **** /* variable to decide whether or not to restore the control register in 
  31:Generated_Source\PSoC5/Comp_1.c ****    Enable() API for PSoC5A only */
  32:Generated_Source\PSoC5/Comp_1.c **** #if (CY_PSOC5A)
  33:Generated_Source\PSoC5/Comp_1.c ****     static uint8 Comp_1_restoreReg = 0u;
  34:Generated_Source\PSoC5/Comp_1.c **** #endif /* CY_PSOC5A */
  35:Generated_Source\PSoC5/Comp_1.c **** 
  36:Generated_Source\PSoC5/Comp_1.c **** 
  37:Generated_Source\PSoC5/Comp_1.c **** /*******************************************************************************
  38:Generated_Source\PSoC5/Comp_1.c **** * Function Name: Comp_1_Init
  39:Generated_Source\PSoC5/Comp_1.c **** ********************************************************************************
  40:Generated_Source\PSoC5/Comp_1.c **** *
  41:Generated_Source\PSoC5/Comp_1.c **** * Summary:
  42:Generated_Source\PSoC5/Comp_1.c **** *  Initialize to the schematic state
  43:Generated_Source\PSoC5/Comp_1.c **** * 
  44:Generated_Source\PSoC5/Comp_1.c **** * Parameters:
  45:Generated_Source\PSoC5/Comp_1.c **** *  void
  46:Generated_Source\PSoC5/Comp_1.c **** *
  47:Generated_Source\PSoC5/Comp_1.c **** * Return:
  48:Generated_Source\PSoC5/Comp_1.c **** *  void
  49:Generated_Source\PSoC5/Comp_1.c **** *
  50:Generated_Source\PSoC5/Comp_1.c **** *******************************************************************************/
  51:Generated_Source\PSoC5/Comp_1.c **** void Comp_1_Init(void) 
  52:Generated_Source\PSoC5/Comp_1.c **** {
  53:Generated_Source\PSoC5/Comp_1.c ****     /* Set default speed/power */
  54:Generated_Source\PSoC5/Comp_1.c ****     Comp_1_SetSpeed(Comp_1_DEFAULT_SPEED);
  55:Generated_Source\PSoC5/Comp_1.c **** 
  56:Generated_Source\PSoC5/Comp_1.c ****     /* Set default Hysteresis */
  57:Generated_Source\PSoC5/Comp_1.c ****     #if ( Comp_1_DEFAULT_HYSTERESIS == 0u )
  58:Generated_Source\PSoC5/Comp_1.c ****         Comp_1_CR |= Comp_1_HYST_OFF;
  59:Generated_Source\PSoC5/Comp_1.c ****     #else
  60:Generated_Source\PSoC5/Comp_1.c ****         Comp_1_CR &= (uint8)(~Comp_1_HYST_OFF);
  61:Generated_Source\PSoC5/Comp_1.c ****     #endif /* Comp_1_DEFAULT_HYSTERESIS == 0u */
  62:Generated_Source\PSoC5/Comp_1.c ****     /* Power down override feature is not supported for PSoC5A. */
  63:Generated_Source\PSoC5/Comp_1.c ****     #if (CY_PSOC3 || CY_PSOC5LP)
  64:Generated_Source\PSoC5/Comp_1.c ****         /* Set default Power Down Override */
  65:Generated_Source\PSoC5/Comp_1.c ****         #if ( Comp_1_DEFAULT_PWRDWN_OVRD == 0u )
  66:Generated_Source\PSoC5/Comp_1.c ****             Comp_1_CR &= (uint8)(~Comp_1_PWRDWN_OVRD);
  67:Generated_Source\PSoC5/Comp_1.c ****         #else 
  68:Generated_Source\PSoC5/Comp_1.c ****             Comp_1_CR |= Comp_1_PWRDWN_OVRD;
  69:Generated_Source\PSoC5/Comp_1.c ****         #endif /* Comp_1_DEFAULT_PWRDWN_OVRD == 0u */
  70:Generated_Source\PSoC5/Comp_1.c ****     #endif /* CY_PSOC3 || CY_PSOC5LP */
  71:Generated_Source\PSoC5/Comp_1.c ****     
  72:Generated_Source\PSoC5/Comp_1.c ****     /* Set mux always on logic */
ARM GAS  C:\Users\Luggi\AppData\Local\Temp\ccP9NNOM.s 			page 42


  73:Generated_Source\PSoC5/Comp_1.c ****     Comp_1_CR |= Comp_1_MX_AO;
  74:Generated_Source\PSoC5/Comp_1.c **** 
  75:Generated_Source\PSoC5/Comp_1.c ****     /* Set default sync */
  76:Generated_Source\PSoC5/Comp_1.c ****     Comp_1_CLK &= (uint8)(~Comp_1_SYNCCLK_MASK);
  77:Generated_Source\PSoC5/Comp_1.c ****     #if ( Comp_1_DEFAULT_BYPASS_SYNC == 0u )
  78:Generated_Source\PSoC5/Comp_1.c ****         Comp_1_CLK |= Comp_1_SYNC_CLK_EN;
  79:Generated_Source\PSoC5/Comp_1.c ****     #else
  80:Generated_Source\PSoC5/Comp_1.c ****         Comp_1_CLK |= Comp_1_BYPASS_SYNC;
  81:Generated_Source\PSoC5/Comp_1.c ****     #endif /* Comp_1_DEFAULT_BYPASS_SYNC == 0u */
  82:Generated_Source\PSoC5/Comp_1.c **** }
  83:Generated_Source\PSoC5/Comp_1.c **** 
  84:Generated_Source\PSoC5/Comp_1.c **** 
  85:Generated_Source\PSoC5/Comp_1.c **** /*******************************************************************************
  86:Generated_Source\PSoC5/Comp_1.c **** * Function Name: Comp_1_Enable
  87:Generated_Source\PSoC5/Comp_1.c **** ********************************************************************************
  88:Generated_Source\PSoC5/Comp_1.c **** *
  89:Generated_Source\PSoC5/Comp_1.c **** * Summary:
  90:Generated_Source\PSoC5/Comp_1.c **** *  Enable the Comparator
  91:Generated_Source\PSoC5/Comp_1.c **** * 
  92:Generated_Source\PSoC5/Comp_1.c **** * Parameters:
  93:Generated_Source\PSoC5/Comp_1.c **** *  void
  94:Generated_Source\PSoC5/Comp_1.c **** *
  95:Generated_Source\PSoC5/Comp_1.c **** * Return:
  96:Generated_Source\PSoC5/Comp_1.c **** *  void
  97:Generated_Source\PSoC5/Comp_1.c **** *
  98:Generated_Source\PSoC5/Comp_1.c **** *******************************************************************************/
  99:Generated_Source\PSoC5/Comp_1.c **** void Comp_1_Enable(void) 
 100:Generated_Source\PSoC5/Comp_1.c **** {
 101:Generated_Source\PSoC5/Comp_1.c ****     Comp_1_PWRMGR |= Comp_1_ACT_PWR_EN;
 102:Generated_Source\PSoC5/Comp_1.c ****     Comp_1_STBY_PWRMGR |= Comp_1_STBY_PWR_EN;
 103:Generated_Source\PSoC5/Comp_1.c ****      
 104:Generated_Source\PSoC5/Comp_1.c ****      /* This is to restore the value of register CR which is saved 
 105:Generated_Source\PSoC5/Comp_1.c ****     in prior to the modification in stop() API */
 106:Generated_Source\PSoC5/Comp_1.c ****     #if (CY_PSOC5A)
 107:Generated_Source\PSoC5/Comp_1.c ****         if(Comp_1_restoreReg == 1u)
 108:Generated_Source\PSoC5/Comp_1.c ****         {
 109:Generated_Source\PSoC5/Comp_1.c ****             Comp_1_CR = Comp_1_lowPowerBackup.compCRReg;
 110:Generated_Source\PSoC5/Comp_1.c **** 
 111:Generated_Source\PSoC5/Comp_1.c ****             /* Clear the flag */
 112:Generated_Source\PSoC5/Comp_1.c ****             Comp_1_restoreReg = 0u;
 113:Generated_Source\PSoC5/Comp_1.c ****         }
 114:Generated_Source\PSoC5/Comp_1.c ****     #endif /* CY_PSOC5A */
 115:Generated_Source\PSoC5/Comp_1.c **** }
 116:Generated_Source\PSoC5/Comp_1.c **** 
 117:Generated_Source\PSoC5/Comp_1.c **** 
 118:Generated_Source\PSoC5/Comp_1.c **** /*******************************************************************************
 119:Generated_Source\PSoC5/Comp_1.c **** * Function Name: Comp_1_Start
 120:Generated_Source\PSoC5/Comp_1.c **** ********************************************************************************
 121:Generated_Source\PSoC5/Comp_1.c **** *
 122:Generated_Source\PSoC5/Comp_1.c **** * Summary:
 123:Generated_Source\PSoC5/Comp_1.c **** *  The start function initializes the Analog Comparator with the default values.
 124:Generated_Source\PSoC5/Comp_1.c **** *
 125:Generated_Source\PSoC5/Comp_1.c **** * Parameters:
 126:Generated_Source\PSoC5/Comp_1.c **** *  void
 127:Generated_Source\PSoC5/Comp_1.c **** *
 128:Generated_Source\PSoC5/Comp_1.c **** * Return:
 129:Generated_Source\PSoC5/Comp_1.c **** *  void 
ARM GAS  C:\Users\Luggi\AppData\Local\Temp\ccP9NNOM.s 			page 43


 130:Generated_Source\PSoC5/Comp_1.c **** *
 131:Generated_Source\PSoC5/Comp_1.c **** * Global variables:
 132:Generated_Source\PSoC5/Comp_1.c **** *  Comp_1_initVar: Is modified when this function is called for the 
 133:Generated_Source\PSoC5/Comp_1.c **** *   first time. Is used to ensure that initialization happens only once.
 134:Generated_Source\PSoC5/Comp_1.c **** *  
 135:Generated_Source\PSoC5/Comp_1.c **** *******************************************************************************/
 136:Generated_Source\PSoC5/Comp_1.c **** void Comp_1_Start(void) 
 137:Generated_Source\PSoC5/Comp_1.c **** {
 138:Generated_Source\PSoC5/Comp_1.c **** 
 139:Generated_Source\PSoC5/Comp_1.c ****     if ( Comp_1_initVar == 0u )
 140:Generated_Source\PSoC5/Comp_1.c ****     {
 141:Generated_Source\PSoC5/Comp_1.c ****         Comp_1_Init();
 142:Generated_Source\PSoC5/Comp_1.c ****         
 143:Generated_Source\PSoC5/Comp_1.c ****         Comp_1_initVar = 1u;
 144:Generated_Source\PSoC5/Comp_1.c ****     }   
 145:Generated_Source\PSoC5/Comp_1.c **** 
 146:Generated_Source\PSoC5/Comp_1.c ****     /* Enable power to comparator */
 147:Generated_Source\PSoC5/Comp_1.c ****     Comp_1_Enable();    
 148:Generated_Source\PSoC5/Comp_1.c **** }
 149:Generated_Source\PSoC5/Comp_1.c **** 
 150:Generated_Source\PSoC5/Comp_1.c **** 
 151:Generated_Source\PSoC5/Comp_1.c **** /*******************************************************************************
 152:Generated_Source\PSoC5/Comp_1.c **** * Function Name: Comp_1_Stop
 153:Generated_Source\PSoC5/Comp_1.c **** ********************************************************************************
 154:Generated_Source\PSoC5/Comp_1.c **** *
 155:Generated_Source\PSoC5/Comp_1.c **** * Summary:
 156:Generated_Source\PSoC5/Comp_1.c **** *  Powers down amplifier to lowest power state.
 157:Generated_Source\PSoC5/Comp_1.c **** *
 158:Generated_Source\PSoC5/Comp_1.c **** * Parameters:
 159:Generated_Source\PSoC5/Comp_1.c **** *  void
 160:Generated_Source\PSoC5/Comp_1.c **** *
 161:Generated_Source\PSoC5/Comp_1.c **** * Return:
 162:Generated_Source\PSoC5/Comp_1.c **** *  void
 163:Generated_Source\PSoC5/Comp_1.c **** *
 164:Generated_Source\PSoC5/Comp_1.c **** *******************************************************************************/
 165:Generated_Source\PSoC5/Comp_1.c **** void Comp_1_Stop(void) 
 166:Generated_Source\PSoC5/Comp_1.c **** {
 167:Generated_Source\PSoC5/Comp_1.c ****     /* Disable power to comparator */
 168:Generated_Source\PSoC5/Comp_1.c ****     Comp_1_PWRMGR &= (uint8)(~Comp_1_ACT_PWR_EN);
 169:Generated_Source\PSoC5/Comp_1.c ****     Comp_1_STBY_PWRMGR &= (uint8)(~Comp_1_STBY_PWR_EN);
 170:Generated_Source\PSoC5/Comp_1.c ****     
 171:Generated_Source\PSoC5/Comp_1.c ****     #if (CY_PSOC5A)
 172:Generated_Source\PSoC5/Comp_1.c ****         /* Enable the variable */
 173:Generated_Source\PSoC5/Comp_1.c ****         Comp_1_restoreReg = 1u;
 174:Generated_Source\PSoC5/Comp_1.c **** 
 175:Generated_Source\PSoC5/Comp_1.c ****         /* Save the control register before clearing it */
 176:Generated_Source\PSoC5/Comp_1.c ****         Comp_1_lowPowerBackup.compCRReg = Comp_1_CR;
 177:Generated_Source\PSoC5/Comp_1.c ****         Comp_1_CR = Comp_1_COMP_REG_CLR;
 178:Generated_Source\PSoC5/Comp_1.c ****     #endif /* CY_PSOC5A */
 179:Generated_Source\PSoC5/Comp_1.c **** }
 180:Generated_Source\PSoC5/Comp_1.c **** 
 181:Generated_Source\PSoC5/Comp_1.c **** 
 182:Generated_Source\PSoC5/Comp_1.c **** /*******************************************************************************
 183:Generated_Source\PSoC5/Comp_1.c **** * Function Name: Comp_1_SetSpeed
 184:Generated_Source\PSoC5/Comp_1.c **** ********************************************************************************
 185:Generated_Source\PSoC5/Comp_1.c **** *
 186:Generated_Source\PSoC5/Comp_1.c **** * Summary:
ARM GAS  C:\Users\Luggi\AppData\Local\Temp\ccP9NNOM.s 			page 44


 187:Generated_Source\PSoC5/Comp_1.c **** *  This function sets the speed of the Analog Comparator. The faster the speed
 188:Generated_Source\PSoC5/Comp_1.c **** *  the more power that is used.
 189:Generated_Source\PSoC5/Comp_1.c **** *
 190:Generated_Source\PSoC5/Comp_1.c **** * Parameters:
 191:Generated_Source\PSoC5/Comp_1.c **** *  speed: (uint8) Sets operation mode of Comparator
 192:Generated_Source\PSoC5/Comp_1.c **** *
 193:Generated_Source\PSoC5/Comp_1.c **** * Return:
 194:Generated_Source\PSoC5/Comp_1.c **** *  void
 195:Generated_Source\PSoC5/Comp_1.c **** *
 196:Generated_Source\PSoC5/Comp_1.c **** *******************************************************************************/
 197:Generated_Source\PSoC5/Comp_1.c **** void Comp_1_SetSpeed(uint8 speed) 
 198:Generated_Source\PSoC5/Comp_1.c **** {
 199:Generated_Source\PSoC5/Comp_1.c ****     /* Clear and Set power level */    
 200:Generated_Source\PSoC5/Comp_1.c ****     Comp_1_CR = (Comp_1_CR & (uint8)(~Comp_1_PWR_MODE_MASK)) |
 201:Generated_Source\PSoC5/Comp_1.c ****                            (speed & Comp_1_PWR_MODE_MASK);
 202:Generated_Source\PSoC5/Comp_1.c **** 
 203:Generated_Source\PSoC5/Comp_1.c ****     /* Set trim value for high speed comparator */
 204:Generated_Source\PSoC5/Comp_1.c ****     if(speed == Comp_1_HIGHSPEED)
 205:Generated_Source\PSoC5/Comp_1.c ****     {
 206:Generated_Source\PSoC5/Comp_1.c ****         /* PSoC5A */
 207:Generated_Source\PSoC5/Comp_1.c ****         #if (CY_PSOC5A)
 208:Generated_Source\PSoC5/Comp_1.c ****             Comp_1_TR = Comp_1_HS_TRIM_TR0;
 209:Generated_Source\PSoC5/Comp_1.c ****         #endif /* CY_PSOC5A */
 210:Generated_Source\PSoC5/Comp_1.c ****         
 211:Generated_Source\PSoC5/Comp_1.c ****         /* PSoC3, PSoC5LP or later */
 212:Generated_Source\PSoC5/Comp_1.c ****         #if (CY_PSOC3 || CY_PSOC5LP) 
 213:Generated_Source\PSoC5/Comp_1.c ****             Comp_1_TR0 = Comp_1_HS_TRIM_TR0;
 214:Generated_Source\PSoC5/Comp_1.c ****             Comp_1_TR1 = Comp_1_HS_TRIM_TR1;
 215:Generated_Source\PSoC5/Comp_1.c ****         #endif /* CY_PSOC3 || CY_PSOC5LP */
 216:Generated_Source\PSoC5/Comp_1.c ****     }
 217:Generated_Source\PSoC5/Comp_1.c ****     else
 218:Generated_Source\PSoC5/Comp_1.c ****     {
 219:Generated_Source\PSoC5/Comp_1.c ****     /* PSoC5A */
 220:Generated_Source\PSoC5/Comp_1.c ****         #if (CY_PSOC5A)
 221:Generated_Source\PSoC5/Comp_1.c ****             Comp_1_TR = Comp_1_LS_TRIM_TR0;
 222:Generated_Source\PSoC5/Comp_1.c ****         #endif /* CY_PSOC5A */
 223:Generated_Source\PSoC5/Comp_1.c ****         
 224:Generated_Source\PSoC5/Comp_1.c ****         /* PSoC3, PSoC5LP or later */
 225:Generated_Source\PSoC5/Comp_1.c ****         #if (CY_PSOC3 || CY_PSOC5LP) 
 226:Generated_Source\PSoC5/Comp_1.c ****             Comp_1_TR0 = Comp_1_LS_TRIM_TR0;
 227:Generated_Source\PSoC5/Comp_1.c ****             Comp_1_TR1 = Comp_1_LS_TRIM_TR1;
 228:Generated_Source\PSoC5/Comp_1.c ****         #endif /* CY_PSOC3 || CY_PSOC5LP */
 229:Generated_Source\PSoC5/Comp_1.c ****     }
 230:Generated_Source\PSoC5/Comp_1.c **** 
 231:Generated_Source\PSoC5/Comp_1.c **** }
 232:Generated_Source\PSoC5/Comp_1.c **** 
 233:Generated_Source\PSoC5/Comp_1.c **** 
 234:Generated_Source\PSoC5/Comp_1.c **** /*******************************************************************************
 235:Generated_Source\PSoC5/Comp_1.c **** * Function Name: Comp_1_GetCompare
 236:Generated_Source\PSoC5/Comp_1.c **** ********************************************************************************
 237:Generated_Source\PSoC5/Comp_1.c **** *
 238:Generated_Source\PSoC5/Comp_1.c **** * Summary:
 239:Generated_Source\PSoC5/Comp_1.c **** *  This function returns the comparator output value.
 240:Generated_Source\PSoC5/Comp_1.c **** *  This value is not affected by the Polarity parameter.
 241:Generated_Source\PSoC5/Comp_1.c **** *  This valuea lways reflects a noninverted state.
 242:Generated_Source\PSoC5/Comp_1.c **** *
 243:Generated_Source\PSoC5/Comp_1.c **** * Parameters:
ARM GAS  C:\Users\Luggi\AppData\Local\Temp\ccP9NNOM.s 			page 45


 244:Generated_Source\PSoC5/Comp_1.c **** *   None
 245:Generated_Source\PSoC5/Comp_1.c **** *
 246:Generated_Source\PSoC5/Comp_1.c **** * Return:
 247:Generated_Source\PSoC5/Comp_1.c **** *  (uint8)  0     - if Pos_Input less than Neg_input
 248:Generated_Source\PSoC5/Comp_1.c **** *           non 0 - if Pos_Input greater than Neg_input.
 249:Generated_Source\PSoC5/Comp_1.c **** *
 250:Generated_Source\PSoC5/Comp_1.c **** *******************************************************************************/
 251:Generated_Source\PSoC5/Comp_1.c **** uint8 Comp_1_GetCompare(void) 
 252:Generated_Source\PSoC5/Comp_1.c **** {
 253:Generated_Source\PSoC5/Comp_1.c ****     return( Comp_1_WRK & Comp_1_CMP_OUT_MASK);
 254:Generated_Source\PSoC5/Comp_1.c **** }
 255:Generated_Source\PSoC5/Comp_1.c **** 
 256:Generated_Source\PSoC5/Comp_1.c **** 
 257:Generated_Source\PSoC5/Comp_1.c **** /*******************************************************************************
 258:Generated_Source\PSoC5/Comp_1.c **** * Function Name: Comp_1_trimAdjust
 259:Generated_Source\PSoC5/Comp_1.c **** ********************************************************************************
 260:Generated_Source\PSoC5/Comp_1.c **** *
 261:Generated_Source\PSoC5/Comp_1.c **** * Summary:
 262:Generated_Source\PSoC5/Comp_1.c **** *  This function adjusts the value in the low nibble/high nibble of the Analog 
 263:Generated_Source\PSoC5/Comp_1.c **** *  Comparator trim register
 264:Generated_Source\PSoC5/Comp_1.c **** *
 265:Generated_Source\PSoC5/Comp_1.c **** * Parameters:  
 266:Generated_Source\PSoC5/Comp_1.c **** *  nibble:
 267:Generated_Source\PSoC5/Comp_1.c **** *      0 -- adjusts the value in the low nibble
 268:Generated_Source\PSoC5/Comp_1.c **** *      1 -- adjusts the value in the high nibble
 269:Generated_Source\PSoC5/Comp_1.c **** *
 270:Generated_Source\PSoC5/Comp_1.c **** * Return:
 271:Generated_Source\PSoC5/Comp_1.c **** *  None
 272:Generated_Source\PSoC5/Comp_1.c **** *
 273:Generated_Source\PSoC5/Comp_1.c **** * Theory: 
 274:Generated_Source\PSoC5/Comp_1.c **** *  Function assumes comparator block is setup for trim adjust.
 275:Generated_Source\PSoC5/Comp_1.c **** *  Intended to be called from Comp_ZeroCal()
 276:Generated_Source\PSoC5/Comp_1.c **** * 
 277:Generated_Source\PSoC5/Comp_1.c **** * Side Effects:
 278:Generated_Source\PSoC5/Comp_1.c **** *  Routine uses a course 1ms delay following each trim adjustment to allow 
 279:Generated_Source\PSoC5/Comp_1.c **** *  the comparator output to respond.
 280:Generated_Source\PSoC5/Comp_1.c **** *
 281:Generated_Source\PSoC5/Comp_1.c **** *******************************************************************************/
 282:Generated_Source\PSoC5/Comp_1.c **** static void Comp_1_trimAdjust(uint8 nibble) 
 283:Generated_Source\PSoC5/Comp_1.c **** {
 537              		.loc 1 283 0
 538              		.cfi_startproc
 539              		@ args = 0, pretend = 0, frame = 0
 540              		@ frame_needed = 0, uses_anonymous_args = 0
 541              	.LVL0:
 542 0000 F8B5     		push	{r3, r4, r5, r6, r7, lr}
 543              		.cfi_def_cfa_offset 24
 544              		.cfi_offset 3, -24
 545              		.cfi_offset 4, -20
 546              		.cfi_offset 5, -16
 547              		.cfi_offset 6, -12
 548              		.cfi_offset 7, -8
 549              		.cfi_offset 14, -4
 284:Generated_Source\PSoC5/Comp_1.c ****     uint8 trimCnt, trimCntMax;
 285:Generated_Source\PSoC5/Comp_1.c ****     uint8 cmpState;   
 286:Generated_Source\PSoC5/Comp_1.c **** 
 287:Generated_Source\PSoC5/Comp_1.c ****     /* get current state of comparator output */
ARM GAS  C:\Users\Luggi\AppData\Local\Temp\ccP9NNOM.s 			page 46


 288:Generated_Source\PSoC5/Comp_1.c ****     cmpState = Comp_1_WRK & Comp_1_CMP_OUT_MASK;
 550              		.loc 1 288 0
 551 0002 1A4B     		ldr	r3, .L12
 552 0004 1D78     		ldrb	r5, [r3]	@ zero_extendqisi2
 553 0006 05F00405 		and	r5, r5, #4
 554 000a EDB2     		uxtb	r5, r5
 555              	.LVL1:
 289:Generated_Source\PSoC5/Comp_1.c ****     
 290:Generated_Source\PSoC5/Comp_1.c ****     if (nibble == 0u)
 556              		.loc 1 290 0
 557 000c 0646     		mov	r6, r0
 558 000e 30B9     		cbnz	r0, .L2
 291:Generated_Source\PSoC5/Comp_1.c ****     {    
 292:Generated_Source\PSoC5/Comp_1.c ****         /* if comparator output is high, negative offset adjust is required */
 293:Generated_Source\PSoC5/Comp_1.c ****         if ( cmpState != 0u )
 559              		.loc 1 293 0
 560 0010 5DB1     		cbz	r5, .L3
 294:Generated_Source\PSoC5/Comp_1.c ****         {
 295:Generated_Source\PSoC5/Comp_1.c ****             /* PSoC5A */
 296:Generated_Source\PSoC5/Comp_1.c ****             #if (CY_PSOC5A)
 297:Generated_Source\PSoC5/Comp_1.c ****                 Comp_1_TR |= Comp_1_CMP_TRIM1_DIR;
 298:Generated_Source\PSoC5/Comp_1.c ****             #endif /* CY_PSOC5A */
 299:Generated_Source\PSoC5/Comp_1.c ****             
 300:Generated_Source\PSoC5/Comp_1.c ****             /* PSoC3, PSoC5LP or later */
 301:Generated_Source\PSoC5/Comp_1.c ****             #if (CY_PSOC3 || CY_PSOC5LP)
 302:Generated_Source\PSoC5/Comp_1.c ****                 Comp_1_TR0 |= Comp_1_CMP_TR0_DIR;
 561              		.loc 1 302 0
 562 0012 174A     		ldr	r2, .L12+4
 563 0014 1378     		ldrb	r3, [r2]	@ zero_extendqisi2
 564 0016 43F01003 		orr	r3, r3, #16
 565 001a 1370     		strb	r3, [r2]
 566 001c 05E0     		b	.L3
 567              	.L2:
 303:Generated_Source\PSoC5/Comp_1.c ****             #endif /* CY_PSOC3 || CY_PSOC5LP */
 304:Generated_Source\PSoC5/Comp_1.c ****         }
 305:Generated_Source\PSoC5/Comp_1.c ****     }
 306:Generated_Source\PSoC5/Comp_1.c ****     else
 307:Generated_Source\PSoC5/Comp_1.c ****     {
 308:Generated_Source\PSoC5/Comp_1.c ****         /* if comparator output is low, positive offset adjust is required */
 309:Generated_Source\PSoC5/Comp_1.c ****         if ( cmpState == 0u )
 568              		.loc 1 309 0
 569 001e 25B9     		cbnz	r5, .L3
 310:Generated_Source\PSoC5/Comp_1.c ****         {
 311:Generated_Source\PSoC5/Comp_1.c ****             /* PSoC5A */
 312:Generated_Source\PSoC5/Comp_1.c ****             #if (CY_PSOC5A)
 313:Generated_Source\PSoC5/Comp_1.c ****                 Comp_1_TR |= Comp_1_CMP_TRIM2_DIR; 
 314:Generated_Source\PSoC5/Comp_1.c ****             #endif /* CY_PSOC5A */
 315:Generated_Source\PSoC5/Comp_1.c ****             
 316:Generated_Source\PSoC5/Comp_1.c ****             /* PSoC3, PSoC5LP or later */
 317:Generated_Source\PSoC5/Comp_1.c ****             #if (CY_PSOC3 || CY_PSOC5LP)
 318:Generated_Source\PSoC5/Comp_1.c ****                 Comp_1_TR1 |= Comp_1_CMP_TR1_DIR;
 570              		.loc 1 318 0
 571 0020 144A     		ldr	r2, .L12+8
 572 0022 1378     		ldrb	r3, [r2]	@ zero_extendqisi2
 573 0024 43F01003 		orr	r3, r3, #16
 574 0028 1370     		strb	r3, [r2]
 575              	.L3:
ARM GAS  C:\Users\Luggi\AppData\Local\Temp\ccP9NNOM.s 			page 47


 319:Generated_Source\PSoC5/Comp_1.c ****             #endif /* CY_PSOC3 || CY_PSOC5LP */
 320:Generated_Source\PSoC5/Comp_1.c ****         }
 321:Generated_Source\PSoC5/Comp_1.c ****     }
 322:Generated_Source\PSoC5/Comp_1.c **** 
 323:Generated_Source\PSoC5/Comp_1.c ****     /* Increment trim value until compare output changes state */
 324:Generated_Source\PSoC5/Comp_1.c **** 	
 325:Generated_Source\PSoC5/Comp_1.c ****     /* PSoC5A */
 326:Generated_Source\PSoC5/Comp_1.c **** 	#if (CY_PSOC5A)
 327:Generated_Source\PSoC5/Comp_1.c **** 	    trimCntMax = 7u;
 328:Generated_Source\PSoC5/Comp_1.c ****     #endif
 329:Generated_Source\PSoC5/Comp_1.c **** 	
 330:Generated_Source\PSoC5/Comp_1.c **** 	/* PSoC3, PSoC5LP or later */
 331:Generated_Source\PSoC5/Comp_1.c **** 	#if (CY_PSOC3 || CY_PSOC5LP)
 332:Generated_Source\PSoC5/Comp_1.c ****     	if(nibble == 0u)
 576              		.loc 1 332 0
 577 002a 0EB9     		cbnz	r6, .L10
 333:Generated_Source\PSoC5/Comp_1.c ****     	{
 334:Generated_Source\PSoC5/Comp_1.c ****     		trimCntMax = 15u;
 578              		.loc 1 334 0
 579 002c 0F27     		movs	r7, #15
 580 002e 00E0     		b	.L4
 581              	.L10:
 335:Generated_Source\PSoC5/Comp_1.c ****     	}
 336:Generated_Source\PSoC5/Comp_1.c ****     	else
 337:Generated_Source\PSoC5/Comp_1.c ****     	{
 338:Generated_Source\PSoC5/Comp_1.c ****     		trimCntMax = 7u;
 582              		.loc 1 338 0
 583 0030 0727     		movs	r7, #7
 584              	.L4:
 585              	.LVL2:
 339:Generated_Source\PSoC5/Comp_1.c ****     	}
 340:Generated_Source\PSoC5/Comp_1.c **** 	#endif
 341:Generated_Source\PSoC5/Comp_1.c **** 	
 342:Generated_Source\PSoC5/Comp_1.c ****     for ( trimCnt = 0u; trimCnt < trimCntMax; trimCnt++ )
 586              		.loc 1 342 0
 587 0032 0024     		movs	r4, #0
 588 0034 17E0     		b	.L5
 589              	.LVL3:
 590              	.L9:
 343:Generated_Source\PSoC5/Comp_1.c **** 	{
 344:Generated_Source\PSoC5/Comp_1.c ****         if (nibble == 0u)
 591              		.loc 1 344 0
 592 0036 2EB9     		cbnz	r6, .L6
 345:Generated_Source\PSoC5/Comp_1.c ****         {
 346:Generated_Source\PSoC5/Comp_1.c ****             /* PSoC5A */
 347:Generated_Source\PSoC5/Comp_1.c ****             #if (CY_PSOC5A)
 348:Generated_Source\PSoC5/Comp_1.c ****                 Comp_1_TR += 1u;
 349:Generated_Source\PSoC5/Comp_1.c ****             #endif /* CY_PSOC5A */
 350:Generated_Source\PSoC5/Comp_1.c ****             
 351:Generated_Source\PSoC5/Comp_1.c ****             /* PSoC3, PSoC5LP or later */
 352:Generated_Source\PSoC5/Comp_1.c ****             #if (CY_PSOC3 || CY_PSOC5LP)
 353:Generated_Source\PSoC5/Comp_1.c ****                 Comp_1_TR0 += 1u;
 593              		.loc 1 353 0
 594 0038 0D4A     		ldr	r2, .L12+4
 595 003a 1378     		ldrb	r3, [r2]	@ zero_extendqisi2
 596 003c 0133     		adds	r3, r3, #1
 597 003e DBB2     		uxtb	r3, r3
ARM GAS  C:\Users\Luggi\AppData\Local\Temp\ccP9NNOM.s 			page 48


 598 0040 1370     		strb	r3, [r2]
 599 0042 04E0     		b	.L7
 600              	.L6:
 354:Generated_Source\PSoC5/Comp_1.c ****             #endif /* CY_PSOC3 || CY_PSOC5LP */
 355:Generated_Source\PSoC5/Comp_1.c ****         }
 356:Generated_Source\PSoC5/Comp_1.c ****         else
 357:Generated_Source\PSoC5/Comp_1.c ****         {
 358:Generated_Source\PSoC5/Comp_1.c ****             /* PSoC5A */
 359:Generated_Source\PSoC5/Comp_1.c ****             #if (CY_PSOC5A)
 360:Generated_Source\PSoC5/Comp_1.c ****                 Comp_1_TR += 0x10u;
 361:Generated_Source\PSoC5/Comp_1.c ****             #endif /* CY_PSOC5A */
 362:Generated_Source\PSoC5/Comp_1.c ****             
 363:Generated_Source\PSoC5/Comp_1.c ****             /* PSoC3, PSoC5LP or later */
 364:Generated_Source\PSoC5/Comp_1.c ****             #if (CY_PSOC3 || CY_PSOC5LP)
 365:Generated_Source\PSoC5/Comp_1.c ****                 Comp_1_TR1 += 1u;
 601              		.loc 1 365 0
 602 0044 0B4A     		ldr	r2, .L12+8
 603 0046 1378     		ldrb	r3, [r2]	@ zero_extendqisi2
 604 0048 0133     		adds	r3, r3, #1
 605 004a DBB2     		uxtb	r3, r3
 606 004c 1370     		strb	r3, [r2]
 607              	.L7:
 366:Generated_Source\PSoC5/Comp_1.c ****             #endif /* CY_PSOC3 || CY_PSOC5LP */
 367:Generated_Source\PSoC5/Comp_1.c ****         }
 368:Generated_Source\PSoC5/Comp_1.c ****         
 369:Generated_Source\PSoC5/Comp_1.c ****         CyDelayUs(10u);
 608              		.loc 1 369 0
 609 004e 0A20     		movs	r0, #10
 610 0050 FFF7FEFF 		bl	CyDelayUs
 611              	.LVL4:
 370:Generated_Source\PSoC5/Comp_1.c ****         
 371:Generated_Source\PSoC5/Comp_1.c ****         /* Check for change in comparator output */
 372:Generated_Source\PSoC5/Comp_1.c ****         if ((Comp_1_WRK & Comp_1_CMP_OUT_MASK) != cmpState)
 612              		.loc 1 372 0
 613 0054 054B     		ldr	r3, .L12
 614 0056 1B78     		ldrb	r3, [r3]	@ zero_extendqisi2
 615 0058 03F00403 		and	r3, r3, #4
 616 005c DBB2     		uxtb	r3, r3
 617 005e AB42     		cmp	r3, r5
 618 0060 03D1     		bne	.L1
 342:Generated_Source\PSoC5/Comp_1.c **** 	{
 619              		.loc 1 342 0 discriminator 2
 620 0062 0134     		adds	r4, r4, #1
 621              	.LVL5:
 622 0064 E4B2     		uxtb	r4, r4
 623              	.LVL6:
 624              	.L5:
 342:Generated_Source\PSoC5/Comp_1.c **** 	{
 625              		.loc 1 342 0 is_stmt 0 discriminator 1
 626 0066 BC42     		cmp	r4, r7
 627 0068 E5D3     		bcc	.L9
 628              	.L1:
 629 006a F8BD     		pop	{r3, r4, r5, r6, r7, pc}
 630              	.LVL7:
 631              	.L13:
 632              		.align	2
 633              	.L12:
ARM GAS  C:\Users\Luggi\AppData\Local\Temp\ccP9NNOM.s 			page 49


 634 006c 965B0040 		.word	1073765270
 635 0070 34460040 		.word	1073759796
 636 0074 35460040 		.word	1073759797
 637              		.cfi_endproc
 638              	.LFE6:
 639              		.size	Comp_1_trimAdjust, .-Comp_1_trimAdjust
 640              		.section	.text.Comp_1_Enable,"ax",%progbits
 641              		.align	2
 642              		.global	Comp_1_Enable
 643              		.thumb
 644              		.thumb_func
 645              		.type	Comp_1_Enable, %function
 646              	Comp_1_Enable:
 647              	.LFB1:
 100:Generated_Source\PSoC5/Comp_1.c ****     Comp_1_PWRMGR |= Comp_1_ACT_PWR_EN;
 648              		.loc 1 100 0 is_stmt 1
 649              		.cfi_startproc
 650              		@ args = 0, pretend = 0, frame = 0
 651              		@ frame_needed = 0, uses_anonymous_args = 0
 652              		@ link register save eliminated.
 101:Generated_Source\PSoC5/Comp_1.c ****     Comp_1_STBY_PWRMGR |= Comp_1_STBY_PWR_EN;
 653              		.loc 1 101 0
 654 0000 054A     		ldr	r2, .L15
 655 0002 1378     		ldrb	r3, [r2]	@ zero_extendqisi2
 656 0004 43F00403 		orr	r3, r3, #4
 657 0008 1370     		strb	r3, [r2]
 102:Generated_Source\PSoC5/Comp_1.c ****      
 658              		.loc 1 102 0
 659 000a 1032     		adds	r2, r2, #16
 660 000c 1378     		ldrb	r3, [r2]	@ zero_extendqisi2
 661 000e 43F00403 		orr	r3, r3, #4
 662 0012 1370     		strb	r3, [r2]
 663 0014 7047     		bx	lr
 664              	.L16:
 665 0016 00BF     		.align	2
 666              	.L15:
 667 0018 A7430040 		.word	1073759143
 668              		.cfi_endproc
 669              	.LFE1:
 670              		.size	Comp_1_Enable, .-Comp_1_Enable
 671              		.section	.text.Comp_1_Stop,"ax",%progbits
 672              		.align	2
 673              		.global	Comp_1_Stop
 674              		.thumb
 675              		.thumb_func
 676              		.type	Comp_1_Stop, %function
 677              	Comp_1_Stop:
 678              	.LFB3:
 166:Generated_Source\PSoC5/Comp_1.c ****     /* Disable power to comparator */
 679              		.loc 1 166 0
 680              		.cfi_startproc
 681              		@ args = 0, pretend = 0, frame = 0
 682              		@ frame_needed = 0, uses_anonymous_args = 0
 683              		@ link register save eliminated.
 168:Generated_Source\PSoC5/Comp_1.c ****     Comp_1_STBY_PWRMGR &= (uint8)(~Comp_1_STBY_PWR_EN);
 684              		.loc 1 168 0
 685 0000 054A     		ldr	r2, .L18
ARM GAS  C:\Users\Luggi\AppData\Local\Temp\ccP9NNOM.s 			page 50


 686 0002 1378     		ldrb	r3, [r2]	@ zero_extendqisi2
 687 0004 03F0FB03 		and	r3, r3, #251
 688 0008 1370     		strb	r3, [r2]
 169:Generated_Source\PSoC5/Comp_1.c ****     
 689              		.loc 1 169 0
 690 000a 1032     		adds	r2, r2, #16
 691 000c 1378     		ldrb	r3, [r2]	@ zero_extendqisi2
 692 000e 03F0FB03 		and	r3, r3, #251
 693 0012 1370     		strb	r3, [r2]
 694 0014 7047     		bx	lr
 695              	.L19:
 696 0016 00BF     		.align	2
 697              	.L18:
 698 0018 A7430040 		.word	1073759143
 699              		.cfi_endproc
 700              	.LFE3:
 701              		.size	Comp_1_Stop, .-Comp_1_Stop
 702              		.section	.text.Comp_1_SetSpeed,"ax",%progbits
 703              		.align	2
 704              		.global	Comp_1_SetSpeed
 705              		.thumb
 706              		.thumb_func
 707              		.type	Comp_1_SetSpeed, %function
 708              	Comp_1_SetSpeed:
 709              	.LFB4:
 198:Generated_Source\PSoC5/Comp_1.c ****     /* Clear and Set power level */    
 710              		.loc 1 198 0
 711              		.cfi_startproc
 712              		@ args = 0, pretend = 0, frame = 0
 713              		@ frame_needed = 0, uses_anonymous_args = 0
 714              		@ link register save eliminated.
 715              	.LVL8:
 200:Generated_Source\PSoC5/Comp_1.c ****                            (speed & Comp_1_PWR_MODE_MASK);
 716              		.loc 1 200 0
 717 0000 0F49     		ldr	r1, .L23
 718 0002 0B78     		ldrb	r3, [r1]	@ zero_extendqisi2
 719 0004 03F0FC02 		and	r2, r3, #252
 720 0008 00F00303 		and	r3, r0, #3
 721 000c 1343     		orrs	r3, r3, r2
 722 000e 0B70     		strb	r3, [r1]
 204:Generated_Source\PSoC5/Comp_1.c ****     {
 723              		.loc 1 204 0
 724 0010 0128     		cmp	r0, #1
 725 0012 0AD1     		bne	.L21
 213:Generated_Source\PSoC5/Comp_1.c ****             Comp_1_TR1 = Comp_1_HS_TRIM_TR1;
 726              		.loc 1 213 0
 727 0014 0B4B     		ldr	r3, .L23+4
 728 0016 1B78     		ldrb	r3, [r3]	@ zero_extendqisi2
 729 0018 DBB2     		uxtb	r3, r3
 730 001a 0B4A     		ldr	r2, .L23+8
 731 001c 1370     		strb	r3, [r2]
 214:Generated_Source\PSoC5/Comp_1.c ****         #endif /* CY_PSOC3 || CY_PSOC5LP */
 732              		.loc 1 214 0
 733 001e 0B4B     		ldr	r3, .L23+12
 734 0020 1B78     		ldrb	r3, [r3]	@ zero_extendqisi2
 735 0022 DBB2     		uxtb	r3, r3
 736 0024 0132     		adds	r2, r2, #1
ARM GAS  C:\Users\Luggi\AppData\Local\Temp\ccP9NNOM.s 			page 51


 737 0026 1370     		strb	r3, [r2]
 738 0028 7047     		bx	lr
 739              	.L21:
 226:Generated_Source\PSoC5/Comp_1.c ****             Comp_1_TR1 = Comp_1_LS_TRIM_TR1;
 740              		.loc 1 226 0
 741 002a 094B     		ldr	r3, .L23+16
 742 002c 1B78     		ldrb	r3, [r3]	@ zero_extendqisi2
 743 002e DBB2     		uxtb	r3, r3
 744 0030 054A     		ldr	r2, .L23+8
 745 0032 1370     		strb	r3, [r2]
 227:Generated_Source\PSoC5/Comp_1.c ****         #endif /* CY_PSOC3 || CY_PSOC5LP */
 746              		.loc 1 227 0
 747 0034 074B     		ldr	r3, .L23+20
 748 0036 1B78     		ldrb	r3, [r3]	@ zero_extendqisi2
 749 0038 DBB2     		uxtb	r3, r3
 750 003a 0132     		adds	r2, r2, #1
 751 003c 1370     		strb	r3, [r2]
 752 003e 7047     		bx	lr
 753              	.L24:
 754              		.align	2
 755              	.L23:
 756 0040 42580040 		.word	1073764418
 757 0044 12010049 		.word	1224737042
 758 0048 34460040 		.word	1073759796
 759 004c 16010049 		.word	1224737046
 760 0050 B1010049 		.word	1224737201
 761 0054 B9010049 		.word	1224737209
 762              		.cfi_endproc
 763              	.LFE4:
 764              		.size	Comp_1_SetSpeed, .-Comp_1_SetSpeed
 765              		.section	.text.Comp_1_Init,"ax",%progbits
 766              		.align	2
 767              		.global	Comp_1_Init
 768              		.thumb
 769              		.thumb_func
 770              		.type	Comp_1_Init, %function
 771              	Comp_1_Init:
 772              	.LFB0:
  52:Generated_Source\PSoC5/Comp_1.c ****     /* Set default speed/power */
 773              		.loc 1 52 0
 774              		.cfi_startproc
 775              		@ args = 0, pretend = 0, frame = 0
 776              		@ frame_needed = 0, uses_anonymous_args = 0
 777 0000 08B5     		push	{r3, lr}
 778              		.cfi_def_cfa_offset 8
 779              		.cfi_offset 3, -8
 780              		.cfi_offset 14, -4
  54:Generated_Source\PSoC5/Comp_1.c **** 
 781              		.loc 1 54 0
 782 0002 0120     		movs	r0, #1
 783 0004 FFF7FEFF 		bl	Comp_1_SetSpeed
 784              	.LVL9:
  60:Generated_Source\PSoC5/Comp_1.c ****     #endif /* Comp_1_DEFAULT_HYSTERESIS == 0u */
 785              		.loc 1 60 0
 786 0008 0B4B     		ldr	r3, .L27
 787 000a 1A78     		ldrb	r2, [r3]	@ zero_extendqisi2
 788 000c 02F0DF02 		and	r2, r2, #223
ARM GAS  C:\Users\Luggi\AppData\Local\Temp\ccP9NNOM.s 			page 52


 789 0010 1A70     		strb	r2, [r3]
  66:Generated_Source\PSoC5/Comp_1.c ****         #else 
 790              		.loc 1 66 0
 791 0012 1A78     		ldrb	r2, [r3]	@ zero_extendqisi2
 792 0014 02F0FB02 		and	r2, r2, #251
 793 0018 1A70     		strb	r2, [r3]
  73:Generated_Source\PSoC5/Comp_1.c **** 
 794              		.loc 1 73 0
 795 001a 1A78     		ldrb	r2, [r3]	@ zero_extendqisi2
 796 001c 42F00802 		orr	r2, r2, #8
 797 0020 1A70     		strb	r2, [r3]
  76:Generated_Source\PSoC5/Comp_1.c ****     #if ( Comp_1_DEFAULT_BYPASS_SYNC == 0u )
 798              		.loc 1 76 0
 799 0022 03F29523 		addw	r3, r3, #661
 800 0026 1A78     		ldrb	r2, [r3]	@ zero_extendqisi2
 801 0028 02F0E702 		and	r2, r2, #231
 802 002c 1A70     		strb	r2, [r3]
  80:Generated_Source\PSoC5/Comp_1.c ****     #endif /* Comp_1_DEFAULT_BYPASS_SYNC == 0u */
 803              		.loc 1 80 0
 804 002e 1A78     		ldrb	r2, [r3]	@ zero_extendqisi2
 805 0030 42F01002 		orr	r2, r2, #16
 806 0034 1A70     		strb	r2, [r3]
 807 0036 08BD     		pop	{r3, pc}
 808              	.L28:
 809              		.align	2
 810              	.L27:
 811 0038 42580040 		.word	1073764418
 812              		.cfi_endproc
 813              	.LFE0:
 814              		.size	Comp_1_Init, .-Comp_1_Init
 815              		.section	.text.Comp_1_Start,"ax",%progbits
 816              		.align	2
 817              		.global	Comp_1_Start
 818              		.thumb
 819              		.thumb_func
 820              		.type	Comp_1_Start, %function
 821              	Comp_1_Start:
 822              	.LFB2:
 137:Generated_Source\PSoC5/Comp_1.c **** 
 823              		.loc 1 137 0
 824              		.cfi_startproc
 825              		@ args = 0, pretend = 0, frame = 0
 826              		@ frame_needed = 0, uses_anonymous_args = 0
 827 0000 08B5     		push	{r3, lr}
 828              		.cfi_def_cfa_offset 8
 829              		.cfi_offset 3, -8
 830              		.cfi_offset 14, -4
 139:Generated_Source\PSoC5/Comp_1.c ****     {
 831              		.loc 1 139 0
 832 0002 054B     		ldr	r3, .L32
 833 0004 1B78     		ldrb	r3, [r3]	@ zero_extendqisi2
 834 0006 23B9     		cbnz	r3, .L30
 141:Generated_Source\PSoC5/Comp_1.c ****         
 835              		.loc 1 141 0
 836 0008 FFF7FEFF 		bl	Comp_1_Init
 837              	.LVL10:
 143:Generated_Source\PSoC5/Comp_1.c ****     }   
ARM GAS  C:\Users\Luggi\AppData\Local\Temp\ccP9NNOM.s 			page 53


 838              		.loc 1 143 0
 839 000c 0122     		movs	r2, #1
 840 000e 024B     		ldr	r3, .L32
 841 0010 1A70     		strb	r2, [r3]
 842              	.L30:
 147:Generated_Source\PSoC5/Comp_1.c **** }
 843              		.loc 1 147 0
 844 0012 FFF7FEFF 		bl	Comp_1_Enable
 845              	.LVL11:
 846 0016 08BD     		pop	{r3, pc}
 847              	.L33:
 848              		.align	2
 849              	.L32:
 850 0018 00000000 		.word	.LANCHOR0
 851              		.cfi_endproc
 852              	.LFE2:
 853              		.size	Comp_1_Start, .-Comp_1_Start
 854              		.section	.text.Comp_1_GetCompare,"ax",%progbits
 855              		.align	2
 856              		.global	Comp_1_GetCompare
 857              		.thumb
 858              		.thumb_func
 859              		.type	Comp_1_GetCompare, %function
 860              	Comp_1_GetCompare:
 861              	.LFB5:
 252:Generated_Source\PSoC5/Comp_1.c ****     return( Comp_1_WRK & Comp_1_CMP_OUT_MASK);
 862              		.loc 1 252 0
 863              		.cfi_startproc
 864              		@ args = 0, pretend = 0, frame = 0
 865              		@ frame_needed = 0, uses_anonymous_args = 0
 866              		@ link register save eliminated.
 253:Generated_Source\PSoC5/Comp_1.c **** }
 867              		.loc 1 253 0
 868 0000 024B     		ldr	r3, .L35
 869 0002 1878     		ldrb	r0, [r3]	@ zero_extendqisi2
 254:Generated_Source\PSoC5/Comp_1.c **** 
 870              		.loc 1 254 0
 871 0004 00F00400 		and	r0, r0, #4
 872 0008 7047     		bx	lr
 873              	.L36:
 874 000a 00BF     		.align	2
 875              	.L35:
 876 000c 965B0040 		.word	1073765270
 877              		.cfi_endproc
 878              	.LFE5:
 879              		.size	Comp_1_GetCompare, .-Comp_1_GetCompare
 880              		.section	.text.Comp_1_ZeroCal,"ax",%progbits
 881              		.align	2
 882              		.global	Comp_1_ZeroCal
 883              		.thumb
 884              		.thumb_func
 885              		.type	Comp_1_ZeroCal, %function
 886              	Comp_1_ZeroCal:
 887              	.LFB7:
 373:Generated_Source\PSoC5/Comp_1.c ****         {
 374:Generated_Source\PSoC5/Comp_1.c ****             break;      /* output changed state, trim phase is complete */
 375:Generated_Source\PSoC5/Comp_1.c ****         }        
ARM GAS  C:\Users\Luggi\AppData\Local\Temp\ccP9NNOM.s 			page 54


 376:Generated_Source\PSoC5/Comp_1.c ****     }    
 377:Generated_Source\PSoC5/Comp_1.c **** }
 378:Generated_Source\PSoC5/Comp_1.c **** 
 379:Generated_Source\PSoC5/Comp_1.c **** 
 380:Generated_Source\PSoC5/Comp_1.c **** /*******************************************************************************
 381:Generated_Source\PSoC5/Comp_1.c **** * Function Name: Comp_1_ZeroCal
 382:Generated_Source\PSoC5/Comp_1.c **** ********************************************************************************
 383:Generated_Source\PSoC5/Comp_1.c **** *
 384:Generated_Source\PSoC5/Comp_1.c **** * Summary:
 385:Generated_Source\PSoC5/Comp_1.c **** *  This function calibrates the offset of the Analog Comparator.
 386:Generated_Source\PSoC5/Comp_1.c **** *
 387:Generated_Source\PSoC5/Comp_1.c **** * Parameters:
 388:Generated_Source\PSoC5/Comp_1.c **** *  None
 389:Generated_Source\PSoC5/Comp_1.c **** *
 390:Generated_Source\PSoC5/Comp_1.c **** * Return:
 391:Generated_Source\PSoC5/Comp_1.c **** *  (uint16)  value written in trim register when calibration complete.
 392:Generated_Source\PSoC5/Comp_1.c **** *
 393:Generated_Source\PSoC5/Comp_1.c **** * Theory: 
 394:Generated_Source\PSoC5/Comp_1.c **** *  This function is used to optimize the calibration for user specific voltage
 395:Generated_Source\PSoC5/Comp_1.c **** *  range.  The comparator trim is adjusted to counter transistor offsets
 396:Generated_Source\PSoC5/Comp_1.c **** *   - offset is defined as positive if the output transitions to high before inP
 397:Generated_Source\PSoC5/Comp_1.c **** *     is greater than inN
 398:Generated_Source\PSoC5/Comp_1.c **** *   - offset is defined as negative if the output transitions to high after inP
 399:Generated_Source\PSoC5/Comp_1.c **** *     is greater than inP
 400:Generated_Source\PSoC5/Comp_1.c **** *
 401:Generated_Source\PSoC5/Comp_1.c **** *  PSoC5A
 402:Generated_Source\PSoC5/Comp_1.c **** *  The Analog Comparator provides 1 byte for offset trim.  The byte contains two
 403:Generated_Source\PSoC5/Comp_1.c **** *  4 bit trim fields - one is a course trim and the other allows smaller
 404:Generated_Source\PSoC5/Comp_1.c **** *  offset adjustments only for slow modes.
 405:Generated_Source\PSoC5/Comp_1.c **** *  - low nibble - fine trim
 406:Generated_Source\PSoC5/Comp_1.c **** *  - high nibble - course trim
 407:Generated_Source\PSoC5/Comp_1.c **** *  PSoC3, PSoC5LP or later
 408:Generated_Source\PSoC5/Comp_1.c **** *  The Analog Comparator provides 2 bytes for offset trim.  The bytes contain two
 409:Generated_Source\PSoC5/Comp_1.c **** *  5 bit trim fields - one is a course trim and the other allows smaller
 410:Generated_Source\PSoC5/Comp_1.c **** *  offset adjustments only for slow modes.
 411:Generated_Source\PSoC5/Comp_1.c **** *  - TR0 - fine trim
 412:Generated_Source\PSoC5/Comp_1.c **** *  - TR1 - course trim
 413:Generated_Source\PSoC5/Comp_1.c **** *
 414:Generated_Source\PSoC5/Comp_1.c **** *  Trim algorithm is a two phase process
 415:Generated_Source\PSoC5/Comp_1.c **** *  The first phase performs course offset adjustment
 416:Generated_Source\PSoC5/Comp_1.c **** *  The second phase serves one of two purposes depending on the outcome of the
 417:Generated_Source\PSoC5/Comp_1.c **** *  first phase
 418:Generated_Source\PSoC5/Comp_1.c **** *  - if the first trim value was maxed out without a comparator output 
 419:Generated_Source\PSoC5/Comp_1.c **** *    transition, more offset will be added by adjusting the second trim value.
 420:Generated_Source\PSoC5/Comp_1.c **** *  - if the first trim phase resulted in a comparator output transition, the
 421:Generated_Source\PSoC5/Comp_1.c **** *    second trim value will serve as fine trim (in the opposite direction)to
 422:Generated_Source\PSoC5/Comp_1.c **** *    ensure the offset is < 1 mV.
 423:Generated_Source\PSoC5/Comp_1.c **** *
 424:Generated_Source\PSoC5/Comp_1.c **** * Trim Process:   
 425:Generated_Source\PSoC5/Comp_1.c **** *  1) User applies a voltage to the negative input.  Voltage should be in the
 426:Generated_Source\PSoC5/Comp_1.c **** *     comparator operating range or an average of the operating voltage range.
 427:Generated_Source\PSoC5/Comp_1.c **** *  2) Clear registers associated with analog routing to the positive input.
 428:Generated_Source\PSoC5/Comp_1.c **** *  3) Disable Hysteresis
 429:Generated_Source\PSoC5/Comp_1.c **** *  4) Set the calibration bit to short the negative and positive inputs to
 430:Generated_Source\PSoC5/Comp_1.c **** *     the users calibration voltage.
 431:Generated_Source\PSoC5/Comp_1.c **** *  5) Clear the TR register  ( TR = 0x00 )
 432:Generated_Source\PSoC5/Comp_1.c **** *  ** LOW MODES
ARM GAS  C:\Users\Luggi\AppData\Local\Temp\ccP9NNOM.s 			page 55


 433:Generated_Source\PSoC5/Comp_1.c **** *  6) Check if compare output is high, if so, set the MSb of course trim field 
 434:Generated_Source\PSoC5/Comp_1.c **** *     to a 1.
 435:Generated_Source\PSoC5/Comp_1.c **** *  7) Increment the course trim field until the compare output changes
 436:Generated_Source\PSoC5/Comp_1.c **** *  8) Check if compare output is low, if so, set the MSb of fine trim field
 437:Generated_Source\PSoC5/Comp_1.c **** *     to a 1.
 438:Generated_Source\PSoC5/Comp_1.c **** *  9) Increment the fine trim field until the compare output changes
 439:Generated_Source\PSoC5/Comp_1.c **** *  ** FAST MODE - skip the steps 8,9
 440:Generated_Source\PSoC5/Comp_1.c **** *
 441:Generated_Source\PSoC5/Comp_1.c **** * Side Effects:
 442:Generated_Source\PSoC5/Comp_1.c **** *  Routine clears analog routing associated with the comparator positive input.  
 443:Generated_Source\PSoC5/Comp_1.c **** *  This may affect routing of signals from other components that are connected
 444:Generated_Source\PSoC5/Comp_1.c **** *  to the positive input of the comparator.
 445:Generated_Source\PSoC5/Comp_1.c **** *
 446:Generated_Source\PSoC5/Comp_1.c **** *******************************************************************************/
 447:Generated_Source\PSoC5/Comp_1.c **** uint16 Comp_1_ZeroCal(void) 
 448:Generated_Source\PSoC5/Comp_1.c **** {
 888              		.loc 1 448 0
 889              		.cfi_startproc
 890              		@ args = 0, pretend = 0, frame = 0
 891              		@ frame_needed = 0, uses_anonymous_args = 0
 892 0000 F8B5     		push	{r3, r4, r5, r6, r7, lr}
 893              		.cfi_def_cfa_offset 24
 894              		.cfi_offset 3, -24
 895              		.cfi_offset 4, -20
 896              		.cfi_offset 5, -16
 897              		.cfi_offset 6, -12
 898              		.cfi_offset 7, -8
 899              		.cfi_offset 14, -4
 449:Generated_Source\PSoC5/Comp_1.c ****     uint8 tmpSW0;
 450:Generated_Source\PSoC5/Comp_1.c ****     uint8 tmpSW2;
 451:Generated_Source\PSoC5/Comp_1.c ****     uint8 tmpSW3;
 452:Generated_Source\PSoC5/Comp_1.c ****     uint8 tmpCR;
 453:Generated_Source\PSoC5/Comp_1.c **** 
 454:Generated_Source\PSoC5/Comp_1.c ****     /* Save a copy of routing registers associated with inP */
 455:Generated_Source\PSoC5/Comp_1.c ****     tmpSW0 = Comp_1_SW0;
 900              		.loc 1 455 0
 901 0002 1E48     		ldr	r0, .L41
 902 0004 0678     		ldrb	r6, [r0]	@ zero_extendqisi2
 903 0006 F6B2     		uxtb	r6, r6
 904              	.LVL12:
 456:Generated_Source\PSoC5/Comp_1.c ****     tmpSW2 = Comp_1_SW2;
 905              		.loc 1 456 0
 906 0008 1D49     		ldr	r1, .L41+4
 907 000a 0D78     		ldrb	r5, [r1]	@ zero_extendqisi2
 908 000c EDB2     		uxtb	r5, r5
 909              	.LVL13:
 457:Generated_Source\PSoC5/Comp_1.c ****     tmpSW3 = Comp_1_SW3;
 910              		.loc 1 457 0
 911 000e 1D4B     		ldr	r3, .L41+8
 912 0010 1C78     		ldrb	r4, [r3]	@ zero_extendqisi2
 913 0012 E4B2     		uxtb	r4, r4
 914              	.LVL14:
 458:Generated_Source\PSoC5/Comp_1.c **** 
 459:Generated_Source\PSoC5/Comp_1.c ****      /* Clear routing for inP, retain routing for inN */
 460:Generated_Source\PSoC5/Comp_1.c ****     Comp_1_SW0 = 0x00u;
 915              		.loc 1 460 0
 916 0014 0022     		movs	r2, #0
ARM GAS  C:\Users\Luggi\AppData\Local\Temp\ccP9NNOM.s 			page 56


 917 0016 0270     		strb	r2, [r0]
 461:Generated_Source\PSoC5/Comp_1.c ****     Comp_1_SW2 = 0x00u;
 918              		.loc 1 461 0
 919 0018 0A70     		strb	r2, [r1]
 462:Generated_Source\PSoC5/Comp_1.c ****     Comp_1_SW3 = tmpSW3 & (uint8)(~Comp_1_CMP_SW3_INPCTL_MASK);
 920              		.loc 1 462 0
 921 001a 04F0F601 		and	r1, r4, #246
 922 001e 1970     		strb	r1, [r3]
 463:Generated_Source\PSoC5/Comp_1.c **** 
 464:Generated_Source\PSoC5/Comp_1.c ****     /* Preserve original configuration
 465:Generated_Source\PSoC5/Comp_1.c ****      * - turn off Hysteresis
 466:Generated_Source\PSoC5/Comp_1.c ****      * - set calibration bit - shorts inN to inP
 467:Generated_Source\PSoC5/Comp_1.c ****     */
 468:Generated_Source\PSoC5/Comp_1.c ****     tmpCR = Comp_1_CR;
 923              		.loc 1 468 0
 924 0020 A3F29123 		subw	r3, r3, #657
 925 0024 1F78     		ldrb	r7, [r3]	@ zero_extendqisi2
 926 0026 FFB2     		uxtb	r7, r7
 927              	.LVL15:
 469:Generated_Source\PSoC5/Comp_1.c ****     Comp_1_CR |= (Comp_1_CAL_ON | Comp_1_HYST_OFF);
 928              		.loc 1 469 0
 929 0028 1978     		ldrb	r1, [r3]	@ zero_extendqisi2
 930 002a 41F03001 		orr	r1, r1, #48
 931 002e 1970     		strb	r1, [r3]
 470:Generated_Source\PSoC5/Comp_1.c ****     
 471:Generated_Source\PSoC5/Comp_1.c ****     /* Write default low values to trim register - no offset adjust */
 472:Generated_Source\PSoC5/Comp_1.c ****     /* PSoC5A */
 473:Generated_Source\PSoC5/Comp_1.c ****     #if (CY_PSOC5A)
 474:Generated_Source\PSoC5/Comp_1.c ****         Comp_1_TR = Comp_1_DEFAULT_CMP_TRIM;
 475:Generated_Source\PSoC5/Comp_1.c ****     #endif /* CY_PSOC5A */
 476:Generated_Source\PSoC5/Comp_1.c ****     
 477:Generated_Source\PSoC5/Comp_1.c ****     /* PSoC3, PSoC5LP or later */
 478:Generated_Source\PSoC5/Comp_1.c ****     #if (CY_PSOC3 || CY_PSOC5LP)
 479:Generated_Source\PSoC5/Comp_1.c ****         Comp_1_TR0 = Comp_1_DEFAULT_CMP_TRIM;
 932              		.loc 1 479 0
 933 0030 1549     		ldr	r1, .L41+12
 934 0032 0A70     		strb	r2, [r1]
 480:Generated_Source\PSoC5/Comp_1.c ****         Comp_1_TR1 = Comp_1_DEFAULT_CMP_TRIM;
 935              		.loc 1 480 0
 936 0034 0131     		adds	r1, r1, #1
 937 0036 0A70     		strb	r2, [r1]
 481:Generated_Source\PSoC5/Comp_1.c ****     #endif /* CY_PSOC3 || CY_PSOC5LP */
 482:Generated_Source\PSoC5/Comp_1.c **** 	
 483:Generated_Source\PSoC5/Comp_1.c **** 	/* Two phase trim - slow modes, one phase trim - for fast */ 
 484:Generated_Source\PSoC5/Comp_1.c ****     if ( (Comp_1_CR & Comp_1_PWR_MODE_MASK) == Comp_1_PWR_MODE_FAST)
 938              		.loc 1 484 0
 939 0038 1B78     		ldrb	r3, [r3]	@ zero_extendqisi2
 940 003a 03F00303 		and	r3, r3, #3
 941 003e 012B     		cmp	r3, #1
 942 0040 03D1     		bne	.L38
 485:Generated_Source\PSoC5/Comp_1.c ****     {
 486:Generated_Source\PSoC5/Comp_1.c ****         Comp_1_trimAdjust(0u);
 943              		.loc 1 486 0
 944 0042 1046     		mov	r0, r2
 945 0044 FFF7FEFF 		bl	Comp_1_trimAdjust
 946              	.LVL16:
 947 0048 05E0     		b	.L39
ARM GAS  C:\Users\Luggi\AppData\Local\Temp\ccP9NNOM.s 			page 57


 948              	.L38:
 487:Generated_Source\PSoC5/Comp_1.c ****     }
 488:Generated_Source\PSoC5/Comp_1.c ****     else /* default to trim for fast modes */
 489:Generated_Source\PSoC5/Comp_1.c ****     {
 490:Generated_Source\PSoC5/Comp_1.c ****         Comp_1_trimAdjust(1u);
 949              		.loc 1 490 0
 950 004a 0120     		movs	r0, #1
 951 004c FFF7FEFF 		bl	Comp_1_trimAdjust
 952              	.LVL17:
 491:Generated_Source\PSoC5/Comp_1.c **** 		Comp_1_trimAdjust(0u);
 953              		.loc 1 491 0
 954 0050 0020     		movs	r0, #0
 955 0052 FFF7FEFF 		bl	Comp_1_trimAdjust
 956              	.LVL18:
 957              	.L39:
 492:Generated_Source\PSoC5/Comp_1.c ****     }
 493:Generated_Source\PSoC5/Comp_1.c ****    
 494:Generated_Source\PSoC5/Comp_1.c ****     /* Restore Config Register */
 495:Generated_Source\PSoC5/Comp_1.c ****     Comp_1_CR = tmpCR;
 958              		.loc 1 495 0
 959 0056 0D4B     		ldr	r3, .L41+16
 960 0058 1F70     		strb	r7, [r3]
 496:Generated_Source\PSoC5/Comp_1.c ****     
 497:Generated_Source\PSoC5/Comp_1.c ****     /* Restore routing registers for inP */
 498:Generated_Source\PSoC5/Comp_1.c ****     Comp_1_SW0 = tmpSW0;
 961              		.loc 1 498 0
 962 005a 03F28E23 		addw	r3, r3, #654
 963 005e 1E70     		strb	r6, [r3]
 499:Generated_Source\PSoC5/Comp_1.c ****     Comp_1_SW2 = tmpSW2;
 964              		.loc 1 499 0
 965 0060 0233     		adds	r3, r3, #2
 966 0062 1D70     		strb	r5, [r3]
 500:Generated_Source\PSoC5/Comp_1.c ****     Comp_1_SW3 = tmpSW3;
 967              		.loc 1 500 0
 968 0064 0133     		adds	r3, r3, #1
 969 0066 1C70     		strb	r4, [r3]
 501:Generated_Source\PSoC5/Comp_1.c ****     
 502:Generated_Source\PSoC5/Comp_1.c ****     /* PSoC5A */
 503:Generated_Source\PSoC5/Comp_1.c ****     #if (CY_PSOC5A)
 504:Generated_Source\PSoC5/Comp_1.c ****         return (uint16) Comp_1_TR;
 505:Generated_Source\PSoC5/Comp_1.c ****     #endif /* CY_PSOC5A */
 506:Generated_Source\PSoC5/Comp_1.c ****     
 507:Generated_Source\PSoC5/Comp_1.c ****     /* PSoC3, PSoC5LP or later */
 508:Generated_Source\PSoC5/Comp_1.c ****     #if (CY_PSOC3 || CY_PSOC5LP)
 509:Generated_Source\PSoC5/Comp_1.c ****         return ((uint16)((uint16)Comp_1_TR1 << 8u) | (Comp_1_TR0));        
 970              		.loc 1 509 0
 971 0068 A3F5A453 		sub	r3, r3, #5248
 972 006c 1E3B     		subs	r3, r3, #30
 973 006e 1878     		ldrb	r0, [r3]	@ zero_extendqisi2
 974 0070 013B     		subs	r3, r3, #1
 975 0072 1B78     		ldrb	r3, [r3]	@ zero_extendqisi2
 510:Generated_Source\PSoC5/Comp_1.c ****     #endif /* CY_PSOC3 || CY_PSOC5LP */
 511:Generated_Source\PSoC5/Comp_1.c **** }
 976              		.loc 1 511 0
 977 0074 43EA0020 		orr	r0, r3, r0, lsl #8
 978 0078 F8BD     		pop	{r3, r4, r5, r6, r7, pc}
 979              	.LVL19:
ARM GAS  C:\Users\Luggi\AppData\Local\Temp\ccP9NNOM.s 			page 58


 980              	.L42:
 981 007a 00BF     		.align	2
 982              	.L41:
 983 007c D05A0040 		.word	1073765072
 984 0080 D25A0040 		.word	1073765074
 985 0084 D35A0040 		.word	1073765075
 986 0088 34460040 		.word	1073759796
 987 008c 42580040 		.word	1073764418
 988              		.cfi_endproc
 989              	.LFE7:
 990              		.size	Comp_1_ZeroCal, .-Comp_1_ZeroCal
 991              		.section	.text.Comp_1_LoadTrim,"ax",%progbits
 992              		.align	2
 993              		.global	Comp_1_LoadTrim
 994              		.thumb
 995              		.thumb_func
 996              		.type	Comp_1_LoadTrim, %function
 997              	Comp_1_LoadTrim:
 998              	.LFB8:
 512:Generated_Source\PSoC5/Comp_1.c **** 
 513:Generated_Source\PSoC5/Comp_1.c **** 
 514:Generated_Source\PSoC5/Comp_1.c **** /*******************************************************************************
 515:Generated_Source\PSoC5/Comp_1.c **** * Function Name: Comp_1_LoadTrim
 516:Generated_Source\PSoC5/Comp_1.c **** ********************************************************************************
 517:Generated_Source\PSoC5/Comp_1.c **** *
 518:Generated_Source\PSoC5/Comp_1.c **** * Summary:
 519:Generated_Source\PSoC5/Comp_1.c **** *  This function stores a value in the Analog Comparator trim register.
 520:Generated_Source\PSoC5/Comp_1.c **** *
 521:Generated_Source\PSoC5/Comp_1.c **** * Parameters:  
 522:Generated_Source\PSoC5/Comp_1.c **** *  uint8 trimVal - trim value.  This value is the same format as the value 
 523:Generated_Source\PSoC5/Comp_1.c **** *  returned by the _ZeroCal routine.
 524:Generated_Source\PSoC5/Comp_1.c **** *
 525:Generated_Source\PSoC5/Comp_1.c **** * Return:
 526:Generated_Source\PSoC5/Comp_1.c **** *  None
 527:Generated_Source\PSoC5/Comp_1.c **** *
 528:Generated_Source\PSoC5/Comp_1.c **** *******************************************************************************/
 529:Generated_Source\PSoC5/Comp_1.c **** void Comp_1_LoadTrim(uint16 trimVal) 
 530:Generated_Source\PSoC5/Comp_1.c **** {
 999              		.loc 1 530 0
 1000              		.cfi_startproc
 1001              		@ args = 0, pretend = 0, frame = 0
 1002              		@ frame_needed = 0, uses_anonymous_args = 0
 1003              		@ link register save eliminated.
 1004              	.LVL20:
 531:Generated_Source\PSoC5/Comp_1.c ****     /* Stores value in the Analog Comparator trim register */
 532:Generated_Source\PSoC5/Comp_1.c ****     /* PSoC5A */
 533:Generated_Source\PSoC5/Comp_1.c ****     #if (CY_PSOC5A)
 534:Generated_Source\PSoC5/Comp_1.c ****         Comp_1_TR = (uint8) trimVal;
 535:Generated_Source\PSoC5/Comp_1.c ****     #endif /* CY_PSOC5A */
 536:Generated_Source\PSoC5/Comp_1.c ****     
 537:Generated_Source\PSoC5/Comp_1.c ****     /* PSoC3, PSoC5LP or later */
 538:Generated_Source\PSoC5/Comp_1.c ****     #if (CY_PSOC3 || CY_PSOC5LP)
 539:Generated_Source\PSoC5/Comp_1.c ****         /* Stores value in the Analog Comparator trim register for P-type load */
 540:Generated_Source\PSoC5/Comp_1.c ****         Comp_1_TR0 = (uint8) trimVal;
 1005              		.loc 1 540 0
 1006 0000 C2B2     		uxtb	r2, r0
 1007 0002 034B     		ldr	r3, .L44
ARM GAS  C:\Users\Luggi\AppData\Local\Temp\ccP9NNOM.s 			page 59


 1008 0004 1A70     		strb	r2, [r3]
 541:Generated_Source\PSoC5/Comp_1.c ****         
 542:Generated_Source\PSoC5/Comp_1.c ****         /* Stores value in the Analog Comparator trim register for N-type load */
 543:Generated_Source\PSoC5/Comp_1.c ****         Comp_1_TR1 = (uint8) (trimVal >> 8); 
 1009              		.loc 1 543 0
 1010 0006 000A     		lsrs	r0, r0, #8
 1011              	.LVL21:
 1012 0008 0133     		adds	r3, r3, #1
 1013 000a 1870     		strb	r0, [r3]
 1014 000c 7047     		bx	lr
 1015              	.L45:
 1016 000e 00BF     		.align	2
 1017              	.L44:
 1018 0010 34460040 		.word	1073759796
 1019              		.cfi_endproc
 1020              	.LFE8:
 1021              		.size	Comp_1_LoadTrim, .-Comp_1_LoadTrim
 1022              		.section	.text.Comp_1_PwrDwnOverrideEnable,"ax",%progbits
 1023              		.align	2
 1024              		.global	Comp_1_PwrDwnOverrideEnable
 1025              		.thumb
 1026              		.thumb_func
 1027              		.type	Comp_1_PwrDwnOverrideEnable, %function
 1028              	Comp_1_PwrDwnOverrideEnable:
 1029              	.LFB9:
 544:Generated_Source\PSoC5/Comp_1.c ****     #endif /* CY_PSOC3 || CY_PSOC5LP */
 545:Generated_Source\PSoC5/Comp_1.c **** }
 546:Generated_Source\PSoC5/Comp_1.c **** 
 547:Generated_Source\PSoC5/Comp_1.c **** 
 548:Generated_Source\PSoC5/Comp_1.c **** #if (CY_PSOC3 || CY_PSOC5LP)
 549:Generated_Source\PSoC5/Comp_1.c **** 
 550:Generated_Source\PSoC5/Comp_1.c ****     /*******************************************************************************
 551:Generated_Source\PSoC5/Comp_1.c ****     * Function Name: Comp_1_PwrDwnOverrideEnable
 552:Generated_Source\PSoC5/Comp_1.c ****     ********************************************************************************
 553:Generated_Source\PSoC5/Comp_1.c ****     *
 554:Generated_Source\PSoC5/Comp_1.c ****     * Summary:
 555:Generated_Source\PSoC5/Comp_1.c ****     *  This is the power down over-ride feature. This function ignores sleep 
 556:Generated_Source\PSoC5/Comp_1.c ****     *  parameter and allows the component to stay active during sleep mode.
 557:Generated_Source\PSoC5/Comp_1.c ****     *
 558:Generated_Source\PSoC5/Comp_1.c ****     * Parameters:
 559:Generated_Source\PSoC5/Comp_1.c ****     *  None
 560:Generated_Source\PSoC5/Comp_1.c ****     *
 561:Generated_Source\PSoC5/Comp_1.c ****     * Return:
 562:Generated_Source\PSoC5/Comp_1.c ****     *  None
 563:Generated_Source\PSoC5/Comp_1.c ****     *
 564:Generated_Source\PSoC5/Comp_1.c ****     *******************************************************************************/
 565:Generated_Source\PSoC5/Comp_1.c ****     void Comp_1_PwrDwnOverrideEnable(void) 
 566:Generated_Source\PSoC5/Comp_1.c ****     {
 1030              		.loc 1 566 0
 1031              		.cfi_startproc
 1032              		@ args = 0, pretend = 0, frame = 0
 1033              		@ frame_needed = 0, uses_anonymous_args = 0
 1034              		@ link register save eliminated.
 567:Generated_Source\PSoC5/Comp_1.c ****         /* Set the pd_override bit in CMP_CR register */
 568:Generated_Source\PSoC5/Comp_1.c ****         Comp_1_CR |= Comp_1_PWRDWN_OVRD;
 1035              		.loc 1 568 0
 1036 0000 024A     		ldr	r2, .L47
ARM GAS  C:\Users\Luggi\AppData\Local\Temp\ccP9NNOM.s 			page 60


 1037 0002 1378     		ldrb	r3, [r2]	@ zero_extendqisi2
 1038 0004 43F00403 		orr	r3, r3, #4
 1039 0008 1370     		strb	r3, [r2]
 1040 000a 7047     		bx	lr
 1041              	.L48:
 1042              		.align	2
 1043              	.L47:
 1044 000c 42580040 		.word	1073764418
 1045              		.cfi_endproc
 1046              	.LFE9:
 1047              		.size	Comp_1_PwrDwnOverrideEnable, .-Comp_1_PwrDwnOverrideEnable
 1048              		.section	.text.Comp_1_PwrDwnOverrideDisable,"ax",%progbits
 1049              		.align	2
 1050              		.global	Comp_1_PwrDwnOverrideDisable
 1051              		.thumb
 1052              		.thumb_func
 1053              		.type	Comp_1_PwrDwnOverrideDisable, %function
 1054              	Comp_1_PwrDwnOverrideDisable:
 1055              	.LFB10:
 569:Generated_Source\PSoC5/Comp_1.c ****     }
 570:Generated_Source\PSoC5/Comp_1.c **** 
 571:Generated_Source\PSoC5/Comp_1.c **** 
 572:Generated_Source\PSoC5/Comp_1.c ****     /*******************************************************************************
 573:Generated_Source\PSoC5/Comp_1.c ****     * Function Name: Comp_1_PwrDwnOverrideDisable
 574:Generated_Source\PSoC5/Comp_1.c ****     ********************************************************************************
 575:Generated_Source\PSoC5/Comp_1.c ****     *
 576:Generated_Source\PSoC5/Comp_1.c ****     * Summary:
 577:Generated_Source\PSoC5/Comp_1.c ****     *  This is the power down over-ride feature. This allows the component to stay
 578:Generated_Source\PSoC5/Comp_1.c ****     *  inactive during sleep.
 579:Generated_Source\PSoC5/Comp_1.c ****     *
 580:Generated_Source\PSoC5/Comp_1.c ****     * Parameters:
 581:Generated_Source\PSoC5/Comp_1.c ****     *  None
 582:Generated_Source\PSoC5/Comp_1.c ****     *
 583:Generated_Source\PSoC5/Comp_1.c ****     * Return:
 584:Generated_Source\PSoC5/Comp_1.c ****     *  None
 585:Generated_Source\PSoC5/Comp_1.c ****     *
 586:Generated_Source\PSoC5/Comp_1.c ****     *******************************************************************************/
 587:Generated_Source\PSoC5/Comp_1.c ****     void Comp_1_PwrDwnOverrideDisable(void) 
 588:Generated_Source\PSoC5/Comp_1.c ****     {
 1056              		.loc 1 588 0
 1057              		.cfi_startproc
 1058              		@ args = 0, pretend = 0, frame = 0
 1059              		@ frame_needed = 0, uses_anonymous_args = 0
 1060              		@ link register save eliminated.
 589:Generated_Source\PSoC5/Comp_1.c ****         /* Reset the pd_override bit in CMP_CR register */
 590:Generated_Source\PSoC5/Comp_1.c ****         Comp_1_CR &= (uint8)(~Comp_1_PWRDWN_OVRD);
 1061              		.loc 1 590 0
 1062 0000 024A     		ldr	r2, .L50
 1063 0002 1378     		ldrb	r3, [r2]	@ zero_extendqisi2
 1064 0004 03F0FB03 		and	r3, r3, #251
 1065 0008 1370     		strb	r3, [r2]
 1066 000a 7047     		bx	lr
 1067              	.L51:
 1068              		.align	2
 1069              	.L50:
 1070 000c 42580040 		.word	1073764418
 1071              		.cfi_endproc
ARM GAS  C:\Users\Luggi\AppData\Local\Temp\ccP9NNOM.s 			page 61


 1072              	.LFE10:
 1073              		.size	Comp_1_PwrDwnOverrideDisable, .-Comp_1_PwrDwnOverrideDisable
 1074              		.global	Comp_1_initVar
 1075              		.bss
 1076              		.set	.LANCHOR0,. + 0
 1077              		.type	Comp_1_initVar, %object
 1078              		.size	Comp_1_initVar, 1
 1079              	Comp_1_initVar:
 1080 0000 00       		.space	1
 1081              		.text
 1082              	.Letext0:
 1083              		.file 2 "Generated_Source\\PSoC5\\cytypes.h"
 1084              		.file 3 "Generated_Source\\PSoC5\\CyLib.h"