ARM GAS  C:\Users\Luggi\AppData\Local\Temp\ccGS0Ofd.s 			page 1


   1              		.syntax unified
   2              		.cpu cortex-m3
   3              		.fpu softvfp
   4              		.eabi_attribute 20, 1
   5              		.eabi_attribute 21, 1
   6              		.eabi_attribute 23, 3
   7              		.eabi_attribute 24, 1
   8              		.eabi_attribute 25, 1
   9              		.eabi_attribute 26, 1
  10              		.eabi_attribute 30, 1
  11              		.eabi_attribute 34, 1
  12              		.eabi_attribute 18, 4
  13              		.thumb
  14              		.file	"Comp_4.c"
  15              		.text
  16              	.Ltext0:
  17              		.section	.gnu.lto_.profile.53c7c1b7,"",%progbits
  18 0000 789C6366 		.ascii	"x\234cf```c\200\000F\206K\214\035\214\000\004\376\001"
  18      60606063 
  18      80004686 
  18      4B8C1D8C 
  18      0004FE01 
  19 0014 67       		.ascii	"g"
  20              		.text
  21              		.section	.gnu.lto_.inline.53c7c1b7,"",%progbits
  22 0000 789C6366 		.ascii	"x\234cf\300\016r\030!47\003\203J\033\023#3C\306G&\306"
  22      C00E7218 
  22      21343703 
  22      834A1B13 
  22      233343C6 
  23 0017 C665BB7B 		.ascii	"\306e\273{\330_0\375d\002J0.g\224b`\310\204P@\305\254"
  23      D85F30FD 
  23      64024A30 
  23      2E679462 
  23      60C88450 
  24 002e 42874E71 		.ascii	"B\207Nq2\260-\220gb\340\2710\221Y\200A\340\306L&\016"
  24      32B02D90 
  24      6762E0B9 
  24      30915980 
  24      41E0C64C 
  25 0044 30C9C220 		.ascii	"0\311\302 \000\324\300\304\315\310\000\202\234\034\214"
  25      00D4C0C4 
  25      CDC80082 
  25      9C1C8C
  26 0053 0C4C3C0F 		.ascii	"\014L<\017b!jA\022\230B\314\014B\274P;\217\317}\261"
  26      62216A41 
  26      129842CC 
  26      0C42BC50 
  26      3B8FCF7D 
  27 0068 89056C27 		.ascii	"\211\005l'P\363\012\210\235+`vr\034\260\203\350a\373"
  27      50F30A88 
  27      9D2B6076 
  27      721CB083 
  27      E861FB
  28 007b A027C0C0 		.ascii	"\240'\300\300\321`\304\301\300\261\203\207\005d\004"
  28      D160C4C1 
  28      C0B18387 
ARM GAS  C:\Users\Luggi\AppData\Local\Temp\ccGS0Ofd.s 			page 2


  28      056404
  29 008a 0B83880C 		.ascii	"\013\203\210\014\320T\271\015\257\030\0216q\203\264"
  29      D054B90D 
  29      AF181136 
  29      7183B4
  30 0099 B132700A 		.ascii	"\2612p\012\003e8~\231\300%\030\271`\004;\003+\013P\222"
  30      0365387E 
  30      99C02518 
  30      B960043B 
  30      032B0B50 
  31 00ae 65813C5C 		.ascii	"e\201<\\\222\203AI\037(dt\241\215\031\315$d\022\350"
  31      92834149 
  31      1F286474 
  31      A18D19CD 
  31      246412E8 
  32 00c2 77564690 		.ascii	"wVF\220\377\030\230\341\232\231.\360\203\335\302\005"
  32      FF1898E1 
  32      9A992EF0 
  32      83DDC205 
  33 00d2 92636002 		.ascii	"\222c`\002:\022n\0007\246\020\003\000\302D16"
  33      3A126E00 
  33      37A61003 
  33      00C24431 
  33      36
  34              		.text
  35              		.section	.gnu.lto_.jmpfuncs.53c7c1b7,"",%progbits
  36 0000 789C6DCD 		.ascii	"x\234m\315=\016@P\020\004\340\231E<O\241wU\205\204["
  36      3D0E4050 
  36      1004E099 
  36      453C4FA1 
  36      77558584 
  37 0015 38809F7B 		.ascii	"8\200\237{\350\024\"\016\240Qh\225:o7J\333l2\363e7\302"
  37      E814220E 
  37      A0516895 
  37      3A6F374A 
  37      DB6C32F3 
  38 002c FF54DFCE 		.ascii	"\377T\337\316A\262\246\334\302f\231w\271\344\021zp`"
  38      41B2A6DC 
  38      C2669977 
  38      B9E4117A 
  38      7060
  39 003e 09020244 		.ascii	"\011\002\002D\012b\300\314q\256\233S\023\012\216\301"
  39      0A62C0CC 
  39      71AE9B53 
  39      130A8EC1 
  40 004e 247A2405 		.ascii	"$z$\005\234\002K\314m]\337\026\346\010N\226Z\231\351"
  40      9C024BCC 
  40      6D5DDF16 
  40      E6084E96 
  40      5A99E9
  41 0061 31AF6F81 		.ascii	"1\257o\201\027|Y\027\276"
  41      177C5917 
  41      BE
  42              		.text
  43              		.section	.gnu.lto_.pureconst.53c7c1b7,"",%progbits
  44 0000 789C6366 		.ascii	"x\234cf``\020g\200\000n\006)F)&)f)\026)V\011v)\016)"
  44      60601067 
ARM GAS  C:\Users\Luggi\AppData\Local\Temp\ccGS0Ofd.s 			page 3


  44      80006E06 
  44      29462926 
  44      29662916 
  45 001b 4E292E29 		.ascii	"N).)n)\000\022\\\001~"
  45      6E290012 
  45      5C017E
  46              		.text
  47              		.section	.gnu.lto_Comp_4_trimAdjust.53c7c1b7,"",%progbits
  48 0000 789C8D55 		.ascii	"x\234\215UkL\034U\024\276\347\316\356\314\354\354\260"
  48      6B4C1C55 
  48      14BEE7CE 
  48      EECCECEC 
  48      B0
  49 0011 B39062E8 		.ascii	"\263\220b\350\262F\023B\210\306\370\303\350?5&\304\370"
  49      B2461342 
  49      88C6F8C3 
  49      E83F3526 
  49      C4F8
  50 0023 CBA4093F 		.ascii	"\313\244\011?\374SS[\304\244\211@Ch\322?Mg\331\265\022"
  50      FC53535B 
  50      C4A48940 
  50      4368D23F 
  50      4D67D9B5 
  51 0038 43B0A94D 		.ascii	"C\260\251M\205*\246V\013\255KA\301\026\354\313\355\362"
  51      852AA656 
  51      0BAD4B41 
  51      C116ECCB 
  51      EDF2
  52 004a AA85422A 		.ascii	"\252\205B*\341Q\244H\244`\333\230\330f\011\217\364\261"
  52      E151A448 
  52      A460DB98 
  52      D866098F 
  52      F4B1
  53 005c 9E7BEEB0 		.ascii	"\236{\356\260l\200\0227\3313\263\347\234\357\234\357"
  53      6C801237 
  53      D933B3E7 
  53      9CEF9CEF 
  54 006c 3CEE5D85 		.ascii	"<\356]\205\255\377\374\216_]c\354m|B&\003~h\220\261"
  54      ADFFFC8E 
  54      5F5D63EC 
  54      6D7C4226 
  54      037E6890 
  55 0081 90CEB952 		.ascii	"\220\316\271R]\300l\303-\244\251p\027\375\322\350\227"
  55      5DC06CC3 
  55      2DA4A970 
  55      17FDD2E8 
  55      97
  56 0092 0B34E9E4 		.ascii	"\0134\351\344\346j\232Z]Qk\334Cj\235\324:x\244\332\003"
  56      E66A9A5A 
  56      5D516BDC 
  56      436A9DD4 
  56      3A78A4DA 
  57 00a7 967C31B8 		.ascii	"\226|1\270\227\354&\331\275\220!\325\346\312K\006\367"
  57      97EC26D9 
  57      BD9021D5 
  57      E6CA4B06 
  57      F7
ARM GAS  C:\Users\Luggi\AppData\Local\Temp\ccGS0Ofd.s 			page 4


  58 00b8 C715B4FB 		.ascii	"\307\025\264\373\006\2571t\360I\334\025\335\342\006"
  58      06AF3174 
  58      F049DC15 
  58      DDE206
  59 00c7 690C329B 		.ascii	"i\0142\233~\000\241g\300\016p\305\345V5\335cx\315\014"
  59      7E00A167 
  59      C00E70C5 
  59      E55635DD 
  59      6378CD0C 
  60 00db 9FE58703 		.ascii	"\237\345\207\003\334\222\325\335\345\0178\034\212E\353"
  60      DC92D5DD 
  60      E50F381C 
  60      8A45EB
  61 00ea BC05276D 		.ascii	"\274\005'm\333\276\177\342\313\275\366\221\017\2269"
  61      DBBE7FE2 
  61      CBBDF691 
  61      0F9639
  62 00f9 63092E3D 		.ascii	"c\011.=\240\011\012\320\247\361\217\231\023n%\017\030"
  62      A0090AD0 
  62      A7F18F99 
  62      136E250F 
  62      18
  63 010a BE3FA96F 		.ascii	"\276?\251o\377(\377;\333\256\212]o\261\337\202e\016"
  63      FF28FF3B 
  63      DBAE8A5D 
  63      6FB1DF82 
  63      650E
  64 011c 700A1404 		.ascii	"p\012\024\004\300K\001x!\300P\301\3404\344\013\337\371"
  64      C04B0178 
  64      21C050C1 
  64      E034E40B 
  64      DFF9
  65 012e 99730F41 		.ascii	"\231s\017Ay\221p\377\316\236\237\363\344}\213\300\351"
  65      799170FF 
  65      CE9E9FF3 
  65      E47D8BC0 
  65      E9
  66 013f 8B777BBD 		.ascii	"\213w{\275v\235\035\231N&\237\023\370\037\322\361\362"
  66      769D1D99 
  66      4E269F13 
  66      F81FD2F1 
  66      F2
  67 0150 23128DC4 		.ascii	"#\022\215\304{\014\345\025\002\327\326]m0\010\034k\306"
  67      7B0CE515 
  67      02D7D65D 
  67      6D30081C 
  67      6BC6
  68 0162 ACA1E3F6 		.ascii	"\254\241\343\366\223d\222r7o\210\255\251\033\355\006"
  68      93649272 
  68      376F88AD 
  68      A91BED06 
  69 0172 E50DC23E 		.ascii	"\345\015\302>\252\217\217[2\361\2455\211[6\004?\210"
  69      AA8F8F5B 
  69      32F1A535 
  69      895B3604 
  69      3F88
  70 0184 3C1EF3AA 		.ascii	"<\036\363\252\021\354\210\037\242\220\007g\360\333\012"
ARM GAS  C:\Users\Luggi\AppData\Local\Temp\ccGS0Ofd.s 			page 5


  70      11EC881F 
  70      A2900767 
  70      F0DB0A
  71 0193 79B229F0 		.ascii	"y\262)\360#\250\300\230\222ni\315\212\331\311d\342\326"
  71      23A8C098 
  71      926E69CD 
  71      8AD9C964 
  71      E2D6
  72 01a5 91536FBA 		.ascii	"\221So\272\237\305\352\321\204Q\321\250c7\270\207\011"
  72      9FC5EAD1 
  72      8451D1A8 
  72      6337B887 
  72      09
  73 01b6 1F034453 		.ascii	"\037\003DS\274Ba\012\341\023\302\022\"S\210,!\266\010"
  73      BC42610A 
  73      E113C212 
  73      2253882C 
  73      21B608
  74 01c9 912D448E 		.ascii	"\221-D\216\020[\205\020\015Ur\205\010R`\306n#\215\373"
  74      105B8510 
  74      0D557285 
  74      085260C6 
  74      6E238DFB 
  75 01dd 2A9BE51C 		.ascii	"*\233\345\034\037\312\004\304\027>\353\035\330&x-r\035"
  75      1FCA04C4 
  75      173EEB1D 
  75      D826782D 
  75      721D
  76 01ef E98F8C75 		.ascii	"\351\217\214u\015\252w\3702w\035\355\010\331.Q\321\237"
  76      0DAA77F8 
  76      32771DED 
  76      08D92E51 
  76      D19F
  77 0201 B7876EE8 		.ascii	"\267\207n\350\244\242\002\243}\325\301\006\370*\024"
  77      A4A202A3 
  77      7DD5C106 
  77      F82A14
  78 0210 C10EBAE1 		.ascii	"\301\016\272\341'\010@\033`\375\320\016\015\300& \274"
  78      2708401B 
  78      60FDD00E 
  78      0DC02620 
  78      BC
  79 0221 74701E64 		.ascii	"tp\036d<\217\01494\335\365\271)\360\200u\375\214\276"
  79      3C8F0C39 
  79      34DDF5B9 
  79      29F08075 
  79      FD8CBE
  80 0234 A3C0A911 		.ascii	"\243\300\251\021X\030:\261\021\210\214\207\243\2159"
  80      58183AB1 
  80      11888C87 
  80      A38D39
  81 0243 12642022 		.ascii	"\022d \"\324x\241F\023\010$\013gAvw\226+\254SQ\320\373"
  81      D478A146 
  81      1308240B 
  81      67417677 
  81      962BAC53 
  82 025a 66B8A331 		.ascii	"f\270\2431\350\244H3\273\330$\310\212\026\256\357\223"
ARM GAS  C:\Users\Luggi\AppData\Local\Temp\ccGS0Ofd.s 			page 6


  82      E8A44833 
  82      BBD824C8 
  82      8A16AEEF 
  82      93
  83 026b 662F06EB 		.ascii	"f/\006\353\2777t\215\023\375\266\032\247\242\266\277"
  83      BF37748D 
  83      13FDB61A 
  83      A7A2B6BF 
  84 027b 1F579BAB 		.ascii	"\037W\233\2535\234K\325\320\341\3240\257J\274\351\204"
  84      359C4BD5 
  84      D0E1D430 
  84      AF4ABCE9 
  84      84
  85 028c F86B2941 		.ascii	"\370k)A\025p?\203N\364\304,\207\251\310\315\202\375"
  85      15703F83 
  85      4EF4C42C 
  85      87A9C8CD 
  85      82FD
  86 029e 82C13004 		.ascii	"\202\3010\004qs;\324\307\303\035M\033PWW\251\0179\324"
  86      71733BD4 
  86      C7C31D4D 
  86      1B505757 
  86      A90F39D4 
  87 02b2 7D18BAFE 		.ascii	"}\030\272\376\353\245\220\207\250\267\257P?Y;\360\205"
  87      EBA59087 
  87      A8B7AF50 
  87      3F593BF0 
  87      85
  88 02c3 B69AED7C 		.ascii	"\266\232\355|*\333\2055\324-\014\261\216\353S\321\027"
  88      2ADB8535 
  88      D42D0CB1 
  88      8EEB53D1 
  88      17
  89 02d4 89AB4564 		.ascii	"\211\253Ed4\261\031\3045\321\2742\2244\256\272(e\024"
  89      34B119C4 
  89      35D1BC32 
  89      9434AEBA 
  89      286514
  90 02e7 AA622347 		.ascii	"\252b#G\263i\214\270\252\030z\361Q\337'\026MYcp\211"
  90      B3698CB8 
  90      AA187AF1 
  90      51DF2716 
  90      4D596370 
  91 02fc BC6771B8 		.ascii	"\274gq\270\030\012}\375\264\320\2138O\001\2745*\201"
  91      180A7DFD 
  91      B4D08B38 
  91      4F01BC35 
  91      2A81
  92 030e 5102A6D6 		.ascii	"Q\002\246\326\013\017\006\\\026\3009\020WKkO\177\234"
  92      0B0F065C 
  92      16C03910 
  92      574B6B4F 
  92      7F9C
  93 0320 36112C06 		.ascii	"6\021,\006\277B@\373\247\3754\210\310\372\367g\001c"
  93      BF4240FB 
  93      A7FD3488 
  93      C8FAF767 
ARM GAS  C:\Users\Luggi\AppData\Local\Temp\ccGS0Ofd.s 			page 7


  93      0163
  94 0332 1B0C6F2C 		.ascii	"\033\014o,\311s\346Lp=O/k\312\227=\035\234tz\232\271"
  94      C973E64C 
  94      703D4F2F 
  94      6BCA973D 
  94      1D9C747A 
  95 0348 D9B8624E 		.ascii	"\331\270bN\003\017;\015\314\222\3767\2165\206\251.7"
  95      030F3B0D 
  95      CC92FE37 
  95      8E3586A9 
  95      2E37
  96 035a 9ECD2BFF 		.ascii	"\236\315+\377w\366q\352g\026\0211SD\356\275/Co\331l"
  96      77F671EA 
  96      67161131 
  96      5344EEBD 
  96      2F436FD9 
  97 036f 145D6B78 		.ascii	"\024]kxd\243\377\272\304OEwS\342lJ\234A\035\232\204"
  97      64A3FFBA 
  97      C44F4577 
  97      53E26C4A 
  97      9C411D9A 
  98 0384 486C78CC 		.ascii	"Hlx\314\024@\261@\337\014\327\266\360\375\017\355j["
  98      1440B140 
  98      DF0CD7B6 
  98      F0FD0FED 
  98      6A5B
  99 0396 5FE66A82 		.ascii	"_\346j\202\272\336\003\373\205\251\252\277{\230N\212"
  99      BADE03FB 
  99      85A9AABF 
  99      7B984E8A 
 100 03a6 6630E885 		.ascii	"f0\350\205\3002\316\232x\317M\275.\271l\335\344\374"
 100      C032CE9A 
 100      78CF4DBD 
 100      2EB96CDD 
 100      E4FC
 101 03b8 F7A5CEFF 		.ascii	"\367\245\316\377\200\"\275s$\340\330\330\354\274B\247"
 101      8022BD73 
 101      24E0D8D8 
 101      ECBC42A7 
 102 03c8 07CFFF55 		.ascii	"\007\317\377U*\244jJ\223.\001\364\242\337\237v;\345"
 102      2AA46A4A 
 102      932E01F4 
 102      A2DF9F76 
 102      3BE5
 103 03da E63A57C2 		.ascii	"\346:W\302\315pE\312%\327\031\251\217\035\357c\212\350"
 103      CD7045CA 
 103      25D719A9 
 103      8F1DEF63 
 103      8AE8
 104 03ec CDC18589 		.ascii	"\315\301\205\211I\347\226\011.\342\245\2336'\3009\375"
 104      49E79609 
 104      2EE2A59B 
 104      3627C039 
 104      FD
 105 03fd 9676CB44 		.ascii	"\226v\313D\305\342\005\011o1\374Ws\366\221\324 2\015"
 105      C5E20509 
 105      6F31FC57 
ARM GAS  C:\Users\Luggi\AppData\Local\Temp\ccGS0Ofd.s 			page 8


 105      73F691D4 
 105      20320D
 106 0410 849F9191 		.ascii	"\204\237\221\221@,(\023\373\007b\021=\235n\004\372\356"
 106      402C2813 
 106      FB076211 
 106      3D9D6E04 
 106      FAEE
 107 0422 6420D22F 		.ascii	"d \322/\026y\012B\261\304{\324H&nR@%\002\236\177\247"
 107      16790A42 
 107      B1C47BD4 
 107      48266E52 
 107      4025029E 
 108 0438 A4ACA462 		.ascii	"\244\254\244bge\311\207;\212\312\367V\024\227l\337V"
 108      6765C987 
 108      3B8ACAF7 
 108      5614976C 
 108      DF56
 109 044a 545EF8DA 		.ascii	"T^\370\332\366\302\362\322=;^}\271\230\251e\273w\355"
 109      F6C2F2D2 
 109      3D3B5E7D 
 109      B998A965 
 109      BB77ED
 110 045d FAB844AB 		.ascii	"\372\270D\253\254\330]ZXVi8\317ww\356\323\213K\367\024"
 110      ACD85D5A 
 110      58566938 
 110      CF7777EE 
 110      D38B4BF7 
 111 0472 5522F43F 		.ascii	"U\"\364?\214\333\200\232"
 111      8CDB809A 
 112              		.text
 113              		.section	.gnu.lto_Comp_4_Enable.53c7c1b7,"",%progbits
 114 0000 789C7D91 		.ascii	"x\234}\221?HBQ\024\306\317w\236>\004\033\242I\234\242"
 114      3F484251 
 114      14C6CF77 
 114      9E3E041B 
 114      A2499CA2 
 115 0014 C5ADA996 		.ascii	"\305\255\251\226V\007\327@h\022$\314\261\024\251\331"
 115      5607D740 
 115      681224CC 
 115      B114A9D9 
 116 0024 F7CA886A 		.ascii	"\367\312\210j1\247(\033\305\312\312\320!\332\244ZZ\212"
 116      31A7281B 
 116      C5CACAD0 
 116      21DAA45A 
 116      5A8A
 117 0036 96040783 		.ascii	"\226\004\007\203\320\260%\222\304\260\010;\327G\005"
 117      D0B02592 
 117      C4B0083B 
 117      D74705
 118 0045 495DB8E7 		.ascii	"I]\270\347\376y\337\371\235\357\236\247Q\377p\313,\200"
 118      FE79DFF9 
 118      9DEF9EA7 
 118      51FF70CB 
 118      2C80
 119 0057 68445668 		.ascii	"hDVh\004N^\021\231\016\006\324\206@qF\034\217\334d$"
 119      044E5E11 
 119      990E06D4 
ARM GAS  C:\Users\Luggi\AppData\Local\Temp\ccGS0Ofd.s 			page 9


 119      86407146 
 119      1C8FDC64 
 120 006c 4BB94DA7 		.ascii	"K\271M\247'c\030\306s\341\324\265\354\3520\321\013["
 120      276318C6 
 120      73E1D4B5 
 120      ECEA30D1 
 120      0B5B
 121 007e 1864E121 		.ascii	"\030d\341!\3214\023\037e\247\236\020\315\240\365\015"
 121      D134131F 
 121      65A79E10 
 121      CDA0F50D 
 122 008e BBD0054F 		.ascii	"\273\320\005O\371\241\222\321\355\026\0376\032\023p"
 122      F9A192D1 
 122      ED161F36 
 122      1A1370
 123 009d 3075588A 		.ascii	"0uX\212I\260\253\240\253@T\023\275*ZgV\253V\301Y{\355"
 123      49B0ABA0 
 123      AB405413 
 123      BD2A5A67 
 123      56AB56C1 
 124 00b4 293DA510 		.ascii	")=\245\020\257\254\034\274\257V\357m\015\3560gWL\303"
 124      AFAC1CBC 
 124      AF56EF6D 
 124      0DEE3067 
 124      574CC3
 125 00c7 A60ADED5 		.ascii	"\246\012\336\325\256o\034\275+R\307\344evq`\007\333"
 125      AE6F1CBD 
 125      2B52C7E4 
 125      65767160 
 125      07DB
 126 00d9 66021DD6 		.ascii	"f\002\035\326\260\0077\366!oD\016;\240\012\226Z\272"
 126      B00737F6 
 126      216F440E 
 126      3BA00A96 
 126      5ABA
 127 00eb 85D32CE2 		.ascii	"\205\323,\342V\271\336\322T:\230p J)\232\202\222\374"
 127      56B9DED2 
 127      543A9870 
 127      204A299A 
 127      8292FC
 128 00fe 073B1498 		.ascii	"\007;\024\230 \250\347\260\235\216ZH\273\244\334\256"
 128      20A8E7B0 
 128      9D8E5A48 
 128      BBA4DCAE 
 129 010e BF65D0B3 		.ascii	"\277e\320\263s\362\345\360\274\230\272\300\017\345\350"
 129      73F2E5F0 
 129      BC98BAC0 
 129      0FE5E8
 130 011d 9B92FF65 		.ascii	"\233\222\377eI!\372<\374\231}\334\363\240S\025f\251"
 130      4921FA3C 
 130      FC997DDC 
 130      F3A05315 
 130      66A9
 131 012f EC536AF5 		.ascii	"\354Sj\365\037j\322H\351\2354c\330\027\236\013\307\246"
 131      1F6AD248 
 131      E99D3463 
 131      D8179E0B 
ARM GAS  C:\Users\Luggi\AppData\Local\Temp\ccGS0Ofd.s 			page 10


 131      C7A6
 132 0141 E7C33341 		.ascii	"\347\3033A\177d!\026\012\007&\375\021\357x\300\033\231"
 132      7F642116 
 132      0A0726FD 
 132      11EF78C0 
 132      1B99
 133 0153 8D06C746 		.ascii	"\215\006\307FC\364\011\\\220\240\001"
 133      43F4095C 
 133      90A001
 134              		.text
 135              		.section	.gnu.lto_Comp_4_Stop.53c7c1b7,"",%progbits
 136 0000 789C7D91 		.ascii	"x\234}\221?HBQ\024\306\317w\236>\004\035\242I\234\242"
 136      3F484251 
 136      14C6CF77 
 136      9E3E041D 
 136      A2499CA2 
 137 0014 C5ADA996 		.ascii	"\305\255\251\226V\207\206\226@h\022$\314\261\024\251"
 137      56878696 
 137      40681224 
 137      CCB114A9 
 138 0024 D9671951 		.ascii	"\331g\031Q\021\210S\020B\213X\231\0318\2644HE\320b\324"
 138      11885310 
 138      428B5899 
 138      1938B434 
 138      4845D062 
 139 0039 90E46010 		.ascii	"\220\344`\020F\266%Ae!v\356{T\220\324\205{\356\237\367"
 139      46B62541 
 139      652176EE 
 139      7B5490D4 
 139      857BEE9F 
 140 004e 9DDFF9EE 		.ascii	"\235\337\371\356y\032\365\016\217\314\022\210\006e\205"
 140      791AF50E 
 140      8FCC1288 
 140      066585
 141 005d 46E05485 		.ascii	"F\340T\205(\341`@m\010\024g\304\361\310-F\252\234\337"
 141      28E16040 
 141      6D081467 
 141      C4F1C82D 
 141      46AA9CDF 
 142 0071 707AB386 		.ascii	"pz\263\206a<]\335\270\227\334m&zf\013\203\034\274$\232"
 142      613C5DDD 
 142      B897DC6D 
 142      267A660B 
 142      831CBC24 
 143 0086 56B25375 		.ascii	"V\262Su\352I\321\364Y\337\260\015]\360T\354/\033\335"
 143      EA49D1F4 
 143      59DFB00D 
 143      5DF054EC 
 143      2F1BDD
 144 0099 6EE921DD 		.ascii	"n\351!\335\034e\007S\233\245\230\004\273\012\272\012"
 144      1C650753 
 144      9BA59804 
 144      BB0ABA0A 
 145 00a9 440DD1AB 		.ascii	"D\015\321\253\242\367\314j\325j8~Y=+L*\304++\007\037"
 145      A2F7CC6A 
 145      D56A387E 
 145      593D2B4C 
ARM GAS  C:\Users\Luggi\AppData\Local\Temp\ccGS0Ofd.s 			page 11


 145      2AC42B2B 
 146 00bf 2BF53B5B 		.ascii	"+\365;[\223\333\314\271\345\204aS\005o\033\027\227\016"
 146      93DBCCB9 
 146      E5846153 
 146      056F1B17 
 146      970E
 147 00d1 F38AD431 		.ascii	"\363\212\3241u\236[pe\260\231H\242\315\032v\340\301"
 147      759E5B70 
 147      65B09948 
 147      A2CD1A76 
 147      E0C1
 148 00e3 2EE48DC8 		.ascii	".\344\215\310#\003\252a\361M\267p\232E\334:\252\257"
 148      2303AA61 
 148      F14DB770 
 148      9A45DC3A 
 148      AAAF
 149 00f5 BB54BAD6 		.ascii	"\273T\272\326\001aO\244R5\015\245\371\217V\020\2320"
 149      01614FA4 
 149      52350DA5 
 149      F98F5610 
 149      9A30
 150 0107 C8B45829 		.ascii	"\310\264X)D-\246]R\256\327\336\2630\375\034~Y<)\245"
 150      442DA65D 
 150      52AED7DE 
 150      B330FD1C 
 150      7E593C29 
 151 011c 4FF143D9 		.ascii	"O\361C\331\377\246\024\177yR\210\036\017\177f\037\230"
 151      FFA6147F 
 151      7952881E 
 151      0F7F661F 
 151      98
 152 012d 1E74AA23 		.ascii	"\036t\252#Q\256\216+\265\372\021\015\351\2444O\2721"
 152      51AE8E2B 
 152      B5FA110D 
 152      E9A4344F 
 152      BA31
 153 013f 30169E0D 		.ascii	"0\026\236\015\307\246\346\302\323A\177d>\026\012\007"
 153      C7A6E6C2 
 153      D3417F64 
 153      3E160A07 
 154 014f 26FC11DF 		.ascii	"&\374\021\337H\300\027\231\211\006\207\207B\364\011"
 154      48C01799 
 154      89068787 
 154      42F409
 155 015e 785FA0A7 		.ascii	"x_\240\247"
 156              		.text
 157              		.section	.gnu.lto_Comp_4_SetSpeed.53c7c1b7,"",%progbits
 158 0000 789C7D93 		.ascii	"x\234}\223]H\024Q\024\307\357\271wfvWW]\226\036d)\010"
 158      5D481451 
 158      14C7EFB9 
 158      77667657 
 158      575D961E 
 159 0017 422C885E 		.ascii	"B,\210^\252\307$0\350\261\300\036\005\011\335\307R\314"
 159      AAC72430 
 159      E8B1C01E 
 159      0509DDC7 
 159      52CC
ARM GAS  C:\Users\Luggi\AppData\Local\Temp\ccGS0Ofd.s 			page 12


 160 0029 9E9D75B7 		.ascii	"\236\235u\267\017-\302\024\303J\261\010\251\324\\[-"
 160      0F2DC214 
 160      C34AB108 
 160      A9D45C5B 
 160      2D
 161 003a F32B47A1 		.ascii	"\363+G\2416\263\322\202\276\0246\212\015-!\022\277\311"
 161      36B3D282 
 161      BE14368A 
 161      0D2D2112 
 161      BFC9
 162 004c 8FCEB933 		.ascii	"\217\316\2713\273\256,80\347\336{8\377s~\347\314\035"
 162      BBAE2C38 
 162      30E7DE7B 
 162      38FF737E 
 162      E7CC1D
 163 005f C1929F23 		.ascii	"\301\222\237#\370\036S\030\333\213+h\014x\365;\306|"
 163      F81E5318 
 163      DB8B2B68 
 163      0C78F53B 
 163      C67C
 164 0071 76CE4538 		.ascii	"v\316E8\203\351)\312H\016\323\235\002T\323\255\3046"
 164      83E929CA 
 164      480ED39D 
 164      0254D3AD 
 164      C436
 165 0083 2A006D18 		.ascii	"*\000m\030\260r.\024\025\312\341\027\237\345Pm\264\326"
 165      B0722E14 
 165      15CAE117 
 165      9FE5506D 
 165      B4D6
 166 0095 A76637EB 		.ascii	"\247f7\353\272\376\367\303l\346\205\314\025\316\330"
 166      BAFEF7C3 
 166      6CE685CC 
 166      15CED8
 167 00a4 1C372BC1 		.ascii	"\0347+\301}\310\306\020\277\361c\320.\366\000\303\375"
 167      7DC8C610 
 167      BFF163D0 
 167      2EF600C3 
 167      FD
 168 00b5 8DE6CA81 		.ascii	"\215\346\312\201\214\254{\272^a\364\267\353Ga\205\003"
 168      8CAC7BBA 
 168      5E61F4B7 
 168      EB476185 
 168      03
 169 00c6 3C00810A 		.ascii	"<\000\201\012\330\357\201}\036\206\016\006\017!\213"
 169      D8EF817D 
 169      1E860E06 
 169      0F218B
 170 00d5 8267036B 		.ascii	"\202g\003k\237S\265\000\346v\2319\241\0054\3005\350"
 170      9F53B500 
 170      E6769939 
 170      A10534C0 
 170      35E8
 171 00e7 36F48D8D 		.ascii	"6\364\215\215\316p\355\364A\261C\240\206+h\204JF\003"
 171      CE70EDF4 
 171      41B143A0 
 171      862B6884 
ARM GAS  C:\Users\Luggi\AppData\Local\Temp\ccGS0Ofd.s 			page 13


 171      4A4603
 172 00fa 92DB686B 		.ascii	"\222\333hk'\343 \223B1N2\351d\\d\334d\030\213\342K\215"
 172      27E32093 
 172      42314E32 
 172      E9645C64 
 172      DC64188B 
 173 0111 FDC403AE 		.ascii	"\375\304\003\256b\002\206\027\253^\366\234\242ZK\\ "
 173      62028617 
 173      AB5EF69C 
 173      A25A4B5C 
 173      20
 174 0122 C66265A4 		.ascii	"\306be\244\3151\315W\2702\324\341\323\025\"\373\026"
 174      CD31CD57 
 174      B832D4E1 
 174      D31522FB 
 174      16
 175 0133 1D7B6F97 		.ascii	"\035{o\227.F\307\271\246+}\216F\270\355\013`C*\264\202"
 175      2E46C7B9 
 175      A62B7D8E 
 175      46B8ED0B 
 175      60432AB4 
 176 0148 07DAC083 		.ascii	"\007\332\300\203\274\217\240\021\330\004TD.\255\202"
 176      BC8FA011 
 176      D8045444 
 176      2EAD82
 177 0157 9950C19C 		.ascii	"\231P\301\234\350\361/k\346YE\027f\230\351z{\207SB\261"
 177      E8F12F6B 
 177      E6594517 
 177      6698E97A 
 177      7B875342 
 178 016c BA613D38 		.ascii	"\272a=8\341vLBj\233\031k[\342Z\242\326\216.\324\006"
 178      E1764C42 
 178      6A9B196B 
 178      5BE25AA2 
 178      D68E2ED4 
 179 0181 9B16D641 		.ascii	"\233\026\326Aj\005\203\240\224\370\347\255\020\207\254"
 179      6A0583A0 
 179      94F8E7AD 
 179      1087AC
 180 0190 604FCC92 		.ascii	"`O\314\222\202^<\017\327H\242-\364>C\335\312\337\201"
 180      825E3C0F 
 180      D748A22D 
 180      F43E43DD 
 180      CADF81
 181 01a3 FCA8601F 		.ascii	"\374\250`\037!\360\305?\327`e Q\270q:\244PQ\372^\217"
 181      21F0C53F 
 181      D7606520 
 181      51B8713A 
 181      A45051FA 
 182 01b9 2998D10C 		.ascii	")\230\321\014\005\013g\230#\374\323[fF;1\272j\264e@"
 182      050B6798 
 182      23FCD35B 
 182      66463B31 
 182      BA6AB465 
 183 01ce 226AD72B 		.ascii	"\"j\327+\364W[G\250\311\021~\277\365oJ\213\215\320\006"
 183      F4575B47 
 183      A8C9117E 
ARM GAS  C:\Users\Luggi\AppData\Local\Temp\ccGS0Ofd.s 			page 14


 183      BFF56F4A 
 183      8B8DD006 
 184 01e2 2144E894 		.ascii	"!D\350\224\010]\346\010\207k\356\356\264xG\177\217\275"
 184      085DE608 
 184      876BEEEE 
 184      B478477F 
 184      8FBD
 185 01f4 96B35242 		.ascii	"\226\263RBW\255\357\021\232Z\273\354\264Z\330E-<\211"
 185      57ADEF11 
 185      9A5ABBEC 
 185      B45AD845 
 185      2D3C89
 186 0207 B7F054B6 		.ascii	"\267\360T\266\340d\022j1\006\225N\242\257\201\005!\011"
 186      E064126A 
 186      3106954E 
 186      A2AF8105 
 186      2109
 187 0219 EA62506F 		.ascii	"\352bPo\332\243\035i\233\024\335q\212gI\0247\033\226"
 187      DAA31D69 
 187      9B14DD71 
 187      8A674914 
 187      371B96
 188 022c 7DE6ADE8 		.ascii	"}\346\255\350\214Q4_{SkK\244\350\211S\364J\212t9#\205"
 188      8C51345F 
 188      7B536B4B 
 188      A4E88953 
 188      F44A8A74 
 189 0243 8DE49833 		.ascii	"\215\344\2303\372\324o\341\270\350\266\327\217\277\320"
 189      FAD46FE1 
 189      B8E8B6D7 
 189      8FBFD0
 190 0252 244ED06F 		.ascii	"$N\320o\341\314L\366\326\251\2338}q\234\376$\234m&0"
 190      E1CC4CF6 
 190      D6A99B38 
 190      7D719CFE 
 190      249C6D26 
 191 0267 206BBBCC 		.ascii	" k\273\314\011Db%\335(Z\277\2704\237&Kv\307J\216\017"
 191      09446225 
 191      DD285ABF 
 191      B8349F26 
 191      4B76C74A 
 192 027d 4D8E257C 		.ascii	"M\216%|\207\347\361\222\203I%\267i\327\220%\335\262"
 192      87E7F192 
 192      834925B7 
 192      69D79025 
 192      DDB2
 193 028f 5D55FE56 		.ascii	"]U\376V\021\360\031M'HI\027%\212\267\006\275\370\353"
 193      11F0194D 
 193      27484917 
 193      258AB706 
 193      BDF8EB
 194 02a2 ED3EEE3D 		.ascii	"\355>\356=\353-=]\346-*\310+>_Z\350\315?\231W\234{8"
 194      EB2D3D5D 
 194      E62D2AC8 
 194      2B3E5F5A 
 194      E8CD3F99 
 195 02ba 3FB7F84C 		.ascii	"?\267\370LI\301\241\003\205L=W\342\365\026\375\007Q"
ARM GAS  C:\Users\Luggi\AppData\Local\Temp\ccGS0Ofd.s 			page 15


 195      49C1A103 
 195      854C3D57 
 195      E2F516FD 
 195      0751
 196 02cc E59488   		.ascii	"\345\224\210"
 197              		.text
 198              		.section	.gnu.lto_Comp_4_Init.53c7c1b7,"",%progbits
 199 0000 789C8D53 		.ascii	"x\234\215SMH\024a\030~\237wfg\377q\020\274\354I\272"
 199      4D481461 
 199      187E9F77 
 199      6667FF71 
 199      10BCEC49 
 200 0015 78EB54D7 		.ascii	"x\353T\327.B]\027\274t\220$l\217\265!u\024gj\017\375"
 200      2E425D17 
 200      BC749024 
 200      6C8FB521 
 200      7514676A 
 201 002b 40485068 		.ascii	"@HPh\261u)\254\334V\323\374\331\214\232\015\352\022"
 201      B17529AC 
 201      DC56D3FC 
 201      D98C9A0D 
 201      EA12
 202 003d 2A511648 		.ascii	"*Q\026H\032\205e\335\222\365o\220\260\357\235o1\332"
 202      1A8565DD 
 202      92F56F90 
 202      B0EF9D6F 
 202      31DA
 203 004f 68D98179 		.ascii	"h\331\201y\276\031\346\371\233w\3463\350\337#\245\316"
 203      BE19E6F9 
 203      9B77E633 
 203      E8DF23A5 
 203      CE
 204 0060 BC41B44F 		.ascii	"\274A\264O\2550\010\334?G\344F\030\220\013\002\3651"
 204      AD3008DC 
 204      3F47E446 
 204      18900B02 
 204      F531
 205 0072 FAF083D7 		.ascii	"\372\360\203\327\030\375\336\360@\274\355\256\3438?"
 205      18FDDEF0 
 205      40BCEDAE 
 205      E3383F
 206 0081 C766DDB4 		.ascii	"\307f\335\264\007\237\211*\254}0\2046R\244\265\334\257"
 206      079F892A 
 206      AC7D3084 
 206      3652A4B5 
 206      DCAF
 207 0093 0F712BA7 		.ascii	"\017q+\247H\266~\206{\260\240\326\221f\317\331\335\035"
 207      48B67E86 
 207      7BB0A0D6 
 207      9166CFD9 
 207      DD1D
 208 00a5 9F2CBFB3 		.ascii	"\237,\277\263\232\015\362\031\246\200%\020\026\210\012"
 208      9A0DF219 
 208      A6802510 
 208      16880A
 209 00b4 C4041202 		.ascii	"\304\004\022\002I\201&\001[\200hE\231I\245\257\314\262"
 209      49812601 
ARM GAS  C:\Users\Luggi\AppData\Local\Temp\ccGS0Ofd.s 			page 16


 209      5B806845 
 209      9949A5AF 
 209      CCB2
 210 00c6 1A1F91F3 		.ascii	"\032\037\221\363\226Z\304]bo\275\275R\344\336\035\347"
 210      965AC45D 
 210      626FBDBD 
 210      52E4DE1D 
 210      E7
 211 00d7 8213F199 		.ascii	"\202\023\361\231+\"\300}\364\312\243O+\363o\"\337\331"
 211      2B22C07D 
 211      F4CAA34F 
 211      2BF36F22 
 211      DFD9
 212 00e9 67F59678 		.ascii	"g\365\226x\200\224\317&-\342\305\346\245\367S!\221o"
 212      8094CF26 
 212      2DE2C5E6 
 212      A5F75321 
 212      916F
 213 00fb B1A1589B 		.ascii	"\261\241X\233\027\227\013Qa\205\312\243\256c\376%\014"
 213      17970B51 
 213      6185CAA3 
 213      AE63FE25 
 213      0C
 214 010c 91DC566E 		.ascii	"\221\334Vn_\236\211\346q\323\315\251\027\2670\214\024"
 214      5F9E89E6 
 214      71D3CDA9 
 214      17B7308C 
 214      14
 215 011d 0A50E3C3 		.ascii	"\012P\343\303C\344\241\034\317\257[\332\316\324\216"
 215      43E4A11C 
 215      CFAF5BDA 
 215      CED48E
 216 012c A5E2FA6C 		.ascii	"\245\342\372l\\\344h%\024\025S\205^\205P\352\231\215"
 216      5CE46825 
 216      14155385 
 216      5E8550EA 
 216      998D
 217 013e 28B3ADBD 		.ascii	"(\263\255\275\206\003\307\264e]\311h5\177\273\232\037"
 217      8603C7B4 
 217      655DC968 
 217      357FBB9A 
 217      1F
 218 014f D6FCA197 		.ascii	"\326\374\241\227\253\345\244\344[; <j\264\300XP \254"
 218      ABE5A4E4 
 218      5B3B203C 
 218      6AB4C058 
 218      5020AC
 219 0162 0BCC0D1E 		.ascii	"\013\314\015\036\322\236\321z\222\361\232\001\3044\377"
 219      D29ED17A 
 219      92F19A01 
 219      C434FF
 220 0171 CEB5EB85 		.ascii	"\316\265\353\205P0\200\010\341q\243\371\023A~L\347\177"
 220      50308008 
 220      E171A3F9 
 220      13417E4C 
 220      E77F
 221 0183 1B4C6BCB 		.ascii	"\033Lk\313\204\222,\225\316\265\004\237c~\242\372\205"
ARM GAS  C:\Users\Luggi\AppData\Local\Temp\ccGS0Ofd.s 			page 17


 221      84922C95 
 221      CEB5049F 
 221      637EA2FA 
 221      85
 222 0194 9E2D3CDF 		.ascii	"\236-<\3370\377\230L\356\231L\325\214$\251\035\246\313"
 222      30FF984C 
 222      EE994CD5 
 222      8C24A91D 
 222      A6CB
 223 01a6 8B9FF548 		.ascii	"\213\237\365HV\325H\246k*\375\327\255\024TJ\352J\257"
 223      56D548A6 
 223      6B2AFDD7 
 223      AD14544A 
 223      EA4AAF
 224 01b9 6E1CD59E 		.ascii	"n\034\325\236M\365$OjFbk\376\353/\333\225D0\022\233"
 224      4DF5244F 
 224      6A46626B 
 224      FEEB2FDB 
 224      95443012 
 225 01ce 30D368FE 		.ascii	"0\323h\376\323 \337\246e\270\336\302\341\340\227'\331"
 225      D320DFA6 
 225      65B8DEC2 
 225      E1E09727 
 225      D9
 226 01df 10908DA0 		.ascii	"\020\220\215\240\266E\353\221\314\251L\317\3613\231"
 226      B645EB91 
 226      CCA94CCF 
 226      F13399
 227 01ee 135D1DD9 		.ascii	"\023]\035\331\263=\335\231\316tG\266\375`g{\366\344"
 227      B33DDD99 
 227      CE7447B6 
 227      FD60677B 
 227      F6E4
 228 0200 E9AE03FB 		.ascii	"\351\256\003\373\273\3517\214\300E4"
 228      BBE9378C 
 228      C04534
 229              		.text
 230              		.section	.gnu.lto_Comp_4_Start.53c7c1b7,"",%progbits
 231 0000 789C7590 		.ascii	"x\234u\220\275KBQ\030\306\337\367=\327\017J(\232\244"
 231      BD4B4251 
 231      18C6DFF7 
 231      3DD70F4A 
 231      289AA4
 232 0013 21A2C521 		.ascii	"!\242\305!\250\241\372\013\034\202\246\300U\2202\307"
 232      A8A1FA0B 
 232      1C82A6C0 
 232      559032C7 
 233 0023 32A446E9 		.ascii	"2\244F\351\\\275\201C\2048E_[f\331\347\322\220\313\235"
 233      5CBD8143 
 233      8438455F 
 233      5B66D9E7 
 233      D290CB9D 
 234 0037 A51291B2 		.ascii	"\245\022\221\262\"j)\250Mq\010\011\261\367\\\243\300"
 234      226A29A8 
 234      4D710809 
 234      B1F75CA3 
 234      C0
ARM GAS  C:\Users\Luggi\AppData\Local\Temp\ccGS0Ofd.s 			page 18


 235 0048 F0C0E59C 		.ascii	"\360\300\345\234\373\234\347}\236\037G\300\3775\306"
 235      FB9CE77D 
 235      9E1F47C0 
 235      FF35C6
 236 0057 DF05020C 		.ascii	"\337\005\002\014\361\2166@J\336\000\350N\"q9\000\262"
 236      F18E3640 
 236      4ADE00E8 
 236      4E227139 
 236      00B2
 237 0069 4BBB1B05 		.ascii	"K\273\033\005\351\022\250\265d\015Q\035\000a\205\204"
 237      E912A8B5 
 237      640D511D 
 237      00618584 
 238 0079 862BF841 		.ascii	"\206+\370AU\302\244\231\335\350\366\354I)+\261\222{"
 238      55C2A499 
 238      DDE8F6EC 
 238      49292BB1 
 238      927B
 239 008b D55D2780 		.ascii	"\325]'\200\032\265\362q\037=\300\236\252\321(w\333\015"
 239      1AB5F271 
 239      1F3DC09E 
 239      AAD12877 
 239      DB0D
 240 009d F6F4B6EE 		.ascii	"\366\364\266\3560\203v\356\205\323>S6\233\265\253Tb"
 240      308376EE 
 240      85D33E53 
 240      369BB5AB 
 240      5462
 241 00af 981C02EA 		.ascii	"\230\034\002\352\304\342+\033T\317\033\221\332\305#"
 241      C4E22B1B 
 241      54CF1B91 
 241      DAC523
 242 00be C652D5EB 		.ascii	"\306R\325\353\224C\315|\222\340\270\335\322\372\011"
 242      9443CD7C 
 242      92E0B8DD 
 242      D2FA09
 243 00cd 45BF6442 		.ascii	"E\277dB:\353D\015\025\310\352\313k\241\350|'V\254\337"
 243      3AEB440D 
 243      15C8EACB 
 243      6BA1E87C 
 243      2756ACDF 
 244 00e1 8C6E6CE3 		.ascii	"\214nl\343\016n\351R\271\004\036`\024\017\261\237\273"
 244      0E6EE952 
 244      B9041E60 
 244      140FB19F 
 244      BB
 245 00f2 B32CC32D 		.ascii	"\263,\303-\032\367\361\331\277L=\235[s\250i&\300#\345"
 245      1AF7F1D9 
 245      BF4C3D9D 
 245      5B73A869 
 245      26C023E5 
 246 0106 038520E0 		.ascii	"\003\205 \340r@<a\334\314\345]\312\014\355\365Z\315"
 246      72403C61 
 246      DCCCE55D 
 246      CA0CEDF5 
 246      5ACD
 247 0118 9A38C628 		.ascii	"\2328\306(\323\333\200a+\225B\314\202\355H\332\216v"
ARM GAS  C:\Users\Luggi\AppData\Local\Temp\ccGS0Ofd.s 			page 19


 247      D3DB8061 
 247      2B9542CC 
 247      82ED48DA 
 247      8E76
 248 012a F28B76CA 		.ascii	"\362\213v\3122\033\212\233\351x\217\202\021\010xf\301"
 248      321B8A9B 
 248      E9788F82 
 248      11087866 
 248      C1
 249 013b BC9166BD 		.ascii	"\274\221f\275\206b)\347\251\023\0137\340\371\017\313"
 249      866229E7 
 249      A9130B37 
 249      E0F90FCB 
 250 014b 33EAE6C3 		.ascii	"3\352\346\303\224\345\004\365\254\250\002\33008\031"
 250      94E504F5 
 250      ACA802D8 
 250      303819
 251 015a 5A084566 		.ascii	"Z\010Ef\226Bs\001_x9\022\014\371\247}a\357\204\337\033"
 251      96427301 
 251      5F783912 
 251      0CF9A77D 
 251      61EF84DF 
 252 016f 9E5F0C8C 		.ascii	"\236_\014\214\217\004\341\033\356\322\250\027"
 252      8F04E11B 
 252      EED2A817 
 253              		.text
 254              		.section	.gnu.lto_Comp_4_GetCompare.53c7c1b7,"",%progbits
 255 0000 789C6366 		.ascii	"x\234cf\300\004R@\374\033\210\225\200\230\221\231\201"
 255      C0045240 
 255      FC1B8895 
 255      80989199 
 255      81
 256 0011 9169C239 		.ascii	"\221i\3029\006\206F\016&FF\020\203\201\221\241\236\211"
 256      0686460E 
 256      26464610 
 256      838191A1 
 256      9E89
 257 0023 B19EF125 		.ascii	"\261\236\361%\323G&\3063;\377]fT_\332\320\320\364a\323"
 257      D34726C6 
 257      333BFF5D 
 257      66545FDA 
 257      D0D0F461 
 258 0038 FF3BDCAD 		.ascii	"\377;\334\255\022?\231\030\030>310\352H1j\202\314a\\"
 258      123F9918 
 258      183E3331 
 258      30EA4831 
 258      6A82CC61 
 259 004d CEA8CE00 		.ascii	"\316\250\316\000T\370\261\345\357un\266\226\206\206"
 259      54F8B1E5 
 259      EF756EB6 
 259      968686
 260 005c 0601903C 		.ascii	"\006\001\220<Pb\005#\033#\220^/t\240\341\377\377\315"
 260      50620523 
 260      1B23905E 
 260      2F74A0E1 
 260      FFFFCD
 261 006f FF269FB0 		.ascii	"\377&\237\260gfab\370\311\004\264\021d\010\303\023 "
ARM GAS  C:\Users\Luggi\AppData\Local\Temp\ccGS0Ofd.s 			page 20


 261      67666162 
 261      F8C904B4 
 261      116408C3 
 261      1320
 262 0081 01B2EF29 		.ascii	"\001\262\357)\023\023\210f\276\305x\350[\327\273\375"
 262      13138866 
 262      BEC578E8 
 262      5BD7BBFD 
 263 0091 56208DDF 		.ascii	"V \215\337\231@\226_\275~\370\034\333\013\246\237LL"
 263      9940965F 
 263      BD7EF81C 
 263      DB0BA69F 
 263      4C4C
 264 00a3 D3B63736 		.ascii	"\323\26676\260\200\254\271\377\344\374E\016\260\020"
 264      B080ACB9 
 264      FFE4FC45 
 264      0EB010
 265 00b2 0388BBFA 		.ascii	"\003\210\273\372x\207\314\\\306\331\215-\214?\231\230"
 265      7887CC5C 
 265      C6D98D2D 
 265      8C3F9998 
 266 00c2 1957324A 		.ascii	"\031W2J1\256b\004\272\212q5\343\\F\206[\214\315?\332"
 266      31AE6204 
 266      BA8A7135 
 266      E35C4686 
 266      5B8CCD3F 
 267 00d7 7420C631 		.ascii	"t \3061CL<\377\340p?\017H;\003\320\013k\200J\35712B"
 267      434C3CFF 
 267      E0703F0F 
 267      483B03D0 
 267      0B6B804A 
 268 00ef 15805DC4 		.ascii	"\025\200]\304\010r\011\320h\005\367\324\274\324\242"
 268      087209D0 
 268      6805F7D4 
 268      BCD4A2
 269 00fe C492D494 		.ascii	"\304\222\324\224\370\340\374\322\242\344\324\230\200"
 269      F8E0FCD2 
 269      A2E4D498 
 269      80
 270 010b E07C67D3 		.ascii	"\340|g\323\030\347\374\334\202x\023\275d\006\000r\312"
 270      18E7FCDC 
 270      827813BD 
 270      64060072 
 270      CA
 271 011c 658D     		.ascii	"e\215"
 272              		.text
 273              		.section	.gnu.lto_Comp_4_ZeroCal.53c7c1b7,"",%progbits
 274 0000 789C8D95 		.ascii	"x\234\215\225KpSU\030\307\317w\356\275I\232D\323q\330"
 274      4B705355 
 274      18C7CF77 
 274      EEBD499A 
 274      44D371D8 
 275 0014 34D0D699 		.ascii	"4\320\326\231.\030\035\207AE\305\205u\321\205[\306."
 275      2E181D87 
 275      4145C585 
 275      75D1855B 
 275      C62E
ARM GAS  C:\Users\Luggi\AppData\Local\Temp\ccGS0Ofd.s 			page 21


 276 0026 DC30C320 		.ascii	"\3340\303 v\211e\030\\\260`\270I3\204\327T'\202@\241"
 276      76896518 
 276      5CB060B8 
 276      493384D7 
 276      54278240 
 277 003b 0AB645B1 		.ascii	"\012\266E\261\357\026D\254@[\012\241Im\255\310c\024"
 277      EF1644AC 
 277      405B0AA1 
 277      496DADC8 
 277      6314
 278 004d 1B605AA9 		.ascii	"\033`Z\251/\332\2326Mx4~\3379\367&\271\245t\310\314"
 278      2FDA9A36 
 278      4D78347E 
 278      DF39F726 
 278      B9A574C8 
 279 0062 3DAFFBFD 		.ascii	"=\257\373\375\177\347|\217s\243\260\307\177o\341\223"
 279      7FE77C8F 
 279      73A3B0C7 
 279      7F6FE193 
 280 0072 B0CB1E6C 		.ascii	"\260\313\036l\014\370'\203\214\371\034\234+a\017\323"
 280      0CF82783 
 280      8CF91C9C 
 280      2B610FD3 
 281 0082 9D6A7F29 		.ascii	"\235j\177)\323\335\012hrY5\007\032\000\015\030\260\355"
 281      D3DD0A68 
 281      72593507 
 281      1A000D18 
 281      B0ED
 282 0094 5C5135D8 		.ascii	"\\Q5\330\016\177\362)\016\321;\311\270{\234\2478\313"
 282      0E7FF229 
 282      0ED13BC9 
 282      B87B9CA7 
 282      38CB
 283 00a6 6738ADB9 		.ascii	"g8\255\271>6\255\320\0248M\273\342\203wl\313\033t\335"
 283      3E36ADD0 
 283      14384DBB 
 283      E283776C 
 283      CB1B74DD 
 284 00ba 3FF95F6C 		.ascii	"?\371_l\375\301}G!\3059\213s\006_\201\027\276\006/\001"
 284      FDC17D47 
 284      21C5398B 
 284      73065F81 
 284      17BE062F 
 285 00cf 4FC072B2 		.ascii	"O\300r\262=w\354^\275C)\001\032\367\304\375\323\236"
 285      3D77EC5E 
 285      BD432901 
 285      1AF7C4FD 
 285      D39E
 286 00e1 9263A8BB 		.ascii	"\222c\250\273\265k\342\222K?\250\007n\245\323\305)\256"
 286      B56BE292 
 286      4B3FA807 
 286      6EA5D3C5 
 286      29AE
 287 00f3 C037A090 		.ascii	"\3007\240\220\376%/\274\3405<B\301\277\361\256\023\\"
 287      FE252FBC 
 287      E0353C42 
 287      C1BFF1AE 
ARM GAS  C:\Users\Luggi\AppData\Local\Temp\ccGS0Ofd.s 			page 22


 287      135C
 288 0105 79518847 		.ascii	"yQ\210G\016\245\202yB|t\367\204\226#mZP\372\340\343"
 288      0EA58279 
 288      427C74F7 
 288      8496236D 
 288      5A50FAE0 
 289 011a BB7F7B94 		.ascii	"\273\177{\224\227\205\264\376\313X\344\031)\335c\221"
 289      9785B4FE 
 289      CB58E419 
 289      29DD6391 
 290 012a B62C28BD 		.ascii	"\266,(\275\035=r\330\256\254\026\322\3463\267u\247\224"
 290      1D3D72D8 
 290      AEAC16D2 
 290      E633B775 
 290      A794
 291 013c EEB548DB 		.ascii	"\356\265H\333\026\224N\005\036]w\331\002\272\256\347"
 291      16944E05 
 291      1E5D77D9 
 291      02BAAEE7 
 292 014c 43239440 		.ascii	"C#\224@3>\255\370\264C\011\305\007\303\322\0016`L\235"
 292      333EADF8 
 292      B44309C5 
 292      07C3D201 
 292      36604C9D 
 293 0160 FFB6F5B9 		.ascii	"\377\266\365\271n=\235\356\354;0\376\266\275Xa\364Z"
 293      6E3D9DEE 
 293      EC3B30FE 
 293      B6BD5861 
 293      F45A
 294 0172 6564A031 		.ascii	"ed\24012q\260\024W\235\214,]4tS\223O\315\022j\012\250"
 294      3271B014 
 294      579D8C2C 
 294      5D347453 
 294      934FCD12 
 295 0189 F162A32D 		.ascii	"\361b\243-\245f\031M\013iT\304(3l\024\037J\363\030N"
 295      A566194D 
 295      0B6954C4 
 295      28336C14 
 295      1F4AF318 
 296 019e B0577E85 		.ascii	"\260W~\205\336\304\356\271\344j:\315,W\360\340\301\271"
 296      DEC4EEB9 
 296      E46A3ACD 
 296      2C57F0E0 
 296      C1B9
 297 01b0 C69A6729 		.ascii	"\306\232g)\303\266\313\247|\272J\276\304F\207\206\035"
 297      C3B6CBA7 
 297      7CBA4ABE 
 297      C4468786 
 297      1D
 298 01c1 6249B8D6 		.ascii	"bI\270\326p|\356w{-\034\366\005|\335E)n\207N\314\365"
 298      707CEE77 
 298      7B2D1CF6 
 298      057CDD45 
 298      296E874E 
 299 01d7 49CA359C 		.ascii	"I\3125\234\202Z`\327\300\257\277)\334\303\263#\224\211"
 299      825A60D7 
 299      C0AFBF29 
ARM GAS  C:\Users\Luggi\AppData\Local\Temp\ccGS0Ofd.s 			page 23


 299      DCC3B323 
 299      9489
 300 01e9 4D7AB7CA 		.ascii	"Mz\267\312=T$\314\324\325\235\227\300\210\271\307\201"
 300      3D5424CC 
 300      D4D59D97 
 300      C088B9C7 
 300      81
 301 01fa C6BEB805 		.ascii	"\306\276\270\005\372m\006z\332\012m&\250*\241\021\003"
 301      FA6D067A 
 301      DA0A6D26 
 301      A82AA111 
 301      03
 302 020b AA21C1F7 		.ascii	"\252!\301\367\233\317\347\022\320\250\011m\010\372}"
 302      9BCFE712 
 302      D0A8096D 
 302      08FA7D
 303 021a EE5CE877 		.ascii	"\356\\\350w\031\350\031+\264\225\240\032A'\333\006\203"
 303      19E8192B 
 303      B495A01A 
 303      4127DB06 
 303      83
 304 022b 1AADCDF3 		.ascii	"\032\255\315\363T\263z\372=\352sC\203\027\016\272\360"
 304      54B37AFA 
 304      3DEA7343 
 304      83170EBA 
 304      F0
 305 023c 0D1126B3 		.ascii	"\015\021&\263\204\\\2674\253[? \301\220T%w$Rk\244+\016"
 305      845CB734 
 305      AB5B3F20 
 305      C1905425 
 305      7724526B 
 306 0253 E94D4DDD 		.ascii	"\351MM\335\376\220*\300\011`pV\222C`\036,\3071\315\352"
 306      FE902AC0 
 306      09607056 
 306      9243601E 
 306      2CC731CD 
 307 0268 D839C422 		.ascii	"\3309\304\"E\306\347\217\373\257K\252\023E\211]#My\""
 307      45C6E78F 
 307      FBAF4BAA 
 307      1345895D 
 307      234D7922 
 308 027c 403D6D46 		.ascii	"@=mF\200\342_\354\351\31238\205\3049\237\341t\233\001"
 308      80E25FEC 
 308      E9CA3338 
 308      85C4399F 
 308      E1749B01 
 309 0290 7A4304A8 		.ascii	"zC\004\250\235\002\344\224\324{\367K%\325eA\200\025"
 309      9D02E494 
 309      D47BF74B 
 309      25D56541 
 309      8015
 310 02a2 D04300F4 		.ascii	"\320C\000\364m\332&\215\335\322>6\033\353\265\323)\324"
 310      6DDA268D 
 310      DDD23E36 
 310      1BEBB5D3 
 310      29D4
 311 02b4 950C7AE7 		.ascii	"\225\014z\347\371\365D\330\005\341\225[\2067\0266\303"
ARM GAS  C:\Users\Luggi\AppData\Local\Temp\ccGS0Ofd.s 			page 24


 311      F9F544D8 
 311      05E1955B 
 311      86371636 
 311      C3
 312 02c5 1BFD6B28 		.ascii	"\033\375k(\302\205K\035{\015\227:\356>\332i\206\246"
 312      C2854B1D 
 312      7B0D973A 
 312      EE3EDA69 
 312      86A6
 313 02d7 80207D19 		.ascii	"\200 }\031\310\305l\3041\315\243\031\312\241#I\237\014"
 313      C8C56CC4 
 313      31CDA319 
 313      CAA12349 
 313      9F0C
 314 02e9 4CA74969 		.ascii	"L\247Ii\250\036\370\324\236K\271\224\241\204s(\030\341"
 314      A81EF8D4 
 314      9E4BB994 
 314      A1847328 
 314      18E1
 315 02fb 874684F3 		.ascii	"\207F\204\363\027;\376e#\026\311\035\377pi\276D*\252"
 315      173BFE65 
 315      2316C91D 
 315      FF7069BE 
 315      442AAA
 316 030e 5BEAE31E 		.ascii	"[\352\343\036\021\015\274\352\375h{\025\0027\252\336"
 316      110DBCEA 
 316      FD687B15 
 316      0237AADE 
 317 031e 376CD020 		.ascii	"7l\320 \\;\336!\352@\3052\210\200\374\302\214\341\245"
 317      5C3BDE21 
 317      EA40C532 
 317      8880FCC2 
 317      8CE1A5
 318 0331 0A7B949B 		.ascii	"\012{\224\233\020\350\256\215\271\311\230\316\374\371"
 318      10E8AE8D 
 318      B9C998CE 
 318      FCF9
 319 033f 95EA16BE 		.ascii	"\225\352\026\276\355\201\276Sw\244\270#\316\361\353"
 319      ED81BE53 
 319      77A4B823 
 319      CEF1EB
 320 034e 0251D866 		.ascii	"\002Q\330f\271\301\012\256\015\2007\305\363\004Fe\375"
 320      B9C10AAE 
 320      0D8037C5 
 320      F3044665 
 320      FD
 321 035f A50273B2 		.ascii	"\245\002s\262x1\312\217\2222\\s\274J\034V\301\263\014"
 321      7831CA8F 
 321      92325C73 
 321      BC4A1C56 
 321      C1B30C
 322 0372 4A0A894F 		.ascii	"J\012\211O\307`1\365\020\252s7\325\314/OhjbVy,\363F"
 322      C76031F5 
 322      10AA7337 
 322      D5CC2F4F 
 322      686A6256 
 323 038a 456783F7 		.ascii	"Eg\203\367\223\310\275\250\275P\373\314\323\\\316a\241"
ARM GAS  C:\Users\Luggi\AppData\Local\Temp\ccGS0Ofd.s 			page 25


 323      93C8BDA8 
 323      BD50FBCC 
 323      D35CCE61 
 323      A1
 324 039b 101F9ED0 		.ascii	"\020\037\236\320\324\314\323\\\306\237\205B\225{$\262"
 324      D4CCD35C 
 324      C69F8542 
 324      957B24B2 
 325 03ab 7B3CF99E 		.ascii	"{<\371\236]\021\012\315\270\021\351} sV`)\036\260\226"
 325      5D110ACD 
 325      B811E97D 
 325      20735660 
 325      291EB096 
 326 03bf CE2FB20C 		.ascii	"\316/\262\014\374#\301\001\243\014\274\250\240\302\270"
 326      FC23C101 
 326      A30CBCA8 
 326      A0C2B8
 327 03ce 695C92A5 		.ascii	"i\\\222\245\270D\377S\373?k\322(\322\232\203\301U\263"
 327      B844FF53 
 327      FB3F6BD2 
 327      28D29A83 
 327      C155B3
 328 03e1 D61E1A46 		.ascii	"\326\036\032F\313,e\016\326\"\277\226\335\3038R!*r/"
 328      CB2C650E 
 328      D622BF96 
 328      DDC33852 
 328      212A722F 
 329 03f5 6291D8A6 		.ascii	"b\221\330\246\220\215\200aP\304\350\217\001(-\370\367"
 329      908D8061 
 329      50C4E88F 
 329      01282DF8 
 329      F7
 330 0406 F0FC3B15 		.ascii	"\360\374;\025\037Vl^\277\245\342\203u\345\225\037m\336"
 330      1F566C5E 
 330      BFA5E283 
 330      75E5951F 
 330      6DDE
 331 0418 50B1764D 		.ascii	"P\261vMye\331kk\313*7nZ\267j\305\006f\333\262qS\371"
 331      7965D96B 
 331      6BCB2A37 
 331      6E5AB76A 
 331      C50666DB 
 332 0430 7B2B65F7 		.ascii	"{+e\367\212\354^\325\260+{\367\177\213\254\334\242"
 332      8AEC5ED5 
 332      B02B7BF7 
 332      7F8BACDC 
 332      A2
 333              		.text
 334              		.section	.gnu.lto_Comp_4_LoadTrim.53c7c1b7,"",%progbits
 335 0000 789C6551 		.ascii	"x\234eQ;H\234A\020\236o\326\373\357\217g!\026\202W\005"
 335      3B489C41 
 335      109E6FD6 
 335      FBEF8F67 
 335      21168257 
 336 0015 E41024A4 		.ascii	"\344\020$\244\212}\300\302V\020\254\004\025s\205\020"
 336      8A7DC0C2 
 336      5610AC04 
ARM GAS  C:\Users\Luggi\AppData\Local\Temp\ccGS0Ofd.s 			page 26


 336      15738510 
 337 0025 3D39B476 		.ascii	"=9\264v\377\313a\002\021\021_\370,D\305gr\347Y\245\010"
 337      FFCB6102 
 337      11115FF8 
 337      2C44C567 
 337      72E759A5 
 338 003a FC682389 		.ascii	"\374h#\211D,\304`a \236yU\021\005\275\302\350\314\035"
 338      442CC460 
 338      61209E79 
 338      551105BD 
 338      C2E8CC1D 
 339 004e 8AC185DD 		.ascii	"\212\301\205\335\235\031\346{\314\256\241\207+,{\033"
 339      9D19E67B 
 339      CCAEA187 
 339      2B2C7B1B 
 340 005e 44D572C3 		.ascii	"D\325r\303\020x\360\013\221\3472\240\001\201z\031\275"
 340      1078F00B 
 340      91E732A0 
 340      01817A19 
 340      BD
 341 006f F8CDA78C 		.ascii	"\370\315\247\214A\177u<T\265`\255\375;4\332g\354HK\216"
 341      417F753C 
 341      54B560AD 
 341      FD3B34DA 
 341      67EC484B 
 342 0084 89CEB840 		.ascii	"\211\316\270@\204ETI\223\235\235K\025\233J\220\304\237"
 342      84455449 
 342      939D9D4B 
 342      159B4A90 
 342      C49F
 343 0096 BF5F9E95 		.ascii	"\277_\236\225\374\342\034\243T\323\311\203\223s\243"
 343      FCE21CA3 
 343      54D3C983 
 343      9373A3
 344 00a5 29B3A64B 		.ascii	")\263\246K\037\322O\"s\326&\374\217i\373\\\312\006K"
 344      1FD24F22 
 344      73D626FC 
 344      8F69FB5C 
 344      CA064B
 345 00b8 30428765 		.ascii	"0B\207e\204\261\2020I\211\260\212\210v\237&\257\016"
 345      84B18230 
 345      4989B08A 
 345      88769F26 
 345      AF0E
 346 00ca 424E52C4 		.ascii	"BNR\304K\013\222X\203#\276)U\346\333\353\353\215\375"
 346      4B0B9258 
 346      8323BE29 
 346      55E6DBEB 
 346      EB8DFD
 347 00dd F144A4DF 		.ascii	"\361D\244\337\270\200\002X\240E\0019\002\216FDYA\350"
 347      B8800258 
 347      A0450139 
 347      028E4644 
 347      5941E8
 348 00f0 3C27222D 		.ascii	"<'\"-\2679D\342\353\353\037o\267B\312r\301|\301\240"
 348      B73944E2 
 348      EBEB1F6F 
ARM GAS  C:\Users\Luggi\AppData\Local\Temp\ccGS0Ofd.s 			page 27


 348      B742CA72 
 348      C17CC1A0 
 349 0104 436C0ECD 		.ascii	"Cl\016\315\226kA\255\377\331\375\304\352\325\311\364"
 349      966B41AD 
 349      FFD9FDC4 
 349      EAD5C9F4 
 350 0114 7BB6481D 		.ascii	"{\266H\035|\313\356\356\271\371\022i\232\371y\365\246"
 350      7CCBEEEE 
 350      B9F91269 
 350      9AF979F5 
 350      A6
 351 0125 6406535E 		.ascii	"d\006S^\322\363+r\034\304;q\375^\\\023R\230\201\220"
 351      D2F32B72 
 351      1CC43B71 
 351      FD5E5C13 
 351      52988190 
 352 0139 0AE3ABA3 		.ascii	"\012\343\253\243\276\177w*\001Q\021\340\374\350\330"
 352      BE7F772A 
 352      015111E0 
 352      FCE8D8
 353 0148 5A40795C 		.ascii	"Z@y\\\227\220\026\200\232\011\026Z\264\353\177#\023"
 353      97901680 
 353      9A09165A 
 353      B4EB7F23 
 353      13
 354 0159 D397DEA3 		.ascii	"\323\227\336\243\274\352\306\255\221\205\201\235\341"
 354      BCEAC6AD 
 354      9185819D 
 354      E1
 355 0166 E07DE5F5 		.ascii	"\340}\345\365;\345L^\331\241#x\376\360\261\253\034\372"
 355      3BE54C5E 
 355      D9A12378 
 355      FEF0B1AB 
 355      1CFA
 356 0178 3759194F 		.ascii	"7Y\031O\306\226Gx\\\027\355\214\306[\273\243/\232\033"
 356      C6964778 
 356      5C17ED8C 
 356      C65BBBA3 
 356      2F9A1B
 357 018b 623DF1B6 		.ascii	"b=\361\266hS}C\254\266\246\2516\326\321\325\374\354"
 357      68537D43 
 357      ACB6A6A9 
 357      36D6D1D5 
 357      FCEC
 358 019d 691B05BB 		.ascii	"i\033\005\273\343\355\035\215\255/o\000o\264\257x"
 358      E3ED1D8D 
 358      AD2F6F00 
 358      6FB4AF78 
 359              		.text
 360              		.section	.gnu.lto_Comp_4_PwrDwnOverrideEnable.53c7c1b7,"",%progbits
 361 0000 789C6366 		.ascii	"x\234cf\300\004R@\254\311\310\300\240\004\244\031\231"
 361      C0045240 
 361      ACC9C8C0 
 361      A004A419 
 361      99
 362 0011 19189926 		.ascii	"\031\030\231&\234c`h\344`bd\0041\030\030\031\352\231"
 362      9C636068 
ARM GAS  C:\Users\Luggi\AppData\Local\Temp\ccGS0Ofd.s 			page 28


 362      E4606264 
 362      04311818 
 362      19EA99
 363 0024 18EB195F 		.ascii	"\030\353\031_2}db\234p`\365\014n\365\245\015\015\015"
 363      327D6462 
 363      9C7060F5 
 363      0C6EF5A5 
 363      0D0D0D
 364 0037 1F2ECD6D 		.ascii	"\037.\315m\343m\230\222\360\223\211\201\3413\023\304"
 364      E36D9892 
 364      F0938981 
 364      E13313C4 
 365 0047 20C6E58C 		.ascii	" \306\345\214\352\014@U\037[\376^\347fk\001\252\022"
 365      EA0C4055 
 365      1F5BFE5E 
 365      E7666B01 
 365      AA12
 366 0059 80C831AE 		.ascii	"\200\3101\256`d\003Z\300\260^\350@\303\377\377\233\277"
 366      6064035A 
 366      C0B05EE8 
 366      40C3FFFF 
 366      9BBF
 367 006b CFE852ED 		.ascii	"\317\350R\355gfeb\370\311\004\264\017H00<\001*\003\331"
 367      67666562 
 367      F8C904B4 
 367      0F483030 
 367      3C012A03 
 368 0080 F6948909 		.ascii	"\366\224\211\011D3\337b<\364\255\353X\377c.\220\326"
 368      4433DF62 
 368      3CF4ADEB 
 368      58FF632E 
 368      90D6
 369 0092 EF4C20BB 		.ascii	"\357L \273\277u\336[\303\371\202\351'\023\323\301\015"
 369      BF75DE5B 
 369      C3F982E9 
 369      2713D3C1 
 369      0D
 370 00a3 8D0D2C20 		.ascii	"\215\015, \213\356?9\177\221\003,\304\000\342~\236\337"
 370      8BEE3F39 
 370      7F91032C 
 370      C400E27E 
 370      9EDF
 371 00b5 BD9B732E 		.ascii	"\275\233s.\343\354\306\026\306\237L\314\214+\031\245"
 371      E3ECC616 
 371      C69F4CCC 
 371      8C2B19A5 
 372 00c5 18573102 		.ascii	"\030W1\002}\307\270\232q.#\303-\306\346/l\020\343\230"
 372      7DC7B89A 
 372      712E23C3 
 372      2DC6E62F 
 372      6C10E398 
 373 00d9 2126EE9A 		.ascii	"!&\356\232tb\006\033H;#\013\003\343\032\240J\240\255"
 373      7462061B 
 373      483B230B 
 373      03E31AA0 
 373      4AA0AD
 374 00ec 9318414A 		.ascii	"\223\030AJ\360\031\266\026h\030\320\010\206{\214\215"
ARM GAS  C:\Users\Luggi\AppData\Local\Temp\ccGS0Ofd.s 			page 29


 374      F019B616 
 374      6818D008 
 374      867B8C8D 
 375 00fc 073E3FD6 		.ascii	"\007>?\326\000)\007y\376\011\320\033@\227\003]\242\340"
 375      00290779 
 375      FE09D01B 
 375      4097035D 
 375      A2E0
 376 010e 9E9A975A 		.ascii	"\236\232\227Z\224X\222\232\022\037\234_Z\224\234\032"
 376      9458929A 
 376      121F9C5F 
 376      5A949C1A 
 377 011e 13109CEF 		.ascii	"\023\020\234\357l\032\343\234\237[\020o\242\227\314"
 377      6C1AE39C 
 377      9F5B106F 
 377      A297CC
 378 012d 00003B1B 		.ascii	"\000\000;\033t\007"
 378      7407
 379              		.text
 380              		.section	.gnu.lto_Comp_4_PwrDwnOverrideDisable.53c7c1b7,"",%progbits
 381 0000 789C7D8F 		.ascii	"x\234}\217?HBQ\024\306\317wn\211&B4:E\213\321\320Tc"
 381      3F484251 
 381      14C6CF77 
 381      6E892642 
 381      343A458B 
 382 0018 93436BE0 		.ascii	"\223Ck\340*X\330\033\313\220\232\275\217\036A\266H4"
 382      2A58D81B 
 382      CB909ABD 
 382      8F1E41B6 
 382      4834
 383 002a 24214D61 		.ascii	"$!Ma\251Q\344\330\220\006\255FS\340`C\366oK\204W\217"
 383      A951E4D8 
 383      9006AD46 
 383      53E06043 
 383      F66F4B84 
 384 0040 083BB737 		.ascii	"\010;\2677\006]\270\367\334{\317w~\3379\212\376\256"
 384      065DB8F7 
 384      DC7BCF77 
 384      7EDF398A 
 384      FEAE
 385 0052 A8EC2910 		.ascii	"\250\354)\020MH\204\"p\241Ed\007\0310\027\002\345\030"
 385      4D488422 
 385      70A14564 
 385      07193017 
 385      02E518
 386 0065 39BC718F 		.ascii	"9\274q\217QhT\367\303\261#\255\365\373E}+\242\367\026"
 386      516854F7 
 386      C3B123AD 
 386      F5FB457D 
 386      2BA2F716 
 387 0079 3D26EAB3 		.ascii	"=&\352\263\017B\0311\022U\317\371\276\017\007\034Q\215"
 387      0F421931 
 387      1255CFF9 
 387      BE0F071C 
 387      518D
 388 008b FA391C23 		.ascii	"\3729\034# \006t6\326\320\203A\275U\314\317\025\325"
 388      20067436 
ARM GAS  C:\Users\Luggi\AppData\Local\Temp\ccGS0Ofd.s 			page 30


 388      D6D08341 
 388      BD55CCCF 
 388      15D5
 389 009d 3093C7E2 		.ascii	"0\223\307\342'\007QWd\306\355\211\331D\325\306\265\233"
 389      27075157 
 389      64C6ED89 
 389      D944D5C6 
 389      B59B
 390 00af 778B8F23 		.ascii	"w\213\217#\246\364\203\215\267\273\335\251\205^\331"
 390      A6F4838D 
 390      B7BBDDA9 
 390      855ED9
 391 00be 636E9EDB 		.ascii	"cn\236\333z\310\030=to\357\202\277_d\236\375\303\235"
 391      7AC8183D 
 391      746FEF82 
 391      BF5F649E 
 391      FDC39D
 392 00d1 CB500907 		.ascii	"\313P\011\007\266\003\217\025N\020E\0052\035\252(\201"
 392      B6038F15 
 392      4E104505 
 392      321DAA28 
 392      81
 393 00e2 DAD8FC0C 		.ascii	"\332\330\374\014\3708\345\023\3137/\315\210)W_ \324"
 393      F838E513 
 393      CB372FCD 
 393      8829575F 
 393      20D4
 394 00f4 442AB6BB 		.ascii	"D*\266\2730\232\377h\247B\023\006u`7\256\236'\215\334"
 394      309AFF68 
 394      A7421306 
 394      756037AE 
 394      9E278DDC 
 395 0108 4CDF9539 		.ascii	"L\337\2259\244uie|\336Z\265\262K\353\326r*\221\331\310"
 395      A4756965 
 395      7CDE5AB5 
 395      B24BEBD6 
 395      722A91D9 
 396 011d A6ADE442 		.ascii	"\246\255\344B\"\023\237M\3063+k\251\231\3514\375\000"
 396      22139F4D 
 396      C6332B6B 
 396      A999E934 
 396      FD00
 397 012f 4560756E 		.ascii	"E`un"
 398              		.text
 399              		.section	.gnu.lto_.symbol_nodes.53c7c1b7,"",%progbits
 400 0000 789C55CA 		.ascii	"x\234U\312;\012\302P\020\205\34133\367&7\217%\270\014"
 400      3B0AC250 
 400      1085E133 
 400      33F72637 
 400      8F25B80C 
 401 0014 F777520A 		.ascii	"\367wR\012\202\330h\035\203Kp\0056\026Bz;\015\3422\304"
 401      82D8681D 
 401      834B7005 
 401      3616427A 
 401      3B0DE232 
 402 0029 842064A6 		.ascii	"\204 d\246\371\371\016c\000D0\237\346\004\366=@\342"
 402      F9F90E63 
ARM GAS  C:\Users\Luggi\AppData\Local\Temp\ccGS0Ofd.s 			page 31


 402      0044309F 
 402      E604F63D 
 402      40E2
 403 003b D06E6AA8 		.ascii	"\320nj\250R\376\303\261M\320@u\2164gap6\306\245#pRB"
 403      52FEC3B1 
 403      4DD04075 
 403      8E346761 
 403      7036C6A5 
 404 0053 3366EE2D 		.ascii	"3f\356-1w.\230\234K\026\316\025\313\245\245f5\033M\223"
 404      31772E98 
 404      9C4B16CE 
 404      15CBA5A5 
 404      66351B4D 
 405 0068 60A871DE 		.ascii	"`\250q\336}\036\321\202\241{~\305b\300pY[\024t\257\221"
 405      7D1ED182 
 405      A17B7EC5 
 405      62C07059 
 405      5B1474AF 
 406 007d 09E8EE37 		.ascii	"\011\350\3567\233z\335\276WS\207\261\370\001(\210C\331"
 406      9B7ADDBE 
 406      575387B1 
 406      F8012888 
 406      43D9
 407              		.text
 408              		.section	.gnu.lto_.refs.53c7c1b7,"",%progbits
 409 0000 789C6366 		.ascii	"x\234cf``\340d\200\000&V\0066FF6\026\006\000\001n\000"
 409      6060E064 
 409      80002656 
 409      06364646 
 409      36160600 
 410 0017 26       		.ascii	"&"
 411              		.text
 412              		.section	.gnu.lto_.decls.53c7c1b7,"",%progbits
 413 0000 789C8555 		.ascii	"x\234\205UoPTU\024\277w\357\362owA\353\0036\344\214"
 413      6F505455 
 413      14BF77EF 
 413      F26F7741 
 413      EB0336E4 
 414 0015 38CE3835 		.ascii	"8\31685\3438\325T\343\267l\260\321\032\247\230!\373"
 414      E338D554 
 414      E3B76CB0 
 414      D11AA798 
 414      21FB
 415 0027 904ECE2A 		.ascii	"\220N\316*o\022S`\2265\207/u\005D\324\024\322\014$\303"
 415      6F125360 
 415      9635872F 
 415      750544D4 
 415      14D20C24 
 416 003c C534116B 		.ascii	"\3054\021k]P\243\005\204\005tA\020Xp\001E\321]\360_"
 416      5D50A305 
 416      84057441 
 416      10587001 
 416      45D15DF0 
 417 0051 51CE6666 		.ascii	"Q\316ff\353`\276\316\275\367=\366--\361f\016\274{\337"
 417      EB60BECE 
 417      BDF73DF6 
 417      2D2DF166 
ARM GAS  C:\Users\Luggi\AppData\Local\Temp\ccGS0Ofd.s 			page 32


 417      0EBC7BDF 
 418 0065 F9FD39E7 		.ascii	"\371\3759\347\036.\004!4\227 $\303c\210Eh\025F\310\004"
 418      1E2E0421 
 418      34972024 
 418      C3638845 
 418      681546C8 
 419 007a 7BA910B0 		.ascii	"{\251\020\260\215\022!\354\020\265H<\354\233\023\242"
 419      8D1221EC 
 419      10B5483C 
 419      EC9B13A2 
 420 008a 11A209C2 		.ascii	"\021\242\011\302\005\321\012q\036\242\035\242\023\242"
 420      05D10A71 
 420      1EA21DA2 
 420      13A2
 421 0098 07C203D1 		.ascii	"\007\302\003\321\017\341\205\000J4\204\302\037\306\021"
 421      0FE18500 
 421      4A3484C2 
 421      1FC611
 422 00a7 A7E8D42A 		.ascii	"\247\350\324*:+ \256C\014C\214(\272\227\224|\235\202"
 422      3A2B20AE 
 422      430C438C 
 422      28BA9794 
 422      7C9D82
 423 00ba F1A2FF3E 		.ascii	"\361\242\377>\314\213^\341J\324p E\2731\002\246i\006"
 423      CC8B5EE1 
 423      4AD47020 
 423      45BB3102 
 423      A66906
 424 00cd 4C53040C 		.ascii	"LS\004\014\2535v\212g\237\006;\012\341\327p\270\"p\260"
 424      AB35768A 
 424      679F063B 
 424      0AE1D770 
 424      B82270B0 
 425 00e1 5EC56874 		.ascii	"^\305ht\307\024\256\272)\036tJn$\016\326\353h\015\307"
 425      C714AEBA 
 425      291E744A 
 425      6E240ED6 
 425      EB680DC7 
 426 00f5 2D85E336 		.ascii	"-\205\3436D\275\222C\224\274V\245\376Hg\320\256\364"
 426      44BD9243 
 426      94BC56A5 
 426      FE4867D0 
 426      AEF4
 427 0107 40AD656A 		.ascii	"@\255ej\017\332#h\263\3635@$ 1\013v\015>Y\3031\246\324"
 427      0FDA2368 
 427      B3F33540 
 427      2420310B 
 427      760D3E59 
 428 011f A4D6C270 		.ascii	"\244\326\302p\316\010|lV\3249\320rN\345{G\343\253'\002"
 428      CE087C6C 
 428      56D439D0 
 428      724EE57B 
 428      47E3AB27 
 429 0134 8F07FDFF 		.ascii	"\217\007\375\377yz\"`\372g\300\364G\300\374\241\303"
 429      797A2260 
 429      FA67C0F4 
 429      47C0FCA1 
ARM GAS  C:\Users\Luggi\AppData\Local\Temp\ccGS0Ofd.s 			page 33


 429      C3
 430 0145 5DA3C13F 		.ascii	"]\243\301?M\367t8\3010\233-\313\207n?$\2604\031tl\371"
 430      4DF77438 
 430      C1309B2D 
 430      CB876E3F 
 430      24B03419 
 431 015c ED83FB8D 		.ascii	"\355\203\373\215qD\207\331\373we~\257aQ5\245\264\210"
 431      714487D9 
 431      FB77657E 
 431      AF615135 
 431      A5B488
 432 016f BA3A7088 		.ascii	"\272:p\210b\333\367\015_\304\000&\331\300\227\245\343"
 432      62DBF70D 
 432      5FC40026 
 432      D9C097A5 
 432      E3
 433 0180 C133B17C 		.ascii	"\3013\261|)\313\0046t\337{\376.O\300\013\015G\001\032"
 433      29CB0436 
 433      74DF7BFE 
 433      2E4FC00B 
 433      0D47011A 
 434 0194 A81A1C9E 		.ascii	"\250\032\034\236K\251\036\333\261\001\237\300\004W\343"
 434      4BA91EDB 
 434      B1019FC0 
 434      0457E3
 435 01a3 45CC20C3 		.ascii	"E\314 \303\262\247\210\322<J\363i\324\013\010\037\307"
 435      B2A788D2 
 435      3C4AF369 
 435      D40B081F 
 435      C7
 436 01b4 49B80A27 		.ascii	"I\270\012'!\374#^\010\011<\025\237\204\315\037\330&"
 436      21FC235E 
 436      08093C15 
 436      9F84CD1F 
 436      D826
 437 01c6 1080D860 		.ascii	"\020\200\330`\363\216\035\261\344\025\254\365\221(|"
 437      F38E1DB1 
 437      E415ACF5 
 437      91287C
 438 01d5 ECED2A6F 		.ascii	"\354\355*o!|)\263\317\272\253W\277zL\260a!\227\010\354"
 438      217C29B3 
 438      CFBAAB57 
 438      BF7A4CB0 
 438      61219708 
 439 01ea A3E43984 		.ascii	"\243\3449\204\027%\341\027\201\3534\010$*\002\016\020"
 439      1725E117 
 439      81EB3408 
 439      242A020E 
 439      10
 440 01fb A80101E6 		.ascii	"\250\001\001\346\326V\035\217q-8=\025r\232\2508e\373"
 440      D6561D8F 
 440      712D383D 
 440      15729AA8 
 440      3865FB
 441 020e A0E2B43F 		.ascii	"\240\342\264?\3546\362\376%3\321\372}\035e\321\274\177"
 441      EC36F2FE 
 441      2533D1FA 
ARM GAS  C:\Users\Luggi\AppData\Local\Temp\ccGS0Ofd.s 			page 34


 441      7D1D65D1 
 441      BC7F
 442 0220 7AB62CD9 		.ascii	"z\266,\331\336R\242\327\353D6^\315\367\376\222\375\307"
 442      DE52A2D7 
 442      EB44365E 
 442      CDF7FE92 
 442      FDC7
 443 0232 74730E00 		.ascii	"ts\016\000=-\311\247\263\36585\021\237\001\321\263 "
 443      3D2DC9A7 
 443      B3F53835 
 443      119F01D1 
 443      B320
 444 0244 8A701D9E 		.ascii	"\212p\035\236\003?\177\302z\321\333\302\346\303\305"
 444      033F7FC2 
 444      7AD1DBC2 
 444      E6C3C5
 445 0253 B16409AF 		.ascii	"\261d\011\257o\177\261\273\030'WP\227#P\336f\337\370"
 445      6F7FB1BB 
 445      18275750 
 445      972350DE 
 445      66DFF8
 446 0266 653E3D4A 		.ascii	"e>=J}\262<\217\203\360\317\223\026\021{\027\036\235"
 446      7DB23C8F 
 446      83F0CF93 
 446      16117B17 
 446      1E9D
 447 0278 3819800D 		.ascii	"8\031\200\015\023\243^\375\264\212\365\\q\265\"x\277"
 447      13A35EFD 
 447      B48AF55C 
 447      71B52278 
 447      BF
 448 0289 D9732786 		.ascii	"\331s'\206|\302\005\267\373*z\214 \350s\370\272\332"
 448      7CC205B7 
 448      FB2A7A8C 
 448      20E873F8 
 448      BADA
 449 029b 2457017D 		.ascii	"$W\001}\302N\224\001p\203F\255AUk\344j\362\275\322\335"
 449      C24E9401 
 449      708346AD 
 449      41556BE4 
 449      6AF2BDD2 
 450 02b0 4692CB19 		.ascii	"F\222\313\031\212\316^\034\327\001\203\315a\353>\026"
 450      8ACE5E1C 
 450      D70183CD 
 450      61EB3E16 
 451 02c0 DD415DB2 		.ascii	"\335A]\262\374\006\307\237\323\340\317\251\370&\216"
 451      FC06C79F 
 451      D3E0CFA9 
 451      F8268E
 452 02cf AFAC7A74 		.ascii	"\257\254ztDO\266cN00\370\270\227p\013\266=\307U\002"
 452      444FB663 
 452      4E3030F8 
 452      B897700B 
 452      B63DC755 
 453 02e4 566EB386 		.ascii	"Vn\263\206\240Y%pq\202C\305'\277\216\"\007\004A\301"
 453      A0592570 
 453      718243C5 
ARM GAS  C:\Users\Luggi\AppData\Local\Temp\ccGS0Ofd.s 			page 35


 453      27BF8E22 
 453      070441C1 
 454 02f8 8D2BA526 		.ascii	"\215+\245&A0^K\227\212\032\270\205\026\015C\213\312"
 454      41305E4B 
 454      978A1AB8 
 454      85160D43 
 454      8BCA
 455 030a D0CA190A 		.ascii	"\320\312\031\012\006\266\375\212I\245`8\265C\336\033"
 455      06B6FD8A 
 455      49A56038 
 455      B543DE1B 
 456 031a 2F6A280B 		.ascii	"/j(\013\253\241MC\320\246\022\234\347\004;\013\034D"
 456      ABA14D43 
 456      D0A6129C 
 456      E7043B0B 
 456      1C44
 457 032c DB7076FA 		.ascii	"\333pv\372\241\216_\010\353\370XY\360\216\221\330\205"
 457      A18E5F08 
 457      EBF85859 
 457      F08E91D8 
 457      85
 458 033d 58FFCE8A 		.ascii	"X\377\316\212;&.\346\233\270\033j9 \260[#\347V\345\332"
 458      3B262EE6 
 458      9BB81B6A 
 458      3920B05B 
 458      23E756E5 
 459 0352 B9DCC4E8 		.ascii	"\271\334\304\350eg\330H\331\303\364:\302\364\002\217"
 459      6567D848 
 459      D9C3F43A 
 459      C2F4028F 
 460 0362 EF1E8D25 		.ascii	"\357\036\215%.\241\227\327]\360\024\013=y\217\333DE"
 460      2EA197D7 
 460      5DF0140B 
 460      3D798FDB 
 460      4445
 461 0374 791C822F 		.ascii	"y\034\202/j\004/\252\202\235\\\360p\373o\003\263\370"
 461      6A042FAA 
 461      829D5CF0 
 461      70FB6F03 
 461      B3F8
 462 0386 5CDB27E7 		.ascii	"\\\333'\347\332\321l\277`\234v\312.q\017]\352\\\017"
 462      DAD16CBF 
 462      609C76CA 
 462      2E710F5D 
 462      EA5C0F
 463 0399 9597EE8E 		.ascii	"\225\227\356\216\"\275\302\304\351`p\247^\2308Qs%d\002"
 463      22BDC2C4 
 463      E96070A7 
 463      5E983851 
 463      73256402 
 464 03ad 30B85B63 		.ascii	"0\270[c\242[5\321\303M\370G\212\363\342\311M\301QR8"
 464      A25B35D1 
 464      C34DF847 
 464      8AF3E2C9 
 464      4DC15152 
 465 03c2 BE8F088E 		.ascii	"\276\217\010\216\337k6\034\244\266<\372T\206?|~R\275"
 465      DF6B361C 
ARM GAS  C:\Users\Luggi\AppData\Local\Temp\ccGS0Ofd.s 			page 36


 465      A4B63CFA 
 465      54863F7C 
 465      7E52BD
 466 03d5 1A925E95 		.ascii	"\032\222^\225\304\303I\006\013\217}F&\004\207m\250\272"
 466      C4C34906 
 466      0B8F7D46 
 466      2604876D 
 466      A8BA
 467 03e7 CE284EFA 		.ascii	"\316(N\372\233\323\351a\363\336\247a\350S\031\3729\303"
 467      9BD3E961 
 467      F3DEA761 
 467      E85319FA 
 467      39C3
 468 03f9 7EBFAF3C 		.ascii	"~\277\257<\212\224\211K\362I\253\363B\024\0337\032\350"
 468      8A94894B 
 468      F249ABF3 
 468      42141B37 
 468      1AE8
 469 040b FC65E2A5 		.ascii	"\374e\342\245\203\264R\365\301\212\271\254a\271\254"
 469      83B452F5 
 469      C18AB9AC 
 469      61B9AC
 470 041a B27839CB 		.ascii	"\262x9\313\236\361\177\236%\255\202\344\3515G\035\273"
 470      9EF17F9E 
 470      25AD82E4 
 470      E935471D 
 470      BB
 471 042b 44606A78 		.ascii	"D`jx\263j\334\005m\263\026TR\333\221@y~\027)\005vJ\331"
 471      B36ADC05 
 471      6DB31654 
 471      52DB9140 
 471      797E1729 
 472 0443 14F2B91A 		.ascii	"\024\362\271\032\020\244\312]\206\330\032~\016\262;"
 472      10A4CA5D 
 472      86D81A7E 
 472      0EB23B
 473 0452 72082F00 		.ascii	"r\010/\0008-\335\015\007\336'\270\317>\332\345\2147"
 473      382DDD0D 
 473      07DE27B8 
 473      CF3EDAE5 
 473      8C37
 474 0464 14B13B76 		.ascii	"\024\261;v\346;\020nMo\317\256\3018qkNE\\\233\346\326"
 474      E63B106E 
 474      4D6FCFAE 
 474      C138716B 
 474      4E455C9B 
 475 047a 0C5405C7 		.ascii	"\014T\005\307V\024\320\245x\030\334]\011\335\234W\261"
 475      5614D0A5 
 475      7818DC5D 
 475      09DD9C57 
 475      B1
 476 048b 61F27F86 		.ascii	"a\362\177\206\267+\357\0321\355bW1\014K\334\012\236"
 476      B72BEF1A 
 476      31ED6257 
 476      310C4BDC 
 476      0A9E
 477 049d 1B9A96EB 		.ascii	"\033\232\226\353\330\304{\003\277\331\031u>\350\215"
ARM GAS  C:\Users\Luggi\AppData\Local\Temp\ccGS0Ofd.s 			page 37


 477      D8C47B03 
 477      BFD91975 
 477      3EE88D
 478 04ac D126B35E 		.ascii	"\321&\263^\206\222G\224\344\021\226L\354}\315\025:\234"
 478      86924794 
 478      E411964C 
 478      EC7DCD15 
 478      3A9C
 479 04be 94642883 		.ascii	"\224d(\203\377S\301y\330\007\252\354\325uO\226?\227"
 479      FF53C179 
 479      D807AAEC 
 479      D5754F96 
 479      3F97
 480 04d0 C5531CC3 		.ascii	"\305S\034\303\267\213\330\254\006\36245!\276\217\360"
 480      B78BD8AC 
 480      06F23435 
 480      21BE8FF0 
 481 04e0 4D20BFC1 		.ascii	"M \277\301:\350\343\227\274\277\304\335\030\2476\255"
 481      3AE8E397 
 481      BCBFC4DD 
 481      18A736AD 
 482 04f0 68861640 		.ascii	"h\206\026@~~\341!w\254\326\260?\254\272Q\305\360(\257"
 482      7E7EE121 
 482      77ACD6B0 
 482      3FACBA51 
 482      C5F028AF 
 483 0504 AEC2313C 		.ascii	"\256\3021<_\233[\027V\334\230\222;\306s\373\002\362"
 483      5F9B5B17 
 483      56DC9892 
 483      3BC673FB 
 483      02F2
 484 0516 47DADCF0 		.ascii	"G\332\334\360{\345\226\222{\213\347\236z\344\2516j\223"
 484      7BE59692 
 484      7B8BE79E 
 484      7AE4A936 
 484      6A93
 485 0528 EBC3886F 		.ascii	"\353\303\210oc\223z0\360\212\242\267ddZ_~=z\371\273"
 485      63937A30 
 485      F08AA2B7 
 485      64645A5F 
 485      7E3D7AF9 
 486 053d AB9253D0 		.ascii	"\253\222S\320\374\345R\246d1[\245\364\265iY[,\353\245"
 486      FCE552A6 
 486      64315BA5 
 486      F4B56959 
 486      5B2CEBA5 
 487 0551 35A96959 		.ascii	"5\251iY)\257\255Y\237k\315\315\226r\026o@Q,\177\311"
 487      29AFAD59 
 487      9F6BCDCD 
 487      9672166F 
 487      40512C7F 
 488 0566 3329599B 		.ascii	"3)Y\233\263\327\276\272\326j\311\330\374f\372\306-9"
 488      B3D7BEBA 
 488      D66AC9D8 
 488      FC66FAC6 
 488      2D39
 489 0578 D6E46990 		.ascii	"\326\344i\220\"q\361z\024\257@\336\3124\257\333$\031"
ARM GAS  C:\Users\Luggi\AppData\Local\Temp\ccGS0Ofd.s 			page 38


 489      2271F17A 
 489      14AF40DE 
 489      CA34AFDB 
 489      2419
 490 058a 95559A35 		.ascii	"\225U\2325+{\226\372.Y\323\262%)]\375\366vf\206\325"
 490      2B7B96FA 
 490      2E59D3B2 
 490      25295DFD 
 490      F6766686 
 491 059f 349967B6 		.ascii	"4\231g\266XU\325\345\222\225\275\231-R\202\262\363\241"
 491      5855D5E5 
 491      9295BD99 
 491      2D5282B2 
 491      F3A1
 492 05b1 64C94A31 		.ascii	"d\311J1oR\231Vf\231\323\337\007k\317+\353\324\255\226"
 492      6F529956 
 492      6699D3DF 
 492      076BCF2B 
 492      EBD4AD96 
 493 05c5 655B33DF 		.ascii	"e[3\337\373T\262X2\322%\341`n\304o\3132r\330\307\270"
 493      FB54B258 
 493      32D225E1 
 493      606EC46F 
 493      CB3272D8 
 494 05db 94DC65D2 		.ascii	"\224\334e\322&s\356\252\234y\323\325\225\2732c\035\364"
 494      2673EEAA 
 494      9C79D3D5 
 494      95BB3263 
 494      1DF4
 495 05ed 43759001 		.ascii	"Cu\220\001f?0[\364\026\351\343%\377\002\226\373B`"
 495      663F305B 
 495      F416E9E3 
 495      25FF0296 
 495      FB4260
 496              		.text
 497              		.section	.gnu.lto_.symtab.53c7c1b7,"",%progbits
 498 0000 436F6D70 		.ascii	"Comp_4_Enable\000\000\000\000\000\000\000\000\000\000"
 498      5F345F45 
 498      6E61626C 
 498      65000000 
 498      00000000 
 499 0017 0000BC00 		.ascii	"\000\000\274\000\000\000Comp_4_Stop\000\000\000\000"
 499      0000436F 
 499      6D705F34 
 499      5F53746F 
 499      70000000 
 500 002c 00000000 		.ascii	"\000\000\000\000\000\000\000\000\276\000\000\000Com"
 500      00000000 
 500      BE000000 
 500      436F6D
 501 003b 705F345F 		.ascii	"p_4_SetSpeed\000\000\000\000\000\000\000\000\000\000"
 501      53657453 
 501      70656564 
 501      00000000 
 501      00000000 
 502 0051 0000C000 		.ascii	"\000\000\300\000\000\000Comp_4_Init\000\000\000\000"
 502      0000436F 
ARM GAS  C:\Users\Luggi\AppData\Local\Temp\ccGS0Ofd.s 			page 39


 502      6D705F34 
 502      5F496E69 
 502      74000000 
 503 0066 00000000 		.ascii	"\000\000\000\000\000\000\000\000\302\000\000\000Com"
 503      00000000 
 503      C2000000 
 503      436F6D
 504 0075 705F345F 		.ascii	"p_4_Start\000\000\000\000\000\000\000\000\000\000\000"
 504      53746172 
 504      74000000 
 504      00000000 
 504      00000000 
 505 0089 00C40000 		.ascii	"\000\304\000\000\000Comp_4_initVar\000\000\000\000\000"
 505      00436F6D 
 505      705F345F 
 505      696E6974 
 505      56617200 
 506 00a1 00000000 		.ascii	"\000\000\000\000\000\000\000\327\000\000\000Comp_4_"
 506      000000D7 
 506      00000043 
 506      6F6D705F 
 506      345F
 507 00b3 47657443 		.ascii	"GetCompare\000\000\000\000\000\000\000\000\000\000\000"
 507      6F6D7061 
 507      72650000 
 507      00000000 
 507      00000000 
 508 00c8 00C70000 		.ascii	"\000\307\000\000\000Comp_4_ZeroCal\000\000\000\000\000"
 508      00436F6D 
 508      705F345F 
 508      5A65726F 
 508      43616C00 
 509 00e0 00000000 		.ascii	"\000\000\000\000\000\000\000\312\000\000\000Comp_4_"
 509      000000CA 
 509      00000043 
 509      6F6D705F 
 509      345F
 510 00f2 4C6F6164 		.ascii	"LoadTrim\000\000\000\000\000\000\000\000\000\000\000"
 510      5472696D 
 510      00000000 
 510      00000000 
 510      000000
 511 0105 00CE0000 		.ascii	"\000\316\000\000\000Comp_4_PwrDwnOverrideEnable\000"
 511      00436F6D 
 511      705F345F 
 511      50777244 
 511      776E4F76 
 512 0126 00000000 		.ascii	"\000\000\000\000\000\000\000\000\000\000\000\320\000"
 512      00000000 
 512      000000D0 
 512      00
 513 0133 0000436F 		.ascii	"\000\000Comp_4_PwrDwnOverrideDisable\000\000\000\000"
 513      6D705F34 
 513      5F507772 
 513      44776E4F 
 513      76657272 
 514 0155 00000000 		.ascii	"\000\000\000\000\000\000\000\000\322\000\000\000CyD"
ARM GAS  C:\Users\Luggi\AppData\Local\Temp\ccGS0Ofd.s 			page 40


 514      00000000 
 514      D2000000 
 514      437944
 515 0164 656C6179 		.ascii	"elayUs\000\000\002\000\000\000\000\000\000\000\000\000"
 515      55730000 
 515      02000000 
 515      00000000 
 515      0000
 516 0176 D4000000 		.ascii	"\324\000\000\000"
 517              		.text
 518              		.section	.gnu.lto_.opts,"",%progbits
 519 0000 272D666E 		.ascii	"'-fno-trapv' '-fno-strict-overflow' '-mcpu=cortex-m"
 519      6F2D7472 
 519      61707627 
 519      20272D66 
 519      6E6F2D73 
 520 0033 33272027 		.ascii	"3' '-mthumb' '-g' '-Og' '-ffunction-sections' '-flt"
 520      2D6D7468 
 520      756D6227 
 520      20272D67 
 520      2720272D 
 521 0066 6F272027 		.ascii	"o' '-ffat-lto-objects'\000"
 521      2D666661 
 521      742D6C74 
 521      6F2D6F62 
 521      6A656374 
 522              		.text
 523              		.cfi_sections	.debug_frame
 524              		.section	.text.Comp_4_trimAdjust,"ax",%progbits
 525              		.align	2
 526              		.thumb
 527              		.thumb_func
 528              		.type	Comp_4_trimAdjust, %function
 529              	Comp_4_trimAdjust:
 530              	.LFB6:
 531              		.file 1 "Generated_Source\\PSoC5\\Comp_4.c"
   1:Generated_Source\PSoC5/Comp_4.c **** /*******************************************************************************
   2:Generated_Source\PSoC5/Comp_4.c **** * File Name: Comp_4.c
   3:Generated_Source\PSoC5/Comp_4.c **** * Version 2.0
   4:Generated_Source\PSoC5/Comp_4.c **** *
   5:Generated_Source\PSoC5/Comp_4.c **** * Description:
   6:Generated_Source\PSoC5/Comp_4.c **** *  This file provides the source code to the API for the Comparator component
   7:Generated_Source\PSoC5/Comp_4.c **** *
   8:Generated_Source\PSoC5/Comp_4.c **** * Note:
   9:Generated_Source\PSoC5/Comp_4.c **** *  None
  10:Generated_Source\PSoC5/Comp_4.c **** *
  11:Generated_Source\PSoC5/Comp_4.c **** ********************************************************************************
  12:Generated_Source\PSoC5/Comp_4.c **** * Copyright 2008-2012, Cypress Semiconductor Corporation.  All rights reserved.
  13:Generated_Source\PSoC5/Comp_4.c **** * You may use this file only in accordance with the license, terms, conditions, 
  14:Generated_Source\PSoC5/Comp_4.c **** * disclaimers, and limitations in the end user license agreement accompanying 
  15:Generated_Source\PSoC5/Comp_4.c **** * the software package with which this file was provided.
  16:Generated_Source\PSoC5/Comp_4.c **** *******************************************************************************/
  17:Generated_Source\PSoC5/Comp_4.c **** 
  18:Generated_Source\PSoC5/Comp_4.c **** #include "Comp_4.h"
  19:Generated_Source\PSoC5/Comp_4.c **** 
  20:Generated_Source\PSoC5/Comp_4.c **** uint8 Comp_4_initVar = 0u;
  21:Generated_Source\PSoC5/Comp_4.c **** 
ARM GAS  C:\Users\Luggi\AppData\Local\Temp\ccGS0Ofd.s 			page 41


  22:Generated_Source\PSoC5/Comp_4.c **** /* Internal functions definitoin */
  23:Generated_Source\PSoC5/Comp_4.c **** static void Comp_4_trimAdjust(uint8 nibble) ;
  24:Generated_Source\PSoC5/Comp_4.c **** 
  25:Generated_Source\PSoC5/Comp_4.c **** /* static Comp_4_backupStruct  Comp_4_backup; */
  26:Generated_Source\PSoC5/Comp_4.c **** #if (CY_PSOC5A)
  27:Generated_Source\PSoC5/Comp_4.c ****     static Comp_4_LOWPOWER_BACKUP_STRUCT  Comp_4_lowPowerBackup;
  28:Generated_Source\PSoC5/Comp_4.c **** #endif /* CY_PSOC5A */
  29:Generated_Source\PSoC5/Comp_4.c **** 
  30:Generated_Source\PSoC5/Comp_4.c **** /* variable to decide whether or not to restore the control register in 
  31:Generated_Source\PSoC5/Comp_4.c ****    Enable() API for PSoC5A only */
  32:Generated_Source\PSoC5/Comp_4.c **** #if (CY_PSOC5A)
  33:Generated_Source\PSoC5/Comp_4.c ****     static uint8 Comp_4_restoreReg = 0u;
  34:Generated_Source\PSoC5/Comp_4.c **** #endif /* CY_PSOC5A */
  35:Generated_Source\PSoC5/Comp_4.c **** 
  36:Generated_Source\PSoC5/Comp_4.c **** 
  37:Generated_Source\PSoC5/Comp_4.c **** /*******************************************************************************
  38:Generated_Source\PSoC5/Comp_4.c **** * Function Name: Comp_4_Init
  39:Generated_Source\PSoC5/Comp_4.c **** ********************************************************************************
  40:Generated_Source\PSoC5/Comp_4.c **** *
  41:Generated_Source\PSoC5/Comp_4.c **** * Summary:
  42:Generated_Source\PSoC5/Comp_4.c **** *  Initialize to the schematic state
  43:Generated_Source\PSoC5/Comp_4.c **** * 
  44:Generated_Source\PSoC5/Comp_4.c **** * Parameters:
  45:Generated_Source\PSoC5/Comp_4.c **** *  void
  46:Generated_Source\PSoC5/Comp_4.c **** *
  47:Generated_Source\PSoC5/Comp_4.c **** * Return:
  48:Generated_Source\PSoC5/Comp_4.c **** *  void
  49:Generated_Source\PSoC5/Comp_4.c **** *
  50:Generated_Source\PSoC5/Comp_4.c **** *******************************************************************************/
  51:Generated_Source\PSoC5/Comp_4.c **** void Comp_4_Init(void) 
  52:Generated_Source\PSoC5/Comp_4.c **** {
  53:Generated_Source\PSoC5/Comp_4.c ****     /* Set default speed/power */
  54:Generated_Source\PSoC5/Comp_4.c ****     Comp_4_SetSpeed(Comp_4_DEFAULT_SPEED);
  55:Generated_Source\PSoC5/Comp_4.c **** 
  56:Generated_Source\PSoC5/Comp_4.c ****     /* Set default Hysteresis */
  57:Generated_Source\PSoC5/Comp_4.c ****     #if ( Comp_4_DEFAULT_HYSTERESIS == 0u )
  58:Generated_Source\PSoC5/Comp_4.c ****         Comp_4_CR |= Comp_4_HYST_OFF;
  59:Generated_Source\PSoC5/Comp_4.c ****     #else
  60:Generated_Source\PSoC5/Comp_4.c ****         Comp_4_CR &= (uint8)(~Comp_4_HYST_OFF);
  61:Generated_Source\PSoC5/Comp_4.c ****     #endif /* Comp_4_DEFAULT_HYSTERESIS == 0u */
  62:Generated_Source\PSoC5/Comp_4.c ****     /* Power down override feature is not supported for PSoC5A. */
  63:Generated_Source\PSoC5/Comp_4.c ****     #if (CY_PSOC3 || CY_PSOC5LP)
  64:Generated_Source\PSoC5/Comp_4.c ****         /* Set default Power Down Override */
  65:Generated_Source\PSoC5/Comp_4.c ****         #if ( Comp_4_DEFAULT_PWRDWN_OVRD == 0u )
  66:Generated_Source\PSoC5/Comp_4.c ****             Comp_4_CR &= (uint8)(~Comp_4_PWRDWN_OVRD);
  67:Generated_Source\PSoC5/Comp_4.c ****         #else 
  68:Generated_Source\PSoC5/Comp_4.c ****             Comp_4_CR |= Comp_4_PWRDWN_OVRD;
  69:Generated_Source\PSoC5/Comp_4.c ****         #endif /* Comp_4_DEFAULT_PWRDWN_OVRD == 0u */
  70:Generated_Source\PSoC5/Comp_4.c ****     #endif /* CY_PSOC3 || CY_PSOC5LP */
  71:Generated_Source\PSoC5/Comp_4.c ****     
  72:Generated_Source\PSoC5/Comp_4.c ****     /* Set mux always on logic */
  73:Generated_Source\PSoC5/Comp_4.c ****     Comp_4_CR |= Comp_4_MX_AO;
  74:Generated_Source\PSoC5/Comp_4.c **** 
  75:Generated_Source\PSoC5/Comp_4.c ****     /* Set default sync */
  76:Generated_Source\PSoC5/Comp_4.c ****     Comp_4_CLK &= (uint8)(~Comp_4_SYNCCLK_MASK);
  77:Generated_Source\PSoC5/Comp_4.c ****     #if ( Comp_4_DEFAULT_BYPASS_SYNC == 0u )
  78:Generated_Source\PSoC5/Comp_4.c ****         Comp_4_CLK |= Comp_4_SYNC_CLK_EN;
ARM GAS  C:\Users\Luggi\AppData\Local\Temp\ccGS0Ofd.s 			page 42


  79:Generated_Source\PSoC5/Comp_4.c ****     #else
  80:Generated_Source\PSoC5/Comp_4.c ****         Comp_4_CLK |= Comp_4_BYPASS_SYNC;
  81:Generated_Source\PSoC5/Comp_4.c ****     #endif /* Comp_4_DEFAULT_BYPASS_SYNC == 0u */
  82:Generated_Source\PSoC5/Comp_4.c **** }
  83:Generated_Source\PSoC5/Comp_4.c **** 
  84:Generated_Source\PSoC5/Comp_4.c **** 
  85:Generated_Source\PSoC5/Comp_4.c **** /*******************************************************************************
  86:Generated_Source\PSoC5/Comp_4.c **** * Function Name: Comp_4_Enable
  87:Generated_Source\PSoC5/Comp_4.c **** ********************************************************************************
  88:Generated_Source\PSoC5/Comp_4.c **** *
  89:Generated_Source\PSoC5/Comp_4.c **** * Summary:
  90:Generated_Source\PSoC5/Comp_4.c **** *  Enable the Comparator
  91:Generated_Source\PSoC5/Comp_4.c **** * 
  92:Generated_Source\PSoC5/Comp_4.c **** * Parameters:
  93:Generated_Source\PSoC5/Comp_4.c **** *  void
  94:Generated_Source\PSoC5/Comp_4.c **** *
  95:Generated_Source\PSoC5/Comp_4.c **** * Return:
  96:Generated_Source\PSoC5/Comp_4.c **** *  void
  97:Generated_Source\PSoC5/Comp_4.c **** *
  98:Generated_Source\PSoC5/Comp_4.c **** *******************************************************************************/
  99:Generated_Source\PSoC5/Comp_4.c **** void Comp_4_Enable(void) 
 100:Generated_Source\PSoC5/Comp_4.c **** {
 101:Generated_Source\PSoC5/Comp_4.c ****     Comp_4_PWRMGR |= Comp_4_ACT_PWR_EN;
 102:Generated_Source\PSoC5/Comp_4.c ****     Comp_4_STBY_PWRMGR |= Comp_4_STBY_PWR_EN;
 103:Generated_Source\PSoC5/Comp_4.c ****      
 104:Generated_Source\PSoC5/Comp_4.c ****      /* This is to restore the value of register CR which is saved 
 105:Generated_Source\PSoC5/Comp_4.c ****     in prior to the modification in stop() API */
 106:Generated_Source\PSoC5/Comp_4.c ****     #if (CY_PSOC5A)
 107:Generated_Source\PSoC5/Comp_4.c ****         if(Comp_4_restoreReg == 1u)
 108:Generated_Source\PSoC5/Comp_4.c ****         {
 109:Generated_Source\PSoC5/Comp_4.c ****             Comp_4_CR = Comp_4_lowPowerBackup.compCRReg;
 110:Generated_Source\PSoC5/Comp_4.c **** 
 111:Generated_Source\PSoC5/Comp_4.c ****             /* Clear the flag */
 112:Generated_Source\PSoC5/Comp_4.c ****             Comp_4_restoreReg = 0u;
 113:Generated_Source\PSoC5/Comp_4.c ****         }
 114:Generated_Source\PSoC5/Comp_4.c ****     #endif /* CY_PSOC5A */
 115:Generated_Source\PSoC5/Comp_4.c **** }
 116:Generated_Source\PSoC5/Comp_4.c **** 
 117:Generated_Source\PSoC5/Comp_4.c **** 
 118:Generated_Source\PSoC5/Comp_4.c **** /*******************************************************************************
 119:Generated_Source\PSoC5/Comp_4.c **** * Function Name: Comp_4_Start
 120:Generated_Source\PSoC5/Comp_4.c **** ********************************************************************************
 121:Generated_Source\PSoC5/Comp_4.c **** *
 122:Generated_Source\PSoC5/Comp_4.c **** * Summary:
 123:Generated_Source\PSoC5/Comp_4.c **** *  The start function initializes the Analog Comparator with the default values.
 124:Generated_Source\PSoC5/Comp_4.c **** *
 125:Generated_Source\PSoC5/Comp_4.c **** * Parameters:
 126:Generated_Source\PSoC5/Comp_4.c **** *  void
 127:Generated_Source\PSoC5/Comp_4.c **** *
 128:Generated_Source\PSoC5/Comp_4.c **** * Return:
 129:Generated_Source\PSoC5/Comp_4.c **** *  void 
 130:Generated_Source\PSoC5/Comp_4.c **** *
 131:Generated_Source\PSoC5/Comp_4.c **** * Global variables:
 132:Generated_Source\PSoC5/Comp_4.c **** *  Comp_4_initVar: Is modified when this function is called for the 
 133:Generated_Source\PSoC5/Comp_4.c **** *   first time. Is used to ensure that initialization happens only once.
 134:Generated_Source\PSoC5/Comp_4.c **** *  
 135:Generated_Source\PSoC5/Comp_4.c **** *******************************************************************************/
ARM GAS  C:\Users\Luggi\AppData\Local\Temp\ccGS0Ofd.s 			page 43


 136:Generated_Source\PSoC5/Comp_4.c **** void Comp_4_Start(void) 
 137:Generated_Source\PSoC5/Comp_4.c **** {
 138:Generated_Source\PSoC5/Comp_4.c **** 
 139:Generated_Source\PSoC5/Comp_4.c ****     if ( Comp_4_initVar == 0u )
 140:Generated_Source\PSoC5/Comp_4.c ****     {
 141:Generated_Source\PSoC5/Comp_4.c ****         Comp_4_Init();
 142:Generated_Source\PSoC5/Comp_4.c ****         
 143:Generated_Source\PSoC5/Comp_4.c ****         Comp_4_initVar = 1u;
 144:Generated_Source\PSoC5/Comp_4.c ****     }   
 145:Generated_Source\PSoC5/Comp_4.c **** 
 146:Generated_Source\PSoC5/Comp_4.c ****     /* Enable power to comparator */
 147:Generated_Source\PSoC5/Comp_4.c ****     Comp_4_Enable();    
 148:Generated_Source\PSoC5/Comp_4.c **** }
 149:Generated_Source\PSoC5/Comp_4.c **** 
 150:Generated_Source\PSoC5/Comp_4.c **** 
 151:Generated_Source\PSoC5/Comp_4.c **** /*******************************************************************************
 152:Generated_Source\PSoC5/Comp_4.c **** * Function Name: Comp_4_Stop
 153:Generated_Source\PSoC5/Comp_4.c **** ********************************************************************************
 154:Generated_Source\PSoC5/Comp_4.c **** *
 155:Generated_Source\PSoC5/Comp_4.c **** * Summary:
 156:Generated_Source\PSoC5/Comp_4.c **** *  Powers down amplifier to lowest power state.
 157:Generated_Source\PSoC5/Comp_4.c **** *
 158:Generated_Source\PSoC5/Comp_4.c **** * Parameters:
 159:Generated_Source\PSoC5/Comp_4.c **** *  void
 160:Generated_Source\PSoC5/Comp_4.c **** *
 161:Generated_Source\PSoC5/Comp_4.c **** * Return:
 162:Generated_Source\PSoC5/Comp_4.c **** *  void
 163:Generated_Source\PSoC5/Comp_4.c **** *
 164:Generated_Source\PSoC5/Comp_4.c **** *******************************************************************************/
 165:Generated_Source\PSoC5/Comp_4.c **** void Comp_4_Stop(void) 
 166:Generated_Source\PSoC5/Comp_4.c **** {
 167:Generated_Source\PSoC5/Comp_4.c ****     /* Disable power to comparator */
 168:Generated_Source\PSoC5/Comp_4.c ****     Comp_4_PWRMGR &= (uint8)(~Comp_4_ACT_PWR_EN);
 169:Generated_Source\PSoC5/Comp_4.c ****     Comp_4_STBY_PWRMGR &= (uint8)(~Comp_4_STBY_PWR_EN);
 170:Generated_Source\PSoC5/Comp_4.c ****     
 171:Generated_Source\PSoC5/Comp_4.c ****     #if (CY_PSOC5A)
 172:Generated_Source\PSoC5/Comp_4.c ****         /* Enable the variable */
 173:Generated_Source\PSoC5/Comp_4.c ****         Comp_4_restoreReg = 1u;
 174:Generated_Source\PSoC5/Comp_4.c **** 
 175:Generated_Source\PSoC5/Comp_4.c ****         /* Save the control register before clearing it */
 176:Generated_Source\PSoC5/Comp_4.c ****         Comp_4_lowPowerBackup.compCRReg = Comp_4_CR;
 177:Generated_Source\PSoC5/Comp_4.c ****         Comp_4_CR = Comp_4_COMP_REG_CLR;
 178:Generated_Source\PSoC5/Comp_4.c ****     #endif /* CY_PSOC5A */
 179:Generated_Source\PSoC5/Comp_4.c **** }
 180:Generated_Source\PSoC5/Comp_4.c **** 
 181:Generated_Source\PSoC5/Comp_4.c **** 
 182:Generated_Source\PSoC5/Comp_4.c **** /*******************************************************************************
 183:Generated_Source\PSoC5/Comp_4.c **** * Function Name: Comp_4_SetSpeed
 184:Generated_Source\PSoC5/Comp_4.c **** ********************************************************************************
 185:Generated_Source\PSoC5/Comp_4.c **** *
 186:Generated_Source\PSoC5/Comp_4.c **** * Summary:
 187:Generated_Source\PSoC5/Comp_4.c **** *  This function sets the speed of the Analog Comparator. The faster the speed
 188:Generated_Source\PSoC5/Comp_4.c **** *  the more power that is used.
 189:Generated_Source\PSoC5/Comp_4.c **** *
 190:Generated_Source\PSoC5/Comp_4.c **** * Parameters:
 191:Generated_Source\PSoC5/Comp_4.c **** *  speed: (uint8) Sets operation mode of Comparator
 192:Generated_Source\PSoC5/Comp_4.c **** *
ARM GAS  C:\Users\Luggi\AppData\Local\Temp\ccGS0Ofd.s 			page 44


 193:Generated_Source\PSoC5/Comp_4.c **** * Return:
 194:Generated_Source\PSoC5/Comp_4.c **** *  void
 195:Generated_Source\PSoC5/Comp_4.c **** *
 196:Generated_Source\PSoC5/Comp_4.c **** *******************************************************************************/
 197:Generated_Source\PSoC5/Comp_4.c **** void Comp_4_SetSpeed(uint8 speed) 
 198:Generated_Source\PSoC5/Comp_4.c **** {
 199:Generated_Source\PSoC5/Comp_4.c ****     /* Clear and Set power level */    
 200:Generated_Source\PSoC5/Comp_4.c ****     Comp_4_CR = (Comp_4_CR & (uint8)(~Comp_4_PWR_MODE_MASK)) |
 201:Generated_Source\PSoC5/Comp_4.c ****                            (speed & Comp_4_PWR_MODE_MASK);
 202:Generated_Source\PSoC5/Comp_4.c **** 
 203:Generated_Source\PSoC5/Comp_4.c ****     /* Set trim value for high speed comparator */
 204:Generated_Source\PSoC5/Comp_4.c ****     if(speed == Comp_4_HIGHSPEED)
 205:Generated_Source\PSoC5/Comp_4.c ****     {
 206:Generated_Source\PSoC5/Comp_4.c ****         /* PSoC5A */
 207:Generated_Source\PSoC5/Comp_4.c ****         #if (CY_PSOC5A)
 208:Generated_Source\PSoC5/Comp_4.c ****             Comp_4_TR = Comp_4_HS_TRIM_TR0;
 209:Generated_Source\PSoC5/Comp_4.c ****         #endif /* CY_PSOC5A */
 210:Generated_Source\PSoC5/Comp_4.c ****         
 211:Generated_Source\PSoC5/Comp_4.c ****         /* PSoC3, PSoC5LP or later */
 212:Generated_Source\PSoC5/Comp_4.c ****         #if (CY_PSOC3 || CY_PSOC5LP) 
 213:Generated_Source\PSoC5/Comp_4.c ****             Comp_4_TR0 = Comp_4_HS_TRIM_TR0;
 214:Generated_Source\PSoC5/Comp_4.c ****             Comp_4_TR1 = Comp_4_HS_TRIM_TR1;
 215:Generated_Source\PSoC5/Comp_4.c ****         #endif /* CY_PSOC3 || CY_PSOC5LP */
 216:Generated_Source\PSoC5/Comp_4.c ****     }
 217:Generated_Source\PSoC5/Comp_4.c ****     else
 218:Generated_Source\PSoC5/Comp_4.c ****     {
 219:Generated_Source\PSoC5/Comp_4.c ****     /* PSoC5A */
 220:Generated_Source\PSoC5/Comp_4.c ****         #if (CY_PSOC5A)
 221:Generated_Source\PSoC5/Comp_4.c ****             Comp_4_TR = Comp_4_LS_TRIM_TR0;
 222:Generated_Source\PSoC5/Comp_4.c ****         #endif /* CY_PSOC5A */
 223:Generated_Source\PSoC5/Comp_4.c ****         
 224:Generated_Source\PSoC5/Comp_4.c ****         /* PSoC3, PSoC5LP or later */
 225:Generated_Source\PSoC5/Comp_4.c ****         #if (CY_PSOC3 || CY_PSOC5LP) 
 226:Generated_Source\PSoC5/Comp_4.c ****             Comp_4_TR0 = Comp_4_LS_TRIM_TR0;
 227:Generated_Source\PSoC5/Comp_4.c ****             Comp_4_TR1 = Comp_4_LS_TRIM_TR1;
 228:Generated_Source\PSoC5/Comp_4.c ****         #endif /* CY_PSOC3 || CY_PSOC5LP */
 229:Generated_Source\PSoC5/Comp_4.c ****     }
 230:Generated_Source\PSoC5/Comp_4.c **** 
 231:Generated_Source\PSoC5/Comp_4.c **** }
 232:Generated_Source\PSoC5/Comp_4.c **** 
 233:Generated_Source\PSoC5/Comp_4.c **** 
 234:Generated_Source\PSoC5/Comp_4.c **** /*******************************************************************************
 235:Generated_Source\PSoC5/Comp_4.c **** * Function Name: Comp_4_GetCompare
 236:Generated_Source\PSoC5/Comp_4.c **** ********************************************************************************
 237:Generated_Source\PSoC5/Comp_4.c **** *
 238:Generated_Source\PSoC5/Comp_4.c **** * Summary:
 239:Generated_Source\PSoC5/Comp_4.c **** *  This function returns the comparator output value.
 240:Generated_Source\PSoC5/Comp_4.c **** *  This value is not affected by the Polarity parameter.
 241:Generated_Source\PSoC5/Comp_4.c **** *  This valuea lways reflects a noninverted state.
 242:Generated_Source\PSoC5/Comp_4.c **** *
 243:Generated_Source\PSoC5/Comp_4.c **** * Parameters:
 244:Generated_Source\PSoC5/Comp_4.c **** *   None
 245:Generated_Source\PSoC5/Comp_4.c **** *
 246:Generated_Source\PSoC5/Comp_4.c **** * Return:
 247:Generated_Source\PSoC5/Comp_4.c **** *  (uint8)  0     - if Pos_Input less than Neg_input
 248:Generated_Source\PSoC5/Comp_4.c **** *           non 0 - if Pos_Input greater than Neg_input.
 249:Generated_Source\PSoC5/Comp_4.c **** *
ARM GAS  C:\Users\Luggi\AppData\Local\Temp\ccGS0Ofd.s 			page 45


 250:Generated_Source\PSoC5/Comp_4.c **** *******************************************************************************/
 251:Generated_Source\PSoC5/Comp_4.c **** uint8 Comp_4_GetCompare(void) 
 252:Generated_Source\PSoC5/Comp_4.c **** {
 253:Generated_Source\PSoC5/Comp_4.c ****     return( Comp_4_WRK & Comp_4_CMP_OUT_MASK);
 254:Generated_Source\PSoC5/Comp_4.c **** }
 255:Generated_Source\PSoC5/Comp_4.c **** 
 256:Generated_Source\PSoC5/Comp_4.c **** 
 257:Generated_Source\PSoC5/Comp_4.c **** /*******************************************************************************
 258:Generated_Source\PSoC5/Comp_4.c **** * Function Name: Comp_4_trimAdjust
 259:Generated_Source\PSoC5/Comp_4.c **** ********************************************************************************
 260:Generated_Source\PSoC5/Comp_4.c **** *
 261:Generated_Source\PSoC5/Comp_4.c **** * Summary:
 262:Generated_Source\PSoC5/Comp_4.c **** *  This function adjusts the value in the low nibble/high nibble of the Analog 
 263:Generated_Source\PSoC5/Comp_4.c **** *  Comparator trim register
 264:Generated_Source\PSoC5/Comp_4.c **** *
 265:Generated_Source\PSoC5/Comp_4.c **** * Parameters:  
 266:Generated_Source\PSoC5/Comp_4.c **** *  nibble:
 267:Generated_Source\PSoC5/Comp_4.c **** *      0 -- adjusts the value in the low nibble
 268:Generated_Source\PSoC5/Comp_4.c **** *      1 -- adjusts the value in the high nibble
 269:Generated_Source\PSoC5/Comp_4.c **** *
 270:Generated_Source\PSoC5/Comp_4.c **** * Return:
 271:Generated_Source\PSoC5/Comp_4.c **** *  None
 272:Generated_Source\PSoC5/Comp_4.c **** *
 273:Generated_Source\PSoC5/Comp_4.c **** * Theory: 
 274:Generated_Source\PSoC5/Comp_4.c **** *  Function assumes comparator block is setup for trim adjust.
 275:Generated_Source\PSoC5/Comp_4.c **** *  Intended to be called from Comp_ZeroCal()
 276:Generated_Source\PSoC5/Comp_4.c **** * 
 277:Generated_Source\PSoC5/Comp_4.c **** * Side Effects:
 278:Generated_Source\PSoC5/Comp_4.c **** *  Routine uses a course 1ms delay following each trim adjustment to allow 
 279:Generated_Source\PSoC5/Comp_4.c **** *  the comparator output to respond.
 280:Generated_Source\PSoC5/Comp_4.c **** *
 281:Generated_Source\PSoC5/Comp_4.c **** *******************************************************************************/
 282:Generated_Source\PSoC5/Comp_4.c **** static void Comp_4_trimAdjust(uint8 nibble) 
 283:Generated_Source\PSoC5/Comp_4.c **** {
 532              		.loc 1 283 0
 533              		.cfi_startproc
 534              		@ args = 0, pretend = 0, frame = 0
 535              		@ frame_needed = 0, uses_anonymous_args = 0
 536              	.LVL0:
 537 0000 F8B5     		push	{r3, r4, r5, r6, r7, lr}
 538              		.cfi_def_cfa_offset 24
 539              		.cfi_offset 3, -24
 540              		.cfi_offset 4, -20
 541              		.cfi_offset 5, -16
 542              		.cfi_offset 6, -12
 543              		.cfi_offset 7, -8
 544              		.cfi_offset 14, -4
 284:Generated_Source\PSoC5/Comp_4.c ****     uint8 trimCnt, trimCntMax;
 285:Generated_Source\PSoC5/Comp_4.c ****     uint8 cmpState;   
 286:Generated_Source\PSoC5/Comp_4.c **** 
 287:Generated_Source\PSoC5/Comp_4.c ****     /* get current state of comparator output */
 288:Generated_Source\PSoC5/Comp_4.c ****     cmpState = Comp_4_WRK & Comp_4_CMP_OUT_MASK;
 545              		.loc 1 288 0
 546 0002 1A4B     		ldr	r3, .L12
 547 0004 1D78     		ldrb	r5, [r3]	@ zero_extendqisi2
 548 0006 05F00205 		and	r5, r5, #2
 549 000a EDB2     		uxtb	r5, r5
ARM GAS  C:\Users\Luggi\AppData\Local\Temp\ccGS0Ofd.s 			page 46


 550              	.LVL1:
 289:Generated_Source\PSoC5/Comp_4.c ****     
 290:Generated_Source\PSoC5/Comp_4.c ****     if (nibble == 0u)
 551              		.loc 1 290 0
 552 000c 0646     		mov	r6, r0
 553 000e 30B9     		cbnz	r0, .L2
 291:Generated_Source\PSoC5/Comp_4.c ****     {    
 292:Generated_Source\PSoC5/Comp_4.c ****         /* if comparator output is high, negative offset adjust is required */
 293:Generated_Source\PSoC5/Comp_4.c ****         if ( cmpState != 0u )
 554              		.loc 1 293 0
 555 0010 5DB1     		cbz	r5, .L3
 294:Generated_Source\PSoC5/Comp_4.c ****         {
 295:Generated_Source\PSoC5/Comp_4.c ****             /* PSoC5A */
 296:Generated_Source\PSoC5/Comp_4.c ****             #if (CY_PSOC5A)
 297:Generated_Source\PSoC5/Comp_4.c ****                 Comp_4_TR |= Comp_4_CMP_TRIM1_DIR;
 298:Generated_Source\PSoC5/Comp_4.c ****             #endif /* CY_PSOC5A */
 299:Generated_Source\PSoC5/Comp_4.c ****             
 300:Generated_Source\PSoC5/Comp_4.c ****             /* PSoC3, PSoC5LP or later */
 301:Generated_Source\PSoC5/Comp_4.c ****             #if (CY_PSOC3 || CY_PSOC5LP)
 302:Generated_Source\PSoC5/Comp_4.c ****                 Comp_4_TR0 |= Comp_4_CMP_TR0_DIR;
 556              		.loc 1 302 0
 557 0012 174A     		ldr	r2, .L12+4
 558 0014 1378     		ldrb	r3, [r2]	@ zero_extendqisi2
 559 0016 43F01003 		orr	r3, r3, #16
 560 001a 1370     		strb	r3, [r2]
 561 001c 05E0     		b	.L3
 562              	.L2:
 303:Generated_Source\PSoC5/Comp_4.c ****             #endif /* CY_PSOC3 || CY_PSOC5LP */
 304:Generated_Source\PSoC5/Comp_4.c ****         }
 305:Generated_Source\PSoC5/Comp_4.c ****     }
 306:Generated_Source\PSoC5/Comp_4.c ****     else
 307:Generated_Source\PSoC5/Comp_4.c ****     {
 308:Generated_Source\PSoC5/Comp_4.c ****         /* if comparator output is low, positive offset adjust is required */
 309:Generated_Source\PSoC5/Comp_4.c ****         if ( cmpState == 0u )
 563              		.loc 1 309 0
 564 001e 25B9     		cbnz	r5, .L3
 310:Generated_Source\PSoC5/Comp_4.c ****         {
 311:Generated_Source\PSoC5/Comp_4.c ****             /* PSoC5A */
 312:Generated_Source\PSoC5/Comp_4.c ****             #if (CY_PSOC5A)
 313:Generated_Source\PSoC5/Comp_4.c ****                 Comp_4_TR |= Comp_4_CMP_TRIM2_DIR; 
 314:Generated_Source\PSoC5/Comp_4.c ****             #endif /* CY_PSOC5A */
 315:Generated_Source\PSoC5/Comp_4.c ****             
 316:Generated_Source\PSoC5/Comp_4.c ****             /* PSoC3, PSoC5LP or later */
 317:Generated_Source\PSoC5/Comp_4.c ****             #if (CY_PSOC3 || CY_PSOC5LP)
 318:Generated_Source\PSoC5/Comp_4.c ****                 Comp_4_TR1 |= Comp_4_CMP_TR1_DIR;
 565              		.loc 1 318 0
 566 0020 144A     		ldr	r2, .L12+8
 567 0022 1378     		ldrb	r3, [r2]	@ zero_extendqisi2
 568 0024 43F01003 		orr	r3, r3, #16
 569 0028 1370     		strb	r3, [r2]
 570              	.L3:
 319:Generated_Source\PSoC5/Comp_4.c ****             #endif /* CY_PSOC3 || CY_PSOC5LP */
 320:Generated_Source\PSoC5/Comp_4.c ****         }
 321:Generated_Source\PSoC5/Comp_4.c ****     }
 322:Generated_Source\PSoC5/Comp_4.c **** 
 323:Generated_Source\PSoC5/Comp_4.c ****     /* Increment trim value until compare output changes state */
 324:Generated_Source\PSoC5/Comp_4.c **** 	
ARM GAS  C:\Users\Luggi\AppData\Local\Temp\ccGS0Ofd.s 			page 47


 325:Generated_Source\PSoC5/Comp_4.c ****     /* PSoC5A */
 326:Generated_Source\PSoC5/Comp_4.c **** 	#if (CY_PSOC5A)
 327:Generated_Source\PSoC5/Comp_4.c **** 	    trimCntMax = 7u;
 328:Generated_Source\PSoC5/Comp_4.c ****     #endif
 329:Generated_Source\PSoC5/Comp_4.c **** 	
 330:Generated_Source\PSoC5/Comp_4.c **** 	/* PSoC3, PSoC5LP or later */
 331:Generated_Source\PSoC5/Comp_4.c **** 	#if (CY_PSOC3 || CY_PSOC5LP)
 332:Generated_Source\PSoC5/Comp_4.c ****     	if(nibble == 0u)
 571              		.loc 1 332 0
 572 002a 0EB9     		cbnz	r6, .L10
 333:Generated_Source\PSoC5/Comp_4.c ****     	{
 334:Generated_Source\PSoC5/Comp_4.c ****     		trimCntMax = 15u;
 573              		.loc 1 334 0
 574 002c 0F27     		movs	r7, #15
 575 002e 00E0     		b	.L4
 576              	.L10:
 335:Generated_Source\PSoC5/Comp_4.c ****     	}
 336:Generated_Source\PSoC5/Comp_4.c ****     	else
 337:Generated_Source\PSoC5/Comp_4.c ****     	{
 338:Generated_Source\PSoC5/Comp_4.c ****     		trimCntMax = 7u;
 577              		.loc 1 338 0
 578 0030 0727     		movs	r7, #7
 579              	.L4:
 580              	.LVL2:
 339:Generated_Source\PSoC5/Comp_4.c ****     	}
 340:Generated_Source\PSoC5/Comp_4.c **** 	#endif
 341:Generated_Source\PSoC5/Comp_4.c **** 	
 342:Generated_Source\PSoC5/Comp_4.c ****     for ( trimCnt = 0u; trimCnt < trimCntMax; trimCnt++ )
 581              		.loc 1 342 0
 582 0032 0024     		movs	r4, #0
 583 0034 17E0     		b	.L5
 584              	.LVL3:
 585              	.L9:
 343:Generated_Source\PSoC5/Comp_4.c **** 	{
 344:Generated_Source\PSoC5/Comp_4.c ****         if (nibble == 0u)
 586              		.loc 1 344 0
 587 0036 2EB9     		cbnz	r6, .L6
 345:Generated_Source\PSoC5/Comp_4.c ****         {
 346:Generated_Source\PSoC5/Comp_4.c ****             /* PSoC5A */
 347:Generated_Source\PSoC5/Comp_4.c ****             #if (CY_PSOC5A)
 348:Generated_Source\PSoC5/Comp_4.c ****                 Comp_4_TR += 1u;
 349:Generated_Source\PSoC5/Comp_4.c ****             #endif /* CY_PSOC5A */
 350:Generated_Source\PSoC5/Comp_4.c ****             
 351:Generated_Source\PSoC5/Comp_4.c ****             /* PSoC3, PSoC5LP or later */
 352:Generated_Source\PSoC5/Comp_4.c ****             #if (CY_PSOC3 || CY_PSOC5LP)
 353:Generated_Source\PSoC5/Comp_4.c ****                 Comp_4_TR0 += 1u;
 588              		.loc 1 353 0
 589 0038 0D4A     		ldr	r2, .L12+4
 590 003a 1378     		ldrb	r3, [r2]	@ zero_extendqisi2
 591 003c 0133     		adds	r3, r3, #1
 592 003e DBB2     		uxtb	r3, r3
 593 0040 1370     		strb	r3, [r2]
 594 0042 04E0     		b	.L7
 595              	.L6:
 354:Generated_Source\PSoC5/Comp_4.c ****             #endif /* CY_PSOC3 || CY_PSOC5LP */
 355:Generated_Source\PSoC5/Comp_4.c ****         }
 356:Generated_Source\PSoC5/Comp_4.c ****         else
ARM GAS  C:\Users\Luggi\AppData\Local\Temp\ccGS0Ofd.s 			page 48


 357:Generated_Source\PSoC5/Comp_4.c ****         {
 358:Generated_Source\PSoC5/Comp_4.c ****             /* PSoC5A */
 359:Generated_Source\PSoC5/Comp_4.c ****             #if (CY_PSOC5A)
 360:Generated_Source\PSoC5/Comp_4.c ****                 Comp_4_TR += 0x10u;
 361:Generated_Source\PSoC5/Comp_4.c ****             #endif /* CY_PSOC5A */
 362:Generated_Source\PSoC5/Comp_4.c ****             
 363:Generated_Source\PSoC5/Comp_4.c ****             /* PSoC3, PSoC5LP or later */
 364:Generated_Source\PSoC5/Comp_4.c ****             #if (CY_PSOC3 || CY_PSOC5LP)
 365:Generated_Source\PSoC5/Comp_4.c ****                 Comp_4_TR1 += 1u;
 596              		.loc 1 365 0
 597 0044 0B4A     		ldr	r2, .L12+8
 598 0046 1378     		ldrb	r3, [r2]	@ zero_extendqisi2
 599 0048 0133     		adds	r3, r3, #1
 600 004a DBB2     		uxtb	r3, r3
 601 004c 1370     		strb	r3, [r2]
 602              	.L7:
 366:Generated_Source\PSoC5/Comp_4.c ****             #endif /* CY_PSOC3 || CY_PSOC5LP */
 367:Generated_Source\PSoC5/Comp_4.c ****         }
 368:Generated_Source\PSoC5/Comp_4.c ****         
 369:Generated_Source\PSoC5/Comp_4.c ****         CyDelayUs(10u);
 603              		.loc 1 369 0
 604 004e 0A20     		movs	r0, #10
 605 0050 FFF7FEFF 		bl	CyDelayUs
 606              	.LVL4:
 370:Generated_Source\PSoC5/Comp_4.c ****         
 371:Generated_Source\PSoC5/Comp_4.c ****         /* Check for change in comparator output */
 372:Generated_Source\PSoC5/Comp_4.c ****         if ((Comp_4_WRK & Comp_4_CMP_OUT_MASK) != cmpState)
 607              		.loc 1 372 0
 608 0054 054B     		ldr	r3, .L12
 609 0056 1B78     		ldrb	r3, [r3]	@ zero_extendqisi2
 610 0058 03F00203 		and	r3, r3, #2
 611 005c DBB2     		uxtb	r3, r3
 612 005e AB42     		cmp	r3, r5
 613 0060 03D1     		bne	.L1
 342:Generated_Source\PSoC5/Comp_4.c **** 	{
 614              		.loc 1 342 0 discriminator 2
 615 0062 0134     		adds	r4, r4, #1
 616              	.LVL5:
 617 0064 E4B2     		uxtb	r4, r4
 618              	.LVL6:
 619              	.L5:
 342:Generated_Source\PSoC5/Comp_4.c **** 	{
 620              		.loc 1 342 0 is_stmt 0 discriminator 1
 621 0066 BC42     		cmp	r4, r7
 622 0068 E5D3     		bcc	.L9
 623              	.L1:
 624 006a F8BD     		pop	{r3, r4, r5, r6, r7, pc}
 625              	.LVL7:
 626              	.L13:
 627              		.align	2
 628              	.L12:
 629 006c 965B0040 		.word	1073765270
 630 0070 32460040 		.word	1073759794
 631 0074 33460040 		.word	1073759795
 632              		.cfi_endproc
 633              	.LFE6:
 634              		.size	Comp_4_trimAdjust, .-Comp_4_trimAdjust
ARM GAS  C:\Users\Luggi\AppData\Local\Temp\ccGS0Ofd.s 			page 49


 635              		.section	.text.Comp_4_Enable,"ax",%progbits
 636              		.align	2
 637              		.global	Comp_4_Enable
 638              		.thumb
 639              		.thumb_func
 640              		.type	Comp_4_Enable, %function
 641              	Comp_4_Enable:
 642              	.LFB1:
 100:Generated_Source\PSoC5/Comp_4.c ****     Comp_4_PWRMGR |= Comp_4_ACT_PWR_EN;
 643              		.loc 1 100 0 is_stmt 1
 644              		.cfi_startproc
 645              		@ args = 0, pretend = 0, frame = 0
 646              		@ frame_needed = 0, uses_anonymous_args = 0
 647              		@ link register save eliminated.
 101:Generated_Source\PSoC5/Comp_4.c ****     Comp_4_STBY_PWRMGR |= Comp_4_STBY_PWR_EN;
 648              		.loc 1 101 0
 649 0000 054A     		ldr	r2, .L15
 650 0002 1378     		ldrb	r3, [r2]	@ zero_extendqisi2
 651 0004 43F00203 		orr	r3, r3, #2
 652 0008 1370     		strb	r3, [r2]
 102:Generated_Source\PSoC5/Comp_4.c ****      
 653              		.loc 1 102 0
 654 000a 1032     		adds	r2, r2, #16
 655 000c 1378     		ldrb	r3, [r2]	@ zero_extendqisi2
 656 000e 43F00203 		orr	r3, r3, #2
 657 0012 1370     		strb	r3, [r2]
 658 0014 7047     		bx	lr
 659              	.L16:
 660 0016 00BF     		.align	2
 661              	.L15:
 662 0018 A7430040 		.word	1073759143
 663              		.cfi_endproc
 664              	.LFE1:
 665              		.size	Comp_4_Enable, .-Comp_4_Enable
 666              		.section	.text.Comp_4_Stop,"ax",%progbits
 667              		.align	2
 668              		.global	Comp_4_Stop
 669              		.thumb
 670              		.thumb_func
 671              		.type	Comp_4_Stop, %function
 672              	Comp_4_Stop:
 673              	.LFB3:
 166:Generated_Source\PSoC5/Comp_4.c ****     /* Disable power to comparator */
 674              		.loc 1 166 0
 675              		.cfi_startproc
 676              		@ args = 0, pretend = 0, frame = 0
 677              		@ frame_needed = 0, uses_anonymous_args = 0
 678              		@ link register save eliminated.
 168:Generated_Source\PSoC5/Comp_4.c ****     Comp_4_STBY_PWRMGR &= (uint8)(~Comp_4_STBY_PWR_EN);
 679              		.loc 1 168 0
 680 0000 054A     		ldr	r2, .L18
 681 0002 1378     		ldrb	r3, [r2]	@ zero_extendqisi2
 682 0004 03F0FD03 		and	r3, r3, #253
 683 0008 1370     		strb	r3, [r2]
 169:Generated_Source\PSoC5/Comp_4.c ****     
 684              		.loc 1 169 0
 685 000a 1032     		adds	r2, r2, #16
ARM GAS  C:\Users\Luggi\AppData\Local\Temp\ccGS0Ofd.s 			page 50


 686 000c 1378     		ldrb	r3, [r2]	@ zero_extendqisi2
 687 000e 03F0FD03 		and	r3, r3, #253
 688 0012 1370     		strb	r3, [r2]
 689 0014 7047     		bx	lr
 690              	.L19:
 691 0016 00BF     		.align	2
 692              	.L18:
 693 0018 A7430040 		.word	1073759143
 694              		.cfi_endproc
 695              	.LFE3:
 696              		.size	Comp_4_Stop, .-Comp_4_Stop
 697              		.section	.text.Comp_4_SetSpeed,"ax",%progbits
 698              		.align	2
 699              		.global	Comp_4_SetSpeed
 700              		.thumb
 701              		.thumb_func
 702              		.type	Comp_4_SetSpeed, %function
 703              	Comp_4_SetSpeed:
 704              	.LFB4:
 198:Generated_Source\PSoC5/Comp_4.c ****     /* Clear and Set power level */    
 705              		.loc 1 198 0
 706              		.cfi_startproc
 707              		@ args = 0, pretend = 0, frame = 0
 708              		@ frame_needed = 0, uses_anonymous_args = 0
 709              		@ link register save eliminated.
 710              	.LVL8:
 200:Generated_Source\PSoC5/Comp_4.c ****                            (speed & Comp_4_PWR_MODE_MASK);
 711              		.loc 1 200 0
 712 0000 0F49     		ldr	r1, .L23
 713 0002 0B78     		ldrb	r3, [r1]	@ zero_extendqisi2
 714 0004 03F0FC02 		and	r2, r3, #252
 715 0008 00F00303 		and	r3, r0, #3
 716 000c 1343     		orrs	r3, r3, r2
 717 000e 0B70     		strb	r3, [r1]
 204:Generated_Source\PSoC5/Comp_4.c ****     {
 718              		.loc 1 204 0
 719 0010 0128     		cmp	r0, #1
 720 0012 0AD1     		bne	.L21
 213:Generated_Source\PSoC5/Comp_4.c ****             Comp_4_TR1 = Comp_4_HS_TRIM_TR1;
 721              		.loc 1 213 0
 722 0014 0B4B     		ldr	r3, .L23+4
 723 0016 1B78     		ldrb	r3, [r3]	@ zero_extendqisi2
 724 0018 DBB2     		uxtb	r3, r3
 725 001a 0B4A     		ldr	r2, .L23+8
 726 001c 1370     		strb	r3, [r2]
 214:Generated_Source\PSoC5/Comp_4.c ****         #endif /* CY_PSOC3 || CY_PSOC5LP */
 727              		.loc 1 214 0
 728 001e 0B4B     		ldr	r3, .L23+12
 729 0020 1B78     		ldrb	r3, [r3]	@ zero_extendqisi2
 730 0022 DBB2     		uxtb	r3, r3
 731 0024 0132     		adds	r2, r2, #1
 732 0026 1370     		strb	r3, [r2]
 733 0028 7047     		bx	lr
 734              	.L21:
 226:Generated_Source\PSoC5/Comp_4.c ****             Comp_4_TR1 = Comp_4_LS_TRIM_TR1;
 735              		.loc 1 226 0
 736 002a 094B     		ldr	r3, .L23+16
ARM GAS  C:\Users\Luggi\AppData\Local\Temp\ccGS0Ofd.s 			page 51


 737 002c 1B78     		ldrb	r3, [r3]	@ zero_extendqisi2
 738 002e DBB2     		uxtb	r3, r3
 739 0030 054A     		ldr	r2, .L23+8
 740 0032 1370     		strb	r3, [r2]
 227:Generated_Source\PSoC5/Comp_4.c ****         #endif /* CY_PSOC3 || CY_PSOC5LP */
 741              		.loc 1 227 0
 742 0034 074B     		ldr	r3, .L23+20
 743 0036 1B78     		ldrb	r3, [r3]	@ zero_extendqisi2
 744 0038 DBB2     		uxtb	r3, r3
 745 003a 0132     		adds	r2, r2, #1
 746 003c 1370     		strb	r3, [r2]
 747 003e 7047     		bx	lr
 748              	.L24:
 749              		.align	2
 750              	.L23:
 751 0040 41580040 		.word	1073764417
 752 0044 11010049 		.word	1224737041
 753 0048 32460040 		.word	1073759794
 754 004c 15010049 		.word	1224737045
 755 0050 AF010049 		.word	1224737199
 756 0054 B7010049 		.word	1224737207
 757              		.cfi_endproc
 758              	.LFE4:
 759              		.size	Comp_4_SetSpeed, .-Comp_4_SetSpeed
 760              		.section	.text.Comp_4_Init,"ax",%progbits
 761              		.align	2
 762              		.global	Comp_4_Init
 763              		.thumb
 764              		.thumb_func
 765              		.type	Comp_4_Init, %function
 766              	Comp_4_Init:
 767              	.LFB0:
  52:Generated_Source\PSoC5/Comp_4.c ****     /* Set default speed/power */
 768              		.loc 1 52 0
 769              		.cfi_startproc
 770              		@ args = 0, pretend = 0, frame = 0
 771              		@ frame_needed = 0, uses_anonymous_args = 0
 772 0000 08B5     		push	{r3, lr}
 773              		.cfi_def_cfa_offset 8
 774              		.cfi_offset 3, -8
 775              		.cfi_offset 14, -4
  54:Generated_Source\PSoC5/Comp_4.c **** 
 776              		.loc 1 54 0
 777 0002 0020     		movs	r0, #0
 778 0004 FFF7FEFF 		bl	Comp_4_SetSpeed
 779              	.LVL9:
  58:Generated_Source\PSoC5/Comp_4.c ****     #else
 780              		.loc 1 58 0
 781 0008 0B4B     		ldr	r3, .L27
 782 000a 1A78     		ldrb	r2, [r3]	@ zero_extendqisi2
 783 000c 42F02002 		orr	r2, r2, #32
 784 0010 1A70     		strb	r2, [r3]
  66:Generated_Source\PSoC5/Comp_4.c ****         #else 
 785              		.loc 1 66 0
 786 0012 1A78     		ldrb	r2, [r3]	@ zero_extendqisi2
 787 0014 02F0FB02 		and	r2, r2, #251
 788 0018 1A70     		strb	r2, [r3]
ARM GAS  C:\Users\Luggi\AppData\Local\Temp\ccGS0Ofd.s 			page 52


  73:Generated_Source\PSoC5/Comp_4.c **** 
 789              		.loc 1 73 0
 790 001a 1A78     		ldrb	r2, [r3]	@ zero_extendqisi2
 791 001c 42F00802 		orr	r2, r2, #8
 792 0020 1A70     		strb	r2, [r3]
  76:Generated_Source\PSoC5/Comp_4.c ****     #if ( Comp_4_DEFAULT_BYPASS_SYNC == 0u )
 793              		.loc 1 76 0
 794 0022 03F28E23 		addw	r3, r3, #654
 795 0026 1A78     		ldrb	r2, [r3]	@ zero_extendqisi2
 796 0028 02F0E702 		and	r2, r2, #231
 797 002c 1A70     		strb	r2, [r3]
  80:Generated_Source\PSoC5/Comp_4.c ****     #endif /* Comp_4_DEFAULT_BYPASS_SYNC == 0u */
 798              		.loc 1 80 0
 799 002e 1A78     		ldrb	r2, [r3]	@ zero_extendqisi2
 800 0030 42F01002 		orr	r2, r2, #16
 801 0034 1A70     		strb	r2, [r3]
 802 0036 08BD     		pop	{r3, pc}
 803              	.L28:
 804              		.align	2
 805              	.L27:
 806 0038 41580040 		.word	1073764417
 807              		.cfi_endproc
 808              	.LFE0:
 809              		.size	Comp_4_Init, .-Comp_4_Init
 810              		.section	.text.Comp_4_Start,"ax",%progbits
 811              		.align	2
 812              		.global	Comp_4_Start
 813              		.thumb
 814              		.thumb_func
 815              		.type	Comp_4_Start, %function
 816              	Comp_4_Start:
 817              	.LFB2:
 137:Generated_Source\PSoC5/Comp_4.c **** 
 818              		.loc 1 137 0
 819              		.cfi_startproc
 820              		@ args = 0, pretend = 0, frame = 0
 821              		@ frame_needed = 0, uses_anonymous_args = 0
 822 0000 08B5     		push	{r3, lr}
 823              		.cfi_def_cfa_offset 8
 824              		.cfi_offset 3, -8
 825              		.cfi_offset 14, -4
 139:Generated_Source\PSoC5/Comp_4.c ****     {
 826              		.loc 1 139 0
 827 0002 054B     		ldr	r3, .L32
 828 0004 1B78     		ldrb	r3, [r3]	@ zero_extendqisi2
 829 0006 23B9     		cbnz	r3, .L30
 141:Generated_Source\PSoC5/Comp_4.c ****         
 830              		.loc 1 141 0
 831 0008 FFF7FEFF 		bl	Comp_4_Init
 832              	.LVL10:
 143:Generated_Source\PSoC5/Comp_4.c ****     }   
 833              		.loc 1 143 0
 834 000c 0122     		movs	r2, #1
 835 000e 024B     		ldr	r3, .L32
 836 0010 1A70     		strb	r2, [r3]
 837              	.L30:
 147:Generated_Source\PSoC5/Comp_4.c **** }
ARM GAS  C:\Users\Luggi\AppData\Local\Temp\ccGS0Ofd.s 			page 53


 838              		.loc 1 147 0
 839 0012 FFF7FEFF 		bl	Comp_4_Enable
 840              	.LVL11:
 841 0016 08BD     		pop	{r3, pc}
 842              	.L33:
 843              		.align	2
 844              	.L32:
 845 0018 00000000 		.word	.LANCHOR0
 846              		.cfi_endproc
 847              	.LFE2:
 848              		.size	Comp_4_Start, .-Comp_4_Start
 849              		.section	.text.Comp_4_GetCompare,"ax",%progbits
 850              		.align	2
 851              		.global	Comp_4_GetCompare
 852              		.thumb
 853              		.thumb_func
 854              		.type	Comp_4_GetCompare, %function
 855              	Comp_4_GetCompare:
 856              	.LFB5:
 252:Generated_Source\PSoC5/Comp_4.c ****     return( Comp_4_WRK & Comp_4_CMP_OUT_MASK);
 857              		.loc 1 252 0
 858              		.cfi_startproc
 859              		@ args = 0, pretend = 0, frame = 0
 860              		@ frame_needed = 0, uses_anonymous_args = 0
 861              		@ link register save eliminated.
 253:Generated_Source\PSoC5/Comp_4.c **** }
 862              		.loc 1 253 0
 863 0000 024B     		ldr	r3, .L35
 864 0002 1878     		ldrb	r0, [r3]	@ zero_extendqisi2
 254:Generated_Source\PSoC5/Comp_4.c **** 
 865              		.loc 1 254 0
 866 0004 00F00200 		and	r0, r0, #2
 867 0008 7047     		bx	lr
 868              	.L36:
 869 000a 00BF     		.align	2
 870              	.L35:
 871 000c 965B0040 		.word	1073765270
 872              		.cfi_endproc
 873              	.LFE5:
 874              		.size	Comp_4_GetCompare, .-Comp_4_GetCompare
 875              		.section	.text.Comp_4_ZeroCal,"ax",%progbits
 876              		.align	2
 877              		.global	Comp_4_ZeroCal
 878              		.thumb
 879              		.thumb_func
 880              		.type	Comp_4_ZeroCal, %function
 881              	Comp_4_ZeroCal:
 882              	.LFB7:
 373:Generated_Source\PSoC5/Comp_4.c ****         {
 374:Generated_Source\PSoC5/Comp_4.c ****             break;      /* output changed state, trim phase is complete */
 375:Generated_Source\PSoC5/Comp_4.c ****         }        
 376:Generated_Source\PSoC5/Comp_4.c ****     }    
 377:Generated_Source\PSoC5/Comp_4.c **** }
 378:Generated_Source\PSoC5/Comp_4.c **** 
 379:Generated_Source\PSoC5/Comp_4.c **** 
 380:Generated_Source\PSoC5/Comp_4.c **** /*******************************************************************************
 381:Generated_Source\PSoC5/Comp_4.c **** * Function Name: Comp_4_ZeroCal
ARM GAS  C:\Users\Luggi\AppData\Local\Temp\ccGS0Ofd.s 			page 54


 382:Generated_Source\PSoC5/Comp_4.c **** ********************************************************************************
 383:Generated_Source\PSoC5/Comp_4.c **** *
 384:Generated_Source\PSoC5/Comp_4.c **** * Summary:
 385:Generated_Source\PSoC5/Comp_4.c **** *  This function calibrates the offset of the Analog Comparator.
 386:Generated_Source\PSoC5/Comp_4.c **** *
 387:Generated_Source\PSoC5/Comp_4.c **** * Parameters:
 388:Generated_Source\PSoC5/Comp_4.c **** *  None
 389:Generated_Source\PSoC5/Comp_4.c **** *
 390:Generated_Source\PSoC5/Comp_4.c **** * Return:
 391:Generated_Source\PSoC5/Comp_4.c **** *  (uint16)  value written in trim register when calibration complete.
 392:Generated_Source\PSoC5/Comp_4.c **** *
 393:Generated_Source\PSoC5/Comp_4.c **** * Theory: 
 394:Generated_Source\PSoC5/Comp_4.c **** *  This function is used to optimize the calibration for user specific voltage
 395:Generated_Source\PSoC5/Comp_4.c **** *  range.  The comparator trim is adjusted to counter transistor offsets
 396:Generated_Source\PSoC5/Comp_4.c **** *   - offset is defined as positive if the output transitions to high before inP
 397:Generated_Source\PSoC5/Comp_4.c **** *     is greater than inN
 398:Generated_Source\PSoC5/Comp_4.c **** *   - offset is defined as negative if the output transitions to high after inP
 399:Generated_Source\PSoC5/Comp_4.c **** *     is greater than inP
 400:Generated_Source\PSoC5/Comp_4.c **** *
 401:Generated_Source\PSoC5/Comp_4.c **** *  PSoC5A
 402:Generated_Source\PSoC5/Comp_4.c **** *  The Analog Comparator provides 1 byte for offset trim.  The byte contains two
 403:Generated_Source\PSoC5/Comp_4.c **** *  4 bit trim fields - one is a course trim and the other allows smaller
 404:Generated_Source\PSoC5/Comp_4.c **** *  offset adjustments only for slow modes.
 405:Generated_Source\PSoC5/Comp_4.c **** *  - low nibble - fine trim
 406:Generated_Source\PSoC5/Comp_4.c **** *  - high nibble - course trim
 407:Generated_Source\PSoC5/Comp_4.c **** *  PSoC3, PSoC5LP or later
 408:Generated_Source\PSoC5/Comp_4.c **** *  The Analog Comparator provides 2 bytes for offset trim.  The bytes contain two
 409:Generated_Source\PSoC5/Comp_4.c **** *  5 bit trim fields - one is a course trim and the other allows smaller
 410:Generated_Source\PSoC5/Comp_4.c **** *  offset adjustments only for slow modes.
 411:Generated_Source\PSoC5/Comp_4.c **** *  - TR0 - fine trim
 412:Generated_Source\PSoC5/Comp_4.c **** *  - TR1 - course trim
 413:Generated_Source\PSoC5/Comp_4.c **** *
 414:Generated_Source\PSoC5/Comp_4.c **** *  Trim algorithm is a two phase process
 415:Generated_Source\PSoC5/Comp_4.c **** *  The first phase performs course offset adjustment
 416:Generated_Source\PSoC5/Comp_4.c **** *  The second phase serves one of two purposes depending on the outcome of the
 417:Generated_Source\PSoC5/Comp_4.c **** *  first phase
 418:Generated_Source\PSoC5/Comp_4.c **** *  - if the first trim value was maxed out without a comparator output 
 419:Generated_Source\PSoC5/Comp_4.c **** *    transition, more offset will be added by adjusting the second trim value.
 420:Generated_Source\PSoC5/Comp_4.c **** *  - if the first trim phase resulted in a comparator output transition, the
 421:Generated_Source\PSoC5/Comp_4.c **** *    second trim value will serve as fine trim (in the opposite direction)to
 422:Generated_Source\PSoC5/Comp_4.c **** *    ensure the offset is < 1 mV.
 423:Generated_Source\PSoC5/Comp_4.c **** *
 424:Generated_Source\PSoC5/Comp_4.c **** * Trim Process:   
 425:Generated_Source\PSoC5/Comp_4.c **** *  1) User applies a voltage to the negative input.  Voltage should be in the
 426:Generated_Source\PSoC5/Comp_4.c **** *     comparator operating range or an average of the operating voltage range.
 427:Generated_Source\PSoC5/Comp_4.c **** *  2) Clear registers associated with analog routing to the positive input.
 428:Generated_Source\PSoC5/Comp_4.c **** *  3) Disable Hysteresis
 429:Generated_Source\PSoC5/Comp_4.c **** *  4) Set the calibration bit to short the negative and positive inputs to
 430:Generated_Source\PSoC5/Comp_4.c **** *     the users calibration voltage.
 431:Generated_Source\PSoC5/Comp_4.c **** *  5) Clear the TR register  ( TR = 0x00 )
 432:Generated_Source\PSoC5/Comp_4.c **** *  ** LOW MODES
 433:Generated_Source\PSoC5/Comp_4.c **** *  6) Check if compare output is high, if so, set the MSb of course trim field 
 434:Generated_Source\PSoC5/Comp_4.c **** *     to a 1.
 435:Generated_Source\PSoC5/Comp_4.c **** *  7) Increment the course trim field until the compare output changes
 436:Generated_Source\PSoC5/Comp_4.c **** *  8) Check if compare output is low, if so, set the MSb of fine trim field
 437:Generated_Source\PSoC5/Comp_4.c **** *     to a 1.
 438:Generated_Source\PSoC5/Comp_4.c **** *  9) Increment the fine trim field until the compare output changes
ARM GAS  C:\Users\Luggi\AppData\Local\Temp\ccGS0Ofd.s 			page 55


 439:Generated_Source\PSoC5/Comp_4.c **** *  ** FAST MODE - skip the steps 8,9
 440:Generated_Source\PSoC5/Comp_4.c **** *
 441:Generated_Source\PSoC5/Comp_4.c **** * Side Effects:
 442:Generated_Source\PSoC5/Comp_4.c **** *  Routine clears analog routing associated with the comparator positive input.  
 443:Generated_Source\PSoC5/Comp_4.c **** *  This may affect routing of signals from other components that are connected
 444:Generated_Source\PSoC5/Comp_4.c **** *  to the positive input of the comparator.
 445:Generated_Source\PSoC5/Comp_4.c **** *
 446:Generated_Source\PSoC5/Comp_4.c **** *******************************************************************************/
 447:Generated_Source\PSoC5/Comp_4.c **** uint16 Comp_4_ZeroCal(void) 
 448:Generated_Source\PSoC5/Comp_4.c **** {
 883              		.loc 1 448 0
 884              		.cfi_startproc
 885              		@ args = 0, pretend = 0, frame = 0
 886              		@ frame_needed = 0, uses_anonymous_args = 0
 887 0000 F8B5     		push	{r3, r4, r5, r6, r7, lr}
 888              		.cfi_def_cfa_offset 24
 889              		.cfi_offset 3, -24
 890              		.cfi_offset 4, -20
 891              		.cfi_offset 5, -16
 892              		.cfi_offset 6, -12
 893              		.cfi_offset 7, -8
 894              		.cfi_offset 14, -4
 449:Generated_Source\PSoC5/Comp_4.c ****     uint8 tmpSW0;
 450:Generated_Source\PSoC5/Comp_4.c ****     uint8 tmpSW2;
 451:Generated_Source\PSoC5/Comp_4.c ****     uint8 tmpSW3;
 452:Generated_Source\PSoC5/Comp_4.c ****     uint8 tmpCR;
 453:Generated_Source\PSoC5/Comp_4.c **** 
 454:Generated_Source\PSoC5/Comp_4.c ****     /* Save a copy of routing registers associated with inP */
 455:Generated_Source\PSoC5/Comp_4.c ****     tmpSW0 = Comp_4_SW0;
 895              		.loc 1 455 0
 896 0002 1E48     		ldr	r0, .L41
 897 0004 0678     		ldrb	r6, [r0]	@ zero_extendqisi2
 898 0006 F6B2     		uxtb	r6, r6
 899              	.LVL12:
 456:Generated_Source\PSoC5/Comp_4.c ****     tmpSW2 = Comp_4_SW2;
 900              		.loc 1 456 0
 901 0008 1D49     		ldr	r1, .L41+4
 902 000a 0D78     		ldrb	r5, [r1]	@ zero_extendqisi2
 903 000c EDB2     		uxtb	r5, r5
 904              	.LVL13:
 457:Generated_Source\PSoC5/Comp_4.c ****     tmpSW3 = Comp_4_SW3;
 905              		.loc 1 457 0
 906 000e 1D4B     		ldr	r3, .L41+8
 907 0010 1C78     		ldrb	r4, [r3]	@ zero_extendqisi2
 908 0012 E4B2     		uxtb	r4, r4
 909              	.LVL14:
 458:Generated_Source\PSoC5/Comp_4.c **** 
 459:Generated_Source\PSoC5/Comp_4.c ****      /* Clear routing for inP, retain routing for inN */
 460:Generated_Source\PSoC5/Comp_4.c ****     Comp_4_SW0 = 0x00u;
 910              		.loc 1 460 0
 911 0014 0022     		movs	r2, #0
 912 0016 0270     		strb	r2, [r0]
 461:Generated_Source\PSoC5/Comp_4.c ****     Comp_4_SW2 = 0x00u;
 913              		.loc 1 461 0
 914 0018 0A70     		strb	r2, [r1]
 462:Generated_Source\PSoC5/Comp_4.c ****     Comp_4_SW3 = tmpSW3 & (uint8)(~Comp_4_CMP_SW3_INPCTL_MASK);
 915              		.loc 1 462 0
ARM GAS  C:\Users\Luggi\AppData\Local\Temp\ccGS0Ofd.s 			page 56


 916 001a 04F0F601 		and	r1, r4, #246
 917 001e 1970     		strb	r1, [r3]
 463:Generated_Source\PSoC5/Comp_4.c **** 
 464:Generated_Source\PSoC5/Comp_4.c ****     /* Preserve original configuration
 465:Generated_Source\PSoC5/Comp_4.c ****      * - turn off Hysteresis
 466:Generated_Source\PSoC5/Comp_4.c ****      * - set calibration bit - shorts inN to inP
 467:Generated_Source\PSoC5/Comp_4.c ****     */
 468:Generated_Source\PSoC5/Comp_4.c ****     tmpCR = Comp_4_CR;
 918              		.loc 1 468 0
 919 0020 A3F28A23 		subw	r3, r3, #650
 920 0024 1F78     		ldrb	r7, [r3]	@ zero_extendqisi2
 921 0026 FFB2     		uxtb	r7, r7
 922              	.LVL15:
 469:Generated_Source\PSoC5/Comp_4.c ****     Comp_4_CR |= (Comp_4_CAL_ON | Comp_4_HYST_OFF);
 923              		.loc 1 469 0
 924 0028 1978     		ldrb	r1, [r3]	@ zero_extendqisi2
 925 002a 41F03001 		orr	r1, r1, #48
 926 002e 1970     		strb	r1, [r3]
 470:Generated_Source\PSoC5/Comp_4.c ****     
 471:Generated_Source\PSoC5/Comp_4.c ****     /* Write default low values to trim register - no offset adjust */
 472:Generated_Source\PSoC5/Comp_4.c ****     /* PSoC5A */
 473:Generated_Source\PSoC5/Comp_4.c ****     #if (CY_PSOC5A)
 474:Generated_Source\PSoC5/Comp_4.c ****         Comp_4_TR = Comp_4_DEFAULT_CMP_TRIM;
 475:Generated_Source\PSoC5/Comp_4.c ****     #endif /* CY_PSOC5A */
 476:Generated_Source\PSoC5/Comp_4.c ****     
 477:Generated_Source\PSoC5/Comp_4.c ****     /* PSoC3, PSoC5LP or later */
 478:Generated_Source\PSoC5/Comp_4.c ****     #if (CY_PSOC3 || CY_PSOC5LP)
 479:Generated_Source\PSoC5/Comp_4.c ****         Comp_4_TR0 = Comp_4_DEFAULT_CMP_TRIM;
 927              		.loc 1 479 0
 928 0030 1549     		ldr	r1, .L41+12
 929 0032 0A70     		strb	r2, [r1]
 480:Generated_Source\PSoC5/Comp_4.c ****         Comp_4_TR1 = Comp_4_DEFAULT_CMP_TRIM;
 930              		.loc 1 480 0
 931 0034 0131     		adds	r1, r1, #1
 932 0036 0A70     		strb	r2, [r1]
 481:Generated_Source\PSoC5/Comp_4.c ****     #endif /* CY_PSOC3 || CY_PSOC5LP */
 482:Generated_Source\PSoC5/Comp_4.c **** 	
 483:Generated_Source\PSoC5/Comp_4.c **** 	/* Two phase trim - slow modes, one phase trim - for fast */ 
 484:Generated_Source\PSoC5/Comp_4.c ****     if ( (Comp_4_CR & Comp_4_PWR_MODE_MASK) == Comp_4_PWR_MODE_FAST)
 933              		.loc 1 484 0
 934 0038 1B78     		ldrb	r3, [r3]	@ zero_extendqisi2
 935 003a 03F00303 		and	r3, r3, #3
 936 003e 012B     		cmp	r3, #1
 937 0040 03D1     		bne	.L38
 485:Generated_Source\PSoC5/Comp_4.c ****     {
 486:Generated_Source\PSoC5/Comp_4.c ****         Comp_4_trimAdjust(0u);
 938              		.loc 1 486 0
 939 0042 1046     		mov	r0, r2
 940 0044 FFF7FEFF 		bl	Comp_4_trimAdjust
 941              	.LVL16:
 942 0048 05E0     		b	.L39
 943              	.L38:
 487:Generated_Source\PSoC5/Comp_4.c ****     }
 488:Generated_Source\PSoC5/Comp_4.c ****     else /* default to trim for fast modes */
 489:Generated_Source\PSoC5/Comp_4.c ****     {
 490:Generated_Source\PSoC5/Comp_4.c ****         Comp_4_trimAdjust(1u);
 944              		.loc 1 490 0
ARM GAS  C:\Users\Luggi\AppData\Local\Temp\ccGS0Ofd.s 			page 57


 945 004a 0120     		movs	r0, #1
 946 004c FFF7FEFF 		bl	Comp_4_trimAdjust
 947              	.LVL17:
 491:Generated_Source\PSoC5/Comp_4.c **** 		Comp_4_trimAdjust(0u);
 948              		.loc 1 491 0
 949 0050 0020     		movs	r0, #0
 950 0052 FFF7FEFF 		bl	Comp_4_trimAdjust
 951              	.LVL18:
 952              	.L39:
 492:Generated_Source\PSoC5/Comp_4.c ****     }
 493:Generated_Source\PSoC5/Comp_4.c ****    
 494:Generated_Source\PSoC5/Comp_4.c ****     /* Restore Config Register */
 495:Generated_Source\PSoC5/Comp_4.c ****     Comp_4_CR = tmpCR;
 953              		.loc 1 495 0
 954 0056 0D4B     		ldr	r3, .L41+16
 955 0058 1F70     		strb	r7, [r3]
 496:Generated_Source\PSoC5/Comp_4.c ****     
 497:Generated_Source\PSoC5/Comp_4.c ****     /* Restore routing registers for inP */
 498:Generated_Source\PSoC5/Comp_4.c ****     Comp_4_SW0 = tmpSW0;
 956              		.loc 1 498 0
 957 005a 03F28723 		addw	r3, r3, #647
 958 005e 1E70     		strb	r6, [r3]
 499:Generated_Source\PSoC5/Comp_4.c ****     Comp_4_SW2 = tmpSW2;
 959              		.loc 1 499 0
 960 0060 0233     		adds	r3, r3, #2
 961 0062 1D70     		strb	r5, [r3]
 500:Generated_Source\PSoC5/Comp_4.c ****     Comp_4_SW3 = tmpSW3;
 962              		.loc 1 500 0
 963 0064 0133     		adds	r3, r3, #1
 964 0066 1C70     		strb	r4, [r3]
 501:Generated_Source\PSoC5/Comp_4.c ****     
 502:Generated_Source\PSoC5/Comp_4.c ****     /* PSoC5A */
 503:Generated_Source\PSoC5/Comp_4.c ****     #if (CY_PSOC5A)
 504:Generated_Source\PSoC5/Comp_4.c ****         return (uint16) Comp_4_TR;
 505:Generated_Source\PSoC5/Comp_4.c ****     #endif /* CY_PSOC5A */
 506:Generated_Source\PSoC5/Comp_4.c ****     
 507:Generated_Source\PSoC5/Comp_4.c ****     /* PSoC3, PSoC5LP or later */
 508:Generated_Source\PSoC5/Comp_4.c ****     #if (CY_PSOC3 || CY_PSOC5LP)
 509:Generated_Source\PSoC5/Comp_4.c ****         return ((uint16)((uint16)Comp_4_TR1 << 8u) | (Comp_4_TR0));        
 965              		.loc 1 509 0
 966 0068 A3F5A453 		sub	r3, r3, #5248
 967 006c 183B     		subs	r3, r3, #24
 968 006e 1878     		ldrb	r0, [r3]	@ zero_extendqisi2
 969 0070 013B     		subs	r3, r3, #1
 970 0072 1B78     		ldrb	r3, [r3]	@ zero_extendqisi2
 510:Generated_Source\PSoC5/Comp_4.c ****     #endif /* CY_PSOC3 || CY_PSOC5LP */
 511:Generated_Source\PSoC5/Comp_4.c **** }
 971              		.loc 1 511 0
 972 0074 43EA0020 		orr	r0, r3, r0, lsl #8
 973 0078 F8BD     		pop	{r3, r4, r5, r6, r7, pc}
 974              	.LVL19:
 975              	.L42:
 976 007a 00BF     		.align	2
 977              	.L41:
 978 007c C85A0040 		.word	1073765064
 979 0080 CA5A0040 		.word	1073765066
 980 0084 CB5A0040 		.word	1073765067
ARM GAS  C:\Users\Luggi\AppData\Local\Temp\ccGS0Ofd.s 			page 58


 981 0088 32460040 		.word	1073759794
 982 008c 41580040 		.word	1073764417
 983              		.cfi_endproc
 984              	.LFE7:
 985              		.size	Comp_4_ZeroCal, .-Comp_4_ZeroCal
 986              		.section	.text.Comp_4_LoadTrim,"ax",%progbits
 987              		.align	2
 988              		.global	Comp_4_LoadTrim
 989              		.thumb
 990              		.thumb_func
 991              		.type	Comp_4_LoadTrim, %function
 992              	Comp_4_LoadTrim:
 993              	.LFB8:
 512:Generated_Source\PSoC5/Comp_4.c **** 
 513:Generated_Source\PSoC5/Comp_4.c **** 
 514:Generated_Source\PSoC5/Comp_4.c **** /*******************************************************************************
 515:Generated_Source\PSoC5/Comp_4.c **** * Function Name: Comp_4_LoadTrim
 516:Generated_Source\PSoC5/Comp_4.c **** ********************************************************************************
 517:Generated_Source\PSoC5/Comp_4.c **** *
 518:Generated_Source\PSoC5/Comp_4.c **** * Summary:
 519:Generated_Source\PSoC5/Comp_4.c **** *  This function stores a value in the Analog Comparator trim register.
 520:Generated_Source\PSoC5/Comp_4.c **** *
 521:Generated_Source\PSoC5/Comp_4.c **** * Parameters:  
 522:Generated_Source\PSoC5/Comp_4.c **** *  uint8 trimVal - trim value.  This value is the same format as the value 
 523:Generated_Source\PSoC5/Comp_4.c **** *  returned by the _ZeroCal routine.
 524:Generated_Source\PSoC5/Comp_4.c **** *
 525:Generated_Source\PSoC5/Comp_4.c **** * Return:
 526:Generated_Source\PSoC5/Comp_4.c **** *  None
 527:Generated_Source\PSoC5/Comp_4.c **** *
 528:Generated_Source\PSoC5/Comp_4.c **** *******************************************************************************/
 529:Generated_Source\PSoC5/Comp_4.c **** void Comp_4_LoadTrim(uint16 trimVal) 
 530:Generated_Source\PSoC5/Comp_4.c **** {
 994              		.loc 1 530 0
 995              		.cfi_startproc
 996              		@ args = 0, pretend = 0, frame = 0
 997              		@ frame_needed = 0, uses_anonymous_args = 0
 998              		@ link register save eliminated.
 999              	.LVL20:
 531:Generated_Source\PSoC5/Comp_4.c ****     /* Stores value in the Analog Comparator trim register */
 532:Generated_Source\PSoC5/Comp_4.c ****     /* PSoC5A */
 533:Generated_Source\PSoC5/Comp_4.c ****     #if (CY_PSOC5A)
 534:Generated_Source\PSoC5/Comp_4.c ****         Comp_4_TR = (uint8) trimVal;
 535:Generated_Source\PSoC5/Comp_4.c ****     #endif /* CY_PSOC5A */
 536:Generated_Source\PSoC5/Comp_4.c ****     
 537:Generated_Source\PSoC5/Comp_4.c ****     /* PSoC3, PSoC5LP or later */
 538:Generated_Source\PSoC5/Comp_4.c ****     #if (CY_PSOC3 || CY_PSOC5LP)
 539:Generated_Source\PSoC5/Comp_4.c ****         /* Stores value in the Analog Comparator trim register for P-type load */
 540:Generated_Source\PSoC5/Comp_4.c ****         Comp_4_TR0 = (uint8) trimVal;
 1000              		.loc 1 540 0
 1001 0000 C2B2     		uxtb	r2, r0
 1002 0002 034B     		ldr	r3, .L44
 1003 0004 1A70     		strb	r2, [r3]
 541:Generated_Source\PSoC5/Comp_4.c ****         
 542:Generated_Source\PSoC5/Comp_4.c ****         /* Stores value in the Analog Comparator trim register for N-type load */
 543:Generated_Source\PSoC5/Comp_4.c ****         Comp_4_TR1 = (uint8) (trimVal >> 8); 
 1004              		.loc 1 543 0
 1005 0006 000A     		lsrs	r0, r0, #8
ARM GAS  C:\Users\Luggi\AppData\Local\Temp\ccGS0Ofd.s 			page 59


 1006              	.LVL21:
 1007 0008 0133     		adds	r3, r3, #1
 1008 000a 1870     		strb	r0, [r3]
 1009 000c 7047     		bx	lr
 1010              	.L45:
 1011 000e 00BF     		.align	2
 1012              	.L44:
 1013 0010 32460040 		.word	1073759794
 1014              		.cfi_endproc
 1015              	.LFE8:
 1016              		.size	Comp_4_LoadTrim, .-Comp_4_LoadTrim
 1017              		.section	.text.Comp_4_PwrDwnOverrideEnable,"ax",%progbits
 1018              		.align	2
 1019              		.global	Comp_4_PwrDwnOverrideEnable
 1020              		.thumb
 1021              		.thumb_func
 1022              		.type	Comp_4_PwrDwnOverrideEnable, %function
 1023              	Comp_4_PwrDwnOverrideEnable:
 1024              	.LFB9:
 544:Generated_Source\PSoC5/Comp_4.c ****     #endif /* CY_PSOC3 || CY_PSOC5LP */
 545:Generated_Source\PSoC5/Comp_4.c **** }
 546:Generated_Source\PSoC5/Comp_4.c **** 
 547:Generated_Source\PSoC5/Comp_4.c **** 
 548:Generated_Source\PSoC5/Comp_4.c **** #if (CY_PSOC3 || CY_PSOC5LP)
 549:Generated_Source\PSoC5/Comp_4.c **** 
 550:Generated_Source\PSoC5/Comp_4.c ****     /*******************************************************************************
 551:Generated_Source\PSoC5/Comp_4.c ****     * Function Name: Comp_4_PwrDwnOverrideEnable
 552:Generated_Source\PSoC5/Comp_4.c ****     ********************************************************************************
 553:Generated_Source\PSoC5/Comp_4.c ****     *
 554:Generated_Source\PSoC5/Comp_4.c ****     * Summary:
 555:Generated_Source\PSoC5/Comp_4.c ****     *  This is the power down over-ride feature. This function ignores sleep 
 556:Generated_Source\PSoC5/Comp_4.c ****     *  parameter and allows the component to stay active during sleep mode.
 557:Generated_Source\PSoC5/Comp_4.c ****     *
 558:Generated_Source\PSoC5/Comp_4.c ****     * Parameters:
 559:Generated_Source\PSoC5/Comp_4.c ****     *  None
 560:Generated_Source\PSoC5/Comp_4.c ****     *
 561:Generated_Source\PSoC5/Comp_4.c ****     * Return:
 562:Generated_Source\PSoC5/Comp_4.c ****     *  None
 563:Generated_Source\PSoC5/Comp_4.c ****     *
 564:Generated_Source\PSoC5/Comp_4.c ****     *******************************************************************************/
 565:Generated_Source\PSoC5/Comp_4.c ****     void Comp_4_PwrDwnOverrideEnable(void) 
 566:Generated_Source\PSoC5/Comp_4.c ****     {
 1025              		.loc 1 566 0
 1026              		.cfi_startproc
 1027              		@ args = 0, pretend = 0, frame = 0
 1028              		@ frame_needed = 0, uses_anonymous_args = 0
 1029              		@ link register save eliminated.
 567:Generated_Source\PSoC5/Comp_4.c ****         /* Set the pd_override bit in CMP_CR register */
 568:Generated_Source\PSoC5/Comp_4.c ****         Comp_4_CR |= Comp_4_PWRDWN_OVRD;
 1030              		.loc 1 568 0
 1031 0000 024A     		ldr	r2, .L47
 1032 0002 1378     		ldrb	r3, [r2]	@ zero_extendqisi2
 1033 0004 43F00403 		orr	r3, r3, #4
 1034 0008 1370     		strb	r3, [r2]
 1035 000a 7047     		bx	lr
 1036              	.L48:
 1037              		.align	2
ARM GAS  C:\Users\Luggi\AppData\Local\Temp\ccGS0Ofd.s 			page 60


 1038              	.L47:
 1039 000c 41580040 		.word	1073764417
 1040              		.cfi_endproc
 1041              	.LFE9:
 1042              		.size	Comp_4_PwrDwnOverrideEnable, .-Comp_4_PwrDwnOverrideEnable
 1043              		.section	.text.Comp_4_PwrDwnOverrideDisable,"ax",%progbits
 1044              		.align	2
 1045              		.global	Comp_4_PwrDwnOverrideDisable
 1046              		.thumb
 1047              		.thumb_func
 1048              		.type	Comp_4_PwrDwnOverrideDisable, %function
 1049              	Comp_4_PwrDwnOverrideDisable:
 1050              	.LFB10:
 569:Generated_Source\PSoC5/Comp_4.c ****     }
 570:Generated_Source\PSoC5/Comp_4.c **** 
 571:Generated_Source\PSoC5/Comp_4.c **** 
 572:Generated_Source\PSoC5/Comp_4.c ****     /*******************************************************************************
 573:Generated_Source\PSoC5/Comp_4.c ****     * Function Name: Comp_4_PwrDwnOverrideDisable
 574:Generated_Source\PSoC5/Comp_4.c ****     ********************************************************************************
 575:Generated_Source\PSoC5/Comp_4.c ****     *
 576:Generated_Source\PSoC5/Comp_4.c ****     * Summary:
 577:Generated_Source\PSoC5/Comp_4.c ****     *  This is the power down over-ride feature. This allows the component to stay
 578:Generated_Source\PSoC5/Comp_4.c ****     *  inactive during sleep.
 579:Generated_Source\PSoC5/Comp_4.c ****     *
 580:Generated_Source\PSoC5/Comp_4.c ****     * Parameters:
 581:Generated_Source\PSoC5/Comp_4.c ****     *  None
 582:Generated_Source\PSoC5/Comp_4.c ****     *
 583:Generated_Source\PSoC5/Comp_4.c ****     * Return:
 584:Generated_Source\PSoC5/Comp_4.c ****     *  None
 585:Generated_Source\PSoC5/Comp_4.c ****     *
 586:Generated_Source\PSoC5/Comp_4.c ****     *******************************************************************************/
 587:Generated_Source\PSoC5/Comp_4.c ****     void Comp_4_PwrDwnOverrideDisable(void) 
 588:Generated_Source\PSoC5/Comp_4.c ****     {
 1051              		.loc 1 588 0
 1052              		.cfi_startproc
 1053              		@ args = 0, pretend = 0, frame = 0
 1054              		@ frame_needed = 0, uses_anonymous_args = 0
 1055              		@ link register save eliminated.
 589:Generated_Source\PSoC5/Comp_4.c ****         /* Reset the pd_override bit in CMP_CR register */
 590:Generated_Source\PSoC5/Comp_4.c ****         Comp_4_CR &= (uint8)(~Comp_4_PWRDWN_OVRD);
 1056              		.loc 1 590 0
 1057 0000 024A     		ldr	r2, .L50
 1058 0002 1378     		ldrb	r3, [r2]	@ zero_extendqisi2
 1059 0004 03F0FB03 		and	r3, r3, #251
 1060 0008 1370     		strb	r3, [r2]
 1061 000a 7047     		bx	lr
 1062              	.L51:
 1063              		.align	2
 1064              	.L50:
 1065 000c 41580040 		.word	1073764417
 1066              		.cfi_endproc
 1067              	.LFE10:
 1068              		.size	Comp_4_PwrDwnOverrideDisable, .-Comp_4_PwrDwnOverrideDisable
 1069              		.global	Comp_4_initVar
 1070              		.bss
 1071              		.set	.LANCHOR0,. + 0
 1072              		.type	Comp_4_initVar, %object
ARM GAS  C:\Users\Luggi\AppData\Local\Temp\ccGS0Ofd.s 			page 61


 1073              		.size	Comp_4_initVar, 1
 1074              	Comp_4_initVar:
 1075 0000 00       		.space	1
 1076              		.text
 1077              	.Letext0:
 1078              		.file 2 "Generated_Source\\PSoC5\\cytypes.h"
 1079              		.file 3 "Generated_Source\\PSoC5\\CyLib.h"