ARM GAS  C:\Users\Luggi\AppData\Local\Temp\cc4hyBfc.s 			page 1


   1              		.syntax unified
   2              		.cpu cortex-m3
   3              		.fpu softvfp
   4              		.eabi_attribute 20, 1
   5              		.eabi_attribute 21, 1
   6              		.eabi_attribute 23, 3
   7              		.eabi_attribute 24, 1
   8              		.eabi_attribute 25, 1
   9              		.eabi_attribute 26, 1
  10              		.eabi_attribute 30, 1
  11              		.eabi_attribute 34, 1
  12              		.eabi_attribute 18, 4
  13              		.thumb
  14              		.file	"Control_RS_PM.c"
  15              		.text
  16              	.Ltext0:
  17              		.section	.gnu.lto_.profile.d236dd6,"",%progbits
  18 0000 789C6366 		.ascii	"x\234cf```a\200\000F\006\005.\000\000\276\0003"
  18      60606061 
  18      80004606 
  18      052E0000 
  18      BE0033
  19              		.text
  20              		.section	.gnu.lto_.inline.d236dd6,"",%progbits
  21 0000 789C6366 		.ascii	"x\234cf\300\016\302\2404\013\003\003+\013#\003\023\313"
  21      C00EC2A0 
  21      340B0303 
  21      2B0B2303 
  21      13CB
  22 0012 027906B6 		.ascii	"\002y\006\266\005\362L 1&L!f\006\026\036\240\020\220"
  22      05F24C20 
  22      31264C21 
  22      6606161E 
  22      A01090
  23 0025 051361E4 		.ascii	"\005\023a\344\002\353\306*\314\000\000 A\005]"
  23      02EBC62A 
  23      CC000020 
  23      41055D
  24              		.text
  25              		.section	.gnu.lto_.jmpfuncs.d236dd6,"",%progbits
  26 0000 789C6366 		.ascii	"x\234cf\300\016\004\2404\013\0203100C\231\014\000\002"
  26      C00E04A0 
  26      340B1033 
  26      31303043 
  26      990C0002 
  27 0014 C70021   		.ascii	"\307\000!"
  28              		.text
  29              		.section	.gnu.lto_.pureconst.d236dd6,"",%progbits
  30 0000 789C6366 		.ascii	"x\234cf``\340d\200\000\026\006)&)f\011\026\011\000\002"
  30      6060E064 
  30      80001606 
  30      29262966 
  30      09160900 
  31 0015 C9007E   		.ascii	"\311\000~"
  32              		.text
  33              		.section	.gnu.lto_Control_RS_SaveConfig.d236dd6,"",%progbits
  34 0000 789C654F 		.ascii	"x\234eO\277KBa\024\275\347\276\247\030\022D\243\177"
ARM GAS  C:\Users\Luggi\AppData\Local\Temp\cc4hyBfc.s 			page 2


  34      BF4B4261 
  34      14BDE7BE 
  34      A7181244 
  34      A37F
  35 0012 40D2A05B 		.ascii	"@\322\240[s\203CS \271\012\022\346\026>\020\033\305"
  35      73834353 
  35      20B90A12 
  35      E6163E10 
  35      1BC5
  36 0024 F7C4211A 		.ascii	"\367\304!\032J\242!\350\027\015\221\245)D\0244\275\032"
  36      4AA221E8 
  36      170D91A5 
  36      29441434 
  36      BD1A
  37 0036 938C0A0A 		.ascii	"\223\214\012\012\034jQ\250-3\212G\230\335O\227\240\017"
  37      1C6A51A8 
  37      2D338A47 
  37      98DD4F97 
  37      A00F
  38 0048 3EEE77CF 		.ascii	">\356w\317=\3379\367h\364\377\370\344N\202h\\*4\002"
  38      3DDF39F7 
  38      68F4FFF8 
  38      E44E8268 
  38      5C2A3402 
  39 005c 17EA4496 		.ascii	"\027\352D\226\207\001\365 P\226\221\305+\267\031\005"
  39      8701F520 
  39      509691C5 
  39      2BB71905 
  40 006c BBB4EEF5 		.ascii	"\273\264\356\365\357\231\246\371\226\253Ya\033\016\023"
  40      EF99A6F9 
  40      96AB5961 
  40      1B0E13
  41 007b 7578A083 		.ascii	"ux\240\203}\370IH\355|\367\321\353\316\013id0C\021n"
  41      7DF84948 
  41      ED7CF7D1 
  41      EBCE0B69 
  41      64304311 
  42 0090 D1A7EAA8 		.ascii	"\321\247\352\250m\366z\235\362\305)t&\207\005k\312\\"
  42      6DF67A9D 
  42      F2C52974 
  42      2687056B 
  42      CA5C
  43 00a2 B9B49855 		.ascii	"\271\264\230U\325\032\270\374\\zh\015\251/_\254,\317"
  43      D51AB8FC 
  43      5C7A680D 
  43      A92F5FAC 
  43      2CCF
  44 00b4 D74EEAC3 		.ascii	"\327N\352\303/\3540\177\\Y\246\256\014\236\2337\267"
  44      2FEC307F 
  44      5C59A6AE 
  44      0C9E9B37 
  44      B7
  45 00c5 9E3E44AA 		.ascii	"\236>D\252\275\256\335\355`\013\033V^\326\321p\000\037"
  45      BDAEDDED 
  45      600B1B56 
  45      5ED6D170 
  45      001F
ARM GAS  C:\Users\Luggi\AppData\Local\Temp\cc4hyBfc.s 			page 3


  46 00d7 0E21A150 		.ascii	"\016!\241P\022\224\032\310\255\356\216)=\241n\337/W"
  46      12941AC8 
  46      ADEE8E29 
  46      3DA16EDF 
  46      2F57
  47 00e9 38F36D2E 		.ascii	"8\363m.\232\036\207\365\256Z\356\257\236\336o\213V~"
  47      9A1E87F5 
  47      AE5AEEAF 
  47      9EDE6F8B 
  47      567E
  48 00fb B3AF672A 		.ascii	"\263\257g*\226\013edp\244\004e\366S^9v\007J\222\315"
  48      960B6564 
  48      70A40465 
  48      F6535E39 
  48      76074A92 
  49 0110 0E3AEC46 		.ascii	"\016:\354FE\210\357\375\374\250\" \033\323\023,\373"
  49      4588EFFD 
  49      FCA82220 
  49      1BD3132C 
  49      FB
  50 0121 CCA5FC14 		.ascii	"\314\245\374\024\332\224\220\222K\030\376\251D2\221"
  50      DA949092 
  50      4B18FEA9 
  50      443291
  51 0130 9A4D27E6 		.ascii	"\232M'\346b\021c!\025OD\303\021#4\021\015\031\311t\312"
  51      62116321 
  51      154F44C3 
  51      11233411 
  51      0D19C974 
  52 0145 988FCD44 		.ascii	"\230\217\315Db\341\351`\234~\001\363\201\201\335"
  52      62E1E960 
  52      9C7E01F3 
  52      8181DD
  53              		.text
  54              		.section	.gnu.lto_Control_RS_RestoreConfig.d236dd6,"",%progbits
  55 0000 789C658F 		.ascii	"x\234e\217?HBQ\024\306\357w\236>\004\011\242Q\332%\302"
  55      3F484251 
  55      14C6EF77 
  55      9E3E0409 
  55      A251DA25 
  56 0015 B6A646A1 		.ascii	"\266\246F\241\246@r\025$\354m\341\003\261Q\274/\336"
  56      A6407215 
  56      24EC6DE1 
  56      03B151BC 
  56      2FDE
  57 0027 D054160D 		.ascii	"\320T\026\015A\377\246\310\322\024*\032Z|5\026)\331"
  57      41FFA6C8 
  57      D2142A1A 
  57      5A7C3516 
  57      29D9
  58 0039 10381481 		.ascii	"\0208\024\201AmYA<\302\354\334\347\024]\270\334{\277"
  58      416D5941 
  58      3CC2ECDC 
  58      E7145DB8 
  58      DC7BBF
  59 004c F3DDEF77 		.ascii	"\363\335\357w\216&\376\257\020\357\011\0101\302'4\001"
  59      8E26FEAF 
ARM GAS  C:\Users\Luggi\AppData\Local\Temp\cc4hyBfc.s 			page 4


  59      10EF0908 
  59      31C22734 
  59      01
  60 005d 2AD485B0 		.ascii	"*\324\205\260\002\004\250\213\200\310\023\362x\245\016"
  60      0204A88B 
  60      80C813F2 
  60      78A50E
  61 006c A1E09436 		.ascii	"\241\340\2246\202\341=)\345[\263a\305\034\270$\304\007"
  61      82E13D29 
  61      E55BB361 
  61      C51CB824 
  61      C407
  62 007e F573B08F 		.ascii	"\365s\260\217\260`S\307\356\336\007u\233M\203\375\032"
  62      B06053C7 
  62      EEDE0775 
  62      9B4D83FD 
  62      1A
  63 008f 8AD0395F 		.ascii	"\212\3209_T\207\034\331\353\235\324.\012\272\217\204"
  63      54871CD9 
  63      EB9DD42E 
  63      0ABA8F84 
  64 009f 4BACB5B9 		.ascii	"K\254\265\271\256(\317D\352\324ZX<\353\324\022\352\307"
  64      AE28CF44 
  64      EAD45A58 
  64      3CEBD412 
  64      EAC7
  65 00b1 1729E2CE 		.ascii	"\027)\342\316\335r\205r\337rI\006\\\242\256\212c\365"
  65      DD728572 
  65      DF724906 
  65      5CA2AE8A 
  65      63F5
  66 00c3 B1DDB80D 		.ascii	"\261\335\270\015\274\020+\336\263h\331[\330\306\246"
  66      BC102BDE 
  66      B368D95B 
  66      D8C6A6
  67 00d2 25954BC3 		.ascii	"%\225K\303\001r8D\310\253\375\224W\216\365\310\250K"
  67      01723844 
  67      C8ABFD94 
  67      578EF5C8 
  67      A84B
  68 00e4 3E94D8F3 		.ascii	">\224\330\363\3565\2132\"\242\205\313\265\247a\205b"
  68      EE358B32 
  68      22A285CB 
  68      B5A76185 
  68      62
  69 00f5 DBF9FA69 		.ascii	"\333\371\372i}@%\372?\257,\351\373\003\361{A7\327\315"
  69      7D4025FA 
  69      3FAF2CE9 
  69      FB03F17B 
  69      4137D7CD 
  70 0109 5D0F625B 		.ascii	"]\017b[\216\356\222\216#\204PQ\024TY\347v\305\003,g"
  70      8EEE928E 
  70      23845051 
  70      145459E7 
  70      76C5032C 
  71 011e 7552252A 		.ascii	"uR%*H\233\007\344\231\030\030\2362\322Ff6k\314%\343"
  71      489B07E4 
ARM GAS  C:\Users\Luggi\AppData\Local\Temp\cc4hyBfc.s 			page 5


  71      9918189E 
  71      32D24666 
  71      366BCC25 
  72 0133 E6422665 		.ascii	"\346B&e$bq3:\236\210\232\351l\306\234O\316\304\223\261"
  72      24627133 
  72      3A9E889A 
  72      E96CC69C 
  72      4FCEC493 
  73 0148 E9B194F8 		.ascii	"\351\261\224\370\005\333\312\200\007"
  73      05DBCA80 
  73      07
  74              		.text
  75              		.section	.gnu.lto_Control_RS_Sleep.d236dd6,"",%progbits
  76 0000 789C6366 		.ascii	"x\234cf\300\004R@\274\030\2105\201\230\221\231\201\221"
  76      C0045240 
  76      BC188835 
  76      81989199 
  76      8191
  77 0012 69C23906 		.ascii	"i\3029\006\206F\016&FF\020\203\201\221\241\236\211\261"
  77      86460E26 
  77      46461083 
  77      8191A19E 
  77      89B1
  78 0024 9EF125D3 		.ascii	"\236\361%\323G&\306\011\007V\317\340V_\332\320\320\360"
  78      4726C609 
  78      0756CFE0 
  78      565FDAD0 
  78      D0F0
  79 0036 61D25689 		.ascii	"a\322V\211V\211\237L\014\014\237\231 \3060.gTg\000\252"
  79      56899F4C 
  79      0C0C9F99 
  79      20C6302E 
  79      67546700 
  80 004b F9D8F2F7 		.ascii	"\371\330\362\367:7[\013P\215\000D\216q\005#\033#\220"
  80      3A375B0B 
  80      508D0044 
  80      8E710523 
  80      1B2390
  81 005e 5E2F74A0 		.ascii	"^/t\240\341\377\377\315W'vh\003\255ax\002\224\003Y\360"
  81      E1FFFFCD 
  81      57277668 
  81      03AD6178 
  81      02940359 
  82 0073 94890944 		.ascii	"\224\211\011D3\337al>p\375\030\023H5\310\230y\227\373"
  82      33DF616C 
  82      3E70FD18 
  82      134835C8 
  82      987997FB 
  83 0087 D631D5FE 		.ascii	"\3261\325\376n\350h\340\370\311\304\370\231\011h\002"
  83      6EE868E0 
  83      F8C9C4F8 
  83      99096802 
  84 0097 E34AC65A 		.ascii	"\343J\306Z\206\237@\345\367\030\033\017\334t\003\253"
  84      869F40E5 
  84      F7181B0F 
  84      DC7403AB 
  85 00a7 640019C4 		.ascii	"d\000\031\304\0102\000h\234\272{j^jQbIjJ|p~iQrjL@p\276"
ARM GAS  C:\Users\Luggi\AppData\Local\Temp\cc4hyBfc.s 			page 6


  85      08320068 
  85      9CBA7B6A 
  85      5E6A5162 
  85      496A4A7C 
  86 00c5 B3698C73 		.ascii	"\263i\214s~^IQ~N|Pp|\200\257^2\003\000-\"H\270"
  86      7E5E4951 
  86      7E4E7C50 
  86      707C80AF 
  86      5E320300 
  87              		.text
  88              		.section	.gnu.lto_Control_RS_Wakeup.d236dd6,"",%progbits
  89 0000 789C6366 		.ascii	"x\234cf\300\004R@\274\030\2105\201\230\221\231\201\221"
  89      C0045240 
  89      BC188835 
  89      81989199 
  89      8191
  90 0012 69C23906 		.ascii	"i\3029\006\206F\016&FF\020\203\201\221\241\236\211\261"
  90      86460E26 
  90      46461083 
  90      8191A19E 
  90      89B1
  91 0024 9EF125D3 		.ascii	"\236\361%\323G&\306\011\007V\317\340V_\332\320\320\360"
  91      4726C609 
  91      0756CFE0 
  91      565FDAD0 
  91      D0F0
  92 0036 E1D24E89 		.ascii	"\341\322N\211V\211\237L\014\014\237\231 \3060.gTg\000"
  92      56899F4C 
  92      0C0C9F99 
  92      20C6302E 
  92      67546700 
  93 004a AAF9D8F2 		.ascii	"\252\371\330\362\367:7[\013P\215\000D\216q\005#\033"
  93      F73A375B 
  93      0B508D00 
  93      448E7105 
  93      231B
  94 005c 23905E2F 		.ascii	"#\220^/t\240\341\377\377\315\317'v\230\001\255ax\002"
  94      74A0E1FF 
  94      FFCDCF27 
  94      769801AD 
  94      617802
  95 006f 940359F0 		.ascii	"\224\003Y\360\224\211\011D3\337al>0\3778\023H5\310\230"
  95      94890944 
  95      33DF616C 
  95      3E30FF38 
  95      134835C8 
  96 0084 7997FBD6 		.ascii	"y\227\373\3261\325\376n\350h\340\370\311\304\370\231"
  96      31D5FE6E 
  96      E868E0F8 
  96      C9C4F899 
  97 0094 096802E3 		.ascii	"\011h\002\343J\306Z\206\237@\345\367\030\033\017lt\007"
  97      4AC65A86 
  97      9F40E5F7 
  97      181B0F6C 
  97      7407
  98 00a6 AB640019 		.ascii	"\253d\000\031\304\0102\000h\234\272{j^jQbIjJ|p~iQrj"
  98      C4083200 
ARM GAS  C:\Users\Luggi\AppData\Local\Temp\cc4hyBfc.s 			page 7


  98      689CBA7B 
  98      6A5E6A51 
  98      62496A4A 
  99 00c1 4C4070BE 		.ascii	"L@p\276\263i\214s~^IQ~N|Pp|\200\257^2\003\000N}H\273"
  99      B3698C73 
  99      7E5E4951 
  99      7E4E7C50 
  99      707C80AF 
 100              		.text
 101              		.section	.gnu.lto_.symbol_nodes.d236dd6,"",%progbits
 102 0000 789C5588 		.ascii	"x\234U\210\261\015\2000\020\304\374wAbE\246\271\025"
 102      B10D8030 
 102      10C4FC77 
 102      416245A6 
 102      B915
 103 0012 A8A82306 		.ascii	"\250\250#\006b\006&\211\220\020Epc\331\0066>T\201\375"
 103      62062689 
 103      90104570 
 103      63D90636 
 103      3E5481FD 
 104 0026 8284A3AF 		.ascii	"\202\204\243\257,\320\025K\251y\313\321\257[<\267\015"
 104      2CD0154B 
 104      A979CBD1 
 104      AF5B3CB7 
 104      0D
 105 0037 E73DCA4D 		.ascii	"\347=\312M\257y\000\333\225\027\023"
 105      AF7900DB 
 105      951713
 106              		.text
 107              		.section	.gnu.lto_.refs.d236dd6,"",%progbits
 108 0000 789C6366 		.ascii	"x\234cf``\340f\200\000F\006FF&F& \311\000\000\001l\000"
 108      6060E066 
 108      80004606 
 108      46462646 
 108      2620C900 
 109 0018 19       		.ascii	"\031"
 110              		.text
 111              		.section	.gnu.lto_.decls.d236dd6,"",%progbits
 112 0000 789C8D53 		.ascii	"x\234\215SmHSQ\030>\357\316\\k\316>\220,\374e\031\366"
 112      6D485351 
 112      183EEFCE 
 112      5C6BCE3E 
 112      902CFC65 
 113 0016 81440445 		.ascii	"\201D\004E\377\372\330\017\203(\206S\202\012\314\326"
 113      FFFAD80F 
 113      83288653 
 113      820ACCD6 
 114 0026 ED03C5D9 		.ascii	"\355\003\305\331\232A\377N\263H\355\203\276\304\210"
 114      9A41FF4E 
 114      B348ED83 
 114      BEC488
 115 0035 A82B4939 		.ascii	"\250+I9\263\271\226V\313j\263\246\256\354CJ\014\013"
 115      B3B99656 
 115      CB6AB3A6 
 115      AEEC434A 
 115      0C0B
 116 0047 C2EA4FFD 		.ascii	"\302\352O\375\210\026\304 *n\3579\367\336v\263\254\016"
ARM GAS  C:\Users\Luggi\AppData\Local\Temp\cc4hyBfc.s 			page 8


 116      8816C420 
 116      2A6EEF39 
 116      F7DE76B3 
 116      AC0E
 117 0059 BCF7DE73 		.ascii	"\274\367\336s\316\363<\357s\336\367\\J\010Y\010\204"
 117      CEF33CEF 
 117      73DEF75C 
 117      4A085908 
 117      84
 118 006a 2838D69B 		.ascii	"(8\326\233\011\261\343w\006\2569Iz\3402i\307\010b\204"
 118      09B1E377 
 118      06AE3949 
 118      7AE03269 
 118      C7086284 
 119 007e 30C21808 		.ascii	"0\302\030\010#=\344\327\3011\0234n\016F\037F\034\243"
 119      233DE4D7 
 119      C1311334 
 119      6E0E461F 
 119      461CA3
 120 0091 1FE336C6 		.ascii	"\037\3436\306u\215\327\255\275\333\307\321\011\216\321"
 120      758DD7AD 
 120      BDDBC7D1 
 120      098ED1
 121 00a0 31F2754D 		.ascii	"1\362uM\243Np\034\035\356\225j:\011\214\200\266n\322"
 121      A34E701C 
 121      1DEE956A 
 121      3A098C80 
 121      B66ED2
 122 00b3 F6DAC9EF 		.ascii	"\366\332\311\357#\374\027NX\3135v|2A$\370\371Q\346;"
 122      23FC174E 
 122      58CB3576 
 122      7C324124 
 122      F8F951E6 
 123 00c8 134CB2E5 		.ascii	"\023L\262\345\361\351\315\343\211S\026\234\332mf>\355"
 123      F1E9CDE3 
 123      8953169C 
 123      DA6D663E 
 123      ED
 124 00d9 FEFA66C8 		.ascii	"\376\372f\310<\275\221\3418Z\313\246\230\301\231\003"
 124      3CBD91E1 
 124      385ACBA6 
 124      98C19903 
 125 00e9 1721175A 		.ascii	"\027!\027Z!\027\235\007`:>7\230U%99x\024\250\011\370"
 125      21179D07 
 125      603A3E37 
 125      98552539 
 125      397814A8 
 126 00ff F7F953AF 		.ascii	"\367\371S\257\207l\205mH\253c\261\030M\247{\3611z?+"
 126      876C856D 
 126      48AB63B1 
 126      184DA77B 
 126      F1317A3F 
 127 0114 EF2C1B0D 		.ascii	"\357,\033\015%\243\241\021;K\260\230\242,\023R\320\006"
 127      25A3A111 
 127      3B4BB098 
 127      A22C1352 
 127      D006
ARM GAS  C:\Users\Luggi\AppData\Local\Temp\cc4hyBfc.s 			page 9


 128 0126 142E4121 		.ascii	"\024.A!G\362oA\201v\310C\332\233\303\362\011+-\022\332"
 128      47F26F41 
 128      8176C843 
 128      DA9BC3F2 
 128      092B2D12 
 129 013b 7722673F 		.ascii	"w\"g?\230\205\204\374=\314\226\357c\337\024\205\012"
 129      988584FC 
 129      3DCC96EF 
 129      63DF1485 
 129      0A
 130 014c 81CB0681 		.ascii	"\201\313\006\201\313\272@P\010\304\236\275\352\312\242"
 130      CBBA4050 
 130      08C49EBD 
 130      EACAA2
 131 015b 9B8440EC 		.ascii	"\233\204@\354i\375S\212\002rH\016\234\267\250\016\004"
 131      69FD538A 
 131      0272480E 
 131      9CB7A80E 
 131      04
 132 016c BFC3C0EF 		.ascii	"\277\303\300\357\320\371!\301\177\373\"\322d\243;\005"
 132      D0F921C1 
 132      7FFB22D2 
 132      64A33B05 
 133 017c 3F1EF9F0 		.ascii	"?\036\371\360\035T\376\243_\370W\014\374+:?,\370\251"
 133      1D54FEA3 
 133      5FF8570C 
 133      FC2B3A3F 
 133      2CF8A9
 134 018f 96C1C6C9 		.ascii	"\226\301\306\311\264\026\204\300p\364\300\001+=\243"
 134      B41684C0 
 134      70F4C001 
 134      2B3DA3
 135 019e 4EF65EE8 		.ascii	"N\366^\350>4\001+\236c\023\005:2p\272\207\212\251\302"
 135      3E34012B 
 135      9E631305 
 135      3A3270BA 
 135      878AA9C2 
 136 01b2 B74D2323 		.ascii	"\267M##'\277P\260\025\3241\346g\311\343\214\316 P\230"
 136      27BF50B0 
 136      15D431E6 
 136      67C9E38C 
 136      CE205098 
 137 01c6 0BF37209 		.ascii	"\013\363r\011\334\200\002\204\211\214\320\205M\271\206"
 137      DC800284 
 137      898CD085 
 137      4DB986
 138 01d5 4D69C192 		.ascii	"Mi\301\222'\037\364\266\255\256e\313\341:\330\240\363"
 138      271FF4B6 
 138      ADAE65CB 
 138      E13AD8A0 
 138      F3
 139 01e6 A7279141 		.ascii	"\247'\221Ak\303ie\270s\022\215\013\0074\320\031\177"
 139      6BC36965 
 139      B873128D 
 139      0B0734D0 
 139      197F
 140 01f8 6F81EC59 		.ascii	"o\201\354Y\005\307x\237\223~d\3529\010\334\204l\316"
ARM GAS  C:\Users\Luggi\AppData\Local\Temp\cc4hyBfc.s 			page 10


 140      05C7789F 
 140      937E64EA 
 140      3908DC84 
 140      6CCE
 141 020a 875B98AC 		.ascii	"\207[\230\254\033f\011\001\031\275$\003\375O\262\232"
 141      1B660901 
 141      19BD2403 
 141      FD4FB29A 
 142 021a D8680C44 		.ascii	"\330h\014D\232\010\246\341P\315\332\\N\235\217\017a"
 142      9A08A6E1 
 142      50CDDA5C 
 142      4E9D8F0F 
 142      61
 143 022b 68F4D622 		.ascii	"h\364\326\"+\337%zut\037\246s\312\347\372L\310\376C"
 143      2BDF257A 
 143      75741FA6 
 143      73CAE7FA 
 143      4CC8FE43 
 144 023f 66B88309 		.ascii	"f\270\203\011\377\224\\\010&,\000\267q\363j\372t\\_"
 144      FF945C08 
 144      262C00B7 
 144      71F36AFA 
 144      745C5F
 145 0252 3FDEBEE7 		.ascii	"?\336\276\347\012\320\224Z\337\324\303\307\376\314%"
 145      0AD0945A 
 145      DFD4C3C7 
 145      FECC25
 146 0261 9DAC4EB6 		.ascii	"\235\254N\266\012\012\352\360j\361\255\236\372\227\315"
 146      0A0AEAF0 
 146      6AF1AD9E 
 146      FA97CD
 147 0270 19F9CD8C 		.ascii	"\031\371\315\214\311\311\350\253VS\023\223\375\214\361"
 147      C9C9E8AB 
 147      56531393 
 147      FD8CF1
 148 027f 660A6054 		.ascii	"f\012`T\325\376Y\211(\357(\304`\011\201\036\310G:k:"
 148      D5FE5989 
 148      28EF28C4 
 148      6009811E 
 148      C8473A6B 
 149 0294 D862A575 		.ascii	"\330b\245u\352\215\357J5D\262l\330\245\332\377\350\022"
 149      EA8DEF4A 
 149      3544B26C 
 149      D8A5DAFF 
 149      E812
 150 02a6 9E7CE871 		.ascii	"\236|\350q\303\360D\265\257c\031\275\343\366u\177\324"
 150      C3F044B5 
 150      AF6319BD 
 150      E3F6757F 
 150      D4
 151 02b7 7E9F312B 		.ascii	"~\2371+\304\261\342w\323G\277\007\351\316\016\015\370"
 151      C4B1E277 
 151      D347BF07 
 151      E9CE0E0D 
 151      F8
 152 02c8 5F527B03 		.ascii	"_R{\003\277-\370\307N\\%\260\351_\266\017\354\342V\342"
 152      BF2DF8C7 
ARM GAS  C:\Users\Luggi\AppData\Local\Temp\cc4hyBfc.s 			page 11


 152      4E5C25B0 
 152      E95FB60F 
 152      ECE256E2 
 153 02dc 1BC103F7 		.ascii	"\033\301\003\367\3667\232\215`~\3564\270_\003\367\013"
 153      F6379A8D 
 153      607EEE34 
 153      B85F03F7 
 153      0B
 154 02ed 70476AB0 		.ascii	"pGj\260-\323\010\346W>\015N\200]\367\203\237d\232\303"
 154      2DD308E6 
 154      573E0D4E 
 154      805DF783 
 154      9F649AC3 
 155 0301 53E5F37A 		.ascii	"S\345\363z*\313\212]e\256\362\335\022N\267\356\330f"
 155      2ACB8A5D 
 155      65AEF2DD 
 155      124EB7EE 
 155      D866
 156 0313 295A5B9A 		.ascii	")Z[\232\347 s\212\244*\311[\356\223\266\224\271<5^\267"
 156      E720738A 
 156      A42AC95B 
 156      EE93B694 
 156      B93C355E 
 157 0328 B4D1E9F2 		.ascii	"\264\321\351\3628\026o4p\234k\026\270\311\014\303B\261"
 157      38166F34 
 157      709C6B16 
 157      B8C90CC3 
 157      42B1
 158 033a B4CBE7F1 		.ascii	"\264\313\347\361j:S\214\352\225\222T=\325\260\260\256"
 158      6A3A538C 
 158      EA959254 
 158      3DD5B0B0 
 158      AE
 159 034b BC42AAA9 		.ascii	"\274B\252\2516rW\256p\254.u\226\271J\212K\035%\0315"
 159      367257AE 
 159      70AC2E75 
 159      96B94A8A 
 159      4B1D2519 
 160 0360 3BAA7C4B 		.ascii	";\252|Kg\216c\301\275\307\267\247Z\332\265`;\261\273"
 160      678E63C1 
 160      BDC7B7A7 
 160      5ADAB560 
 160      3BB1BB
 161 0373 5501970F 		.ascii	"U\001\227\017Q\263\377\351\030\031F\023\233\313\335"
 161      51B3FFE9 
 161      18194613 
 161      9BCBDD
 162 0382 1535D566 		.ascii	"\0255\325f\257\264m\351\017\026\015\304\231"
 162      AFB46DE9 
 162      0F160DC4 
 162      99
 163              		.text
 164              		.section	.gnu.lto_.symtab.d236dd6,"",%progbits
 165 0000 436F6E74 		.ascii	"Control_RS_SaveConfig\000\000\000\000\000\000\000\000"
 165      726F6C5F 
 165      52535F53 
 165      61766543 
ARM GAS  C:\Users\Luggi\AppData\Local\Temp\cc4hyBfc.s 			page 12


 165      6F6E6669 
 166 001d 00000000 		.ascii	"\000\000\000\000\254\000\000\000Control_RS_RestoreC"
 166      AC000000 
 166      436F6E74 
 166      726F6C5F 
 166      52535F52 
 167 0038 6F6E6669 		.ascii	"onfig\000\000\000\000\000\000\000\000\000\000\000\000"
 167      67000000 
 167      00000000 
 167      00000000 
 167      00
 168 0049 AE000000 		.ascii	"\256\000\000\000Control_RS_Sleep\000\000\000\000\000"
 168      436F6E74 
 168      726F6C5F 
 168      52535F53 
 168      6C656570 
 169 0062 00000000 		.ascii	"\000\000\000\000\000\000\000\260\000\000\000Control"
 169      000000B0 
 169      00000043 
 169      6F6E7472 
 169      6F6C
 170 0074 5F52535F 		.ascii	"_RS_Wakeup\000\000\000\000\000\000\000\000\000\000\000"
 170      57616B65 
 170      75700000 
 170      00000000 
 170      00000000 
 171 0089 00B20000 		.ascii	"\000\262\000\000\000"
 171      00
 172              		.text
 173              		.section	.gnu.lto_.opts,"",%progbits
 174 0000 272D666E 		.ascii	"'-fno-trapv' '-fno-strict-overflow' '-mcpu=cortex-m"
 174      6F2D7472 
 174      61707627 
 174      20272D66 
 174      6E6F2D73 
 175 0033 33272027 		.ascii	"3' '-mthumb' '-g' '-Og' '-ffunction-sections' '-flt"
 175      2D6D7468 
 175      756D6227 
 175      20272D67 
 175      2720272D 
 176 0066 6F272027 		.ascii	"o' '-ffat-lto-objects'\000"
 176      2D666661 
 176      742D6C74 
 176      6F2D6F62 
 176      6A656374 
 177              		.text
 178              		.cfi_sections	.debug_frame
 179              		.section	.text.Control_RS_SaveConfig,"ax",%progbits
 180              		.align	2
 181              		.global	Control_RS_SaveConfig
 182              		.thumb
 183              		.thumb_func
 184              		.type	Control_RS_SaveConfig, %function
 185              	Control_RS_SaveConfig:
 186              	.LFB0:
 187              		.file 1 "Generated_Source\\PSoC5\\Control_RS_PM.c"
   1:Generated_Source\PSoC5/Control_RS_PM.c **** /*******************************************************************************
ARM GAS  C:\Users\Luggi\AppData\Local\Temp\cc4hyBfc.s 			page 13


   2:Generated_Source\PSoC5/Control_RS_PM.c **** * File Name: Control_RS_PM.c
   3:Generated_Source\PSoC5/Control_RS_PM.c **** * Version 1.80
   4:Generated_Source\PSoC5/Control_RS_PM.c **** *
   5:Generated_Source\PSoC5/Control_RS_PM.c **** * Description:
   6:Generated_Source\PSoC5/Control_RS_PM.c **** *  This file contains the setup, control, and status commands to support 
   7:Generated_Source\PSoC5/Control_RS_PM.c **** *  the component operation in the low power mode. 
   8:Generated_Source\PSoC5/Control_RS_PM.c **** *
   9:Generated_Source\PSoC5/Control_RS_PM.c **** * Note:
  10:Generated_Source\PSoC5/Control_RS_PM.c **** *
  11:Generated_Source\PSoC5/Control_RS_PM.c **** ********************************************************************************
  12:Generated_Source\PSoC5/Control_RS_PM.c **** * Copyright 2015, Cypress Semiconductor Corporation.  All rights reserved.
  13:Generated_Source\PSoC5/Control_RS_PM.c **** * You may use this file only in accordance with the license, terms, conditions, 
  14:Generated_Source\PSoC5/Control_RS_PM.c **** * disclaimers, and limitations in the end user license agreement accompanying 
  15:Generated_Source\PSoC5/Control_RS_PM.c **** * the software package with which this file was provided.
  16:Generated_Source\PSoC5/Control_RS_PM.c **** *******************************************************************************/
  17:Generated_Source\PSoC5/Control_RS_PM.c **** 
  18:Generated_Source\PSoC5/Control_RS_PM.c **** #include "Control_RS.h"
  19:Generated_Source\PSoC5/Control_RS_PM.c **** 
  20:Generated_Source\PSoC5/Control_RS_PM.c **** /* Check for removal by optimization */
  21:Generated_Source\PSoC5/Control_RS_PM.c **** #if !defined(Control_RS_Sync_ctrl_reg__REMOVED)
  22:Generated_Source\PSoC5/Control_RS_PM.c **** 
  23:Generated_Source\PSoC5/Control_RS_PM.c **** static Control_RS_BACKUP_STRUCT  Control_RS_backup = {0u};
  24:Generated_Source\PSoC5/Control_RS_PM.c **** 
  25:Generated_Source\PSoC5/Control_RS_PM.c ****     
  26:Generated_Source\PSoC5/Control_RS_PM.c **** /*******************************************************************************
  27:Generated_Source\PSoC5/Control_RS_PM.c **** * Function Name: Control_RS_SaveConfig
  28:Generated_Source\PSoC5/Control_RS_PM.c **** ********************************************************************************
  29:Generated_Source\PSoC5/Control_RS_PM.c **** *
  30:Generated_Source\PSoC5/Control_RS_PM.c **** * Summary:
  31:Generated_Source\PSoC5/Control_RS_PM.c **** *  Saves the control register value.
  32:Generated_Source\PSoC5/Control_RS_PM.c **** *
  33:Generated_Source\PSoC5/Control_RS_PM.c **** * Parameters:
  34:Generated_Source\PSoC5/Control_RS_PM.c **** *  None
  35:Generated_Source\PSoC5/Control_RS_PM.c **** *
  36:Generated_Source\PSoC5/Control_RS_PM.c **** * Return:
  37:Generated_Source\PSoC5/Control_RS_PM.c **** *  None
  38:Generated_Source\PSoC5/Control_RS_PM.c **** *
  39:Generated_Source\PSoC5/Control_RS_PM.c **** *******************************************************************************/
  40:Generated_Source\PSoC5/Control_RS_PM.c **** void Control_RS_SaveConfig(void) 
  41:Generated_Source\PSoC5/Control_RS_PM.c **** {
 188              		.loc 1 41 0
 189              		.cfi_startproc
 190              		@ args = 0, pretend = 0, frame = 0
 191              		@ frame_needed = 0, uses_anonymous_args = 0
 192              		@ link register save eliminated.
  42:Generated_Source\PSoC5/Control_RS_PM.c ****     Control_RS_backup.controlState = Control_RS_Control;
 193              		.loc 1 42 0
 194 0000 024B     		ldr	r3, .L2
 195 0002 1A78     		ldrb	r2, [r3]	@ zero_extendqisi2
 196 0004 024B     		ldr	r3, .L2+4
 197 0006 1A70     		strb	r2, [r3]
 198 0008 7047     		bx	lr
 199              	.L3:
 200 000a 00BF     		.align	2
 201              	.L2:
 202 000c 74650040 		.word	1073767796
 203 0010 00000000 		.word	.LANCHOR0
ARM GAS  C:\Users\Luggi\AppData\Local\Temp\cc4hyBfc.s 			page 14


 204              		.cfi_endproc
 205              	.LFE0:
 206              		.size	Control_RS_SaveConfig, .-Control_RS_SaveConfig
 207              		.section	.text.Control_RS_RestoreConfig,"ax",%progbits
 208              		.align	2
 209              		.global	Control_RS_RestoreConfig
 210              		.thumb
 211              		.thumb_func
 212              		.type	Control_RS_RestoreConfig, %function
 213              	Control_RS_RestoreConfig:
 214              	.LFB1:
  43:Generated_Source\PSoC5/Control_RS_PM.c **** }
  44:Generated_Source\PSoC5/Control_RS_PM.c **** 
  45:Generated_Source\PSoC5/Control_RS_PM.c **** 
  46:Generated_Source\PSoC5/Control_RS_PM.c **** /*******************************************************************************
  47:Generated_Source\PSoC5/Control_RS_PM.c **** * Function Name: Control_RS_RestoreConfig
  48:Generated_Source\PSoC5/Control_RS_PM.c **** ********************************************************************************
  49:Generated_Source\PSoC5/Control_RS_PM.c **** *
  50:Generated_Source\PSoC5/Control_RS_PM.c **** * Summary:
  51:Generated_Source\PSoC5/Control_RS_PM.c **** *  Restores the control register value.
  52:Generated_Source\PSoC5/Control_RS_PM.c **** *
  53:Generated_Source\PSoC5/Control_RS_PM.c **** * Parameters:
  54:Generated_Source\PSoC5/Control_RS_PM.c **** *  None
  55:Generated_Source\PSoC5/Control_RS_PM.c **** *
  56:Generated_Source\PSoC5/Control_RS_PM.c **** * Return:
  57:Generated_Source\PSoC5/Control_RS_PM.c **** *  None
  58:Generated_Source\PSoC5/Control_RS_PM.c **** *
  59:Generated_Source\PSoC5/Control_RS_PM.c **** *
  60:Generated_Source\PSoC5/Control_RS_PM.c **** *******************************************************************************/
  61:Generated_Source\PSoC5/Control_RS_PM.c **** void Control_RS_RestoreConfig(void) 
  62:Generated_Source\PSoC5/Control_RS_PM.c **** {
 215              		.loc 1 62 0
 216              		.cfi_startproc
 217              		@ args = 0, pretend = 0, frame = 0
 218              		@ frame_needed = 0, uses_anonymous_args = 0
 219              		@ link register save eliminated.
  63:Generated_Source\PSoC5/Control_RS_PM.c ****      Control_RS_Control = Control_RS_backup.controlState;
 220              		.loc 1 63 0
 221 0000 024B     		ldr	r3, .L5
 222 0002 1A78     		ldrb	r2, [r3]	@ zero_extendqisi2
 223 0004 024B     		ldr	r3, .L5+4
 224 0006 1A70     		strb	r2, [r3]
 225 0008 7047     		bx	lr
 226              	.L6:
 227 000a 00BF     		.align	2
 228              	.L5:
 229 000c 00000000 		.word	.LANCHOR0
 230 0010 74650040 		.word	1073767796
 231              		.cfi_endproc
 232              	.LFE1:
 233              		.size	Control_RS_RestoreConfig, .-Control_RS_RestoreConfig
 234              		.section	.text.Control_RS_Sleep,"ax",%progbits
 235              		.align	2
 236              		.global	Control_RS_Sleep
 237              		.thumb
 238              		.thumb_func
 239              		.type	Control_RS_Sleep, %function
ARM GAS  C:\Users\Luggi\AppData\Local\Temp\cc4hyBfc.s 			page 15


 240              	Control_RS_Sleep:
 241              	.LFB2:
  64:Generated_Source\PSoC5/Control_RS_PM.c **** }
  65:Generated_Source\PSoC5/Control_RS_PM.c **** 
  66:Generated_Source\PSoC5/Control_RS_PM.c **** 
  67:Generated_Source\PSoC5/Control_RS_PM.c **** /*******************************************************************************
  68:Generated_Source\PSoC5/Control_RS_PM.c **** * Function Name: Control_RS_Sleep
  69:Generated_Source\PSoC5/Control_RS_PM.c **** ********************************************************************************
  70:Generated_Source\PSoC5/Control_RS_PM.c **** *
  71:Generated_Source\PSoC5/Control_RS_PM.c **** * Summary:
  72:Generated_Source\PSoC5/Control_RS_PM.c **** *  Prepares the component for entering the low power mode.
  73:Generated_Source\PSoC5/Control_RS_PM.c **** *
  74:Generated_Source\PSoC5/Control_RS_PM.c **** * Parameters:
  75:Generated_Source\PSoC5/Control_RS_PM.c **** *  None
  76:Generated_Source\PSoC5/Control_RS_PM.c **** *
  77:Generated_Source\PSoC5/Control_RS_PM.c **** * Return:
  78:Generated_Source\PSoC5/Control_RS_PM.c **** *  None
  79:Generated_Source\PSoC5/Control_RS_PM.c **** *
  80:Generated_Source\PSoC5/Control_RS_PM.c **** *******************************************************************************/
  81:Generated_Source\PSoC5/Control_RS_PM.c **** void Control_RS_Sleep(void) 
  82:Generated_Source\PSoC5/Control_RS_PM.c **** {
 242              		.loc 1 82 0
 243              		.cfi_startproc
 244              		@ args = 0, pretend = 0, frame = 0
 245              		@ frame_needed = 0, uses_anonymous_args = 0
 246 0000 08B5     		push	{r3, lr}
 247              		.cfi_def_cfa_offset 8
 248              		.cfi_offset 3, -8
 249              		.cfi_offset 14, -4
  83:Generated_Source\PSoC5/Control_RS_PM.c ****     Control_RS_SaveConfig();
 250              		.loc 1 83 0
 251 0002 FFF7FEFF 		bl	Control_RS_SaveConfig
 252              	.LVL0:
 253 0006 08BD     		pop	{r3, pc}
 254              		.cfi_endproc
 255              	.LFE2:
 256              		.size	Control_RS_Sleep, .-Control_RS_Sleep
 257              		.section	.text.Control_RS_Wakeup,"ax",%progbits
 258              		.align	2
 259              		.global	Control_RS_Wakeup
 260              		.thumb
 261              		.thumb_func
 262              		.type	Control_RS_Wakeup, %function
 263              	Control_RS_Wakeup:
 264              	.LFB3:
  84:Generated_Source\PSoC5/Control_RS_PM.c **** }
  85:Generated_Source\PSoC5/Control_RS_PM.c **** 
  86:Generated_Source\PSoC5/Control_RS_PM.c **** 
  87:Generated_Source\PSoC5/Control_RS_PM.c **** /*******************************************************************************
  88:Generated_Source\PSoC5/Control_RS_PM.c **** * Function Name: Control_RS_Wakeup
  89:Generated_Source\PSoC5/Control_RS_PM.c **** ********************************************************************************
  90:Generated_Source\PSoC5/Control_RS_PM.c **** *
  91:Generated_Source\PSoC5/Control_RS_PM.c **** * Summary:
  92:Generated_Source\PSoC5/Control_RS_PM.c **** *  Restores the component after waking up from the low power mode.
  93:Generated_Source\PSoC5/Control_RS_PM.c **** *
  94:Generated_Source\PSoC5/Control_RS_PM.c **** * Parameters:
  95:Generated_Source\PSoC5/Control_RS_PM.c **** *  None
ARM GAS  C:\Users\Luggi\AppData\Local\Temp\cc4hyBfc.s 			page 16


  96:Generated_Source\PSoC5/Control_RS_PM.c **** *
  97:Generated_Source\PSoC5/Control_RS_PM.c **** * Return:
  98:Generated_Source\PSoC5/Control_RS_PM.c **** *  None
  99:Generated_Source\PSoC5/Control_RS_PM.c **** *
 100:Generated_Source\PSoC5/Control_RS_PM.c **** *******************************************************************************/
 101:Generated_Source\PSoC5/Control_RS_PM.c **** void Control_RS_Wakeup(void)  
 102:Generated_Source\PSoC5/Control_RS_PM.c **** {
 265              		.loc 1 102 0
 266              		.cfi_startproc
 267              		@ args = 0, pretend = 0, frame = 0
 268              		@ frame_needed = 0, uses_anonymous_args = 0
 269 0000 08B5     		push	{r3, lr}
 270              		.cfi_def_cfa_offset 8
 271              		.cfi_offset 3, -8
 272              		.cfi_offset 14, -4
 103:Generated_Source\PSoC5/Control_RS_PM.c ****     Control_RS_RestoreConfig();
 273              		.loc 1 103 0
 274 0002 FFF7FEFF 		bl	Control_RS_RestoreConfig
 275              	.LVL1:
 276 0006 08BD     		pop	{r3, pc}
 277              		.cfi_endproc
 278              	.LFE3:
 279              		.size	Control_RS_Wakeup, .-Control_RS_Wakeup
 280              		.bss
 281              		.align	2
 282              		.set	.LANCHOR0,. + 0
 283              		.type	Control_RS_backup, %object
 284              		.size	Control_RS_backup, 1
 285              	Control_RS_backup:
 286 0000 00       		.space	1
 287 0001 000000   		.text
 288              	.Letext0:
 289              		.file 2 "Generated_Source\\PSoC5\\cytypes.h"
 290              		.file 3 "Generated_Source\\PSoC5\\Control_RS.h"