ARM GAS  C:\Users\Luggi\AppData\Local\Temp\cc5WLnTe.s 			page 1


   1              		.syntax unified
   2              		.cpu cortex-m3
   3              		.fpu softvfp
   4              		.eabi_attribute 20, 1
   5              		.eabi_attribute 21, 1
   6              		.eabi_attribute 23, 3
   7              		.eabi_attribute 24, 1
   8              		.eabi_attribute 25, 1
   9              		.eabi_attribute 26, 1
  10              		.eabi_attribute 30, 1
  11              		.eabi_attribute 34, 1
  12              		.eabi_attribute 18, 4
  13              		.thumb
  14              		.file	"Counter_1.c"
  15              		.text
  16              	.Ltext0:
  17              		.section	.gnu.lto_.profile.d235630,"",%progbits
  18 0000 789C6366 		.ascii	"x\234cf```e\200\000F\206\231\214a\000\002\255\000\372"
  18      60606065 
  18      80004686 
  18      998C6100 
  18      02AD00FA 
  19              		.text
  20              		.section	.gnu.lto_.inline.d235630,"",%progbits
  21 0000 789C6366 		.ascii	"x\234cf\300\016\344\031!4/\003\003\0177#\003\223\320"
  21      C00EE419 
  21      21342F03 
  21      030F3723 
  21      0393D0
  22 0013 851E4606 		.ascii	"\205\036F\006\266\005\362L AF,bL\014,\314@1\246\013"
  22      B605F24C 
  22      2041462C 
  22      624C0C2C 
  22      CC4031A6 
  23 0028 FC702166 		.ascii	"\374p!fL!\026L!VL!6\006\001A\240\220\330\207\325H\346"
  23      4C21164C 
  23      21564C21 
  23      36060141 
  23      A090D887 
  24 003f 7383EC65 		.ascii	"s\203\354eg`e\001\312\260,\220\207Kp`\352\347\304\024"
  24      67606501 
  24      CAB02C90 
  24      874B7060 
  24      EAE7C414 
  25 0053 E26290B3 		.ascii	"\342b\220\263\000\012iM8\301\204f$2\311\315\300)\014"
  25      000A694D 
  25      38C18466 
  25      2432C9CD 
  25      C0290C
  26 0066 6473FC32 		.ascii	"ds\3742A\370\225\013F\360b\232\312\000\000\321D\032"
  26      41F8950B 
  26      46F0629A 
  26      CA0000D1 
  26      441A
  27 0078 3F       		.ascii	"?"
  28              		.text
  29              		.section	.gnu.lto_.jmpfuncs.d235630,"",%progbits
ARM GAS  C:\Users\Luggi\AppData\Local\Temp\cc5WLnTe.s 			page 2


  30 0000 789C6366 		.ascii	"x\234cf\300\016j\2414/\0203200122\326330\26000\260\202"
  30      C00E6AA1 
  30      342F1033 
  30      32303031 
  30      3232D633 
  31 001b 986C2082 		.ascii	"\230l \202\221\351#\023c\343\262\335=\354/\230~2\201"
  31      91E92313 
  31      63E3B2DD 
  31      3DEC2F98 
  31      7E3281
  32 002e 142E6794 		.ascii	"\024.g\224b`g`\340``\340\004)\340\002\012\201\324,\231"
  32      62606760 
  32      E06060E0 
  32      0429E002 
  32      0A81D42C 
  33 0043 3A6D0D2B 		.ascii	":m\015+X\015\007\003\343\012\240\032\260\350\365\326"
  33      580D0703 
  33      E30AA01A 
  33      B0E8F5D6 
  34 0053 CDD31841 		.ascii	"\315\323\030A\242\214\007T\031\030W\202\205\301\024"
  34      A28C0754 
  34      19185782 
  34      85C114
  35 0062 37CC6200 		.ascii	"7\314b\000U\375\027\026"
  35      55FD1716 
  36              		.text
  37              		.section	.gnu.lto_.pureconst.d235630,"",%progbits
  38 0000 789C25C1 		.ascii	"x\234%\3019\016\000 \014\004\261\205p\243\364\321\360"
  38      390E0020 
  38      0C04B185 
  38      70A3F4D1 
  38      F0
  39 0011 FF7FA6C0 		.ascii	"\377\177\246\3006IO\237\213B\305ht\006\223\305\346p"
  39      36494F9F 
  39      8B42C568 
  39      740693C5 
  39      E670
  40 0023 C34919AA 		.ascii	"\303I\031\252\001\313"
  40      01CB
  41              		.text
  42              		.section	.gnu.lto_Counter_1_Enable.d235630,"",%progbits
  43 0000 789C7D92 		.ascii	"x\234}\222\275K\303`\020\207\357.6\244\024\2558\211"
  43      BD4BC360 
  43      1087EF2E 
  43      36A414AD 
  43      3889
  44 0012 AB889BE2 		.ascii	"\253\210\233\342\340?`\007\301I\350Z\020\321\254-\024"
  44      E03F6007 
  44      C149E85A 
  44      10D1AC2D 
  44      14
  45 0023 756D8215 		.ascii	"um\202\025\321\251t\020A+J\021\265\251\237\245{\321"
  45      D1A97410 
  45      412B4A11 
  45      B5A99FA5 
  45      7BD1
  46 0035 41171551 		.ascii	"A\027\025Q\021:\304\245~\015\202VQ\"\226zoR-\264\324"
ARM GAS  C:\Users\Luggi\AppData\Local\Temp\cc5WLnTe.s 			page 3


  46      113AC4A5 
  46      7E0D8256 
  46      5122967A 
  46      6F522DB4 
  47 004a 40EECDC7 		.ascii	"@\356\315\307\375\236{\302\033\011\352\217\016>\007"
  47      FD9E7BC2 
  47      1B09EA8F 
  47      0E3E07
  48 0059 08A08B57 		.ascii	"\010\240\213W\224\000)v\006\240+\204(.\000!B\030\301"
  48      94002976 
  48      06A02B84 
  48      282E0021 
  48      4218C1
  49 006c 277A258C 		.ascii	"'z%\214\345\214EO\367\272\246i/\305\313\366\231v\213"
  49      E58C454F 
  49      F7BAA669 
  49      2FC5CBF6 
  49      99768B
  50 007f 636FE460 		.ascii	"co\344`p\003\273\201{^\243\245\033\217\034\345\236V"
  50      7003BB81 
  50      7B5EA3A5 
  50      1B8F1CE5 
  50      9E56
  51 0091 E71D6EA2 		.ascii	"\347\035n\242\214\274\356\266\345\264r9s\025?\351%\017"
  51      8CBCEEB6 
  51      E5B47239 
  51      73153FE9 
  51      250F
  52 00a3 81453C8C 		.ascii	"\201E<\214\213K\024Y\024E\024\267(\000\005N\212\361"
  52      8B4B1459 
  52      144514B7 
  52      2800054E 
  52      8AF1
  53 00b5 77446295 		.ascii	"wDb\225\362x\3701o\246\342(h\237$dN\215\023\323\373"
  53      F278F831 
  53      6FA6E228 
  53      689F2464 
  53      4E8D13D3 
  54 00ca 48165172 		.ascii	"H\026QrV\327\232\304\354\333\302\371\205b?\002q\233"
  54      56D79AC4 
  54      ECDBC2F9 
  54      85623F02 
  54      719B
  55 00dc 5EC8AEB5 		.ascii	"^\310\256\265$pI\217\242E\022na\007\246\220?\027\015"
  55      2470498F 
  55      A245126E 
  55      6107A690 
  55      3F170D
  56 00ef 4C20E471 		.ascii	"L \344q\372]vp\222C<N<\0364\2118\"`\232;y\2523\361?"
  56      FA5D7670 
  56      92433C4E 
  56      3C1E3489 
  56      3822609A 
  57 0109 D836C318 		.ascii	"\3306\303\030\001\266\342}j\271\242\350\342L\374a\256"
  57      01B6E27D 
  57      6AB9A2E8 
  57      E24CFC61 
ARM GAS  C:\Users\Luggi\AppData\Local\Temp\cc5WLnTe.s 			page 4


  57      AE
  58 011a D86CFB64 		.ascii	"\330l\373d~\025\257\277Vuo\025\263\363\207\331\255q"
  58      7E15AFBF 
  58      56756F15 
  58      B3F387D9 
  58      AD71
  59 012c 12883A89 		.ascii	"\022\210:\211\206\351=[Bv$Lc\312a(\034\331\177\336K"
  59      86E93D5B 
  59      4276244C 
  59      63CA6128 
  59      1CD97FDE 
  60 0141 A3EDA0AD 		.ascii	"\243\355\240\255T\034\262\311\243\357\346*e\377\217"
  60      541CB2C9 
  60      A3EFE62A 
  60      65FF8F
  61 0150 7250E3E0 		.ascii	"rP\343\340fD\235C\303t\306vp\203\211z\2564$\272\305"
  61      66449D43 
  61      C374C676 
  61      7083897A 
  61      AE3424BA 
  62 0165 7F51E0ED 		.ascii	"\177Q\340\355\344\035\344\035\351\034T\203jxtB\035\037"
  62      E41DE41D 
  62      E91C5483 
  62      6A787442 
  62      1D1F
  63 0177 F18726C3 		.ascii	"\361\207&\303cj`\330\037\362\365\007|\241\311\340\204"
  63      636A60D8 
  63      1FF2F507 
  63      7CA1C9E0 
  63      84
  64 0188 1A1EE9EB 		.ascii	"\032\036\351\353\031\203\037A\362\320\265"
  64      19831F41 
  64      F2D0B5
  65              		.text
  66              		.section	.gnu.lto_Counter_1_Stop.d235630,"",%progbits
  67 0000 789C7D92 		.ascii	"x\234}\222\311K\002q\024\307\337{\223\203\"jt\212\256"
  67      C94B0271 
  67      14C7DF7B 
  67      9383226A 
  67      748AAE
  68 0013 11DE8A0E 		.ascii	"\021\336\212\016\375\005\036\272E\3205\220\250\271&"
  68      FD051EBA 
  68      45D03590 
  68      A8B926
  69 0022 887675A6 		.ascii	"\210vu\246\214\226\223\032D\320B!\321\242\255\346%/"
  69      8C96931A 
  69      44D04221 
  69      D1A2ADE6 
  69      252F
  70 0034 52972E19 		.ascii	"R\227.\031A\013t\250\213m\207\240\205\262\211\266\367"
  70      410B74A8 
  70      8B6D87A0 
  70      85B289B6 
  70      F7
  71 0045 9B2903C5 		.ascii	"\233)\003\305\006\346\375fy\337\317\373\014\277\221"
  71      06E6FD66 
  71      79DFCFFB 
ARM GAS  C:\Users\Luggi\AppData\Local\Temp\cc5WLnTe.s 			page 5


  71      0CBF91
  72 0054 A0FCA8E3 		.ascii	"\240\374\250\343\323C\000\015\274\242\004H\221\034\200"
  72      D343000D 
  72      BCA20448 
  72      911C80
  73 0063 66254471 		.ascii	"f%Dq\001\010!\302\020\336\322\003a$\233\230\260\273"
  73      010821C2 
  73      10DED203 
  73      61249B98 
  73      B0BB
  74 0075 E75555BD 		.ascii	"\347UU\275\357\177\256\035\254\3259\366D&\006\027\320"
  74      EF7FAE1D 
  74      ACD539F6 
  74      44260617 
  74      D0
  75 0086 0DDCF310 		.ascii	"\015\334\363\020\3768\265\313a\356\2516\337\341\"\312"
  75      FE38B5CB 
  75      61EEA936 
  75      DFE122CA 
  76 0096 C8EB5A4D 		.ascii	"\310\353ZMV\375\372z:\032\033n\222\354\004:\3610.\026"
  76      56FDFA7A 
  76      3A1A1B6E 
  76      92EC043A 
  76      F1302E16 
  77 00aa 516451AC 		.ascii	"QdQ\254\242\330D\001\310sR\214\277$\022\253t\206;/\243"
  77      A2D84401 
  77      C873528C 
  77      BF2412AB 
  77      74863B2F 
  78 00bf 57DB7D02 		.ascii	"W\333}\002V \341\262q\267\236\304\033\322\211\324\031"
  78      5620E1B2 
  78      71B79EC4 
  78      1BD289D4 
  78      19
  79 00d0 4DAD12A3 		.ascii	"M\255\022\243/\362\007\207V\343\021\210\333t|\367\335"
  79      2FF20787 
  79      56E31188 
  79      DB747CF7 
  79      DD
  80 00e1 318D935A 		.ascii	"1\215\223Z\030u\222p\011\353p\031\371k1\201\323\010"
  80      18759270 
  80      09EB7019 
  80      F96B3181 
  80      D308
  81 00f3 6738F02A 		.ascii	"g8\360*\2338\311$F\243[3N\021\227>\0210\311\255<5\206"
  81      9B38C924 
  81      46A35B33 
  81      4E11973E 
  81      1130C9AD 
  82 010a A2E73FDA 		.ascii	"\242\347?\332\012\323\230\001\206b.c\006\012d\341\314"
  82      0AD39801 
  82      86622E63 
  82      060A64E1 
  82      CC
  83 011b 7E62EFDC 		.ascii	"~b\357\334e\010\305\207~\034\223\343\3519\347\037f\265"
  83      6508C587 
  83      7E1C93E3 
ARM GAS  C:\Users\Luggi\AppData\Local\Temp\cc5WLnTe.s 			page 6


  83      E939E71F 
  83      66B5
  84 012d 88592B91 		.ascii	"\210Y+\221\022\2102\211\212\351uCB6%N2S?\022V\316\304"
  84      12883289 
  84      8AE97543 
  84      4236254E 
  84      32533F12 
  85 0144 AE471E1D 		.ascii	"\256G\036\035\206D\352W\342\370mVs\375a6\212\230\315"
  85      8644EA57 
  85      E2F86D56 
  85      73FD6136 
  85      8A98CD
  86 0157 12091B23 		.ascii	"\022\011\033#\312$*\246S\206\204\015\316Q\313\352m\242"
  86      CA242AA6 
  86      5386840D 
  86      CE51CBEA 
  86      6DA2
  87 0169 5BFC1879 		.ascii	"[\374\030y\336O\336B\336\223\372V\245W\361w\005\224"
  87      DE4FDE42 
  87      DE93FA56 
  87      A557F177 
  87      0594
  88 017b 1E6F872F 		.ascii	"\036o\207/\350\357V:\333;|\236\226N\217/\330\033P\374"
  88      E8EF563A 
  88      DB3B7C9E 
  88      964E8F2F 
  88      D81B50FC 
  89 018f DEE6C66E 		.ascii	"\336\346\306n\370\006\215\244\321\017"
  89      F8068DA4 
  89      D10F
  90              		.text
  91              		.section	.gnu.lto_Counter_1_SetInterruptMode.d235630,"",%progbits
  92 0000 789C6366 		.ascii	"x\234cf\300\004R@\314\305\310\300`\002\244\031\231\031"
  92      C0045240 
  92      CCC5C8C0 
  92      6002A419 
  92      9919
  93 0012 1899269C 		.ascii	"\030\231&\234c`h\344`bd\0041\030\030\031\352\231\030"
  93      636068E4 
  93      60626404 
  93      31181819 
  93      EA9918
  94 0025 EB195F32 		.ascii	"\353\031_2}db\234p`\365\014n\365\245\015\015\015\037"
  94      7D64629C 
  94      7060F50C 
  94      6EF5A50D 
  94      0D0D1F
  95 0038 2EFD9668 		.ascii	".\375\226h\225\370\311\304\300\360\231\011b\014\343"
  95      95F8C9C4 
  95      C0F09909 
  95      620CE3
  96 0047 724675A0 		.ascii	"rFu\240\222\316\265\227\267\2623\25312\000\331S\366"
  96      92CEB597 
  96      B7B233AB 
  96      313200D9 
  96      53F6
  97 0059 2FE96754 		.ascii	"/\351gT]\334\320\320t\340\374\272\006\007\306\237@3"
ARM GAS  C:\Users\Luggi\AppData\Local\Temp\cc5WLnTe.s 			page 7


  97      5DDCD0D0 
  97      74E0FCBA 
  97      0607C69F 
  97      4033
  98 006b 57303203 		.ascii	"W02\003u0\352H1jJ1\000\005\030\030W2\252\202\024\177"
  98      7530EA48 
  98      316A4A31 
  98      00051818 
  98      5732AA82 
  99 0081 6CF97B9D 		.ascii	"l\371{\235\233\255\005h\266\000\304L\306U\214l@g1\254"
  99      9BAD0568 
  99      B600C44C 
  99      C6558C6C 
  99      406731AC 
 100 0095 173AD0F0 		.ascii	"\027:\320\360\377\377\346\367\223;\254\230Y\200&\200"
 100      FFFFE6F7 
 100      933BAC98 
 100      59802680 
 101 00a5 D4333C01 		.ascii	"\3243<\001\252\0009\357)\023\023\210f\276\305xh\332"
 101      AA0039EF 
 101      29131388 
 101      66BEC578 
 101      68DA
 102 00b7 C7F79BD9 		.ascii	"\307\367\233\331A\232\200\206}\371\362\366\007\373\013"
 102      419A8086 
 102      7DF9F2F6 
 102      07FB0B
 103 00c6 A69F4C4C 		.ascii	"\246\237LL\315\363\032\033X@\346\337\177r\376\"\007"
 103      CDF31A1B 
 103      5840E6DF 
 103      7F72FE22 
 103      07
 104 00d7 588801C4 		.ascii	"X\210\001\304\275y\367\354.\246\271\214\263\033[\032"
 104      BD79F7EC 
 104      2EA6B98C 
 104      B31B5B1A 
 105 00e7 0FB0FE64 		.ascii	"\017\260\376dbf\\\315(\305\270\206\021\030\030\214k"
 105      62665CCD 
 105      28C5B886 
 105      1118188C 
 105      6B
 106 00f8 19E7327E 		.ascii	"\031\3472~\007*\273\307\330x\340\242?\310D\220\377\236"
 106      072ABBC7 
 106      D878E0A2 
 106      3FC84490 
 106      FF9E
 107 010a 00DD0AB4 		.ascii	"\000\335\012\264\011\250[\331=5/\265(\261$5%>8\277\264"
 107      09A85BD9 
 107      3D352FB5 
 107      28B12435 
 107      253E38BF 
 108 011f 28393526 		.ascii	"(95& 8\337\3314\3069\2774\257$\265(\336P/\231\201/\023"
 108      2038DFD9 
 108      34C639BF 
 108      34AF24B5 
 108      28DE502F 
 109 0137 C42C2A2D 		.ascii	"\304,*-()\366M,\316\006\000ZBq\314"
ARM GAS  C:\Users\Luggi\AppData\Local\Temp\cc5WLnTe.s 			page 8


 109      2829F64D 
 109      2CCE0600 
 109      5A4271CC 
 110              		.text
 111              		.section	.gnu.lto_Counter_1_ReadStatusRegister.d235630,"",%progbits
 112 0000 789C6366 		.ascii	"x\234cf\300\004R@|\035\210U\201\230\221\231\201\221"
 112      C0045240 
 112      7C1D8855 
 112      81989199 
 112      8191
 113 0012 69C23906 		.ascii	"i\3029\006\206F\016&FF\020\203\201\221\241\236\211\261"
 113      86460E26 
 113      46461083 
 113      8191A19E 
 113      89B1
 114 0024 9EF125D3 		.ascii	"\236\361%\323G&\3063;\377]fT_\332\320\320\364\341\322"
 114      4726C633 
 114      3BFF5D66 
 114      545FDAD0 
 114      D0F4E1D2 
 115 0038 C4D4E953 		.ascii	"\304\324\351S\022~210|fb`\324\221b\324\004\231\303\270"
 115      127E3231 
 115      307C6662 
 115      60D49162 
 115      D40499C3 
 116 004d 9C519D01 		.ascii	"\234Q\235\001\250\360c\313\337\353\334l-\015\015\015"
 116      A8F063CB 
 116      DFEBDC6C 
 116      2D0D0D0D 
 117 005d 022079A0 		.ascii	"\002 y\240\304\012F6F \275^\350@\303\377\377\233\217"
 117      C40A4636 
 117      4620BD5E 
 117      E840C3FF 
 117      FF9B8F
 118 0070 4FE95063 		.ascii	"O\351Pcafb\000\351gx\002$@V=eb\002\321\314\267\030\017"
 118      61666200 
 118      E9677802 
 118      2440563D 
 118      656202D1 
 119 0088 7DEBFA77 		.ascii	"}\353\372w\202\013\244\347;\023\310\336/_\336\376`\177"
 119      820BA4E7 
 119      3B13C8DE 
 119      2F5FDEFE 
 119      607F
 120 009a C1F49389 		.ascii	"\301\364\223\211\261y^c\003\013\310\206\373O\316_\344"
 120      B1795E63 
 120      030BC886 
 120      FB4FCE5F 
 120      E4
 121 00ab 000B3180 		.ascii	"\000\0131\200\2707\357\236\335\3054\227qvcK\343\001"
 121      B837EF9E 
 121      DDC53497 
 121      7176634B 
 121      E301
 122 00bd 999F4C4C 		.ascii	"\231\237LL\214+\031\245\030W1\002\335\304\270\232q."
 122      8C2B19A5 
 122      18573102 
ARM GAS  C:\Users\Luggi\AppData\Local\Temp\cc5WLnTe.s 			page 9


 122      DDC4B89A 
 122      712E
 123 00cf 23C33DC6 		.ascii	"#\303=\306\306\006n\250\201`+\031AV\001\231\312\356"
 123      C6066EA8 
 123      81602B19 
 123      41560199 
 123      CAEE
 124 00e1 A979A945 		.ascii	"\251y\251E\211%\251)\361\301\371\245E\311\2511\001\301"
 124      8925A929 
 124      F1C1F9A5 
 124      45C9A931 
 124      01C1
 125 00f3 F9CEA631 		.ascii	"\371\316\2461\316\371\245y%\251E\361\206z\311\014\000"
 125      CEF9A579 
 125      25A945F1 
 125      867AC90C 
 125      00
 126 0104 5CF25CC8 		.ascii	"\\\362\\\310"
 127              		.text
 128              		.section	.gnu.lto_Counter_1_ReadControlRegister.d235630,"",%progbits
 129 0000 789C6366 		.ascii	"x\234cf\300\004R@|\035\210U\201\230\221\231\201\221"
 129      C0045240 
 129      7C1D8855 
 129      81989199 
 129      8191
 130 0012 69C23906 		.ascii	"i\3029\006\206F\016&FF\020\203\201\221\241\236\211\261"
 130      86460E26 
 130      46461083 
 130      8191A19E 
 130      89B1
 131 0024 9EF125D3 		.ascii	"\236\361%\323G&\3063;\377]fT_\332\320\320\364a\323\364"
 131      4726C633 
 131      3BFF5D66 
 131      545FDAD0 
 131      D0F461D3 
 132 0039 D4E95312 		.ascii	"\324\351S\022~210|fb`\324\221b\324\004\231\303\270\234"
 132      7E323130 
 132      7C666260 
 132      D49162D4 
 132      0499C3B8 
 133 004e 519D01A8 		.ascii	"Q\235\001\250\360c\313\337\353\334l-\015\015\015\002"
 133      F063CBDF 
 133      EBDC6C2D 
 133      0D0D0D02 
 134 005e 2079A0C4 		.ascii	" y\240\304\012F6F \275^\350@\303\377\377\233\357M9\241"
 134      0A463646 
 134      20BD5EE8 
 134      40C3FFFF 
 134      9BEF4D39 
 135 0073 CFC2CCC4 		.ascii	"\317\302\314\304\000\322\317\360\004H\200\254z\312\304"
 135      00D2CFF0 
 135      044880AC 
 135      7ACAC4
 136 0082 04A2996F 		.ascii	"\004\242\231o1\036\372\326\365\3564\027H\317w&\220\275"
 136      311EFAD6 
 136      F5EE3417 
 136      48CF7726 
ARM GAS  C:\Users\Luggi\AppData\Local\Temp\cc5WLnTe.s 			page 10


 136      90BD
 137 0094 1BDF6E58 		.ascii	"\033\337nX\303\370\202\351'\023c\303\274\306\006\026"
 137      C3F882E9 
 137      271363C3 
 137      BCC60616 
 138 00a4 900DF79F 		.ascii	"\220\015\367\237\234\277\310\001\026b\000q\267.>\374"
 138      9CBFC801 
 138      16620071 
 138      B72E3EFC 
 139 00b4 87772EE3 		.ascii	"\207w.\343\354\306\226\306\0032?\231\230\030W2J1\256"
 139      ECC696C6 
 139      03323F99 
 139      98185732 
 139      4A31AE
 140 00c7 6204BA89 		.ascii	"b\004\272\211q5\343\\F\206{\214\215\015\334P\003\301"
 140      7135E35C 
 140      46867B8C 
 140      8D0DDC50 
 140      03C1
 141 00d9 563282AC 		.ascii	"V2\202\254\0022\225\335S\363R\213\022KRS\342\203\363"
 141      023295DD 
 141      53F3528B 
 141      124B5253 
 141      E283F3
 142 00ec 4B8B9253 		.ascii	"K\213\222Sc\002\202\363\235Mc\234\363K\363JR\213\342"
 142      630282F3 
 142      9D4D639C 
 142      F34BF34A 
 142      528BE2
 143 00ff 0DF59219 		.ascii	"\015\365\222\031\000\010~\\\012"
 143      00087E5C 
 143      0A
 144              		.text
 145              		.section	.gnu.lto_Counter_1_WriteControlRegister.d235630,"",%progbits
 146 0000 789C6590 		.ascii	"x\234e\220\277KBQ\024\307\317\367<5K\202h|k\230\004"
 146      BF4B4251 
 146      14C7CFF7 
 146      3C354B82 
 146      687C6B98 
 147 0015 1534B434 		.ascii	"\0254\2644\005\016\255\201\253`ao\013\037<t\366>\361"
 147      050EAD81 
 147      AB60616F 
 147      0B1F3C74 
 147      F63EF1
 148 0028 0F909008 		.ascii	"\017\220\220\010\302\026\351\247\366C\242\375Q\321X"
 148      C216E9A7 
 148      F643A2FD 
 148      51D158
 149 0037 34090DB6 		.ascii	"4\011\015\266\030\330\020$\032\361\242\260ss\354\302"
 149      18D81024 
 149      1AF1A2B0 
 149      7373ECC2 
 150 0047 E59C7BF8 		.ascii	"\345\234{\370~?\367{\257A\377\227){\014DsRa\020\270"
 150      7E3FF77B 
 150      AF41FF97 
 150      297B0C44 
 150      73526110 
ARM GAS  C:\Users\Luggi\AppData\Local\Temp\cc5WLnTe.s 			page 11


 151 005c 744FE486 		.ascii	"tO\344\206\031\320\015\201\362\214<^\271\313(y\265\235"
 151      19D00D81 
 151      F28C3C5E 
 151      B9CB2879 
 151      B59D
 152 006e 486C5F29 		.ascii	"Hl_)\365^\250X\252\274\3463Q\217\207\034\034\"&\232"
 152      F55EA858 
 152      AABCE633 
 152      518F871C 
 152      1C22269A 
 153 0082 83DB3BD3 		.ascii	"\203\333;\323\230\006I\373u\271U\033\215V\225*x\255"
 153      980649FB 
 153      75B9551B 
 153      8D56952A 
 153      78AD
 154 0094 33B50C5F 		.ascii	"3\265\014_\230G0\304\200Y\0233&\311\200p\214\250\026"
 154      984730C4 
 154      80591333 
 154      26C98070 
 154      8CA816
 155 00a7 778B3FCD 		.ascii	"w\213?\315H\250(\354\211!\022'\010I,:\237\364\324`\320"
 155      48A828EC 
 155      89211227 
 155      08492C3A 
 155      9FF4D460 
 156 00bc EB973B4B 		.ascii	"\353\227;K\201\200\020\264\236\332\242\320\361^\230"
 156      818010B4 
 156      9EDAA2D0 
 156      F15E98
 157 00cb 75359E70 		.ascii	"u5\236p\275\335\370\350\007\265I`\215\267\213::\354"
 157      BDDDF8E8 
 157      07B54960 
 157      8DB78B3A 
 157      3AEC
 158 00dd 33AB3D57 		.ascii	"3\253=W\0054\377\271\375\360\030\376\033\221>^Uo\276"
 158      0534FFB9 
 158      FDF018FE 
 158      1B913E5E 
 158      556FBE
 159 00f0 C72BD875 		.ascii	"\307+\330u\213\256\027\364\331@\015&\352\220\317\300"
 159      8BAE17F4 
 159      D9400D26 
 159      EA90CFC0 
 160 0100 292AF814 		.ascii	")*\370\024Y\013\256\327Lh\242~^[\262\312M\342\236Z\261"
 160      590BAED7 
 160      4C68A27E 
 160      5E5BB2CA 
 160      4DE29E5A 
 161 0115 3296B39E 		.ascii	"2\226\263\236\2656R\011;\347\244\255\344j\302\216/&"
 161      B5365209 
 161      3BE7A4AD 
 161      E46AC28E 
 161      2F26
 162 0127 E3762E93 		.ascii	"\343v.\223\265\234\324\302|\232F\322v&\353\330\233\277"
 162      B59CD4C2 
 162      7C9A46D2 
 162      7626EBD8 
ARM GAS  C:\Users\Luggi\AppData\Local\Temp\cc5WLnTe.s 			page 12


 162      9BBF
 163 0139 B11A6F08 		.ascii	"\261\032o\010"
 164              		.text
 165              		.section	.gnu.lto_Counter_1_WriteCounter.d235630,"",%progbits
 166 0000 789C8D52 		.ascii	"x\234\215R_H\223Q\024?\347\336\373}\333\334\230\322"
 166      5F489351 
 166      143FE7DE 
 166      FB7DDBDC 
 166      98D2
 167 0012 53F9E04B 		.ascii	"S\371\340K\230\020TT\364.\370\320k \364$H\254\275:\030"
 167      98105454 
 167      F42EF8D0 
 167      6B20F424 
 167      48ACBD3A 
 168 0027 F351BCCB 		.ascii	"\363Q\274\313\365\207\210p\201\022\305\006!\375s\246"
 168      F5878870 
 168      8112C506 
 168      21FD73A6 
 169 0037 4E67B505 		.ascii	"Ng\265\005\261z\261\310\224\210\032\223X \012\013\""
 169      B17AB1C8 
 169      94881A93 
 169      58200A0B 
 169      22
 170 0048 9249FA11 		.ascii	"\222I\372\021j\347\334o\025\030\214>\370\356\275\347"
 170      6AE7DC6F 
 170      15188C3E 
 170      F8EEBDE7 
 171 0058 DCDFF99D 		.ascii	"\334\337\371\235\337\371q%\374\373\235\244?(\001\216"
 171      DFF97125 
 171      FCFB9DA4 
 171      3F28018E 
 172 0068 D08E16A0 		.ascii	"\320\216\026\240\030^\004\210{\205\220\2056\320M\352"
 172      185E0488 
 172      7B859085 
 172      36D04DEA 
 173 0078 E331D001 		.ascii	"\3431\320\001\211\312M+D>\000\302\240\220\012\007\361"
 173      89CA4D2B 
 173      443E00C2 
 173      A0900A07 
 173      F1
 174 0089 8B581738 		.ascii	"\213X\0278\\\314\334\364w\334\325Z\177_\311\036\270"
 174      5CCCDCF4 
 174      77DCD55A 
 174      7F5FC91E 
 174      B8
 175 009a B8DF1100 		.ascii	"\270\337\021\0005\341\362\343}\354 \310\342\353\241"
 175      35E1F2E3 
 175      7DEC20C8 
 175      E2EBA1
 176 00a9 983C8440 		.ascii	"\230<\204@\3077+[\265@U8\002[8\274UZ\333\220\034\012"
 176      C7372B5B 
 176      B5405538 
 176      025B38BC 
 176      555ADB90 
 177 00bf C161BEF4 		.ascii	"\301a\276\364<\335\334>\246\365\205\342\302\264\356"
 177      3CDDDC3E 
 177      A6F585E2 
ARM GAS  C:\Users\Luggi\AppData\Local\Temp\cc5WLnTe.s 			page 13


 177      C2B4EE
 178 00ce A4BCC407 		.ascii	"\244\274\304\007(\211\016\037b+\216c+P\0120\203\355"
 178      28890E1F 
 178      622B8E63 
 178      2B500A30 
 178      83ED
 179 00e0 0C5F4F6C 		.ascii	"\014_Ol\227\374v\202Z\267\270-q\002m\244}j_Q\357\356"
 179      97FC7682 
 179      5AB7B82D 
 179      71026DA4 
 179      7D6A5F51 
 180 00f6 CE2E8C54 		.ascii	"\316.\214T\017[4\237#\224\305\213\315\213\207\027\037"
 180      0F5B349F 
 180      2394C58B 
 180      CD8B8717 
 180      1F
 181 0107 32879F8F 		.ascii	"2\207\237\217\001^\000V\251\236\247[#%\264\313e|\371"
 181      015E0056 
 181      A99EA75B 
 181      2325B4CB 
 181      657CF9
 182 011a E36AA57C 		.ascii	"\343j\245|\202)7\205\244no3\257*\315\254\325\032\273"
 182      82293785 
 182      A46E6F33 
 182      AF2ACDAC 
 182      D51ABB
 183 012d 1CD78A05 		.ascii	"\034\327\212\005|^]z\3475)\340pbt\356N0\205\267\343"
 183      7C5E5D7A 
 183      E73529E0 
 183      706274EE 
 183      4E3085B7 
 184 0142 0974848D 		.ascii	"\011t\204\215\217H\362$I\006\234\302\024\3022\016m\331"
 184      8F48F224 
 184      49069CC2 
 184      14C2320E 
 184      6DD9
 185 0154 2E9DE532 		.ascii	".\235\3452\316\247\2523\212\313\025\002N\023\362\003"
 185      CEA7AA33 
 185      8ACB1502 
 185      4E13F203 
 186 0164 26CAB20E 		.ascii	"&\312\262\016\241\373\370\275g\327<\346\2368\262\314"
 186      A1FBF8BD 
 186      67D73CE6 
 186      9E38B2CC 
 187 0174 042C5042 		.ascii	"\004,PB\241M~B\305@n\233~\177}R\014\374\324W\264\327"
 187      A14D7E42 
 187      C5406E9B 
 187      7E7F7D52 
 187      0CFCD457 
 188 018a 119E9A20 		.ascii	"\021\236\232 \007p\006\007L\211#\274\246F\375\035\352"
 188      07700607 
 188      4C8923BC 
 188      A646FD1D 
 188      EA
 189 019b 5BF906BA 		.ascii	"[\371\006\272=\354F\232g\353\2327\352\232=\2047\"\211"
 189      3DEC469A 
 189      67EB9A37 
ARM GAS  C:\Users\Luggi\AppData\Local\Temp\cc5WLnTe.s 			page 14


 189      EA9A3D84 
 189      372289
 190 01ae C4256854 		.ascii	"\304%hT\235\243j\252a\360hviD\326\361\363\271d\336x"
 190      9DA36AAA 
 190      61F06876 
 190      6944D6F1 
 190      F3B964DE 
 191 01c3 E8BB94DE 		.ascii	"\350\273\224\336\353\241\317x8\276\371\342\253\372\315"
 191      EBA1CF78 
 191      38BEF9E2 
 191      ABFACD
 192 01d2 D88473C4 		.ascii	"\330\204s\304\370\3300>1\214>03\354\374\231\301\337"
 192      F8D8303E 
 192      318C3E30 
 192      33ECFC99 
 192      C1DF
 193 01e4 48C5D33D 		.ascii	"H\305\323=\276\007\\|2\231K\007\271\245\275C\306\347"
 193      BE075C7C 
 193      32994B07 
 193      B9A5BD43 
 193      C6E7
 194 01f6 FF77A682 		.ascii	"\377w\246\202Q\020\200\012\306\213\245\263\306}\340"
 194      5110800A 
 194      C68BA5B3 
 194      C67DE0
 195 0205 8783EC2D 		.ascii	"\207\203\354-=\237\203\247\303}\341\350\271X\370|ow"
 195      3D9F83A7 
 195      C37DE1E8 
 195      B958F87C 
 195      6F77
 196 0217 A43F1A0A 		.ascii	"\244?\032\012\367\234\351\216t\235\352\351\212\364\367"
 196      F79CE98E 
 196      749DEAE9 
 196      8AF4F7
 197 0226 C5C2D1DE 		.ascii	"\305\302\321\336\343GC\340\011\271\301/\264\210\033"
 197      E34743E0 
 197      09B9C12F 
 197      B4881B
 198 0235 24       		.ascii	"$"
 199              		.text
 200              		.section	.gnu.lto_Counter_1_ReadCounter.d235630,"",%progbits
 201 0000 789C658E 		.ascii	"x\234e\216=HBQ\024\307\3179\367\3712\012\222F\327\010"
 201      3D484251 
 201      14C7CF39 
 201      F7F9320A 
 201      9246D708 
 202 0014 69092A9A 		.ascii	"i\011*\232Z\002\207\326\300U\020\261\267\372\340\241"
 202      5A0287D6 
 202      C05510B1 
 202      B7FAE0A1 
 203 0024 B3F78544 		.ascii	"\263\367\205D4\025\025Da\264De\037\006\265H\213\266"
 203      34151544 
 203      61B44465 
 203      1F06B548 
 203      8BB6
 204 0036 1404460D 		.ascii	"\024\004F\015\011BF\242T\340\220\030\231C\330=\257\217"
 204      094246A2 
ARM GAS  C:\Users\Luggi\AppData\Local\Temp\cc5WLnTe.s 			page 15


 204      54E09018 
 204      9943D83D 
 204      AF8F
 205 0048 A50B9773 		.ascii	"\245\013\227s\377\367\236\373;?\001\377\227W\355I\004"
 205      FFF79EFB 
 205      3B3F01FF 
 205      9757ED49 
 205      04
 206 0059 18541505 		.ascii	"\030T\025\005 -\026\000l7!\362\001\020\022\204\011|"
 206      202D1600 
 206      6C3721F2 
 206      01101284 
 206      097C
 207 006b A106E155 		.ascii	"\241\006\341U\345\243\331\373Lm\002\017\250\270^\254"
 207      E5A3D9FB 
 207      4C6D020F 
 207      A8B85EAC 
 208 007b BD098E48 		.ascii	"\275\011\216H\034\317\232\205\212\356\333\226r\366\365"
 208      1CCF9A85 
 208      8AEEDB96 
 208      72F6F5
 209 008a 361B5E5B 		.ascii	"6\033^[\331\3026\0214\011p\007\275\270\213<\010\367"
 209      D9C23611 
 209      34097007 
 209      BDB88B3C 
 209      08F7
 210 009c D0C7BD8D 		.ascii	"\320\307\275\215\344g\261GOJ)=\334\241\036\322\250+"
 210      E467B147 
 210      4F4A293D 
 210      DCA11ED2 
 210      A82B
 211 00ae 09C8F4E7 		.ascii	"\011\310\364\347d\247s\362\264z9\341\322\010\332$\004"
 211      64A773F2 
 211      B47A39E1 
 211      D208DA24 
 211      04
 212 00bf 3006AA6A 		.ascii	"0\006\252j\263PM\005UE\011\317\337\027\312\367:\177"
 212      B3504D05 
 212      554509CF 
 212      DF17CAF7 
 212      3A7F
 213 00d1 6C11DB5D 		.ascii	"l\021\333]\234.e\373XG\233\333\264\245\306c\036\252"
 213      9C2E65FB 
 213      58479BDB 
 213      B4A5C663 
 213      1EAA
 214 00e3 D7376EE7 		.ascii	"\3277n\347\0128\246[\371\272\226\302\015;\251\324\\"
 214      0A38A65B 
 214      F9BA96C2 
 214      0D3BA9D4 
 214      5C
 215 00f4 B8AFB40E 		.ascii	"\270\257\264\016X\013\0171\205\340\020\357\312\243\337"
 215      580B0F31 
 215      85E010EF 
 215      CAA3DF
 216 0103 44A1FAB3 		.ascii	"D\241\372\263\205\374c\227\363}\376\227X_.\035w;\010"
 216      85FC6397 
ARM GAS  C:\Users\Luggi\AppData\Local\Temp\cc5WLnTe.s 			page 16


 216      F37DFE97 
 216      585F2E1D 
 216      773B08
 217 0116 3B37C490 		.ascii	";7\304\220\243?H\206!e\264\345\330\017\001\330\032\331"
 217      A33F4886 
 217      2165B4E5 
 217      D80F01D8 
 217      1AD9
 218 0128 56B90F4C 		.ascii	"V\271\017L\031Q\303\012\307\214\231P\300\214[\021#8"
 218      1951C30A 
 218      C78C9950 
 218      C08C5B11 
 218      2338
 219 013a 1D30FDE3 		.ascii	"\0350\375\343A\277\031\217\306\014+42\034\201/\250?"
 219      41BF198F 
 219      C60C2B34 
 219      321C812F 
 219      A83F
 220 014c 8437     		.ascii	"\2047"
 221              		.text
 222              		.section	.gnu.lto_Counter_1_ReadCapture.d235630,"",%progbits
 223 0000 789C6366 		.ascii	"x\234cf\300\004R@\374\003\210U\201\230\221\231\201\221"
 223      C0045240 
 223      FC038855 
 223      81989199 
 223      8191
 224 0012 69C23906 		.ascii	"i\3029\006\206F\016&FF\020\203\201\221\241\236\211\261"
 224      86460E26 
 224      46461083 
 224      8191A19E 
 224      89B1
 225 0024 9EF125D3 		.ascii	"\236\361%\323G&\306\323\217~|\346y\301\364\223\211A"
 225      4726C6D3 
 225      8F7E7CE6 
 225      79C1F493 
 225      8941
 226 0036 8001C89D 		.ascii	"\200\001\310\235u\375\351\027f\020\227\221\011\304\335"
 226      75FDE917 
 226      66109791 
 226      09C4DD
 227 0045 FDF9DC23 		.ascii	"\375\371\334#6\365\245\015\015M\037\036]L\2341e\001"
 227      36F5A50D 
 227      0D4D1F1E 
 227      5D4C9C31 
 227      6501
 228 0057 E34F2626 		.ascii	"\343O&&\206\317L\014\214\313\031\245\030W0\202,b\\\311"
 228      86CF4C0C 
 228      8CCB19A5 
 228      18573082 
 228      2C625CC9 
 229 006b A80E52FB 		.ascii	"\250\016R\373\261\345\357un\266\226\206\206\006\001"
 229      B1E5EF75 
 229      6EB69686 
 229      860601
 230 007a 900AA0C4 		.ascii	"\220\012\240\304*F6F \275^\350@\303\377\377\237\217"
 230      2A463646 
 230      20BD5EE8 
ARM GAS  C:\Users\Luggi\AppData\Local\Temp\cc5WLnTe.s 			page 17


 230      40C3FFFF 
 230      9F8F
 231 008c 4F5BA1CE 		.ascii	"O[\241\316\306\314\304\0002\201\341\011\020\203\334"
 231      C6CCC400 
 231      3281E109 
 231      1083DC
 232 009b F214C801 		.ascii	"\362\024\310\001\322\314\267\030\017}\353:\367\322\010"
 232      D2CCB718 
 232      0F7DEB3A 
 232      F7D208
 233 00aa A4E73B13 		.ascii	"\244\347;\023\310a;\317\035|\310\016r\011s\307\274\306"
 233      C8613BCF 
 233      1D7CC80E 
 233      720973C7 
 233      BCC6
 234 00bc 0616900D 		.ascii	"\006\026\220\015\367\237\234\277\310\001\026b\000q\337"
 234      F79F9CBF 
 234      C8011662 
 234      0071DF
 235 00cb 4CBEB581 		.ascii	"L\276\265\201s.\343\354\306\226\306\003\232?\231X\030"
 235      732EE3EC 
 235      C696C603 
 235      9A3F9958 
 235      18
 236 00dc 5703DDB4 		.ascii	"W\003\335\264\006\344&\306\265\214s\031\031\356166\030"
 236      06E426C6 
 236      B58C7319 
 236      19EE3136 
 236      3618
 237 00ee 430D6400 		.ascii	"C\015d\000Y\311\010\262\012\310TvO\315K-J,IM\211\017"
 237      59C908B2 
 237      0AC85476 
 237      4FCD4B2D 
 237      4A2C494D 
 238 0104 CE2F2D4A 		.ascii	"\316/-JN\215\011\010\316w6\215q\316/\315+I-\2127\324"
 238      4E8D0908 
 238      CE77368D 
 238      71CE2FCD 
 238      2B492D8A 
 239 011a 4B660000 		.ascii	"Kf\000\000`\363k5"
 239      60F36B35 
 240              		.text
 241              		.section	.gnu.lto_Counter_1_WritePeriod.d235630,"",%progbits
 242 0000 789C654F 		.ascii	"x\234eO;H\003A\024|\263\027\317@,\202\225\246\225\030"
 242      3B480341 
 242      147CB317 
 242      CF402C82 
 242      95A69518 
 243 0014 0B1144EC 		.ascii	"\013\021D\354\205\024\266\202\245\201 \311\025699\222"
 243      8514B682 
 243      A58120C9 
 243      15363939 
 243      92
 244 0025 3A7B72F6 		.ascii	":{r\366\261\011\242D\004\021?Q\243\\guX\011\001%\210"
 244      B109A244 
 244      04113F51 
 244      A35C6775 
ARM GAS  C:\Users\Luggi\AppData\Local\Temp\cc5WLnTe.s 			page 18


 244      58090125 
 245 003a 041414E4 		.ascii	"\004\024\024\344\002j\345\031A\003J|kJ\027\226\367f"
 245      026AE519 
 245      41034A7C 
 245      6B4A1796 
 245      F766
 246 004c 989D99D5 		.ascii	"\230\235\231\325\350\377\211\361\035\003\3218Oh\004"
 246      E8FF89F1 
 246      1D03D138 
 246      4F6804
 247 005b 51BA22B2 		.ascii	"Q\272\"\262\303\002P\013\201\212\002E\274\210@\240\344"
 247      C302500B 
 247      818A0245 
 247      BC8840A0 
 247      E4
 248 006c 55D72389 		.ascii	"U\327#\211])\345\333{sxu\250#\210\332\242g\203=$X\322"
 248      5D29E5DB 
 248      7B737875 
 248      A82388DA 
 248      A267833D 
 249 0083 758346BF 		.ascii	"u\203F\2776\012\342\275\376\364\325\036x\026\035\201"
 249      360AE2BD 
 249      FEF4D51E 
 249      78161D81 
 250 0093 A8821BCD 		.ascii	"\250\202\033\315\326\207\246\240\020\012\336\276\336"
 250      D687A6A0 
 250      100ADEBE 
 250      DE
 251 00a0 6F87E33B 		.ascii	"o\207\343;R\256x\365S9\303\274\206}h\354\207\003\304"
 251      52AE78F5 
 251      5339C3BC 
 251      867D68EC 
 251      8703C4
 252 00b3 70881831 		.ascii	"p\210\0301E\250\"\256\344\201\363\323\214\350\016gG"
 252      45A822AE 
 252      E481F3D3 
 252      8CE80E67 
 252      47
 253 00c4 7B993882 		.ascii	"{\2318\202\316\265\2516\350\311n\327\365\313\227Sz\210"
 253      CEB5A936 
 253      E8C96ED7 
 253      F5CB9753 
 253      7A88
 254 00d6 5B2B3DF9 		.ascii	"[+=\371\254P\365[\234\305S\273\303E\371\254U\326\324"
 254      AC50F55B 
 254      9CC553BB 
 254      C345F9AC 
 254      55D6D4
 255 00e9 2336736F 		.ascii	"#6so\002W\250*!g\313\226!\345\377\350_7\302\177\024"
 255      0257A82A 
 255      2167CB96 
 255      21E5FFE8 
 255      5F37C27F 
 256 00fe 2978FEDD 		.ascii	")x\376\335X\213T\260i;\350\210>\034s\243\023nD\250\241"
 256      588B54B0 
 256      693BE888 
 256      3E1C73A3 
ARM GAS  C:\Users\Luggi\AppData\Local\Temp\cc5WLnTe.s 			page 19


 256      136E44A8 
 257 0113 824F767D 		.ascii	"\202Ov}\200\355U\026\224\237\372\275/\240r8ud\326\310"
 257      80ED5516 
 257      949FFABD 
 257      2FA07238 
 257      7564D6C8 
 258 0127 19D662DE 		.ascii	"\031\326b\336\310\246\347\315\202\2251Rs\363fr:\225"
 258      C8A6E7CD 
 258      82953152 
 258      73F36672 
 258      3A95
 259 0139 340BB9BC 		.ascii	"4\013\271\274a\245''2\244/\033\326\222\231\375\005w"
 259      61A52727 
 259      32A42F1B 
 259      D69299FD 
 259      0577
 260 014b FD7B49   		.ascii	"\375{I"
 261              		.text
 262              		.section	.gnu.lto_Counter_1_Init.d235630,"",%progbits
 263 0000 789C8D94 		.ascii	"x\234\215\224\337K\223Q\030\307\237\347\274\356W[.\207"
 263      DF4B9351 
 263      18C79FE7 
 263      BCEE575B 
 263      2E87
 264 0012 42ED36C4 		.ascii	"B\3556\304\273\250\213\376\002\011o\005o\005\011\333"
 264      BBA88BFE 
 264      02096F05 
 264      6F0509DB 
 265 0022 ADC2D0EE 		.ascii	"\255\302\320\356\304w:)\012B\202\304\214\011\221f\265"
 265      C4773A29 
 265      0A4282C4 
 265      8C099166 
 265      B5
 266 0033 E5AFA9FD 		.ascii	"\345\257\251\375\326\327\251\215\274P\374\221\212TF"
 266      D6D7A98D 
 266      BC50FC91 
 266      8A5446
 267 0042 19D84531 		.ascii	"\031\330E1]hC\303\236\347\234M\343\215\215\015\366="
 267      5D6843C3 
 267      9EE79C4D 
 267      E38D8D0D 
 267      F63D
 268 0054 EFF63ECF 		.ascii	"\357\366>\317\367\3739\347=\357\321\340\377\217\227"
 268      F7FB39E7 
 268      3DEFD1E0 
 268      FF8F97
 269 0063 BE972C00 		.ascii	"\276\227,\000\2454\242\006(\332\347\000\002v\201\310"
 269      A534A206 
 269      28DAE700 
 269      027681C8 
 270 0073 1780D02C 		.ascii	"\027\200\320,\260\031\277\213m\201\355F\270\323Y\326"
 270      B019BF8B 
 270      6D81ED46 
 270      B8D359D6 
 271 0083 ABEB7A62 		.ascii	"\253\353zb\361]\240\322\300\224\000H\012\345\203}X\006"
 271      F15DA0D2 
 271      C0940048 
ARM GAS  C:\Users\Luggi\AppData\Local\Temp\cc5WLnTe.s 			page 20


 271      0AE5837D 
 271      5806
 272 0095 54B41DFC 		.ascii	"T\264\035\374\263\352\264\006\251\350\224\272\207\217"
 272      B3EAB406 
 272      A9E894BA 
 272      878F
 273 00a3 D08A340E 		.ascii	"\320\2124\016x\014\375\3600\3327\271k\363\012H\011\012"
 273      780CFDF0 
 273      30DA37B9 
 273      6BF30A48 
 273      090A
 274 00b5 23B1B058 		.ascii	"#\261\260XY\354,\016\026'\213\213\245\220\305\315R\304"
 274      59EC2C0E 
 274      16278B8B 
 274      A590C5CD 
 274      52C4
 275 00c7 E2612966 		.ascii	"\342a)f)a\001\330\244\000\306\374&\004\217\332:\306"
 275      296101D8 
 275      A400C6FC 
 275      26048FDA 
 275      3AC6
 276 00d9 766FACEC 		.ascii	"vo\254\354\3328sO0\363\320\217\301\010n\211\224\020"
 276      DA38734F 
 276      30F3D08F 
 276      C1086E89 
 276      9410
 277 00eb 7A77402F 		.ascii	"zw@/`\302\215\315\371\005\273\374\013\370\347\350\203"
 277      60C28DCD 
 277      F905BBFC 
 277      0BF8E7E8 
 277      83
 278 00fc A9839321 		.ascii	"\251\203\223!\274\027\010\322|4|\214^|\202\264*\030"
 278      BC1708D2 
 278      7C347C8C 
 278      5E7C82B4 
 278      2A18
 279 010e C610C23A 		.ascii	"\306\020\302:\266\376\266*;M9.t=lus\273\206\200\021"
 279      B6FEB62A 
 279      3B4D392E 
 279      743D6C75 
 279      73BB8680 
 280 0123 AAA4D0DB 		.ascii	"\252\244\320\333\310%\271\314\236\222\031Y\200$\234"
 280      C825B9CC 
 280      9E921959 
 280      80249C
 281 0132 8B3B94A5 		.ascii	"\213;\224\245\205Z\346{\227\2475\211\323\222!\354Y\036"
 281      855AE67B 
 281      97A73589 
 281      D39221EC 
 281      591E
 282 0144 B9A61DBB 		.ascii	"\271\246\035\273\364\037\271\014\230\220\322\0263\343"
 282      F41FB90C 
 282      9890D216 
 282      33E3
 283 0152 135F4E48 		.ascii	"\023_NH\244\003b\03241eu\033\222LV\305\264\322\331\216"
 283      A403621A 
 283      34316575 
ARM GAS  C:\Users\Luggi\AppData\Local\Temp\cc5WLnTe.s 			page 21


 283      1B924C56 
 283      C5B4D2D9 
 284 0167 CAD44E3D 		.ascii	"\312\324N=\211\367\243\037m\022*\220\201J,\207\333\360"
 284      89F7A31F 
 284      6D122A90 
 284      814A2C87 
 284      DBF0
 285 0179 D866F8C8 		.ascii	"\330f\370\310&\232\206\372\225\206r(\213xhk\270\200"
 285      269A86FA 
 285      95867228 
 285      8B78686B 
 285      B880
 286 018b 2D909846 		.ascii	"-\220\230FLLY\315F%\223C1\375\354\274\252,\235\324\262"
 286      4C4C59CD 
 286      46259343 
 286      31FDECBC 
 286      AA2C9DD4 
 287 01a0 FF752E6C 		.ascii	"\377u.l\221H73H\203\367\227\326\254\307.cG.\317L\353"
 287      91483733 
 287      4883F797 
 287      D6ACC72E 
 287      63472ECF 
 288 01b6 E45216A1 		.ascii	"\344R\026\241\344\230|\360\332<!=7!e5{!\221\\\012i\347"
 288      E4987CF0 
 288      DA3C213D 
 288      37216535 
 288      7B21915C 
 289 01cd B4722CCC 		.ascii	"\264r,\314\325\361\322\264\"nU\277\261\267\021\223\213"
 289      D5F1D2B4 
 289      226E55BF 
 289      B1B71193 
 289      8B
 290 01de 8AE7015F 		.ascii	"\212\347\001_\345\033\377Z\306\273U\374\354\031\345"
 290      E51BFF5A 
 290      C6BB55FC 
 290      EC19E5
 291 01ed 5894ABE3 		.ascii	"X\224\253\343\215i\366\036U\037\337\351\332\224\033"
 291      8D69F61E 
 291      551FDFE9 
 291      DA941B
 292 01fc 4D4BD0F4 		.ascii	"MK\320\364\307\363\315\237\220\371\036\225\277\230\316"
 292      C7F3CD9F 
 292      90F91E95 
 292      BF98CE
 293 020b 2FCED561 		.ascii	"/\316\325a\230\246_\242\352\327>\267\314:\345\364\335"
 293      98A65FA2 
 293      EAD73EB7 
 293      CC3AE5F4 
 293      DD
 294 021c 8093F9C6 		.ascii	"\200\223\371\306\307d|\011|\300\240q7\356\342r~\364"
 294      C7647C09 
 294      7CC0A071 
 294      37EEE272 
 294      7EF4
 295 022e DD4BB7FA 		.ascii	"\335K\267\372E\323\276~]\267\247DA\222\017\003\234\302"
 295      45D3BE7E 
 295      5DB7A744 
ARM GAS  C:\Users\Luggi\AppData\Local\Temp\cc5WLnTe.s 			page 22


 295      41920F03 
 295      9CC2
 296 0240 26BEB5DA 		.ascii	"&\276\265\332\026\355\220\257\274\305(\005\234Fo\212"
 296      16ED90AF 
 296      BCC52805 
 296      9C466F8A 
 297 0250 F638B787 		.ascii	"\3668\267\207\342\205\331\332\351(\300\031j\377\267"
 297      E285D9DA 
 297      E928C019 
 297      6AFFB7
 298 025f 7C284B9A 		.ascii	"|(K\232-I\3571\340[\225\326s\247#\"\267%\035`\030\347"
 298      2D49EF31 
 298      E05B95D6 
 298      73A72322 
 298      B7251D60 
 299 0275 6E3B7CC2 		.ascii	"n;|\302\200\261W!\233\201\017)\344\303\211\"\316V\370"
 299      80B15721 
 299      9B810F29 
 299      E4C38922 
 299      CE56F8
 300 0288 EA7CFECB 		.ascii	"\352|\376\313\015\276+5U\365\215\376Z_ueU}\371\305\352"
 300      0DBE2B35 
 300      55F58DFE 
 300      5A5F7565 
 300      557DF9C5 
 301 029d F2FAC6BA 		.ascii	"\362\372\306\272\006\237\277\346\302\271Z\370\013\265"
 301      069FBFE6 
 301      C2B95AF8 
 301      0BB5
 302 02ab 91D496   		.ascii	"\221\324\226"
 303              		.text
 304              		.section	.gnu.lto_Counter_1_Start.d235630,"",%progbits
 305 0000 789C7590 		.ascii	"x\234u\220=HBQ\030\206\277\357;\327\037R(\232\242\301"
 305      3D484251 
 305      1886BFEF 
 305      3BD71F52 
 305      289AA2C1 
 306 0014 25C2AD88 		.ascii	"%\302\255\210hnphh\011\\\205\210\272\253\202\344(\236"
 306      686E7068 
 306      68095C85 
 306      88BAAB82 
 306      E4289E
 307 0027 9B060D11 		.ascii	"\233\006\015\021\342\024\375\015Bf\177Z\015\015\266"
 307      E214FD0D 
 307      42667F5A 
 307      0D0DB6
 308 0036 B80B8544 		.ascii	"\270\013\205D?D\326bP\233\"\025bb\337\271F\201\341\201"
 308      3F44D662 
 308      509B2215 
 308      6262DFB9 
 308      4681E181 
 309 004a CB39F73D 		.ascii	"\3139\367=\357\367\276\017G\300\3775\316\3379\002\014"
 309      EFF7BE0F 
 309      47C0FF35 
 309      CEDF3902 
 309      0C
 310 005b F38E1640 		.ascii	"\363\216\026@\212_\002\030v\"\221s\201\354\321nGA:\005"
ARM GAS  C:\Users\Luggi\AppData\Local\Temp\cc5WLnTe.s 			page 23


 310      8A5F0218 
 310      76229173 
 310      81ECD16E 
 310      47413A05 
 311 006f 6A6D5943 		.ascii	"jmYCT\007@\210\220\3200\202oT%\214\347\017\327\035\356"
 311      54074088 
 311      90D03082 
 311      6F54258C 
 311      E70FD71D 
 312 0084 5D296525 		.ascii	"])e%Y\032X\036\250\023@\215\332\371\270\207n`O5\326"
 312      591A581E 
 312      A813408D 
 312      DAF9B887 
 312      6E604F35 
 313 0099 BC735863 		.ascii	"\274sXc\354\351k\337a\032\255\334\013\331\376\274l\265"
 313      ECE96BDF 
 313      611AADDC 
 313      0BD9FEBC 
 313      6CB5
 314 00ab 6AEF89F4 		.ascii	"j\357\211\364$\331\004\324\211\3052\033T\317\013\221"
 314      24D904D4 
 314      89C5321B 
 314      54CF0B91 
 315 00bb DAC5032E 		.ascii	"\332\305\003.%N?\22265\363I\202\343v\256\3272\024n\310"
 315      254E3F92 
 315      3635F349 
 315      82E376AE 
 315      D732146E 
 316 00d0 1569AF13 		.ascii	"\025i\257\0235U \253\317\345\253\242\375\225X1\177\323"
 316      355520AB 
 316      CFE5ABA2 
 316      FD955831 
 316      7FD3
 317 00e2 466C0BB7 		.ascii	"Fl\013\267q\323\220\312%p\037\303x\200\203\334}\310"
 317      71D390CA 
 317      25701FC3 
 317      788083DC 
 317      7DC8
 318 00f4 32DC60EC 		.ascii	"2\334`\354>\352\372\3134R\027\25365\315\004x\244|\240"
 318      3EEAFACB 
 318      345217AB 
 318      3635CD04 
 318      78A47CA0 
 319 0108 1004E45C 		.ascii	"\020\004\344\\\342\021\243\371R\301\251\314\320Y\257"
 319      E211A3F9 
 319      52C1A9CC 
 319      D059AF
 320 0117 D5CC8963 		.ascii	"\325\314\211c\0143\275\005\030\266r\362uf\302v%\355"
 320      0C33BD05 
 320      18B672F2 
 320      7566C276 
 320      25ED
 321 0129 44CBFCA2 		.ascii	"D\313\374\242eYfCq#\025\355U0\002\001OL\230\027\322"
 321      65596643 
 321      712315ED 
 321      55300201 
 321      4F4C9817 
ARM GAS  C:\Users\Luggi\AppData\Local\Temp\cc5WLnTe.s 			page 24


 322 013e CCD7502C 		.ascii	"\314\327P,\365\002uc\341\006<\375ayB#\337\2306\235\240"
 322      F5027563 
 322      E1063CFD 
 322      61794223 
 322      DF98369D 
 323 0153 9E155500 		.ascii	"\236\025U\000\033\206\246t\277\036\234[\324\027f\275"
 323      1B86A674 
 323      BF1E9C5B 
 323      D41766BD 
 324 0163 8150705E 		.ascii	"\201Pp^\367\315x\003\236\011\237'\020\362/\352\301\331"
 324      F7CD7803 
 324      9E099F27 
 324      10F22FEA 
 324      C1D9
 325 0175 B19179F8 		.ascii	"\261\221y\370\006\306\307\252-"
 325      06C6C7AA 
 325      2D
 326              		.text
 327              		.section	.gnu.lto_Counter_1_ReadPeriod.d235630,"",%progbits
 328 0000 789C658E 		.ascii	"x\234e\216=H\003A\020\205\347\315\206#\020\213`\231"
 328      3D480341 
 328      1085E7CD 
 328      8623108B 
 328      6099
 329 0012 5624D808 		.ascii	"V$\330\010*\326\026)l\205\264\201\020\342\26598\222"
 329      2AD61629 
 329      6C85B481 
 329      10E2B539 
 329      3892
 330 0024 3A7B7295 		.ascii	":{r\225\225\202\210(\021\0331\376a\221.6\301V\210\004"
 330      95828828 
 330      111B31FE 
 330      61912E36 
 330      C1568804 
 331 0038 8B80A0C2 		.ascii	"\213\200\240\302\221\200Vz\234\230\034(qG\354\\x\314"
 331      9180567A 
 331      9C981C28 
 331      7147EC5C 
 331      78CC
 332 004a 7CBBB3F3 		.ascii	"|\273\263\363\236\242\377'c46\2325\202\"\360V\227\310"
 332      9EA2FF27 
 332      6334369A 
 332      358222F0 
 332      5697C8
 333 005d 4B32200D 		.ascii	"K2 \015\201\352\214:^9d\334\006\343h\352\205c\2464\031"
 333      81EA8C3A 
 333      5E3964DC 
 333      06E368EA 
 333      8563A634 
 334 0072 DCEF0F3F 		.ascii	"\334\357\017?\224 X\360:\352\006V\366X\353\215\367\340"
 334      942058F0 
 334      3AEA0656 
 334      F658EB8D 
 334      F7E0
 335 0084 B1B4B773 		.ascii	"\261\264\267s\204\230\231\"&\234 \203&\304\010\247\310"
 335      84989922 
 335      269C2083 
ARM GAS  C:\Users\Luggi\AppData\Local\Temp\cc5WLnTe.s 			page 25


 335      26C408A7 
 335      C8
 336 0095 CA6CE87F 		.ascii	"\312l\350\177\367S\226\257\265N\313\204y8\203\005S\257"
 336      F75396AF 
 336      B54ECB84 
 336      79388305 
 336      53AF
 337 00a7 A63B7A32 		.ascii	"\246;z2\211F\273\315\025K1\311\006\032\030I\226\241"
 337      8946BBCD 
 337      154B31C9 
 337      061A1849 
 337      96A1
 338 00b9 0153D503 		.ascii	"\001S\325\003n>7\273o\213\362g\304\022\254u\037\266"
 338      6E3E37BB 
 338      6F8BF267 
 338      C412AC75 
 338      1FB6
 339 00cb 589228FF 		.ascii	"X\222(\377\320\323\011qx\036\334\365\222\277W$\330\376"
 339      D0D30971 
 339      781EDCF5 
 339      92BF5724 
 339      D8FE
 340 00dd EA6DA71A 		.ascii	"\352m\247\0328\360|\2573\027s\002\347&\323\205d\302"
 340      38F07CAF 
 340      33177302 
 340      E726D385 
 340      64C2
 341 00ef 251AA027 		.ascii	"%\032\240'xz\351o!\211%\304\312\2643\253v\305vKU{\275"
 341      787AE96F 
 341      218925C4 
 341      CAB433AB 
 341      76C5764B 
 342 0106 98776A6E 		.ascii	"\230wjn\331.\254\345\235\334r!\347\324*U\333-.\314\227"
 342      D92EACE5 
 342      9DDC7221 
 342      E7D42A55 
 342      DB2D2ECC 
 343 011b E907A299 		.ascii	"\351\007\242\231k\230"
 343      6B98
 344              		.text
 345              		.section	.gnu.lto_.symbol_nodes.d235630,"",%progbits
 346 0000 789C55CF 		.ascii	"x\234U\317\275\015\302@\024\003`\337{\271\313\375$)"
 346      BD0DC240 
 346      140360DF 
 346      7BB9CBFD 
 346      2429
 347 0012 69B344F6 		.ascii	"i\263D\366s\204\350\220\020\02550\003,\300\000\354@"
 347      7384E890 
 347      10153530 
 347      032CC000 
 347      EC40
 348 0024 EACC8088 		.ascii	"\352\314\200\210H\223\347\306\372\334Y\001\354\034\326"
 348      4893E7C6 
 348      FADC5901 
 348      EC1CD6
 349 0033 881038BF 		.ascii	"\210\0208\277\001\022\227k\204Tt\306\236b\034\250\306"
 349      0112976B 
ARM GAS  C:\Users\Luggi\AppData\Local\Temp\cc5WLnTe.s 			page 26


 349      845474C6 
 349      9E621CA8 
 349      C6
 350 0044 352BE348 		.ascii	"5+\343Ho\234\030\2143k\343\302h\3340\031;fce\331\332"
 350      6F9C188C 
 350      336BE3C2 
 350      68DC3019 
 350      3B666365 
 351 005a 03B7E582 		.ascii	"\003\267\345\202\264l\266\263\353\330\256\3068Fh\350"
 351      B46CB6B3 
 351      EBD8AEC6 
 351      384668E8 
 352 006a 70780E9A 		.ascii	"px\016\232\023^\307\271\327\0340\375[\260?-]2\246\307"
 352      135EC7B9 
 352      D71C30FD 
 352      5BB03F2D 
 352      5D32A6C7 
 353 007e A005B87F 		.ascii	"\240\005\270\177\276\016?\257\312G\343"
 353      BE0E3FAF 
 353      CA47E3
 354              		.text
 355              		.section	.gnu.lto_.refs.d235630,"",%progbits
 356 0000 789C6366 		.ascii	"x\234cf``\340d\200\000&n\006\036FF\036\026\006\000\001"
 356      6060E064 
 356      8000266E 
 356      061E4646 
 356      1E160600 
 357 0015 D40038   		.ascii	"\324\0008"
 358              		.text
 359              		.section	.gnu.lto_.decls.d235630,"",%progbits
 360 0000 789C8D55 		.ascii	"x\234\215UkLTG\024\276\263\263,\260\254h\223\212\015"
 360      6B4C5447 
 360      14BEB3B3 
 360      2CB0AC68 
 360      938A0D
 361 0013 B12DC6C4 		.ascii	"\261-\306\304\264\2111\245I\215\377jB\0325i\033\"i\373"
 361      B48931A5 
 361      498DFF6A 
 361      421A3569 
 361      1B2269FB 
 362 0027 4353B3C2 		.ascii	"CS\263\302\215%1,Y/MH\372\343\252\030\360E\255Zy\244"
 362      8D25312C 
 362      592F4D48 
 362      FAE3AA18 
 362      F045AD5A 
 363 003d E82ACAB3 		.ascii	"\350*\312\263\342\242\213\2247\010\010\262,.\260,/E"
 363      E2A28B94 
 363      370808B2 
 363      2C2EB02C 
 363      2F45
 364 004f 40411ED5 		.ascii	"@A\036\325\340\333\306\342\366\314\314\275\354\354\272"
 364      E0DBC6E2 
 364      F6CCCCBD 
 364      ECECBA
 365 005e 542739BB 		.ascii	"T'9\273wf\316\367\235s\276sg.\026\004!\031\013\202\007"
 365      7766CEF7 
 365      9D73BE73 
ARM GAS  C:\Users\Luggi\AppData\Local\Temp\cc5WLnTe.s 			page 27


 365      672E1604 
 365      21190B82 
 366 0073 C67C8820 		.ascii	"\306|\210 4!A\010\207\265X0\015X\004X\231\300\006Y\277"
 366      34214108 
 366      87B55830 
 366      0D580458 
 366      99C00659 
 367 0088 02560156 		.ascii	"\002V\001V\017\326\004\326\014\326\012v\003\254\023"
 367      0FD604D6 
 367      0CD60A76 
 367      03AC13
 368 0097 AC0BCC09 		.ascii	"\254\013\314\011\326\003\346\002s\203\015\200\001\255"
 368      D603E602 
 368      73830D80 
 368      01AD
 369 00a5 302CF80E 		.ascii	"0,\370\016\302\245Ub\2218\243`#\312\036R\366\375G\305"
 369      C2A55562 
 369      9138A360 
 369      23CA1E52 
 369      F6FD47C5 
 370 00b9 5B301501 		.ascii	"[0\025\0010\365\034\246*\000\246>\000\206\324\206\027"
 370      30F51CA6 
 370      2A00A63E 
 370      0086D486 
 370      17
 371 00ca F16F0AE0 		.ascii	"\361o\012\340\337\374?\376\315\001\374[\337\222Sk\000"
 371      DFFC3FFE 
 371      CD01FC5B 
 371      DF92536B 
 371      00
 372 00db 0CD1384C 		.ascii	"\014\3218L\301\220^\030\004\326\033^\2071\260Z\260I"
 372      C1905E18 
 372      04D61B5E 
 372      8731B05A 
 372      B049
 373 00ed B00905A7 		.ascii	"\260\011\005\247Q\260\003\0018I\317t~|Q`S`\367\271|"
 373      51B00301 
 373      3849CF74 
 373      7E7C5160 
 373      5360F7B9 
 374 0102 3A036049 		.ascii	":\003`I\257\203\374\260\376\270\256\0008\247\022\323"
 374      AF83FCB0 
 374      FEB8AE00 
 374      38A712D3 
 375 0112 BF0E3E67 		.ascii	"\277\016>g\244\370\371\017\362^\205\012o\366\177Z\341"
 375      A4F8F90F 
 375      F25E850A 
 375      6FF67F5A 
 375      E1
 376 0123 68E33420 		.ascii	"h\3434 C\253`\234\212\006\201z\355\342\362!\2343\002"
 376      43AB609C 
 376      8A06817A 
 376      EDE2F221 
 376      9C3302
 377 0136 EBC92C58 		.ascii	"\353\311,X\271\342\203\025?\302uE\010\374>\273\337A"
 377      B9E28315 
 377      3FC27545 
ARM GAS  C:\Users\Luggi\AppData\Local\Temp\cc5WLnTe.s 			page 28


 377      08FC3EBB 
 377      DF41
 378 0148 0F7780F8 		.ascii	"\017w\200\370\2174\310>\376\362\211aJ\203\302\365\313"
 378      8F34C83E 
 378      FEF28961 
 378      4A83C2F5 
 378      CB
 379 0159 C834B77F 		.ascii	"\3104\267\177\342)\206\251A\257!\323\274\307\017kC\261"
 379      E22986A9 
 379      41AF21D3 
 379      BCC70F6B 
 379      43B1
 380 016b 0691E7FC 		.ascii	"\006\221\347\374\3541\227~m\211,\313\031rc;\362R\354"
 380      EC31977E 
 380      6D892CCB 
 380      1972633B 
 380      F252EC
 381 017e 2DA83912 		.ascii	"-\2509\022\014\230(=\235f\315\276\264\205\320\251\307"
 381      0C98283D 
 381      9D66CDBE 
 381      B485D0A9 
 381      C7
 382 018f 83614153 		.ascii	"\203aAS\340|\221\033\216\326\350\317\003t\256\310=\264"
 382      E07C911B 
 382      8ED6E8CF 
 382      0374AEC8 
 382      3DB4
 383 01a1 5296B5A8 		.ascii	"R\226\265\250\014\351Q1\302\250\004\255%\011\022,\031"
 383      0CE95131 
 383      C2A804AD 
 383      2509122C 
 383      19
 384 01b2 19B2BC4F 		.ascii	"\031\262\274O\226\367\313A\237\010\250\020E\242\"\024"
 384      96F7CB41 
 384      9F08A810 
 384      45A22214 
 385 01c2 29A08B68 		.ascii	")\240\213h\0158PWT\012\213\177\222E \200`UeO\035a4\375"
 385      0D385057 
 385      540A8B7F 
 385      92452080 
 385      6055654F 
 386 01da 2812BBFA 		.ascii	"(\022\273\372x{\266\216\246\257%\323\232W\343.\355\212"
 386      787BB68E 
 386      A6AF25D3 
 386      9A57E32E 
 386      ED8A
 387 01ec DF21AE7C 		.ascii	"\337!\256|l\277\274L\213b#\320% \260\002\201\200\312"
 387      6CBFBC4C 
 387      8B6223D0 
 387      2520B002 
 387      8180CA
 388 01ff D10AF8DD 		.ascii	"\321\012\370\335\246eUL^\253\364\350\360\347\264\324"
 388      A665554C 
 388      5EABF4E8 
 388      F0E7B4D4 
 389 020f 077B2DE9 		.ascii	"\007{-\351\301Q\247\345Q\353\334\341\273\205\3219\262"
 389      C151A7E5 
ARM GAS  C:\Users\Luggi\AppData\Local\Temp\cc5WLnTe.s 			page 29


 389      51EBDCE1 
 389      BB85D139 
 389      B2
 390 0220 659FFCDA 		.ascii	"e\237\374\332\343A\024\203./\244-\220g\246\360\025\024"
 390      E3411483 
 390      2E2FA42D 
 390      9067A6F0 
 390      1514
 391 0232 05C0D2EC 		.ascii	"\005\300\322\354\023\243K\360.JRUz\347V(\220X\254\226"
 391      13A34BF0 
 391      2E4A5255 
 391      7AE75628 
 391      9058AC96 
 392 0246 A2425DBB 		.ascii	"\242B]\273\334\350\361|I\3616\016oS\361\025\024\357"
 392      DCE8F17C 
 392      49F1360E 
 392      6F53F115 
 392      14EF
 393 0258 6E484F0F 		.ascii	"nHO\017\301?#^\326\010&k\246=\267\011\323\251\207lk"
 393      C13F235E 
 393      D608266B 
 393      A63DB709 
 393      D3A9876C 
 394 026d 06074FFE 		.ascii	"\006\007O\376\203\221~\015Ul\356\270\214?\020\320\332"
 394      83917E0D 
 394      556CEEB8 
 394      8C3F10D0 
 394      DA
 395 027e 48F42948 		.ascii	"H\364)HS\015zE(zUB\271\177A\271L|\027\023\277\012\304"
 395      530D7A45 
 395      287A5542 
 395      B97F41B9 
 395      4C7C1713 
 396 0295 BFEA153F 		.ascii	"\277\352\025?B\277\320\313c\007\232\216i\265pn\251\317"
 396      42BFD0CB 
 396      63079A8E 
 396      69B5706E 
 396      A9CF
 397 02a7 36AAE233 		.ascii	"6\252\3423\317\330\005\315\242*\326R\025k\220\"\243"
 397      CFD805CD 
 397      A22AD652 
 397      156B9022 
 397      A3
 398 02b8 253D67D6 		.ascii	"%=g\326\200\177\241\025\364\035\230\355\017Qd\314\177"
 398      807FA115 
 398      F41D98ED 
 398      0F5164CC 
 398      7F
 399 02c9 C1CB0820 		.ascii	"\301\313\010 T\307\311P\247\312POe8\230f\305|@\222\213"
 399      54C7C950 
 399      A7CA504F 
 399      65389866 
 399      C57C4092 
 400 02de 3762834F 		.ascii	"7b\203O\337\372\263\317\247a\234\205h\304\212\276\354"
 400      DFFAB3CF 
 400      A7619C85 
 400      68C48ABE 
ARM GAS  C:\Users\Luggi\AppData\Local\Temp\cc5WLnTe.s 			page 30


 400      EC
 401 02ef FC2554F3 		.ascii	"\374%T\363\321\243\305\327\0152S\235BP#\027\257Q\215"
 401      D1A3C5D7 
 401      0D32539D 
 401      42502317 
 401      AF518D
 402 0302 D744E34D 		.ascii	"\327D\343M\334\316\214\3046\205\302^W\036\314\332VS"
 402      DCCE8CC4 
 402      3685C25E 
 402      571ECCDA 
 402      5653
 403 0314 ACB68DE0 		.ascii	"\254\266\215\340\257q\370k*\276\231\342m\275g\036\031"
 403      AF71F86B 
 403      2ABE99E2 
 403      6DBD671E 
 403      19
 404 0325 700F23B8 		.ascii	"p\017#\270-_=\205\030\301\324\002\001)\270\205#hQ\011"
 404      2D5F3D85 
 404      18C1D402 
 404      0129B885 
 404      23685109 
 405 0339 5A29C199 		.ascii	"Z)\301\231\266\277\373\226R\331\313\026d\2676\224\265"
 405      B6BFFB96 
 405      52D9CB16 
 405      64B73694 
 405      B5
 406 034a 862D2A7B 		.ascii	"\206-*{\033\025\341\272*\373\300\211\302\023Z\374\210"
 406      1B15E1BA 
 406      2AFBC089 
 406      C2135AFC 
 406      88
 407 035b 6550E23E 		.ascii	"eP\342>\371DCu\037\315\264\213\215i\362\277\344$\022"
 407      F9444375 
 407      1FCDB48B 
 407      8D69F2BF 
 407      E42412
 408 036e 086AE772 		.ascii	"\010j\347rhWs\270Asx5\336[\345\323\3462\037\325;|T/"
 408      685773B8 
 408      41737835 
 408      DE5BE5D3 
 408      E6321FD5 
 409 0386 6EAC990D 		.ascii	"n\254\231\015\305\031\354f\310\036\232\357^\312Tw\034"
 409      C519EC66 
 409      C81E9AEF 
 409      5ECA5477 
 409      1C
 410 0397 E6540708 		.ascii	"\346T\007\010\262s\001\355j\300N\0320\243d,;\030\237"
 410      B27301ED 
 410      6AC04E1A 
 410      30A3642C 
 410      3B189F
 411 03aa 661C728B 		.ascii	"f\034r\213;\217u\316\222yQU\215\02088\002\207J\320E"
 411      3B8F75CE 
 411      92795155 
 411      8D103838 
 411      02874AD0 
 412 03bf 097E1B71 		.ascii	"\011~\033q\332\302\260\215\021\234>PP\037\304\212np"
ARM GAS  C:\Users\Luggi\AppData\Local\Temp\cc5WLnTe.s 			page 31


 412      DAC2B08D 
 412      119C3E50 
 412      501FC48A 
 412      6E70
 413 03d1 F8167D93 		.ascii	"\370\026}\223\243\270\251R8)\305\221\352|[8\356`\024"
 413      A3B8A952 
 413      3829C591 
 413      EA7C5B38 
 413      EE6014
 414 03e4 F7E627EB 		.ascii	"\367\346'\353\230n\026\307ey#\243\240G\266\233c\350"
 414      986E16C7 
 414      657923A3 
 414      A047B69B 
 414      63E8
 415 03f6 56197A28 		.ascii	"V\031z(\303\361\264\271b\035\036d\014\007s\346;t\254"
 415      C3F1B4B9 
 415      621D1E64 
 415      0C0773E6 
 415      3B74AC
 416 0409 8A990BFC 		.ascii	"\212\231\013\374\231\357\345\010zU\002\027%(s\344u\350"
 416      99EFE508 
 416      7A550217 
 416      252873E4 
 416      75E8
 417 041b F0342328 		.ascii	"\3604#(8\367G\207\362\002?<\352'e\037\307\321\247r\270"
 417      38F74787 
 417      F2023F3C 
 417      EA27651F 
 417      C7D1A772 
 418 0430 29C7C3FA 		.ascii	")\307\303\372\213\341\3705\243\350\334_T\252%U\310s"
 418      8BE1F835 
 418      A3E8DC5F 
 418      54AA2555 
 418      C873
 419 0442 471F783E 		.ascii	"G\037x>\313\221\317\362\247\256\237#\351WI\006(\311"
 419      CB91CFF2 
 419      A7AE9F23 
 419      E9574906 
 419      28C9
 420 0454 B9D1BE72 		.ascii	"\271\321\276r=\276\200)\313\353ak%\271I\341\350\321"
 420      3DBE8029 
 420      CBEB616B 
 420      25B949E1 
 420      E8D1
 421 0466 863F4DCB 		.ascii	"\206?M\313{\206W\237\225-\347\340,\333q\026\320\313"
 421      7B86579F 
 421      952DE7E0 
 421      2CDB7116 
 421      D0CB
 422 0478 32A98E1E 		.ascii	"2\251\216\036\316A\306\252\\@\002\231\303\357\020\271"
 422      CE41C6AA 
 422      5C400299 
 422      C3EF10B9 
 423 0488 A787D16A 		.ascii	"\247\207\321j\322\336\254\303\347Cp%\343\256x~\250j"
 423      D2DEACC3 
 423      E7437025 
 423      E3AE787E 
ARM GAS  C:\Users\Luggi\AppData\Local\Temp\cc5WLnTe.s 			page 32


 423      A86A
 424 049a 893E83DC 		.ascii	"\211>\203\334\363o\277\270\340\252su\035r\207\262\253"
 424      F36FBFB8 
 424      E0AA7375 
 424      1D7287B2 
 424      AB
 425 04ab CE1F7167 		.ascii	"\316\037qg\321\253\356\345\335\315i\362F4\002\331\335"
 425      D1ABEEE5 
 425      DDCD69F2 
 425      463402D9 
 425      DD
 426 04bc F25E75B7 		.ascii	"\362^u\267\221\367\256s\331\367\015c\303!r\177\302\013"
 426      91F7AE73 
 426      D9F70D63 
 426      C321727F 
 426      C20B
 427 04ce 1FBA99FA 		.ascii	"\037\272\231\372z_\370Qd\240\342\300?y\275\254C\253"
 427      7A5FF851 
 427      64A0E2C0 
 427      3F79BDAC 
 427      43AB
 428 04e0 785FA2A5 		.ascii	"x_\242\245\327wL\361\035\243\276U]\303#\030\327\262"
 428      D7774CF1 
 428      1DA3BE55 
 428      5DC32318 
 428      D7B2
 429 04f2 625B064E 		.ascii	"b[\006N9\014\254\330w\371\256A\271\277\026\354\355\014"
 429      390CACD8 
 429      77F9AE41 
 429      B9BF16EC 
 429      ED0C
 430 0504 56BE9796 		.ascii	"V\276\227\226\371\350\0204\001y\215{k\270\213\274\037"
 430      F9E81034 
 430      01798D7B 
 430      6BB88BBC 
 430      1F
 431 0515 CB3749EF 		.ascii	"\3137I\357\005$E-\235u\367u|\001\023>\305N*\005L\322"
 431      0524452D 
 431      9D75F775 
 431      7C01133E 
 431      C54E2A05 
 432 052b 02AC23D5 		.ascii	"\002\254#\325=aj\316\031\357B\357l\032\317\015\343\351"
 432      3D616ACE 
 432      19EF42EF 
 432      6C1ACF0D 
 432      E3E9
 433 053d EFFBD04F 		.ascii	"\357\373\320O)\364S\224\336\335\361\370f0\357\334\346"
 433      29F45394 
 433      DEDDF1F8 
 433      6630EFDC 
 433      E6
 434 054e 23E6B4E2 		.ascii	"#\346\264\342<M\235\273\347<?\362\276\276\337\202\031"
 434      3C4D9DBB 
 434      E73C3FF2 
 434      BEBEDF82 
 434      19
 435 055f C57786FA 		.ascii	"\305w\206\372^z\356,\361\311\242\334\207x\026\031T\015"
ARM GAS  C:\Users\Luggi\AppData\Local\Temp\cc5WLnTe.s 			page 33


 435      5E7AEE2C 
 435      F1C9A2DC 
 435      87781619 
 435      540D
 436 0571 E151D0A5 		.ascii	"\341Q\320\245$&I\321\353u\233\276\375.*FX\265IL\022"
 436      242649D1 
 436      EB759BBE 
 436      FD2E2A46 
 436      58B5494C 
 437 0586 CD46494C 		.ascii	"\315FIL\330\021gJ1\307\213\333c\343L1_l\217O\225R\223"
 437      D811674A 
 437      31C78BDB 
 437      63E34C31 
 437      5F6C8F4F 
 438 059d C53DEB7E 		.ascii	"\305=\353~\022\226\305\230R\222$\321\274#z\307WI\306"
 438      1296C598 
 438      529224D1 
 438      BC237AC7 
 438      5749C6
 439 05b0 9DBBC5D5 		.ascii	"\235\273\305\325\213@\026\374\326\305\013\341^P\234"
 439      8B4016FC 
 439      D6C50BE1 
 439      5E509C
 440 05bf 644A0E22 		.ascii	"dJ\016\"17Dr\213\242\264\205<\232S\222\245oL\011\342"
 440      31374472 
 440      8BA2B485 
 440      3C9A5392 
 440      A56F4C09 
 441 05d4 4AEFD656 		.ascii	"J\357\326V\321\230\020'\031\245\224=[\305]\211{`\361"
 441      D1981027 
 441      19A5943D 
 441      5BC55D89 
 441      7B60F1
 442 05e7 43DFCD18 		.ascii	"C\337\315\030S\222d6\355Vw?\362\356\376`N\224D\277\355"
 442      53926436 
 442      ED56773F 
 442      F2EEFE60 
 442      4E9444BF 
 443 05fc 8837B6E9 		.ascii	"\2107\266\351t\271?g\300Uc\262\224b\026\227\373Q\304"
 443      74B93F67 
 443      C05563B2 
 443      94621697 
 443      FB51C4
 444 060f 8AE64453 		.ascii	"\212\346DS\002W\342\226\244Di)_\261\321,\275\357K\305"
 444      0257E296 
 444      A4446929 
 444      5FB1D12C 
 444      BDEF4BC5 
 445 0623 30BA98D4 		.ascii	"0\272\230\324\315\306\335\322\307\213)\230\372u\342"
 445      CDC6DDD2 
 445      C78B2998 
 445      FA75E2
 446 0632 4E90FC3D 		.ascii	"N\220\374=/6\021\250\2777\232\265fq\327\206 \370\211"
 446      2F3611A8 
 446      BF379AB5 
 446      6671D786 
 446      20F889
ARM GAS  C:\Users\Luggi\AppData\Local\Temp\cc5WLnTe.s 			page 34


 447 0645 5EFF1F1C 		.ascii	"^\377\037\034\307\274^"
 447      C7BC5E
 448              		.text
 449              		.section	.gnu.lto_.symtab.d235630,"",%progbits
 450 0000 436F756E 		.ascii	"Counter_1_Enable\000\000\000\000\000\000\000\000\000"
 450      7465725F 
 450      315F456E 
 450      61626C65 
 450      00000000 
 451 0019 000000B3 		.ascii	"\000\000\000\263\000\000\000Counter_1_Stop\000\000\000"
 451      00000043 
 451      6F756E74 
 451      65725F31 
 451      5F53746F 
 452 0031 00000000 		.ascii	"\000\000\000\000\000\000\000\000\000\265\000\000\000"
 452      00000000 
 452      00B50000 
 452      00
 453 003e 436F756E 		.ascii	"Counter_1_SetInterruptMode\000\000\000\000\000\000\000"
 453      7465725F 
 453      315F5365 
 453      74496E74 
 453      65727275 
 454 005f 00000000 		.ascii	"\000\000\000\000\000\276\000\000\000Counter_1_ReadS"
 454      00BE0000 
 454      00436F75 
 454      6E746572 
 454      5F315F52 
 455 0077 74617475 		.ascii	"tatusRegister\000\000\000\000\000\000\000\000\000\000"
 455      73526567 
 455      69737465 
 455      72000000 
 455      00000000 
 456 008e 0000C100 		.ascii	"\000\000\301\000\000\000Counter_1_ReadControlRegist"
 456      0000436F 
 456      756E7465 
 456      725F315F 
 456      52656164 
 457 00af 65720000 		.ascii	"er\000\000\000\000\000\000\000\000\000\000\000\000\303"
 457      00000000 
 457      00000000 
 457      0000C3
 458 00be 00000043 		.ascii	"\000\000\000Counter_1_WriteControlRegister\000\000\000"
 458      6F756E74 
 458      65725F31 
 458      5F577269 
 458      7465436F 
 459 00e2 00000000 		.ascii	"\000\000\000\000\000\000\000\000\000\305\000\000\000"
 459      00000000 
 459      00C50000 
 459      00
 460 00ef 436F756E 		.ascii	"Counter_1_WriteCounter\000\000\000\000\000\000\000\000"
 460      7465725F 
 460      315F5772 
 460      69746543 
 460      6F756E74 
 461 010d 00000000 		.ascii	"\000\000\000\000\311\000\000\000Counter_1_ReadCount"
ARM GAS  C:\Users\Luggi\AppData\Local\Temp\cc5WLnTe.s 			page 35


 461      C9000000 
 461      436F756E 
 461      7465725F 
 461      315F5265 
 462 0128 65720000 		.ascii	"er\000\000\000\000\000\000\000\000\000\000\000\000\314"
 462      00000000 
 462      00000000 
 462      0000CC
 463 0137 00000043 		.ascii	"\000\000\000Counter_1_ReadCapture\000\000\000\000\000"
 463      6F756E74 
 463      65725F31 
 463      5F526561 
 463      64436170 
 464 0154 00000000 		.ascii	"\000\000\000\000\000\000\000\316\000\000\000Counter"
 464      000000CE 
 464      00000043 
 464      6F756E74 
 464      6572
 465 0166 5F315F57 		.ascii	"_1_WritePeriod\000\000\000\000\000\000\000\000\000\000"
 465      72697465 
 465      50657269 
 465      6F640000 
 465      00000000 
 466 017e 0000D000 		.ascii	"\000\000\320\000\000\000Counter_1_Init\000\000\000\000"
 466      0000436F 
 466      756E7465 
 466      725F315F 
 466      496E6974 
 467 0196 00000000 		.ascii	"\000\000\000\000\000\000\000\000\322\000\000\000Cou"
 467      00000000 
 467      D2000000 
 467      436F75
 468 01a5 6E746572 		.ascii	"nter_1_Start\000\000\000\000\000\000\000\000\000\000"
 468      5F315F53 
 468      74617274 
 468      00000000 
 468      00000000 
 469 01bb 0000D400 		.ascii	"\000\000\324\000\000\000Counter_1_initVar\000\000\000"
 469      0000436F 
 469      756E7465 
 469      725F315F 
 469      696E6974 
 470 01d5 00000000 		.ascii	"\000\000\000\000\000\000\000\000\000\333\000\000\000"
 470      00000000 
 470      00DB0000 
 470      00
 471 01e2 436F756E 		.ascii	"Counter_1_ReadPeriod\000\000\000\000\000\000\000\000"
 471      7465725F 
 471      315F5265 
 471      61645065 
 471      72696F64 
 472 01fe 00000000 		.ascii	"\000\000\000\000\326\000\000\000CyHalt\000\000\002\000"
 472      D6000000 
 472      43794861 
 472      6C740000 
 472      0200
 473 0210 00000000 		.ascii	"\000\000\000\000\000\000\000\000\330\000\000\000"
ARM GAS  C:\Users\Luggi\AppData\Local\Temp\cc5WLnTe.s 			page 36


 473      00000000 
 473      D8000000 
 474              		.text
 475              		.section	.gnu.lto_.opts,"",%progbits
 476 0000 272D666E 		.ascii	"'-fno-trapv' '-fno-strict-overflow' '-mcpu=cortex-m"
 476      6F2D7472 
 476      61707627 
 476      20272D66 
 476      6E6F2D73 
 477 0033 33272027 		.ascii	"3' '-mthumb' '-g' '-Og' '-ffunction-sections' '-flt"
 477      2D6D7468 
 477      756D6227 
 477      20272D67 
 477      2720272D 
 478 0066 6F272027 		.ascii	"o' '-ffat-lto-objects'\000"
 478      2D666661 
 478      742D6C74 
 478      6F2D6F62 
 478      6A656374 
 479              		.text
 480              		.cfi_sections	.debug_frame
 481              		.section	.text.Counter_1_Enable,"ax",%progbits
 482              		.align	2
 483              		.global	Counter_1_Enable
 484              		.thumb
 485              		.thumb_func
 486              		.type	Counter_1_Enable, %function
 487              	Counter_1_Enable:
 488              	.LFB1:
 489              		.file 1 "Generated_Source\\PSoC5\\Counter_1.c"
   1:Generated_Source\PSoC5/Counter_1.c **** /*******************************************************************************
   2:Generated_Source\PSoC5/Counter_1.c **** * File Name: Counter_1.c  
   3:Generated_Source\PSoC5/Counter_1.c **** * Version 3.0
   4:Generated_Source\PSoC5/Counter_1.c **** *
   5:Generated_Source\PSoC5/Counter_1.c **** *  Description:
   6:Generated_Source\PSoC5/Counter_1.c **** *     The Counter component consists of a 8, 16, 24 or 32-bit counter with
   7:Generated_Source\PSoC5/Counter_1.c **** *     a selectable period between 2 and 2^Width - 1.  
   8:Generated_Source\PSoC5/Counter_1.c **** *
   9:Generated_Source\PSoC5/Counter_1.c **** *   Note:
  10:Generated_Source\PSoC5/Counter_1.c **** *     None
  11:Generated_Source\PSoC5/Counter_1.c **** *
  12:Generated_Source\PSoC5/Counter_1.c **** ********************************************************************************
  13:Generated_Source\PSoC5/Counter_1.c **** * Copyright 2008-2012, Cypress Semiconductor Corporation.  All rights reserved.
  14:Generated_Source\PSoC5/Counter_1.c **** * You may use this file only in accordance with the license, terms, conditions, 
  15:Generated_Source\PSoC5/Counter_1.c **** * disclaimers, and limitations in the end user license agreement accompanying 
  16:Generated_Source\PSoC5/Counter_1.c **** * the software package with which this file was provided.
  17:Generated_Source\PSoC5/Counter_1.c **** *******************************************************************************/
  18:Generated_Source\PSoC5/Counter_1.c **** 
  19:Generated_Source\PSoC5/Counter_1.c **** #include "Counter_1.h"
  20:Generated_Source\PSoC5/Counter_1.c **** 
  21:Generated_Source\PSoC5/Counter_1.c **** uint8 Counter_1_initVar = 0u;
  22:Generated_Source\PSoC5/Counter_1.c **** 
  23:Generated_Source\PSoC5/Counter_1.c **** 
  24:Generated_Source\PSoC5/Counter_1.c **** /*******************************************************************************
  25:Generated_Source\PSoC5/Counter_1.c **** * Function Name: Counter_1_Init
  26:Generated_Source\PSoC5/Counter_1.c **** ********************************************************************************
  27:Generated_Source\PSoC5/Counter_1.c **** * Summary:
ARM GAS  C:\Users\Luggi\AppData\Local\Temp\cc5WLnTe.s 			page 37


  28:Generated_Source\PSoC5/Counter_1.c **** *     Initialize to the schematic state
  29:Generated_Source\PSoC5/Counter_1.c **** * 
  30:Generated_Source\PSoC5/Counter_1.c **** * Parameters:  
  31:Generated_Source\PSoC5/Counter_1.c **** *  void  
  32:Generated_Source\PSoC5/Counter_1.c **** *
  33:Generated_Source\PSoC5/Counter_1.c **** * Return: 
  34:Generated_Source\PSoC5/Counter_1.c **** *  void
  35:Generated_Source\PSoC5/Counter_1.c **** *
  36:Generated_Source\PSoC5/Counter_1.c **** *******************************************************************************/
  37:Generated_Source\PSoC5/Counter_1.c **** void Counter_1_Init(void) 
  38:Generated_Source\PSoC5/Counter_1.c **** {
  39:Generated_Source\PSoC5/Counter_1.c ****         #if (!Counter_1_UsingFixedFunction && !Counter_1_ControlRegRemoved)
  40:Generated_Source\PSoC5/Counter_1.c ****             uint8 ctrl;
  41:Generated_Source\PSoC5/Counter_1.c ****         #endif /* (!Counter_1_UsingFixedFunction && !Counter_1_ControlRegRemoved) */
  42:Generated_Source\PSoC5/Counter_1.c ****         
  43:Generated_Source\PSoC5/Counter_1.c ****         #if(!Counter_1_UsingFixedFunction) 
  44:Generated_Source\PSoC5/Counter_1.c ****             /* Interrupt State Backup for Critical Region*/
  45:Generated_Source\PSoC5/Counter_1.c ****             uint8 Counter_1_interruptState;
  46:Generated_Source\PSoC5/Counter_1.c ****         #endif /* (!Counter_1_UsingFixedFunction) */
  47:Generated_Source\PSoC5/Counter_1.c ****         
  48:Generated_Source\PSoC5/Counter_1.c ****         #if (Counter_1_UsingFixedFunction)
  49:Generated_Source\PSoC5/Counter_1.c ****             /* Clear all bits but the enable bit (if it's already set for Timer operation */
  50:Generated_Source\PSoC5/Counter_1.c ****             Counter_1_CONTROL &= Counter_1_CTRL_ENABLE;
  51:Generated_Source\PSoC5/Counter_1.c ****             
  52:Generated_Source\PSoC5/Counter_1.c ****             /* Clear the mode bits for continuous run mode */
  53:Generated_Source\PSoC5/Counter_1.c ****             #if (CY_PSOC5A)
  54:Generated_Source\PSoC5/Counter_1.c ****                 Counter_1_CONTROL2 &= ((uint8)(~Counter_1_CTRL_MODE_MASK));
  55:Generated_Source\PSoC5/Counter_1.c ****             #endif /* (CY_PSOC5A) */
  56:Generated_Source\PSoC5/Counter_1.c ****             #if (CY_PSOC3 || CY_PSOC5LP)
  57:Generated_Source\PSoC5/Counter_1.c ****                 Counter_1_CONTROL3 &= ((uint8)(~Counter_1_CTRL_MODE_MASK));                
  58:Generated_Source\PSoC5/Counter_1.c ****             #endif /* (CY_PSOC3 || CY_PSOC5LP) */
  59:Generated_Source\PSoC5/Counter_1.c ****             /* Check if One Shot mode is enabled i.e. RunMode !=0*/
  60:Generated_Source\PSoC5/Counter_1.c ****             #if (Counter_1_RunModeUsed != 0x0u)
  61:Generated_Source\PSoC5/Counter_1.c ****                 /* Set 3rd bit of Control register to enable one shot mode */
  62:Generated_Source\PSoC5/Counter_1.c ****                 Counter_1_CONTROL |= Counter_1_ONESHOT;
  63:Generated_Source\PSoC5/Counter_1.c ****             #endif /* (Counter_1_RunModeUsed != 0x0u) */
  64:Generated_Source\PSoC5/Counter_1.c ****             
  65:Generated_Source\PSoC5/Counter_1.c ****             /* Set the IRQ to use the status register interrupts */
  66:Generated_Source\PSoC5/Counter_1.c ****             Counter_1_CONTROL2 |= Counter_1_CTRL2_IRQ_SEL;
  67:Generated_Source\PSoC5/Counter_1.c ****             
  68:Generated_Source\PSoC5/Counter_1.c ****             /* Clear and Set SYNCTC and SYNCCMP bits of RT1 register */
  69:Generated_Source\PSoC5/Counter_1.c ****             Counter_1_RT1 &= ((uint8)(~Counter_1_RT1_MASK));
  70:Generated_Source\PSoC5/Counter_1.c ****             Counter_1_RT1 |= Counter_1_SYNC;     
  71:Generated_Source\PSoC5/Counter_1.c ****                     
  72:Generated_Source\PSoC5/Counter_1.c ****             /*Enable DSI Sync all all inputs of the Timer*/
  73:Generated_Source\PSoC5/Counter_1.c ****             Counter_1_RT1 &= ((uint8)(~Counter_1_SYNCDSI_MASK));
  74:Generated_Source\PSoC5/Counter_1.c ****             Counter_1_RT1 |= Counter_1_SYNCDSI_EN;
  75:Generated_Source\PSoC5/Counter_1.c **** 
  76:Generated_Source\PSoC5/Counter_1.c ****         #else
  77:Generated_Source\PSoC5/Counter_1.c ****             #if(!Counter_1_ControlRegRemoved)
  78:Generated_Source\PSoC5/Counter_1.c ****             /* Set the default compare mode defined in the parameter */
  79:Generated_Source\PSoC5/Counter_1.c ****             ctrl = Counter_1_CONTROL & ((uint8)(~Counter_1_CTRL_CMPMODE_MASK));
  80:Generated_Source\PSoC5/Counter_1.c ****             Counter_1_CONTROL = ctrl | Counter_1_DEFAULT_COMPARE_MODE;
  81:Generated_Source\PSoC5/Counter_1.c ****             
  82:Generated_Source\PSoC5/Counter_1.c ****             /* Set the default capture mode defined in the parameter */
  83:Generated_Source\PSoC5/Counter_1.c ****             ctrl = Counter_1_CONTROL & ((uint8)(~Counter_1_CTRL_CAPMODE_MASK));
  84:Generated_Source\PSoC5/Counter_1.c ****             
ARM GAS  C:\Users\Luggi\AppData\Local\Temp\cc5WLnTe.s 			page 38


  85:Generated_Source\PSoC5/Counter_1.c ****             #if( 0 != Counter_1_CAPTURE_MODE_CONF)
  86:Generated_Source\PSoC5/Counter_1.c ****                 Counter_1_CONTROL = ctrl | Counter_1_DEFAULT_CAPTURE_MODE;
  87:Generated_Source\PSoC5/Counter_1.c ****             #else
  88:Generated_Source\PSoC5/Counter_1.c ****                 Counter_1_CONTROL = ctrl;
  89:Generated_Source\PSoC5/Counter_1.c ****             #endif /* 0 != Counter_1_CAPTURE_MODE */ 
  90:Generated_Source\PSoC5/Counter_1.c ****             
  91:Generated_Source\PSoC5/Counter_1.c ****             #endif /* (!Counter_1_ControlRegRemoved) */
  92:Generated_Source\PSoC5/Counter_1.c ****         #endif /* (Counter_1_UsingFixedFunction) */
  93:Generated_Source\PSoC5/Counter_1.c ****         
  94:Generated_Source\PSoC5/Counter_1.c ****         /* Clear all data in the FIFO's */
  95:Generated_Source\PSoC5/Counter_1.c ****         #if (!Counter_1_UsingFixedFunction)
  96:Generated_Source\PSoC5/Counter_1.c ****             Counter_1_ClearFIFO();
  97:Generated_Source\PSoC5/Counter_1.c ****         #endif /* (!Counter_1_UsingFixedFunction) */
  98:Generated_Source\PSoC5/Counter_1.c ****         
  99:Generated_Source\PSoC5/Counter_1.c ****         /* Set Initial values from Configuration */
 100:Generated_Source\PSoC5/Counter_1.c ****         Counter_1_WritePeriod(Counter_1_INIT_PERIOD_VALUE);
 101:Generated_Source\PSoC5/Counter_1.c ****         #if (!(Counter_1_UsingFixedFunction && (CY_PSOC5A)))
 102:Generated_Source\PSoC5/Counter_1.c ****             Counter_1_WriteCounter(Counter_1_INIT_COUNTER_VALUE);
 103:Generated_Source\PSoC5/Counter_1.c ****         #endif /* (!(Counter_1_UsingFixedFunction && (CY_PSOC5A))) */
 104:Generated_Source\PSoC5/Counter_1.c ****         Counter_1_SetInterruptMode(Counter_1_INIT_INTERRUPTS_MASK);
 105:Generated_Source\PSoC5/Counter_1.c ****         
 106:Generated_Source\PSoC5/Counter_1.c ****         #if (!Counter_1_UsingFixedFunction)
 107:Generated_Source\PSoC5/Counter_1.c ****             /* Read the status register to clear the unwanted interrupts */
 108:Generated_Source\PSoC5/Counter_1.c ****             (void)Counter_1_ReadStatusRegister();
 109:Generated_Source\PSoC5/Counter_1.c ****             /* Set the compare value (only available to non-fixed function implementation */
 110:Generated_Source\PSoC5/Counter_1.c ****             Counter_1_WriteCompare(Counter_1_INIT_COMPARE_VALUE);
 111:Generated_Source\PSoC5/Counter_1.c ****             /* Use the interrupt output of the status register for IRQ output */
 112:Generated_Source\PSoC5/Counter_1.c ****             
 113:Generated_Source\PSoC5/Counter_1.c ****             /* CyEnterCriticalRegion and CyExitCriticalRegion are used to mark following region cri
 114:Generated_Source\PSoC5/Counter_1.c ****             /* Enter Critical Region*/
 115:Generated_Source\PSoC5/Counter_1.c ****             Counter_1_interruptState = CyEnterCriticalSection();
 116:Generated_Source\PSoC5/Counter_1.c ****             
 117:Generated_Source\PSoC5/Counter_1.c ****             Counter_1_STATUS_AUX_CTRL |= Counter_1_STATUS_ACTL_INT_EN_MASK;
 118:Generated_Source\PSoC5/Counter_1.c ****             
 119:Generated_Source\PSoC5/Counter_1.c ****             /* Exit Critical Region*/
 120:Generated_Source\PSoC5/Counter_1.c ****             CyExitCriticalSection(Counter_1_interruptState);
 121:Generated_Source\PSoC5/Counter_1.c ****             
 122:Generated_Source\PSoC5/Counter_1.c ****         #endif /* (!Counter_1_UsingFixedFunction) */
 123:Generated_Source\PSoC5/Counter_1.c **** }
 124:Generated_Source\PSoC5/Counter_1.c **** 
 125:Generated_Source\PSoC5/Counter_1.c **** 
 126:Generated_Source\PSoC5/Counter_1.c **** /*******************************************************************************
 127:Generated_Source\PSoC5/Counter_1.c **** * Function Name: Counter_1_Enable
 128:Generated_Source\PSoC5/Counter_1.c **** ********************************************************************************
 129:Generated_Source\PSoC5/Counter_1.c **** * Summary:
 130:Generated_Source\PSoC5/Counter_1.c **** *     Enable the Counter
 131:Generated_Source\PSoC5/Counter_1.c **** * 
 132:Generated_Source\PSoC5/Counter_1.c **** * Parameters:  
 133:Generated_Source\PSoC5/Counter_1.c **** *  void  
 134:Generated_Source\PSoC5/Counter_1.c **** *
 135:Generated_Source\PSoC5/Counter_1.c **** * Return: 
 136:Generated_Source\PSoC5/Counter_1.c **** *  void
 137:Generated_Source\PSoC5/Counter_1.c **** *
 138:Generated_Source\PSoC5/Counter_1.c **** * Side Effects: 
 139:Generated_Source\PSoC5/Counter_1.c **** *   If the Enable mode is set to Hardware only then this function has no effect 
 140:Generated_Source\PSoC5/Counter_1.c **** *   on the operation of the counter.
 141:Generated_Source\PSoC5/Counter_1.c **** *
ARM GAS  C:\Users\Luggi\AppData\Local\Temp\cc5WLnTe.s 			page 39


 142:Generated_Source\PSoC5/Counter_1.c **** *******************************************************************************/
 143:Generated_Source\PSoC5/Counter_1.c **** void Counter_1_Enable(void) 
 144:Generated_Source\PSoC5/Counter_1.c **** {
 490              		.loc 1 144 0
 491              		.cfi_startproc
 492              		@ args = 0, pretend = 0, frame = 0
 493              		@ frame_needed = 0, uses_anonymous_args = 0
 494              		@ link register save eliminated.
 145:Generated_Source\PSoC5/Counter_1.c ****     /* Globally Enable the Fixed Function Block chosen */
 146:Generated_Source\PSoC5/Counter_1.c ****     #if (Counter_1_UsingFixedFunction)
 147:Generated_Source\PSoC5/Counter_1.c ****         Counter_1_GLOBAL_ENABLE |= Counter_1_BLOCK_EN_MASK;
 495              		.loc 1 147 0
 496 0000 084A     		ldr	r2, .L2
 497 0002 1378     		ldrb	r3, [r2]	@ zero_extendqisi2
 498 0004 43F00103 		orr	r3, r3, #1
 499 0008 1370     		strb	r3, [r2]
 148:Generated_Source\PSoC5/Counter_1.c ****         Counter_1_GLOBAL_STBY_ENABLE |= Counter_1_BLOCK_STBY_EN_MASK;
 500              		.loc 1 148 0
 501 000a 1032     		adds	r2, r2, #16
 502 000c 1378     		ldrb	r3, [r2]	@ zero_extendqisi2
 503 000e 43F00103 		orr	r3, r3, #1
 504 0012 1370     		strb	r3, [r2]
 149:Generated_Source\PSoC5/Counter_1.c ****     #endif /* (Counter_1_UsingFixedFunction) */  
 150:Generated_Source\PSoC5/Counter_1.c ****         
 151:Generated_Source\PSoC5/Counter_1.c ****     /* Enable the counter from the control register  */
 152:Generated_Source\PSoC5/Counter_1.c ****     /* If Fixed Function then make sure Mode is set correctly */
 153:Generated_Source\PSoC5/Counter_1.c ****     /* else make sure reset is clear */
 154:Generated_Source\PSoC5/Counter_1.c ****     #if(!Counter_1_ControlRegRemoved || Counter_1_UsingFixedFunction)
 155:Generated_Source\PSoC5/Counter_1.c ****         Counter_1_CONTROL |= Counter_1_CTRL_ENABLE;                
 505              		.loc 1 155 0
 506 0014 02F64D32 		addw	r2, r2, #2893
 507 0018 1378     		ldrb	r3, [r2]	@ zero_extendqisi2
 508 001a 43F00103 		orr	r3, r3, #1
 509 001e 1370     		strb	r3, [r2]
 510 0020 7047     		bx	lr
 511              	.L3:
 512 0022 00BF     		.align	2
 513              	.L2:
 514 0024 A3430040 		.word	1073759139
 515              		.cfi_endproc
 516              	.LFE1:
 517              		.size	Counter_1_Enable, .-Counter_1_Enable
 518              		.section	.text.Counter_1_Stop,"ax",%progbits
 519              		.align	2
 520              		.global	Counter_1_Stop
 521              		.thumb
 522              		.thumb_func
 523              		.type	Counter_1_Stop, %function
 524              	Counter_1_Stop:
 525              	.LFB3:
 156:Generated_Source\PSoC5/Counter_1.c ****     #endif /* (!Counter_1_ControlRegRemoved || Counter_1_UsingFixedFunction) */
 157:Generated_Source\PSoC5/Counter_1.c ****     
 158:Generated_Source\PSoC5/Counter_1.c **** }
 159:Generated_Source\PSoC5/Counter_1.c **** 
 160:Generated_Source\PSoC5/Counter_1.c **** 
 161:Generated_Source\PSoC5/Counter_1.c **** /*******************************************************************************
 162:Generated_Source\PSoC5/Counter_1.c **** * Function Name: Counter_1_Start
ARM GAS  C:\Users\Luggi\AppData\Local\Temp\cc5WLnTe.s 			page 40


 163:Generated_Source\PSoC5/Counter_1.c **** ********************************************************************************
 164:Generated_Source\PSoC5/Counter_1.c **** * Summary:
 165:Generated_Source\PSoC5/Counter_1.c **** *  Enables the counter for operation 
 166:Generated_Source\PSoC5/Counter_1.c **** *
 167:Generated_Source\PSoC5/Counter_1.c **** * Parameters:  
 168:Generated_Source\PSoC5/Counter_1.c **** *  void  
 169:Generated_Source\PSoC5/Counter_1.c **** *
 170:Generated_Source\PSoC5/Counter_1.c **** * Return: 
 171:Generated_Source\PSoC5/Counter_1.c **** *  void
 172:Generated_Source\PSoC5/Counter_1.c **** *
 173:Generated_Source\PSoC5/Counter_1.c **** * Global variables:
 174:Generated_Source\PSoC5/Counter_1.c **** *  Counter_1_initVar: Is modified when this function is called for the  
 175:Generated_Source\PSoC5/Counter_1.c **** *   first time. Is used to ensure that initialization happens only once.
 176:Generated_Source\PSoC5/Counter_1.c **** *
 177:Generated_Source\PSoC5/Counter_1.c **** *******************************************************************************/
 178:Generated_Source\PSoC5/Counter_1.c **** void Counter_1_Start(void) 
 179:Generated_Source\PSoC5/Counter_1.c **** {
 180:Generated_Source\PSoC5/Counter_1.c ****     if(Counter_1_initVar == 0u)
 181:Generated_Source\PSoC5/Counter_1.c ****     {
 182:Generated_Source\PSoC5/Counter_1.c ****         Counter_1_Init();
 183:Generated_Source\PSoC5/Counter_1.c ****         
 184:Generated_Source\PSoC5/Counter_1.c ****         Counter_1_initVar = 1u; /* Clear this bit for Initialization */        
 185:Generated_Source\PSoC5/Counter_1.c ****     }
 186:Generated_Source\PSoC5/Counter_1.c ****     
 187:Generated_Source\PSoC5/Counter_1.c ****     /* Enable the Counter */
 188:Generated_Source\PSoC5/Counter_1.c ****     Counter_1_Enable();        
 189:Generated_Source\PSoC5/Counter_1.c **** }
 190:Generated_Source\PSoC5/Counter_1.c **** 
 191:Generated_Source\PSoC5/Counter_1.c **** 
 192:Generated_Source\PSoC5/Counter_1.c **** /*******************************************************************************
 193:Generated_Source\PSoC5/Counter_1.c **** * Function Name: Counter_1_Stop
 194:Generated_Source\PSoC5/Counter_1.c **** ********************************************************************************
 195:Generated_Source\PSoC5/Counter_1.c **** * Summary:
 196:Generated_Source\PSoC5/Counter_1.c **** * Halts the counter, but does not change any modes or disable interrupts.
 197:Generated_Source\PSoC5/Counter_1.c **** *
 198:Generated_Source\PSoC5/Counter_1.c **** * Parameters:  
 199:Generated_Source\PSoC5/Counter_1.c **** *  void  
 200:Generated_Source\PSoC5/Counter_1.c **** *
 201:Generated_Source\PSoC5/Counter_1.c **** * Return: 
 202:Generated_Source\PSoC5/Counter_1.c **** *  void
 203:Generated_Source\PSoC5/Counter_1.c **** *
 204:Generated_Source\PSoC5/Counter_1.c **** * Side Effects: If the Enable mode is set to Hardware only then this function
 205:Generated_Source\PSoC5/Counter_1.c **** *               has no effect on the operation of the counter.
 206:Generated_Source\PSoC5/Counter_1.c **** *
 207:Generated_Source\PSoC5/Counter_1.c **** *******************************************************************************/
 208:Generated_Source\PSoC5/Counter_1.c **** void Counter_1_Stop(void) 
 209:Generated_Source\PSoC5/Counter_1.c **** {
 526              		.loc 1 209 0
 527              		.cfi_startproc
 528              		@ args = 0, pretend = 0, frame = 0
 529              		@ frame_needed = 0, uses_anonymous_args = 0
 530              		@ link register save eliminated.
 210:Generated_Source\PSoC5/Counter_1.c ****     /* Disable Counter */
 211:Generated_Source\PSoC5/Counter_1.c ****     #if(!Counter_1_ControlRegRemoved || Counter_1_UsingFixedFunction)
 212:Generated_Source\PSoC5/Counter_1.c ****         Counter_1_CONTROL &= ((uint8)(~Counter_1_CTRL_ENABLE));        
 531              		.loc 1 212 0
 532 0000 084A     		ldr	r2, .L5
ARM GAS  C:\Users\Luggi\AppData\Local\Temp\cc5WLnTe.s 			page 41


 533 0002 1378     		ldrb	r3, [r2]	@ zero_extendqisi2
 534 0004 03F0FE03 		and	r3, r3, #254
 535 0008 1370     		strb	r3, [r2]
 213:Generated_Source\PSoC5/Counter_1.c ****     #endif /* (!Counter_1_ControlRegRemoved || Counter_1_UsingFixedFunction) */
 214:Generated_Source\PSoC5/Counter_1.c ****     
 215:Generated_Source\PSoC5/Counter_1.c ****     /* Globally disable the Fixed Function Block chosen */
 216:Generated_Source\PSoC5/Counter_1.c ****     #if (Counter_1_UsingFixedFunction)
 217:Generated_Source\PSoC5/Counter_1.c ****         Counter_1_GLOBAL_ENABLE &= ((uint8)(~Counter_1_BLOCK_EN_MASK));
 536              		.loc 1 217 0
 537 000a A2F65D32 		subw	r2, r2, #2909
 538 000e 1378     		ldrb	r3, [r2]	@ zero_extendqisi2
 539 0010 03F0FE03 		and	r3, r3, #254
 540 0014 1370     		strb	r3, [r2]
 218:Generated_Source\PSoC5/Counter_1.c ****         Counter_1_GLOBAL_STBY_ENABLE &= ((uint8)(~Counter_1_BLOCK_STBY_EN_MASK));
 541              		.loc 1 218 0
 542 0016 1032     		adds	r2, r2, #16
 543 0018 1378     		ldrb	r3, [r2]	@ zero_extendqisi2
 544 001a 03F0FE03 		and	r3, r3, #254
 545 001e 1370     		strb	r3, [r2]
 546 0020 7047     		bx	lr
 547              	.L6:
 548 0022 00BF     		.align	2
 549              	.L5:
 550 0024 004F0040 		.word	1073762048
 551              		.cfi_endproc
 552              	.LFE3:
 553              		.size	Counter_1_Stop, .-Counter_1_Stop
 554              		.section	.text.Counter_1_SetInterruptMode,"ax",%progbits
 555              		.align	2
 556              		.global	Counter_1_SetInterruptMode
 557              		.thumb
 558              		.thumb_func
 559              		.type	Counter_1_SetInterruptMode, %function
 560              	Counter_1_SetInterruptMode:
 561              	.LFB4:
 219:Generated_Source\PSoC5/Counter_1.c ****     #endif /* (Counter_1_UsingFixedFunction) */
 220:Generated_Source\PSoC5/Counter_1.c **** }
 221:Generated_Source\PSoC5/Counter_1.c **** 
 222:Generated_Source\PSoC5/Counter_1.c **** 
 223:Generated_Source\PSoC5/Counter_1.c **** /*******************************************************************************
 224:Generated_Source\PSoC5/Counter_1.c **** * Function Name: Counter_1_SetInterruptMode
 225:Generated_Source\PSoC5/Counter_1.c **** ********************************************************************************
 226:Generated_Source\PSoC5/Counter_1.c **** * Summary:
 227:Generated_Source\PSoC5/Counter_1.c **** * Configures which interrupt sources are enabled to generate the final interrupt
 228:Generated_Source\PSoC5/Counter_1.c **** *
 229:Generated_Source\PSoC5/Counter_1.c **** * Parameters:  
 230:Generated_Source\PSoC5/Counter_1.c **** *  InterruptsMask: This parameter is an or'd collection of the status bits
 231:Generated_Source\PSoC5/Counter_1.c **** *                   which will be allowed to generate the counters interrupt.   
 232:Generated_Source\PSoC5/Counter_1.c **** *
 233:Generated_Source\PSoC5/Counter_1.c **** * Return: 
 234:Generated_Source\PSoC5/Counter_1.c **** *  void
 235:Generated_Source\PSoC5/Counter_1.c **** *
 236:Generated_Source\PSoC5/Counter_1.c **** *******************************************************************************/
 237:Generated_Source\PSoC5/Counter_1.c **** void Counter_1_SetInterruptMode(uint8 interruptsMask) 
 238:Generated_Source\PSoC5/Counter_1.c **** {
 562              		.loc 1 238 0
 563              		.cfi_startproc
ARM GAS  C:\Users\Luggi\AppData\Local\Temp\cc5WLnTe.s 			page 42


 564              		@ args = 0, pretend = 0, frame = 0
 565              		@ frame_needed = 0, uses_anonymous_args = 0
 566              		@ link register save eliminated.
 567              	.LVL0:
 239:Generated_Source\PSoC5/Counter_1.c ****     Counter_1_STATUS_MASK = interruptsMask;
 568              		.loc 1 239 0
 569 0000 014B     		ldr	r3, .L8
 570 0002 1870     		strb	r0, [r3]
 571 0004 7047     		bx	lr
 572              	.L9:
 573 0006 00BF     		.align	2
 574              	.L8:
 575 0008 034F0040 		.word	1073762051
 576              		.cfi_endproc
 577              	.LFE4:
 578              		.size	Counter_1_SetInterruptMode, .-Counter_1_SetInterruptMode
 579              		.section	.text.Counter_1_ReadStatusRegister,"ax",%progbits
 580              		.align	2
 581              		.global	Counter_1_ReadStatusRegister
 582              		.thumb
 583              		.thumb_func
 584              		.type	Counter_1_ReadStatusRegister, %function
 585              	Counter_1_ReadStatusRegister:
 586              	.LFB5:
 240:Generated_Source\PSoC5/Counter_1.c **** }
 241:Generated_Source\PSoC5/Counter_1.c **** 
 242:Generated_Source\PSoC5/Counter_1.c **** 
 243:Generated_Source\PSoC5/Counter_1.c **** /*******************************************************************************
 244:Generated_Source\PSoC5/Counter_1.c **** * Function Name: Counter_1_ReadStatusRegister
 245:Generated_Source\PSoC5/Counter_1.c **** ********************************************************************************
 246:Generated_Source\PSoC5/Counter_1.c **** * Summary:
 247:Generated_Source\PSoC5/Counter_1.c **** *   Reads the status register and returns it's state. This function should use
 248:Generated_Source\PSoC5/Counter_1.c **** *       defined types for the bit-field information as the bits in this
 249:Generated_Source\PSoC5/Counter_1.c **** *       register may be permuteable.
 250:Generated_Source\PSoC5/Counter_1.c **** *
 251:Generated_Source\PSoC5/Counter_1.c **** * Parameters:  
 252:Generated_Source\PSoC5/Counter_1.c **** *  void
 253:Generated_Source\PSoC5/Counter_1.c **** *
 254:Generated_Source\PSoC5/Counter_1.c **** * Return: 
 255:Generated_Source\PSoC5/Counter_1.c **** *  (uint8) The contents of the status register
 256:Generated_Source\PSoC5/Counter_1.c **** *
 257:Generated_Source\PSoC5/Counter_1.c **** * Side Effects:
 258:Generated_Source\PSoC5/Counter_1.c **** *   Status register bits may be clear on read. 
 259:Generated_Source\PSoC5/Counter_1.c **** *
 260:Generated_Source\PSoC5/Counter_1.c **** *******************************************************************************/
 261:Generated_Source\PSoC5/Counter_1.c **** uint8   Counter_1_ReadStatusRegister(void) 
 262:Generated_Source\PSoC5/Counter_1.c **** {
 587              		.loc 1 262 0
 588              		.cfi_startproc
 589              		@ args = 0, pretend = 0, frame = 0
 590              		@ frame_needed = 0, uses_anonymous_args = 0
 591              		@ link register save eliminated.
 263:Generated_Source\PSoC5/Counter_1.c ****     return Counter_1_STATUS;
 592              		.loc 1 263 0
 593 0000 014B     		ldr	r3, .L11
 594 0002 1878     		ldrb	r0, [r3]	@ zero_extendqisi2
 264:Generated_Source\PSoC5/Counter_1.c **** }
ARM GAS  C:\Users\Luggi\AppData\Local\Temp\cc5WLnTe.s 			page 43


 595              		.loc 1 264 0
 596 0004 7047     		bx	lr
 597              	.L12:
 598 0006 00BF     		.align	2
 599              	.L11:
 600 0008 034F0040 		.word	1073762051
 601              		.cfi_endproc
 602              	.LFE5:
 603              		.size	Counter_1_ReadStatusRegister, .-Counter_1_ReadStatusRegister
 604              		.section	.text.Counter_1_ReadControlRegister,"ax",%progbits
 605              		.align	2
 606              		.global	Counter_1_ReadControlRegister
 607              		.thumb
 608              		.thumb_func
 609              		.type	Counter_1_ReadControlRegister, %function
 610              	Counter_1_ReadControlRegister:
 611              	.LFB6:
 265:Generated_Source\PSoC5/Counter_1.c **** 
 266:Generated_Source\PSoC5/Counter_1.c **** 
 267:Generated_Source\PSoC5/Counter_1.c **** #if(!Counter_1_ControlRegRemoved)
 268:Generated_Source\PSoC5/Counter_1.c **** /*******************************************************************************
 269:Generated_Source\PSoC5/Counter_1.c **** * Function Name: Counter_1_ReadControlRegister
 270:Generated_Source\PSoC5/Counter_1.c **** ********************************************************************************
 271:Generated_Source\PSoC5/Counter_1.c **** * Summary:
 272:Generated_Source\PSoC5/Counter_1.c **** *   Reads the control register and returns it's state. This function should use
 273:Generated_Source\PSoC5/Counter_1.c **** *       defined types for the bit-field information as the bits in this
 274:Generated_Source\PSoC5/Counter_1.c **** *       register may be permuteable.
 275:Generated_Source\PSoC5/Counter_1.c **** *
 276:Generated_Source\PSoC5/Counter_1.c **** * Parameters:  
 277:Generated_Source\PSoC5/Counter_1.c **** *  void
 278:Generated_Source\PSoC5/Counter_1.c **** *
 279:Generated_Source\PSoC5/Counter_1.c **** * Return: 
 280:Generated_Source\PSoC5/Counter_1.c **** *  (uint8) The contents of the control register
 281:Generated_Source\PSoC5/Counter_1.c **** *
 282:Generated_Source\PSoC5/Counter_1.c **** *******************************************************************************/
 283:Generated_Source\PSoC5/Counter_1.c **** uint8   Counter_1_ReadControlRegister(void) 
 284:Generated_Source\PSoC5/Counter_1.c **** {
 612              		.loc 1 284 0
 613              		.cfi_startproc
 614              		@ args = 0, pretend = 0, frame = 0
 615              		@ frame_needed = 0, uses_anonymous_args = 0
 616              		@ link register save eliminated.
 285:Generated_Source\PSoC5/Counter_1.c ****     return Counter_1_CONTROL;
 617              		.loc 1 285 0
 618 0000 014B     		ldr	r3, .L14
 619 0002 1878     		ldrb	r0, [r3]	@ zero_extendqisi2
 286:Generated_Source\PSoC5/Counter_1.c **** }
 620              		.loc 1 286 0
 621 0004 7047     		bx	lr
 622              	.L15:
 623 0006 00BF     		.align	2
 624              	.L14:
 625 0008 004F0040 		.word	1073762048
 626              		.cfi_endproc
 627              	.LFE6:
 628              		.size	Counter_1_ReadControlRegister, .-Counter_1_ReadControlRegister
 629              		.section	.text.Counter_1_WriteControlRegister,"ax",%progbits
ARM GAS  C:\Users\Luggi\AppData\Local\Temp\cc5WLnTe.s 			page 44


 630              		.align	2
 631              		.global	Counter_1_WriteControlRegister
 632              		.thumb
 633              		.thumb_func
 634              		.type	Counter_1_WriteControlRegister, %function
 635              	Counter_1_WriteControlRegister:
 636              	.LFB7:
 287:Generated_Source\PSoC5/Counter_1.c **** 
 288:Generated_Source\PSoC5/Counter_1.c **** 
 289:Generated_Source\PSoC5/Counter_1.c **** /*******************************************************************************
 290:Generated_Source\PSoC5/Counter_1.c **** * Function Name: Counter_1_WriteControlRegister
 291:Generated_Source\PSoC5/Counter_1.c **** ********************************************************************************
 292:Generated_Source\PSoC5/Counter_1.c **** * Summary:
 293:Generated_Source\PSoC5/Counter_1.c **** *   Sets the bit-field of the control register.  This function should use
 294:Generated_Source\PSoC5/Counter_1.c **** *       defined types for the bit-field information as the bits in this
 295:Generated_Source\PSoC5/Counter_1.c **** *       register may be permuteable.
 296:Generated_Source\PSoC5/Counter_1.c **** *
 297:Generated_Source\PSoC5/Counter_1.c **** * Parameters:  
 298:Generated_Source\PSoC5/Counter_1.c **** *  void
 299:Generated_Source\PSoC5/Counter_1.c **** *
 300:Generated_Source\PSoC5/Counter_1.c **** * Return: 
 301:Generated_Source\PSoC5/Counter_1.c **** *  (uint8) The contents of the control register
 302:Generated_Source\PSoC5/Counter_1.c **** *
 303:Generated_Source\PSoC5/Counter_1.c **** *******************************************************************************/
 304:Generated_Source\PSoC5/Counter_1.c **** void    Counter_1_WriteControlRegister(uint8 control) 
 305:Generated_Source\PSoC5/Counter_1.c **** {
 637              		.loc 1 305 0
 638              		.cfi_startproc
 639              		@ args = 0, pretend = 0, frame = 0
 640              		@ frame_needed = 0, uses_anonymous_args = 0
 641              		@ link register save eliminated.
 642              	.LVL1:
 306:Generated_Source\PSoC5/Counter_1.c ****     Counter_1_CONTROL = control;
 643              		.loc 1 306 0
 644 0000 014B     		ldr	r3, .L17
 645 0002 1870     		strb	r0, [r3]
 646 0004 7047     		bx	lr
 647              	.L18:
 648 0006 00BF     		.align	2
 649              	.L17:
 650 0008 004F0040 		.word	1073762048
 651              		.cfi_endproc
 652              	.LFE7:
 653              		.size	Counter_1_WriteControlRegister, .-Counter_1_WriteControlRegister
 654              		.section	.text.Counter_1_WriteCounter,"ax",%progbits
 655              		.align	2
 656              		.global	Counter_1_WriteCounter
 657              		.thumb
 658              		.thumb_func
 659              		.type	Counter_1_WriteCounter, %function
 660              	Counter_1_WriteCounter:
 661              	.LFB8:
 307:Generated_Source\PSoC5/Counter_1.c **** }
 308:Generated_Source\PSoC5/Counter_1.c **** 
 309:Generated_Source\PSoC5/Counter_1.c **** #endif  /* (!Counter_1_ControlRegRemoved) */
 310:Generated_Source\PSoC5/Counter_1.c **** 
 311:Generated_Source\PSoC5/Counter_1.c **** 
ARM GAS  C:\Users\Luggi\AppData\Local\Temp\cc5WLnTe.s 			page 45


 312:Generated_Source\PSoC5/Counter_1.c **** #if (!(Counter_1_UsingFixedFunction && (CY_PSOC5A)))
 313:Generated_Source\PSoC5/Counter_1.c **** /*******************************************************************************
 314:Generated_Source\PSoC5/Counter_1.c **** * Function Name: Counter_1_WriteCounter
 315:Generated_Source\PSoC5/Counter_1.c **** ********************************************************************************
 316:Generated_Source\PSoC5/Counter_1.c **** * Summary:
 317:Generated_Source\PSoC5/Counter_1.c **** *   This funtion is used to set the counter to a specific value
 318:Generated_Source\PSoC5/Counter_1.c **** *
 319:Generated_Source\PSoC5/Counter_1.c **** * Parameters:  
 320:Generated_Source\PSoC5/Counter_1.c **** *  counter:  New counter value. 
 321:Generated_Source\PSoC5/Counter_1.c **** *
 322:Generated_Source\PSoC5/Counter_1.c **** * Return: 
 323:Generated_Source\PSoC5/Counter_1.c **** *  void 
 324:Generated_Source\PSoC5/Counter_1.c **** *
 325:Generated_Source\PSoC5/Counter_1.c **** *******************************************************************************/
 326:Generated_Source\PSoC5/Counter_1.c **** void Counter_1_WriteCounter(uint16 counter) \
 327:Generated_Source\PSoC5/Counter_1.c ****                                    
 328:Generated_Source\PSoC5/Counter_1.c **** {
 662              		.loc 1 328 0
 663              		.cfi_startproc
 664              		@ args = 0, pretend = 0, frame = 0
 665              		@ frame_needed = 0, uses_anonymous_args = 0
 666              	.LVL2:
 667 0000 10B5     		push	{r4, lr}
 668              		.cfi_def_cfa_offset 8
 669              		.cfi_offset 4, -8
 670              		.cfi_offset 14, -4
 671 0002 0446     		mov	r4, r0
 329:Generated_Source\PSoC5/Counter_1.c ****     #if(Counter_1_UsingFixedFunction)
 330:Generated_Source\PSoC5/Counter_1.c ****         /* assert if block is already enabled */
 331:Generated_Source\PSoC5/Counter_1.c ****         CYASSERT (0u == (Counter_1_GLOBAL_ENABLE & Counter_1_BLOCK_EN_MASK));
 672              		.loc 1 331 0
 673 0004 094B     		ldr	r3, .L22
 674 0006 1B78     		ldrb	r3, [r3]	@ zero_extendqisi2
 675 0008 13F0010F 		tst	r3, #1
 676 000c 02D0     		beq	.L20
 677              		.loc 1 331 0 is_stmt 0 discriminator 1
 678 000e 0020     		movs	r0, #0
 679              	.LVL3:
 680 0010 FFF7FEFF 		bl	CyHalt
 681              	.LVL4:
 682              	.L20:
 332:Generated_Source\PSoC5/Counter_1.c ****         /* If block is disabled, enable it and then write the counter */
 333:Generated_Source\PSoC5/Counter_1.c ****         Counter_1_GLOBAL_ENABLE |= Counter_1_BLOCK_EN_MASK;
 683              		.loc 1 333 0 is_stmt 1
 684 0014 054B     		ldr	r3, .L22
 685 0016 1A78     		ldrb	r2, [r3]	@ zero_extendqisi2
 686 0018 42F00102 		orr	r2, r2, #1
 687 001c 1A70     		strb	r2, [r3]
 334:Generated_Source\PSoC5/Counter_1.c ****         CY_SET_REG16(Counter_1_COUNTER_LSB_PTR, (uint16)counter);
 688              		.loc 1 334 0
 689 001e 044A     		ldr	r2, .L22+4
 690 0020 1480     		strh	r4, [r2]	@ movhi
 335:Generated_Source\PSoC5/Counter_1.c ****         Counter_1_GLOBAL_ENABLE &= ((uint8)(~Counter_1_BLOCK_EN_MASK));
 691              		.loc 1 335 0
 692 0022 1A78     		ldrb	r2, [r3]	@ zero_extendqisi2
 693 0024 02F0FE02 		and	r2, r2, #254
 694 0028 1A70     		strb	r2, [r3]
ARM GAS  C:\Users\Luggi\AppData\Local\Temp\cc5WLnTe.s 			page 46


 695 002a 10BD     		pop	{r4, pc}
 696              	.L23:
 697              		.align	2
 698              	.L22:
 699 002c A3430040 		.word	1073759139
 700 0030 064F0040 		.word	1073762054
 701              		.cfi_endproc
 702              	.LFE8:
 703              		.size	Counter_1_WriteCounter, .-Counter_1_WriteCounter
 704              		.section	.text.Counter_1_ReadCounter,"ax",%progbits
 705              		.align	2
 706              		.global	Counter_1_ReadCounter
 707              		.thumb
 708              		.thumb_func
 709              		.type	Counter_1_ReadCounter, %function
 710              	Counter_1_ReadCounter:
 711              	.LFB9:
 336:Generated_Source\PSoC5/Counter_1.c ****     #else
 337:Generated_Source\PSoC5/Counter_1.c ****         CY_SET_REG16(Counter_1_COUNTER_LSB_PTR, counter);
 338:Generated_Source\PSoC5/Counter_1.c ****     #endif /* (Counter_1_UsingFixedFunction) */
 339:Generated_Source\PSoC5/Counter_1.c **** }
 340:Generated_Source\PSoC5/Counter_1.c **** #endif /* (!(Counter_1_UsingFixedFunction && (CY_PSOC5A))) */
 341:Generated_Source\PSoC5/Counter_1.c **** 
 342:Generated_Source\PSoC5/Counter_1.c **** 
 343:Generated_Source\PSoC5/Counter_1.c **** /*******************************************************************************
 344:Generated_Source\PSoC5/Counter_1.c **** * Function Name: Counter_1_ReadCounter
 345:Generated_Source\PSoC5/Counter_1.c **** ********************************************************************************
 346:Generated_Source\PSoC5/Counter_1.c **** * Summary:
 347:Generated_Source\PSoC5/Counter_1.c **** * Returns the current value of the counter.  It doesn't matter
 348:Generated_Source\PSoC5/Counter_1.c **** * if the counter is enabled or running.
 349:Generated_Source\PSoC5/Counter_1.c **** *
 350:Generated_Source\PSoC5/Counter_1.c **** * Parameters:  
 351:Generated_Source\PSoC5/Counter_1.c **** *  void:  
 352:Generated_Source\PSoC5/Counter_1.c **** *
 353:Generated_Source\PSoC5/Counter_1.c **** * Return: 
 354:Generated_Source\PSoC5/Counter_1.c **** *  (uint16) The present value of the counter.
 355:Generated_Source\PSoC5/Counter_1.c **** *
 356:Generated_Source\PSoC5/Counter_1.c **** *******************************************************************************/
 357:Generated_Source\PSoC5/Counter_1.c **** uint16 Counter_1_ReadCounter(void) 
 358:Generated_Source\PSoC5/Counter_1.c **** {
 712              		.loc 1 358 0
 713              		.cfi_startproc
 714              		@ args = 0, pretend = 0, frame = 0
 715              		@ frame_needed = 0, uses_anonymous_args = 0
 716              		@ link register save eliminated.
 359:Generated_Source\PSoC5/Counter_1.c ****     /* Force capture by reading Accumulator */
 360:Generated_Source\PSoC5/Counter_1.c ****     /* Must first do a software capture to be able to read the counter */
 361:Generated_Source\PSoC5/Counter_1.c ****     /* It is up to the user code to make sure there isn't already captured data in the FIFO */
 362:Generated_Source\PSoC5/Counter_1.c ****     #if(Counter_1_UsingFixedFunction)
 363:Generated_Source\PSoC5/Counter_1.c **** 		(void)CY_GET_REG16(Counter_1_COUNTER_LSB_PTR);
 717              		.loc 1 363 0
 718 0000 024B     		ldr	r3, .L25
 719 0002 1B88     		ldrh	r3, [r3]
 364:Generated_Source\PSoC5/Counter_1.c **** 	#else
 365:Generated_Source\PSoC5/Counter_1.c **** 		(void)CY_GET_REG8(Counter_1_COUNTER_LSB_PTR_8BIT);
 366:Generated_Source\PSoC5/Counter_1.c **** 	#endif/* (Counter_1_UsingFixedFunction) */
 367:Generated_Source\PSoC5/Counter_1.c ****     
ARM GAS  C:\Users\Luggi\AppData\Local\Temp\cc5WLnTe.s 			page 47


 368:Generated_Source\PSoC5/Counter_1.c ****     /* Read the data from the FIFO (or capture register for Fixed Function)*/
 369:Generated_Source\PSoC5/Counter_1.c ****     #if(Counter_1_UsingFixedFunction)
 370:Generated_Source\PSoC5/Counter_1.c ****         return ((uint16)CY_GET_REG16(Counter_1_STATICCOUNT_LSB_PTR));
 720              		.loc 1 370 0
 721 0004 024B     		ldr	r3, .L25+4
 722 0006 1888     		ldrh	r0, [r3]
 371:Generated_Source\PSoC5/Counter_1.c ****     #else
 372:Generated_Source\PSoC5/Counter_1.c ****         return (CY_GET_REG16(Counter_1_STATICCOUNT_LSB_PTR));
 373:Generated_Source\PSoC5/Counter_1.c ****     #endif /* (Counter_1_UsingFixedFunction) */
 374:Generated_Source\PSoC5/Counter_1.c **** }
 723              		.loc 1 374 0
 724 0008 80B2     		uxth	r0, r0
 725 000a 7047     		bx	lr
 726              	.L26:
 727              		.align	2
 728              	.L25:
 729 000c 064F0040 		.word	1073762054
 730 0010 084F0040 		.word	1073762056
 731              		.cfi_endproc
 732              	.LFE9:
 733              		.size	Counter_1_ReadCounter, .-Counter_1_ReadCounter
 734              		.section	.text.Counter_1_ReadCapture,"ax",%progbits
 735              		.align	2
 736              		.global	Counter_1_ReadCapture
 737              		.thumb
 738              		.thumb_func
 739              		.type	Counter_1_ReadCapture, %function
 740              	Counter_1_ReadCapture:
 741              	.LFB10:
 375:Generated_Source\PSoC5/Counter_1.c **** 
 376:Generated_Source\PSoC5/Counter_1.c **** 
 377:Generated_Source\PSoC5/Counter_1.c **** /*******************************************************************************
 378:Generated_Source\PSoC5/Counter_1.c **** * Function Name: Counter_1_ReadCapture
 379:Generated_Source\PSoC5/Counter_1.c **** ********************************************************************************
 380:Generated_Source\PSoC5/Counter_1.c **** * Summary:
 381:Generated_Source\PSoC5/Counter_1.c **** *   This function returns the last value captured.
 382:Generated_Source\PSoC5/Counter_1.c **** *
 383:Generated_Source\PSoC5/Counter_1.c **** * Parameters:  
 384:Generated_Source\PSoC5/Counter_1.c **** *  void
 385:Generated_Source\PSoC5/Counter_1.c **** *
 386:Generated_Source\PSoC5/Counter_1.c **** * Return: 
 387:Generated_Source\PSoC5/Counter_1.c **** *  (uint16) Present Capture value.
 388:Generated_Source\PSoC5/Counter_1.c **** *
 389:Generated_Source\PSoC5/Counter_1.c **** *******************************************************************************/
 390:Generated_Source\PSoC5/Counter_1.c **** uint16 Counter_1_ReadCapture(void) 
 391:Generated_Source\PSoC5/Counter_1.c **** {
 742              		.loc 1 391 0
 743              		.cfi_startproc
 744              		@ args = 0, pretend = 0, frame = 0
 745              		@ frame_needed = 0, uses_anonymous_args = 0
 746              		@ link register save eliminated.
 392:Generated_Source\PSoC5/Counter_1.c ****     #if(Counter_1_UsingFixedFunction)
 393:Generated_Source\PSoC5/Counter_1.c ****         return ((uint16)CY_GET_REG16(Counter_1_STATICCOUNT_LSB_PTR));
 747              		.loc 1 393 0
 748 0000 014B     		ldr	r3, .L28
 749 0002 1888     		ldrh	r0, [r3]
 394:Generated_Source\PSoC5/Counter_1.c ****     #else
ARM GAS  C:\Users\Luggi\AppData\Local\Temp\cc5WLnTe.s 			page 48


 395:Generated_Source\PSoC5/Counter_1.c ****         return (CY_GET_REG16(Counter_1_STATICCOUNT_LSB_PTR));
 396:Generated_Source\PSoC5/Counter_1.c ****     #endif /* (Counter_1_UsingFixedFunction) */
 397:Generated_Source\PSoC5/Counter_1.c **** }
 750              		.loc 1 397 0
 751 0004 80B2     		uxth	r0, r0
 752 0006 7047     		bx	lr
 753              	.L29:
 754              		.align	2
 755              	.L28:
 756 0008 084F0040 		.word	1073762056
 757              		.cfi_endproc
 758              	.LFE10:
 759              		.size	Counter_1_ReadCapture, .-Counter_1_ReadCapture
 760              		.section	.text.Counter_1_WritePeriod,"ax",%progbits
 761              		.align	2
 762              		.global	Counter_1_WritePeriod
 763              		.thumb
 764              		.thumb_func
 765              		.type	Counter_1_WritePeriod, %function
 766              	Counter_1_WritePeriod:
 767              	.LFB11:
 398:Generated_Source\PSoC5/Counter_1.c **** 
 399:Generated_Source\PSoC5/Counter_1.c **** 
 400:Generated_Source\PSoC5/Counter_1.c **** /*******************************************************************************
 401:Generated_Source\PSoC5/Counter_1.c **** * Function Name: Counter_1_WritePeriod
 402:Generated_Source\PSoC5/Counter_1.c **** ********************************************************************************
 403:Generated_Source\PSoC5/Counter_1.c **** * Summary:
 404:Generated_Source\PSoC5/Counter_1.c **** * Changes the period of the counter.  The new period 
 405:Generated_Source\PSoC5/Counter_1.c **** * will be loaded the next time terminal count is detected.
 406:Generated_Source\PSoC5/Counter_1.c **** *
 407:Generated_Source\PSoC5/Counter_1.c **** * Parameters:  
 408:Generated_Source\PSoC5/Counter_1.c **** *  period: (uint16) A value of 0 will result in
 409:Generated_Source\PSoC5/Counter_1.c **** *         the counter remaining at zero.  
 410:Generated_Source\PSoC5/Counter_1.c **** *
 411:Generated_Source\PSoC5/Counter_1.c **** * Return: 
 412:Generated_Source\PSoC5/Counter_1.c **** *  void
 413:Generated_Source\PSoC5/Counter_1.c **** *
 414:Generated_Source\PSoC5/Counter_1.c **** *******************************************************************************/
 415:Generated_Source\PSoC5/Counter_1.c **** void Counter_1_WritePeriod(uint16 period) 
 416:Generated_Source\PSoC5/Counter_1.c **** {
 768              		.loc 1 416 0
 769              		.cfi_startproc
 770              		@ args = 0, pretend = 0, frame = 0
 771              		@ frame_needed = 0, uses_anonymous_args = 0
 772              		@ link register save eliminated.
 773              	.LVL5:
 417:Generated_Source\PSoC5/Counter_1.c ****     #if(Counter_1_UsingFixedFunction)
 418:Generated_Source\PSoC5/Counter_1.c ****         CY_SET_REG16(Counter_1_PERIOD_LSB_PTR,(uint16)period);
 774              		.loc 1 418 0
 775 0000 014B     		ldr	r3, .L31
 776 0002 1880     		strh	r0, [r3]	@ movhi
 777 0004 7047     		bx	lr
 778              	.L32:
 779 0006 00BF     		.align	2
 780              	.L31:
 781 0008 044F0040 		.word	1073762052
 782              		.cfi_endproc
ARM GAS  C:\Users\Luggi\AppData\Local\Temp\cc5WLnTe.s 			page 49


 783              	.LFE11:
 784              		.size	Counter_1_WritePeriod, .-Counter_1_WritePeriod
 785              		.section	.text.Counter_1_Init,"ax",%progbits
 786              		.align	2
 787              		.global	Counter_1_Init
 788              		.thumb
 789              		.thumb_func
 790              		.type	Counter_1_Init, %function
 791              	Counter_1_Init:
 792              	.LFB0:
  38:Generated_Source\PSoC5/Counter_1.c ****         #if (!Counter_1_UsingFixedFunction && !Counter_1_ControlRegRemoved)
 793              		.loc 1 38 0
 794              		.cfi_startproc
 795              		@ args = 0, pretend = 0, frame = 0
 796              		@ frame_needed = 0, uses_anonymous_args = 0
 797 0000 08B5     		push	{r3, lr}
 798              		.cfi_def_cfa_offset 8
 799              		.cfi_offset 3, -8
 800              		.cfi_offset 14, -4
  50:Generated_Source\PSoC5/Counter_1.c ****             
 801              		.loc 1 50 0
 802 0002 164A     		ldr	r2, .L35
 803 0004 1378     		ldrb	r3, [r2]	@ zero_extendqisi2
 804 0006 03F00103 		and	r3, r3, #1
 805 000a 1370     		strb	r3, [r2]
  57:Generated_Source\PSoC5/Counter_1.c ****             #endif /* (CY_PSOC3 || CY_PSOC5LP) */
 806              		.loc 1 57 0
 807 000c 0232     		adds	r2, r2, #2
 808 000e 1378     		ldrb	r3, [r2]	@ zero_extendqisi2
 809 0010 03F0FC03 		and	r3, r3, #252
 810 0014 1370     		strb	r3, [r2]
  66:Generated_Source\PSoC5/Counter_1.c ****             
 811              		.loc 1 66 0
 812 0016 013A     		subs	r2, r2, #1
 813 0018 1378     		ldrb	r3, [r2]	@ zero_extendqisi2
 814 001a 43F00103 		orr	r3, r3, #1
 815 001e 1370     		strb	r3, [r2]
  69:Generated_Source\PSoC5/Counter_1.c ****             Counter_1_RT1 |= Counter_1_SYNC;     
 816              		.loc 1 69 0
 817 0020 0F4B     		ldr	r3, .L35+4
 818 0022 1A78     		ldrb	r2, [r3]	@ zero_extendqisi2
 819 0024 02F0CF02 		and	r2, r2, #207
 820 0028 1A70     		strb	r2, [r3]
  70:Generated_Source\PSoC5/Counter_1.c ****                     
 821              		.loc 1 70 0
 822 002a 1A78     		ldrb	r2, [r3]	@ zero_extendqisi2
 823 002c 42F03002 		orr	r2, r2, #48
 824 0030 1A70     		strb	r2, [r3]
  73:Generated_Source\PSoC5/Counter_1.c ****             Counter_1_RT1 |= Counter_1_SYNCDSI_EN;
 825              		.loc 1 73 0
 826 0032 1A78     		ldrb	r2, [r3]	@ zero_extendqisi2
 827 0034 02F0F002 		and	r2, r2, #240
 828 0038 1A70     		strb	r2, [r3]
  74:Generated_Source\PSoC5/Counter_1.c **** 
 829              		.loc 1 74 0
 830 003a 1A78     		ldrb	r2, [r3]	@ zero_extendqisi2
 831 003c 42F00F02 		orr	r2, r2, #15
ARM GAS  C:\Users\Luggi\AppData\Local\Temp\cc5WLnTe.s 			page 50


 832 0040 1A70     		strb	r2, [r3]
 100:Generated_Source\PSoC5/Counter_1.c ****         #if (!(Counter_1_UsingFixedFunction && (CY_PSOC5A)))
 833              		.loc 1 100 0
 834 0042 4FF49650 		mov	r0, #4800
 835 0046 FFF7FEFF 		bl	Counter_1_WritePeriod
 836              	.LVL6:
 102:Generated_Source\PSoC5/Counter_1.c ****         #endif /* (!(Counter_1_UsingFixedFunction && (CY_PSOC5A))) */
 837              		.loc 1 102 0
 838 004a 4FF49650 		mov	r0, #4800
 839 004e FFF7FEFF 		bl	Counter_1_WriteCounter
 840              	.LVL7:
 104:Generated_Source\PSoC5/Counter_1.c ****         
 841              		.loc 1 104 0
 842 0052 0820     		movs	r0, #8
 843 0054 FFF7FEFF 		bl	Counter_1_SetInterruptMode
 844              	.LVL8:
 845 0058 08BD     		pop	{r3, pc}
 846              	.L36:
 847 005a 00BF     		.align	2
 848              	.L35:
 849 005c 004F0040 		.word	1073762048
 850 0060 0B4F0040 		.word	1073762059
 851              		.cfi_endproc
 852              	.LFE0:
 853              		.size	Counter_1_Init, .-Counter_1_Init
 854              		.section	.text.Counter_1_Start,"ax",%progbits
 855              		.align	2
 856              		.global	Counter_1_Start
 857              		.thumb
 858              		.thumb_func
 859              		.type	Counter_1_Start, %function
 860              	Counter_1_Start:
 861              	.LFB2:
 179:Generated_Source\PSoC5/Counter_1.c ****     if(Counter_1_initVar == 0u)
 862              		.loc 1 179 0
 863              		.cfi_startproc
 864              		@ args = 0, pretend = 0, frame = 0
 865              		@ frame_needed = 0, uses_anonymous_args = 0
 866 0000 08B5     		push	{r3, lr}
 867              		.cfi_def_cfa_offset 8
 868              		.cfi_offset 3, -8
 869              		.cfi_offset 14, -4
 180:Generated_Source\PSoC5/Counter_1.c ****     {
 870              		.loc 1 180 0
 871 0002 054B     		ldr	r3, .L40
 872 0004 1B78     		ldrb	r3, [r3]	@ zero_extendqisi2
 873 0006 23B9     		cbnz	r3, .L38
 182:Generated_Source\PSoC5/Counter_1.c ****         
 874              		.loc 1 182 0
 875 0008 FFF7FEFF 		bl	Counter_1_Init
 876              	.LVL9:
 184:Generated_Source\PSoC5/Counter_1.c ****     }
 877              		.loc 1 184 0
 878 000c 0122     		movs	r2, #1
 879 000e 024B     		ldr	r3, .L40
 880 0010 1A70     		strb	r2, [r3]
 881              	.L38:
ARM GAS  C:\Users\Luggi\AppData\Local\Temp\cc5WLnTe.s 			page 51


 188:Generated_Source\PSoC5/Counter_1.c **** }
 882              		.loc 1 188 0
 883 0012 FFF7FEFF 		bl	Counter_1_Enable
 884              	.LVL10:
 885 0016 08BD     		pop	{r3, pc}
 886              	.L41:
 887              		.align	2
 888              	.L40:
 889 0018 00000000 		.word	.LANCHOR0
 890              		.cfi_endproc
 891              	.LFE2:
 892              		.size	Counter_1_Start, .-Counter_1_Start
 893              		.section	.text.Counter_1_ReadPeriod,"ax",%progbits
 894              		.align	2
 895              		.global	Counter_1_ReadPeriod
 896              		.thumb
 897              		.thumb_func
 898              		.type	Counter_1_ReadPeriod, %function
 899              	Counter_1_ReadPeriod:
 900              	.LFB12:
 419:Generated_Source\PSoC5/Counter_1.c ****     #else
 420:Generated_Source\PSoC5/Counter_1.c ****         CY_SET_REG16(Counter_1_PERIOD_LSB_PTR, period);
 421:Generated_Source\PSoC5/Counter_1.c ****     #endif /* (Counter_1_UsingFixedFunction) */
 422:Generated_Source\PSoC5/Counter_1.c **** }
 423:Generated_Source\PSoC5/Counter_1.c **** 
 424:Generated_Source\PSoC5/Counter_1.c **** 
 425:Generated_Source\PSoC5/Counter_1.c **** /*******************************************************************************
 426:Generated_Source\PSoC5/Counter_1.c **** * Function Name: Counter_1_ReadPeriod
 427:Generated_Source\PSoC5/Counter_1.c **** ********************************************************************************
 428:Generated_Source\PSoC5/Counter_1.c **** * Summary:
 429:Generated_Source\PSoC5/Counter_1.c **** * Reads the current period value without affecting counter operation.
 430:Generated_Source\PSoC5/Counter_1.c **** *
 431:Generated_Source\PSoC5/Counter_1.c **** * Parameters:  
 432:Generated_Source\PSoC5/Counter_1.c **** *  void:  
 433:Generated_Source\PSoC5/Counter_1.c **** *
 434:Generated_Source\PSoC5/Counter_1.c **** * Return: 
 435:Generated_Source\PSoC5/Counter_1.c **** *  (uint16) Present period value.
 436:Generated_Source\PSoC5/Counter_1.c **** *
 437:Generated_Source\PSoC5/Counter_1.c **** *******************************************************************************/
 438:Generated_Source\PSoC5/Counter_1.c **** uint16 Counter_1_ReadPeriod(void) 
 439:Generated_Source\PSoC5/Counter_1.c **** {
 901              		.loc 1 439 0
 902              		.cfi_startproc
 903              		@ args = 0, pretend = 0, frame = 0
 904              		@ frame_needed = 0, uses_anonymous_args = 0
 905              		@ link register save eliminated.
 440:Generated_Source\PSoC5/Counter_1.c ****     #if(Counter_1_UsingFixedFunction)
 441:Generated_Source\PSoC5/Counter_1.c ****         return ((uint16)CY_GET_REG16(Counter_1_PERIOD_LSB_PTR));
 906              		.loc 1 441 0
 907 0000 014B     		ldr	r3, .L43
 908 0002 1888     		ldrh	r0, [r3]
 442:Generated_Source\PSoC5/Counter_1.c ****     #else
 443:Generated_Source\PSoC5/Counter_1.c ****         return (CY_GET_REG16(Counter_1_PERIOD_LSB_PTR));
 444:Generated_Source\PSoC5/Counter_1.c ****     #endif /* (Counter_1_UsingFixedFunction) */
 445:Generated_Source\PSoC5/Counter_1.c **** }
 909              		.loc 1 445 0
 910 0004 80B2     		uxth	r0, r0
ARM GAS  C:\Users\Luggi\AppData\Local\Temp\cc5WLnTe.s 			page 52


 911 0006 7047     		bx	lr
 912              	.L44:
 913              		.align	2
 914              	.L43:
 915 0008 044F0040 		.word	1073762052
 916              		.cfi_endproc
 917              	.LFE12:
 918              		.size	Counter_1_ReadPeriod, .-Counter_1_ReadPeriod
 919              		.global	Counter_1_initVar
 920              		.bss
 921              		.set	.LANCHOR0,. + 0
 922              		.type	Counter_1_initVar, %object
 923              		.size	Counter_1_initVar, 1
 924              	Counter_1_initVar:
 925 0000 00       		.space	1
 926              		.text
 927              	.Letext0:
 928              		.file 2 "Generated_Source\\PSoC5\\cytypes.h"
 929              		.file 3 "Generated_Source\\PSoC5\\CyLib.h"