ARM GAS  C:\Users\Luggi\AppData\Local\Temp\ccXHBkFh.s 			page 1


   1              		.syntax unified
   2              		.cpu cortex-m3
   3              		.fpu softvfp
   4              		.eabi_attribute 20, 1
   5              		.eabi_attribute 21, 1
   6              		.eabi_attribute 23, 3
   7              		.eabi_attribute 24, 1
   8              		.eabi_attribute 25, 1
   9              		.eabi_attribute 26, 1
  10              		.eabi_attribute 30, 1
  11              		.eabi_attribute 34, 1
  12              		.eabi_attribute 18, 4
  13              		.thumb
  14              		.file	"Current_poti.c"
  15              		.text
  16              	.Ltext0:
  17              		.section	.gnu.lto_.profile.d2372c8,"",%progbits
  18 0000 789C6366 		.ascii	"x\234cf```a\200\000F\006IQ\000\000\273\0007"
  18      60606061 
  18      80004606 
  18      49510000 
  18      BB0037
  19              		.text
  20              		.section	.gnu.lto_.inline.d2372c8,"",%progbits
  21 0000 789C6366 		.ascii	"x\234cf\300\016\022\2404\013\003\003'\007##\003#\003"
  21      C00E12A0 
  21      340B0303 
  21      27072323 
  21      032303
  22 0013 0333C701 		.ascii	"\0033\307\001;\006\266\005\362L\014,\013\344Y@\222\214"
  22      3B06B605 
  22      F24C0C2C 
  22      0BE45940 
  22      928C
  23 0025 0C1CECE8 		.ascii	"\014\034\354\350rL\027\370\301rL\014l\254\214\014Ll"
  23      724C17F8 
  23      C1724C0C 
  23      6CAC8C0C 
  23      4C6C
  24 0037 1FF420E2 		.ascii	"\037\364 \342@\300\214)\304\000\000\333l\011\322"
  24      40C08C29 
  24      C40000DB 
  24      6C09D2
  25              		.text
  26              		.section	.gnu.lto_.jmpfuncs.d2372c8,"",%progbits
  27 0000 789C6366 		.ascii	"x\234cf\300\016\204\2404\013\003##c=#\210`b``\006\212"
  27      C00E84A0 
  27      340B0323 
  27      23633D23 
  27      88606260 
  28 0017 00000DC0 		.ascii	"\000\000\015\300\001$"
  28      0124
  29              		.text
  30              		.section	.gnu.lto_.pureconst.d2372c8,"",%progbits
  31 0000 789C6366 		.ascii	"x\234cf``\340d\200\000\026\006)F)&)f)\000\002\305\000"
  31      6060E064 
  31      80001606 
ARM GAS  C:\Users\Luggi\AppData\Local\Temp\ccXHBkFh.s 			page 2


  31      29462926 
  31      29662900 
  32 0017 7F       		.ascii	"\177"
  33              		.text
  34              		.section	.gnu.lto_Current_poti_Write.d2372c8,"",%progbits
  35 0000 789C6591 		.ascii	"x\234e\221OHTQ\024\306\317w\357{3\376[D\313Y\011b&D"
  35      4F485451 
  35      14C6CF77 
  35      EF7B33FE 
  35      5B44CB59 
  36 0018 AD5AB48B 		.ascii	"\255Z\264\213\\\264\025\334\016\3100\275\305@81\276"
  36      5CB415DC 
  36      0EC830BD 
  36      C5403831 
  36      BE
  37 0029 69EB7D35 		.ascii	"i\353}5\270\010\006D\202\004\021\262\010\253)\377\015"
  37      B8080644 
  37      820411B2 
  37      08AB29FF 
  37      0D
  38 003a B890A297 		.ascii	"\270\220\242\227\270(\242\0061\022Dt\204)\012\\$\246"
  38      B828A206 
  38      31124474 
  38      84290A5C 
  38      24A6
  39 004c 93594EE7 		.ascii	"\223YN\347\274\273Izp\377\274\303\357\373\356w\317\325"
  39      BCBB497A 
  39      70FFBCC3 
  39      EFFBEE77 
  39      CFD5
  40 005e F4FF97E0 		.ascii	"\364\377\227\340qV\021]\342\025\232\240F>\020\005M\012"
  40      7156115D 
  40      E2159AA0 
  40      463E1005 
  40      4D0A
  41 0070 900D8186 		.ascii	"\220\015\201\206\024\206\360M\355*\214\204\245\261\326"
  41      1486F04D 
  41      ED2A8C84 
  41      A5B1D6
  42 007f AE47C698 		.ascii	"\256G\306\230\357\243\225\2407\304!\353\366\224\365"
  42      EFA395A0 
  42      37C421EB 
  42      F694F5
  43 008e C114BA98 		.ascii	"\301\024\272\230\331+\231\273Zw\203x?\273\362\3768\336"
  43      D92B99BB 
  43      5A778378 
  43      3FBBF2FE 
  43      38DE
  44 00a0 F9D0985B 		.ascii	"\371\320\230[\341\253is\231q\34014+p.\201\356\004q\201"
  44      E1AB6973 
  44      9971E031 
  44      342B702E 
  44      81EE0471 
  45 00b5 F0049D02 		.ascii	"\360\004\235\002\317\027\227\027\224\276\020\011'\337"
  45      CF179717 
  45      94BE1009 
  45      27DF
ARM GAS  C:\Users\Luggi\AppData\Local\Temp\ccXHBkFh.s 			page 3


  46 00c3 6D2FB775 		.ascii	"m/\267uL\262\260z\264\220\014\203\373\346\270\321\210"
  46      4CB2B07A 
  46      B4900C83 
  46      FBE6B8D1 
  46      88
  47 00d4 E44FFF95 		.ascii	"\344O\377\225\333\217\371\335\302\237\265\326X\201\203"
  47      DB8FF9DD 
  47      C29FB5D6 
  47      588183
  48 00e3 9D42091D 		.ascii	"\235B\011\0356\023\236!\006^\2442s:4\215F\371\345\353"
  48      36139E21 
  48      065EA432 
  48      733A348D 
  48      46F9E5EB 
  49 00f7 5F68567C 		.ascii	"_hV|\254\342\213r\331\201\234\356J!&S\\&\242\032\017"
  49      ACE28B72 
  49      D9819CEE 
  49      4A212653 
  49      5C26A21A 
  50 010c B9FC67FE 		.ascii	"\271\374g\376\341U\257c\351\340\316\346\275\2708\326"
  50      E155AF63 
  50      E9E0CEE6 
  50      BDB838D6 
  51 011c 957462EE 		.ascii	"\225tb\356\367\3077m_\325\241\322\325\007\201q$\303"
  51      F7C7376D 
  51      5FD5A1D2 
  51      D5078171 
  51      24C3
  52 012e 56ADB2D2 		.ascii	"V\255\262\322\024\225\242H\365\352\333b\313\004\306"
  52      1495A248 
  52      F5EADB62 
  52      CB04C6
  53 013d 8302E776 		.ascii	"\203\002\347v\360\034\011L\203#c\006\023\240u\334\376"
  53      F01C094C 
  53      83236306 
  53      13A075DC 
  53      FE
  54 014e 39BC016B 		.ascii	"9\274\001k\250\255\347\342\213\325\212\026\003lqWf\031"
  54      A8ADE7E2 
  54      8BD58A16 
  54      036C7157 
  54      6619
  55 0160 FE04155D 		.ascii	"\376\004\025]\202\2232%\242\215\341/k\315V\345\326\225"
  55      82933225 
  55      A28DE12F 
  55      6BCD56E5 
  55      D695
  56 0172 C3AA9DD5 		.ascii	"\303\252\235\325\361\305(\211r\011s,\212\254w\224\205"
  56      F1C52889 
  56      7209732C 
  56      8AAC7794 
  56      85
  57 0183 846368BB 		.ascii	"\204ch\273\270_\206@N;a\336B?b\026\211G\224\270/\215"
  57      B85F8640 
  57      4E3B61DE 
  57      423F6216 
  57      894794B8 
ARM GAS  C:\Users\Luggi\AppData\Local\Temp\ccXHBkFh.s 			page 4


  58 0199 46814E84 		.ascii	"F\201N\204\017B\367d\3742\307g\021m\"\010\217\\\341"
  58      0F42F764 
  58      FC32C767 
  58      116D2208 
  58      8F5CE1
  59 01ac E50D6AFC 		.ascii	"\345\015j\374\220\334)\356\333\231\253\336\200\227K"
  59      90DC29EE 
  59      DB99ABDE 
  59      80974B
  60 01bb F9DEB5FE 		.ascii	"\371\336\265\376\276l>\227\366\222\275}\331\236\213"
  60      BE6C3E97 
  60      F692BD7D 
  60      D99E8B
  61 01ca C99E7C2E 		.ascii	"\311\236|.\347\015\370\3757\262~\346|\232\334\233\251"
  61      E70DF8FD 
  61      37B27EE6 
  61      7C9ADC9B 
  61      A9
  62 01db EB79AF65 		.ascii	"\353y\257e\320O\371\231\364\225\214?\370\027\2701\321"
  62      D04FF999 
  62      F4958C3F 
  62      F817B831 
  62      D1
  63 01ec DD       		.ascii	"\335"
  64              		.text
  65              		.section	.gnu.lto_Current_poti_SetDriveMode.d2372c8,"",%progbits
  66 0000 789C7D51 		.ascii	"x\234}Q_(CQ\030\377~\347\334\355N\213\344I{g)\177\236"
  66      5F284351 
  66      18FF7EE7 
  66      DCED4E8B 
  66      E4497B67 
  67 0017 BC2BC5AB 		.ascii	"\274+\305\253\362\252$\273\017\036lZ\363\354\316\246"
  67      F2AA24BB 
  67      0F1E6C5A 
  67      F3ECCEA6 
  68 0027 E469F3A4 		.ascii	"\344i\363\244\244d\011\033\246$y[\362\246\210B\024J"
  68      A464091B 
  68      A624795B 
  68      F2A68842 
  68      144A
  69 0039 F3676ADA 		.ascii	"\363gj\332\232\260\264\346;\367zX)\247{\276\363\375"
  69      9AB0B4E6 
  69      3BF77A58 
  69      29A77BBE 
  69      F3FD
  70 004b BE7EBFDF 		.ascii	"\276~\277\337\375\316w$\375]\036\336\257 \352\340\023"
  70      FDCE7724 
  70      FD5D1EDE 
  70      AF20EAE0 
  70      13
  71 005c 92206227 		.ascii	"\222 b'Da\227\000TB\240)\201)\344DQ \226I-\270\275\253"
  71      44619700 
  71      5442A029 
  71      8129E444 
  71      51209649 
  72 0074 A6691656 		.ascii	"\246i\026V\366\233g\232\313\202\250$l\033\254\301\313"
  72      F69B679A 
ARM GAS  C:\Users\Luggi\AppData\Local\Temp\ccXHBkFh.s 			page 5


  72      CB82A824 
  72      6C1BACC1 
  72      CB
  73 0085 94E7726E 		.ascii	"\224\347rn\255^\266\2018\257\304\257\316EK\3024\247"
  73      AD5EB681 
  73      38AFC4AF 
  73      CE454BC2 
  73      34A7
  74 0097 3327DB66 		.ascii	"3'\333f\017\312\354\271\016\311\012\264{\320\346!.\020"
  74      0FCAECB9 
  74      0EC90AB4 
  74      7BD0E621 
  74      2E10
  75 00a9 36D0A2C8 		.ascii	"6\320\242\310\305h\345\312\355\214\262w\243\355\211"
  75      C568E5CA 
  75      ED8CB277 
  75      A3ED89
  76 00b8 249CDC16 		.ascii	"$\234\334\026\245\2332f\265Z\272\215\257w\301-X#$\007"
  76      A59B3266 
  76      B55ABA8D 
  76      AF77C12D 
  76      58232407 
  77 00cc A9A9E080 		.ascii	"\251\251\340\200\222;U\252\253\340R\241Nq\210\262\274"
  77      923B55AA 
  77      ABE052A1 
  77      4E7188B2 
  77      BC
  78 00dd D50D1E19 		.ascii	"\325\015\036\031\360)op\3701\367\264\250)\337O\241\256"
  78      F0296F70 
  78      F831F7B4 
  78      A829DF4F 
  78      A1AE
  79 00ef 73904FCE 		.ascii	"s\220O\316\352/\242,\264\275\345\260\251\251.\356\263"
  79      EA2FA22C 
  79      B4BDE5B0 
  79      A9A92EEE 
  79      B3
  80 0100 A7672EAB 		.ascii	"\247g.\253D\012^&.\036\334KX\014G\271y\007R\360`\023"
  80      440A5E26 
  80      2E1EDC4B 
  80      580C47B9 
  80      790752F0 
  81 0116 3C306C61 		.ascii	"<0la\011t\203\351;\335\266\223\354\3108\362\345\264"
  81      097483E9 
  81      3BDDB693 
  81      ECC838F2 
  81      E5B4
  82 0128 B1C625D6 		.ascii	"\261\306%\326_\277\025\216-;Y\254\376.\236\3456[\324"
  82      5FBF158E 
  82      2D3B59AC 
  82      FE2E9EE5 
  82      365BD4
  83 013b 68F973D4 		.ascii	"h\371s\324ju.\261\366l7\177\344\260\264\015\204\264"
  83      6A752EB1 
  83      F66C377F 
  83      E4B0B40D 
  83      84B4
ARM GAS  C:\Users\Luggi\AppData\Local\Temp\ccXHBkFh.s 			page 6


  84 014d 2589BCFF 		.ascii	"%\211\274\377R\\\326\037\364Z\227:\2562>\234\207\302"
  84      525CD61F 
  84      F45A973A 
  84      AE323E9C 
  84      87C2
  85 015f FFF5BEC3 		.ascii	"\377\365\276\303\2753\237\356\020\316|\367)\266z\277"
  85      BD339FEE 
  85      10CE7CF7 
  85      29B67ABF 
  86 016f 2CBF058F 		.ascii	",\277\005\217\211\207\326\332o\370\215\340H\310\360"
  86      8987D6DA 
  86      6FF88DE0 
  86      48C8F0
  87 017e 0D0F0626 		.ascii	"\015\017\006&\203\243\306\320\300`\240\267{\250w2\030"
  87      83A3C6D0 
  87      C060A0B7 
  87      7BA87732 
  87      18
  88 018f 34FCA1E1 		.ascii	"4\374\241\341\211@h\254s\224\264\361\200\317\370\001"
  88      894068AC 
  88      7394B4F1 
  88      80CFF801 
  89 019f F3E3BAD7 		.ascii	"\363\343\272\327"
  90              		.text
  91              		.section	.gnu.lto_Current_poti_Read.d2372c8,"",%progbits
  92 0000 789C654F 		.ascii	"x\234eO=HBQ\024>\337}?\0126DS85e\201\264\265\324\350"
  92      3D484251 
  92      143EDF7D 
  92      3F0A3644 
  92      53383565 
  93 0019 D05A3805 		.ascii	"\320Z8\005\202\204\275\241E\343\241\263O3\213\"\250"
  93      8284BDA1 
  93      45E3A1B3 
  93      4F338B22 
  93      A8
  94 002a 56B12188 		.ascii	"V\261!\210\376khR\010\242\271\037\304\240\020y\021\030"
  94      FE6B6852 
  94      08A2B91F 
  94      C4A01079 
  94      1118
  95 003c 143824FD 		.ascii	"\0248$\375\276\241\354\\_[\027\3569\367\236\363\375"
  95      BEA1EC5C 
  95      5F5B17EE 
  95      39F79EF3 
  95      FD
  96 004d 9CA3D0FF 		.ascii	"\234\243\320\377\343\347;\001\242\001\316P\010b\365"
  96      E3E73B01 
  96      A201CE50 
  96      0862F5
  97 005c 8A28E315 		.ascii	"\212(\343\025\200|\020(-\220\306\263h\011\\\224~\252"
  97      807C1028 
  97      2D90C6B3 
  97      68095C94 
  97      7EAA
  98 006e 086C5956 		.ascii	"\010lYV\366e\375\264\356\233\357u\004\321\253 \004\375"
  98      F665FDB4 
  98      EE9BEF75 
ARM GAS  C:\Users\Luggi\AppData\Local\Temp\ccXHBkFh.s 			page 7


  98      04D1AB20 
  98      04FD
  99 0080 18943AD8 		.ascii	"\030\224:\330F\200\030\330\312}\337\372\364\234eY\335"
  99      468018D8 
  99      CA7DDFFA 
  99      F49C6559 
  99      DD
 100 0091 B2CF8D1D 		.ascii	"\262\317\215\035\350\354A\307=gV\273}\362\276\2668\012"
 100      E8EC41C7 
 100      3D6756BB 
 100      7DF2BEB6 
 100      380A
 101 00a3 0FC811EC 		.ascii	"\017\310\021\354\310A\345 4\031t\222\232\324\340 \355"
 101      C841E520 
 101      34197492 
 101      9AD4E020 
 101      ED
 102 00b4 1F859059 		.ascii	"\037\205\220Y\251\341\374c\311\336\030\221:\237Ba\213"
 102      A9E1FC63 
 102      C9DE1891 
 102      3A9F4261 
 102      8B
 103 00c5 7A7939EF 		.ascii	"zy9\357}\022\216P\03663\226*]\357\033\327\025\267D\235"
 103      7D128E50 
 103      1E363396 
 103      2A5DEF1B 
 103      D715B744 
 104 00da 212A2B93 		.ascii	"!*+\223E\024298B\305.\374\330\003\017\211}\024A5\314"
 104      45143239 
 104      3842C52E 
 104      FCD8030F 
 104      897D1441 
 105 00f0 7DE59B8A 		.ascii	"}\345\233\212\253\007W\262t\364v\351\223|\364\021\016"
 105      AB0757B2 
 105      74F476E9 
 105      937CF411 
 105      0E
 106 0101 185B43D6 		.ascii	"\030[C\326\366\270\020\225Q\222d\347ot\267\242q\221"
 106      F6B81095 
 106      519264E7 
 106      6F74B7A2 
 106      7191
 107 0113 49CD6AA1 		.ascii	"I\315j\241\334%I\232F8tIw\013A\027#ad\003\177\277\316"
 107      DC25499A 
 107      46387449 
 107      770B4117 
 107      23616403 
 108 012a 62900BF1 		.ascii	"b\220\013\361z\375cF\3340\247\222\306t4\234H\2311#2"
 108      7AFD6346 
 108      DC30A792 
 108      C674349C 
 108      48993123 
 109 013f 1E4E8486 		.ascii	"\036N\204\206#\241\224i\032\361dt6\221\234\031\212\321"
 109      23A19469 
 109      1AF16474 
 109      36919C19 
 109      8AD1
ARM GAS  C:\Users\Luggi\AppData\Local\Temp\ccXHBkFh.s 			page 8


 110 0151 2FCAEC82 		.ascii	"/\312\354\202\302"
 110      C2
 111              		.text
 112              		.section	.gnu.lto_Current_poti_ReadDataReg.d2372c8,"",%progbits
 113 0000 789C654F 		.ascii	"x\234eO=HBQ\024>\337y?J6DS85e\205\264\265\264:\264F"
 113      3D484251 
 113      143EDF79 
 113      3F4A3644 
 113      53383565 
 114 001b AD8284BD 		.ascii	"\255\202\204\275\241E\343\241\263O3\213 \210Vq\011\242"
 114      A145E3A1 
 114      B34F338B 
 114      20885671 
 114      09A2
 115 002d EC9768B2 		.ascii	"\354\227h\262)\232\012*)\205B\302\034\014\012\034\222"
 115      299A0A2A 
 115      298542C2 
 115      1C0C0A1C 
 115      92
 116 003e 227B50DA 		.ascii	"\"{P\332\275\276\266.\334\357\334{\316w\276\357\034"
 116      BDBEB62E 
 116      DCEFDC7B 
 116      CE77BEEF 
 116      1C
 117 004f 85FE1FAF 		.ascii	"\205\376\037\257\270\323 \032\026\021\012\201\327o\210"
 117      B8D3201A 
 117      16110A81 
 117      D76F88
 118 005e 926E06E4 		.ascii	"\222n\006\344\203@\011F\002\257\334d\\\025\332%\370"
 118      83400946 
 118      02AFDC64 
 118      5C15DA25 
 118      F8
 119 006f B62C2BF5 		.ascii	"\266,+\365vWz\364,\015\330L\364\316\004\277\027#R\007"
 119      76577AF4 
 119      2C0DD84C 
 119      F4CE04BF 
 119      17235207 
 120 0083 DBF09120 		.ascii	"\333\360\221 6\323?\367\036=mYV\237\254\213\302\016"
 120      36D33FF7 
 120      1E3D6D59 
 120      569FAC8B 
 120      C20E
 121 0095 74E14147 		.ascii	"t\341AG\375gV\247sR\334X\031e\027\310f\341(@\025\300"
 121      FD6756A7 
 121      7352DC58 
 121      196517C8 
 121      66E12840 
 122 00ab 9A049DA4 		.ascii	"\232\004\235\244&\325\005H\373gf\031\225\012\316?W\333"
 122      26D50548 
 122      FB676619 
 122      950ACE3F 
 122      57DB
 123 00bd F909A9D3 		.ascii	"\371\011\251\323bEX\034\177\227/z_\330f\245\266\231"
 123      6245581C 
 123      7F972F7A 
 123      5FD866A5 
ARM GAS  C:\Users\Luggi\AppData\Local\Temp\ccXHBkFh.s 			page 9


 123      B699
 124 00cf B454E9FA 		.ascii	"\264T\351\372T/\336\272\273)\222\337V\355r\255'\207"
 124      542FDEBA 
 124      BB2992DF 
 124      56ED72AD 
 124      2787
 125 00e1 6C320D9B 		.ascii	"l2\015\233U\344\341\305.\304\224\330C\016T\301\342W"
 125      55E4E1C5 
 125      2EC494D8 
 125      430E54C1 
 125      E257
 126 00f3 A6A13882 		.ascii	"\246\2418\202p4\013\207\037\327\036)\200A\302\276\340"
 126      70340B87 
 126      1FD71E29 
 126      8041C2BE 
 126      E0
 127 0104 5690AABA 		.ascii	"V\220\252\272\034\212*X\262\251\232)\353NF\023I\321"
 127      1C8A2A58 
 127      B2A99A29 
 127      EB4E4613 
 127      49D1
 128 0116 D428654F 		.ascii	"\324(eO\273\203h\032\341\300izX\366;\034I\243*\360\367"
 128      BB83681A 
 128      E1C0697A 
 128      58F63B1C 
 128      49A32AF0 
 129 012b EB6E06B9 		.ascii	"\353n\006\271\221\330oh\322\210\030\346l\314\230\013"
 129      91D86F68 
 129      D28818E6 
 129      6CCC980B 
 130 013b CD44E366 		.ascii	"\315D\343f\330\010N\315D\003\343\301@\3344\215H,\264"
 130      D8084ECD 
 130      4403E3C1 
 130      40DC348D 
 130      482CB4
 131 014e 108DCD8F 		.ascii	"\020\215\315\217\205\351\027x{\204C"
 131      85E91778 
 131      7B8443
 132              		.text
 133              		.section	.gnu.lto_.symbol_nodes.d2372c8,"",%progbits
 134 0000 789C6366 		.ascii	"x\234cf``pb\200\002&\206z\006\206\011\347\030\030\352"
 134      60607062 
 134      80022686 
 134      7A068609 
 134      E71818EA 
 135 0014 EB19A62D 		.ascii	"\353\031\246-\340``b\254gD\3413\3253\241\360\231\353"
 135      E0606062 
 135      AC6744E1 
 135      33D533A1 
 135      F099EB
 136 0027 9991F90C 		.ascii	"\231\221\371\014\0000N\020\276"
 136      00304E10 
 136      BE
 137              		.text
 138              		.section	.gnu.lto_.refs.d2372c8,"",%progbits
 139 0000 789C6366 		.ascii	"x\234cf```d\200\002\000\000=\000\005"
 139      60606064 
ARM GAS  C:\Users\Luggi\AppData\Local\Temp\ccXHBkFh.s 			page 10


 139      80020000 
 139      3D0005
 140              		.text
 141              		.section	.gnu.lto_.decls.d2372c8,"",%progbits
 142 0000 789C8D92 		.ascii	"x\234\215\222]HTA\024\307\347\334\271\256z[\243z\320"
 142      5D485441 
 142      14C7E7DC 
 142      B9AE7A5B 
 142      A37AD0
 143 0013 5A82B617 		.ascii	"Z\202\266\027!\020\241\207\300\267\"\005%(D\211\036"
 143      2110A187 
 143      C0B72205 
 143      25284489 
 143      1E
 144 0024 1464D18B 		.ascii	"\024d\321\213-\201+\3335\360\251iU\334L\312\254\320"
 144      2D812BDB 
 144      35F0A969 
 144      55DC4CCA 
 144      ACD0
 145 0036 845458ED 		.ascii	"\204TX\355\303\3246\277\326U\323]\014\021E!\020\311"
 145      C3D436BF 
 145      D655D35D 
 145      0C114521 
 145      10C9
 146 0048 A268F1C5 		.ascii	"\242h\361\305\036\2045J\354\203n\347\316\335m\257\272"
 146      1E84354A 
 146      EC836EE7 
 146      CEDD6DAF 
 146      BA
 147 0059 8203E7DE 		.ascii	"\202\003\347\33693\347\367?gf\016%\204X\201\020\025"
 147      3933E7F7 
 147      3F67660E 
 147      25845881 
 147      1015
 148 006b C7794AC8 		.ascii	"\307yJ\310\020\372\011h\371$6D\264\001\242\357\371\320"
 148      10FA0968 
 148      F9243644 
 148      B401A2EF 
 148      F9D0
 149 007d FC64F718 		.ascii	"\374d\367\0300p}h\251h\223h\023\221}\210\304\354\034"
 149      30707D68 
 149      A9689368 
 149      13917D88 
 149      C4EC1C
 150 0090 9AA66907 		.ascii	"\232\246i\007\027\214\303\016\305a}\0216\312\345\031"
 150      178CC30E 
 150      C5617D11 
 150      36CAE519 
 151 00a0 B80B06D6 		.ascii	"\270\013\006\326\027\207\365\357\223\215w\326\015\001"
 151      1787F5EF 
 151      938D77D6 
 151      0D01
 152 00ae FCFDDF17 		.ascii	"\374\375\337\027\016\254\011pP\262j\356X\363l\253\011"
 152      0EAC0970 
 152      50B26AEE 
 152      58F36CAB 
 152      09
ARM GAS  C:\Users\Luggi\AppData\Local\Temp\ccXHBkFh.s 			page 11


 153 00bf 5DB3246A 		.ascii	"]\263$j\356\362T}}\022\025@\233{ZCKRF\017c\314\315\002"
 153      EEF2547D 
 153      7D121540 
 153      9B7B5A43 
 153      4B52460F 
 154 00d7 018849DC 		.ascii	"\001\210I\334z:\336\230\210L\252\304\335\273\363mA\312"
 154      7A3ADE98 
 154      884CAAC4 
 154      DDBBF36D 
 154      41CA
 155 00e9 5D55E384 		.ascii	"]U\343\204\225\225\207?)H\351n\306\\,\334\314\350Q\002"
 155      9595873F 
 155      2948E96E 
 155      C65C2CDC 
 155      CCE85102 
 156 00fd 19163865 		.ascii	"\031\0268e!\320\017\351\030\006=\220A\340%X\240\027"
 156      21D00FE9 
 156      18063D90 
 156      41E02558 
 156      A017
 157 010f 2CA40B13 		.ascii	",\244\013\023\204;\226>\034gL\204>\220\340\005P\036"
 157      843B963E 
 157      1C674C84 
 157      3E90E005 
 157      501E
 158 0121 81C7D032 		.ascii	"\201\307\3202D\2226\325\005\233DQ\300E-\246\210W\373"
 158      449236D5 
 158      059B4451 
 158      C0452DA6 
 158      8857FB
 159 0134 430D750B 		.ascii	"C\015u\013i\217P\2005\325\260C\"\344\247\3023\224}\216"
 159      698F5080 
 159      35D5B043 
 159      22E4A7C2 
 159      33947D8E 
 160 0148 B204BC90 		.ascii	"\262\004\274\220\206\337W \352\0023\323\2333@O\363\243"
 160      86DF5720 
 160      EA0233D3 
 160      9B33404F 
 160      F3A3
 161 015a 4D2E78D4 		.ascii	"M.x\324\024k;\353\364\206\033=\355\3641\353t\261\277"
 161      146B3BEB 
 161      F4861B3D 
 161      EDF431EB 
 161      74B1BF
 162 016d 2A96AF41 		.ascii	"*\226\257A\360\372\177\001D\233\3537:\000V\004\347z"
 162      F0FA7F01 
 162      449BEB37 
 162      3A005604 
 162      E77A
 163 017f DFAF03BD 		.ascii	"\337\257\003\275\306E\352\357\377Z\027\271H\347\230"
 163      C645EAEF 
 163      FF5A17B9 
 163      48E798
 164 018e C734CB02 		.ascii	"\3074\313\002\252z\226\363\203\006~0\312\017q\376v\255"
 164      AA7A96F3 
 164      83067E30 
ARM GAS  C:\Users\Luggi\AppData\Local\Temp\ccXHBkFh.s 			page 12


 164      CA0F71FE 
 164      76AD
 165 01a0 971A0BD6 		.ascii	"\227\032\013\326\316\022\253x\230W\\\024)8\364\366\033"
 165      CE12AB78 
 165      98575C14 
 165      2938F4F6 
 165      1B
 166 01b1 A575C073 		.ascii	"\245u\300sM\267\271\227\315<\327\227\257\253r\240\226"
 166      4DB7B997 
 166      CD3CD797 
 166      AFAB72A0 
 166      96
 167 01c2 FD5155CA 		.ascii	"\375QU\312\001\0301d\033\211f\363\361l\017>\177\372"
 167      01183164 
 167      1B8966F3 
 167      F16C0F3E 
 167      7FFA
 168 01d4 4D698B2E 		.ascii	"Mi\213.1\267\330\021\022\364r\237tG\313\325\004F\015"
 168      31B7D811 
 168      12F4729F 
 168      7447CBD5 
 168      04460D
 169 01e7 02A35101 		.ascii	"\002\243Q\001?\027`-w\272\222\250W\027\030\336l\360"
 169      3F17602D 
 169      77BA92A8 
 169      571718DE 
 169      6CF0
 170 01f9 A748F8AA 		.ascii	"\247H\370\2525\373xU\354\203\245\305\206\345d\275\017"
 170      35FB7855 
 170      EC83A5C5 
 170      86E564BD 
 170      0F
 171 020a 76126FF6 		.ascii	"v\022o\366\354\203\255\325\274Zv\016&\360^\306b}0\016"
 171      EC83ADD5 
 171      BC5A760E 
 171      26F05EC6 
 171      627D300E 
 172 021e B146589A 		.ascii	"\261FX\232w}\244\346\006\255\271\360\016\223\363xl\354"
 172      777DA4E6 
 172      06ADB9F0 
 172      0E93F378 
 172      6CEC
 173 0230 0E27C1CC 		.ascii	"\016'\301\314\017\200\377\015\201\366\277\233j\027\300"
 173      0F80FF0D 
 173      81F6BF9B 
 173      6A17C0
 174 023f 62915AB1 		.ascii	"b\221Z\261\211\267N@\020\205\264i`MUo\252\372\270\227"
 174      89B74E40 
 174      1085B469 
 174      604D556F 
 174      AAFAB897 
 175 0253 C897DDDA 		.ascii	"\310\227\335\332\253\204]\2062\011_'\020@\361)\024\347"
 175      AB845D86 
 175      32095F27 
 175      1040F129 
 175      14E7
 176 0265 6E4295BD 		.ascii	"nB\225\275B\3112\345^\272l\315&'s\345\012\331iS\344"
ARM GAS  C:\Users\Luggi\AppData\Local\Temp\ccXHBkFh.s 			page 13


 176      42C932E5 
 176      5EBA6CCD 
 176      262773E5 
 176      0AD96953 
 177 027a B2924247 		.ascii	"\262\222BG\225\263T.\316/td\237).\255V\252+\345\353"
 177      95B3542E 
 177      CE2F7464 
 177      9F292EAD 
 177      56AA2BE5 
 178 028f 9957C991 		.ascii	"\231W\311\221\354*\247S\256PJ*\035\212\275\344\212\323"
 178      EC2AA753 
 178      AE504A2A 
 178      1D8ABDE4 
 178      8AD3
 179 02a1 AEC8E97B 		.ascii	"\256\310\351{@\306\310\314Rrl\033Y(+9N\373\015\371\242"
 179      40C6C8CC 
 179      52726C1B 
 179      59282B39 
 179      4EFB0DF9 
 180 02b6 A34C3EBC 		.ascii	"\243L>\274m\247@\266\225\035\335\265\222cSl\005r\271"
 180      6DA740B6 
 180      951DDDB5 
 180      9263536C 
 180      0572B9
 181 02c9 E894CBB3 		.ascii	"\350\224\313\263\376\001\336-Xj"
 181      FE01DE2D 
 181      586A
 182              		.text
 183              		.section	.gnu.lto_.symtab.d2372c8,"",%progbits
 184 0000 43757272 		.ascii	"Current_poti_Write\000\000\000\000\000\000\000\000\000"
 184      656E745F 
 184      706F7469 
 184      5F577269 
 184      74650000 
 185 001b 000000B2 		.ascii	"\000\000\000\262\000\000\000Current_poti_SetDriveMo"
 185      00000043 
 185      75727265 
 185      6E745F70 
 185      6F74695F 
 186 0039 64650000 		.ascii	"de\000\000\000\000\000\000\000\000\000\000\000\000\264"
 186      00000000 
 186      00000000 
 186      0000B4
 187 0048 00000043 		.ascii	"\000\000\000Current_poti_Read\000\000\000\000\000\000"
 187      75727265 
 187      6E745F70 
 187      6F74695F 
 187      52656164 
 188 0062 00000000 		.ascii	"\000\000\000\000\000\000\267\000\000\000Current_pot"
 188      0000B700 
 188      00004375 
 188      7272656E 
 188      745F706F 
 189 0077 695F5265 		.ascii	"i_ReadDataReg\000\000\000\000\000\000\000\000\000\000"
 189      61644461 
 189      74615265 
 189      67000000 
ARM GAS  C:\Users\Luggi\AppData\Local\Temp\ccXHBkFh.s 			page 14


 189      00000000 
 190 008e 0000B900 		.ascii	"\000\000\271\000\000\000"
 190      0000
 191              		.text
 192              		.section	.gnu.lto_.opts,"",%progbits
 193 0000 272D666E 		.ascii	"'-fno-trapv' '-fno-strict-overflow' '-mcpu=cortex-m"
 193      6F2D7472 
 193      61707627 
 193      20272D66 
 193      6E6F2D73 
 194 0033 33272027 		.ascii	"3' '-mthumb' '-g' '-Og' '-ffunction-sections' '-flt"
 194      2D6D7468 
 194      756D6227 
 194      20272D67 
 194      2720272D 
 195 0066 6F272027 		.ascii	"o' '-ffat-lto-objects'\000"
 195      2D666661 
 195      742D6C74 
 195      6F2D6F62 
 195      6A656374 
 196              		.text
 197              		.cfi_sections	.debug_frame
 198              		.section	.text.Current_poti_Write,"ax",%progbits
 199              		.align	2
 200              		.global	Current_poti_Write
 201              		.thumb
 202              		.thumb_func
 203              		.type	Current_poti_Write, %function
 204              	Current_poti_Write:
 205              	.LFB0:
 206              		.file 1 "Generated_Source\\PSoC5\\Current_poti.c"
   1:Generated_Source\PSoC5/Current_poti.c **** /*******************************************************************************
   2:Generated_Source\PSoC5/Current_poti.c **** * File Name: Current_poti.c  
   3:Generated_Source\PSoC5/Current_poti.c **** * Version 2.20
   4:Generated_Source\PSoC5/Current_poti.c **** *
   5:Generated_Source\PSoC5/Current_poti.c **** * Description:
   6:Generated_Source\PSoC5/Current_poti.c **** *  This file contains API to enable firmware control of a Pins component.
   7:Generated_Source\PSoC5/Current_poti.c **** *
   8:Generated_Source\PSoC5/Current_poti.c **** * Note:
   9:Generated_Source\PSoC5/Current_poti.c **** *
  10:Generated_Source\PSoC5/Current_poti.c **** ********************************************************************************
  11:Generated_Source\PSoC5/Current_poti.c **** * Copyright 2008-2015, Cypress Semiconductor Corporation.  All rights reserved.
  12:Generated_Source\PSoC5/Current_poti.c **** * You may use this file only in accordance with the license, terms, conditions, 
  13:Generated_Source\PSoC5/Current_poti.c **** * disclaimers, and limitations in the end user license agreement accompanying 
  14:Generated_Source\PSoC5/Current_poti.c **** * the software package with which this file was provided.
  15:Generated_Source\PSoC5/Current_poti.c **** *******************************************************************************/
  16:Generated_Source\PSoC5/Current_poti.c **** 
  17:Generated_Source\PSoC5/Current_poti.c **** #include "cytypes.h"
  18:Generated_Source\PSoC5/Current_poti.c **** #include "Current_poti.h"
  19:Generated_Source\PSoC5/Current_poti.c **** 
  20:Generated_Source\PSoC5/Current_poti.c **** /* APIs are not generated for P15[7:6] on PSoC 5 */
  21:Generated_Source\PSoC5/Current_poti.c **** #if !(CY_PSOC5A &&\
  22:Generated_Source\PSoC5/Current_poti.c **** 	 Current_poti__PORT == 15 && ((Current_poti__MASK & 0xC0) != 0))
  23:Generated_Source\PSoC5/Current_poti.c **** 
  24:Generated_Source\PSoC5/Current_poti.c **** 
  25:Generated_Source\PSoC5/Current_poti.c **** /*******************************************************************************
  26:Generated_Source\PSoC5/Current_poti.c **** * Function Name: Current_poti_Write
ARM GAS  C:\Users\Luggi\AppData\Local\Temp\ccXHBkFh.s 			page 15


  27:Generated_Source\PSoC5/Current_poti.c **** ****************************************************************************//**
  28:Generated_Source\PSoC5/Current_poti.c **** *
  29:Generated_Source\PSoC5/Current_poti.c **** * \brief Writes the value to the physical port (data output register), masking
  30:Generated_Source\PSoC5/Current_poti.c **** *  and shifting the bits appropriately. 
  31:Generated_Source\PSoC5/Current_poti.c **** *
  32:Generated_Source\PSoC5/Current_poti.c **** * The data output register controls the signal applied to the physical pin in 
  33:Generated_Source\PSoC5/Current_poti.c **** * conjunction with the drive mode parameter. This function avoids changing 
  34:Generated_Source\PSoC5/Current_poti.c **** * other bits in the port by using the appropriate method (read-modify-write or
  35:Generated_Source\PSoC5/Current_poti.c **** * bit banding).
  36:Generated_Source\PSoC5/Current_poti.c **** *
  37:Generated_Source\PSoC5/Current_poti.c **** * <b>Note</b> This function should not be used on a hardware digital output pin 
  38:Generated_Source\PSoC5/Current_poti.c **** * as it is driven by the hardware signal attached to it.
  39:Generated_Source\PSoC5/Current_poti.c **** *
  40:Generated_Source\PSoC5/Current_poti.c **** * \param value
  41:Generated_Source\PSoC5/Current_poti.c **** *  Value to write to the component instance.
  42:Generated_Source\PSoC5/Current_poti.c **** *
  43:Generated_Source\PSoC5/Current_poti.c **** * \return 
  44:Generated_Source\PSoC5/Current_poti.c **** *  None 
  45:Generated_Source\PSoC5/Current_poti.c **** *
  46:Generated_Source\PSoC5/Current_poti.c **** * \sideeffect
  47:Generated_Source\PSoC5/Current_poti.c **** *  If you use read-modify-write operations that are not atomic; the Interrupt 
  48:Generated_Source\PSoC5/Current_poti.c **** *  Service Routines (ISR) can cause corruption of this function. An ISR that 
  49:Generated_Source\PSoC5/Current_poti.c **** *  interrupts this function and performs writes to the Pins component data 
  50:Generated_Source\PSoC5/Current_poti.c **** *  register can cause corrupted port data. To avoid this issue, you should 
  51:Generated_Source\PSoC5/Current_poti.c **** *  either use the Per-Pin APIs (primary method) or disable interrupts around 
  52:Generated_Source\PSoC5/Current_poti.c **** *  this function.
  53:Generated_Source\PSoC5/Current_poti.c **** *
  54:Generated_Source\PSoC5/Current_poti.c **** * \funcusage
  55:Generated_Source\PSoC5/Current_poti.c **** *  \snippet Current_poti_SUT.c usage_Current_poti_Write
  56:Generated_Source\PSoC5/Current_poti.c **** *******************************************************************************/
  57:Generated_Source\PSoC5/Current_poti.c **** void Current_poti_Write(uint8 value)
  58:Generated_Source\PSoC5/Current_poti.c **** {
 207              		.loc 1 58 0
 208              		.cfi_startproc
 209              		@ args = 0, pretend = 0, frame = 0
 210              		@ frame_needed = 0, uses_anonymous_args = 0
 211              		@ link register save eliminated.
 212              	.LVL0:
  59:Generated_Source\PSoC5/Current_poti.c ****     uint8 staticBits = (Current_poti_DR & (uint8)(~Current_poti_MASK));
 213              		.loc 1 59 0
 214 0000 044A     		ldr	r2, .L2
 215 0002 1378     		ldrb	r3, [r2]	@ zero_extendqisi2
 216 0004 03F0DF03 		and	r3, r3, #223
 217              	.LVL1:
  60:Generated_Source\PSoC5/Current_poti.c ****     Current_poti_DR = staticBits | ((uint8)(value << Current_poti_SHIFT) & Current_poti_MASK);
 218              		.loc 1 60 0
 219 0008 4001     		lsls	r0, r0, #5
 220              	.LVL2:
 221 000a 00F02000 		and	r0, r0, #32
 222 000e 1843     		orrs	r0, r0, r3
 223 0010 1070     		strb	r0, [r2]
 224 0012 7047     		bx	lr
 225              	.L3:
 226              		.align	2
 227              	.L2:
 228 0014 60510040 		.word	1073762656
 229              		.cfi_endproc
ARM GAS  C:\Users\Luggi\AppData\Local\Temp\ccXHBkFh.s 			page 16


 230              	.LFE0:
 231              		.size	Current_poti_Write, .-Current_poti_Write
 232              		.section	.text.Current_poti_SetDriveMode,"ax",%progbits
 233              		.align	2
 234              		.global	Current_poti_SetDriveMode
 235              		.thumb
 236              		.thumb_func
 237              		.type	Current_poti_SetDriveMode, %function
 238              	Current_poti_SetDriveMode:
 239              	.LFB1:
  61:Generated_Source\PSoC5/Current_poti.c **** }
  62:Generated_Source\PSoC5/Current_poti.c **** 
  63:Generated_Source\PSoC5/Current_poti.c **** 
  64:Generated_Source\PSoC5/Current_poti.c **** /*******************************************************************************
  65:Generated_Source\PSoC5/Current_poti.c **** * Function Name: Current_poti_SetDriveMode
  66:Generated_Source\PSoC5/Current_poti.c **** ****************************************************************************//**
  67:Generated_Source\PSoC5/Current_poti.c **** *
  68:Generated_Source\PSoC5/Current_poti.c **** * \brief Sets the drive mode for each of the Pins component's pins.
  69:Generated_Source\PSoC5/Current_poti.c **** * 
  70:Generated_Source\PSoC5/Current_poti.c **** * <b>Note</b> This affects all pins in the Pins component instance. Use the
  71:Generated_Source\PSoC5/Current_poti.c **** * Per-Pin APIs if you wish to control individual pin's drive modes.
  72:Generated_Source\PSoC5/Current_poti.c **** *
  73:Generated_Source\PSoC5/Current_poti.c **** * \param mode
  74:Generated_Source\PSoC5/Current_poti.c **** *  Mode for the selected signals. Valid options are documented in 
  75:Generated_Source\PSoC5/Current_poti.c **** *  \ref driveMode.
  76:Generated_Source\PSoC5/Current_poti.c **** *
  77:Generated_Source\PSoC5/Current_poti.c **** * \return
  78:Generated_Source\PSoC5/Current_poti.c **** *  None
  79:Generated_Source\PSoC5/Current_poti.c **** *
  80:Generated_Source\PSoC5/Current_poti.c **** * \sideeffect
  81:Generated_Source\PSoC5/Current_poti.c **** *  If you use read-modify-write operations that are not atomic, the ISR can
  82:Generated_Source\PSoC5/Current_poti.c **** *  cause corruption of this function. An ISR that interrupts this function 
  83:Generated_Source\PSoC5/Current_poti.c **** *  and performs writes to the Pins component Drive Mode registers can cause 
  84:Generated_Source\PSoC5/Current_poti.c **** *  corrupted port data. To avoid this issue, you should either use the Per-Pin
  85:Generated_Source\PSoC5/Current_poti.c **** *  APIs (primary method) or disable interrupts around this function.
  86:Generated_Source\PSoC5/Current_poti.c **** *
  87:Generated_Source\PSoC5/Current_poti.c **** * \funcusage
  88:Generated_Source\PSoC5/Current_poti.c **** *  \snippet Current_poti_SUT.c usage_Current_poti_SetDriveMode
  89:Generated_Source\PSoC5/Current_poti.c **** *******************************************************************************/
  90:Generated_Source\PSoC5/Current_poti.c **** void Current_poti_SetDriveMode(uint8 mode)
  91:Generated_Source\PSoC5/Current_poti.c **** {
 240              		.loc 1 91 0
 241              		.cfi_startproc
 242              		@ args = 0, pretend = 0, frame = 0
 243              		@ frame_needed = 0, uses_anonymous_args = 0
 244              		@ link register save eliminated.
 245              	.LVL3:
  92:Generated_Source\PSoC5/Current_poti.c **** 	CyPins_SetPinDriveMode(Current_poti_0, mode);
 246              		.loc 1 92 0
 247 0000 044A     		ldr	r2, .L5
 248 0002 1378     		ldrb	r3, [r2]	@ zero_extendqisi2
 249 0004 03F0F103 		and	r3, r3, #241
 250 0008 00F00E00 		and	r0, r0, #14
 251              	.LVL4:
 252 000c 1843     		orrs	r0, r0, r3
 253 000e 1070     		strb	r0, [r2]
 254 0010 7047     		bx	lr
ARM GAS  C:\Users\Luggi\AppData\Local\Temp\ccXHBkFh.s 			page 17


 255              	.L6:
 256 0012 00BF     		.align	2
 257              	.L5:
 258 0014 35500040 		.word	1073762357
 259              		.cfi_endproc
 260              	.LFE1:
 261              		.size	Current_poti_SetDriveMode, .-Current_poti_SetDriveMode
 262              		.section	.text.Current_poti_Read,"ax",%progbits
 263              		.align	2
 264              		.global	Current_poti_Read
 265              		.thumb
 266              		.thumb_func
 267              		.type	Current_poti_Read, %function
 268              	Current_poti_Read:
 269              	.LFB2:
  93:Generated_Source\PSoC5/Current_poti.c **** }
  94:Generated_Source\PSoC5/Current_poti.c **** 
  95:Generated_Source\PSoC5/Current_poti.c **** 
  96:Generated_Source\PSoC5/Current_poti.c **** /*******************************************************************************
  97:Generated_Source\PSoC5/Current_poti.c **** * Function Name: Current_poti_Read
  98:Generated_Source\PSoC5/Current_poti.c **** ****************************************************************************//**
  99:Generated_Source\PSoC5/Current_poti.c **** *
 100:Generated_Source\PSoC5/Current_poti.c **** * \brief Reads the associated physical port (pin status register) and masks 
 101:Generated_Source\PSoC5/Current_poti.c **** *  the required bits according to the width and bit position of the component
 102:Generated_Source\PSoC5/Current_poti.c **** *  instance. 
 103:Generated_Source\PSoC5/Current_poti.c **** *
 104:Generated_Source\PSoC5/Current_poti.c **** * The pin's status register returns the current logic level present on the 
 105:Generated_Source\PSoC5/Current_poti.c **** * physical pin.
 106:Generated_Source\PSoC5/Current_poti.c **** *
 107:Generated_Source\PSoC5/Current_poti.c **** * \return 
 108:Generated_Source\PSoC5/Current_poti.c **** *  The current value for the pins in the component as a right justified number.
 109:Generated_Source\PSoC5/Current_poti.c **** *
 110:Generated_Source\PSoC5/Current_poti.c **** * \funcusage
 111:Generated_Source\PSoC5/Current_poti.c **** *  \snippet Current_poti_SUT.c usage_Current_poti_Read  
 112:Generated_Source\PSoC5/Current_poti.c **** *******************************************************************************/
 113:Generated_Source\PSoC5/Current_poti.c **** uint8 Current_poti_Read(void)
 114:Generated_Source\PSoC5/Current_poti.c **** {
 270              		.loc 1 114 0
 271              		.cfi_startproc
 272              		@ args = 0, pretend = 0, frame = 0
 273              		@ frame_needed = 0, uses_anonymous_args = 0
 274              		@ link register save eliminated.
 115:Generated_Source\PSoC5/Current_poti.c ****     return (Current_poti_PS & Current_poti_MASK) >> Current_poti_SHIFT;
 275              		.loc 1 115 0
 276 0000 024B     		ldr	r3, .L8
 277 0002 1878     		ldrb	r0, [r3]	@ zero_extendqisi2
 116:Generated_Source\PSoC5/Current_poti.c **** }
 278              		.loc 1 116 0
 279 0004 C0F34010 		ubfx	r0, r0, #5, #1
 280 0008 7047     		bx	lr
 281              	.L9:
 282 000a 00BF     		.align	2
 283              	.L8:
 284 000c 61510040 		.word	1073762657
 285              		.cfi_endproc
 286              	.LFE2:
 287              		.size	Current_poti_Read, .-Current_poti_Read
ARM GAS  C:\Users\Luggi\AppData\Local\Temp\ccXHBkFh.s 			page 18


 288              		.section	.text.Current_poti_ReadDataReg,"ax",%progbits
 289              		.align	2
 290              		.global	Current_poti_ReadDataReg
 291              		.thumb
 292              		.thumb_func
 293              		.type	Current_poti_ReadDataReg, %function
 294              	Current_poti_ReadDataReg:
 295              	.LFB3:
 117:Generated_Source\PSoC5/Current_poti.c **** 
 118:Generated_Source\PSoC5/Current_poti.c **** 
 119:Generated_Source\PSoC5/Current_poti.c **** /*******************************************************************************
 120:Generated_Source\PSoC5/Current_poti.c **** * Function Name: Current_poti_ReadDataReg
 121:Generated_Source\PSoC5/Current_poti.c **** ****************************************************************************//**
 122:Generated_Source\PSoC5/Current_poti.c **** *
 123:Generated_Source\PSoC5/Current_poti.c **** * \brief Reads the associated physical port's data output register and masks 
 124:Generated_Source\PSoC5/Current_poti.c **** *  the correct bits according to the width and bit position of the component 
 125:Generated_Source\PSoC5/Current_poti.c **** *  instance. 
 126:Generated_Source\PSoC5/Current_poti.c **** *
 127:Generated_Source\PSoC5/Current_poti.c **** * The data output register controls the signal applied to the physical pin in 
 128:Generated_Source\PSoC5/Current_poti.c **** * conjunction with the drive mode parameter. This is not the same as the 
 129:Generated_Source\PSoC5/Current_poti.c **** * preferred Current_poti_Read() API because the 
 130:Generated_Source\PSoC5/Current_poti.c **** * Current_poti_ReadDataReg() reads the data register instead of the status 
 131:Generated_Source\PSoC5/Current_poti.c **** * register. For output pins this is a useful function to determine the value 
 132:Generated_Source\PSoC5/Current_poti.c **** * just written to the pin.
 133:Generated_Source\PSoC5/Current_poti.c **** *
 134:Generated_Source\PSoC5/Current_poti.c **** * \return 
 135:Generated_Source\PSoC5/Current_poti.c **** *  The current value of the data register masked and shifted into a right 
 136:Generated_Source\PSoC5/Current_poti.c **** *  justified number for the component instance.
 137:Generated_Source\PSoC5/Current_poti.c **** *
 138:Generated_Source\PSoC5/Current_poti.c **** * \funcusage
 139:Generated_Source\PSoC5/Current_poti.c **** *  \snippet Current_poti_SUT.c usage_Current_poti_ReadDataReg 
 140:Generated_Source\PSoC5/Current_poti.c **** *******************************************************************************/
 141:Generated_Source\PSoC5/Current_poti.c **** uint8 Current_poti_ReadDataReg(void)
 142:Generated_Source\PSoC5/Current_poti.c **** {
 296              		.loc 1 142 0
 297              		.cfi_startproc
 298              		@ args = 0, pretend = 0, frame = 0
 299              		@ frame_needed = 0, uses_anonymous_args = 0
 300              		@ link register save eliminated.
 143:Generated_Source\PSoC5/Current_poti.c ****     return (Current_poti_DR & Current_poti_MASK) >> Current_poti_SHIFT;
 301              		.loc 1 143 0
 302 0000 024B     		ldr	r3, .L11
 303 0002 1878     		ldrb	r0, [r3]	@ zero_extendqisi2
 144:Generated_Source\PSoC5/Current_poti.c **** }
 304              		.loc 1 144 0
 305 0004 C0F34010 		ubfx	r0, r0, #5, #1
 306 0008 7047     		bx	lr
 307              	.L12:
 308 000a 00BF     		.align	2
 309              	.L11:
 310 000c 60510040 		.word	1073762656
 311              		.cfi_endproc
 312              	.LFE3:
 313              		.size	Current_poti_ReadDataReg, .-Current_poti_ReadDataReg
 314              		.text
 315              	.Letext0:
 316              		.file 2 "Generated_Source\\PSoC5\\cytypes.h"
ARM GAS  C:\Users\Luggi\AppData\Local\Temp\ccXHBkFh.s 			page 19

