ARM GAS  C:\Users\Luggi\AppData\Local\Temp\ccujN3Qb.s 			page 1


   1              		.syntax unified
   2              		.cpu cortex-m3
   3              		.fpu softvfp
   4              		.eabi_attribute 20, 1
   5              		.eabi_attribute 21, 1
   6              		.eabi_attribute 23, 3
   7              		.eabi_attribute 24, 1
   8              		.eabi_attribute 25, 1
   9              		.eabi_attribute 26, 1
  10              		.eabi_attribute 30, 1
  11              		.eabi_attribute 34, 1
  12              		.eabi_attribute 18, 4
  13              		.thumb
  14              		.file	"CySpc.c"
  15              		.text
  16              	.Ltext0:
  17              		.section	.gnu.lto_.profile.304b3edc,"",%progbits
  18 0000 789C6366 		.ascii	"x\234cf```c\200\000F\206-L\327\031\001\005'\001\231"
  18      60606063 
  18      80004686 
  18      2D4CD719 
  18      01052701 
  19              		.text
  20              		.section	.gnu.lto_.inline.304b3edc,"",%progbits
  21 0000 789C7D51 		.ascii	"x\234}Q=HBQ\024\376\316yO\237\346\263\367\006\245\222"
  21      3D484251 
  21      14FECE79 
  21      4F9FE6B3 
  21      F706A592 
  22 0014 48490769 		.ascii	"HI\007inh*\207\346hj\211F\305\266hk\273\203P\203\203"
  22      6E682A87 
  22      E6686A89 
  22      46C5B668 
  22      6BBB8350 
  23 002a 38B51406 		.ascii	"8\265\024\006BY\203\265\005\375\014A T\344P{\203\203"
  23      425983B5 
  23      05FD0C41 
  23      2054E450 
  23      7B8383
  24 003d 434B34B5 		.ascii	"CK4\265u\356}\242\015\322\205\307w\370\276{\356\373"
  24      75EE7DA2 
  24      0DD285C7 
  24      77F8BE7B 
  24      EEFB
  25 004f BE732C8C 		.ascii	"\276s,\214?\033\034\240\013\304\347\010\354~l!\334H"
  25      3F1B1CA0 
  25      0BC4E708 
  25      EC7E6C21 
  25      DC48
  26 0061 1B966300 		.ascii	"\033\226c\000\325\3264\200\376\227\031\336\221Kr\244"
  26      D5D63480 
  26      FE9719DE 
  26      914B72A4 
  27 0071 4C34EE96 		.ascii	"L4\356\226\202K\266\271\305\322l!\353Q\014\305/\246"
  27      824BB6B9 
  27      C5D26C21 
  27      EB510CC5 
ARM GAS  C:\Users\Luggi\AppData\Local\Temp\ccujN3Qb.s 			page 2


  27      2FA6
  28 0083 ABEEC94B 		.ascii	"\253\356\311K\274\317?\214e\320)\245\200\222\001K\213"
  28      BCCF3F8C 
  28      65D029A5 
  28      8092014B 
  28      8B
  29 0094 9DDB763D 		.ascii	"\235\333v=\020\323\2403\315\226\014\240$b\357\365\375"
  29      10D3A033 
  29      CD960CA0 
  29      2462EFF5 
  29      FD
  30 00a5 DED122AD 		.ascii	"\336\321\"\255\200Z\232-\0320\235\355\307\247\207\260"
  30      805A9A2D 
  30      1A309DED 
  30      C7A787B0 
  31 00b5 E9F440E7 		.ascii	"\351\364@\347A\247\006\3719,\371\264\265\250\370\011"
  31      41A706F9 
  31      392CF9B4 
  31      B5A8F809 
  32 00c5 8C35D22A 		.ascii	"\2145\322*\002\273\353)\337\206}=\245\"y\330\315I\345"
  32      02BBEB29 
  32      DF867D3D 
  32      A52279D8 
  32      CD49E5
  33 00d8 17F258A8 		.ascii	"\027\362X\250\354\324\270\302\353\253\260{\2442\203"
  33      ECD4B8C2 
  33      EBABB07B 
  33      A43283
  34 00e7 9A77953F 		.ascii	"\232w\225?(\207\005$`r\236\210u\352\\\375\333\032\245"
  34      28870524 
  34      60729E88 
  34      75EA5CFD 
  34      DB1AA5
  35 00fa 0E21BB48 		.ascii	"\016!\273H\216U\026c7\317\2556kc\254d\022\027\332\331"
  35      8E551663 
  35      37CFAD36 
  35      6B63AC64 
  35      1217DAD9 
  36 010e B681817B 		.ascii	"\266\201\201{\211oB\220\231\262\361\351\374y\254\033"
  36      896F4290 
  36      99B2F1E9 
  36      FC79AC1B 
  37 011e 2BC0BEB4 		.ascii	"+\300\276\264\025\211\3217V\344\007h\011\272\207\025"
  37      1589D137 
  37      56E40768 
  37      09BA8715 
  38 012e 1628E854 		.ascii	"\026(\350TH\304\203\361[\231\3461\005\275\334\017i/"
  38      48C483F1 
  38      5B99E631 
  38      05BDDC0F 
  38      692F
  39 0140 70E0C764 		.ascii	"p\340\307dw\251\317*\015\227\027\201\247\271\351\312"
  39      77A9CF2A 
  39      0D971781 
  39      A7B9E9CA 
  40 0150 FE888B62 		.ascii	"\376\210\213b&-\\\356\240<v\307.\222\031\221g;{c\345"
  40      262D5CEE 
ARM GAS  C:\Users\Luggi\AppData\Local\Temp\ccujN3Qb.s 			page 3


  40      A03C76C7 
  40      2E921991 
  40      673B7B63 
  41 0165 38262222 		.ascii	"8&\"\"OV7\2072~\0011\252e "
  41      4F563787 
  41      327E0131 
  41      AA6520
  42              		.text
  43              		.section	.gnu.lto_.jmpfuncs.304b3edc,"",%progbits
  44 0000 789C6366 		.ascii	"x\234cf\300\016J\2404\017\0203B0\210bbbdd\256\257gd"
  44      C00E4AA0 
  44      340F1033 
  44      42308862 
  44      62626464 
  45 0018 FAC8C478 		.ascii	"\372\310\304xq\326\262f\376\027L?\231\230\031\031\030"
  45      71D6B266 
  45      FE174C3F 
  45      99981919 
  45      18
  46 0029 97334A31 		.ascii	"\2273J10\2630\002\001\177=\020\2600\003Y\354@\006+B"
  46      30B33002 
  46      017F3D10 
  46      B0300359 
  46      EC40062B 
  47 003e 8C0DC164 		.ascii	"\214\015\301d\207\030\303\001\344\327sBL\346\201P\274"
  47      8718C301 
  47      E4D77342 
  47      4CE68150 
  47      BC
  48 004f 400C005A 		.ascii	"@\014\000Z\255\021c"
  48      AD1163
  49              		.text
  50              		.section	.gnu.lto_.pureconst.304b3edc,"",%progbits
  51 0000 789C6366 		.ascii	"x\234cf``\220d\200\000\036\006)F)&)f)\026)V)6)v)\016"
  51      60609064 
  51      80001E06 
  51      29462926 
  51      29662916 
  52 001c 294E2B1E 		.ascii	")N+\036+^)\000\026\341\001\347"
  52      2B5E2900 
  52      16E101E7 
  53              		.text
  54              		.section	.gnu.lto_CySpcStart.304b3edc,"",%progbits
  55 0000 789C7D91 		.ascii	"x\234}\221\317KTQ\034\305\277\347\276\367f\036\014I"
  55      CF4B5451 
  55      1CC5BFE7 
  55      BEF7661E 
  55      0C49
  56 0012 B4B2D908 		.ascii	"\264\262\331\010\271\220\"\242M\177\301@m\203\331\012"
  56      B99022A2 
  56      4D7FC140 
  56      6D83D90A 
  57 0022 11D35BB8 		.ascii	"\021\323[\270\321a\030\027-\304;\371\"i\021&\031Z\030"
  57      D1611817 
  57      2DC43BF9 
  57      22691126 
  57      195A18
ARM GAS  C:\Users\Luggi\AppData\Local\Temp\ccujN3Qb.s 			page 4


  58 0035 0589E698 		.ascii	"\005\211\346\230\277\205\226\217\026\003AT2\224 2\015"
  58      BF85968F 
  58      16034154 
  58      32942032 
  58      0D
  59 0046 A491AD32 		.ascii	"\244\221\2552\263x\205L\347\276\227\006J=\270?\336\345"
  59      B378854C 
  59      E7BE9706 
  59      4A3DB83F 
  59      DEE5
  60 0058 9CCFF7DC 		.ascii	"\234\317\367\334\357\265\344\360\227\346\360\224\310"
  60      EFB5E4F0 
  60      97E6F094 
  60      C8
  61 0065 59AEB004 		.ascii	"Y\256\260\004j\340\225H\311U\200\331\010\244W\241\027"
  61      6AE09548 
  61      C95580D9 
  61      08A457A1 
  61      17
  62 0076 9B6A4B61 		.ascii	"\233jKa (\017\247\332\306\264\326_\276\3165_o\016i\333"
  62      20280FA7 
  62      DAC6B4D6 
  62      5FBECE35 
  62      5F6F0E69 
  63 008b 563106E3 		.ascii	"V1\006\343h\023jV6\177\256:\326\011\230\375\306\213"
  63      68136A56 
  63      367FAE3A 
  63      D60998FD 
  63      C68B
  64 009d C53B56EB 		.ascii	"\305;V\353#\255\257\325\357}\250\244\364\260\366\353"
  64      23ADAFD5 
  64      EF7DA8A4 
  64      F4B0F6EB 
  65 00ad 8D464B48 		.ascii	"\215FKH\366\004,:q:\215\223\351?Ah\330\362wWR\011\237"
  65      F6042C3A 
  65      713A8D93 
  65      E93F4168 
  65      D8F27757 
  66 00c4 058EE209 		.ascii	"\005\216\342\011Zc8&\221\000\027s2s,\320\215\306\302"
  66      5A633826 
  66      91001773 
  66      32732CD0 
  66      8DC6C2
  67 00d7 CBDB13A7 		.ascii	"\313\333\023\247\220bX\036\331\022*\345\230)i&\327L"
  67      9062581E 
  67      D9122AE5 
  67      98296926 
  67      D74C
  68 00e9 22EB1C26 		.ascii	"\"\353\034&\377\006\177\270Zk\350\013\226*G\014\353"
  68      FF067FB8 
  68      5A6BE80B 
  68      962A470C 
  68      EB
  69 00fa 87B258EA 		.ascii	"\207\262X\352A\365\326\264\352\371\245\373\265\033*"
  69      41F5D6B4 
  69      EAF9A5FB 
  69      B51B2A
ARM GAS  C:\Users\Luggi\AppData\Local\Temp\ccujN3Qb.s 			page 5


  70 0109 663115CA 		.ascii	"f1\025\312\350\241\333\226wPQQ\322)\226U<\377~\363\343"
  70      E8A1DB96 
  70      77505151 
  70      D2299655 
  70      3CFF7EF3 
  71 011e 483E36DB 		.ascii	"H>6\3334\357\016\325\006\355O*T\316\303\033%m\233\350"
  71      34EF0ED5 
  71      06ED4F2A 
  71      54CEC31B 
  71      256D9BE8 
  72 0132 EFD75F2F 		.ascii	"\357\327_/\273\321Qt\223\361\362\263\2525\212\373%\037"
  72      BBD15174 
  72      93F1F2B3 
  72      AA358AFB 
  72      251F
  73 0144 A14A600A 		.ascii	"\241J`\012i<\005o\212i\214\202\304\276o\211\030\347"
  73      693C056F 
  73      8A698C82 
  73      C4BE6F89 
  73      18E7
  74 0156 C4C4C743 		.ascii	"\304\304\307Cw\247\034c\347\0050C%\213\016\302H\376"
  74      77A71C63 
  74      E7053043 
  74      258B0EC2 
  74      48FE
  75 0168 079B258C 		.ascii	"\007\233%\214\2108\341\347\34311I\307\3337\365L\024"
  75      8838E1E7 
  75      E3313149 
  75      C7DB37F5 
  75      4C14
  76 017a 66762FDF 		.ascii	"fv/\337N\177m\254\351/cn\2371\177 \220K\302\241\004"
  76      4E7F6DAC 
  76      E92F636E 
  76      9F317F20 
  76      904BC2A1 
  77 018f FF742F44 		.ascii	"\377t/D\011\\Y\203\037,W\242\266\311\301\356&\267\315"
  77      095C5983 
  77      1F2C57A2 
  77      B6C9C1EE 
  77      26B7CD
  78 01a2 8B6091DD 		.ascii	"\213`\221\335e;C\252k(\005\325\363\221X\314[\301\274"
  78      653B43AA 
  78      6B2805D5 
  78      F39158CC 
  78      5BC1BC
  79 01b5 11352D17 		.ascii	"\0215-\027\274N\257p\271\350]\271\224\355\352.\344\274"
  79      BC4EAF70 
  79      B9E85DB9 
  79      94EDEA2E 
  79      E4BC
  80 01c7 F68BD9AE 		.ascii	"\366\213\331\256\314\271\366\314\325l>w&'M\035\235E"
  80      CCB9F6CC 
  80      D56C3E77 
  80      26274D1D 
  80      9D45
  81 01d9 AF50E8CE 		.ascii	"\257P\350\316\027\263E\252~\003:\372\341\025"
  81      17B345AA 
ARM GAS  C:\Users\Luggi\AppData\Local\Temp\ccujN3Qb.s 			page 6


  81      7E033AFA 
  81      E115
  82              		.text
  83              		.section	.gnu.lto_CySpcStop.304b3edc,"",%progbits
  84 0000 789C7D91 		.ascii	"x\234}\221\315KTQ\030\306\337\347\334;w.\014I\270\222"
  84      CD4B5451 
  84      18C6DFE7 
  84      DC3B772E 
  84      0C49B892 
  85 0014 21107221 		.ascii	"!\020r!AD\020\375\005\263p\033\314V\210\030o\320F\207"
  85      414410FD 
  85      05B3701B 
  85      CC568818 
  85      6FD04687 
  86 0028 615CB410 		.ascii	"a\\\264\020\317\344\215\206\026aRh\210Q\201h\2159VB"
  86      CFE48D86 
  86      16615268 
  86      88518168 
  86      8D395642 
  87 003c 6D828B84 		.ascii	"m\202\213\204\321\246\017\244\004\261i \205\334\245"
  87      D1A60FA4 
  87      04B16920 
  87      85DCA5
  88 004b 43D94D6C 		.ascii	"C\331Mlz\316\275}\200R\027\316\307=<\317\357}\316{,"
  88      7ACEBD7D 
  88      805217CE 
  88      C73D3CCF 
  88      EF7DCE7B 
  89 0060 D9FFA539 		.ascii	"\331\377\2459\316*\221\343\\a\011\324\360K\221\222\253"
  89      CE2A91E3 
  89      5C6109D4 
  89      F04B9192 
  89      AB
  90 0071 00B311C8 		.ascii	"\000\263\021\310\240\302 6\324\246\302pP\031KuNj\255"
  90      A0C22036 
  90      D4A6C270 
  90      50194B75 
  90      4E6AAD
  91 0084 3FDF79DC 		.ascii	"?\337y\334v\261-\244\255\241b\014\246\320)\324,o|_I"
  91      76B12DA4 
  91      ADA1620C 
  91      A6D029D4 
  91      2C6F7C5F 
  92 0099 588761F6 		.ascii	"X\207a\366\353/\346\257Y\035\267\265\276P\177\372q1"
  92      EB2FE6AF 
  92      591DB7B5 
  92      BE507FFA 
  92      7131
  93 00ab A5C7B45F 		.ascii	"\245\307\264_o6\333C\262\247a\321\211\243i\034I\377"
  93      6F36DB43 
  93      B2A761D1 
  93      89A3691C 
  93      49FF
  94 00bd 0A42C3A6 		.ascii	"\012B\303\246\277\273\234r|\0268\210\273\350\210\341"
  94      BFBB9C72 
  94      7C163888 
  94      BBE888E1 
ARM GAS  C:\Users\Luggi\AppData\Local\Temp\ccujN3Qb.s 			page 7


  95 00cd B807075C 		.ascii	"\270\007\007\\\314I\2655\320\315f\343\375\325\362\011"
  95      CC49B535 
  95      D0CD66E3 
  95      FDD5F209 
  96 00dd A4189647 		.ascii	"\244\030\226G\266\204J%\314\2244\223k&\2215\016\223"
  96      B6844A25 
  96      CC943493 
  96      6B269135 
  96      0E93
  97 00ef 7F9D3F5C 		.ascii	"\177\235?\\\255U\014\005;\213\007\014k[Y,us\351\312"
  97      AD550C05 
  97      3B8B070C 
  97      6B5B592C 
  97      7573E9CA 
  98 0103 AC1AD8D1 		.ascii	"\254\032\330\321e\355\206\212YL\205\012\006\350\266"
  98      65ED868A 
  98      594C850A 
  98      06E8B6
  99 0112 E51D5454 		.ascii	"\345\035TT\224t\212e\005\013_/\377\030\317\307f\233"
  99      94748A65 
  99      050B5F2F 
  99      FF18CFC7 
  99      669B
 100 0124 E6DDEBB5 		.ascii	"\346\335\353\265\021\373\223\012U\342\326\245\222\266"
 100      11FB930A 
 100      55E2D6A5 
 100      92B6
 101 0132 4DF40F6B 		.ascii	"M\364\017k\257\336\270\321Qt\223\251\312\223%k\002\343"
 101      AFDEB8D1 
 101      517493A9 
 101      CA93256B 
 101      02E3
 102 0144 251FA172 		.ascii	"%\037\241r0\2034\356\2037\305,&@\342\3207'\306%bbuk"
 102      308334EE 
 102      8337C52C 
 102      2640E2D0 
 102      3727C625 
 103 015c E69963EC 		.ascii	"\346\231c\354\3166\004UJYu\004F\363?\332\034id\304\021"
 103      CE360455 
 103      4A597504 
 103      46F33FDA 
 103      1C6964C4 
 104 0171 170EC5C8 		.ascii	"\027\016\305\310$\035o_\3273Q\232\271\337\001\277\224"
 104      241D6F5F 
 104      D733519A 
 104      B9DF01BF 
 104      94
 105 0182 6B932D7F 		.ascii	"k\223-\177\031\017\3760\036\356I\344\222\260/\301?\335"
 105      190FFE30 
 105      1EEE49E4 
 105      92B02FC1 
 105      3FDD
 106 0194 8FA204AE 		.ascii	"\217\242\004\256\254\302\017F\237G}\223\275\355M6\314"
 106      ACC20F46 
 106      9F477D93 
 106      BDED4D36 
 106      CC
ARM GAS  C:\Users\Luggi\AppData\Local\Temp\ccujN3Qb.s 			page 8


 107 01a5 93609EED 		.ascii	"\223`\236\355e?C\252k(\0057\272\"\261\230\307\202y$"
 107      653F43AA 
 107      6B280537 
 107      BA22B198 
 107      C7827924 
 108 01b9 6ADABBBC 		.ascii	"j\332\273\274^\257p\246\350\365\234\316\366\365\027"
 108      5EAF70A6 
 108      E8F59CCE 
 108      F6F517
 109 01c8 725EF7A9 		.ascii	"r^\367\251l_\346dw\346|6\237;\226\223\226s\275E\257"
 109      6C5FE664 
 109      77E67C36 
 109      9F3B9693 
 109      9673BD45 
 110 01dd 50E8CF17 		.ascii	"P\350\317\027\263E\252~\002\003u\342\205"
 110      B345AA7E 
 110      020375E2 
 110      85
 111              		.text
 112              		.section	.gnu.lto_CySpcReadData.304b3edc,"",%progbits
 113 0000 789C6553 		.ascii	"x\234eS]HTA\024\2363\367\356\275w\275\232\026\024\261"
 113      5D485441 
 113      149E33F7 
 113      EEBD77BD 
 113      9A1614B1 
 114 0014 2F462222 		.ascii	"/F\"\"\204=\365\032\202\017\275J\276\012Q\266\202/\031"
 114      843DF51A 
 114      820FBD4A 
 114      BE0A51B6 
 114      822F19
 115 0027 96508238 		.ascii	"\226P\2028\373SV\210\330\366b\245\331\017\231\251\255"
 115      FB535688 
 115      D8F662A5 
 115      D90F99A9 
 115      AD
 116 0038 7F69FE24 		.ascii	"\177i\376$\255\011jP\232XZjf\250aP\221)\255[\331v\316"
 116      AD096A50 
 116      9A585A6A 
 116      66A86150 
 116      9129AD5B 
 117 004f 8C9AD085 		.ascii	"\214\232\320\205\2753s\356\367}\347;\347\314j\354\377"
 117      BD3373EE 
 117      F77DE73B 
 117      E7CC6AEC 
 117      FF
 118 0060 A7007F63 		.ascii	"\247\000\177c\032c\373q\005'\003^1\314\230\307\342`"
 118      1A63FB71 
 118      0527035E 
 118      31CC98C7 
 118      E260
 119 0072 A88D0616 		.ascii	"\250\215\006\026m\372,\213ke\203\214\211\030\207\337"
 119      6DFA2C8B 
 119      6B65838C 
 119      891887DF 
 120 0082 6422D6A1 		.ascii	"d\"\326\241\000}\226\301u\0257e\\Wx0\001he\300J\270"
 120      007D96C1 
 120      75153765 
ARM GAS  C:\Users\Luggi\AppData\Local\Temp\ccujN3Qb.s 			page 9


 120      5C577830 
 120      016865C0 
 121 0098 66390CDD 		.ascii	"f9\014\335\204\022\315`\020\005\231\326R\331?\361%\016"
 121      8412CD60 
 121      100599D6 
 121      52D93FF1 
 121      250E
 122 00aa CFBBFE8C 		.ascii	"\317\273\376\214A\312]!\274\337\276\367N\333\347vG8"
 122      41CA5D21 
 122      BCDFBEF7 
 122      4EDBE776 
 122      4738
 123 00bc 63CB9CC1 		.ascii	"c\313\234\301>\027\244\272H\343\036\244 n\356I\363O"
 123      3E17A4BA 
 123      48E31EA4 
 123      206EEE49 
 123      F34F
 124 00ce 5BDB0B0C 		.ascii	"[\333\013\014\367]\301\225\027\366\"\217p\330C\307\356"
 124      F75DC195 
 124      17F6228F 
 124      70D843C7 
 124      EE
 125 00df C050A541 		.ascii	"\300P\245AG\256\323q\342b\331\242\231|\007\025C=\255"
 125      47AED371 
 125      E262D9A2 
 125      997C0715 
 125      433DAD
 126 00f2 225D8F70 		.ascii	"\"]\217p\015\352@#\315\373\340\202zp1\0141h\200dD\277"
 126      0DEA4023 
 126      CDFBE082 
 126      7A70310C 
 126      31688064 
 127 0108 7CE6998A 		.ascii	"|\346\231\212\327R\245n\323x\325\025[1\247\202\"\035"
 127      D752A56E 
 127      D378D515 
 127      5B31A782 
 127      221D
 128 011a D00A342A 		.ascii	"\320\0124*\246rC\336\340\001$\023x\245\264i\312\324"
 128      A67243DE 
 128      E0012413 
 128      78A5B469 
 128      CAD4
 129 012c D224B1C1 		.ascii	"\322$\261\301\033\256\267\223n!q627`\213J\341\237\215"
 129      1BAEB793 
 129      6E217136 
 129      3237608B 
 129      4AE19F8D 
 130 0140 4613891F 		.ascii	"F\023\211\037\334\312W\017\022\226\374k\023\266\341"
 130      DCCA570F 
 130      1296FC6B 
 130      13B6E1
 131 014f 17422440 		.ascii	"\027B$@\023$Q\301\250\334\014\0066\010(\322\264#$\242"
 131      132451C1 
 131      A8DC0C06 
 131      360828D2 
 131      B42324A2 
 132 0163 D1B6DF97 		.ascii	"\321\266\337\227\353\222\370v`\024r\000\2456\320\204"
ARM GAS  C:\Users\Luggi\AppData\Local\Temp\ccujN3Qb.s 			page 10


 132      EB92F876 
 132      60147200 
 132      A536D084 
 133 0173 6EE18B3B 		.ascii	"n\341\213;\201J\210\241bl\012\306\322+^B\023\344\233"
 133      814A88A1 
 133      626C0AC6 
 133      D22B5E42 
 133      13E49B
 134 0186 B179947D 		.ascii	"\261y\224}\313\330\002\347\270h\343\340\015\205\007"
 134      CBD802E7 
 134      B868E3E0 
 134      0D8507
 135 0195 E3641AFC 		.ascii	"\343d\032\374\2146\336\317\217\214Z\3249\312\336\002"
 135      8C36DECF 
 135      8F8C5AD4 
 135      39CADE02 
 136 01a5 6470015B 		.ascii	"dp\001[\203#\325\246\301\037\212\016n#0\031\2761V\036"
 136      8323D5A6 
 136      C11F8A0E 
 136      6E233019 
 136      BE31561E 
 137 01b9 E4C5BFC4 		.ascii	"\344\305\277\304\005aE\270c\231\223\317V(\246O\243\327"
 137      056145B8 
 137      639993CF 
 137      5628A64F 
 137      A3D7
 138 01cb 6A7DF124 		.ascii	"j}\361$\202\346\241\015\\\021nJ\035\213\341\035\200"
 138      82E6A10D 
 138      5C116E4A 
 138      1D8BE11D 
 138      80
 139 01dc 4978FAE3 		.ascii	"Ix\372\343\322\327\232L\022\012s\003\361\201\212\252"
 139      D2D79A4C 
 139      120A7303 
 139      F1818AAA 
 140 01ec 55393DEB 		.ascii	"U9=\353v\271G\310\221m\372\260dw\206\373;\326\354j\270"
 140      76B947C8 
 140      916DFAB0 
 140      647786FB 
 140      3BD6EC6A 
 141 0201 EEF1E308 		.ascii	"\356\361\343\010\234\360\020\247\326N\346\240\003\252"
 141      9CF010A7 
 141      D64EE6A0 
 141      03AA
 142 020f 814D826F 		.ascii	"\201M\202o\325Pr\266R\034\254^l\325\211\256\243\203"
 142      D55072B6 
 142      521CAC5E 
 142      6CD589AE 
 142      A383
 143 0221 47887C0D 		.ascii	"G\210|\015\3767\276\242u\014\002<\265=e\246\004\240"
 143      FE37BEA2 
 143      750C023C 
 143      B53D65A6 
 143      04A0
 144 0233 4827A841 		.ascii	"H'\250A,p\007\363\233\332$xgJ\207\353\016*\264\025\346"
 144      2C7007F3 
 144      9BDA2478 
ARM GAS  C:\Users\Luggi\AppData\Local\Temp\ccujN3Qb.s 			page 11


 144      674A87EB 
 144      0E2AB415 
 145 0248 3243E57A 		.ascii	"2C\345z\206\2300wb\224\3112>s\025\214E\311W\241`\243"
 145      86983077 
 145      6294C932 
 145      3E73158C 
 145      45C957A1 
 146 025e B27C73A3 		.ascii	"\262|s\243\212\266\221\376\253\306?\333]\233\266\273"
 146      8AB691FE 
 146      ABC63FDB 
 146      5D9BB6BB 
 147 026e 956D6FE0 		.ascii	"\225mo\340\303N\022\330Z\260&\013n_\255\371\022GL!B"
 147      C34E12D8 
 147      5AB0260B 
 147      6E5FADF9 
 147      12474C21 
 148 0283 746B302F 		.ascii	"tk0/\364H\352c\244bB\262\0248?SsF\031\210G\227[;\217"
 148      F448EA63 
 148      A46242B2 
 148      14383F53 
 148      73461988 
 149 029c 7F34E845 		.ascii	"\1774\350E\3748\360\215\351\"H\326h\260w&M^]\011\252"
 149      FC38F08D 
 149      E92248D6 
 149      68B07726 
 149      4D5E5D09 
 150 02b1 0E9BF3DC 		.ascii	"\016\233\363\334\267K\011\241\266\203z\361\021\200\346"
 150      B74B09A1 
 150      B6837AF1 
 150      1180E6
 151 02c0 CF3B35E4 		.ascii	"\317;5\3449\206L$\352\324\034R0\351\356\220\373\226"
 151      39864C24 
 151      EAD41C52 
 151      30E9EE90 
 151      FB96
 152 02d2 81C38A95 		.ascii	"\201\303\212\225@23HQ'F\027\015\020\205\327(\361\220"
 152      40323348 
 152      51274617 
 152      0D1085D7 
 152      28F190
 153 02e5 FB84BBE0 		.ascii	"\373\204\273\340\350i\367\361#Y\371\205\0059\356\354"
 153      E869F7F1 
 153      2359F985 
 153      0539EEEC 
 154 02f5 CCACFC8C 		.ascii	"\314\254\374\214\003\331\031g\263N\346\244\3450\343"
 154      03D91967 
 154      B34EE6A4 
 154      E530E3
 155 0304 58616EAE 		.ascii	"Xan\256\273@?\225W\344\206\274\277\013\363a\014"
 155      BB403F95 
 155      57E486BC 
 155      BF0BF361 
 155      0C
 156              		.text
 157              		.section	.gnu.lto_CySpcLoadMultiByte.304b3edc,"",%progbits
 158 0000 789C8D55 		.ascii	"x\234\215UmL\223W\024\276\347\336\276\037\355\013\001"
 158      6D4C9357 
ARM GAS  C:\Users\Luggi\AppData\Local\Temp\ccujN3Qb.s 			page 12


 158      14BEE7DE 
 158      BE1FED0B 
 158      01
 159 0011 89715A1D 		.ascii	"\211qZ\035,#\216\231\350\266\230-[\226e3a\311\366\323"
 159      2C238E99 
 159      E8B6982D 
 159      5B966533 
 159      61C9F6D3 
 160 0025 84BF2E0B 		.ascii	"\204\277.\013\203\232\371G\027\320d\356\307|K\361c\316"
 160      839AF947 
 160      17D064EE 
 160      C77C4BF1 
 160      63CE
 161 0037 38D24D86 		.ascii	"8\322M\206L7\374\030\333\024\333*\363\033\261\340\024"
 161      4C37FC18 
 161      DB14DB2A 
 161      F31BB1E0 
 161      14
 162 0048 5CF91044 		.ascii	"\\\371\020D\020M\300M0\030\331\204\300(\232);\347\336"
 162      104DC04D 
 162      3018D984 
 162      C0289A29 
 162      3BE7DE
 163 005b B69669D4 		.ascii	"\266\226i\324&\275o\317y\237\363\334\347\234{\316\255"
 163      26BD6FCF 
 163      799FF3DC 
 163      E79C7BCE 
 163      AD
 164 006c 600F7F76 		.ascii	"`\017\177v\343w\261\311\330\273\370\204\024\006\274"
 164      E377B1C9 
 164      D8BBF884 
 164      1406BC
 165 007b AC8D31AF 		.ascii	"\254\2151\257\311\271\330\224\303l\227\203\326\024\301"
 165      C9B9D894 
 165      C36C9783 
 165      D614C1
 166 008a F524CBC1 		.ascii	"\365$\313\301\265\256\227\321\262\3522\321\322\270\236"
 166      B5AE97D1 
 166      B2EA32D1 
 166      D2B89E
 167 0099 64E9DC18 		.ascii	"d\351\334\030\230CV\315\253h\031\334L\262Lp)r\247\372"
 167      984356CD 
 167      AB6819DC 
 167      4CB24C70 
 167      2972A7FA 
 168 00ad D160BAB8 		.ascii	"\321`\272\270sK\023#@\251\201\000\013\200\374\014\330"
 168      734B1323 
 168      40A98100 
 168      0B80FC0C 
 168      D8
 169 00be 3A2E1C9A 		.ascii	":.\034\232n\230N\227\005\353\270\213\301\024H\2657\371"
 169      6E984E97 
 169      05EBB88B 
 169      C11448B5 
 169      37F9
 170 00d0 2887E381 		.ascii	"(\207\343\201\361Vk\210\337\341\3549\206\346\011\177"
 170      F1566B88 
ARM GAS  C:\Users\Luggi\AppData\Local\Temp\ccujN3Qb.s 			page 13


 170      DFE1EC39 
 170      86E6097F 
 171 00e0 73854E26 		.ascii	"s\205N&8\310\354\351\256\350q\346\374h\333%#%\275\037"
 171      38C8ECE9 
 171      AEE871E6 
 171      FC68DB25 
 171      2325BD1F 
 172 00f4 6FFFA60A 		.ascii	"o\377\246\012\337p6\306\031\374\004n\370\031\334\264"
 172      DF7036C6 
 172      19FC046E 
 172      F819DCB4 
 173 0104 C12F9083 		.ascii	"\301/\220\203\320\352\266c\307A<\017\024fo\233\034\026"
 173      D0EAB663 
 173      C7413C0F 
 173      14666F9B 
 173      1C16
 174 0116 F3F76058 		.ascii	"\363\367`X8\022\260\227\300\035.`\037\010\212[\350\206"
 174      3812B097 
 174      C01D2E60 
 174      1F088A5B 
 174      E886
 175 0128 056E860E 		.ascii	"\005n\206\016\006\373a>b\313n\365~\225\"^\224q\221?"
 175      06FB613E 
 175      62CB6EF5 
 175      7E95225E 
 175      9471913F 
 176 013c 27C752A4 		.ascii	"'\307R\244\230t2+{\006\307\205\024\303\311,\337~}\233"
 176      9874322B 
 176      7B06C785 
 176      14C3C92C 
 176      DF7E7D9B 
 177 0150 4BB1DE0C 		.ascii	"K\261\336\014\331K\320\357\200\032\305z\000\325\004"
 177      D94BD0EF 
 177      801AC57A 
 177      00D504
 178 015f 80781D0C 		.ascii	"\200x\035\014\202\222\367\372\351\320]K\274\"y{\276"
 178      8292F7FA 
 178      E9D05D4B 
 178      BC22797B 
 178      BE
 179 0170 D83264A8 		.ascii	"\3302d\250\310\255{\364\367\357p\015B*0\236\006\272"
 179      C8AD7BF4 
 179      F7EF700D 
 179      422A309E 
 179      06BA
 180 0182 181C9481 		.ascii	"\030\034\224\201\027\316{\257\246\211\327e`\260{\307"
 180      17CE7BAF 
 180      A689D765 
 180      60B07BC7 
 181 0192 D7960A0C 		.ascii	"\327\226\012\014\\\327fS\036\207\036\312\243\026\346"
 181      5CD76653 
 181      1E871ECA 
 181      A316E6
 182 01a1 13B66CFD 		.ascii	"\023\266l\375\341!]\274\2456\274\330\027\025\331\273"
 182      E1215DBC 
 182      A536BCD8 
 182      1715D9BB 
ARM GAS  C:\Users\Luggi\AppData\Local\Temp\ccujN3Qb.s 			page 14


 183 01b1 30EE5AE4 		.ascii	"0\356Z\344lS\212\335l\227^\233\232\312\302\342\301\257"
 183      6C538ADD 
 183      6C975E9B 
 183      9ACAC2E2 
 183      C1AF
 184 01c3 D337561F 		.ascii	"\3237V\037\014\031\337\030\274j\210\\\031\276\277$\272"
 184      0C19DF18 
 184      BC6A885C 
 184      19BEBF24 
 184      BA
 185 01d4 CF52E12D 		.ascii	"\317R\341-\203\347,\273\"\036.\340H\362\366\211\340"
 185      83E72CBB 
 185      221E2EE0 
 185      48F2F689 
 185      E0
 186 01e5 D1D27B3D 		.ascii	"\321\322{=\226^j\333v:\034\206l8\012\331tJx8\307@\307"
 186      965E6ADB 
 186      763A1C86 
 186      6C380AD9 
 186      744A7838 
 187 01fc D3E6716F 		.ascii	"\323\346qo0#lOM\325\016\372\207rD\0260r#\033\276\320"
 187      30236C4F 
 187      4DD50EFA 
 187      87724416 
 187      3072231B 
 188 0212 80CE4307 		.ascii	"\200\316C\007\312\306\304\274t'-\251\264\244\001\225"
 188      CAC6C4BC 
 188      74272DA9 
 188      B4A40195 
 189 0222 341D7F1A 		.ascii	"4\035\177\0323\310\316\240e&-\263h\231M\313\034\\0#"
 189      33C8CEA0 
 189      65262DB3 
 189      68994DCB 
 189      1C5C3023 
 190 0236 2AE15C2A 		.ascii	"*\341\\*\346<rfJf\306\006P\011\365\342 \366\016>E7\224"
 190      E63C7266 
 190      4A66C606 
 190      5009F5E2 
 190      20F60E3E 
 191 024d 84BFFD32 		.ascii	"\204\277\3752MjC\001\250?\372o\323\3724:in08\216e\271"
 191      4D6A4301 
 191      A83FFA6F 
 191      D3FA343A 
 191      696E3038 
 192 0264 04A5ADBE 		.ascii	"\004\245\255\276[\345\006a\242\\C\310\301\013\273ZS"
 192      5BE50661 
 192      A25C43C8 
 192      C10BBB5A 
 192      53
 193 0275 0922DE66 		.ascii	"\011\"\336fp\"V\271A\254\377\246\034!\321\023\\\201"
 193      702256B9 
 193      41ACFFA6 
 193      1C21D113 
 193      5C81
 194 0287 750437D7 		.ascii	"u\0047\327\005\375\012\234\305\340d\002\354`-o\022\270"
 194      05FD0A9C 
 194      C5E06402 
ARM GAS  C:\Users\Luggi\AppData\Local\Temp\ccujN3Qb.s 			page 15


 194      EC602D6F 
 194      12B8
 195 0299 CD77573C 		.ascii	"\315wW<`\036h\277To\020X\177\207A]\002\254\261\376l"
 195      601E68BF 
 195      546F1058 
 195      7F87415D 
 195      02ACB1FE 
 196 02ae C57CBBFC 		.ascii	"\305|\273\374\203\007\324\301\263\221F9!\"\215\301\251"
 196      8307D4C1 
 196      B3914639 
 196      21228DC1 
 196      A9
 197 02bf 045A67FB 		.ascii	"\004Zg\373\027\210+\3208\261\371\357\003o(\264\211h"
 197      17882BD0 
 197      38B1F9EF 
 197      036F28B4 
 197      8968
 198 02d1 7FD98E49 		.ascii	"\177\331\216I9^\346\356\255^[\316T\377@{\207)]\362\350"
 198      395EE6EE 
 198      AD5E5BCE 
 198      54FF407B 
 198      87295DF2 
 199 02e6 DACE1CB9 		.ascii	"\332\316\034\271g\355\204\357\274\2458&N\250\307*\236"
 199      67ED84EF 
 199      BCA53826 
 199      4EA8C72A 
 199      9E
 200 02f7 265608C3 		.ascii	"&V\010\303N`W\3007\251+\272\331\21211\024:\036\\\203"
 200      4E6057C0 
 200      37A92BBA 
 200      D98A3131 
 200      143A1E5C 
 201 030c 2A55AF6F 		.ascii	"*U\257oe\014\203\000o\365\311-*\035$iL\0104Xg*\011\034"
 201      650C8300 
 201      6FF5C92D 
 201      2A1D2469 
 201      4C083458 
 202 0324 19B9ED77 		.ascii	"\031\271\355w\022\032\241]\341@\215\222R\025WW\333~"
 202      121AA15D 
 202      E1408D92 
 202      52155757 
 202      DB7E
 203 0336 66BB2EE5 		.ascii	"f\273.\345x\303\317\222\2403\011A\277\241 D\204\352"
 203      78C3CF92 
 203      A0330941 
 203      BFA12044 
 203      84EA
 204 0348 87FBE590 		.ascii	"\207\373\345\220:\217`\003\235\305W\304\032\032O\260"
 204      3A8F6003 
 204      9DC557C4 
 204      1A1A4FB0 
 205 0358 3E86E29C 		.ascii	">\206\342\234\242\270_[\247.\035\275\013)\232b\024#"
 205      A2B85F5B 
 205      A72E1DBD 
 205      0B299A62 
 205      1423
 206 036a 4F45D1AC 		.ascii	"OE\321\254(:*\253}\262c\234\310p^1Ll\356\013,U\205H"
ARM GAS  C:\Users\Luggi\AppData\Local\Temp\ccujN3Qb.s 			page 16


 206      283A2AAB 
 206      7DB2639C 
 206      C8705E31 
 206      4C6CEE0B 
 207 0382 7D5C657F 		.ascii	"}\\e\177\377_e\235\210\217\227\362\262\357\363\2303"
 207      FF5F659D 
 207      888F97F2 
 207      B2EFF398 
 207      33
 208 0393 A976260B 		.ascii	"\251v&\013;\250v\345\243\023\235\217\222\270`\272\304"
 208      3BA876E5 
 208      A3139D8F 
 208      92B860BA 
 208      C4
 209 03a4 08F2636B 		.ascii	"\010\362ck\321\026}\033&\002\307@1\246Gy\032\006\356"
 209      D1167D1B 
 209      2602C740 
 209      31A64779 
 209      1A06EE
 210 03b7 DD565EA3 		.ascii	"\335V^\243\221r\227\311\240E*/\351\2135\372\014DIe\033"
 210      917297C9 
 210      A0452A2F 
 210      E98B35FA 
 210      0C444965 
 211 03cc 861DCA93 		.ascii	"\206\035\312\223\201\316x~~x\362\336\255r\357\014\""
 211      81CE787E 
 211      7E78F2DE 
 211      AD72EF0C 
 211      22
 212 03dd BDBCF17E 		.ascii	"\275\274\361~\340\373\330\3363qoI\361\307\013O\346h"
 212      E0FBD8DE 
 212      33716F49 
 212      F1C70B4F 
 212      E668
 213 03ef 931C3349 		.ascii	"\223\0343I\210\177\303\271`(\3061K\015\300\326He\203"
 213      887FC3B9 
 213      6028C631 
 213      4B0DC0D6 
 213      486583
 214 0402 6A40FC1F 		.ascii	"j@\374\037\201\366\230\264\247\341\275 yg1\232\377\177"
 214      81F698B4 
 214      A7E1BD20 
 214      7967319A 
 214      FF7F
 215 0414 22CFC8F9 		.ascii	"\"\317\310\371?*\347?1\023\002a\035\262\356\203\334"
 215      3F2AE73F 
 215      31130261 
 215      1DB2EE83 
 215      DC
 216 0425 C91A1709 		.ascii	"\311\032\027\011*\316\306\033\301\316\230\2069Q\274"
 216      2ACEC61B 
 216      C1CE9886 
 216      3951BC
 217 0434 43505745 		.ascii	"CPWE\354\350\346F\271\033\275\224\356\204K\271\346%"
 217      ECE8E646 
 217      B91BBD94 
 217      EE844BB9 
ARM GAS  C:\Users\Luggi\AppData\Local\Temp\ccujN3Qb.s 			page 17


 217      E625
 218 0446 F36972C6 		.ascii	"\363ir\306\016O\376\360W*j\302>\2600\006:\245\234\213"
 218      0E4FFEF0 
 218      572A6AC2 
 218      3EB03006 
 218      3AA59C8B 
 219 045a AA0D50FB 		.ascii	"\252\015P\373\302Gh_4]{\227\324>O\325\244;Q\223L\324"
 219      C247685F 
 219      345D7B97 
 219      D43E4FD5 
 219      A43B5193 
 220 0470 93DC8D02 		.ascii	"\223\334\215\002Kr\011\003\272\201\307\323C\220L\307"
 220      4B720903 
 220      BA81C7D3 
 220      43904CC7 
 221 0480 C54A16D3 		.ascii	"\305J\026\323\325\227\316\224\227S\273\265\370\252c"
 221      D597CE94 
 221      9753BBB5 
 221      F8AA63
 222 048f 4C3C4A03 		.ascii	"L<J\003\313\330\015\214\304\012\230\223\032\006:7Y\030"
 222      CBD80D8C 
 222      C40A9893 
 222      1A063A37 
 222      5918
 223 04a1 69C56FCD 		.ascii	"i\305o\315tyaG9\260>\360\206O\265\305n<\240(\032\212"
 223      74796147 
 223      39B03EF0 
 223      864FB5C5 
 223      6E3CA028 
 224 04b7 BD1DFD1D 		.ascii	"\275\035\375\035\362h\350o\260\033\334\372\360hh\332"
 224      F268E86F 
 224      B01BDCFA 
 224      F06868DA 
 225 04c7 B020147A 		.ascii	"\260 \024z\300\255\325\215U\221\177\274\346\356E9\207"
 225      C0ADD58D 
 225      55917FBC 
 225      E6EE4539 
 225      87
 226 04d8 586BB80C 		.ascii	"Xk\270\014nc\307\3505\240\373\327U\327\373)\001\035"
 226      6E63C7E8 
 226      35A0FBD7 
 226      55D7FB29 
 226      011D
 227 04ea 04C4FB1B 		.ascii	"\004\304\373\033H\001\336\342Y\357yVz\212\362W{\012"
 227      4801DEE2 
 227      59EF7956 
 227      7A8AF257 
 227      7B0A
 228 04fc 3FCC5BB5 		.ascii	"?\314[\265\246\250\300\263li\336\252\334\327\226\345"
 228      A6A8C0B3 
 228      6C69DEAA 
 228      DCD796E5 
 229 050c AECDFBA4 		.ascii	"\256\315\373\244\340\245\002\246\345\027\025\345\257"
 229      E0A502A6 
 229      E51715E5 
 229      AF
 230 0519 35F20B0B 		.ascii	"5\362\013\013\213<\305\305\372Gk\226/\367\0249\212W"
ARM GAS  C:\Users\Luggi\AppData\Local\Temp\ccujN3Qb.s 			page 18


 230      8B3CC5C5 
 230      FA476B96 
 230      2FF71439 
 230      8A57
 231 052b 7CE6D18B 		.ascii	"|\346\321\213W\347\257^S\014+\376\003\305\312\371\017"
 231      57E7AF5E 
 231      530C2BFE 
 231      03C5CAF9 
 231      0F
 232              		.text
 233              		.section	.gnu.lto_CySpcLoadRow.304b3edc,"",%progbits
 234 0000 789C8D54 		.ascii	"x\234\215TmlSU\030>\357\271\367\236\333\322JK\227\231"
 234      6D6C5355 
 234      183EEFB9 
 234      F79EDBD2 
 234      4A4B9799 
 235 0014 D844302E 		.ascii	"\330D0.s\220\030\341\207&&\372\203\204\037\3765\331"
 235      739018E1 
 235      872626FA 
 235      83841FFE 
 235      35D9
 236 0026 5F123367 		.ascii	"_\0223gQ\376\200\3516\"\376\341v-,\230E\346\246f (\370"
 236      51FE80E9 
 236      3622FEE1 
 236      762D2C98 
 236      45E6A666 
 237 003d 3151C756 		.ascii	"1Q\307V>6\367\275\262\212-_\233u\260\252\204m\"#%\231"
 237      3E36F7BD 
 237      B28A2D5F 
 237      9B75B0AA 
 237      846D2223 
 238 0053 61CB166E 		.ascii	"a\313\026n\207\214\372\276\347\264sSBl\262\273\236\267"
 238      878CFABE 
 238      E7B47353 
 238      426CB2BB 
 238      9EB7
 239 0065 CFF39CE7 		.ascii	"\317\363\234\347}\316{\256\306\376\373y\023\377\246"
 239      7DCE7BAE 
 239      C6FEFB79 
 239      13FFA6
 240 0074 0DC65EC6 		.ascii	"\015\306^\306\377\340`\300\033\206\031\01398\327\256"
 240      FFE060C0 
 240      1B86190B 
 240      3938D7AE 
 241 0084 6C64D62A 		.ascii	"ld\326*\263o-\263\334\032\327\227\255t\020\012d\250"
 241      B36F2DB3 
 241      DC1AD797 
 241      AD74100A 
 241      64A8
 242 0096 2F671D82 		.ascii	"/g\035\202\033\365\011F\200\210\211\000\023\200\352"
 242      1BF50946 
 242      80888900 
 242      1380EA
 243 00a5 0CD81EAE 		.ascii	"\014\330\036\256\351\2060a\017\027\014r9Mny\233\317"
 243      E9863061 
 243      0F170C72 
 243      394D6E79 
ARM GAS  C:\Users\Luggi\AppData\Local\Temp\ccujN3Qb.s 			page 19


 243      9BCF
 244 00b7 72E86E9B 		.ascii	"r\350n\233\277\354\312\360\005\316\236b\270\354iL6\013"
 244      BFECCAF0 
 244      05CE9E62 
 244      B8EC694C 
 244      360B
 245 00c9 5A824ECB 		.ascii	"Z\202N\313\364Xs\332Y\366\225e\325\316\334\370\353\255"
 245      F45873DA 
 245      59F69565 
 245      D5CEDCF8 
 245      EBAD
 246 00db 831F1EC5 		.ascii	"\203\037\036\305_8\233\343\014\276\006?\034\007?\251"
 246      5F389BE3 
 246      0CBE063F 
 246      1C073FA9 
 247 00eb 7F036508 		.ascii	"\177\003e\010m\031\356\352\006\355i \232\365QvZ+\375"
 247      6D19EEEA 
 247      06ED6920 
 247      9AF55176 
 247      5A2BFD
 248 00fe 0269B1FE 		.ascii	"\002i\261\3766k3,p\015\276\005\215x\317\372a\203\237"
 248      366B332C 
 248      700DBE05 
 248      8D78CFFA 
 248      61839F
 249 0111 6181C177 		.ascii	"a\201\301wP\212\330?\006\243\367\\\332z\311K\357\257"
 249      508AD83F 
 249      06A3F75C 
 249      DA7AC94B 
 249      EFAF
 250 0123 CF988A97 		.ascii	"\317\230\212\2279em\326\027\270\016\255\212W\330\017"
 250      39656DD6 
 250      17B80EAD 
 250      8A57D80F 
 251 0133 4B0C4E48 		.ascii	"K\014NH\346O\347C\327<\332F\311\274x#;\347\226mxiy("
 251      E64FE743 
 251      D73CDA46 
 251      C9BC7823 
 251      3BE7966D 
 252 014b 3D35AFC9 		.ascii	"=5\257\31168-\367]\277pF(\335\375a\261~\201\033\320"
 252      36382DF7 
 252      5DBF7046 
 252      28DDFD61 
 252      B17E811B 
 253 0160 A664DB51 		.ascii	"\246d\333Q6*e\015\006'\241\224\320\015{;2B{^9\032\035"
 253      362A650D 
 253      0627A194 
 253      D00D7B3B 
 253      32427B5E 
 254 0177 B7B59263 		.ascii	"\267\265\222c\310\234\314$\022n+iE&s\271u\230\002\234"
 254      C89CCC24 
 254      126E2B69 
 254      452673B9 
 254      7598029C 
 255 018b 5A694C7D 		.ascii	"ZiL}\2202_\327~\315\324^\222\364\336;'\016\033\212~"
 255      90325FD7 
 255      7ECDD45E 
ARM GAS  C:\Users\Luggi\AppData\Local\Temp\ccujN3Qb.s 			page 20


 255      92F4DE3B 
 255      270E1B8A 
 256 01a0 BBAECE6D 		.ascii	"\273\256\316m\035/\320\0158\263\322\300\022}6\262\230"
 256      1D2FD00D 
 256      38B3D2C0 
 256      127D36B2 
 256      98
 257 01b1 76898865 		.ascii	"v\211\210eY^8\015%\320\001%\0248\346\334\011\002\030"
 257      595E380D 
 257      25D00125 
 257      1438E6DC 
 257      090218
 258 01c4 E3856ABB 		.ascii	"\343\205j\273/f\345rsw\2322e\372\343\300\250\214z\370"
 258      2F66E572 
 258      73779A32 
 258      65FAE3C0 
 258      A88C7AF8 
 259 01d8 83C06E84 		.ascii	"\203\300n\204I\017\027=\334@I\257\006j\317C\005/>`\015"
 259      490F173D 
 259      DC4049AF 
 259      066ACF43 
 259      052F3E60 
 260 01ed 508A3ECA 		.ascii	"P\212>\312\263\210\212\305\222\312\330M\334j\316\307"
 260      B3888AC5 
 260      92CAD84D 
 260      DC6ACEC7 
 261 01fd A6E8987D 		.ascii	"\246\350\230}\332\030\324\306R\007<rk\324G{\366\375"
 261      DA18D4C6 
 261      52073C72 
 261      6BD4477B 
 261      F6FD
 262 020f C45E0F25 		.ascii	"\304^\017%\313M\006\337\243\361\337`\350\356{\267\006"
 262      CB4D06DF 
 262      A3F1DF60 
 262      E8EE7BB7 
 262      06
 263 0220 3611C6E6 		.ascii	"6\021\306\346\002!\215\015\207\263r\244\314\317\337"
 263      02218D0D 
 263      87B372A4 
 263      CCCFDF
 264 022f 0F59728E 		.ascii	"\017Yr\216&n\216\244\034\262${\034\216w.\272\216\300"
 264      266E8EA4 
 264      1CB2247B 
 264      1C8E772E 
 264      BA8EC0
 265 0242 27A1088E 		.ascii	"'\241\010\216\206\003\2720\203n\312\000z\340\010\240"
 265      8603BA30 
 265      836ECA00 
 265      7AE008A0 
 266 0252 62382B94 		.ascii	"b8+\224\234G).\035\247\300\016{\021y\025\"\277\206\327"
 266      9C47292E 
 266      1DA7C00E 
 266      7B117915 
 266      22BF86D7 
 267 0266 E6310808 		.ascii	"\3461\010\010\265\364\326\233\022\200\"}\3718\247p\310"
 267      B5F4D69B 
 267      1280227D 
ARM GAS  C:\Users\Luggi\AppData\Local\Temp\ccujN3Qb.s 			page 21


 267      F938A770 
 267      C8
 268 0277 E22E0D0D 		.ascii	"\342.\015\015\316D\355Q\223\320\010\275\022kkUV\216"
 268      CE44ED51 
 268      93D008BD 
 268      126B6B55 
 268      568E
 269 0289 16DC9D1E 		.ascii	"\026\334\235\036\211\037\024\322N(\366\004\031\352_"
 269      891F14D2 
 269      4E28F604 
 269      19EA5F
 270 0298 32348086 		.ascii	"24\200\206\020\021\035\230\236\220\343\345\350\304\244"
 270      10111D98 
 270      9E90E3E5 
 270      E8C4A4
 271 02a7 0755DB33 		.ascii	"\007U\33333\377\250>B\"\246$>]L_\226\373\212\253(q6"
 271      33FFA83E 
 271      4222A624 
 271      3E5D4C5F 
 271      96FB8AAB 
 272 02be 2F11BDFF 		.ascii	"/\021\275\377\177$\206\224\304\310d\374\200r\2011\304"
 272      7F248694 
 272      C4C864FC 
 272      80728131 
 272      C4
 273 02cf 0BD98F0F 		.ascii	"\013\331\217\017\276\250\202p=*\331\037\376\225\254"
 273      BEA88270 
 273      3D2AD91F 
 273      FE95AC
 274 02de 89F84294 		.ascii	"\211\370B\224\277\204w\344\213\313\262\323Y\304\244"
 274      BF8477E4 
 274      8BCBB2D3 
 274      59C4A4
 275 02ed EC3E9E7D 		.ascii	"\354>\236}\320\344|\210\305'WZ<\207\3726w3\232\230\334"
 275      D0E47C88 
 275      C527575A 
 275      3C87FA36 
 275      77339A98 
 276 0302 48B19C98 		.ascii	"H\261\234\230\01691Kg\217o7\370Q\352O\341w|Q\241|\355"
 276      0E39314B 
 276      678F6F37 
 276      F851EA4F 
 276      E1777C51 
 277 0319 78DD70B2 		.ascii	"x\335p\262\007\324\366^\033\247\016=6\347=\372l\276"
 277      07D4F65E 
 277      1BA70E3D 
 277      36E73DFA 
 277      6CBE
 278 032b 06AB58AA 		.ascii	"\006\253X\252\275\273J\225\212\226\013\352r\230:\262"
 278      BDBB4A95 
 278      8A960BEA 
 278      72983AB2 
 279 033b 9FFDF918 		.ascii	"\237\375\371\030\232\302\206\235\310\201\204\364\223"
 279      9AC2869D 
 279      C88184F4 
 279      93
 280 0348 54FD0E35 		.ascii	"T\375\0165\376\376\314C\314oXi\376\2744_D{7\356{0\330"
ARM GAS  C:\Users\Luggi\AppData\Local\Temp\ccujN3Qb.s 			page 22


 280      FEFECC43 
 280      CC6F5869 
 280      FEBC345F 
 280      447B37EE 
 281 035f 9CF7538C 		.ascii	"\234\367S\214~\220\230:\324\022\226#o\340\301]@\302"
 281      7E90983A 
 281      D4129623 
 281      6FE0C15D 
 281      40C2
 282 0371 18F0427F 		.ascii	"\030\360B\177\010\222\375\010\206oZ\272.^\246\312\234"
 282      0892FD08 
 282      866F5ABA 
 282      2E5EA6CA 
 282      9C
 283 0382 82BD14DE 		.ascii	"\202\275\024\336\245\224\270\315WS\254\267\220\211\021"
 283      A594B8CD 
 283      5753ACB7 
 283      908911
 284 0391 E85D0612 		.ascii	"\350]\006\022\215\244\023\231f\376\236y\345\015\266"
 284      8DA41399 
 284      66FE9E79 
 284      E50DB6
 285 03a0 39B07108 		.ascii	"9\260q\010\305\372\177\346\212\011D\242\303\237o\275"
 285      C5FA7FE6 
 285      8A0944A2 
 285      C39F6FBD 
 286 03b0 372A6F15 		.ascii	"7*o\025w2\270\010~m\372\203\223T\37725\221\222w\203"
 286      7732B808 
 286      7E6DFA83 
 286      9354FF32 
 286      35919277 
 287 03c5 5E8C97C0 		.ascii	"^\214\227\300\317\373\232\216\001\335LQ\277\370\016"
 287      CFFB9A8E 
 287      01DD4C51 
 287      BFF80E
 288 03d4 5E67407D 		.ascii	"^g@}\274\323\353^\011\354\010\004+\252\003o\274V\276"
 288      BCD3EB5E 
 288      09EC0804 
 288      2BAA036F 
 288      BC56BE
 289 03e7 B3265819 		.ascii	"\263&X\031\330\372j\371\316-/l\335\262\273\374\355\312"
 289      D8FA6AF9 
 289      CE2D2F6C 
 289      DDB2BBFC 
 289      EDCA
 290 03f9 E72A9951 		.ascii	"\347*\231Q\021\014V\354\026\257\327l\333\026\010\352"
 290      110C56EC 
 290      16AFD76C 
 290      DB1608EA 
 291 0409 55DBDF0D 		.ascii	"U\333\337\015\210\252\352\212\352\232*\330\3767Z\227"
 291      88AAEA8A 
 291      EA9A2AD8 
 291      FE375A97 
 292 0419 29D9     		.ascii	")\331"
 293              		.text
 294              		.section	.gnu.lto_CySpcLoadRowFull.304b3edc,"",%progbits
 295 0000 789C8D55 		.ascii	"x\234\215UkLTG\024\2363\263{\357\336\335\005V\264>V"
ARM GAS  C:\Users\Luggi\AppData\Local\Temp\ccujN3Qb.s 			page 23


 295      6B4C5447 
 295      149E33B3 
 295      7BEFDEDD 
 295      0556B43E 
 296 0015 79885235 		.ascii	"y\210R51jbL\354/m\374a\1776\361\257ICuI\374#\015`[\233"
 296      316A624C 
 296      EC2F6DFC 
 296      617F36F1 
 296      AF494375 
 297 0030 265E5814 		.ascii	"&^X\024mH\265\370(Z\260>Z\352\003\001\213\" E\224\312"
 297      6D48B5F8 
 297      285AB03E 
 297      5AEA0301 
 297      8B222045 
 298 0046 4B01A9C0 		.ascii	"K\001\251\300\372*h+\226\246\266bA\026\215J\317\231"
 298      FA2A682B 
 298      96A6B662 
 298      41168D4A 
 298      CF99
 299 0058 B9BB592A 		.ascii	"\271\273Y*5\335\354\316\3369\367|\337\371\346\23433"
 299      35DDECCE 
 299      DE39F77C 
 299      DFF9E69C 
 299      3333
 300 006a 82BDFA39 		.ascii	"\202\275\3729\203\277h\203\261\325\370\017Q\014\370"
 300      83BF6883 
 300      B1D5F80F 
 300      510CF8
 301 0079 AE76C6B2 		.ascii	"\256v\306\262\034\234\213\256\305\314t\272k\343\231"
 301      1C9C8BAE 
 301      C5CC74BA 
 301      6BE399
 302 0088 E916DC16 		.ascii	"\351\026\334\0261\263\201\246\234\354\352\341\242C\343"
 302      31B381A6 
 302      9CECEAE1 
 302      A243E3
 303 0097 F6BC2686 		.ascii	"\366\274&\206\016z\216\216\016:w4\306\221{\353\022\234"
 303      0E7A8E8E 
 303      0E3A7734 
 303      C6917BEB 
 303      129C
 304 00a9 39B81101 		.ascii	"9\270\021\0016\300\245\300N\365p\321\341\342\316{W\010"
 304      36C0A5C0 
 304      4EF570D1 
 304      E1E2CE7B 
 304      5708
 305 00bb EC2EE3E8 		.ascii	"\354.\343\350\340\006 ;\003\266\205\013\233]\323\035"
 305      E006203B 
 305      03B6850B 
 305      9B5DD31D 
 306 00cb 86D3E586 		.ascii	"\206\323\345\206-Bc06&\244h\027\203D\372\342\347w\376"
 306      2D426330 
 306      3626A468 
 306      178344FA 
 306      E2E777FE 
 307 00df 984375E9 		.ascii	"\230Cu\351p\233k\200?\345,\221\341\264&\277\271@\243"
 307      709B6B80 
ARM GAS  C:\Users\Luggi\AppData\Local\Temp\ccujN3Qb.s 			page 24


 307      3FE52C91 
 307      E1B426BF 
 307      B940A3
 308 00f2 29D8681A 		.ascii	")\330h\032\350)\010\030\363\2765\315\354\301\354\242"
 308      E8290818 
 308      F3BE35CD 
 308      ECC1ECA2 
 309 0102 0DFBF71C 		.ascii	"\015\373\367\034\3027\234\015q\006\337\201\027\216\201"
 309      C2379C0D 
 309      7106DF81 
 309      178E81
 310 0111 97A21D87 		.ascii	"\227\242\035\207y\350Z\334^U\015\"\011\010f\356\035"
 310      79E85ADC 
 310      5E550D22 
 310      090866EE 
 310      1D
 311 0122 7D28928F 		.ascii	"}(\222\217\"\254\276\245\324\\\011O\271\200\023 \010"
 311      22ACBEA5 
 311      D45C094F 
 311      B9801320 
 311      08
 312 0133 B7D00B0B 		.ascii	"\267\320\013\013\274\014\015\014NB2\372f\035\274\267"
 312      BC0C0D0C 
 312      4E4232FA 
 312      661DBCB7 
 313 0143 D32EE64B 		.ascii	"\323.\346K\334\225_F\207\334R\214\207\246\007\002\375"
 313      DC955F46 
 313      87DC528C 
 313      87A60702 
 313      FD
 314 0154 C3428AE1 		.ascii	"\303B\212\3414=Rs\362\260[\261\366\225\233+\321n\203"
 314      343D5273 
 314      F2B05BB1 
 314      F6959B2B 
 314      D16E83
 315 0167 12C57A0A 		.ascii	"\022\305z\012\325\224\002\361\332\030\224I\336_/\224"
 315      D59402F1 
 315      DA189449 
 315      DE5F2F94 
 316 0177 3F738985 		.ascii	"?s\211\205\2227\260#o@W\310\355G\265w\236r;\224+`h\031"
 316      9237B023 
 316      6F4057C8 
 316      ED47B577 
 316      9E723B94 
 317 018f 6862705A 		.ascii	"hbpZ\002\257\265d\335\216\021K%p\333\317\255g4\005<"
 317      02AFB564 
 317      DD8E114B 
 317      2570DBCF 
 317      AD673405 
 318 01a4 EED7E653 		.ascii	"\356\327\346S\304\357'\210X\001\311\344\275k\353\331"
 318      C4EF2788 
 318      5801C9E4 
 318      BD6BEBD9 
 319 01b4 014D2C57 		.ascii	"\001M,W!\257\367\006\305\234\303\210\274\373GK\223\333"
 319      21AFF706 
 319      C59CC388 
 319      BCFB474B 
ARM GAS  C:\Users\Luggi\AppData\Local\Temp\ccujN3Qb.s 			page 25


 319      93DB
 320 01c6 6C3673EE 		.ascii	"l6s\356\216\215%`\372\340\314\370\320\352\203\220\341"
 320      8E8D2560 
 320      FAE0CCF8 
 320      D0EA8390 
 320      E1
 321 01d7 DCB2DBBA 		.ascii	"\334\262\333\272X!\341\347\037\235*\264+\370\303\035"
 321      5821E1E7 
 321      1F9D2AB4 
 321      2BF8C31D 
 322 01e7 B96EF358 		.ascii	"\271n\363X\010n\203\312\361\002\302\360\222\337*n\011"
 322      086E83CA 
 322      F102C2F0 
 322      92DF2A6E 
 322      09
 323 01f8 F1B6843F 		.ascii	"\361\266\204?\317->\006\012\376hGkDt\015\252\376#\372"
 323      CF2D3E06 
 323      0AFE6847 
 323      6B44740D 
 323      AAFE23FA 
 324 020c E39C1701 		.ascii	"\343\234\027\001\227\226c\232\246\007\316\302\0348\207"
 324      9796639A 
 324      A607CEC2 
 324      1C3887
 325 021b BF6A9843 		.ascii	"\277j\230C\305\306\032\327\200\006\214\211\3107e\261"
 325      C5C61AD7 
 325      80068C89 
 325      C83765B1 
 326 022b F5E6D858 		.ascii	"\365\346\330X\305\223=\333\027k\311\300\350\025\362"
 326      C5933DDB 
 326      176BC9C0 
 326      E815F2
 327 023a E24B2147 		.ascii	"\342K!G\007\246F7h\210\242!\032\250\336\036\240\\MB"
 327      07A64637 
 327      6888A221 
 327      1AA8DE1E 
 327      A05C4D42 
 328 024e 03C402E5 		.ascii	"\003\304\002\345{2e~\0129L\225\250i\370\350\230N\303"
 328      7B32657E 
 328      0A394C95 
 328      A869F8E8 
 328      984EC3
 329 0261 0C1ABC40 		.ascii	"\014\032\274@\325\234I\217\263h\210c\0249\236\374\023"
 329      D59C498F 
 329      B3688863 
 329      14399EFC 
 329      13
 330 0272 689E48C3 		.ascii	"h\236H\303l\034\214$\262\315\225\034\214\335G\315C\261"
 330      6C1C8C24 
 330      B2CD951C 
 330      8CDD47CD 
 330      43B1
 331 0284 AC9F7A35 		.ascii	"\254\237z5V\364@v}`w\214\\\003\212\304\265\006\2377"
 331      56F44076 
 331      7D60778C 
 331      5C038AC4 
 331      B5069F37 
ARM GAS  C:\Users\Luggi\AppData\Local\Temp\ccujN3Qb.s 			page 26


 332 0298 6D8DA1C6 		.ascii	"m\215\241\306\342:\203\363\230\205[pi\344\263\336\216"
 332      E23A83F3 
 332      98855B70 
 332      69E4B3DE 
 332      8E
 333 02a9 25E413E4 		.ascii	"%\344\023\344\016t\311\337U8*\367\205\363\310\347Y\246"
 333      0E74C9DF 
 333      55382AF7 
 333      85F3C8E7 
 333      59A6
 334 02bb DC0C7DF7 		.ascii	"\334\014}\367;:\035\322$\023\326\336P\371\302U\004_"
 334      3B3A1DD2 
 334      2413D6DE 
 334      50F9C255 
 334      045F
 335 02cd 65E5607F 		.ascii	"e\345`\177\273\240\026\023\372\003%\024\352\240\010"
 335      BBA01613 
 335      FA032514 
 335      EAA008
 336 02dc 90D13FAA 		.ascii	"\220\321?\252)\272x\305\030\356f\035\323t\001=\273!"
 336      29BA78C5 
 336      18EE661D 
 336      D374013D 
 336      BB21
 337 02ee E7A63FDE 		.ascii	"\347\246?\336\362\241\235P|>O\227\016HRo\325\246\037"
 337      F2A19D50 
 337      7C3E4F97 
 337      0E48526F 
 337      D5A61F
 338 0301 774A834B 		.ascii	"wJ\203K\240\300\301\301\227]:y\243kW}i\211\222r(\244"
 338      A0C0C1C1 
 338      975D3A79 
 338      A36B577D 
 338      69899272 
 339 0317 AEA2A361 		.ascii	"\256\242\243a\277&\345d\325\317 A\027\303\202.\241 "
 339      BF26E564 
 339      D5CF2041 
 339      17C3822E 
 339      A120
 340 0329 F428AF7B 		.ascii	"\364(\257{\330'w\227\253\022\313\325\240\226=X>\026"
 340      D8277797 
 340      AB12CBD5 
 340      A0963D58 
 340      3E16
 341 033b 667D0DC5 		.ascii	"f}\015\305\217\212\342\340\213@\233\214\253w#\305e\213"
 341      8F8AE2E0 
 341      8B409B8C 
 341      AB7723C5 
 341      658B
 342 034d 62F07F51 		.ascii	"b\360\177Q4*\212\216\273\015;\225\012LCS(\367=7\226"
 342      342A8A8E 
 342      BB0D3B95 
 342      0A4C4353 
 342      28F73D37 
 343 0362 AB4444BD 		.ascii	"\253DD\275.\263\315\377\312\254\201\376\241T\336\360"
 343      2EB3CDFF 
 343      CAAC81FE 
ARM GAS  C:\Users\Luggi\AppData\Local\Temp\ccujN3Qb.s 			page 27


 343      A154DEF0 
 344 0372 6FB48C11 		.ascii	"o\264\214\021\271\263\261\034\235r\267\357t\343^c\002"
 344      B9B3B11C 
 344      9D72B7EF 
 344      74E35E63 
 344      02
 345 0383 8971E325 		.ascii	"\211q\343%\266 \177\220G3\352\230/\003o\310\2169';&"
 345      B6207F90 
 345      4733EA98 
 345      2F036FC8 
 345      8E39273B 
 346 0398 5C7B1BBA 		.ascii	"\\{\033\272\265J\376~<2\360\350F\372\354\336\334\277"
 346      B54AFE7E 
 346      3C32F0E8 
 346      46FAECDE 
 346      DCBF
 347 03aa EED4800A 		.ascii	"\356\324\200\012?)\210]\207\032\013,\215\223\203<\026"
 347      3F29885D 
 347      871A0B2C 
 347      8D93833C 
 347      16
 348 03bb AD68CA1E 		.ascii	"\255h\312\036q*\323\224HB\273l\246\263\243_\377\031"
 348      712AD394 
 348      4842BB6C 
 348      A6B3A35F 
 348      FF19
 349 03cd 85A270C1 		.ascii	"\205\242p\301n\304\300\025\251\347\252Z\357\245\374"
 349      6EC4C015 
 349      A9E7AA5A 
 349      EFA5FC
 350 03dc 7B6F4E20 		.ascii	"{oN ~\301x\361mR\374\024\212\235\277\255\367N\201\245"
 350      7EC178F1 
 350      6D52FC14 
 350      8A9DBFAD 
 350      F74E81A5 
 351 03f0 672AEA41 		.ascii	"g*\352A`\347\201b\277ly\033\026\256\035\001=\300C\353"
 351      60E78162 
 351      BF6C791B 
 351      16AE1D01 
 351      3DC043EB 
 352 0404 4327B91E 		.ascii	"C'\271\036\215\341\365A\333\305\303\224\231Sb\257\372"
 352      8DE1F541 
 352      DBC5C394 
 352      995362AF 
 352      FA
 353 0415 3F544C3C 		.ascii	"?TL<\310=\224\326\007\210\304\024\330\252\354\010\264"
 353      C83D94D6 
 353      0788C414 
 353      D8AAEC08 
 353      B4
 354 0426 371B88D4 		.ascii	"7\033\210\324)\317\262\010Ce\013\225\267\207N\261\253"
 354      29CFB208 
 354      43650B95 
 354      B7874EB1 
 354      AB
 355 0437 C7CB3805 		.ascii	"\307\3138\005\2152\261\330\035\341\2628X\027'\3676\377"
 355      8D32B1D8 
ARM GAS  C:\Users\Luggi\AppData\Local\Temp\ccujN3Qb.s 			page 28


 355      1DE1B238 
 355      581727F7 
 355      36FF
 356 0449 09A1BCA3 		.ascii	"\011\241\274\243\321\373~Gw\235\352\377\025\014\256"
 356      D1FB7E47 
 356      779DEAFF 
 356      150CAE
 357 0458 859D0D76 		.ascii	"\205\235\015v\015T\222_\366}\252\274\247Q\221\344:\207"
 357      0D54925F 
 357      F67DAABC 
 357      A75191E4 
 357      3A87
 358 046a A72BCB74 		.ascii	"\247+\313t4\322\005\262\373\357B\271k\035\246i0\350"
 358      34D205B2 
 358      FBEF42B9 
 358      6B1DA669 
 358      30E8
 359 047c 94EDE5DF 		.ascii	"\224\355\345\337g\225b\006\372E\252r\220\252\237\244"
 359      67956206 
 359      FA45AA72 
 359      90AA9FA4 
 360 048c 0FB2370E 		.ascii	"\017\2627\016X\3543\203\334\253\330_\366\025Z\320Y\022"
 360      58EC3383 
 360      DCABD85F 
 360      F6155AD0 
 360      5912
 361 049e 3D53B26D 		.ascii	"=S\262m\033\351\373XY\343\360E\344\035\212\347\021\\"
 361      1BE9FB58 
 361      59E3F045 
 361      E41D8AE7 
 361      115C
 362 04b0 8FC86D35 		.ascii	"\217\310m5%1N\266\323\036o(\333\341\366q\262'K\325\302"
 362      25314EB6 
 362      D31E6F28 
 362      DBE1F671 
 362      B2274BD5 
 363 04c5 1E0CD459 		.ascii	"\036\014\324Y\325J\010\342~\247\330V\334Di\212\223\012"
 363      D54A08E2 
 363      7EA7D856 
 363      DC44698A 
 363      930A
 364 04d7 75659A8D 		.ascii	"ue\232\215V\271i\254nJ\212\354&Cv\323\201/\252z\214"
 364      56B969AC 
 364      6E4A8AEC 
 364      264376D3 
 364      812FAA7A 
 365 04ec D0068A46 		.ascii	"\320\006\212F\010t\311\026\351\016\367\323\242\011\372"
 365      0874C916 
 365      E90EF7D3 
 365      A209FA
 366 04fb E9ADF1FD 		.ascii	"\351\255\361\375\324#\373)Ie\242g`\304R8\027\025\276"
 366      D423FB29 
 366      4965A267 
 366      60C45238 
 366      1715BE
 367 050e DA4073E5 		.ascii	"\332@s\345\212\\\354\362\262\310\376\021L\026\271\322"
 367      8A5CECF2 
ARM GAS  C:\Users\Luggi\AppData\Local\Temp\ccujN3Qb.s 			page 29


 367      B2C8FE11 
 367      4C16B9D2 
 368 051e 820A0CD8 		.ascii	"\202\012\014\330\\[\226\037%\3730\201A@\025\371\001"
 368      5C5B961F 
 368      25FB3081 
 368      414015F9 
 368      01
 369 052f 084A8AD1 		.ascii	"\010J\212\321\254#\221\263*\006\231\334\326\301\355"
 369      AC2391B3 
 369      2A0699DC 
 369      D6C1ED
 370 053e 91F74A90 		.ascii	"\221\367J\220\003\353\205\254\372\340-\256\230\200@"
 370      03EB85AC 
 370      FAE02DAE 
 370      988040
 371 054d 749A0C97 		.ascii	"t\232\014\227<\273.S\217+\207\033\340\025\265\335\247"
 371      3CBB2E53 
 371      8F2B871B 
 371      E015B5DD 
 371      A7
 372 055e C9FE4D67 		.ascii	"\311\376Mg_\247<l\351z\276\011^\236\0278\014t\324;j"
 372      5FA73C6C 
 372      E97ABE09 
 372      5E9E1738 
 372      0C74D43B 
 373 0573 8B36D3BF 		.ascii	"\2136\323\277K\036\374:\335\025\200\261\360\302HX\355"
 373      4B1EFC3A 
 373      DD1580B1 
 373      F0C24858 
 373      ED
 374 0584 DBE84B4F 		.ascii	"\333\350KO\311\364\255\177oM\332\246\364u\276\265\357"
 374      C9F4AD7F 
 374      6F4DDAA6 
 374      F475BEB5 
 374      EF
 375 0595 AE495BB5 		.ascii	"\256I[\265l\355\252\315k>X\267h\035\263\247\244\247"
 375      6CEDAACD 
 375      6B3E58B7 
 375      681DB3A7 
 375      A4A7
 376 05a7 A76C16E9 		.ascii	"\247l\026\351i\037i\357oJM\365\245\33326|\342\32322"
 376      691F69EF 
 376      6F4A4DF5 
 376      A5DB3236 
 376      7CE2D332 
 377 05bc 53323765 		.ascii	"S27e\300\006--55\303\227\371\017\201\005>h"
 377      C0062D2D 
 377      3535C397 
 377      F90F8105 
 377      3E68
 378              		.text
 379              		.section	.gnu.lto_CySpcWriteRow.304b3edc,"",%progbits
 380 0000 789C8D54 		.ascii	"x\234\215TmLSW\030>\3579\367\336\266\264P\320\030]\023"
 380      6D4C5357 
 380      183EEF39 
 380      F7DEB6B4 
 380      50D0185D 
ARM GAS  C:\Users\Luggi\AppData\Local\Temp\ccujN3Qb.s 			page 30


 381 0015 75991235 		.ascii	"u\231\02251\300\237%\373\263\304\310\217\3750K\\\370"
 381      31C09F25 
 381      FBB3C4C8 
 381      8FFD304B 
 381      5CF8
 382 0027 6B621A68 		.ascii	"kb\032h\014\311\006\246\224\037\374\362\026\312\224"
 382      0CC906A6 
 382      941FFCF2 
 382      16CA94
 383 0036 6551C646 		.ascii	"eQ\306F\025\361s~\355\003\241\310d \210UD\360\003\010"
 383      15F1737E 
 383      ED03A1C8 
 383      64208855 
 383      44F00308 
 384 004a 915150D3 		.ascii	"\221QP\323\342\020\343\242q\020\230-\012a\357{n\213"
 384      E210E3A2 
 384      7110982D 
 384      0A61EF7B 
 384      6E8B
 385 005c 6E18E526 		.ascii	"n\030\345&=\267\347\355\363<\3479\3179o\005[\374l\305"
 385      3DB7E7ED 
 385      F33CE739 
 385      CF396F05 
 385      5BFC6CC5 
 386 0070 4F9BCAD8 		.ascii	"O\233\312\330\027\370\006\215\001\257\354c\314k\346"
 386      17F8068D 
 386      01AFEC63 
 386      CC6BE6
 387 007f 5C0C6632 		.ascii	"\\\014f2=Im_\303t\233\340\312\0333\005T\003\244\002"
 387      3D496D5F 
 387      C3749BE0 
 387      CA1B3305 
 387      5403A402 
 388 0093 D017066C 		.ascii	"\320\027\006l\017\027\212\012{\340/>\311\241\265~\272"
 388      0F178A0A 
 388      7BE02F3E 
 388      C9A1B57E 
 388      BA
 389 00a4 D7FA84CF 		.ascii	"\327\372\204\317p\366!\303\351\245\252\236C\032MA\241"
 389      70F621C3 
 389      E9A5AA9E 
 389      431A4D41 
 389      A1
 390 00b5 6968E850 		.ascii	"ih\350P\310\262\341\214\256\227N\224F\362k~8\201\277"
 390      C8B2E18C 
 390      AE974E94 
 390      46F26B7E 
 390      3881BF
 391 00c8 7036C519 		.ascii	"p6\305\031\234\003\007\374\004\016\022\374\0316 \364"
 391      9C0307FC 
 391      040E12FC 
 391      193620F4 
 392 00d8 6C5F4B2B 		.ascii	"l_K+\210\217\200hzu\354\231H?\205\264`G\275\276\005"
 392      888F8068 
 392      7A75EC99 
 392      483F85B4 
 392      6047BDBE 
ARM GAS  C:\Users\Luggi\AppData\Local\Temp\ccujN3Qb.s 			page 31


 393 00ed 66B8805F 		.ascii	"f\270\200_@\020o\263\00369\030\026\030\374\012\351\210"
 393      40106FB3 
 393      03363918 
 393      1618FC0A 
 393      E988
 394 00ff AD7C3A72 		.ascii	"\255|:r\300&6J\336\355?cS6i&\225\246\207C\343\323B\232"
 394      C026364A 
 394      DEED3F63 
 394      53366926 
 394      95A68743 
 395 0117 E134F5D7 		.ascii	"\3414\365\327\214U'\031\252\017\002\372\026\254+Pg\250"
 395      8C552719 
 395      AA0F02FA 
 395      16AC2B50 
 395      67A8
 396 0129 9E4737F5 		.ascii	"\236G7\365@\272\012\203\006\251{\254\266\377\262EdI"
 396      40BA0A83 
 396      06A97BAC 
 396      B6FFB245 
 396      6449
 397 013b DD86EF87 		.ascii	"\335\206\357\207\256\306\375\274J\370\011,\362\323("
 397      AEC6FDBC 
 397      4AF8092C 
 397      F2D328
 398 014a 790D5D43 		.ascii	"y\015]C\3734\361\251\344]\250\355j\261\030\274\343c"
 398      FB34F1A9 
 398      E45DA8ED 
 398      6AB118BC 
 398      E363
 399 015c EA2AA25D 		.ascii	"\352*\242]XDk\202t\302V\226_|\242\211m\222\027\272\033"
 399      58446B82 
 399      74C25696 
 399      5F7CA289 
 399      6D9217BA 
 400 0171 8E8A7527 		.ascii	"\216\212u'\2217\372\252\267\333\246\367\350\276\321"
 400      9137FAAA 
 400      B7DBA6F7 
 400      E8BED1
 401 0180 F9F9B598 		.ascii	"\371\371\265\230\035\374f\360_\307G\017R&}s!\253\346"
 401      1DFC66F0 
 401      5FC7470F 
 401      52267D73 
 401      21ABE6
 402 0193 D3753D15 		.ascii	"\323u=\025.\302:\312\030\243m\006\015\360E\225\206e"
 402      2EC23ACA 
 402      18A36D06 
 402      0DF04595 
 402      8665
 403 01a5 417D7EBE 		.ascii	"A}~\276i\316\277/\303\264\022\030\225\0244\240\2524"
 403      69CEBF2F 
 403      C3B41218 
 403      951434A0 
 403      AA34
 404 01b7 586848A2 		.ascii	"XhH\242\301\012\224k2P\012)X\320\354TM\243a9\320\026"
 404      C10A946B 
 404      32500A29 
 404      58D0EC54 
ARM GAS  C:\Users\Luggi\AppData\Local\Temp\ccujN3Qb.s 			page 32


 404      4DA36139 
 405 01cd 578074CC 		.ascii	"W\200t\314\036\341\002t!\306\361@\361-\206\2404\030"
 405      1EE10274 
 405      21C6F140 
 405      F12D86A0 
 405      3418
 406 01df ADB5CB25 		.ascii	"\255\265\313%Q\033-Eg\273\313\355\024?71\370\035\315"
 406      511B2D45 
 406      67BBCBED 
 406      143F3731 
 406      F81DCD
 407 01f2 DE836B2F 		.ascii	"\336\203k/\276y\361w\026a\242\\AHU\345\221\230\274="
 407      BE79F177 
 407      1661A25C 
 407      414855E5 
 407      9198BC3D 
 408 0206 A61FF77B 		.ascii	"\246\037\367{uye\"\217\372\007\314\262$\367\325\327"
 408      75796522 
 408      8FFA07CC 
 408      B224F7D5 
 408      D7
 409 0217 D93C673D 		.ascii	"\331<g=\012\265^\037\246n\206\026\334w+\355\033.\301"
 409      0AB55E1F 
 409      A66E8616 
 409      DC772BED 
 409      1B2EC1
 410 022a 5140C5B2 		.ascii	"Q@\305\262\230f\310%\031\212\013g\256bJm\210\374\003"
 410      9866C825 
 410      198A0B67 
 410      AE624A6D 
 410      88FC03
 411 023d 7C23656B 		.ascii	"|#ek\342\030\004x\317\266}k\222\000\024i\217G8\216\007"
 411      E2180478 
 411      CFB67D6B 
 411      92001469 
 411      8F47388E 
 412 0252 319829D0 		.ascii	"1\230)\320\340D\340z\310Dh\204\016\006\353\353\014+"
 412      E044E07A 
 412      C8446884 
 412      0E06EBEB 
 412      0C2B
 413 0264 2712EE9A 		.ascii	"'\022\356\232\372;k4i\307\033\374\200\014]^0\324\201"
 413      FA3B6B34 
 413      69C71BFC 
 413      800C5D5E 
 413      30D481
 414 0277 861011E8 		.ascii	"\206\020\021\350x\026\221w\320\334\214)_1\266=1\361"
 414      78169177 
 414      D0DC8C29 
 414      5F31B63D 
 414      31F1
 415 0289 5AF51D12 		.ascii	"Z\365\035\022AC\342~\305we)\322\3420J\\\215K\004\272"
 415      4143E27E 
 415      C5776529 
 415      D2E2304A 
 415      5C8D4B04 
 416 029e 962271CD 		.ascii	"\226\"q\315\2208\340k\016\313>4\253\014:\023\331?\217"
ARM GAS  C:\Users\Luggi\AppData\Local\Temp\ccujN3Qb.s 			page 33


 416      9038E06B 
 416      0ECB3E34 
 416      AB0C3A13 
 416      D93F8F
 417 02b1 7D620461 		.ascii	"}b\004ayW\262\327\377\227\254\212\370D\224\303e\005"
 417      7957B2D7 
 417      FF97AC8A 
 417      F84494C3 
 417      6505
 418 02c3 F1E21BD9 		.ascii	"\361\342\033\331)\254b5e\347\237\354>hy\213\305\325"
 418      29AC6235 
 418      65E79FEC 
 418      3E68798B 
 418      C5D5
 419 02d5 FFB5D885 		.ascii	"\377\265\330\205\372Qn\245%\302_\337\230\361\203\241"
 419      FA516EA5 
 419      25C25FDF 
 419      98F183A1 
 420 02e5 9812E5C9 		.ascii	"\230\022\345\311H<]\355\257S\311\271\305\314\340\206"
 420      483C5DED 
 420      AF53C9B9 
 420      C5CCE086 
 421 02f5 745E3A6C 		.ascii	"t^:l2 vD\321N\252\036\256\177\3772\335r\031\273\344"
 421      32207644 
 421      D14EAA1E 
 421      AE7FFF32 
 421      DD7219BB 
 422 030a EFED5B58 		.ascii	"\357\355[X&\015\227Y\262F\217\324H#\274\277\261w)\233"
 422      260D9759 
 422      B2468FD4 
 422      4823BCBF 
 422      B177299B 
 423 031e BB2919CB 		.ascii	"\273)\031\313%crI\214[\222\261B&\251&Z)U6h\224\003\013"
 423      25637249 
 423      8C5B92B1 
 423      4226A926 
 423      5A295536 
 424 0336 83371809 		.ascii	"\2037\030\011s\303<6\363c\240\363\235\256{yW6\016\267"
 424      73C33C36 
 424      F363A0F3 
 424      9DAE7B79 
 424      57360EB7 
 425 034a 30B80D0E 		.ascii	"0\270\015\0161;\325H\365\323\003\221\001y\375\351\217"
 425      313BD548 
 425      F5D30391 
 425      0179FDE9 
 425      8F
 426 035b EC0E38F8 		.ascii	"\354\0168\370\235\177N\0025\237\322\036)\301\236\005"
 426      9D7F4E02 
 426      359FD21E 
 426      29C19E05 
 427 036b 5A003B77 		.ascii	"Z\000;w\355g\256\002\227\333\351q\345\355\314),v\347"
 427      ED67AE02 
 427      97DBE971 
 427      E5EDCC29 
 427      2C76E7
 428 037e BA766CCF 		.ascii	"\272vl\317)\314\376xGvI\316\356\334\214\\\246:\335n"
ARM GAS  C:\Users\Luggi\AppData\Local\Temp\ccujN3Qb.s 			page 34


 428      29CCFE78 
 428      477649CE 
 428      EEDC8C5C 
 428      A63ADD6E 
 429 0392 6789C999 		.ascii	"g\211\311\231\227\347v\025\025\331<\256\257vo/\374\322"
 429      97E77615 
 429      15D93CAE 
 429      AF766F2F 
 429      FCD2
 430 03a4 E9CEF794 		.ascii	"\351\316\367\224$\323\344s\347\256\202|Oq\236K+\362"
 430      24D3E473 
 430      E7AE827C 
 430      4F719E4B 
 430      2BF2
 431 03b6 383DC545 		.ascii	"8=\305E\377\002\203j 0"
 431      FF02836A 
 431      2030
 432              		.text
 433              		.section	.gnu.lto_CySpcEraseSector.304b3edc,"",%progbits
 434 0000 789C8D52 		.ascii	"x\234\215R]H\223Q\030>\357\371~tn2\211.j\240Fb\032D"
 434      5D489351 
 434      183EEFF9 
 434      7E746E32 
 434      892E6AA0 
 435 0018 76911074 		.ascii	"v\221\020t\023y\321]\004\336\012\261\326.\272Hc\316"
 435      1379D15D 
 435      04DE0AB1 
 435      D62EBA48 
 435      63CE
 436 002a 0BAFFCA6 		.ascii	"\013\257\374\246SJ\"L\362\257\022\265\037\373\263\251"
 436      534A224C 
 436      F2AF12B5 
 436      1FFBB3A9 
 437 003a 99E67F5F 		.ascii	"\231\346\177_\012i\177\023\323\234\025L\011\015\203"
 437      0A697F13 
 437      D39C154C 
 437      090D83
 438 0049 111397D3 		.ascii	"\021\023\227\323\324\326{\316\267\231e\210\037\354\234"
 438      D4D67BCE 
 438      B7996588 
 438      1FEC9C
 439 0058 9DF77B9E 		.ascii	"\235\367{\236\347<\357\363\275\002\331\374\034\307\337"
 439      E73CEFF3 
 439      BD02D9FC 
 439      1CC7DF
 440 0067 619190A3 		.ascii	"a\221\220\243\270\203L\200\226\271\011qDS*\214\247\021"
 440      B8834C80 
 440      96B90971 
 440      44532A8C 
 440      A711
 441 0079 2546EA4D 		.ascii	"%F\352M \212A\240\342\206\223\010\222\006\222\000\330"
 441      208A41A0 
 441      E2869308 
 441      92069200 
 441      D8
 442 008a 1F02A480 		.ascii	"\037\002\244\200\012\242\004\005\360\215\316S\350r\005"
 442      0AA20405 
ARM GAS  C:\Users\Luggi\AppData\Local\Temp\ccujN3Qb.s 			page 35


 442      F08DCE53 
 442      E87205
 443 0099 DEE9E7E8 		.ascii	"\336\351\347\3502%{\010\036\273\313\207\253ev\004\221"
 443      32257B08 
 443      1EBBCB87 
 443      AB657604 
 443      91
 444 00aa 1D3D13D5 		.ascii	"\035=\023\325\036]\312]E)\364\017\254\234\253\271V\217"
 444      1E5DCA5D 
 444      4529F40F 
 444      AC9CABB9 
 444      568F
 445 00bc 6F2859A0 		.ascii	"o(Y\240\004\356\201\011\356\203\211\011>\200\024\204"
 445      04EE8109 
 445      EE838909 
 445      3E801484 
 446 00cc 36BA3BBB 		.ascii	"6\272;\273@\330\013\214\246T,\371\204\344\333HS_\271"
 446      40D80B8C 
 446      A6542CF9 
 446      84E4DB48 
 446      535FB9
 447 00df 9463B04C 		.ascii	"\224c\260L\005x\010\002\343\0350\301~\023\301\002\201"
 447      05780802 
 447      E31D30C1 
 447      7E13C102 
 447      81
 448 00f0 47908CD8 		.ascii	"G\220\214\3307\375\025\252(\244r\236\353\265+`\324x"
 448      37FD15AA 
 448      28A4729E 
 448      EBB52B60 
 448      D478
 449 0102 DE08AF69 		.ascii	"\336\010\257i\023\3571$3pYq\373\234,\244s\242g\314\033"
 449      13EF3124 
 449      33705971 
 449      FB9C2CA4 
 449      73A267CC 
 450 0117 14921A90 		.ascii	"\024\222\032\2208\355\035\0312(\303\212s:\024JD\263"
 450      38ED1D19 
 450      3228C38A 
 450      733A144A 
 450      44B3
 451 0129 E0D2F87F 		.ascii	"\340\322\370\177\374\262\007)\363\3165\217^v*\212\022"
 451      FCB20729 
 451      F3CE358F 
 451      5E762A8A 
 451      12
 452 013a 07CD90C4 		.ascii	"\007\315\220\304\232\302^Z@\006\334X\245y\207\252\204"
 452      9AC25E5A 
 452      4006DC58 
 452      A57987AA 
 452      84
 453 014b 420BDFAB 		.ascii	"B\013\337\253.\356\333e\004\302J\"\032\020%\266\350"
 453      2EEEDB65 
 453      04C24A22 
 453      1A1025B6 
 453      E8
 454 015c D812C316 		.ascii	"\330\022\303\026=\260Fb\201\333\"3\250\302b\236\305"
ARM GAS  C:\Users\Luggi\AppData\Local\Temp\ccujN3Qb.s 			page 36


 454      3DB04662 
 454      81DB2233 
 454      A8C2629E 
 454      C5
 455 016d 98701726 		.ascii	"\230p\027&\240P\355\2533r]\024\300{\203\253C\305F\226"
 455      A050EDAB 
 455      33725D14 
 455      C07B83AB 
 455      43C54696 
 456 0181 308D22D0 		.ascii	"0\215\"\320\212\216>\301\300b\251\373\327!\206\011R"
 456      8A8E3EC1 
 456      C062A9FB 
 456      D7218609 
 456      52
 457 0192 1121E565 		.ascii	"\021!\345e7\227\3707\221n]q(\374CL\315\214\214F\363"
 457      3797F837 
 457      916E5D71 
 457      28FC434C 
 457      CD8C8C46 
 458 01a7 1237EF1E 		.ascii	"\0227\357\036\354X\323\327\302\015\207\0233\222\341"
 458      EC58D3D7 
 458      C20D8713 
 458      3392E1
 459 01b6 0936D7C6 		.ascii	"\0116\327\306\232\203\247P\013\250X\264$kr1\232\342"
 459      9A83A750 
 459      0BA858B4 
 459      246B7231 
 459      9AE2
 460 01c8 75CF6C40 		.ascii	"u\317l@`t\021\243hG\344\007p~,J\010c\020\340h\354\271"
 460      607411A3 
 460      6847E407 
 460      707E2C4A 
 460      086310E0 
 461 01df 1CC50128 		.ascii	"\034\305\001(\322\021\316i\026\323\036O\023\320\240"
 461      D211CE69 
 461      16D31E4F 
 461      13D0A0
 462 01ee DFFFC313 		.ascii	"\337\377\303\023\305\320\010\035W]M\232\225\372\210"
 462      C5D0081D 
 462      575D4D9A 
 462      95FA88
 463 01fd BBB691C1 		.ascii	"\273\266\221\301\032\231\333q\250\273\231\241g\353\206"
 463      1A99DB71 
 463      A8BB99A1 
 463      67EB86
 464 020c 3AD11022 		.ascii	":\321\020\"Z\372}S\006F\222;0\312.\255m\177\313\342"
 464      5AFA7D53 
 464      0646923B 
 464      30CA2EAD 
 464      6D7FCBE2 
 465 0220 BAEA1612 		.ascii	"\272\352\026\022\335\232D\251\277\344\275f\3613J\364"
 465      DD9A44A9 
 465      BFE4BD66 
 465      F1334AF4 
 466 0230 8425FCDB 		.ascii	"\204%\374\333\222\350\325$&\033|\225\261\334E4\201\276"
 466      92E8D524 
 466      261B7C95 
ARM GAS  C:\Users\Luggi\AppData\Local\Temp\ccujN3Qb.s 			page 37


 466      B1DC4534 
 466      81BE
 467 0242 48F62F43 		.ascii	"H\366/CG\264 t[%\333\377O\262\022\342#QN\026e\207\213"
 467      47B42074 
 467      5B25DBFF 
 467      4FB212E2 
 467      23514E16 
 468 0259 1BB213C9 		.ascii	"\033\262\023\311\245x\226]e\353Z\225\356?\026\343\377"
 468      A578965D 
 468      65EB5A95 
 468      EE3F16E3 
 468      FF
 469 026a B6F81CF5 		.ascii	"\266\370\034\365\203T\317,U\316o\213\241rF,\277L\212"
 469      8354CF2C 
 469      55CE6F8B 
 469      A172462C 
 469      BF4C8A
 470 027d 4C5B1C1F 		.ascii	"L[\034\037\324 \005\342\005\207Z\367%U3\206C\375\025"
 470      D42005E2 
 470      05875AF7 
 470      25553386 
 470      43FD15
 471 0290 580481A6 		.ascii	"X\004\201\246\237c|\266\250\216\300\0130\011\253\241"
 471      9F637CB6 
 471      A88EC00B 
 471      3009ABA1 
 472 02a0 5656BF33 		.ascii	"VV\2773:5\312'\004}\303\000\230\350\333\253%;\331|\212"
 472      3A35CA27 
 472      047DC300 
 472      98E8DBAB 
 472      253BD97C 
 473 02b5 BE957C1C 		.ascii	"\276\225|\034k`\027\340p'\236\260f[mf\273\365\354\351"
 473      6B6017E0 
 473      70279EB0 
 473      665B6D66 
 473      BBF5ECE9 
 474 02c9 CC9C3C9B 		.ascii	"\314\234<\233\305\232u*3'#=+#?\363\202\345\240\205H"
 474      C59A752A 
 474      3327233D 
 474      2B233FF3 
 474      82E5A085 
 475 02de 669BCD9C 		.ascii	"f\233\315\234o\310\265Z\3549\266\223y\347\317Xmr\256"
 475      6FC8B55A 
 475      EC39B693 
 475      79E7CF58 
 475      6D72AE
 476 02f1 DD6CCFCB 		.ascii	"\335l\317\313\375\015%8\223,"
 476      FD0D2538 
 476      932C
 477              		.text
 478              		.section	.gnu.lto_CySpcGetTemp.304b3edc,"",%progbits
 479 0000 789C8D52 		.ascii	"x\234\215RmHSQ\030>\3579\367^\335\246)\021A\003-\022"
 479      6D485351 
 479      183EEF39 
 479      F75EDDA6 
 479      29114103 
 480 0016 B1A09288 		.ascii	"\261\240\222\210~\027\371\243\277\301\376\012!\266\177"
ARM GAS  C:\Users\Luggi\AppData\Local\Temp\ccujN3Qb.s 			page 38


 480      7E17F9A3 
 480      BFC1FE0A 
 480      21B67F
 481 0025 F9811F50 		.ascii	"\371\201\037P\375\361\356\303\321\307\2521\242\266\312"
 481      FDF1EEC3 
 481      D1C7AA31 
 481      A2B6CA
 482 0034 B2EF2F9B 		.ascii	"\262\357/\233\263\345J\2356\322\250\250\224\241\271"
 482      B3E54A9D 
 482      36D2A8A8 
 482      94A1B9
 483 0043 EA8716BA 		.ascii	"\352\207\026\272\260\320\232$N#Y\3579wK\373@\272p\317"
 483      B0D09A24 
 483      4E2359EF 
 483      39774BFB 
 483      40BA70CF 
 484 0057 B9E7DDF3 		.ascii	"\271\347\335\363<\347y\237\275\214\374\375\354\302\367"
 484      3CE7799F 
 484      BD8CFCFD 
 484      ECC2F7
 485 0066 2523641B 		.ascii	"%#d\033\356\240\020\240\256~B,\231\224\262\241b\242"
 485      EEA010A0 
 485      AE7E422C 
 485      9994B2A1 
 485      62A2
 486 0078 EAE5503E 		.ascii	"\352\345P>Q\263\030\225\226\234$\2205\220\014\300?\010"
 486      51B31895 
 486      969C2490 
 486      35900CC0 
 486      3F08
 487 008a 9006CA24 		.ascii	"\220\006\312$\031\032\340\023\235\246\320\341\233ye"
 487      191AE013 
 487      9DA6D0E1 
 487      9B7965
 488 0099 98A0F394 		.ascii	"\230\240\363\224\254#x\354t?\363(\374\010\022?F\207"
 488      AC2378EC 
 488      743FF328 
 488      FC08123F 
 488      4687
 489 00ab 3D515DD1 		.ascii	"=Q]\3215U\265\306\335^G\266\367T3\376D\3117J\340\006"
 489      3555B5C6 
 489      DD5E47B6 
 489      F75433FE 
 489      44C9374A 
 490 00c1 18E12618 		.ascii	"\030\341&\030\271\342-(B\354s\365\230\252g\353\201\363"
 490      B9E22D28 
 490      42EC73F5 
 490      98AA67EB 
 490      81F3
 491 00d3 2E040F27 		.ascii	".\004\017's\012\257 /\334\355Sw\302<ep\033\030\347m"
 491      730AAF20 
 491      2FDCED53 
 491      77C23C65 
 491      701B18E7 
 492 00e8 32C24623 		.ascii	"2\302F#\301\002\201;P\310\301\256\306\366\011\205m\026"
 492      C102813B 
 492      50C8C1AE 
ARM GAS  C:\Users\Luggi\AppData\Local\Temp\ccujN3Qb.s 			page 39


 492      C6F60985 
 492      6D16
 493 00fa C4E8E048 		.ascii	"\304\350\340H\202\025\\B\342\373\027m\007\274j\263\325"
 493      82155C42 
 493      E2FB176D 
 493      07BC6AB3 
 493      D5
 494 010b A526933B 		.ascii	"\245&\223;P\200B\213&\260x1\177\2203m_\210\032\024\273"
 494      5080428B 
 494      26B07831 
 494      7F90336D 
 494      5F881A14 
 495 0120 AAAAB970 		.ascii	"\252\252\271p\027\012\270;4\345\003\005p\343\225\326"
 495      170AB83B 
 495      34E50305 
 495      70E395D6 
 496 0130 95611409 		.ascii	"\225a\024\011\304<\326\255'Y6\020^\223\320\202$\363"
 496      C43CD6AD 
 496      27593610 
 496      5E93D082 
 496      24F3
 497 0142 45C7173D 		.ascii	"E\307\027=_\014 ,\221q\024\340Y\305\260U\334\3310X\303"
 497      5F0C202C 
 497      917114E0 
 497      59C5B055 
 497      DCD93058 
 498 0157 67C6E220 		.ascii	"g\306\342 4\221\213w&~<m\314\3419\321\014\002\255\350"
 498      34918B77 
 498      267E3C6D 
 498      CCE139D1 
 498      0C02ADE8 
 499 016b E61D3C9E 		.ascii	"\346\035<\236=:\353\264)\034\224\240\022b\334\256\363"
 499      3D3AEBB4 
 499      291C94A0 
 499      1262DCAE 
 499      F3
 500 017c 73225AF9 		.ascii	"s\"Z\371\362\011\213*\362\034\035\037\210d\212\222p"
 500      F2098B2A 
 500      F21C1D1F 
 500      88648A92 
 500      70
 501 018d DEDF1B5C 		.ascii	"\336\337\033\\04\3019\213\035\033T\300\217\235\265\361"
 501      3034C139 
 501      8B1D1B54 
 501      C08F9DB5 
 501      F1
 502 019e CEE01E34 		.ascii	"\316\340\0364\001J\332\346RrzM\361l46\3038]\302\034"
 502      014ADAE6 
 502      52727A4D 
 502      F16C3436 
 502      C3385DC2 
 503 01b3 02887C0D 		.ascii	"\002\210|\015\366\267\266\374\024\006\001\226\353]\316"
 503      F6B7B6FC 
 503      14060196 
 503      EB5DCE
 504 01c2 0C014091 		.ascii	"\014\001@\221\373\251\220b\230\365P1C\207q\377\244\347"
 504      FBA99062 
ARM GAS  C:\Users\Luggi\AppData\Local\Temp\ccujN3Qb.s 			page 40


 504      98F55031 
 504      438771FF 
 504      A4E7
 505 01d4 10472374 		.ascii	"\020G#t(\354k\321\2544\247\335\005\006z\275\212\260"
 505      28EC6BD1 
 505      AC34A7DD 
 505      05067ABD 
 505      8AB0
 506 01e6 6309AFE1 		.ascii	"c\011\257\341\206\332\177\031\012\242!D\370{&G\2638"
 506      86DA7F19 
 506      0AA22144 
 506      F87B2647 
 506      B338
 507 01f8 4909628C 		.ascii	"I\011b\214\017\264\276\343\361E\325e$\036j\022\311\236"
 507      0FB4BEE3 
 507      F145D565 
 507      241E6A12 
 507      C99E
 508 020a CF4F4472 		.ascii	"\317ODr\322\007\224\350HI\370\247\376G\242S\223\210"
 508      D20794E8 
 508      4849F8A7 
 508      FE47A253 
 508      9388
 509 021c 04A6FA64 		.ascii	"\004\246\372d\341b\005\201\256t\370_\216\3332\264$t"
 509      E1620581 
 509      AE74F85F 
 509      8EDB32B4 
 509      2474
 510 022e CB451BFA 		.ascii	"\313E\033\372#Z\031\361\351,\337\330*S\305%\341I\344"
 510      235A19F1 
 510      E92CDFD8 
 510      2A53C525 
 510      E149E4
 511 0241 481E0FEF 		.ascii	"H\036\017\357\364\364W\217\033\376a2\357w\223\335xA"
 511      F4F4578F 
 511      1BFE6132 
 511      EF7793DD 
 511      7841
 512 0253 821A0457 		.ascii	"\202\032\004WN\317O\256\030\272\004\0052\002\226pbl"
 512      4ECF4FAE 
 512      18BA0405 
 512      32029670 
 512      626C
 513 0265 83760F4E 		.ascii	"\203v\017N\350G\340-\315\264|\037\024\263Bu\004z\300"
 513      E847E02D 
 513      CDB47C1F 
 513      14B34275 
 513      047AC0
 514 0278 C8424D8E 		.ascii	"\310BM\216\325X\277\032\031\215\210\177\034m\300#0R"
 514      D558BF1A 
 514      198D887F 
 514      1C6DC023 
 514      3052
 515 028a E745C72A 		.ascii	"\347E\307*>pR\310\353\310\301I\005~\003\316\353\332"
 515      3E7052C8 
 515      EBC8C149 
 515      057E03CE 
ARM GAS  C:\Users\Luggi\AppData\Local\Temp\ccujN3Qb.s 			page 41


 515      EBDA
 516 029c DDE64A73 		.ascii	"\335\346JsMY\235y\337^SU}M\271\271t\217\251\252d{i\311"
 516      4D599D79 
 516      DF5E5355 
 516      7D4DB9B9 
 516      748FA9AA 
 517 02b4 415375F9 		.ascii	"ASu\371\226r\242\257\254\2570\225UT\3577\327*\265ue"
 517      9672A2AF 
 517      ACAF3095 
 517      5554EF37 
 517      D72AB575 
 518 02c9 75F5B53F 		.ascii	"u\365\265?\001EOk\320"
 518      01454F6B 
 518      D0
 519              		.text
 520              		.section	.gnu.lto_CySpcLock.304b3edc,"",%progbits
 521 0000 789C7D53 		.ascii	"x\234}SMHTQ\024\276\347\336\367\236\363\243ND\004\272"
 521      4D485451 
 521      14BEE7DE 
 521      F79EF3A3 
 521      4E4404BA 
 522 0014 B0C88509 		.ascii	"\260\310\205\011Q\233\2026\021\344\242]\011n\205\020"
 522      519B8236 
 522      11E4A25D 
 522      096E8510 
 523 0024 1B240815 		.ascii	"\033$\010\025\035\241\026\346\235\237$\"b\020\251&3"
 523      1DA116E6 
 523      9D9F2422 
 523      6210A926 
 523      33
 524 0035 2CCBACCC 		.ascii	",\313\254\314\277\321\322\262\2344\322 \215\301\324"
 524      BFD1D2B2 
 524      9C34D220 
 524      8DC1D4
 525 0044 522B419D 		.ascii	"R+A\235t\247\030\351T6\235\363\236\332h\332\300\334"
 525      74A718E9 
 525      54369DF3 
 525      9EDA68DA 
 525      C0DC
 526 0056 F7CE7DDF 		.ascii	"\367\316}\337\371\316w\276{\256`\377\376\216\340\377"
 526      F9CE77BE 
 526      7BAE60FF 
 526      FE8EE0FF 
 527 0066 B5C2D821 		.ascii	"\265\302\330!|\202\306\200{\373\031s\2328\027\223\011"
 527      7C82C680 
 527      7BFB1973 
 527      9A381793 
 527      09
 528 0077 4C5AD4BA 		.ascii	"LZ\324\272\375L\306\012\256\274\337GQG\022F\012\250"
 528      FD4CC60A 
 528      AEBCDF47 
 528      51471246 
 528      0AA8
 529 0089 064805A0 		.ascii	"\006H\005\240\027\006\254\204\013E\205\022\230\341s"
 529      1706AC84 
 529      0B458512 
 529      98E173
ARM GAS  C:\Users\Luggi\AppData\Local\Temp\ccujN3Qb.s 			page 42


 530 0098 1CDAEBBF 		.ascii	"\034\332\353\277\365Y\247y\230\263\235\014\303\247e"
 530      F559A779 
 530      98B39D0C 
 530      C3A765
 531 00a7 BDD7340A 		.ascii	"\275\3274\012A\241px\350\332\2609\345\256\224\256\331"
 531      41A17078 
 531      E8DAB039 
 531      E5AE94AE 
 531      D9
 532 00b8 DBFED238 		.ascii	"\333\376\3228_y\025~\342l\2363\270\007\211P\013\211"
 532      5F79157E 
 532      E26C9E33 
 532      B8078950 
 532      0B89
 533 00ca C4781F52 		.ascii	"\304x\037R\010\354=\337:\255\211]\240'\016|^\020\311"
 533      08EC3DDF 
 533      3AAD895D 
 533      A0270E7C 
 533      5E10C9
 534 00dd B73071FC 		.ascii	"\2670q\374\206\377\214OV\271\2742\0229\014\230\015\017"
 534      86FF8C4F 
 534      56B9BC32 
 534      12390C98 
 534      0D0F
 535 00ef 40AC25A0 		.ascii	"@\254%\240\037\345\314\374\030QE\252\236?\365\246\245"
 535      1FE5CCFC 
 535      185145AA 
 535      9E3FF5A6 
 535      A5
 536 0100 7C39BFD2 		.ascii	"|9\277\322\177\372\252\034\227+\371\002\352\214\374"
 536      7FFAAA1C 
 536      972BF902 
 536      EA8CFC
 537 010f 3D89901A 		.ascii	"=\211\220\032\225=\347Y\032\266j\036)\345\026x\010\311"
 537      953DE759 
 537      1AB66A1E 
 537      29E51678 
 537      08C9
 538 0121 F0089249 		.ascii	"\360\010\222I'\312\253\007\015\030\343+\273\015[\003"
 538      27CAAB07 
 538      0D18E32B 
 538      BB0D5B03 
 539 0131 4835DFE7 		.ascii	"H5\337\347s\035\250\0246`\264\2572\372\242\2610WL\270"
 539      731DA814 
 539      3660B4AF 
 539      32FAA2B1 
 539      30574CB8 
 540 0145 A8665A2C 		.ascii	"\250fZ,\264Xial\022\231\310\276)\354\036\237b\010\\"
 540      B4586961 
 540      6C1299C8 
 540      BE29EC1E 
 540      9F62085C 
 541 0159 81F6D02C 		.ascii	"\201\366\320,\350\344H\200\002\356\004\277\004\005Y"
 541      E8E44880 
 541      02EE04BF 
 541      040559
 542 0168 C715060D 		.ascii	"\307\025\006\015\330\330\030\270\003\301\3208'\314\002"
ARM GAS  C:\Users\Luggi\AppData\Local\Temp\ccujN3Qb.s 			page 43


 542      D8D818B8 
 542      03C1D038 
 542      27CC02
 543 0177 57117273 		.ascii	"W\021rs\340r=/\376)/HS\230k\363\034eA#\024c\211\030"
 543      E0723D2F 
 543      FE292F48 
 543      53986BF3 
 543      1C654123 
 544 018f 36043A90 		.ascii	"6\004:\220t \230\215\200\253\254i\320\227o$k\353\223"
 544      7420988D 
 544      80ABAC69 
 544      D0976F24 
 544      6BEB93
 545 01a2 4D4BDC68 		.ascii	"MK\334h\373\313\344\273\240\211\252\232\364\260\326"
 545      FBCBE4BB 
 545      A089AA9A 
 545      F4B0D6
 546 01b1 E9B90195 		.ascii	"\351\271\001\225P\341\224\204\022\320\004\305\320L&"
 546      50E19484 
 546      12D004C5 
 546      D04C26
 547 01c0 831FB7D9 		.ascii	"\203\037\267\331 x>\270\223\376r:k\236]\212\241l\034"
 547      20783EB8 
 547      93FE723A 
 547      6B9E5D8A 
 547      A16C1C
 548 01d3 2A68593E 		.ascii	"*hY>\214).\330d\202@\005\263\215C\276LBoZ~}\275\326"
 548      8C292ED8 
 548      64824005 
 548      B38D43BE 
 548      4C426F5A 
 549 01eb D57A8F71 		.ascii	"\325z\217q\033\001\301\3535n\033U\020\350\364\023\374"
 549      1B01C1EB 
 549      356E1B55 
 549      10E8F413 
 549      FC
 550 01fc 42CE8D86 		.ascii	"B\316\215\206\002<\312\271\325\036\220\024\332\0203"
 550      023CCAB9 
 550      D51E9014 
 550      DA1033
 551 020b 025DDF2F 		.ascii	"\002]\337/\366WLX\015\245&\032\216\261\352@\034a\314"
 551      F6574C58 
 551      0DA5261A 
 551      8EB1EA40 
 551      1C61CC
 552 021e 1E592595 		.ascii	"\036Y%\2255\255\233u)\336\236\305%\013I\361\340\224"
 552      35AD9B75 
 552      29DE9EC5 
 552      250B49F1 
 552      E094
 553 0230 58A01DC7 		.ascii	"X\240\035\307\353\251\256\344\031u>\002\356\305\322"
 553      EBA9AEE4 
 553      19753E02 
 553      EEC5D2
 554 023f 5FAA4168 		.ascii	"_\252Ah68{*\247\233\025\"PQ[\007b\321\236\217\356s\313"
 554      36387B2A 
 554      A79B1522 
ARM GAS  C:\Users\Luggi\AppData\Local\Temp\ccujN3Qb.s 			page 44


 554      50515B07 
 554      62D19E8F 
 555 0256 98687B70 		.ascii	"\230h{p\002\340\371\252=\012\373d\023\272\306PE\365"
 555      02E0F9AA 
 555      3D0AFB64 
 555      13BAC650 
 555      45F5
 556 0268 76036EF9 		.ascii	"v\003n\371\237\202\027+\0124\003l5\360\023\235\343a"
 556      9F82172B 
 556      0A34036C 
 556      35F0139D 
 556      E361
 557 027a 8B4EFF3B 		.ascii	"\213N\377;\022\211\330\030t\032\275\227\301\262\347"
 557      1289D818 
 557      741ABD97 
 557      C1B2E7
 558 0289 9B120690 		.ascii	"\233\022\006\220\020i\330(\310\356H\250W7\223\264\035"
 558      1069D828 
 558      C8EE48A8 
 558      573793B4 
 558      1D
 559 029a D477BC39 		.ascii	"\324w\2749k\343\262\250\230Nuv\312w\0056:V\353\022\215"
 559      6BE3B2A8 
 559      984E7576 
 559      CA770536 
 559      3A56EB12 
 560 02af 64B4B5D6 		.ascii	"d\264\265\326\015N9\026^\342)w\351B\272q[\267\216|Q"
 560      0D4E3916 
 560      5EE22977 
 560      E942BA71 
 560      5BB78E7C 
 561 02c4 57AEC616 		.ascii	"W\256\306\026\375R- \331\030x\002\255_w\353\365\327"
 561      FD522D20 
 561      D9187802 
 561      AD5F77EB 
 561      F5D7
 562 02d6 578B9BD7 		.ascii	"W\213\233\327\017\374\025^\000\234\3700\217g\237\301"
 562      0FFC155E 
 562      009CF830 
 562      8F679FC1 
 563 02e6 1968CB31 		.ascii	"\031h\3131<B!!\000\272H\374\255\277\324Fs!\306ZK\267"
 563      3C422121 
 563      00BA48FC 
 563      ADBFD446 
 563      7321C65A 
 564 02fc D18B4217 		.ascii	"\321\213B\027\022\250\032\022\3548j\317\265\027d9\354"
 564      12A81A12 
 564      EC386ACF 
 564      B5176439 
 564      EC
 565 030d 274F64E4 		.ascii	"'Od\344\025\025d\3333\3233\362\322\016d\246\235\315"
 565      151564DB 
 565      33D333F2 
 565      D20E64A6 
 565      9DCD
 566 031f C8CFDE9B 		.ascii	"\310\317\336\233\315\264BG\226\243\2500\376T\256\303"
 566      CDB44247 
ARM GAS  C:\Users\Luggi\AppData\Local\Temp\ccujN3Qb.s 			page 45


 566      96A3A830 
 566      FE54AEC3 
 567 032f 5E505094 		.ascii	"^PP\224\357\310\300\330\256\036;\236na\177\000\233\277"
 567      EFC8C0D8 
 567      AE1E3B9E 
 567      6E617F00 
 567      9BBF
 568 0341 C237     		.ascii	"\3027"
 569              		.text
 570              		.section	.gnu.lto_CySpcUnlock.304b3edc,"",%progbits
 571 0000 789C7552 		.ascii	"x\234uRMHTQ\024>\337\275of^\243E\324n@\202\\X\020\221"
 571      4D485451 
 571      143EDFBD 
 571      6F665EA3 
 571      45D46E40 
 572 0019 446D5BB8 		.ascii	"Dm[\270hW\322\264\024*l\026E\250\014\343\242\205yg\346"
 572      6857D2B4 
 572      142A6C16 
 572      45A80CE3 
 572      A2857967 
 573 002e 11D12206 		.ascii	"\021\321\"\006\021JK)$2--\307\354\217\340Q\244\324\302"
 573      114A4B29 
 573      24322D2D 
 573      C7EC8FE0 
 573      51A4D4C2 
 574 0042 88286B92 		.ascii	"\210(k\222r\341\3208\2531\303z\325`\347\276g\246\243"
 574      72E1D038 
 574      AB31C37A 
 574      D560E7BE 
 574      67A6A3
 575 0055 3D78F7BE 		.ascii	"=x\367\276\373\275\357|\337\271\347\034I\253\237\335"
 575      FBBDEF7C 
 575      DFB9E71C 
 575      49AB9FDD 
 576 0065 FC1E9244 		.ascii	"\374\036\222D{y\207\217 R\343DqS\0109ZA*h\274\334E\252"
 576      7B79878F 
 576      2052E344 
 576      71530839 
 576      5A412A68 
 577 007d 5CC2F060 		.ascii	"\\\302\360`\003\320\037\004j\025\322@+f\304\254@\312"
 577      03D01F04 
 577      6A15D240 
 577      2B66C4AC 
 577      40CA
 578 008f EEBF5456 		.ascii	"\356\277TVu])U\370\372\344\254T\355G\035A4'<\007\334"
 578      755D2955 
 578      F8FAE4AC 
 578      54ED471D 
 578      4134273C 
 579 00a5 4015316B 		.ascii	"@\0251kb\346g\306'\267B\177g_\014\267\313\312kJ%\246"
 579      62E667C6 
 579      27B7427F 
 579      675F0CB7 
 579      CBCA6B4A 
 580 00bb 9CF4A98B 		.ascii	"\234\364\251\213jJ\245\324\302\302>8\002\350\205\344"
 580      6A4AA5D4 
 580      C2C23E38 
ARM GAS  C:\Users\Luggi\AppData\Local\Temp\ccujN3Qb.s 			page 46


 580      02E885E4 
 581 00cb 50EC0861 		.ascii	"P\354\010a{h1I\216\230\265\212\023e~\213=6\342&*=u\364"
 581      7B683149 
 581      8E98B58A 
 581      13657E8B 
 581      3D36E226 
 582 00e3 C10FDE34 		.ascii	"\301\017\33642\270\311f\211\364\357\216Du\237,7Hc~r"
 582      32B8C966 
 582      89F4EF8E 
 582      44759F2C 
 582      3748637E 
 583 00f8 8408E8C5 		.ascii	"\204\010\350\305\324\013\3214\277\372\002Y>\360.'\221"
 583      D40BD134 
 583      BFFA0259 
 583      3EF02E27 
 583      91
 584 0109 B49D2F53 		.ascii	"\264\235/SB\013}\027\006\373t\277\2710 Z~\251s\312t"
 584      420B7D17 
 584      06FB74BF 
 584      B930205A 
 584      7EA973CA 
 585 011e 0427A2E5 		.ascii	"\004'\242\345\373\321\302\341\006\275\203K\324\312L"
 585      FBD1C2E1 
 585      06BD834B 
 585      D4CA4C
 586 012d A60C1285 		.ascii	"\246\014\022\205\302B\307a\215\225F\372\212\302\313"
 586      C242C761 
 586      8D9546FA 
 586      8AC2CB
 587 013c FBF3F4AB 		.ascii	"\373\363\364\253\327fN0\342\036{\343\326\025t\341r\\"
 587      D7664E30 
 587      E21E7BE3 
 587      D61574E1 
 587      725C
 588 014e 6916700B 		.ascii	"i\026p\013-\270\015\276'\006\030^\316\327\306\203\374"
 588      2DB80DBE 
 588      2706185E 
 588      CED7C683 
 588      FC
 589 015f 875DDA66 		.ascii	"\207]\332f\237wv\303\313q\225\223\277\250\251\313#\375"
 589      9F7776C3 
 589      CB719593 
 589      BFA8A9CB 
 589      23FD
 590 0171 6B380570 		.ascii	"k8\005p\207\235\356\272NC\014\323[X\357\223\015\377"
 590      879DEEBA 
 590      4E430CD3 
 590      5B58EF93 
 590      0DFF
 591 0183 34C7BA72 		.ascii	"4\307\272rC\206\216f5\244\341U>+$\215V\310\014\236\316"
 591      43868E66 
 591      35A4E155 
 591      3E2B248D 
 591      56C80C9E 
 592 0198 9F9FEFED 		.ascii	"\237\237\357\355\331\354\321\003\272\231\223=\366zM"
 592      D9ECD103 
 592      BA99933D 
ARM GAS  C:\Users\Luggi\AppData\Local\Temp\ccujN3Qb.s 			page 47


 592      F67A4D
 593 01a7 372D7555 		.ascii	"7-uU\031+\374M\327?5\366\243\030\324\376\026wu\035\206"
 593      192BFC4D 
 593      D73F35F6 
 593      A318D4FE 
 593      1677751D 
 594 01bc 11C23DD7 		.ascii	"\021\302=\327~D\333g\220\374\346\367\344LVt\035\331"
 594      7E44DB67 
 594      90FCE6F7 
 594      E44C5674 
 594      1DD9
 595 01ce A60D8BC5 		.ascii	"\246\015\213\305\374o\364}\216\346\030\372\010\365,"
 595      FC6FF47D 
 595      8EE618FA 
 595      08F52C
 596 01dd 9DCFB97C 		.ascii	"\235\317\271|\235j\265\213\014\237\\y\036Yvv\3335\336"
 596      9D6AB58B 
 596      0C9F5C79 
 596      1E597676 
 596      DB35DE
 597 01f0 7966AD76 		.ascii	"yf\255v-\025\261\264j\017\226\252\366\260\244?\001\306"
 597      2D15B1B4 
 597      6A0F96AA 
 597      F6B0A43F 
 597      01C6
 598 0202 1EB975CA 		.ascii	"\036\271u\312\362,x\303d\331\023\371m\256c\251ApN\217"
 598      F22C78C3 
 598      64D913F9 
 598      6DAE63A9 
 598      41704E8F 
 599 0216 1F1EF324 		.ascii	"\037\036\363$\361\3508\242\214>!n\177\310\233\177\363"
 599      F1E838A2 
 599      8C3E216E 
 599      7FC89B7F 
 599      F3
 600 0227 9BE60458 		.ascii	"\233\346\004X\204I[\366G\032\"\321c\261\310\361#\341"
 600      84495BF6 
 600      471A22D1 
 600      63B1C8F1 
 600      23E1
 601 0239 C6E6687D 		.ascii	"\306\346h}\244\2566\334X\263\247\256\346t\270\251~g"
 601      A4AE36DC 
 601      58B3A7AE 
 601      E674B8A9 
 601      7E67
 602 024b 3D6D38D1 		.ascii	"=m8\321\020\213D\243\315M\261p\214Y\276\003\007k\203"
 602      108B44A3 
 602      CD4DB170 
 602      8C59BE03 
 602      076B83
 603 025e F4070A2C 		.ascii	"\364\007\012,>\353"
 603      3EEB
 604              		.text
 605              		.section	.gnu.lto_CySpcGetAlgorithm.304b3edc,"",%progbits
 606 0000 789C8D92 		.ascii	"x\234\215\222Oh\023Q\020\306g\336\333\335\266\246\265"
 606      4F681351 
 606      10C667DE 
ARM GAS  C:\Users\Luggi\AppData\Local\Temp\ccujN3Qb.s 			page 48


 606      DBDDB6A6 
 606      B5
 607 0011 45BC9843 		.ascii	"E\274\230C\025{h\275\330\203x\356\241\007\257B\256\005"
 607      157B68BD 
 607      D88378EE 
 607      A107AF42 
 607      AE05
 608 0023 2931572B 		.ascii	")1W+m\012\352\245\273I\232\203\024\011A\260\211\026"
 608      6D0AEAA5 
 608      BB499A83 
 608      140941B0 
 608      8916
 609 0035 A2A8F54F 		.ascii	"\242\250\365OL\2431\3216E\202=(\210)\241\261K\024\232"
 609      4CA331D1 
 609      3645823D 
 609      288829A1 
 609      B14B149A 
 610 0049 824DA934 		.ascii	"\202M\2514B\212\245I\301R\347\275]\025\021\304\205\335"
 610      428AA549 
 610      C152E7BD 
 610      5D1511C4 
 610      85DD
 611 005b B7F3F69B 		.ascii	"\267\363\366\233\337\373ff9\374}\235\242\333d\000=\264"
 611      DFFB6666 
 611      39FC7D9D 
 611      A2DB6400 
 611      3DB4
 612 006d A20AC842 		.ascii	"\242\012\310By\000\243\2311^\354\005\375\2002\337\011"
 612      7900A399 
 612      315EEC05 
 612      FD8032DF 
 612      09
 613 007e 7A2B47C5 		.ascii	"z+G\305\332V\020\305\013 \2141\256\340\030~a[\014g\023"
 613      DA5610C5 
 613      0B208C31 
 613      AEE0187E 
 613      615B0C67 
 614 0093 DBEF1D1B 		.ascii	"\333\357\035\033l\227\3011\240p.\374vR\023!*\"4\227"
 614      6C97C131 
 614      A0702EFC 
 614      76521321 
 614      2A223497 
 615 00a7 27CD96EE 		.ascii	"'\315\226\356{\272\356\253\205K\301\266\310\365\030"
 615      7BBAEEAB 
 615      854BC1B6 
 615      C8F518
 616 00b6 7D62F08D 		.ascii	"}b\360\215\001N\243\023\037\240S\000\037b\267\020\207"
 616      014EA313 
 616      1FA05300 
 616      1F62B710 
 616      87
 617 00c7 C6D31B1A 		.ascii	"\306\323\033\032?\2162qi\245\316\273nS\342\352\273\364"
 617      3F8E3271 
 617      69A5CEBB 
 617      6E53E2EA 
 617      BBF4
 618 00d9 A5881EF3 		.ascii	"\245\210\036\363\205\364\375\375>\244l|\204\374O\200"
ARM GAS  C:\Users\Luggi\AppData\Local\Temp\ccujN3Qb.s 			page 49


 618      85F4FDFD 
 618      3EA46C7C 
 618      84FC4F80 
 619 00e9 B828672B 		.ascii	"\270(g+\260g:\264\200\256\353\035\370\030\273\304)\004"
 619      B0673AB4 
 619      80AEEB1D 
 619      F818BBC4 
 619      2904
 620 00fb 8FA386B4 		.ascii	"\217\243\206\264\210\235\231C9\202\244*Q\337\211\004"
 620      889D9943 
 620      3982A42A 
 620      51DF8904 
 621 010b 6F41107B 		.ascii	"oA\020{\012\3542\256\212\007\300\032%\210\022+d\221"
 621      0AEC32AE 
 621      8A07C01A 
 621      2588122B 
 621      6491
 622 011d 56BE8CBE 		.ascii	"V\276\214\276\334\215\315\032J\006i\351\214\372\367"
 622      DC8DCD1A 
 622      4A0669E9 
 622      8CFAF7
 623 012c 37E3EDA2 		.ascii	"7\343\355\242>\326\004\370\204N\377\210\257w\256\356"
 623      3ED604F8 
 623      844EFF88 
 623      AF77AEEE 
 624 013c C4FD9A10 		.ascii	"\304\375\232\020\325\231B\232p\350VC\266D\271s\315\320"
 624      D599429A 
 624      70E85643 
 624      B644B973 
 624      CDD0
 625 014e 651FCA6B 		.ascii	"e\037\312k\213\205f\271%\235\346\0272{\216)\274i\004"
 625      8B8566B9 
 625      259DE617 
 625      327B8E29 
 625      BC6904
 626 0161 A8201513 		.ascii	"\250 \025\023T\311\214\250\004\2238\205\204\3647l\234"
 626      54C98CA8 
 626      04933885 
 626      84F4376C 
 626      9C
 627 0172 6A11A366 		.ascii	"j\021\243fe\233\213tNu?%\345\007\014\224\374\235\266"
 627      659B8B74 
 627      4E753F25 
 627      E5070C94 
 627      FC9DB6
 628 0185 8604C6FD 		.ascii	"\206\004\306\375\354D\223\024\020\344\231\335\224\012"
 628      EC449314 
 628      10E499DD 
 628      940A
 629 0193 45C55E4E 		.ascii	"E\305^N\016k\311j\364\212P\223\264\230K\304-+\261\237"
 629      0E6BC96A 
 629      F48A5093 
 629      B4984BC4 
 629      2D2BB19F 
 630 01a7 EE528B0B 		.ascii	"\356R\213\013\021M\3321rG\204\241\324/C\317\311\020"
 630      114DDA31 
 630      724784A1 
ARM GAS  C:\Users\Luggi\AppData\Local\Temp\ccujN3Qb.s 			page 50


 630      D42F43CF 
 630      C910
 631 01b9 2992AFAA 		.ascii	")\222\257\252\345V\221\244f\250mi\253\356Z\3557\365"
 631      E55691A4 
 631      66A86D69 
 631      ABEE5AED 
 631      37F5
 632 01cb 1F888C85 		.ascii	"\037\210\214\205\31062\323\007\245\305UB\274\260\021"
 632      C83632D3 
 632      07A5C555 
 632      42BCB011 
 633 01db C9AFFF83 		.ascii	"\311\257\377\203xi!\362\331\344g\331X\265\015pVVY\241"
 633      786921F2 
 633      D9E467D9 
 633      58B50D70 
 633      565659A1 
 634 01ef 8EDAA3EA 		.ascii	"\216\332\243\352\220\363\2543\204\0254rK\233=V{h\370"
 634      90F3AC33 
 634      84153472 
 634      4B9B3D56 
 634      7B68F8
 635 0202 EB886256 		.ascii	"\353\210bV|\276\024l'\314\335B\271 \273I\2718\207NV"
 635      7CBE146C 
 635      27CCDD42 
 635      B920BB49 
 635      B938874E 
 636 0217 FD143C4C 		.ascii	"\375\024<L\303GA\242_\340\350\031\317\005\317\360\240"
 636      C34741A2 
 636      5FE0E819 
 636      CF05CFF0 
 636      A0
 637 0228 D773FE9C 		.ascii	"\327s\376\234kht\330\355\0318\353\032\352?=\320\177"
 637      6B6874D8 
 637      ED1938EB 
 637      1AEA3F3D 
 637      D07F
 638 023a D975D17D 		.ascii	"\331u\321}\322\015\332\210w\320;:\362\003Uk\026q"
 638      D20DDA88 
 638      77D03B3A 
 638      F203556B 
 638      1671
 639              		.text
 640              		.section	.gnu.lto_.symbol_nodes.304b3edc,"",%progbits
 641 0000 789C55CE 		.ascii	"x\234U\3161\022\2020\020\205\341\227,\001\002!p\003"
 641      31128230 
 641      1085E197 
 641      2C010221 
 641      7003
 642 0012 6EE3B51E 		.ascii	"n\343\265\036\205\243\005\215\2255\316p\024kKk\017\300"
 642      85A3058D 
 642      9535CE70 
 642      146B4B6B 
 642      0FC0
 643 0024 191CE340 		.ascii	"\031\034\343@\221\335\356\233\367\027+\000N\006\373"
 643      91DDEE9B 
 643      F7172B00 
 643      4E06FB
ARM GAS  C:\Users\Luggi\AppData\Local\Temp\ccujN3Qb.s 			page 51


 644 0033 594BE0F6 		.ascii	"YK\340\366\002H\334\227\032Vh\224\013ZeGQ.Y(Wt\3125"
 644      0248DC97 
 644      1A566894 
 644      0B5A6547 
 644      512E5928 
 645 004b 4B65CF4A 		.ascii	"Ke\317J\271a\255\334\322\347v\300#\275\350\214Y,\305"
 645      B961ADDC 
 645      D2E776C0 
 645      23BDE88C 
 645      592CC5
 646 005e 0636AAEE 		.ascii	"\0066\252\356\330\3466=\303nLSbd\227s`\314(\350\261"
 646      D8E6363D 
 646      C36E4C53 
 646      62649773 
 646      60CC28E8 
 647 0073 7EBE4610 		.ascii	"~\276F\020\261^\266Q\314as\330\016x.\357\271\022\337"
 647      B15EB651 
 647      CC6173D8 
 647      0E782EEF 
 647      B912DF
 648 0086 E3F91F7C 		.ascii	"\343\371\037|\304yNC8\302\220\302\3536\342\007\022\350"
 648      C4794E43 
 648      38C290C2 
 648      EB36E207 
 648      12E8
 649 0098 557F     		.ascii	"U\177"
 650              		.text
 651              		.section	.gnu.lto_.refs.304b3edc,"",%progbits
 652 0000 789C6366 		.ascii	"x\234cf``\020g\200\000fN\006.\026F.6FnAf\036F.f\006"
 652      60601067 
 652      8000664E 
 652      062E1646 
 652      2E36466E 
 653 001b 6E16466E 		.ascii	"n\026Fn\036\006\000\011\315\000\247"
 653      1E060009 
 653      CD00A7
 654              		.text
 655              		.section	.gnu.lto_.decls.304b3edc,"",%progbits
 656 0000 789C9D57 		.ascii	"x\234\235WkL\034\327\025\236;\263<vY\300\251jRY\225"
 656      6B4C1CD7 
 656      159E3BB3 
 656      3C7659C0 
 656      A96A5259 
 657 0015 028A64B5 		.ascii	"\002\212d\265\222\025\325\211Z\371_\333\340\324Q\225"
 657      9215D589 
 657      5AF95FDB 
 657      E0D45195 
 658 0025 566EA8D5 		.ascii	"Vn\250\325J\215\032m\326\243\030\025\003\202E-\352\237"
 658      4A8D1A6D 
 658      D6A31815 
 658      0382452D 
 658      EA9F
 659 0037 098BCD1A 		.ascii	"\011\213\315\032\003!\030\202\215\215!\230\330\215\301"
 659      03211882 
 659      8D8D2198 
 659      D88DC1
 660 0046 061B3F00 		.ascii	"\006\033?\000S\263\230\000~\304`\307\033\236\011,,6"
ARM GAS  C:\Users\Luggi\AppData\Local\Temp\ccujN3Qb.s 			page 52


 660      53B39800 
 660      7EC460C7 
 660      1B9E092C 
 660      2C36
 661 0058 D8185863 		.ascii	"\330\030Xc\236\346\261=\367\265;\273\335%\264#\235\235"
 661      9EE6B13D 
 661      F7B53BBB 
 661      DD25B423 
 661      9D9D
 662 006a 99C339DF 		.ascii	"\231\3039\337\371\276s\317\314\035$A\020vj\004\301\005"
 662      F9BE73CF 
 662      CC1D2441 
 662      10766A04 
 662      C105
 663 007c C7A37041 		.ascii	"\307\243pA\310G\202\000'a7\030\270\205*\260(\260h\260"
 663      C8478200 
 663      27613718 
 663      B8852AB0 
 663      28B068B0 
 664 0090 3A811E91 		.ascii	":\201\036\221`\365`\215`V\260N0\033\330\000\330\010"
 664      60F5608D 
 664      6056B04E 
 664      301BD800 
 664      D808
 665 00a2 D818D804 		.ascii	"\330\030\330\004\330\024\230\023l\006l\036l\011l\025"
 665      D8149813 
 665      6C066C1E 
 665      6C096C15 
 666 00b2 4CC42050 		.ascii	"L\304 P'\030\011^\007\306\324\262\332\274n\010\304,"
 666      2718095E 
 666      07C6D4B2 
 666      DABC6E08 
 666      C42C
 667 00c4 C0590F67 		.ascii	"\300Y\017g\035\346\0066\313\342%\226\263\304\360}\217"
 667      1DE60636 
 667      CBE22596 
 667      B3C4F07D 
 667      8F
 668 00d5 C6FF03AF 		.ascii	"\306\377\003\257q\035<\254U\307\260\"0\006\3305\206"
 668      711D3CAC 
 668      55C7B022 
 668      3006D835 
 668      86
 669 00e6 1B81687F 		.ascii	"\033\201h\177\226U\330\002\323je\272}\217N\206\301\261"
 669      9655D802 
 669      D36A65BA 
 669      7D8F4E86 
 669      C1B1
 670 00f8 DA1836C6 		.ascii	"\332\0306\306\351\020<}\347x\277\205\353v\226\213X\276"
 670      E9103C7D 
 670      E778BF85 
 670      EB76968B 
 670      58BE
 671 010a EF61631C 		.ascii	"\357ac\034}1;\030n\224\012O\215e\363\203\205\3273r\035"
 671      7D313B18 
 671      6E940A4F 
 671      8D65F383 
ARM GAS  C:\Users\Luggi\AppData\Local\Temp\ccujN3Qb.s 			page 53


 671      85D73372 
 672 011f 7E12A278 		.ascii	"~\022\242x1`\233\2207.\346\035\211<\370\003~\360G\002"
 672      31609B90 
 672      372EE61D 
 672      893CF803 
 672      7EF04702 
 673 0133 70E53C7D 		.ascii	"p\345<}\265s\254\021?Xx\346B\374`\251\365\362\3741?"
 673      B573AC11 
 673      3F5878E6 
 673      42FC60A9 
 673      F5F2FC31 
 674 0148 F913FF43 		.ascii	"\371\023\377C\376\204\237\374\251\000\275\342\375\341"
 674      FE849FFC 
 674      A900BDE2 
 674      FDE1
 675 0156 7387E765 		.ascii	"s\207\347e3\\\377\020\367\016\321\036\372\316 \306\342"
 675      335CFF10 
 675      F70ED11E 
 675      FACE20C6 
 675      E2
 676 0167 3318E859 		.ascii	"3\030\350Yq\262:|\266}kpl^\313\267\206s\0035\360s\033"
 676      71B23A7C 
 676      B67D6B70 
 676      6C5ECBB7 
 676      86730335 
 677 017e ECA3C95F 		.ascii	"\354\243\311_?f\374\364\343\231\210\272\233\263\262"
 677      3F66FCF4 
 677      E39988BA 
 677      9BB3B2
 678 018d 422511E1 		.ascii	"B%\021\341\353SG\207m\272mg\025E\261(V+\362\004}t\372"
 678      EB534787 
 678      6DBA6D67 
 678      1545B128 
 678      562BF204 
 679 01a4 5A4EC8B8 		.ascii	"ZN\310\270\210\242t\3446\357NI\213Dn]8O\354\353+\\\222"
 679      88A274E4 
 679      36EF4E49 
 679      8B446E5D 
 679      384FECEB 
 680 01bb 906EAB45 		.ascii	"\220n\253EQ2\024g\201\"\375H@\333\266\240\237n\021P"
 680      51321467 
 680      8122FD48 
 680      40DBB6A0 
 680      9F6E1150 
 681 01cf 35DA0A61 		.ascii	"5\332\012a\350_h\233\200\276@[\320Y\264E\250\204\002"
 681      E85F689B 
 681      80BE405B 
 681      D059B445 
 681      A88402
 682 01e2 CE325BFF 		.ascii	"\3162[\377\217\025E\203\252\220\016\235A\022\211\000"
 682      8F154583 
 682      AA900E9D 
 682      41128900 
 683 01f2 A2B80261 		.ascii	"\242\270\002a\014~\250tgd\361\271\036*E\3506\341\302"
 683      0C7EA874 
 683      6764F1B9 
 683      1E2A45E8 
ARM GAS  C:\Users\Luggi\AppData\Local\Temp\ccujN3Qb.s 			page 54


 683      36E1C2
 684 0205 253D0F67 		.ascii	"%=\017gqa\275N\304\267\2453SMZi;RS\214\246\024\213'"
 684      7161BD4E 
 684      C4B7A533 
 684      534D5A69 
 684      3B52538C 
 685 021d 162F8592 		.ascii	"\026/\205\222[\227K\302\034O\337[(\211@[u\270xyU8Bu"
 685      5B974BC2 
 685      1C4FDF5B 
 685      2889405B 
 685      75B87879 
 686 0235 50B8C653 		.ascii	"P\270\306S8\232\025&\032\024\263\022\364\023\001\235"
 686      389A1526 
 686      1A14B312 
 686      F413019D 
 687 0245 03C2E781 		.ascii	"\003\302\347\2010\272\010*\242\231\212Zp^\300\316:\302"
 687      30BA082A 
 687      A2998A5A 
 687      705EC0CE 
 687      3AC2
 688 0257 B0E1FCEC 		.ascii	"\260\341\374\354\3350\3020\032\327m,\270y4\2300\324"
 688      DD30C230 
 688      1AD76D2C 
 688      B8793498 
 688      30D4
 689 0269 E0DB6BCB 		.ascii	"\340\333k\313#6\315\313EPS\3117+\2334hw\024\272\004"
 689      2336CDCB 
 689      455053C9 
 689      372B9B34 
 689      687714BA 
 690 027e 00970140 		.ascii	"\000\227\001@@W\320\313\360\373\027\015m\362\363\271"
 690      4057D0CB 
 690      F0FB170D 
 690      6DF2F3B9 
 691 028e 81568DB4 		.ascii	"\201V\215\264\203\250i\235\353\233\014\217>\251\224"
 691      83A8699D 
 691      EB9B0C8F 
 691      3EA994
 692 029d D73A0F3B 		.ascii	"\327:\017;\034?;\246\224g(k.\3506\316AW\335\264\005"
 692      1C3F3BA6 
 692      9467286B 
 692      2EE836CE 
 692      4157DDB4 
 693 02b2 7C4D1B56 		.ascii	"|M\033V\217\242!\261Sy|O\224\214\004\304\371p\245%\204"
 693      8FA221B1 
 693      53797C4F 
 693      948C04C4 
 693      F970A525 
 694 02c7 8094379E 		.ascii	"\200\2247\236\012\276\251X]\256_\222\374\006U~\003\317"
 694      0ABEA958 
 694      5DAE5F92 
 694      FC06557E 
 694      03CF
 695 02d9 6F24F9F7 		.ascii	"o$\371\367\235\256\277\352\263q\017\200\257\366m\262"
 695      9DAEBFEA 
 695      B3710F80 
 695      AFF66DB2 
ARM GAS  C:\Users\Luggi\AppData\Local\Temp\ccujN3Qb.s 			page 55


 696 02e9 3C1EC2D7 		.ascii	"<\036\302\327\220\236MD\376\201\226|\215F\244\013\205"
 696      909E4D44 
 696      FE81967C 
 696      8D46A40B 
 696      85
 697 02fa 25806F7C 		.ascii	"%\200o|\266\3451\365A\034jB\304Y`\255X\023\325\035\360"
 697      B6E531F5 
 697      411C6A42 
 697      C45960AD 
 697      5813D51D 
 698 030f 46BC4E5A 		.ascii	"F\274NZ\360o\304z0\337n\315\214\224\366\023\372\323"
 698      F06FC47A 
 698      30DF6ECD 
 698      8C94F613 
 698      FAD3
 699 0321 B907BA74 		.ascii	"\271\007\272t\204\276}\332![3\225\025\274\2248\0035"
 699      84BE7DDA 
 699      215B3395 
 699      15BC9438 
 699      0335
 700 0333 AB043473 		.ascii	"\253\0044s\001V\"\240\350\270\371\273H\351\237^3\021"
 700      015622A0 
 700      E8B8F9BB 
 700      48E99F5E 
 700      3311
 701 0345 436762E8 		.ascii	"Cgb\350\370R\245\226\334\342}4\022OE\351\352\211\372"
 701      F852A596 
 701      DCE27D34 
 701      124F45E9 
 701      EA89FA
 702 0358 103615CE 		.ascii	"\0206\025\316\262^\307\237\315\312\257P\0330l\361LF"
 702      B25EC79F 
 702      CDCAAF50 
 702      1B306CF1 
 702      4C46
 703 036a 8C7A3248 		.ascii	"\214z2HW\004\267\000\364%LF\014\233\214\033\340l\005"
 703      5704B700 
 703      F4254C46 
 703      0C9B8C1B 
 703      E06C05
 704 037d 275E8612 		.ascii	"'^\206\022\313\254N\307\236\007\313\367<\017\020?\270"
 704      CBAC4EC7 
 704      9E07CBF7 
 704      3C0F103F 
 704      B8
 705 038e F4A250AB 		.ascii	"\364\242P\253\356{\273W\227:\326\355{\301\374\215\323"
 705      EE7BBB57 
 705      973AD6ED 
 705      7BC1FC8D 
 705      D3
 706 039f 12F1411C 		.ascii	"\022\361A\034\272I\373^\261\374|\206:\361\240\337\242"
 706      BA49FB5E 
 706      B1FC7C86 
 706      3AF1A0DF 
 706      A2
 707 03b0 CE2BD50F 		.ascii	"\316+\325\017\356k\335\331\267\251\363K\373HS\270z\205"
 707      EE6BDDD9 
ARM GAS  C:\Users\Luggi\AppData\Local\Temp\ccujN3Qb.s 			page 56


 707      B7A9F34B 
 707      FB4853B8 
 707      7A85
 708 03c2 DABC6A7F 		.ascii	"\332\274j\177EV\350\016_\241\213c\307\036\211R&\"\015"
 708      4556E80E 
 708      5FA18B63 
 708      C71E8952 
 708      26220D
 709 03d5 1E2FED39 		.ascii	"\036/\3559\024\306\306\324|\361\017\237\230\225J\305"
 709      14C6C6D4 
 709      7CF10F9F 
 709      98954AC5 
 710 03e5 EE72BD42 		.ascii	"\356r\275B\262\320]\325*\335\345\253\324IV\251\254\343"
 710      B2D05DD5 
 710      2ADDE5AB 
 710      D44956A9 
 710      ACE3
 711 03f7 E937916E 		.ascii	"\3517\221nvT\306\350\3541\013r\313\350\242\344&z{\227"
 711      7654C6E8 
 711      EC310B72 
 711      CBE8A2E4 
 711      267A7B97 
 712 040b F46EC6F7 		.ascii	"\364n\306\367\250\263\363\323\2542]`\306_\023\306\367"
 712      A8B3F3D3 
 712      AC325D60 
 712      C65F13C6 
 712      F7
 713 041c 39E3D19E 		.ascii	"9\343\321\236'\003:\251\2302\2569\232}6\230>\023\203"
 713      27033AA9 
 713      9832AE39 
 713      9A7D3698 
 713      3E1383
 714 042f 67F83301 		.ascii	"g\3703\001\011\350\201\212\354\003N\326\266A\262\337"
 714      09E8818A 
 714      EC034ED6 
 714      B641B2DF 
 715 043f 505E33A3 		.ascii	"P^3\243yma\356\300n\352t(JO\230[A\017u\026V]/\025\003"
 715      796D61EE 
 715      C06EEA74 
 715      284A4F98 
 715      5B410F75 
 716 0459 2BE8230A 		.ascii	"+\350#\012z\271\202\372\352\241\245\010\251\222*\270"
 716      7AB982FA 
 716      EAA1A508 
 716      A9922AB8 
 717 0469 3B71E69C 		.ascii	";q\346\234D\025\214\177\301\025@\002\352W)\350\347\012"
 717      44158C7F 
 717      C1154002 
 717      EA5729E8 
 717      E70A
 718 047b 0688027F 		.ascii	"\006\210\002\177SSl\031\277\024\342\366}\313\236Vs\255"
 718      53536C19 
 718      BF14E2F6 
 718      7DCB9E56 
 718      73AD
 719 048d 2BC4ADE0 		.ascii	"+\304\255\340;\266\006\0319\225\021\356\310A\352<Rt"
 719      3BB60619 
ARM GAS  C:\Users\Luggi\AppData\Local\Temp\ccujN3Qb.s 			page 57


 719      399511EE 
 719      C841EA3C 
 719      5274
 720 049f FC766460 		.ascii	"\374vd`\005v\242`\210+h\277w\375\343P\3512U0\277\272"
 720      0576A260 
 720      882B68BF 
 720      77FDE350 
 720      E9325530 
 721 04b5 921B4A15 		.ascii	"\222\033J\025,\236\343\012 \001\015\253\024\014s\005"
 721      2C9EE30A 
 721      20010DAB 
 721      140C7305 
 722 04c5 231B54E0 		.ascii	"#\033T\340`d\035\243'\327\351\354C\302k\224\363:=0\015"
 722      60641DA3 
 722      27D7E9EC 
 722      43C26B94 
 722      F33A3D30 
 723 04da AD6AA5BC 		.ascii	"\255j\245\274\372*\212\355\021\224\327\2675\234\027"
 723      FA2A8AED 
 723      1194D7B7 
 723      359C17
 724 04e9 24A0472A 		.ascii	"$\240G*^\2178\257\261\200\274N\024U\347\240\300\024"
 724      5E8F38AF 
 724      B180BC4E 
 724      1455E7A0 
 724      C014
 725 04fb 1E130AE3 		.ascii	"\036\023\012\343\234\302`F}\225$\331(\205\301\361\351"
 725      9CC26046 
 725      7D9524D9 
 725      2885C1F1 
 725      E9
 726 050c 1AB6B8B7 		.ascii	"\032\266\270\267.\354u\277\363 \005=Q\221x\302IL\020"
 726      2EEC75BF 
 726      F320053D 
 726      519178C2 
 726      494C10
 727 051f 122FDAB3 		.ascii	"\022/\332\263\012\327)\370\324k\233i\313]\254\027\245"
 727      0AD729F8 
 727      D46B9B69 
 727      CB5DAC17 
 727      A5
 728 0530 615AAFFA 		.ascii	"aZ\257\372\374\340\245HZ\257\244\316S\0172\320\244\252"
 728      FCE0A548 
 728      5AAFA4CE 
 728      530F32D0 
 728      A4AA
 729 0542 DE24AF37 		.ascii	"\336$\2577E\352-T\237\260\350\245\011\012\321z\365\244"
 729      45EA2D54 
 729      9FB0E8A5 
 729      090AD17A 
 729      F5A4
 730 0554 91BDA5EB 		.ascii	"\221\275\245\353z\365\012m\033\335\247\246U\020\323"
 730      7AF50A6D 
 730      1BDDA7A6 
 730      5510D3
 731 0563 1CC24920 		.ascii	"\034\302I \232\252G\276\326K\013\024b\252\241f\2216"
 731      9AAA47BE 
ARM GAS  C:\Users\Luggi\AppData\Local\Temp\ccujN3Qb.s 			page 58


 731      D64B0B14 
 731      62AAA166 
 731      9136
 732 0575 DE7EEBF2 		.ascii	"\336~\353\362>\325f\207y<S\201<\343 3\001\233?\347\032"
 732      3ED56687 
 732      793C5381 
 732      3CE32033 
 732      019B3FE7 
 733 058a FE5C0CB8 		.ascii	"\376\\\014\270\343\316\222V<\347\275\177z\356Bm\230"
 733      E3CE9256 
 733      3CE7BD7F 
 733      7AEE426D 
 733      98
 734 059b 74887DFD 		.ascii	"t\210}\375\3447\015\340W\203]q6\337r\301\236\373\031"
 734      E4370DE0 
 734      57835D71 
 734      36DF72C1 
 734      9EFB19
 735 05ae A7015968 		.ascii	"\247\001YhNEc\216\323\230'4\016e\326J\201w\270\005\257"
 735      4E45638E 
 735      D3982734 
 735      0E65D64A 
 735      8177B805 
 736 05c3 EE773D99 		.ascii	"\356w=\231?\246\223\232i\305\241\252\317\023HA\373\252"
 736      3FA6939A 
 736      69C5A1AA 
 736      CF134841 
 736      FBAA
 737 05d5 43BEC19B 		.ascii	"C\276\301\233\017\011hQUm\221W[\012\3706\252m>\337\026"
 737      0F096851 
 737      556D9157 
 737      5B0AF836 
 737      AA6D3EDF 
 738 05ea 1650F432 		.ascii	"\026P\3642a\360\202\213>2l/\011\222\272)\205\225\033"
 738      61F0828B 
 738      3E326C2F 
 738      0992BA29 
 738      85951B
 739 05fd 0D6D4194 		.ascii	"\015mA\224\303t\253\207\003\244\240\025\025\207\025"
 739      C374AB87 
 739      03A4A015 
 739      158715
 740 060c CE619570 		.ascii	"\316a\225ph\310\353j\215\220\354\024bm\240\366*\376"
 740      68C8EB6A 
 740      8D90EC14 
 740      626DA0F6 
 740      2AFE
 741 061e E401D904 		.ascii	"\344\001\331\004\377Be\355q\351\325\317\224\362\012"
 741      FF4265ED 
 741      71E9D5CF 
 741      94F20A
 742 062d D814FAA5 		.ascii	"\330\024\372\245b\300V\024\374(\221\306\254QT\266\037"
 742      62C05614 
 742      FC2891C6 
 742      AC5154B6 
 742      1F
 743 063e 0AF81E7E 		.ascii	"\012\370\036~]x/U\304W!}\270\267\247)D\232$\330\342"
ARM GAS  C:\Users\Luggi\AppData\Local\Temp\ccujN3Qb.s 			page 59


 743      5D782F55 
 743      C457217D 
 743      B8B7A729 
 743      449A24D8 
 744 0653 6461862B 		.ascii	"da\206+\314\263?\323OF\263\250C\037\211\033\333\237"
 744      CCB33FD3 
 744      4F46B3A8 
 744      431F891B 
 744      DB9F
 745 0665 3344BFFB 		.ascii	"3D\277\373\363\331\362\362\352Pi\226\012\270:36\025"
 745      F3D9F2F2 
 745      EA506996 
 745      0AB83A33 
 745      3615
 746 0677 04020097 		.ascii	"\004\002\000\227\276\254zO=\323\202\000\005\013\030"
 746      BEAC7A4F 
 746      3DD38200 
 746      050B18
 747 0686 DA4CE691 		.ascii	"\332L\346\221\012\300\2253ieU\177\301\003\277\007D("
 747      0AC09533 
 747      6965557F 
 747      C103BF07 
 747      4428
 748 0698 77904828 		.ascii	"w\220H(\255p\336\014S\357\346xI=\361Y\"\331\315\361"
 748      AD70DE0C 
 748      53EFE678 
 748      493DF159 
 748      22D9CDF1 
 749 06ac 198295E2 		.ascii	"\031\202\225\342\303\225\241\322A\211P\271<\237\335"
 749      C395A1D2 
 749      418950B9 
 749      3C9FDD
 750 06bb 108EBF1B 		.ascii	"\020\216\277\033\314\033\370\216\206\376\330:\263\273"
 750      CC1BF88E 
 750      86FED83A 
 750      B3BB
 751 06c9 B5F4CBDB 		.ascii	"\265\364\313\3337\343\260\030\350\313{\321\361v&|\346"
 751      37E3B018 
 751      E8CB7BD1 
 751      F176267C 
 751      E6
 752 06da 6483188B 		.ascii	"d\203\030\213\247\215\207D\235\373{\337v'c@R\013\300"
 752      A78D8744 
 752      9DFB7BDF 
 752      76276340 
 752      520BC0
 753 06ed B11E0139 		.ascii	"\261\036\0019L@\016\021p\262\266?F\035;\353%6\227\305"
 753      4C400E11 
 753      70B2B63F 
 753      461D3BEB 
 753      253697C5 
 754 0701 E692D8EE 		.ascii	"\346\222\330\356\3333]!\352\340e\257\340<\026\234G\202"
 754      DB335D21 
 754      EAE065AF 
 754      E03C169C 
 754      4782
 755 0713 87F3DB9B 		.ascii	"\207\363\333\233\264\274\031\226\357\221\006\361\346"
ARM GAS  C:\Users\Luggi\AppData\Local\Temp\ccujN3Qb.s 			page 60


 755      B4BC1996 
 755      EF9106F1 
 755      E6
 756 0720 8327DA43 		.ascii	"\203'\332C\325\340\037{\261\316g\340\371\004\334Rpe"
 756      D5E01F7B 
 756      B1CE67E0 
 756      F904DC52 
 756      7065
 757 0732 22483A4C 		.ascii	"\"H:L\333\336Pt\277CG+ml\200Dk]\376\262\236\377;\261"
 757      DBDE5074 
 757      BF43472B 
 757      6D6C8044 
 757      6B5DFEB2 
 758 074a B63D1415 		.ascii	"\266=\024\025B\255O<\335,\020=S\371\337\240G\374O\345"
 758      42AD4F3C 
 758      DD2C103D 
 758      53F9DFA0 
 758      47FC4FE5 
 759 075e C3D1B2E5 		.ascii	"\303\321\262\345`\265\200B/\001EL@\021\021\3408\370"
 759      60B58042 
 759      2F01454C 
 759      401111E0 
 759      38F8
 760 0770 D57C843A 		.ascii	"\325|\204:\330\354\025\374)\013\306\347\240\264\370"
 760      D8EC15FC 
 760      290BC6E7 
 760      A0B4F8
 761 077f 44D38EE0 		.ascii	"D\323\216\340]\277\337\023\035+\304\354\222\023\345"
 761      5DBFDF13 
 761      1D2BC4EC 
 761      9213E5
 762 078e 148349DE 		.ascii	"\024\203I\336\373~\\RZ\212Q~ow\\R\354\317\3373\246\233"
 762      FB7E5C52 
 762      5A8A517E 
 762      6F775C52 
 762      ECCFDF33 
 763 07a4 D293E5D4 		.ascii	"\322\223\345\324\327\366\011\3018|\373/t\261\351q\311"
 763      D7F609C1 
 763      387CFB2F 
 763      74B1E971 
 763      C9
 764 07b5 C6389321 		.ascii	"\3068\223!\305\364J\200\034\022\361\232Q\320\262\320"
 764      C5F44A80 
 764      1C12F19A 
 764      51D0B2D0 
 765 07c5 A4E47072 		.ascii	"\244\344pr\365\256l\330\273\323`"
 765      F5AE6CD8 
 765      BBD360
 766 07d0 32841AD3 		.ascii	"2\204\032\323SM\006SZ\352\017\210\373\235$\303\336\337"
 766      534D0653 
 766      5AEA0F88 
 766      FB9D24C3 
 766      DEDF
 767 07e2 A52598E2 		.ascii	"\245%\230\342\337L7\311z\267\353\335\244\277oR\337\374"
 767      DF4C37C9 
 767      7AB7EBDD 
 767      A4BF6F52 
ARM GAS  C:\Users\Luggi\AppData\Local\Temp\ccujN3Qb.s 			page 61


 767      DFFC
 768 07f4 262D2181 		.ascii	"&-!\201\342\374)%\336$\273\377\374V\212!U\216\223\215"
 768      E2FC2925 
 768      DE24BBFF 
 768      FC568A21 
 768      558E938D 
 769 0808 A6A4149A 		.ascii	"\246\244\024\232\274K6\375Q\336\237\254e\311\306\277"
 769      BC4B36FD 
 769      51DE9FAC 
 769      65C9C6BF 
 770 0818 8591AB3D 		.ascii	"\205\221\253=\211\011p\375\022\017\371u\302\207I\200"
 770      890970FD 
 770      120FF975 
 770      C2874980 
 771 0828 B36FFFE6 		.ascii	"\263o\377\346\330\364\267\376\021o\212\205\233x\243"
 771      D8F4B7FE 
 771      116F8A85 
 771      9B78A3
 772 0837 210123C5 		.ascii	"!\001#\305'%\006\326\366N\374\007\320\215(\310J4\311"
 772      272506D6 
 772      F64EFC07 
 772      D08D28C8 
 772      4A34C9
 773 084a 293E6950 		.ascii	")>iPt\247\234`H\337\223\252g\305\241S&\231\364\356\215"
 773      74A79C60 
 773      48DF93AA 
 773      67C5A153 
 773      2699F4EE 
 774 085f D75F4A05 		.ascii	"\327_J\005\362\206x\323\356\370d\371\315\364dCj\252"
 774      F28678D3 
 774      EEF864F9 
 774      CDF46443 
 774      6AAA
 775 0871 2645FE70 		.ascii	"&E\376pG\020\374\274\361\372\177\000\027\374\011\354"
 775      4710FCBC 
 775      F1FA7F00 
 775      17FC09EC 
 776              		.text
 777              		.section	.gnu.lto_.symtab.304b3edc,"",%progbits
 778 0000 43795370 		.ascii	"CySpcStart\000\000\000\000\000\000\000\000\000\000\000"
 778      63537461 
 778      72740000 
 778      00000000 
 778      00000000 
 779 0015 00B80000 		.ascii	"\000\270\000\000\000CySpcStop\000\000\000\000\000\000"
 779      00437953 
 779      70635374 
 779      6F700000 
 779      00000000 
 780 0029 00000000 		.ascii	"\000\000\000\000\000\000\272\000\000\000CySpcReadDa"
 780      0000BA00 
 780      00004379 
 780      53706352 
 780      65616444 
 781 003e 74610000 		.ascii	"ta\000\000\000\000\000\000\000\000\000\000\000\000\300"
 781      00000000 
 781      00000000 
ARM GAS  C:\Users\Luggi\AppData\Local\Temp\ccujN3Qb.s 			page 62


 781      0000C0
 782 004d 00000043 		.ascii	"\000\000\000CySpcLoadMultiByte\000\000\000\000\000\000"
 782      79537063 
 782      4C6F6164 
 782      4D756C74 
 782      69427974 
 783 0068 00000000 		.ascii	"\000\000\000\000\000\000\316\000\000\000CySpcLoadRo"
 783      0000CE00 
 783      00004379 
 783      5370634C 
 783      6F616452 
 784 007d 77000000 		.ascii	"w\000\000\000\000\000\000\000\000\000\000\000\000\324"
 784      00000000 
 784      00000000 
 784      00D4
 785 008b 00000043 		.ascii	"\000\000\000CySpcLoadRowFull\000\000\000\000\000\000"
 785      79537063 
 785      4C6F6164 
 785      526F7746 
 785      756C6C00 
 786 00a4 00000000 		.ascii	"\000\000\000\000\000\000\333\000\000\000CySpcWriteR"
 786      0000DB00 
 786      00004379 
 786      53706357 
 786      72697465 
 787 00b9 6F770000 		.ascii	"ow\000\000\000\000\000\000\000\000\000\000\000\000\342"
 787      00000000 
 787      00000000 
 787      0000E2
 788 00c8 00000043 		.ascii	"\000\000\000CySpcEraseSector\000\000\000\000\000\000"
 788      79537063 
 788      45726173 
 788      65536563 
 788      746F7200 
 789 00e1 00000000 		.ascii	"\000\000\000\000\000\000\347\000\000\000CySpcGetTem"
 789      0000E700 
 789      00004379 
 789      53706347 
 789      65745465 
 790 00f6 70000000 		.ascii	"p\000\000\000\000\000\000\000\000\000\000\000\000\353"
 790      00000000 
 790      00000000 
 790      00EB
 791 0104 00000043 		.ascii	"\000\000\000CySpcLock\000\000\000\000\000\000\000\000"
 791      79537063 
 791      4C6F636B 
 791      00000000 
 791      00000000 
 792 0118 00000000 		.ascii	"\000\000\000\000\356\000\000\000SpcLockState\000\000"
 792      EE000000 
 792      5370634C 
 792      6F636B53 
 792      74617465 
 793 012e 00000000 		.ascii	"\000\000\000\000\000\000\000\000\000\000\000\001\000"
 793      00000000 
 793      00000001 
 793      00
ARM GAS  C:\Users\Luggi\AppData\Local\Temp\ccujN3Qb.s 			page 63


 794 013b 00437953 		.ascii	"\000CySpcUnlock\000\000\000\000\000\000\000\000\000"
 794      7063556E 
 794      6C6F636B 
 794      00000000 
 794      00000000 
 795 0150 000000F0 		.ascii	"\000\000\000\360\000\000\000CySpcGetAlgorithm\000\000"
 795      00000043 
 795      79537063 
 795      47657441 
 795      6C676F72 
 796 016a 00000000 		.ascii	"\000\000\000\000\000\000\000\000\000\000\362\000\000"
 796      00000000 
 796      0000F200 
 796      00
 797 0177 00437945 		.ascii	"\000CyExitCriticalSection\000\000\002\000\000\000\000"
 797      78697443 
 797      72697469 
 797      63616C53 
 797      65637469 
 798 0194 00000000 		.ascii	"\000\000\000\000\000\366\000\000\000CyEnterCritical"
 798      00F60000 
 798      00437945 
 798      6E746572 
 798      43726974 
 799 01ac 53656374 		.ascii	"Section\000\000\002\000\000\000\000\000\000\000\000"
 799      696F6E00 
 799      00020000 
 799      00000000 
 799      0000
 800 01be 00F90000 		.ascii	"\000\371\000\000\000CyDelayUs\000\000\002\000\000\000"
 800      00437944 
 800      656C6179 
 800      55730000 
 800      02000000 
 801 01d2 00000000 		.ascii	"\000\000\000\000\000\000\375\000\000\000"
 801      0000FD00 
 801      0000
 802              		.text
 803              		.section	.gnu.lto_.opts,"",%progbits
 804 0000 272D666E 		.ascii	"'-fno-trapv' '-fno-strict-overflow' '-mcpu=cortex-m"
 804      6F2D7472 
 804      61707627 
 804      20272D66 
 804      6E6F2D73 
 805 0033 33272027 		.ascii	"3' '-mthumb' '-g' '-Og' '-ffunction-sections' '-flt"
 805      2D6D7468 
 805      756D6227 
 805      20272D67 
 805      2720272D 
 806 0066 6F272027 		.ascii	"o' '-ffat-lto-objects'\000"
 806      2D666661 
 806      742D6C74 
 806      6F2D6F62 
 806      6A656374 
 807              		.text
 808              		.cfi_sections	.debug_frame
 809              		.section	.text.CySpcStart,"ax",%progbits
ARM GAS  C:\Users\Luggi\AppData\Local\Temp\ccujN3Qb.s 			page 64


 810              		.align	2
 811              		.global	CySpcStart
 812              		.thumb
 813              		.thumb_func
 814              		.type	CySpcStart, %function
 815              	CySpcStart:
 816              	.LFB0:
 817              		.file 1 "Generated_Source\\PSoC5\\CySpc.c"
   1:Generated_Source\PSoC5/CySpc.c **** /***************************************************************************//**
   2:Generated_Source\PSoC5/CySpc.c **** * \file CySpc.c
   3:Generated_Source\PSoC5/CySpc.c **** * \version 5.50
   4:Generated_Source\PSoC5/CySpc.c **** *
   5:Generated_Source\PSoC5/CySpc.c **** * \brief Provides an API for the System Performance Component.
   6:Generated_Source\PSoC5/CySpc.c **** * The SPC functions are not meant to be called directly by the user
   7:Generated_Source\PSoC5/CySpc.c **** * application.
   8:Generated_Source\PSoC5/CySpc.c **** *
   9:Generated_Source\PSoC5/CySpc.c **** ********************************************************************************
  10:Generated_Source\PSoC5/CySpc.c **** * \copyright
  11:Generated_Source\PSoC5/CySpc.c **** * Copyright 2008-2016, Cypress Semiconductor Corporation.  All rights reserved.
  12:Generated_Source\PSoC5/CySpc.c **** * You may use this file only in accordance with the license, terms, conditions,
  13:Generated_Source\PSoC5/CySpc.c **** * disclaimers, and limitations in the end user license agreement accompanying
  14:Generated_Source\PSoC5/CySpc.c **** * the software package with which this file was provided.
  15:Generated_Source\PSoC5/CySpc.c **** *******************************************************************************/
  16:Generated_Source\PSoC5/CySpc.c **** 
  17:Generated_Source\PSoC5/CySpc.c **** #include "CySpc.h"
  18:Generated_Source\PSoC5/CySpc.c **** 
  19:Generated_Source\PSoC5/CySpc.c **** #define CY_SPC_KEY_ONE                      (0xB6u)
  20:Generated_Source\PSoC5/CySpc.c **** #define CY_SPC_KEY_TWO(x)                   ((uint8) (((uint16) 0xD3u) + ((uint16) (x))))
  21:Generated_Source\PSoC5/CySpc.c **** 
  22:Generated_Source\PSoC5/CySpc.c **** /* Command Codes */
  23:Generated_Source\PSoC5/CySpc.c **** #define CY_SPC_CMD_LD_BYTE                  (0x00u)
  24:Generated_Source\PSoC5/CySpc.c **** #define CY_SPC_CMD_LD_MULTI_BYTE            (0x01u)
  25:Generated_Source\PSoC5/CySpc.c **** #define CY_SPC_CMD_LD_ROW                   (0x02u)
  26:Generated_Source\PSoC5/CySpc.c **** #define CY_SPC_CMD_RD_BYTE                  (0x03u)
  27:Generated_Source\PSoC5/CySpc.c **** #define CY_SPC_CMD_RD_MULTI_BYTE            (0x04u)
  28:Generated_Source\PSoC5/CySpc.c **** #define CY_SPC_CMD_WR_ROW                   (0x05u)
  29:Generated_Source\PSoC5/CySpc.c **** #define CY_SPC_CMD_WR_USER_NVL              (0x06u)
  30:Generated_Source\PSoC5/CySpc.c **** #define CY_SPC_CMD_PRG_ROW                  (0x07u)
  31:Generated_Source\PSoC5/CySpc.c **** #define CY_SPC_CMD_ER_SECTOR                (0x08u)
  32:Generated_Source\PSoC5/CySpc.c **** #define CY_SPC_CMD_ER_ALL                   (0x09u)
  33:Generated_Source\PSoC5/CySpc.c **** #define CY_SPC_CMD_RD_HIDDEN                (0x0Au)
  34:Generated_Source\PSoC5/CySpc.c **** #define CY_SPC_CMD_PRG_PROTECT              (0x0Bu)
  35:Generated_Source\PSoC5/CySpc.c **** #define CY_SPC_CMD_CHECKSUM                 (0x0Cu)
  36:Generated_Source\PSoC5/CySpc.c **** #define CY_SPC_CMD_DWNLD_ALGORITHM          (0x0Du)
  37:Generated_Source\PSoC5/CySpc.c **** #define CY_SPC_CMD_GET_TEMP                 (0x0Eu)
  38:Generated_Source\PSoC5/CySpc.c **** #define CY_SPC_CMD_GET_ADC                  (0x0Fu)
  39:Generated_Source\PSoC5/CySpc.c **** #define CY_SPC_CMD_RD_NVL_VOLATILE          (0x10u)
  40:Generated_Source\PSoC5/CySpc.c **** #define CY_SPC_CMD_SETUP_TS                 (0x11u)
  41:Generated_Source\PSoC5/CySpc.c **** #define CY_SPC_CMD_DISABLE_TS               (0x12u)
  42:Generated_Source\PSoC5/CySpc.c **** #define CY_SPC_CMD_ER_ROW                   (0x13u)
  43:Generated_Source\PSoC5/CySpc.c **** 
  44:Generated_Source\PSoC5/CySpc.c **** /* Enable bit in Active and Alternate Active mode templates */
  45:Generated_Source\PSoC5/CySpc.c **** #define PM_SPC_PM_EN                        (0x08u)
  46:Generated_Source\PSoC5/CySpc.c **** 
  47:Generated_Source\PSoC5/CySpc.c **** /* Gate calls to the SPC. */
  48:Generated_Source\PSoC5/CySpc.c **** uint8 SpcLockState = CY_SPC_UNLOCKED;
  49:Generated_Source\PSoC5/CySpc.c **** 
ARM GAS  C:\Users\Luggi\AppData\Local\Temp\ccujN3Qb.s 			page 65


  50:Generated_Source\PSoC5/CySpc.c **** 
  51:Generated_Source\PSoC5/CySpc.c **** #if(CY_PSOC5)
  52:Generated_Source\PSoC5/CySpc.c **** 
  53:Generated_Source\PSoC5/CySpc.c ****     /***************************************************************************
  54:Generated_Source\PSoC5/CySpc.c ****     * The wait-state pipeline must be enabled prior to accessing the SPC
  55:Generated_Source\PSoC5/CySpc.c ****     * register interface regardless of CPU frequency. The CySpcLock() saves
  56:Generated_Source\PSoC5/CySpc.c ****     * current wait-state pipeline state and enables it. The CySpcUnlock()
  57:Generated_Source\PSoC5/CySpc.c ****     * function, which must be called after SPC transaction, restores original
  58:Generated_Source\PSoC5/CySpc.c ****     * state.
  59:Generated_Source\PSoC5/CySpc.c ****     ***************************************************************************/
  60:Generated_Source\PSoC5/CySpc.c ****     static uint32 spcWaitPipeBypass = 0u;
  61:Generated_Source\PSoC5/CySpc.c **** 
  62:Generated_Source\PSoC5/CySpc.c **** #endif  /* (CY_PSOC5) */
  63:Generated_Source\PSoC5/CySpc.c **** 
  64:Generated_Source\PSoC5/CySpc.c **** 
  65:Generated_Source\PSoC5/CySpc.c **** /*******************************************************************************
  66:Generated_Source\PSoC5/CySpc.c **** * Function Name: CySpcStart
  67:Generated_Source\PSoC5/CySpc.c **** ****************************************************************************//**
  68:Generated_Source\PSoC5/CySpc.c **** *  Starts the SPC.
  69:Generated_Source\PSoC5/CySpc.c **** *
  70:Generated_Source\PSoC5/CySpc.c **** *******************************************************************************/
  71:Generated_Source\PSoC5/CySpc.c **** void CySpcStart(void) 
  72:Generated_Source\PSoC5/CySpc.c **** {
 818              		.loc 1 72 0
 819              		.cfi_startproc
 820              		@ args = 0, pretend = 0, frame = 0
 821              		@ frame_needed = 0, uses_anonymous_args = 0
 822 0000 08B5     		push	{r3, lr}
 823              		.cfi_def_cfa_offset 8
 824              		.cfi_offset 3, -8
 825              		.cfi_offset 14, -4
  73:Generated_Source\PSoC5/CySpc.c ****     /* Save current global interrupt enable and disable it */
  74:Generated_Source\PSoC5/CySpc.c ****     uint8 interruptState = CyEnterCriticalSection();
 826              		.loc 1 74 0
 827 0002 FFF7FEFF 		bl	CyEnterCriticalSection
 828              	.LVL0:
  75:Generated_Source\PSoC5/CySpc.c **** 
  76:Generated_Source\PSoC5/CySpc.c ****     CY_SPC_PM_ACT_REG  |= PM_SPC_PM_EN;
 829              		.loc 1 76 0
 830 0006 064A     		ldr	r2, .L3
 831 0008 1378     		ldrb	r3, [r2]	@ zero_extendqisi2
 832 000a 43F00803 		orr	r3, r3, #8
 833 000e 1370     		strb	r3, [r2]
  77:Generated_Source\PSoC5/CySpc.c ****     CY_SPC_PM_STBY_REG |= PM_SPC_PM_EN;
 834              		.loc 1 77 0
 835 0010 1032     		adds	r2, r2, #16
 836 0012 1378     		ldrb	r3, [r2]	@ zero_extendqisi2
 837 0014 43F00803 		orr	r3, r3, #8
 838 0018 1370     		strb	r3, [r2]
  78:Generated_Source\PSoC5/CySpc.c **** 
  79:Generated_Source\PSoC5/CySpc.c ****     /* Restore global interrupt enable state */
  80:Generated_Source\PSoC5/CySpc.c ****     CyExitCriticalSection(interruptState);
 839              		.loc 1 80 0
 840 001a FFF7FEFF 		bl	CyExitCriticalSection
 841              	.LVL1:
 842 001e 08BD     		pop	{r3, pc}
 843              	.L4:
ARM GAS  C:\Users\Luggi\AppData\Local\Temp\ccujN3Qb.s 			page 66


 844              		.align	2
 845              	.L3:
 846 0020 A0430040 		.word	1073759136
 847              		.cfi_endproc
 848              	.LFE0:
 849              		.size	CySpcStart, .-CySpcStart
 850              		.section	.text.CySpcStop,"ax",%progbits
 851              		.align	2
 852              		.global	CySpcStop
 853              		.thumb
 854              		.thumb_func
 855              		.type	CySpcStop, %function
 856              	CySpcStop:
 857              	.LFB1:
  81:Generated_Source\PSoC5/CySpc.c **** }
  82:Generated_Source\PSoC5/CySpc.c **** 
  83:Generated_Source\PSoC5/CySpc.c **** 
  84:Generated_Source\PSoC5/CySpc.c **** /*******************************************************************************
  85:Generated_Source\PSoC5/CySpc.c **** * Function Name: CySpcStop
  86:Generated_Source\PSoC5/CySpc.c **** ****************************************************************************//**
  87:Generated_Source\PSoC5/CySpc.c **** *  Stops the SPC.
  88:Generated_Source\PSoC5/CySpc.c **** *
  89:Generated_Source\PSoC5/CySpc.c **** *******************************************************************************/
  90:Generated_Source\PSoC5/CySpc.c **** void CySpcStop(void) 
  91:Generated_Source\PSoC5/CySpc.c **** {
 858              		.loc 1 91 0
 859              		.cfi_startproc
 860              		@ args = 0, pretend = 0, frame = 0
 861              		@ frame_needed = 0, uses_anonymous_args = 0
 862 0000 08B5     		push	{r3, lr}
 863              		.cfi_def_cfa_offset 8
 864              		.cfi_offset 3, -8
 865              		.cfi_offset 14, -4
  92:Generated_Source\PSoC5/CySpc.c ****     /* Save current global interrupt enable and disable it */
  93:Generated_Source\PSoC5/CySpc.c ****     uint8 interruptState = CyEnterCriticalSection();
 866              		.loc 1 93 0
 867 0002 FFF7FEFF 		bl	CyEnterCriticalSection
 868              	.LVL2:
  94:Generated_Source\PSoC5/CySpc.c **** 
  95:Generated_Source\PSoC5/CySpc.c ****     CY_SPC_PM_ACT_REG  &= ((uint8)(~PM_SPC_PM_EN));
 869              		.loc 1 95 0
 870 0006 064A     		ldr	r2, .L7
 871 0008 1378     		ldrb	r3, [r2]	@ zero_extendqisi2
 872 000a 03F0F703 		and	r3, r3, #247
 873 000e 1370     		strb	r3, [r2]
  96:Generated_Source\PSoC5/CySpc.c ****     CY_SPC_PM_STBY_REG &= ((uint8)(~PM_SPC_PM_EN));
 874              		.loc 1 96 0
 875 0010 1032     		adds	r2, r2, #16
 876 0012 1378     		ldrb	r3, [r2]	@ zero_extendqisi2
 877 0014 03F0F703 		and	r3, r3, #247
 878 0018 1370     		strb	r3, [r2]
  97:Generated_Source\PSoC5/CySpc.c **** 
  98:Generated_Source\PSoC5/CySpc.c ****     /* Restore global interrupt enable state */
  99:Generated_Source\PSoC5/CySpc.c ****     CyExitCriticalSection(interruptState);
 879              		.loc 1 99 0
 880 001a FFF7FEFF 		bl	CyExitCriticalSection
 881              	.LVL3:
ARM GAS  C:\Users\Luggi\AppData\Local\Temp\ccujN3Qb.s 			page 67


 882 001e 08BD     		pop	{r3, pc}
 883              	.L8:
 884              		.align	2
 885              	.L7:
 886 0020 A0430040 		.word	1073759136
 887              		.cfi_endproc
 888              	.LFE1:
 889              		.size	CySpcStop, .-CySpcStop
 890              		.section	.text.CySpcReadData,"ax",%progbits
 891              		.align	2
 892              		.global	CySpcReadData
 893              		.thumb
 894              		.thumb_func
 895              		.type	CySpcReadData, %function
 896              	CySpcReadData:
 897              	.LFB2:
 100:Generated_Source\PSoC5/CySpc.c **** }
 101:Generated_Source\PSoC5/CySpc.c **** 
 102:Generated_Source\PSoC5/CySpc.c **** 
 103:Generated_Source\PSoC5/CySpc.c **** /*******************************************************************************
 104:Generated_Source\PSoC5/CySpc.c **** * Function Name: CySpcReadData
 105:Generated_Source\PSoC5/CySpc.c **** ****************************************************************************//**
 106:Generated_Source\PSoC5/CySpc.c **** *  Reads data from the SPC.
 107:Generated_Source\PSoC5/CySpc.c **** *
 108:Generated_Source\PSoC5/CySpc.c **** *  \param uint8 buffer:
 109:Generated_Source\PSoC5/CySpc.c **** *   Address to store data read.
 110:Generated_Source\PSoC5/CySpc.c **** *
 111:Generated_Source\PSoC5/CySpc.c **** *  \param uint8 size:
 112:Generated_Source\PSoC5/CySpc.c **** *   Number of bytes to read from the SPC.
 113:Generated_Source\PSoC5/CySpc.c **** *
 114:Generated_Source\PSoC5/CySpc.c **** * \return
 115:Generated_Source\PSoC5/CySpc.c **** *  uint8:
 116:Generated_Source\PSoC5/CySpc.c **** *   The number of bytes read from the SPC.
 117:Generated_Source\PSoC5/CySpc.c **** *
 118:Generated_Source\PSoC5/CySpc.c **** *******************************************************************************/
 119:Generated_Source\PSoC5/CySpc.c **** uint8 CySpcReadData(uint8 buffer[], uint8 size) 
 120:Generated_Source\PSoC5/CySpc.c **** {
 898              		.loc 1 120 0
 899              		.cfi_startproc
 900              		@ args = 0, pretend = 0, frame = 0
 901              		@ frame_needed = 0, uses_anonymous_args = 0
 902              	.LVL4:
 903 0000 70B5     		push	{r4, r5, r6, lr}
 904              		.cfi_def_cfa_offset 16
 905              		.cfi_offset 4, -16
 906              		.cfi_offset 5, -12
 907              		.cfi_offset 6, -8
 908              		.cfi_offset 14, -4
 909 0002 0646     		mov	r6, r0
 910 0004 0D46     		mov	r5, r1
 911              	.LVL5:
 121:Generated_Source\PSoC5/CySpc.c ****     uint8 i;
 122:Generated_Source\PSoC5/CySpc.c **** 
 123:Generated_Source\PSoC5/CySpc.c ****     for(i = 0u; i < size; i++)
 912              		.loc 1 123 0
 913 0006 0024     		movs	r4, #0
 914 0008 0CE0     		b	.L10
ARM GAS  C:\Users\Luggi\AppData\Local\Temp\ccujN3Qb.s 			page 68


 915              	.LVL6:
 916              	.L11:
 124:Generated_Source\PSoC5/CySpc.c ****     {
 125:Generated_Source\PSoC5/CySpc.c ****         while(!CY_SPC_DATA_READY)
 126:Generated_Source\PSoC5/CySpc.c ****         {
 127:Generated_Source\PSoC5/CySpc.c ****             CyDelayUs(1u);
 917              		.loc 1 127 0
 918 000a 0120     		movs	r0, #1
 919 000c FFF7FEFF 		bl	CyDelayUs
 920              	.LVL7:
 921              	.L12:
 125:Generated_Source\PSoC5/CySpc.c ****         {
 922              		.loc 1 125 0
 923 0010 064B     		ldr	r3, .L14
 924 0012 1B78     		ldrb	r3, [r3]	@ zero_extendqisi2
 925 0014 13F0010F 		tst	r3, #1
 926 0018 F7D0     		beq	.L11
 128:Generated_Source\PSoC5/CySpc.c ****         }
 129:Generated_Source\PSoC5/CySpc.c ****         buffer[i] = CY_SPC_CPU_DATA_REG;
 927              		.loc 1 129 0 discriminator 2
 928 001a 054B     		ldr	r3, .L14+4
 929 001c 1B78     		ldrb	r3, [r3]	@ zero_extendqisi2
 930 001e 3355     		strb	r3, [r6, r4]
 123:Generated_Source\PSoC5/CySpc.c ****     {
 931              		.loc 1 123 0 discriminator 2
 932 0020 0134     		adds	r4, r4, #1
 933              	.LVL8:
 934 0022 E4B2     		uxtb	r4, r4
 935              	.LVL9:
 936              	.L10:
 123:Generated_Source\PSoC5/CySpc.c ****     {
 937              		.loc 1 123 0 is_stmt 0 discriminator 1
 938 0024 AC42     		cmp	r4, r5
 939 0026 F3D3     		bcc	.L12
 130:Generated_Source\PSoC5/CySpc.c ****     }
 131:Generated_Source\PSoC5/CySpc.c **** 
 132:Generated_Source\PSoC5/CySpc.c ****     return(i);
 133:Generated_Source\PSoC5/CySpc.c **** }
 940              		.loc 1 133 0 is_stmt 1
 941 0028 2046     		mov	r0, r4
 942 002a 70BD     		pop	{r4, r5, r6, pc}
 943              	.LVL10:
 944              	.L15:
 945              		.align	2
 946              	.L14:
 947 002c 22470040 		.word	1073760034
 948 0030 20470040 		.word	1073760032
 949              		.cfi_endproc
 950              	.LFE2:
 951              		.size	CySpcReadData, .-CySpcReadData
 952              		.section	.text.CySpcLoadMultiByte,"ax",%progbits
 953              		.align	2
 954              		.global	CySpcLoadMultiByte
 955              		.thumb
 956              		.thumb_func
 957              		.type	CySpcLoadMultiByte, %function
 958              	CySpcLoadMultiByte:
ARM GAS  C:\Users\Luggi\AppData\Local\Temp\ccujN3Qb.s 			page 69


 959              	.LFB3:
 134:Generated_Source\PSoC5/CySpc.c **** 
 135:Generated_Source\PSoC5/CySpc.c **** 
 136:Generated_Source\PSoC5/CySpc.c **** /*******************************************************************************
 137:Generated_Source\PSoC5/CySpc.c **** * Function Name: CySpcLoadMultiByte
 138:Generated_Source\PSoC5/CySpc.c **** ****************************************************************************//**
 139:Generated_Source\PSoC5/CySpc.c **** *  Loads 1 to 32 bytes of data into the row latch of a Flash/EEPROM array.
 140:Generated_Source\PSoC5/CySpc.c **** *
 141:Generated_Source\PSoC5/CySpc.c **** *  \param uint8 array:
 142:Generated_Source\PSoC5/CySpc.c **** *   Id of the array.
 143:Generated_Source\PSoC5/CySpc.c **** *
 144:Generated_Source\PSoC5/CySpc.c **** *  \param uint16 address:
 145:Generated_Source\PSoC5/CySpc.c **** *   Flash/eeprom addrress
 146:Generated_Source\PSoC5/CySpc.c **** *
 147:Generated_Source\PSoC5/CySpc.c **** *  \param uint8* buffer:
 148:Generated_Source\PSoC5/CySpc.c **** *   Data to load to the row latch
 149:Generated_Source\PSoC5/CySpc.c **** *
 150:Generated_Source\PSoC5/CySpc.c **** *  \param uint16 number:
 151:Generated_Source\PSoC5/CySpc.c **** *   Number bytes to load.
 152:Generated_Source\PSoC5/CySpc.c **** *
 153:Generated_Source\PSoC5/CySpc.c **** * \return
 154:Generated_Source\PSoC5/CySpc.c **** *  CYRET_STARTED
 155:Generated_Source\PSoC5/CySpc.c **** *  CYRET_CANCELED
 156:Generated_Source\PSoC5/CySpc.c **** *  CYRET_LOCKED
 157:Generated_Source\PSoC5/CySpc.c **** *  CYRET_BAD_PARAM
 158:Generated_Source\PSoC5/CySpc.c **** *
 159:Generated_Source\PSoC5/CySpc.c **** *******************************************************************************/
 160:Generated_Source\PSoC5/CySpc.c **** cystatus CySpcLoadMultiByte(uint8 array, uint16 address, const uint8 buffer[], uint8 size)\
 161:Generated_Source\PSoC5/CySpc.c **** 
 162:Generated_Source\PSoC5/CySpc.c **** {
 960              		.loc 1 162 0
 961              		.cfi_startproc
 962              		@ args = 0, pretend = 0, frame = 0
 963              		@ frame_needed = 0, uses_anonymous_args = 0
 964              		@ link register save eliminated.
 965              	.LVL11:
 966 0000 30B4     		push	{r4, r5}
 967              		.cfi_def_cfa_offset 8
 968              		.cfi_offset 4, -8
 969              		.cfi_offset 5, -4
 970              	.LVL12:
 163:Generated_Source\PSoC5/CySpc.c ****     cystatus status = CYRET_STARTED;
 164:Generated_Source\PSoC5/CySpc.c ****     uint8 i;
 165:Generated_Source\PSoC5/CySpc.c **** 
 166:Generated_Source\PSoC5/CySpc.c ****     /***************************************************************************
 167:Generated_Source\PSoC5/CySpc.c ****     * Check if number is correct for array. Number must be less than
 168:Generated_Source\PSoC5/CySpc.c ****     * 32 for Flash or less than 16 for EEPROM.
 169:Generated_Source\PSoC5/CySpc.c ****     ***************************************************************************/
 170:Generated_Source\PSoC5/CySpc.c ****     if(((array < CY_SPC_LAST_FLASH_ARRAYID) && (size < 32u)) ||
 971              		.loc 1 170 0
 972 0002 3E28     		cmp	r0, #62
 973 0004 01D8     		bhi	.L17
 974              		.loc 1 170 0 is_stmt 0 discriminator 1
 975 0006 1F2B     		cmp	r3, #31
 976 0008 03D9     		bls	.L18
 977              	.L17:
 978              		.loc 1 170 0 discriminator 3
ARM GAS  C:\Users\Luggi\AppData\Local\Temp\ccujN3Qb.s 			page 70


 979 000a 3F28     		cmp	r0, #63
 980 000c 27D9     		bls	.L22
 171:Generated_Source\PSoC5/CySpc.c ****        ((array > CY_SPC_LAST_FLASH_ARRAYID) && (size < 16u)))
 981              		.loc 1 171 0 is_stmt 1
 982 000e 0F2B     		cmp	r3, #15
 983 0010 27D8     		bhi	.L23
 984              	.L18:
 172:Generated_Source\PSoC5/CySpc.c ****     {
 173:Generated_Source\PSoC5/CySpc.c ****         if(CY_SPC_IDLE)
 985              		.loc 1 173 0
 986 0012 174C     		ldr	r4, .L27
 987 0014 2478     		ldrb	r4, [r4]	@ zero_extendqisi2
 988 0016 14F0020F 		tst	r4, #2
 989 001a 24D0     		beq	.L24
 174:Generated_Source\PSoC5/CySpc.c ****         {
 175:Generated_Source\PSoC5/CySpc.c ****             CY_SPC_CPU_DATA_REG = CY_SPC_KEY_ONE;
 990              		.loc 1 175 0
 991 001c 154C     		ldr	r4, .L27+4
 992 001e B625     		movs	r5, #182
 993 0020 2570     		strb	r5, [r4]
 176:Generated_Source\PSoC5/CySpc.c ****             CY_SPC_CPU_DATA_REG = CY_SPC_KEY_TWO(CY_SPC_CMD_LD_MULTI_BYTE);
 994              		.loc 1 176 0
 995 0022 D425     		movs	r5, #212
 996 0024 2570     		strb	r5, [r4]
 177:Generated_Source\PSoC5/CySpc.c ****             CY_SPC_CPU_DATA_REG = CY_SPC_CMD_LD_MULTI_BYTE;
 997              		.loc 1 177 0
 998 0026 0125     		movs	r5, #1
 999 0028 2570     		strb	r5, [r4]
 178:Generated_Source\PSoC5/CySpc.c **** 
 179:Generated_Source\PSoC5/CySpc.c ****             if(CY_SPC_BUSY)
 1000              		.loc 1 179 0
 1001 002a 0234     		adds	r4, r4, #2
 1002 002c 2478     		ldrb	r4, [r4]	@ zero_extendqisi2
 1003 002e 14F0020F 		tst	r4, #2
 1004 0032 1AD1     		bne	.L25
 180:Generated_Source\PSoC5/CySpc.c ****             {
 181:Generated_Source\PSoC5/CySpc.c ****                 CY_SPC_CPU_DATA_REG = array;
 1005              		.loc 1 181 0
 1006 0034 0F4C     		ldr	r4, .L27+4
 1007 0036 2070     		strb	r0, [r4]
 182:Generated_Source\PSoC5/CySpc.c ****                 CY_SPC_CPU_DATA_REG = 1u & HI8(address);
 1008              		.loc 1 182 0
 1009 0038 C1F30020 		ubfx	r0, r1, #8, #1
 1010              	.LVL13:
 1011 003c 2070     		strb	r0, [r4]
 1012              	.LVL14:
 183:Generated_Source\PSoC5/CySpc.c ****                 CY_SPC_CPU_DATA_REG = LO8(address);
 1013              		.loc 1 183 0
 1014 003e C9B2     		uxtb	r1, r1
 1015              	.LVL15:
 1016 0040 2170     		strb	r1, [r4]
 184:Generated_Source\PSoC5/CySpc.c ****                 CY_SPC_CPU_DATA_REG = ((uint8)(size - 1u));
 1017              		.loc 1 184 0
 1018 0042 591E     		subs	r1, r3, #1
 1019 0044 C9B2     		uxtb	r1, r1
 1020 0046 2170     		strb	r1, [r4]
 1021              	.LVL16:
ARM GAS  C:\Users\Luggi\AppData\Local\Temp\ccujN3Qb.s 			page 71


 185:Generated_Source\PSoC5/CySpc.c **** 
 186:Generated_Source\PSoC5/CySpc.c ****                 for(i = 0u; i < size; i++)
 1022              		.loc 1 186 0
 1023 0048 0021     		movs	r1, #0
 1024 004a 04E0     		b	.L20
 1025              	.LVL17:
 1026              	.L21:
 187:Generated_Source\PSoC5/CySpc.c ****                 {
 188:Generated_Source\PSoC5/CySpc.c ****                     CY_SPC_CPU_DATA_REG = buffer[i];
 1027              		.loc 1 188 0 discriminator 3
 1028 004c 545C     		ldrb	r4, [r2, r1]	@ zero_extendqisi2
 1029 004e 0948     		ldr	r0, .L27+4
 1030 0050 0470     		strb	r4, [r0]
 186:Generated_Source\PSoC5/CySpc.c ****                 {
 1031              		.loc 1 186 0 discriminator 3
 1032 0052 0131     		adds	r1, r1, #1
 1033              	.LVL18:
 1034 0054 C9B2     		uxtb	r1, r1
 1035              	.LVL19:
 1036              	.L20:
 186:Generated_Source\PSoC5/CySpc.c ****                 {
 1037              		.loc 1 186 0 is_stmt 0 discriminator 1
 1038 0056 9942     		cmp	r1, r3
 1039 0058 F8D3     		bcc	.L21
 163:Generated_Source\PSoC5/CySpc.c ****     uint8 i;
 1040              		.loc 1 163 0 is_stmt 1
 1041 005a 0720     		movs	r0, #7
 1042 005c 06E0     		b	.L19
 1043              	.LVL20:
 1044              	.L22:
 189:Generated_Source\PSoC5/CySpc.c ****                 }
 190:Generated_Source\PSoC5/CySpc.c ****             }
 191:Generated_Source\PSoC5/CySpc.c ****             else
 192:Generated_Source\PSoC5/CySpc.c ****             {
 193:Generated_Source\PSoC5/CySpc.c ****                 status = CYRET_CANCELED;
 194:Generated_Source\PSoC5/CySpc.c ****             }
 195:Generated_Source\PSoC5/CySpc.c ****         }
 196:Generated_Source\PSoC5/CySpc.c ****         else
 197:Generated_Source\PSoC5/CySpc.c ****         {
 198:Generated_Source\PSoC5/CySpc.c ****             status = CYRET_LOCKED;
 199:Generated_Source\PSoC5/CySpc.c ****         }
 200:Generated_Source\PSoC5/CySpc.c ****     }
 201:Generated_Source\PSoC5/CySpc.c ****     else
 202:Generated_Source\PSoC5/CySpc.c ****     {
 203:Generated_Source\PSoC5/CySpc.c ****         status = CYRET_BAD_PARAM;
 1045              		.loc 1 203 0
 1046 005e 0120     		movs	r0, #1
 1047              	.LVL21:
 1048 0060 04E0     		b	.L19
 1049              	.LVL22:
 1050              	.L23:
 1051 0062 0120     		movs	r0, #1
 1052              	.LVL23:
 1053 0064 02E0     		b	.L19
 1054              	.LVL24:
 1055              	.L24:
 198:Generated_Source\PSoC5/CySpc.c ****         }
ARM GAS  C:\Users\Luggi\AppData\Local\Temp\ccujN3Qb.s 			page 72


 1056              		.loc 1 198 0
 1057 0066 0420     		movs	r0, #4
 1058              	.LVL25:
 1059 0068 00E0     		b	.L19
 1060              	.LVL26:
 1061              	.L25:
 193:Generated_Source\PSoC5/CySpc.c ****             }
 1062              		.loc 1 193 0
 1063 006a 0920     		movs	r0, #9
 1064              	.LVL27:
 1065              	.L19:
 204:Generated_Source\PSoC5/CySpc.c ****     }
 205:Generated_Source\PSoC5/CySpc.c **** 
 206:Generated_Source\PSoC5/CySpc.c ****     return(status);
 207:Generated_Source\PSoC5/CySpc.c **** }
 1066              		.loc 1 207 0
 1067 006c 30BC     		pop	{r4, r5}
 1068              		.cfi_restore 5
 1069              		.cfi_restore 4
 1070              		.cfi_def_cfa_offset 0
 1071 006e 7047     		bx	lr
 1072              	.L28:
 1073              		.align	2
 1074              	.L27:
 1075 0070 22470040 		.word	1073760034
 1076 0074 20470040 		.word	1073760032
 1077              		.cfi_endproc
 1078              	.LFE3:
 1079              		.size	CySpcLoadMultiByte, .-CySpcLoadMultiByte
 1080              		.section	.text.CySpcLoadRow,"ax",%progbits
 1081              		.align	2
 1082              		.global	CySpcLoadRow
 1083              		.thumb
 1084              		.thumb_func
 1085              		.type	CySpcLoadRow, %function
 1086              	CySpcLoadRow:
 1087              	.LFB4:
 208:Generated_Source\PSoC5/CySpc.c **** 
 209:Generated_Source\PSoC5/CySpc.c **** 
 210:Generated_Source\PSoC5/CySpc.c **** /*******************************************************************************
 211:Generated_Source\PSoC5/CySpc.c **** * Function Name: CySpcLoadRow
 212:Generated_Source\PSoC5/CySpc.c **** ****************************************************************************//**
 213:Generated_Source\PSoC5/CySpc.c **** *  Loads a row of data into the row latch of a Flash/EEPROM array.
 214:Generated_Source\PSoC5/CySpc.c **** *
 215:Generated_Source\PSoC5/CySpc.c **** *  The buffer pointer should point to the data that should be written to the
 216:Generated_Source\PSoC5/CySpc.c **** *  flash row directly (no data in ECC/flash will be preserved). It is Flash API
 217:Generated_Source\PSoC5/CySpc.c **** *  responsibility to prepare data: the preserved data are copied from flash into
 218:Generated_Source\PSoC5/CySpc.c **** *  array with the modified data.
 219:Generated_Source\PSoC5/CySpc.c **** *
 220:Generated_Source\PSoC5/CySpc.c **** *  \param uint8 array:
 221:Generated_Source\PSoC5/CySpc.c **** *   Id of the array.
 222:Generated_Source\PSoC5/CySpc.c **** *
 223:Generated_Source\PSoC5/CySpc.c **** *  \param uint8* buffer:
 224:Generated_Source\PSoC5/CySpc.c **** *   Data to be loaded to the row latch
 225:Generated_Source\PSoC5/CySpc.c **** *
 226:Generated_Source\PSoC5/CySpc.c **** *  \param uint8 size:
 227:Generated_Source\PSoC5/CySpc.c **** *   The number of data bytes that the SPC expects to be written. Depends on the
ARM GAS  C:\Users\Luggi\AppData\Local\Temp\ccujN3Qb.s 			page 73


 228:Generated_Source\PSoC5/CySpc.c **** *   type of the array and, if the array is Flash, whether ECC is being enabled
 229:Generated_Source\PSoC5/CySpc.c **** *   or not. There are following values: flash row latch size with ECC enabled,
 230:Generated_Source\PSoC5/CySpc.c **** *   flash row latch size with ECC disabled and EEPROM row latch size.
 231:Generated_Source\PSoC5/CySpc.c **** *
 232:Generated_Source\PSoC5/CySpc.c **** * \return
 233:Generated_Source\PSoC5/CySpc.c **** *  CYRET_STARTED
 234:Generated_Source\PSoC5/CySpc.c **** *  CYRET_CANCELED
 235:Generated_Source\PSoC5/CySpc.c **** *  CYRET_LOCKED
 236:Generated_Source\PSoC5/CySpc.c **** *
 237:Generated_Source\PSoC5/CySpc.c **** *******************************************************************************/
 238:Generated_Source\PSoC5/CySpc.c **** cystatus CySpcLoadRow(uint8 array, const uint8 buffer[], uint16 size)
 239:Generated_Source\PSoC5/CySpc.c **** {
 1088              		.loc 1 239 0
 1089              		.cfi_startproc
 1090              		@ args = 0, pretend = 0, frame = 0
 1091              		@ frame_needed = 0, uses_anonymous_args = 0
 1092              		@ link register save eliminated.
 1093              	.LVL28:
 240:Generated_Source\PSoC5/CySpc.c ****     cystatus status = CYRET_STARTED;
 241:Generated_Source\PSoC5/CySpc.c ****     uint16 i;
 242:Generated_Source\PSoC5/CySpc.c **** 
 243:Generated_Source\PSoC5/CySpc.c ****     /* Make sure the SPC is ready to accept command */
 244:Generated_Source\PSoC5/CySpc.c ****     if(CY_SPC_IDLE)
 1094              		.loc 1 244 0
 1095 0000 124B     		ldr	r3, .L36
 1096 0002 1B78     		ldrb	r3, [r3]	@ zero_extendqisi2
 1097 0004 13F0020F 		tst	r3, #2
 1098 0008 19D0     		beq	.L33
 239:Generated_Source\PSoC5/CySpc.c ****     cystatus status = CYRET_STARTED;
 1099              		.loc 1 239 0
 1100 000a 10B4     		push	{r4}
 1101              		.cfi_def_cfa_offset 4
 1102              		.cfi_offset 4, -4
 245:Generated_Source\PSoC5/CySpc.c ****     {
 246:Generated_Source\PSoC5/CySpc.c ****         CY_SPC_CPU_DATA_REG = CY_SPC_KEY_ONE;
 1103              		.loc 1 246 0
 1104 000c 104B     		ldr	r3, .L36+4
 1105 000e B624     		movs	r4, #182
 1106 0010 1C70     		strb	r4, [r3]
 247:Generated_Source\PSoC5/CySpc.c ****         CY_SPC_CPU_DATA_REG = CY_SPC_KEY_TWO(CY_SPC_CMD_LD_ROW);
 1107              		.loc 1 247 0
 1108 0012 D524     		movs	r4, #213
 1109 0014 1C70     		strb	r4, [r3]
 248:Generated_Source\PSoC5/CySpc.c ****         CY_SPC_CPU_DATA_REG = CY_SPC_CMD_LD_ROW;
 1110              		.loc 1 248 0
 1111 0016 0224     		movs	r4, #2
 1112 0018 1C70     		strb	r4, [r3]
 249:Generated_Source\PSoC5/CySpc.c **** 
 250:Generated_Source\PSoC5/CySpc.c ****         /* Make sure the command was accepted */
 251:Generated_Source\PSoC5/CySpc.c ****         if(CY_SPC_BUSY)
 1113              		.loc 1 251 0
 1114 001a 0233     		adds	r3, r3, #2
 1115 001c 1B78     		ldrb	r3, [r3]	@ zero_extendqisi2
 1116 001e 13F0020F 		tst	r3, #2
 1117 0022 0ED1     		bne	.L34
 252:Generated_Source\PSoC5/CySpc.c ****         {
 253:Generated_Source\PSoC5/CySpc.c ****             CY_SPC_CPU_DATA_REG = array;
ARM GAS  C:\Users\Luggi\AppData\Local\Temp\ccujN3Qb.s 			page 74


 1118              		.loc 1 253 0
 1119 0024 0A4B     		ldr	r3, .L36+4
 1120 0026 1870     		strb	r0, [r3]
 1121              	.LVL29:
 254:Generated_Source\PSoC5/CySpc.c **** 
 255:Generated_Source\PSoC5/CySpc.c ****             for(i = 0u; i < size; i++)
 1122              		.loc 1 255 0
 1123 0028 0023     		movs	r3, #0
 1124 002a 04E0     		b	.L31
 1125              	.LVL30:
 1126              	.L32:
 256:Generated_Source\PSoC5/CySpc.c ****             {
 257:Generated_Source\PSoC5/CySpc.c ****                 CY_SPC_CPU_DATA_REG = buffer[i];
 1127              		.loc 1 257 0 discriminator 3
 1128 002c CC5C     		ldrb	r4, [r1, r3]	@ zero_extendqisi2
 1129 002e 0848     		ldr	r0, .L36+4
 1130 0030 0470     		strb	r4, [r0]
 255:Generated_Source\PSoC5/CySpc.c ****             {
 1131              		.loc 1 255 0 discriminator 3
 1132 0032 0133     		adds	r3, r3, #1
 1133              	.LVL31:
 1134 0034 9BB2     		uxth	r3, r3
 1135              	.LVL32:
 1136              	.L31:
 255:Generated_Source\PSoC5/CySpc.c ****             {
 1137              		.loc 1 255 0 is_stmt 0 discriminator 1
 1138 0036 9342     		cmp	r3, r2
 1139 0038 F8D3     		bcc	.L32
 240:Generated_Source\PSoC5/CySpc.c ****     uint16 i;
 1140              		.loc 1 240 0 is_stmt 1
 1141 003a 0720     		movs	r0, #7
 1142 003c 02E0     		b	.L30
 1143              	.LVL33:
 1144              	.L33:
 1145              		.cfi_def_cfa_offset 0
 1146              		.cfi_restore 4
 258:Generated_Source\PSoC5/CySpc.c ****             }
 259:Generated_Source\PSoC5/CySpc.c ****         }
 260:Generated_Source\PSoC5/CySpc.c ****         else
 261:Generated_Source\PSoC5/CySpc.c ****         {
 262:Generated_Source\PSoC5/CySpc.c ****             status = CYRET_CANCELED;
 263:Generated_Source\PSoC5/CySpc.c ****         }
 264:Generated_Source\PSoC5/CySpc.c ****     }
 265:Generated_Source\PSoC5/CySpc.c ****     else
 266:Generated_Source\PSoC5/CySpc.c ****     {
 267:Generated_Source\PSoC5/CySpc.c ****         status = CYRET_LOCKED;
 1147              		.loc 1 267 0
 1148 003e 0420     		movs	r0, #4
 1149              	.LVL34:
 268:Generated_Source\PSoC5/CySpc.c ****     }
 269:Generated_Source\PSoC5/CySpc.c **** 
 270:Generated_Source\PSoC5/CySpc.c ****     return(status);
 271:Generated_Source\PSoC5/CySpc.c **** }
 1150              		.loc 1 271 0
 1151 0040 7047     		bx	lr
 1152              	.LVL35:
 1153              	.L34:
ARM GAS  C:\Users\Luggi\AppData\Local\Temp\ccujN3Qb.s 			page 75


 1154              		.cfi_def_cfa_offset 4
 1155              		.cfi_offset 4, -4
 262:Generated_Source\PSoC5/CySpc.c ****         }
 1156              		.loc 1 262 0
 1157 0042 0920     		movs	r0, #9
 1158              	.LVL36:
 1159              	.L30:
 1160              		.loc 1 271 0
 1161 0044 5DF8044B 		ldr	r4, [sp], #4
 1162              		.cfi_restore 4
 1163              		.cfi_def_cfa_offset 0
 1164 0048 7047     		bx	lr
 1165              	.L37:
 1166 004a 00BF     		.align	2
 1167              	.L36:
 1168 004c 22470040 		.word	1073760034
 1169 0050 20470040 		.word	1073760032
 1170              		.cfi_endproc
 1171              	.LFE4:
 1172              		.size	CySpcLoadRow, .-CySpcLoadRow
 1173              		.section	.text.CySpcLoadRowFull,"ax",%progbits
 1174              		.align	2
 1175              		.global	CySpcLoadRowFull
 1176              		.thumb
 1177              		.thumb_func
 1178              		.type	CySpcLoadRowFull, %function
 1179              	CySpcLoadRowFull:
 1180              	.LFB5:
 272:Generated_Source\PSoC5/CySpc.c **** 
 273:Generated_Source\PSoC5/CySpc.c **** 
 274:Generated_Source\PSoC5/CySpc.c **** /*******************************************************************************
 275:Generated_Source\PSoC5/CySpc.c **** * Function Name: CySpcLoadRowFull
 276:Generated_Source\PSoC5/CySpc.c **** ****************************************************************************//**
 277:Generated_Source\PSoC5/CySpc.c **** *  Loads a row of data into the row latch of a Flash/EEPROM array.
 278:Generated_Source\PSoC5/CySpc.c **** *
 279:Generated_Source\PSoC5/CySpc.c **** *  The only data that are going to be changed should be passed. The function
 280:Generated_Source\PSoC5/CySpc.c **** *  will handle unmodified data preservation based on DWR settings and input
 281:Generated_Source\PSoC5/CySpc.c **** *  parameters.
 282:Generated_Source\PSoC5/CySpc.c **** *
 283:Generated_Source\PSoC5/CySpc.c **** *  \param uint8 array:
 284:Generated_Source\PSoC5/CySpc.c **** *   Id of the array.
 285:Generated_Source\PSoC5/CySpc.c **** *
 286:Generated_Source\PSoC5/CySpc.c **** *  \param uint16 row:
 287:Generated_Source\PSoC5/CySpc.c **** *   Flash row number to be loaded.
 288:Generated_Source\PSoC5/CySpc.c **** *
 289:Generated_Source\PSoC5/CySpc.c **** *  \param uint8* buffer:
 290:Generated_Source\PSoC5/CySpc.c **** *   Data to be loaded to the row latch
 291:Generated_Source\PSoC5/CySpc.c **** *
 292:Generated_Source\PSoC5/CySpc.c **** *  \param uint8 size:
 293:Generated_Source\PSoC5/CySpc.c **** *   The number of data bytes that the SPC expects to be written. Depends on the
 294:Generated_Source\PSoC5/CySpc.c **** *   type of the array and, if the array is Flash, whether ECC is being enabled
 295:Generated_Source\PSoC5/CySpc.c **** *   or not. There are following values: flash row latch size with ECC enabled,
 296:Generated_Source\PSoC5/CySpc.c **** *   flash row latch size with ECC disabled and EEPROM row latch size.
 297:Generated_Source\PSoC5/CySpc.c **** *
 298:Generated_Source\PSoC5/CySpc.c **** * \return
 299:Generated_Source\PSoC5/CySpc.c **** *  CYRET_STARTED
 300:Generated_Source\PSoC5/CySpc.c **** *  CYRET_CANCELED
ARM GAS  C:\Users\Luggi\AppData\Local\Temp\ccujN3Qb.s 			page 76


 301:Generated_Source\PSoC5/CySpc.c **** *  CYRET_LOCKED
 302:Generated_Source\PSoC5/CySpc.c **** *
 303:Generated_Source\PSoC5/CySpc.c **** *******************************************************************************/
 304:Generated_Source\PSoC5/CySpc.c **** cystatus CySpcLoadRowFull(uint8 array, uint16 row, const uint8 buffer[], uint16 size)\
 305:Generated_Source\PSoC5/CySpc.c **** 
 306:Generated_Source\PSoC5/CySpc.c **** {
 1181              		.loc 1 306 0
 1182              		.cfi_startproc
 1183              		@ args = 0, pretend = 0, frame = 0
 1184              		@ frame_needed = 0, uses_anonymous_args = 0
 1185              		@ link register save eliminated.
 1186              	.LVL37:
 1187 0000 70B4     		push	{r4, r5, r6}
 1188              		.cfi_def_cfa_offset 12
 1189              		.cfi_offset 4, -12
 1190              		.cfi_offset 5, -8
 1191              		.cfi_offset 6, -4
 1192              	.LVL38:
 307:Generated_Source\PSoC5/CySpc.c ****     cystatus status = CYRET_STARTED;
 308:Generated_Source\PSoC5/CySpc.c ****     uint16 i;
 309:Generated_Source\PSoC5/CySpc.c **** 
 310:Generated_Source\PSoC5/CySpc.c ****     #if (CYDEV_ECC_ENABLE == 0)
 311:Generated_Source\PSoC5/CySpc.c ****         uint32 offset;
 312:Generated_Source\PSoC5/CySpc.c ****     #endif /* (CYDEV_ECC_ENABLE == 0) */
 313:Generated_Source\PSoC5/CySpc.c **** 
 314:Generated_Source\PSoC5/CySpc.c ****     /* Make sure the SPC is ready to accept command */
 315:Generated_Source\PSoC5/CySpc.c ****     if(CY_SPC_IDLE)
 1193              		.loc 1 315 0
 1194 0002 1D4C     		ldr	r4, .L49
 1195 0004 2478     		ldrb	r4, [r4]	@ zero_extendqisi2
 1196 0006 14F0020F 		tst	r4, #2
 1197 000a 2CD0     		beq	.L44
 316:Generated_Source\PSoC5/CySpc.c ****     {
 317:Generated_Source\PSoC5/CySpc.c ****         CY_SPC_CPU_DATA_REG = CY_SPC_KEY_ONE;
 1198              		.loc 1 317 0
 1199 000c 1B4C     		ldr	r4, .L49+4
 1200 000e B625     		movs	r5, #182
 1201 0010 2570     		strb	r5, [r4]
 318:Generated_Source\PSoC5/CySpc.c ****         CY_SPC_CPU_DATA_REG = CY_SPC_KEY_TWO(CY_SPC_CMD_LD_ROW);
 1202              		.loc 1 318 0
 1203 0012 D525     		movs	r5, #213
 1204 0014 2570     		strb	r5, [r4]
 319:Generated_Source\PSoC5/CySpc.c ****         CY_SPC_CPU_DATA_REG = CY_SPC_CMD_LD_ROW;
 1205              		.loc 1 319 0
 1206 0016 0225     		movs	r5, #2
 1207 0018 2570     		strb	r5, [r4]
 320:Generated_Source\PSoC5/CySpc.c **** 
 321:Generated_Source\PSoC5/CySpc.c ****         /* Make sure the command was accepted */
 322:Generated_Source\PSoC5/CySpc.c ****         if(CY_SPC_BUSY)
 1208              		.loc 1 322 0
 1209 001a 0234     		adds	r4, r4, #2
 1210 001c 2478     		ldrb	r4, [r4]	@ zero_extendqisi2
 1211 001e 14F0020F 		tst	r4, #2
 1212 0022 22D1     		bne	.L45
 323:Generated_Source\PSoC5/CySpc.c ****         {
 324:Generated_Source\PSoC5/CySpc.c ****             CY_SPC_CPU_DATA_REG = array;
 1213              		.loc 1 324 0
ARM GAS  C:\Users\Luggi\AppData\Local\Temp\ccujN3Qb.s 			page 77


 1214 0024 154C     		ldr	r4, .L49+4
 1215 0026 2070     		strb	r0, [r4]
 1216              	.LVL39:
 325:Generated_Source\PSoC5/CySpc.c **** 
 326:Generated_Source\PSoC5/CySpc.c ****             /*******************************************************************
 327:Generated_Source\PSoC5/CySpc.c ****             * If "Enable Error Correcting Code (ECC)" and "Store Configuration
 328:Generated_Source\PSoC5/CySpc.c ****             * Data in ECC" DWR options are disabled, ECC section is available
 329:Generated_Source\PSoC5/CySpc.c ****             * for user data.
 330:Generated_Source\PSoC5/CySpc.c ****             *******************************************************************/
 331:Generated_Source\PSoC5/CySpc.c ****             #if ((CYDEV_ECC_ENABLE == 0u) && (CYDEV_CONFIGURATION_ECC == 0u))
 332:Generated_Source\PSoC5/CySpc.c **** 
 333:Generated_Source\PSoC5/CySpc.c ****                 /*******************************************************************
 334:Generated_Source\PSoC5/CySpc.c ****                 * If size parameter equals size of the ECC row and selected array
 335:Generated_Source\PSoC5/CySpc.c ****                 * identification corresponds to the flash array (but not to EEPROM
 336:Generated_Source\PSoC5/CySpc.c ****                 * array) then data are going to be written to the ECC section.
 337:Generated_Source\PSoC5/CySpc.c ****                 * In this case flash data must be preserved. The flash data copied
 338:Generated_Source\PSoC5/CySpc.c ****                 * from flash data section to the SPC data register.
 339:Generated_Source\PSoC5/CySpc.c ****                 *******************************************************************/
 340:Generated_Source\PSoC5/CySpc.c ****                 if ((size == CYDEV_ECC_ROW_SIZE) && (array <= CY_SPC_LAST_FLASH_ARRAYID))
 341:Generated_Source\PSoC5/CySpc.c ****                 {
 342:Generated_Source\PSoC5/CySpc.c ****                     offset = CYDEV_FLS_BASE +
 343:Generated_Source\PSoC5/CySpc.c ****                              ((uint32) array * CYDEV_FLS_SECTOR_SIZE) +
 344:Generated_Source\PSoC5/CySpc.c ****                              ((uint32)   row * CYDEV_FLS_ROW_SIZE   );
 345:Generated_Source\PSoC5/CySpc.c **** 
 346:Generated_Source\PSoC5/CySpc.c ****                     for (i = 0u; i < CYDEV_FLS_ROW_SIZE; i++)
 347:Generated_Source\PSoC5/CySpc.c ****                     {
 348:Generated_Source\PSoC5/CySpc.c ****                         CY_SPC_CPU_DATA_REG = CY_GET_XTND_REG8((void CYFAR *)(offset + i));
 349:Generated_Source\PSoC5/CySpc.c ****                     }
 350:Generated_Source\PSoC5/CySpc.c ****                 }
 351:Generated_Source\PSoC5/CySpc.c **** 
 352:Generated_Source\PSoC5/CySpc.c ****             #endif /* ((CYDEV_ECC_ENABLE == 0u) && (CYDEV_CONFIGURATION_ECC == 0u)) */
 353:Generated_Source\PSoC5/CySpc.c **** 
 354:Generated_Source\PSoC5/CySpc.c **** 
 355:Generated_Source\PSoC5/CySpc.c ****             for(i = 0u; i < size; i++)
 1217              		.loc 1 355 0
 1218 0028 0024     		movs	r4, #0
 1219 002a 04E0     		b	.L40
 1220              	.LVL40:
 1221              	.L41:
 356:Generated_Source\PSoC5/CySpc.c ****             {
 357:Generated_Source\PSoC5/CySpc.c ****                 CY_SPC_CPU_DATA_REG = buffer[i];
 1222              		.loc 1 357 0 discriminator 3
 1223 002c 165D     		ldrb	r6, [r2, r4]	@ zero_extendqisi2
 1224 002e 134D     		ldr	r5, .L49+4
 1225 0030 2E70     		strb	r6, [r5]
 355:Generated_Source\PSoC5/CySpc.c ****             {
 1226              		.loc 1 355 0 discriminator 3
 1227 0032 0134     		adds	r4, r4, #1
 1228              	.LVL41:
 1229 0034 A4B2     		uxth	r4, r4
 1230              	.LVL42:
 1231              	.L40:
 355:Generated_Source\PSoC5/CySpc.c ****             {
 1232              		.loc 1 355 0 is_stmt 0 discriminator 1
 1233 0036 9C42     		cmp	r4, r3
 1234 0038 F8D3     		bcc	.L41
 358:Generated_Source\PSoC5/CySpc.c ****             }
ARM GAS  C:\Users\Luggi\AppData\Local\Temp\ccujN3Qb.s 			page 78


 359:Generated_Source\PSoC5/CySpc.c **** 
 360:Generated_Source\PSoC5/CySpc.c **** 
 361:Generated_Source\PSoC5/CySpc.c ****             /*******************************************************************
 362:Generated_Source\PSoC5/CySpc.c ****             * If "Enable Error Correcting Code (ECC)" DWR option is disabled,
 363:Generated_Source\PSoC5/CySpc.c ****             * ECC section can be used for storing device configuration data
 364:Generated_Source\PSoC5/CySpc.c ****             * ("Store Configuration Data in ECC" DWR option is enabled) or for
 365:Generated_Source\PSoC5/CySpc.c ****             * storing user data in the ECC section ("Store Configuration Data in
 366:Generated_Source\PSoC5/CySpc.c ****             * ECC" DWR option is enabled). In both cases, the data in the ECC
 367:Generated_Source\PSoC5/CySpc.c ****             * section must be preserved if flash data is written.
 368:Generated_Source\PSoC5/CySpc.c ****             *******************************************************************/
 369:Generated_Source\PSoC5/CySpc.c ****             #if (CYDEV_ECC_ENABLE == 0)
 370:Generated_Source\PSoC5/CySpc.c **** 
 371:Generated_Source\PSoC5/CySpc.c **** 
 372:Generated_Source\PSoC5/CySpc.c ****                 /*******************************************************************
 373:Generated_Source\PSoC5/CySpc.c ****                 * If size parameter equals size of the flash row and selected array
 374:Generated_Source\PSoC5/CySpc.c ****                 * identification corresponds to the flash array (but not to EEPROM
 375:Generated_Source\PSoC5/CySpc.c ****                 * array) then data are going to be written to the flash data
 376:Generated_Source\PSoC5/CySpc.c ****                 * section. In this case, ECC section data must be preserved.
 377:Generated_Source\PSoC5/CySpc.c ****                 * The ECC section data copied from ECC section to the SPC data
 378:Generated_Source\PSoC5/CySpc.c ****                 * register.
 379:Generated_Source\PSoC5/CySpc.c ****                 *******************************************************************/
 380:Generated_Source\PSoC5/CySpc.c ****                 if ((size == CYDEV_FLS_ROW_SIZE) && (array <= CY_SPC_LAST_FLASH_ARRAYID))
 1235              		.loc 1 380 0 is_stmt 1
 1236 003a B3F5807F 		cmp	r3, #256
 1237 003e 16D1     		bne	.L46
 1238              		.loc 1 380 0 is_stmt 0 discriminator 1
 1239 0040 3F28     		cmp	r0, #63
 1240 0042 16D8     		bhi	.L47
 381:Generated_Source\PSoC5/CySpc.c ****                 {
 382:Generated_Source\PSoC5/CySpc.c ****                     offset = CYDEV_ECC_BASE +
 383:Generated_Source\PSoC5/CySpc.c ****                             ((uint32) array * CYDEV_ECC_SECTOR_SIZE) +
 1241              		.loc 1 383 0 is_stmt 1
 1242 0044 00F51030 		add	r0, r0, #147456
 1243              	.LVL43:
 1244 0048 01EB0021 		add	r1, r1, r0, lsl #8
 1245              	.LVL44:
 382:Generated_Source\PSoC5/CySpc.c ****                             ((uint32) array * CYDEV_ECC_SECTOR_SIZE) +
 1246              		.loc 1 382 0
 1247 004c 4801     		lsls	r0, r1, #5
 1248              	.LVL45:
 384:Generated_Source\PSoC5/CySpc.c ****                             ((uint32) row   * CYDEV_ECC_ROW_SIZE   );
 385:Generated_Source\PSoC5/CySpc.c **** 
 386:Generated_Source\PSoC5/CySpc.c ****                     for (i = 0u; i < CYDEV_ECC_ROW_SIZE; i++)
 1249              		.loc 1 386 0
 1250 004e 0023     		movs	r3, #0
 1251              	.LVL46:
 1252 0050 05E0     		b	.L42
 1253              	.LVL47:
 1254              	.L43:
 387:Generated_Source\PSoC5/CySpc.c ****                     {
 388:Generated_Source\PSoC5/CySpc.c ****                         CY_SPC_CPU_DATA_REG = CY_GET_XTND_REG8((void CYFAR *)(offset + i));
 1255              		.loc 1 388 0 discriminator 3
 1256 0052 1A5C     		ldrb	r2, [r3, r0]	@ zero_extendqisi2
 1257 0054 D2B2     		uxtb	r2, r2
 1258 0056 0949     		ldr	r1, .L49+4
 1259 0058 0A70     		strb	r2, [r1]
 386:Generated_Source\PSoC5/CySpc.c ****                     {
ARM GAS  C:\Users\Luggi\AppData\Local\Temp\ccujN3Qb.s 			page 79


 1260              		.loc 1 386 0 discriminator 3
 1261 005a 0133     		adds	r3, r3, #1
 1262              	.LVL48:
 1263 005c 9BB2     		uxth	r3, r3
 1264              	.LVL49:
 1265              	.L42:
 386:Generated_Source\PSoC5/CySpc.c ****                     {
 1266              		.loc 1 386 0 is_stmt 0 discriminator 1
 1267 005e 1F2B     		cmp	r3, #31
 1268 0060 F7D9     		bls	.L43
 307:Generated_Source\PSoC5/CySpc.c ****     uint16 i;
 1269              		.loc 1 307 0 is_stmt 1
 1270 0062 0720     		movs	r0, #7
 1271              	.LVL50:
 1272 0064 06E0     		b	.L39
 1273              	.LVL51:
 1274              	.L44:
 389:Generated_Source\PSoC5/CySpc.c ****                     }
 390:Generated_Source\PSoC5/CySpc.c ****                 }
 391:Generated_Source\PSoC5/CySpc.c **** 
 392:Generated_Source\PSoC5/CySpc.c ****             #else
 393:Generated_Source\PSoC5/CySpc.c **** 
 394:Generated_Source\PSoC5/CySpc.c ****                 if(0u != row)
 395:Generated_Source\PSoC5/CySpc.c ****                 {
 396:Generated_Source\PSoC5/CySpc.c ****                     /* To remove unreferenced local variable warning */
 397:Generated_Source\PSoC5/CySpc.c ****                 }
 398:Generated_Source\PSoC5/CySpc.c **** 
 399:Generated_Source\PSoC5/CySpc.c ****             #endif /* (CYDEV_ECC_ENABLE == 0) */
 400:Generated_Source\PSoC5/CySpc.c ****         }
 401:Generated_Source\PSoC5/CySpc.c ****         else
 402:Generated_Source\PSoC5/CySpc.c ****         {
 403:Generated_Source\PSoC5/CySpc.c ****             status = CYRET_CANCELED;
 404:Generated_Source\PSoC5/CySpc.c ****         }
 405:Generated_Source\PSoC5/CySpc.c ****     }
 406:Generated_Source\PSoC5/CySpc.c ****     else
 407:Generated_Source\PSoC5/CySpc.c ****     {
 408:Generated_Source\PSoC5/CySpc.c ****         status = CYRET_LOCKED;
 1275              		.loc 1 408 0
 1276 0066 0420     		movs	r0, #4
 1277              	.LVL52:
 1278 0068 04E0     		b	.L39
 1279              	.LVL53:
 1280              	.L45:
 403:Generated_Source\PSoC5/CySpc.c ****         }
 1281              		.loc 1 403 0
 1282 006a 0920     		movs	r0, #9
 1283              	.LVL54:
 1284 006c 02E0     		b	.L39
 1285              	.LVL55:
 1286              	.L46:
 307:Generated_Source\PSoC5/CySpc.c ****     uint16 i;
 1287              		.loc 1 307 0
 1288 006e 0720     		movs	r0, #7
 1289              	.LVL56:
 1290 0070 00E0     		b	.L39
 1291              	.LVL57:
 1292              	.L47:
ARM GAS  C:\Users\Luggi\AppData\Local\Temp\ccujN3Qb.s 			page 80


 1293 0072 0720     		movs	r0, #7
 1294              	.LVL58:
 1295              	.L39:
 409:Generated_Source\PSoC5/CySpc.c ****     }
 410:Generated_Source\PSoC5/CySpc.c **** 
 411:Generated_Source\PSoC5/CySpc.c ****     return(status);
 412:Generated_Source\PSoC5/CySpc.c **** }
 1296              		.loc 1 412 0
 1297 0074 70BC     		pop	{r4, r5, r6}
 1298              		.cfi_restore 6
 1299              		.cfi_restore 5
 1300              		.cfi_restore 4
 1301              		.cfi_def_cfa_offset 0
 1302 0076 7047     		bx	lr
 1303              	.L50:
 1304              		.align	2
 1305              	.L49:
 1306 0078 22470040 		.word	1073760034
 1307 007c 20470040 		.word	1073760032
 1308              		.cfi_endproc
 1309              	.LFE5:
 1310              		.size	CySpcLoadRowFull, .-CySpcLoadRowFull
 1311              		.section	.text.CySpcWriteRow,"ax",%progbits
 1312              		.align	2
 1313              		.global	CySpcWriteRow
 1314              		.thumb
 1315              		.thumb_func
 1316              		.type	CySpcWriteRow, %function
 1317              	CySpcWriteRow:
 1318              	.LFB6:
 413:Generated_Source\PSoC5/CySpc.c **** 
 414:Generated_Source\PSoC5/CySpc.c **** 
 415:Generated_Source\PSoC5/CySpc.c **** /*******************************************************************************
 416:Generated_Source\PSoC5/CySpc.c **** * Function Name: CySpcWriteRow
 417:Generated_Source\PSoC5/CySpc.c **** ****************************************************************************//**
 418:Generated_Source\PSoC5/CySpc.c **** *  Erases then programs a row in Flash/EEPROM with data in row latch.
 419:Generated_Source\PSoC5/CySpc.c **** *
 420:Generated_Source\PSoC5/CySpc.c **** *  \param uint8 array:
 421:Generated_Source\PSoC5/CySpc.c **** *   Id of the array.
 422:Generated_Source\PSoC5/CySpc.c **** *
 423:Generated_Source\PSoC5/CySpc.c **** *  \param uint16 address:
 424:Generated_Source\PSoC5/CySpc.c **** *   flash/eeprom addrress
 425:Generated_Source\PSoC5/CySpc.c **** *
 426:Generated_Source\PSoC5/CySpc.c **** *  \param uint8 tempPolarity:
 427:Generated_Source\PSoC5/CySpc.c **** *   temperature polarity.
 428:Generated_Source\PSoC5/CySpc.c **** *   \param 1: the Temp Magnitude is interpreted as a positive value
 429:Generated_Source\PSoC5/CySpc.c **** *   \param 0: the Temp Magnitude is interpreted as a negative value
 430:Generated_Source\PSoC5/CySpc.c **** *
 431:Generated_Source\PSoC5/CySpc.c **** *  \param uint8 tempMagnitude:
 432:Generated_Source\PSoC5/CySpc.c **** *   temperature magnitude.
 433:Generated_Source\PSoC5/CySpc.c **** *
 434:Generated_Source\PSoC5/CySpc.c **** * \return
 435:Generated_Source\PSoC5/CySpc.c **** *  CYRET_STARTED
 436:Generated_Source\PSoC5/CySpc.c **** *  CYRET_CANCELED
 437:Generated_Source\PSoC5/CySpc.c **** *  CYRET_LOCKED
 438:Generated_Source\PSoC5/CySpc.c **** *
 439:Generated_Source\PSoC5/CySpc.c **** *******************************************************************************/
ARM GAS  C:\Users\Luggi\AppData\Local\Temp\ccujN3Qb.s 			page 81


 440:Generated_Source\PSoC5/CySpc.c **** cystatus CySpcWriteRow(uint8 array, uint16 address, uint8 tempPolarity, uint8 tempMagnitude)\
 441:Generated_Source\PSoC5/CySpc.c **** 
 442:Generated_Source\PSoC5/CySpc.c **** {
 1319              		.loc 1 442 0
 1320              		.cfi_startproc
 1321              		@ args = 0, pretend = 0, frame = 0
 1322              		@ frame_needed = 0, uses_anonymous_args = 0
 1323              		@ link register save eliminated.
 1324              	.LVL59:
 1325 0000 30B4     		push	{r4, r5}
 1326              		.cfi_def_cfa_offset 8
 1327              		.cfi_offset 4, -8
 1328              		.cfi_offset 5, -4
 1329              	.LVL60:
 443:Generated_Source\PSoC5/CySpc.c ****     cystatus status = CYRET_STARTED;
 444:Generated_Source\PSoC5/CySpc.c **** 
 445:Generated_Source\PSoC5/CySpc.c ****     /* Make sure the SPC is ready to accept command */
 446:Generated_Source\PSoC5/CySpc.c ****     if(CY_SPC_IDLE)
 1330              		.loc 1 446 0
 1331 0002 104C     		ldr	r4, .L56
 1332 0004 2478     		ldrb	r4, [r4]	@ zero_extendqisi2
 1333 0006 14F0020F 		tst	r4, #2
 1334 000a 15D0     		beq	.L53
 447:Generated_Source\PSoC5/CySpc.c ****     {
 448:Generated_Source\PSoC5/CySpc.c ****         CY_SPC_CPU_DATA_REG = CY_SPC_KEY_ONE;
 1335              		.loc 1 448 0
 1336 000c 0E4C     		ldr	r4, .L56+4
 1337 000e B625     		movs	r5, #182
 1338 0010 2570     		strb	r5, [r4]
 449:Generated_Source\PSoC5/CySpc.c ****         CY_SPC_CPU_DATA_REG = CY_SPC_KEY_TWO(CY_SPC_CMD_WR_ROW);
 1339              		.loc 1 449 0
 1340 0012 D825     		movs	r5, #216
 1341 0014 2570     		strb	r5, [r4]
 450:Generated_Source\PSoC5/CySpc.c ****         CY_SPC_CPU_DATA_REG = CY_SPC_CMD_WR_ROW;
 1342              		.loc 1 450 0
 1343 0016 0525     		movs	r5, #5
 1344 0018 2570     		strb	r5, [r4]
 451:Generated_Source\PSoC5/CySpc.c **** 
 452:Generated_Source\PSoC5/CySpc.c ****         /* Make sure the command was accepted */
 453:Generated_Source\PSoC5/CySpc.c ****         if(CY_SPC_BUSY)
 1345              		.loc 1 453 0
 1346 001a 0234     		adds	r4, r4, #2
 1347 001c 2478     		ldrb	r4, [r4]	@ zero_extendqisi2
 1348 001e 14F0020F 		tst	r4, #2
 1349 0022 0BD1     		bne	.L54
 454:Generated_Source\PSoC5/CySpc.c ****         {
 455:Generated_Source\PSoC5/CySpc.c ****             CY_SPC_CPU_DATA_REG = array;
 1350              		.loc 1 455 0
 1351 0024 084C     		ldr	r4, .L56+4
 1352 0026 2070     		strb	r0, [r4]
 456:Generated_Source\PSoC5/CySpc.c ****             CY_SPC_CPU_DATA_REG = HI8(address);
 1353              		.loc 1 456 0
 1354 0028 080A     		lsrs	r0, r1, #8
 1355              	.LVL61:
 1356 002a 2070     		strb	r0, [r4]
 1357              	.LVL62:
 457:Generated_Source\PSoC5/CySpc.c ****             CY_SPC_CPU_DATA_REG = LO8(address);
ARM GAS  C:\Users\Luggi\AppData\Local\Temp\ccujN3Qb.s 			page 82


 1358              		.loc 1 457 0
 1359 002c C9B2     		uxtb	r1, r1
 1360              	.LVL63:
 1361 002e 2170     		strb	r1, [r4]
 458:Generated_Source\PSoC5/CySpc.c ****             CY_SPC_CPU_DATA_REG = tempPolarity;
 1362              		.loc 1 458 0
 1363 0030 2270     		strb	r2, [r4]
 459:Generated_Source\PSoC5/CySpc.c ****             CY_SPC_CPU_DATA_REG = tempMagnitude;
 1364              		.loc 1 459 0
 1365 0032 2370     		strb	r3, [r4]
 443:Generated_Source\PSoC5/CySpc.c **** 
 1366              		.loc 1 443 0
 1367 0034 0720     		movs	r0, #7
 1368 0036 02E0     		b	.L52
 1369              	.LVL64:
 1370              	.L53:
 460:Generated_Source\PSoC5/CySpc.c ****         }
 461:Generated_Source\PSoC5/CySpc.c ****         else
 462:Generated_Source\PSoC5/CySpc.c ****         {
 463:Generated_Source\PSoC5/CySpc.c ****             status = CYRET_CANCELED;
 464:Generated_Source\PSoC5/CySpc.c ****         }
 465:Generated_Source\PSoC5/CySpc.c ****     }
 466:Generated_Source\PSoC5/CySpc.c ****     else
 467:Generated_Source\PSoC5/CySpc.c ****     {
 468:Generated_Source\PSoC5/CySpc.c ****         status = CYRET_LOCKED;
 1371              		.loc 1 468 0
 1372 0038 0420     		movs	r0, #4
 1373              	.LVL65:
 1374 003a 00E0     		b	.L52
 1375              	.LVL66:
 1376              	.L54:
 463:Generated_Source\PSoC5/CySpc.c ****         }
 1377              		.loc 1 463 0
 1378 003c 0920     		movs	r0, #9
 1379              	.LVL67:
 1380              	.L52:
 469:Generated_Source\PSoC5/CySpc.c ****     }
 470:Generated_Source\PSoC5/CySpc.c **** 
 471:Generated_Source\PSoC5/CySpc.c ****     return(status);
 472:Generated_Source\PSoC5/CySpc.c **** }
 1381              		.loc 1 472 0
 1382 003e 30BC     		pop	{r4, r5}
 1383              		.cfi_restore 5
 1384              		.cfi_restore 4
 1385              		.cfi_def_cfa_offset 0
 1386 0040 7047     		bx	lr
 1387              	.L57:
 1388 0042 00BF     		.align	2
 1389              	.L56:
 1390 0044 22470040 		.word	1073760034
 1391 0048 20470040 		.word	1073760032
 1392              		.cfi_endproc
 1393              	.LFE6:
 1394              		.size	CySpcWriteRow, .-CySpcWriteRow
 1395              		.section	.text.CySpcEraseSector,"ax",%progbits
 1396              		.align	2
 1397              		.global	CySpcEraseSector
ARM GAS  C:\Users\Luggi\AppData\Local\Temp\ccujN3Qb.s 			page 83


 1398              		.thumb
 1399              		.thumb_func
 1400              		.type	CySpcEraseSector, %function
 1401              	CySpcEraseSector:
 1402              	.LFB7:
 473:Generated_Source\PSoC5/CySpc.c **** 
 474:Generated_Source\PSoC5/CySpc.c **** 
 475:Generated_Source\PSoC5/CySpc.c **** /*******************************************************************************
 476:Generated_Source\PSoC5/CySpc.c **** * Function Name: CySpcEraseSector
 477:Generated_Source\PSoC5/CySpc.c **** ****************************************************************************//**
 478:Generated_Source\PSoC5/CySpc.c **** *  Erases all data in the addressed sector (block of 64 rows).
 479:Generated_Source\PSoC5/CySpc.c **** *
 480:Generated_Source\PSoC5/CySpc.c **** *  \param uint8 array:
 481:Generated_Source\PSoC5/CySpc.c **** *   Id of the array.
 482:Generated_Source\PSoC5/CySpc.c **** *
 483:Generated_Source\PSoC5/CySpc.c **** *  \param uint8 sectorNumber:
 484:Generated_Source\PSoC5/CySpc.c **** *   Zero based sector number within Flash/EEPROM array
 485:Generated_Source\PSoC5/CySpc.c **** *
 486:Generated_Source\PSoC5/CySpc.c **** * \return
 487:Generated_Source\PSoC5/CySpc.c **** *  CYRET_STARTED
 488:Generated_Source\PSoC5/CySpc.c **** *  CYRET_CANCELED
 489:Generated_Source\PSoC5/CySpc.c **** *  CYRET_LOCKED
 490:Generated_Source\PSoC5/CySpc.c **** *
 491:Generated_Source\PSoC5/CySpc.c **** *******************************************************************************/
 492:Generated_Source\PSoC5/CySpc.c **** cystatus CySpcEraseSector(uint8 array, uint8 sectorNumber)
 493:Generated_Source\PSoC5/CySpc.c **** {
 1403              		.loc 1 493 0
 1404              		.cfi_startproc
 1405              		@ args = 0, pretend = 0, frame = 0
 1406              		@ frame_needed = 0, uses_anonymous_args = 0
 1407              		@ link register save eliminated.
 1408              	.LVL68:
 494:Generated_Source\PSoC5/CySpc.c ****     cystatus status = CYRET_STARTED;
 495:Generated_Source\PSoC5/CySpc.c **** 
 496:Generated_Source\PSoC5/CySpc.c ****     /* Make sure the SPC is ready to accept command */
 497:Generated_Source\PSoC5/CySpc.c ****     if(CY_SPC_IDLE)
 1409              		.loc 1 497 0
 1410 0000 0C4B     		ldr	r3, .L62
 1411 0002 1B78     		ldrb	r3, [r3]	@ zero_extendqisi2
 1412 0004 13F0020F 		tst	r3, #2
 1413 0008 10D0     		beq	.L60
 498:Generated_Source\PSoC5/CySpc.c ****     {
 499:Generated_Source\PSoC5/CySpc.c ****         CY_SPC_CPU_DATA_REG = CY_SPC_KEY_ONE;
 1414              		.loc 1 499 0
 1415 000a 0B4B     		ldr	r3, .L62+4
 1416 000c B622     		movs	r2, #182
 1417 000e 1A70     		strb	r2, [r3]
 500:Generated_Source\PSoC5/CySpc.c ****         CY_SPC_CPU_DATA_REG = CY_SPC_KEY_TWO(CY_SPC_CMD_ER_SECTOR);
 1418              		.loc 1 500 0
 1419 0010 DB22     		movs	r2, #219
 1420 0012 1A70     		strb	r2, [r3]
 501:Generated_Source\PSoC5/CySpc.c ****         CY_SPC_CPU_DATA_REG = CY_SPC_CMD_ER_SECTOR;
 1421              		.loc 1 501 0
 1422 0014 0822     		movs	r2, #8
 1423 0016 1A70     		strb	r2, [r3]
 502:Generated_Source\PSoC5/CySpc.c **** 
 503:Generated_Source\PSoC5/CySpc.c ****         /* Make sure the command was accepted */
ARM GAS  C:\Users\Luggi\AppData\Local\Temp\ccujN3Qb.s 			page 84


 504:Generated_Source\PSoC5/CySpc.c ****         if(CY_SPC_BUSY)
 1424              		.loc 1 504 0
 1425 0018 0233     		adds	r3, r3, #2
 1426 001a 1B78     		ldrb	r3, [r3]	@ zero_extendqisi2
 1427 001c 13F0020F 		tst	r3, #2
 1428 0020 06D1     		bne	.L61
 505:Generated_Source\PSoC5/CySpc.c ****         {
 506:Generated_Source\PSoC5/CySpc.c ****             CY_SPC_CPU_DATA_REG = array;
 1429              		.loc 1 506 0
 1430 0022 054B     		ldr	r3, .L62+4
 1431 0024 1870     		strb	r0, [r3]
 507:Generated_Source\PSoC5/CySpc.c ****             CY_SPC_CPU_DATA_REG = sectorNumber;
 1432              		.loc 1 507 0
 1433 0026 1970     		strb	r1, [r3]
 494:Generated_Source\PSoC5/CySpc.c **** 
 1434              		.loc 1 494 0
 1435 0028 0720     		movs	r0, #7
 1436              	.LVL69:
 1437 002a 7047     		bx	lr
 1438              	.LVL70:
 1439              	.L60:
 508:Generated_Source\PSoC5/CySpc.c ****         }
 509:Generated_Source\PSoC5/CySpc.c ****         else
 510:Generated_Source\PSoC5/CySpc.c ****         {
 511:Generated_Source\PSoC5/CySpc.c ****             status = CYRET_CANCELED;
 512:Generated_Source\PSoC5/CySpc.c ****         }
 513:Generated_Source\PSoC5/CySpc.c ****     }
 514:Generated_Source\PSoC5/CySpc.c ****     else
 515:Generated_Source\PSoC5/CySpc.c ****     {
 516:Generated_Source\PSoC5/CySpc.c ****         status = CYRET_LOCKED;
 1440              		.loc 1 516 0
 1441 002c 0420     		movs	r0, #4
 1442              	.LVL71:
 1443 002e 7047     		bx	lr
 1444              	.LVL72:
 1445              	.L61:
 511:Generated_Source\PSoC5/CySpc.c ****         }
 1446              		.loc 1 511 0
 1447 0030 0920     		movs	r0, #9
 1448              	.LVL73:
 517:Generated_Source\PSoC5/CySpc.c ****     }
 518:Generated_Source\PSoC5/CySpc.c **** 
 519:Generated_Source\PSoC5/CySpc.c ****     return(status);
 520:Generated_Source\PSoC5/CySpc.c **** }
 1449              		.loc 1 520 0
 1450 0032 7047     		bx	lr
 1451              	.L63:
 1452              		.align	2
 1453              	.L62:
 1454 0034 22470040 		.word	1073760034
 1455 0038 20470040 		.word	1073760032
 1456              		.cfi_endproc
 1457              	.LFE7:
 1458              		.size	CySpcEraseSector, .-CySpcEraseSector
 1459              		.section	.text.CySpcGetTemp,"ax",%progbits
 1460              		.align	2
 1461              		.global	CySpcGetTemp
ARM GAS  C:\Users\Luggi\AppData\Local\Temp\ccujN3Qb.s 			page 85


 1462              		.thumb
 1463              		.thumb_func
 1464              		.type	CySpcGetTemp, %function
 1465              	CySpcGetTemp:
 1466              	.LFB8:
 521:Generated_Source\PSoC5/CySpc.c **** 
 522:Generated_Source\PSoC5/CySpc.c **** 
 523:Generated_Source\PSoC5/CySpc.c **** /*******************************************************************************
 524:Generated_Source\PSoC5/CySpc.c **** * Function Name: CySpcGetTemp
 525:Generated_Source\PSoC5/CySpc.c **** ****************************************************************************//**
 526:Generated_Source\PSoC5/CySpc.c **** *  Returns the internal die temperature
 527:Generated_Source\PSoC5/CySpc.c **** *
 528:Generated_Source\PSoC5/CySpc.c **** *  \param uint8 numSamples:
 529:Generated_Source\PSoC5/CySpc.c **** *   Number of samples. Valid values are 1-5, resulting in 2 - 32 samples
 530:Generated_Source\PSoC5/CySpc.c **** *   respectively.
 531:Generated_Source\PSoC5/CySpc.c **** *
 532:Generated_Source\PSoC5/CySpc.c **** * \param uint16 timerPeriod:
 533:Generated_Source\PSoC5/CySpc.c **** *   Number of ADC ACLK cycles. A valid 14 bit value is accepted, higher 2 bits
 534:Generated_Source\PSoC5/CySpc.c **** *   of 16 bit values are ignored.
 535:Generated_Source\PSoC5/CySpc.c **** *
 536:Generated_Source\PSoC5/CySpc.c **** * \param uint8 clkDivSelect:
 537:Generated_Source\PSoC5/CySpc.c **** *   ADC ACLK clock divide value. Valid values are 2 - 225.
 538:Generated_Source\PSoC5/CySpc.c **** *
 539:Generated_Source\PSoC5/CySpc.c **** * \return
 540:Generated_Source\PSoC5/CySpc.c **** *  CYRET_STARTED
 541:Generated_Source\PSoC5/CySpc.c **** *  CYRET_CANCELED
 542:Generated_Source\PSoC5/CySpc.c **** *  CYRET_LOCKED
 543:Generated_Source\PSoC5/CySpc.c **** *
 544:Generated_Source\PSoC5/CySpc.c **** *******************************************************************************/
 545:Generated_Source\PSoC5/CySpc.c **** cystatus CySpcGetTemp(uint8 numSamples)
 546:Generated_Source\PSoC5/CySpc.c **** {
 1467              		.loc 1 546 0
 1468              		.cfi_startproc
 1469              		@ args = 0, pretend = 0, frame = 0
 1470              		@ frame_needed = 0, uses_anonymous_args = 0
 1471              		@ link register save eliminated.
 1472              	.LVL74:
 547:Generated_Source\PSoC5/CySpc.c ****     cystatus status = CYRET_STARTED;
 548:Generated_Source\PSoC5/CySpc.c **** 
 549:Generated_Source\PSoC5/CySpc.c ****     /* Make sure the SPC is ready to accept command */
 550:Generated_Source\PSoC5/CySpc.c ****     if(CY_SPC_IDLE)
 1473              		.loc 1 550 0
 1474 0000 0C4B     		ldr	r3, .L68
 1475 0002 1B78     		ldrb	r3, [r3]	@ zero_extendqisi2
 1476 0004 13F0020F 		tst	r3, #2
 1477 0008 0FD0     		beq	.L66
 551:Generated_Source\PSoC5/CySpc.c ****     {
 552:Generated_Source\PSoC5/CySpc.c ****         CY_SPC_CPU_DATA_REG = CY_SPC_KEY_ONE;
 1478              		.loc 1 552 0
 1479 000a 0B4B     		ldr	r3, .L68+4
 1480 000c B622     		movs	r2, #182
 1481 000e 1A70     		strb	r2, [r3]
 553:Generated_Source\PSoC5/CySpc.c ****         CY_SPC_CPU_DATA_REG = CY_SPC_KEY_TWO(CY_SPC_CMD_GET_TEMP);
 1482              		.loc 1 553 0
 1483 0010 E122     		movs	r2, #225
 1484 0012 1A70     		strb	r2, [r3]
 554:Generated_Source\PSoC5/CySpc.c ****         CY_SPC_CPU_DATA_REG = CY_SPC_CMD_GET_TEMP;
ARM GAS  C:\Users\Luggi\AppData\Local\Temp\ccujN3Qb.s 			page 86


 1485              		.loc 1 554 0
 1486 0014 0E22     		movs	r2, #14
 1487 0016 1A70     		strb	r2, [r3]
 555:Generated_Source\PSoC5/CySpc.c **** 
 556:Generated_Source\PSoC5/CySpc.c ****         /* Make sure the command was accepted */
 557:Generated_Source\PSoC5/CySpc.c ****         if(CY_SPC_BUSY)
 1488              		.loc 1 557 0
 1489 0018 0233     		adds	r3, r3, #2
 1490 001a 1B78     		ldrb	r3, [r3]	@ zero_extendqisi2
 1491 001c 13F0020F 		tst	r3, #2
 1492 0020 05D1     		bne	.L67
 558:Generated_Source\PSoC5/CySpc.c ****         {
 559:Generated_Source\PSoC5/CySpc.c ****             CY_SPC_CPU_DATA_REG = numSamples;
 1493              		.loc 1 559 0
 1494 0022 054B     		ldr	r3, .L68+4
 1495 0024 1870     		strb	r0, [r3]
 547:Generated_Source\PSoC5/CySpc.c **** 
 1496              		.loc 1 547 0
 1497 0026 0720     		movs	r0, #7
 1498              	.LVL75:
 1499 0028 7047     		bx	lr
 1500              	.LVL76:
 1501              	.L66:
 560:Generated_Source\PSoC5/CySpc.c ****         }
 561:Generated_Source\PSoC5/CySpc.c ****         else
 562:Generated_Source\PSoC5/CySpc.c ****         {
 563:Generated_Source\PSoC5/CySpc.c ****             status = CYRET_CANCELED;
 564:Generated_Source\PSoC5/CySpc.c ****         }
 565:Generated_Source\PSoC5/CySpc.c ****     }
 566:Generated_Source\PSoC5/CySpc.c ****     else
 567:Generated_Source\PSoC5/CySpc.c ****     {
 568:Generated_Source\PSoC5/CySpc.c ****         status = CYRET_LOCKED;
 1502              		.loc 1 568 0
 1503 002a 0420     		movs	r0, #4
 1504              	.LVL77:
 1505 002c 7047     		bx	lr
 1506              	.LVL78:
 1507              	.L67:
 563:Generated_Source\PSoC5/CySpc.c ****         }
 1508              		.loc 1 563 0
 1509 002e 0920     		movs	r0, #9
 1510              	.LVL79:
 569:Generated_Source\PSoC5/CySpc.c ****     }
 570:Generated_Source\PSoC5/CySpc.c **** 
 571:Generated_Source\PSoC5/CySpc.c ****     return(status);
 572:Generated_Source\PSoC5/CySpc.c **** }
 1511              		.loc 1 572 0
 1512 0030 7047     		bx	lr
 1513              	.L69:
 1514 0032 00BF     		.align	2
 1515              	.L68:
 1516 0034 22470040 		.word	1073760034
 1517 0038 20470040 		.word	1073760032
 1518              		.cfi_endproc
 1519              	.LFE8:
 1520              		.size	CySpcGetTemp, .-CySpcGetTemp
 1521              		.section	.text.CySpcLock,"ax",%progbits
ARM GAS  C:\Users\Luggi\AppData\Local\Temp\ccujN3Qb.s 			page 87


 1522              		.align	2
 1523              		.global	CySpcLock
 1524              		.thumb
 1525              		.thumb_func
 1526              		.type	CySpcLock, %function
 1527              	CySpcLock:
 1528              	.LFB9:
 573:Generated_Source\PSoC5/CySpc.c **** 
 574:Generated_Source\PSoC5/CySpc.c **** 
 575:Generated_Source\PSoC5/CySpc.c **** /*******************************************************************************
 576:Generated_Source\PSoC5/CySpc.c **** * Function Name: CySpcLock
 577:Generated_Source\PSoC5/CySpc.c **** ****************************************************************************//**
 578:Generated_Source\PSoC5/CySpc.c **** *  Locks the SPC so it can not be used by someone else:
 579:Generated_Source\PSoC5/CySpc.c **** *   - Saves wait-pipeline enable state and enable pipeline (PSoC5)
 580:Generated_Source\PSoC5/CySpc.c **** *
 581:Generated_Source\PSoC5/CySpc.c **** * \return
 582:Generated_Source\PSoC5/CySpc.c **** *  CYRET_SUCCESS - if the resource was free.
 583:Generated_Source\PSoC5/CySpc.c **** *  CYRET_LOCKED  - if the SPC is in use.
 584:Generated_Source\PSoC5/CySpc.c **** *
 585:Generated_Source\PSoC5/CySpc.c **** *******************************************************************************/
 586:Generated_Source\PSoC5/CySpc.c **** cystatus CySpcLock(void)
 587:Generated_Source\PSoC5/CySpc.c **** {
 1529              		.loc 1 587 0
 1530              		.cfi_startproc
 1531              		@ args = 0, pretend = 0, frame = 0
 1532              		@ frame_needed = 0, uses_anonymous_args = 0
 1533 0000 10B5     		push	{r4, lr}
 1534              		.cfi_def_cfa_offset 8
 1535              		.cfi_offset 4, -8
 1536              		.cfi_offset 14, -4
 1537              	.LVL80:
 588:Generated_Source\PSoC5/CySpc.c ****     cystatus status = CYRET_LOCKED;
 589:Generated_Source\PSoC5/CySpc.c ****     uint8 interruptState;
 590:Generated_Source\PSoC5/CySpc.c **** 
 591:Generated_Source\PSoC5/CySpc.c ****     /* Enter critical section */
 592:Generated_Source\PSoC5/CySpc.c ****     interruptState = CyEnterCriticalSection();
 1538              		.loc 1 592 0
 1539 0002 FFF7FEFF 		bl	CyEnterCriticalSection
 1540              	.LVL81:
 593:Generated_Source\PSoC5/CySpc.c **** 
 594:Generated_Source\PSoC5/CySpc.c ****     if(CY_SPC_UNLOCKED == SpcLockState)
 1541              		.loc 1 594 0
 1542 0006 0F4B     		ldr	r3, .L75
 1543 0008 1B78     		ldrb	r3, [r3]	@ zero_extendqisi2
 1544 000a A3B9     		cbnz	r3, .L72
 595:Generated_Source\PSoC5/CySpc.c ****     {
 596:Generated_Source\PSoC5/CySpc.c ****         SpcLockState = CY_SPC_LOCKED;
 1545              		.loc 1 596 0
 1546 000c 0122     		movs	r2, #1
 1547 000e 0D4B     		ldr	r3, .L75
 1548 0010 1A70     		strb	r2, [r3]
 1549              	.LVL82:
 597:Generated_Source\PSoC5/CySpc.c ****         status = CYRET_SUCCESS;
 598:Generated_Source\PSoC5/CySpc.c **** 
 599:Generated_Source\PSoC5/CySpc.c ****         #if(CY_PSOC5)
 600:Generated_Source\PSoC5/CySpc.c **** 
 601:Generated_Source\PSoC5/CySpc.c ****             if(0u != (CY_SPC_CPU_WAITPIPE_REG & CY_SPC_CPU_WAITPIPE_BYPASS))
ARM GAS  C:\Users\Luggi\AppData\Local\Temp\ccujN3Qb.s 			page 88


 1550              		.loc 1 601 0
 1551 0012 0D4B     		ldr	r3, .L75+4
 1552 0014 1B68     		ldr	r3, [r3]
 1553 0016 13F0010F 		tst	r3, #1
 1554 001a 0ED0     		beq	.L73
 602:Generated_Source\PSoC5/CySpc.c ****             {
 603:Generated_Source\PSoC5/CySpc.c ****                 /* Enable pipeline registers */
 604:Generated_Source\PSoC5/CySpc.c ****                 CY_SPC_CPU_WAITPIPE_REG &= ((uint32)(~CY_SPC_CPU_WAITPIPE_BYPASS));
 1555              		.loc 1 604 0
 1556 001c 0A4A     		ldr	r2, .L75+4
 1557 001e 1368     		ldr	r3, [r2]
 1558 0020 23F00103 		bic	r3, r3, #1
 1559 0024 1360     		str	r3, [r2]
 605:Generated_Source\PSoC5/CySpc.c **** 
 606:Generated_Source\PSoC5/CySpc.c ****                 /* At least 2 NOP instructions are recommended */
 607:Generated_Source\PSoC5/CySpc.c ****                 CY_NOP;
 1560              		.loc 1 607 0
 1561              	@ 607 "Generated_Source\PSoC5\CySpc.c" 1
 1562 0026 00BF     		NOP
 1563              	
 1564              	@ 0 "" 2
 608:Generated_Source\PSoC5/CySpc.c ****                 CY_NOP;
 1565              		.loc 1 608 0
 1566              	@ 608 "Generated_Source\PSoC5\CySpc.c" 1
 1567 0028 00BF     		NOP
 1568              	
 1569              	@ 0 "" 2
 609:Generated_Source\PSoC5/CySpc.c ****                 CY_NOP;
 1570              		.loc 1 609 0
 1571              	@ 609 "Generated_Source\PSoC5\CySpc.c" 1
 1572 002a 00BF     		NOP
 1573              	
 1574              	@ 0 "" 2
 610:Generated_Source\PSoC5/CySpc.c **** 
 611:Generated_Source\PSoC5/CySpc.c ****                 spcWaitPipeBypass = CY_SPC_CPU_WAITPIPE_BYPASS;
 1575              		.loc 1 611 0
 1576              		.thumb
 1577 002c 0122     		movs	r2, #1
 1578 002e 054B     		ldr	r3, .L75
 1579 0030 5A60     		str	r2, [r3, #4]
 597:Generated_Source\PSoC5/CySpc.c **** 
 1580              		.loc 1 597 0
 1581 0032 0024     		movs	r4, #0
 1582 0034 02E0     		b	.L71
 1583              	.LVL83:
 1584              	.L72:
 588:Generated_Source\PSoC5/CySpc.c ****     uint8 interruptState;
 1585              		.loc 1 588 0
 1586 0036 0424     		movs	r4, #4
 1587 0038 00E0     		b	.L71
 1588              	.LVL84:
 1589              	.L73:
 597:Generated_Source\PSoC5/CySpc.c **** 
 1590              		.loc 1 597 0
 1591 003a 0024     		movs	r4, #0
 1592              	.LVL85:
 1593              	.L71:
ARM GAS  C:\Users\Luggi\AppData\Local\Temp\ccujN3Qb.s 			page 89


 612:Generated_Source\PSoC5/CySpc.c ****             }
 613:Generated_Source\PSoC5/CySpc.c **** 
 614:Generated_Source\PSoC5/CySpc.c ****         #endif  /* (CY_PSOC5) */
 615:Generated_Source\PSoC5/CySpc.c ****     }
 616:Generated_Source\PSoC5/CySpc.c **** 
 617:Generated_Source\PSoC5/CySpc.c ****     /* Exit critical section */
 618:Generated_Source\PSoC5/CySpc.c ****     CyExitCriticalSection(interruptState);
 1594              		.loc 1 618 0
 1595 003c FFF7FEFF 		bl	CyExitCriticalSection
 1596              	.LVL86:
 619:Generated_Source\PSoC5/CySpc.c **** 
 620:Generated_Source\PSoC5/CySpc.c ****     return(status);
 621:Generated_Source\PSoC5/CySpc.c **** }
 1597              		.loc 1 621 0
 1598 0040 2046     		mov	r0, r4
 1599 0042 10BD     		pop	{r4, pc}
 1600              	.LVL87:
 1601              	.L76:
 1602              		.align	2
 1603              	.L75:
 1604 0044 00000000 		.word	.LANCHOR0
 1605 0048 04000840 		.word	1074266116
 1606              		.cfi_endproc
 1607              	.LFE9:
 1608              		.size	CySpcLock, .-CySpcLock
 1609              		.section	.text.CySpcUnlock,"ax",%progbits
 1610              		.align	2
 1611              		.global	CySpcUnlock
 1612              		.thumb
 1613              		.thumb_func
 1614              		.type	CySpcUnlock, %function
 1615              	CySpcUnlock:
 1616              	.LFB10:
 622:Generated_Source\PSoC5/CySpc.c **** 
 623:Generated_Source\PSoC5/CySpc.c **** 
 624:Generated_Source\PSoC5/CySpc.c **** /*******************************************************************************
 625:Generated_Source\PSoC5/CySpc.c **** * Function Name: CySpcUnlock
 626:Generated_Source\PSoC5/CySpc.c **** ****************************************************************************//**
 627:Generated_Source\PSoC5/CySpc.c **** *  Unlocks the SPC so it can be used by someone else:
 628:Generated_Source\PSoC5/CySpc.c **** *   - Restores wait-pipeline enable state (PSoC5)
 629:Generated_Source\PSoC5/CySpc.c **** *
 630:Generated_Source\PSoC5/CySpc.c **** *******************************************************************************/
 631:Generated_Source\PSoC5/CySpc.c **** void CySpcUnlock(void)
 632:Generated_Source\PSoC5/CySpc.c **** {
 1617              		.loc 1 632 0
 1618              		.cfi_startproc
 1619              		@ args = 0, pretend = 0, frame = 0
 1620              		@ frame_needed = 0, uses_anonymous_args = 0
 1621 0000 08B5     		push	{r3, lr}
 1622              		.cfi_def_cfa_offset 8
 1623              		.cfi_offset 3, -8
 1624              		.cfi_offset 14, -4
 633:Generated_Source\PSoC5/CySpc.c ****     uint8 interruptState;
 634:Generated_Source\PSoC5/CySpc.c **** 
 635:Generated_Source\PSoC5/CySpc.c ****     /* Enter critical section */
 636:Generated_Source\PSoC5/CySpc.c ****     interruptState = CyEnterCriticalSection();
 1625              		.loc 1 636 0
ARM GAS  C:\Users\Luggi\AppData\Local\Temp\ccujN3Qb.s 			page 90


 1626 0002 FFF7FEFF 		bl	CyEnterCriticalSection
 1627              	.LVL88:
 637:Generated_Source\PSoC5/CySpc.c **** 
 638:Generated_Source\PSoC5/CySpc.c ****     /* Release the SPC object */
 639:Generated_Source\PSoC5/CySpc.c ****     SpcLockState = CY_SPC_UNLOCKED;
 1628              		.loc 1 639 0
 1629 0006 0A4B     		ldr	r3, .L80
 1630 0008 0022     		movs	r2, #0
 1631 000a 1A70     		strb	r2, [r3]
 640:Generated_Source\PSoC5/CySpc.c **** 
 641:Generated_Source\PSoC5/CySpc.c ****     #if(CY_PSOC5)
 642:Generated_Source\PSoC5/CySpc.c **** 
 643:Generated_Source\PSoC5/CySpc.c ****         if(CY_SPC_CPU_WAITPIPE_BYPASS == spcWaitPipeBypass)
 1632              		.loc 1 643 0
 1633 000c 5B68     		ldr	r3, [r3, #4]
 1634 000e 012B     		cmp	r3, #1
 1635 0010 0AD1     		bne	.L78
 644:Generated_Source\PSoC5/CySpc.c ****         {
 645:Generated_Source\PSoC5/CySpc.c ****             /* Force to bypass pipeline registers */
 646:Generated_Source\PSoC5/CySpc.c ****             CY_SPC_CPU_WAITPIPE_REG |= CY_SPC_CPU_WAITPIPE_BYPASS;
 1636              		.loc 1 646 0
 1637 0012 084A     		ldr	r2, .L80+4
 1638 0014 1368     		ldr	r3, [r2]
 1639 0016 43F00103 		orr	r3, r3, #1
 1640 001a 1360     		str	r3, [r2]
 647:Generated_Source\PSoC5/CySpc.c **** 
 648:Generated_Source\PSoC5/CySpc.c ****             /* At least 2 NOP instructions are recommended */
 649:Generated_Source\PSoC5/CySpc.c ****             CY_NOP;
 1641              		.loc 1 649 0
 1642              	@ 649 "Generated_Source\PSoC5\CySpc.c" 1
 1643 001c 00BF     		NOP
 1644              	
 1645              	@ 0 "" 2
 650:Generated_Source\PSoC5/CySpc.c ****             CY_NOP;
 1646              		.loc 1 650 0
 1647              	@ 650 "Generated_Source\PSoC5\CySpc.c" 1
 1648 001e 00BF     		NOP
 1649              	
 1650              	@ 0 "" 2
 651:Generated_Source\PSoC5/CySpc.c ****             CY_NOP;
 1651              		.loc 1 651 0
 1652              	@ 651 "Generated_Source\PSoC5\CySpc.c" 1
 1653 0020 00BF     		NOP
 1654              	
 1655              	@ 0 "" 2
 652:Generated_Source\PSoC5/CySpc.c **** 
 653:Generated_Source\PSoC5/CySpc.c ****             spcWaitPipeBypass = 0u;
 1656              		.loc 1 653 0
 1657              		.thumb
 1658 0022 0022     		movs	r2, #0
 1659 0024 024B     		ldr	r3, .L80
 1660 0026 5A60     		str	r2, [r3, #4]
 1661              	.L78:
 654:Generated_Source\PSoC5/CySpc.c ****         }
 655:Generated_Source\PSoC5/CySpc.c **** 
 656:Generated_Source\PSoC5/CySpc.c ****     #endif  /* (CY_PSOC5) */
 657:Generated_Source\PSoC5/CySpc.c **** 
ARM GAS  C:\Users\Luggi\AppData\Local\Temp\ccujN3Qb.s 			page 91


 658:Generated_Source\PSoC5/CySpc.c ****     /* Exit critical section */
 659:Generated_Source\PSoC5/CySpc.c ****     CyExitCriticalSection(interruptState);
 1662              		.loc 1 659 0
 1663 0028 FFF7FEFF 		bl	CyExitCriticalSection
 1664              	.LVL89:
 1665 002c 08BD     		pop	{r3, pc}
 1666              	.L81:
 1667 002e 00BF     		.align	2
 1668              	.L80:
 1669 0030 00000000 		.word	.LANCHOR0
 1670 0034 04000840 		.word	1074266116
 1671              		.cfi_endproc
 1672              	.LFE10:
 1673              		.size	CySpcUnlock, .-CySpcUnlock
 1674              		.section	.text.CySpcGetAlgorithm,"ax",%progbits
 1675              		.align	2
 1676              		.global	CySpcGetAlgorithm
 1677              		.thumb
 1678              		.thumb_func
 1679              		.type	CySpcGetAlgorithm, %function
 1680              	CySpcGetAlgorithm:
 1681              	.LFB11:
 660:Generated_Source\PSoC5/CySpc.c **** }
 661:Generated_Source\PSoC5/CySpc.c **** 
 662:Generated_Source\PSoC5/CySpc.c **** 
 663:Generated_Source\PSoC5/CySpc.c **** /*******************************************************************************
 664:Generated_Source\PSoC5/CySpc.c **** * Function Name: CySpcGetAlgorithm
 665:Generated_Source\PSoC5/CySpc.c **** ****************************************************************************//**
 666:Generated_Source\PSoC5/CySpc.c **** *  Downloads SPC algorithm from SPC SROM into SRAM.
 667:Generated_Source\PSoC5/CySpc.c **** *
 668:Generated_Source\PSoC5/CySpc.c **** * \return
 669:Generated_Source\PSoC5/CySpc.c **** *  CYRET_STARTED
 670:Generated_Source\PSoC5/CySpc.c **** *  CYRET_LOCKED
 671:Generated_Source\PSoC5/CySpc.c **** *
 672:Generated_Source\PSoC5/CySpc.c **** *******************************************************************************/
 673:Generated_Source\PSoC5/CySpc.c **** cystatus CySpcGetAlgorithm(void)
 674:Generated_Source\PSoC5/CySpc.c **** {
 1682              		.loc 1 674 0
 1683              		.cfi_startproc
 1684              		@ args = 0, pretend = 0, frame = 0
 1685              		@ frame_needed = 0, uses_anonymous_args = 0
 1686              		@ link register save eliminated.
 1687              	.LVL90:
 675:Generated_Source\PSoC5/CySpc.c ****     cystatus status = CYRET_STARTED;
 676:Generated_Source\PSoC5/CySpc.c **** 
 677:Generated_Source\PSoC5/CySpc.c ****     /* Make sure the SPC is ready to accept command */
 678:Generated_Source\PSoC5/CySpc.c ****     if(CY_SPC_IDLE)
 1688              		.loc 1 678 0
 1689 0000 074B     		ldr	r3, .L85
 1690 0002 1B78     		ldrb	r3, [r3]	@ zero_extendqisi2
 1691 0004 13F0020F 		tst	r3, #2
 1692 0008 08D0     		beq	.L84
 679:Generated_Source\PSoC5/CySpc.c ****     {
 680:Generated_Source\PSoC5/CySpc.c ****         CY_SPC_CPU_DATA_REG = CY_SPC_KEY_ONE;
 1693              		.loc 1 680 0
 1694 000a 064B     		ldr	r3, .L85+4
 1695 000c B622     		movs	r2, #182
ARM GAS  C:\Users\Luggi\AppData\Local\Temp\ccujN3Qb.s 			page 92


 1696 000e 1A70     		strb	r2, [r3]
 681:Generated_Source\PSoC5/CySpc.c ****         CY_SPC_CPU_DATA_REG = CY_SPC_KEY_TWO(CY_SPC_CMD_DWNLD_ALGORITHM);
 1697              		.loc 1 681 0
 1698 0010 E022     		movs	r2, #224
 1699 0012 1A70     		strb	r2, [r3]
 682:Generated_Source\PSoC5/CySpc.c ****         CY_SPC_CPU_DATA_REG = CY_SPC_CMD_DWNLD_ALGORITHM;
 1700              		.loc 1 682 0
 1701 0014 0D22     		movs	r2, #13
 1702 0016 1A70     		strb	r2, [r3]
 675:Generated_Source\PSoC5/CySpc.c **** 
 1703              		.loc 1 675 0
 1704 0018 0720     		movs	r0, #7
 1705 001a 7047     		bx	lr
 1706              	.L84:
 683:Generated_Source\PSoC5/CySpc.c ****     }
 684:Generated_Source\PSoC5/CySpc.c ****     else
 685:Generated_Source\PSoC5/CySpc.c ****     {
 686:Generated_Source\PSoC5/CySpc.c ****         status = CYRET_LOCKED;
 1707              		.loc 1 686 0
 1708 001c 0420     		movs	r0, #4
 1709              	.LVL91:
 687:Generated_Source\PSoC5/CySpc.c ****     }
 688:Generated_Source\PSoC5/CySpc.c **** 
 689:Generated_Source\PSoC5/CySpc.c ****     return(status);
 690:Generated_Source\PSoC5/CySpc.c **** }
 1710              		.loc 1 690 0
 1711 001e 7047     		bx	lr
 1712              	.L86:
 1713              		.align	2
 1714              	.L85:
 1715 0020 22470040 		.word	1073760034
 1716 0024 20470040 		.word	1073760032
 1717              		.cfi_endproc
 1718              	.LFE11:
 1719              		.size	CySpcGetAlgorithm, .-CySpcGetAlgorithm
 1720              		.global	SpcLockState
 1721              		.bss
 1722              		.align	2
 1723              		.set	.LANCHOR0,. + 0
 1724              		.type	SpcLockState, %object
 1725              		.size	SpcLockState, 1
 1726              	SpcLockState:
 1727 0000 00       		.space	1
 1728 0001 000000   		.space	3
 1729              		.type	spcWaitPipeBypass, %object
 1730              		.size	spcWaitPipeBypass, 4
 1731              	spcWaitPipeBypass:
 1732 0004 00000000 		.space	4
 1733              		.text
 1734              	.Letext0:
 1735              		.file 2 "Generated_Source\\PSoC5\\cytypes.h"
 1736              		.file 3 "Generated_Source\\PSoC5\\CyLib.h"
 1737              		.section	.debug_info,"",%progbits
 1738              	.Ldebug_info0:
 1739 0000 E6040000 		.4byte	0x4e6
 1740 0004 0400     		.2byte	0x4
 1741 0006 00000000 		.4byte	.Ldebug_abbrev0
ARM GAS  C:\Users\Luggi\AppData\Local\Temp\ccujN3Qb.s 			page 93


 1742 000a 04       		.byte	0x4
 1743 000b 01       		.uleb128 0x1
 1744 000c 40010000 		.4byte	.LASF43
 1745 0010 01       		.byte	0x1
 1746 0011 10020000 		.4byte	.LASF44
 1747 0015 8A000000 		.4byte	.LASF45
 1748 0019 00000000 		.4byte	.Ldebug_ranges0+0
 1749 001d 00000000 		.4byte	0
 1750 0021 00000000 		.4byte	.Ldebug_line0
 1751 0025 02       		.uleb128 0x2
 1752 0026 01       		.byte	0x1
 1753 0027 06       		.byte	0x6
 1754 0028 0A030000 		.4byte	.LASF0
 1755 002c 02       		.uleb128 0x2
 1756 002d 01       		.byte	0x1
 1757 002e 08       		.byte	0x8
 1758 002f 2B010000 		.4byte	.LASF1
 1759 0033 02       		.uleb128 0x2
 1760 0034 02       		.byte	0x2
 1761 0035 05       		.byte	0x5
 1762 0036 D1020000 		.4byte	.LASF2
 1763 003a 02       		.uleb128 0x2
 1764 003b 02       		.byte	0x2
 1765 003c 07       		.byte	0x7
 1766 003d 45000000 		.4byte	.LASF3
 1767 0041 02       		.uleb128 0x2
 1768 0042 04       		.byte	0x4
 1769 0043 05       		.byte	0x5
 1770 0044 EF020000 		.4byte	.LASF4
 1771 0048 02       		.uleb128 0x2
 1772 0049 04       		.byte	0x4
 1773 004a 07       		.byte	0x7
 1774 004b F3000000 		.4byte	.LASF5
 1775 004f 02       		.uleb128 0x2
 1776 0050 08       		.byte	0x8
 1777 0051 05       		.byte	0x5
 1778 0052 9B020000 		.4byte	.LASF6
 1779 0056 02       		.uleb128 0x2
 1780 0057 08       		.byte	0x8
 1781 0058 07       		.byte	0x7
 1782 0059 73000000 		.4byte	.LASF7
 1783 005d 03       		.uleb128 0x3
 1784 005e 04       		.byte	0x4
 1785 005f 05       		.byte	0x5
 1786 0060 696E7400 		.ascii	"int\000"
 1787 0064 02       		.uleb128 0x2
 1788 0065 04       		.byte	0x4
 1789 0066 07       		.byte	0x7
 1790 0067 2F020000 		.4byte	.LASF8
 1791 006b 04       		.uleb128 0x4
 1792 006c 05010000 		.4byte	.LASF9
 1793 0070 02       		.byte	0x2
 1794 0071 9201     		.2byte	0x192
 1795 0073 2C000000 		.4byte	0x2c
 1796 0077 04       		.uleb128 0x4
 1797 0078 E1010000 		.4byte	.LASF10
 1798 007c 02       		.byte	0x2
ARM GAS  C:\Users\Luggi\AppData\Local\Temp\ccujN3Qb.s 			page 94


 1799 007d 9301     		.2byte	0x193
 1800 007f 3A000000 		.4byte	0x3a
 1801 0083 04       		.uleb128 0x4
 1802 0084 F2010000 		.4byte	.LASF11
 1803 0088 02       		.byte	0x2
 1804 0089 9401     		.2byte	0x194
 1805 008b 48000000 		.4byte	0x48
 1806 008f 02       		.uleb128 0x2
 1807 0090 04       		.byte	0x4
 1808 0091 04       		.byte	0x4
 1809 0092 6D000000 		.4byte	.LASF12
 1810 0096 02       		.uleb128 0x2
 1811 0097 08       		.byte	0x8
 1812 0098 04       		.byte	0x4
 1813 0099 39010000 		.4byte	.LASF13
 1814 009d 02       		.uleb128 0x2
 1815 009e 01       		.byte	0x1
 1816 009f 08       		.byte	0x8
 1817 00a0 B3020000 		.4byte	.LASF14
 1818 00a4 04       		.uleb128 0x4
 1819 00a5 13000000 		.4byte	.LASF15
 1820 00a9 02       		.byte	0x2
 1821 00aa 3402     		.2byte	0x234
 1822 00ac 48000000 		.4byte	0x48
 1823 00b0 04       		.uleb128 0x4
 1824 00b1 DF000000 		.4byte	.LASF16
 1825 00b5 02       		.byte	0x2
 1826 00b6 3C02     		.2byte	0x23c
 1827 00b8 BC000000 		.4byte	0xbc
 1828 00bc 05       		.uleb128 0x5
 1829 00bd 6B000000 		.4byte	0x6b
 1830 00c1 04       		.uleb128 0x4
 1831 00c2 1C000000 		.4byte	.LASF17
 1832 00c6 02       		.byte	0x2
 1833 00c7 3E02     		.2byte	0x23e
 1834 00c9 CD000000 		.4byte	0xcd
 1835 00cd 05       		.uleb128 0x5
 1836 00ce 83000000 		.4byte	0x83
 1837 00d2 02       		.uleb128 0x2
 1838 00d3 04       		.byte	0x4
 1839 00d4 07       		.byte	0x7
 1840 00d5 75020000 		.4byte	.LASF18
 1841 00d9 06       		.uleb128 0x6
 1842 00da 22000000 		.4byte	.LASF19
 1843 00de 01       		.byte	0x1
 1844 00df 47       		.byte	0x47
 1845 00e0 00000000 		.4byte	.LFB0
 1846 00e4 24000000 		.4byte	.LFE0-.LFB0
 1847 00e8 01       		.uleb128 0x1
 1848 00e9 9C       		.byte	0x9c
 1849 00ea 10010000 		.4byte	0x110
 1850 00ee 07       		.uleb128 0x7
 1851 00ef E4000000 		.4byte	.LASF21
 1852 00f3 01       		.byte	0x1
 1853 00f4 4A       		.byte	0x4a
 1854 00f5 6B000000 		.4byte	0x6b
 1855 00f9 00000000 		.4byte	.LLST0
ARM GAS  C:\Users\Luggi\AppData\Local\Temp\ccujN3Qb.s 			page 95


 1856 00fd 08       		.uleb128 0x8
 1857 00fe 06000000 		.4byte	.LVL0
 1858 0102 C0040000 		.4byte	0x4c0
 1859 0106 08       		.uleb128 0x8
 1860 0107 1E000000 		.4byte	.LVL1
 1861 010b CB040000 		.4byte	0x4cb
 1862 010f 00       		.byte	0
 1863 0110 06       		.uleb128 0x6
 1864 0111 3B000000 		.4byte	.LASF20
 1865 0115 01       		.byte	0x1
 1866 0116 5A       		.byte	0x5a
 1867 0117 00000000 		.4byte	.LFB1
 1868 011b 24000000 		.4byte	.LFE1-.LFB1
 1869 011f 01       		.uleb128 0x1
 1870 0120 9C       		.byte	0x9c
 1871 0121 47010000 		.4byte	0x147
 1872 0125 07       		.uleb128 0x7
 1873 0126 E4000000 		.4byte	.LASF21
 1874 012a 01       		.byte	0x1
 1875 012b 5D       		.byte	0x5d
 1876 012c 6B000000 		.4byte	0x6b
 1877 0130 13000000 		.4byte	.LLST1
 1878 0134 08       		.uleb128 0x8
 1879 0135 06000000 		.4byte	.LVL2
 1880 0139 C0040000 		.4byte	0x4c0
 1881 013d 08       		.uleb128 0x8
 1882 013e 1E000000 		.4byte	.LVL3
 1883 0142 CB040000 		.4byte	0x4cb
 1884 0146 00       		.byte	0
 1885 0147 09       		.uleb128 0x9
 1886 0148 58000000 		.4byte	.LASF24
 1887 014c 01       		.byte	0x1
 1888 014d 77       		.byte	0x77
 1889 014e 6B000000 		.4byte	0x6b
 1890 0152 00000000 		.4byte	.LFB2
 1891 0156 34000000 		.4byte	.LFE2-.LFB2
 1892 015a 01       		.uleb128 0x1
 1893 015b 9C       		.byte	0x9c
 1894 015c 9B010000 		.4byte	0x19b
 1895 0160 0A       		.uleb128 0xa
 1896 0161 DB020000 		.4byte	.LASF22
 1897 0165 01       		.byte	0x1
 1898 0166 77       		.byte	0x77
 1899 0167 9B010000 		.4byte	0x19b
 1900 016b 26000000 		.4byte	.LLST2
 1901 016f 0A       		.uleb128 0xa
 1902 0170 DA000000 		.4byte	.LASF23
 1903 0174 01       		.byte	0x1
 1904 0175 77       		.byte	0x77
 1905 0176 6B000000 		.4byte	0x6b
 1906 017a 52000000 		.4byte	.LLST3
 1907 017e 0B       		.uleb128 0xb
 1908 017f 6900     		.ascii	"i\000"
 1909 0181 01       		.byte	0x1
 1910 0182 79       		.byte	0x79
 1911 0183 6B000000 		.4byte	0x6b
 1912 0187 73000000 		.4byte	.LLST4
ARM GAS  C:\Users\Luggi\AppData\Local\Temp\ccujN3Qb.s 			page 96


 1913 018b 0C       		.uleb128 0xc
 1914 018c 10000000 		.4byte	.LVL7
 1915 0190 DC040000 		.4byte	0x4dc
 1916 0194 0D       		.uleb128 0xd
 1917 0195 01       		.uleb128 0x1
 1918 0196 50       		.byte	0x50
 1919 0197 01       		.uleb128 0x1
 1920 0198 31       		.byte	0x31
 1921 0199 00       		.byte	0
 1922 019a 00       		.byte	0
 1923 019b 0E       		.uleb128 0xe
 1924 019c 04       		.byte	0x4
 1925 019d 6B000000 		.4byte	0x6b
 1926 01a1 09       		.uleb128 0x9
 1927 01a2 00000000 		.4byte	.LASF25
 1928 01a6 01       		.byte	0x1
 1929 01a7 A0       		.byte	0xa0
 1930 01a8 A4000000 		.4byte	0xa4
 1931 01ac 00000000 		.4byte	.LFB3
 1932 01b0 78000000 		.4byte	.LFE3-.LFB3
 1933 01b4 01       		.uleb128 0x1
 1934 01b5 9C       		.byte	0x9c
 1935 01b6 0F020000 		.4byte	0x20f
 1936 01ba 0A       		.uleb128 0xa
 1937 01bb 25010000 		.4byte	.LASF26
 1938 01bf 01       		.byte	0x1
 1939 01c0 A0       		.byte	0xa0
 1940 01c1 6B000000 		.4byte	0x6b
 1941 01c5 9D000000 		.4byte	.LLST5
 1942 01c9 0A       		.uleb128 0xa
 1943 01ca 3C020000 		.4byte	.LASF27
 1944 01ce 01       		.byte	0x1
 1945 01cf A0       		.byte	0xa0
 1946 01d0 77000000 		.4byte	0x77
 1947 01d4 2E010000 		.4byte	.LLST6
 1948 01d8 0F       		.uleb128 0xf
 1949 01d9 DB020000 		.4byte	.LASF22
 1950 01dd 01       		.byte	0x1
 1951 01de A0       		.byte	0xa0
 1952 01df 0F020000 		.4byte	0x20f
 1953 01e3 01       		.uleb128 0x1
 1954 01e4 52       		.byte	0x52
 1955 01e5 0F       		.uleb128 0xf
 1956 01e6 DA000000 		.4byte	.LASF23
 1957 01ea 01       		.byte	0x1
 1958 01eb A0       		.byte	0xa0
 1959 01ec 6B000000 		.4byte	0x6b
 1960 01f0 01       		.uleb128 0x1
 1961 01f1 53       		.byte	0x53
 1962 01f2 07       		.uleb128 0x7
 1963 01f3 66000000 		.4byte	.LASF28
 1964 01f7 01       		.byte	0x1
 1965 01f8 A3       		.byte	0xa3
 1966 01f9 A4000000 		.4byte	0xa4
 1967 01fd 68010000 		.4byte	.LLST7
 1968 0201 0B       		.uleb128 0xb
 1969 0202 6900     		.ascii	"i\000"
ARM GAS  C:\Users\Luggi\AppData\Local\Temp\ccujN3Qb.s 			page 97


 1970 0204 01       		.byte	0x1
 1971 0205 A4       		.byte	0xa4
 1972 0206 6B000000 		.4byte	0x6b
 1973 020a 87010000 		.4byte	.LLST8
 1974 020e 00       		.byte	0
 1975 020f 0E       		.uleb128 0xe
 1976 0210 04       		.byte	0x4
 1977 0211 15020000 		.4byte	0x215
 1978 0215 10       		.uleb128 0x10
 1979 0216 6B000000 		.4byte	0x6b
 1980 021a 09       		.uleb128 0x9
 1981 021b 68020000 		.4byte	.LASF29
 1982 021f 01       		.byte	0x1
 1983 0220 EE       		.byte	0xee
 1984 0221 A4000000 		.4byte	0xa4
 1985 0225 00000000 		.4byte	.LFB4
 1986 0229 54000000 		.4byte	.LFE4-.LFB4
 1987 022d 01       		.uleb128 0x1
 1988 022e 9C       		.byte	0x9c
 1989 022f 79020000 		.4byte	0x279
 1990 0233 0A       		.uleb128 0xa
 1991 0234 25010000 		.4byte	.LASF26
 1992 0238 01       		.byte	0x1
 1993 0239 EE       		.byte	0xee
 1994 023a 6B000000 		.4byte	0x6b
 1995 023e B1010000 		.4byte	.LLST9
 1996 0242 0F       		.uleb128 0xf
 1997 0243 DB020000 		.4byte	.LASF22
 1998 0247 01       		.byte	0x1
 1999 0248 EE       		.byte	0xee
 2000 0249 0F020000 		.4byte	0x20f
 2001 024d 01       		.uleb128 0x1
 2002 024e 51       		.byte	0x51
 2003 024f 0F       		.uleb128 0xf
 2004 0250 DA000000 		.4byte	.LASF23
 2005 0254 01       		.byte	0x1
 2006 0255 EE       		.byte	0xee
 2007 0256 77000000 		.4byte	0x77
 2008 025a 01       		.uleb128 0x1
 2009 025b 52       		.byte	0x52
 2010 025c 07       		.uleb128 0x7
 2011 025d 66000000 		.4byte	.LASF28
 2012 0261 01       		.byte	0x1
 2013 0262 F0       		.byte	0xf0
 2014 0263 A4000000 		.4byte	0xa4
 2015 0267 04020000 		.4byte	.LLST10
 2016 026b 0B       		.uleb128 0xb
 2017 026c 6900     		.ascii	"i\000"
 2018 026e 01       		.byte	0x1
 2019 026f F1       		.byte	0xf1
 2020 0270 77000000 		.4byte	0x77
 2021 0274 3A020000 		.4byte	.LLST11
 2022 0278 00       		.byte	0
 2023 0279 11       		.uleb128 0x11
 2024 027a 16030000 		.4byte	.LASF30
 2025 027e 01       		.byte	0x1
 2026 027f 3001     		.2byte	0x130
ARM GAS  C:\Users\Luggi\AppData\Local\Temp\ccujN3Qb.s 			page 98


 2027 0281 A4000000 		.4byte	0xa4
 2028 0285 00000000 		.4byte	.LFB5
 2029 0289 80000000 		.4byte	.LFE5-.LFB5
 2030 028d 01       		.uleb128 0x1
 2031 028e 9C       		.byte	0x9c
 2032 028f 02030000 		.4byte	0x302
 2033 0293 12       		.uleb128 0x12
 2034 0294 25010000 		.4byte	.LASF26
 2035 0298 01       		.byte	0x1
 2036 0299 3001     		.2byte	0x130
 2037 029b 6B000000 		.4byte	0x6b
 2038 029f 64020000 		.4byte	.LLST12
 2039 02a3 13       		.uleb128 0x13
 2040 02a4 726F7700 		.ascii	"row\000"
 2041 02a8 01       		.byte	0x1
 2042 02a9 3001     		.2byte	0x130
 2043 02ab 77000000 		.4byte	0x77
 2044 02af E9020000 		.4byte	.LLST13
 2045 02b3 12       		.uleb128 0x12
 2046 02b4 DB020000 		.4byte	.LASF22
 2047 02b8 01       		.byte	0x1
 2048 02b9 3001     		.2byte	0x130
 2049 02bb 0F020000 		.4byte	0x20f
 2050 02bf 23030000 		.4byte	.LLST14
 2051 02c3 12       		.uleb128 0x12
 2052 02c4 DA000000 		.4byte	.LASF23
 2053 02c8 01       		.byte	0x1
 2054 02c9 3001     		.2byte	0x130
 2055 02cb 77000000 		.4byte	0x77
 2056 02cf 5D030000 		.4byte	.LLST15
 2057 02d3 14       		.uleb128 0x14
 2058 02d4 66000000 		.4byte	.LASF28
 2059 02d8 01       		.byte	0x1
 2060 02d9 3301     		.2byte	0x133
 2061 02db A4000000 		.4byte	0xa4
 2062 02df 97030000 		.4byte	.LLST16
 2063 02e3 15       		.uleb128 0x15
 2064 02e4 6900     		.ascii	"i\000"
 2065 02e6 01       		.byte	0x1
 2066 02e7 3401     		.2byte	0x134
 2067 02e9 77000000 		.4byte	0x77
 2068 02ed B6030000 		.4byte	.LLST17
 2069 02f1 14       		.uleb128 0x14
 2070 02f2 CA020000 		.4byte	.LASF31
 2071 02f6 01       		.byte	0x1
 2072 02f7 3701     		.2byte	0x137
 2073 02f9 83000000 		.4byte	0x83
 2074 02fd 0D040000 		.4byte	.LLST18
 2075 0301 00       		.byte	0
 2076 0302 11       		.uleb128 0x11
 2077 0303 2D000000 		.4byte	.LASF32
 2078 0307 01       		.byte	0x1
 2079 0308 B801     		.2byte	0x1b8
 2080 030a A4000000 		.4byte	0xa4
 2081 030e 00000000 		.4byte	.LFB6
 2082 0312 4C000000 		.4byte	.LFE6-.LFB6
 2083 0316 01       		.uleb128 0x1
ARM GAS  C:\Users\Luggi\AppData\Local\Temp\ccujN3Qb.s 			page 99


 2084 0317 9C       		.byte	0x9c
 2085 0318 69030000 		.4byte	0x369
 2086 031c 12       		.uleb128 0x12
 2087 031d 25010000 		.4byte	.LASF26
 2088 0321 01       		.byte	0x1
 2089 0322 B801     		.2byte	0x1b8
 2090 0324 6B000000 		.4byte	0x6b
 2091 0328 20040000 		.4byte	.LLST19
 2092 032c 12       		.uleb128 0x12
 2093 032d 3C020000 		.4byte	.LASF27
 2094 0331 01       		.byte	0x1
 2095 0332 B801     		.2byte	0x1b8
 2096 0334 77000000 		.4byte	0x77
 2097 0338 7F040000 		.4byte	.LLST20
 2098 033c 16       		.uleb128 0x16
 2099 033d 18010000 		.4byte	.LASF33
 2100 0341 01       		.byte	0x1
 2101 0342 B801     		.2byte	0x1b8
 2102 0344 6B000000 		.4byte	0x6b
 2103 0348 01       		.uleb128 0x1
 2104 0349 52       		.byte	0x52
 2105 034a 16       		.uleb128 0x16
 2106 034b 5A020000 		.4byte	.LASF34
 2107 034f 01       		.byte	0x1
 2108 0350 B801     		.2byte	0x1b8
 2109 0352 6B000000 		.4byte	0x6b
 2110 0356 01       		.uleb128 0x1
 2111 0357 53       		.byte	0x53
 2112 0358 14       		.uleb128 0x14
 2113 0359 66000000 		.4byte	.LASF28
 2114 035d 01       		.byte	0x1
 2115 035e BB01     		.2byte	0x1bb
 2116 0360 A4000000 		.4byte	0xa4
 2117 0364 B9040000 		.4byte	.LLST21
 2118 0368 00       		.byte	0
 2119 0369 11       		.uleb128 0x11
 2120 036a 8A020000 		.4byte	.LASF35
 2121 036e 01       		.byte	0x1
 2122 036f EC01     		.2byte	0x1ec
 2123 0371 A4000000 		.4byte	0xa4
 2124 0375 00000000 		.4byte	.LFB7
 2125 0379 3C000000 		.4byte	.LFE7-.LFB7
 2126 037d 01       		.uleb128 0x1
 2127 037e 9C       		.byte	0x9c
 2128 037f B2030000 		.4byte	0x3b2
 2129 0383 12       		.uleb128 0x12
 2130 0384 25010000 		.4byte	.LASF26
 2131 0388 01       		.byte	0x1
 2132 0389 EC01     		.2byte	0x1ec
 2133 038b 6B000000 		.4byte	0x6b
 2134 038f D8040000 		.4byte	.LLST22
 2135 0393 16       		.uleb128 0x16
 2136 0394 E2020000 		.4byte	.LASF36
 2137 0398 01       		.byte	0x1
 2138 0399 EC01     		.2byte	0x1ec
 2139 039b 6B000000 		.4byte	0x6b
 2140 039f 01       		.uleb128 0x1
ARM GAS  C:\Users\Luggi\AppData\Local\Temp\ccujN3Qb.s 			page 100


 2141 03a0 51       		.byte	0x51
 2142 03a1 14       		.uleb128 0x14
 2143 03a2 66000000 		.4byte	.LASF28
 2144 03a6 01       		.byte	0x1
 2145 03a7 EE01     		.2byte	0x1ee
 2146 03a9 A4000000 		.4byte	0xa4
 2147 03ad 2B050000 		.4byte	.LLST23
 2148 03b1 00       		.byte	0
 2149 03b2 11       		.uleb128 0x11
 2150 03b3 D4010000 		.4byte	.LASF37
 2151 03b7 01       		.byte	0x1
 2152 03b8 2102     		.2byte	0x221
 2153 03ba A4000000 		.4byte	0xa4
 2154 03be 00000000 		.4byte	.LFB8
 2155 03c2 3C000000 		.4byte	.LFE8-.LFB8
 2156 03c6 01       		.uleb128 0x1
 2157 03c7 9C       		.byte	0x9c
 2158 03c8 ED030000 		.4byte	0x3ed
 2159 03cc 12       		.uleb128 0x12
 2160 03cd 27030000 		.4byte	.LASF38
 2161 03d1 01       		.byte	0x1
 2162 03d2 2102     		.2byte	0x221
 2163 03d4 6B000000 		.4byte	0x6b
 2164 03d8 4A050000 		.4byte	.LLST24
 2165 03dc 14       		.uleb128 0x14
 2166 03dd 66000000 		.4byte	.LASF28
 2167 03e1 01       		.byte	0x1
 2168 03e2 2302     		.2byte	0x223
 2169 03e4 A4000000 		.4byte	0xa4
 2170 03e8 9B050000 		.4byte	.LLST25
 2171 03ec 00       		.byte	0
 2172 03ed 11       		.uleb128 0x11
 2173 03ee E8010000 		.4byte	.LASF39
 2174 03f2 01       		.byte	0x1
 2175 03f3 4A02     		.2byte	0x24a
 2176 03f5 A4000000 		.4byte	0xa4
 2177 03f9 00000000 		.4byte	.LFB9
 2178 03fd 4C000000 		.4byte	.LFE9-.LFB9
 2179 0401 01       		.uleb128 0x1
 2180 0402 9C       		.byte	0x9c
 2181 0403 3A040000 		.4byte	0x43a
 2182 0407 14       		.uleb128 0x14
 2183 0408 66000000 		.4byte	.LASF28
 2184 040c 01       		.byte	0x1
 2185 040d 4C02     		.2byte	0x24c
 2186 040f A4000000 		.4byte	0xa4
 2187 0413 BA050000 		.4byte	.LLST26
 2188 0417 14       		.uleb128 0x14
 2189 0418 E4000000 		.4byte	.LASF21
 2190 041c 01       		.byte	0x1
 2191 041d 4D02     		.2byte	0x24d
 2192 041f 6B000000 		.4byte	0x6b
 2193 0423 08060000 		.4byte	.LLST27
 2194 0427 08       		.uleb128 0x8
 2195 0428 06000000 		.4byte	.LVL81
 2196 042c C0040000 		.4byte	0x4c0
 2197 0430 08       		.uleb128 0x8
ARM GAS  C:\Users\Luggi\AppData\Local\Temp\ccujN3Qb.s 			page 101


 2198 0431 40000000 		.4byte	.LVL86
 2199 0435 CB040000 		.4byte	0x4cb
 2200 0439 00       		.byte	0
 2201 043a 17       		.uleb128 0x17
 2202 043b 7E020000 		.4byte	.LASF40
 2203 043f 01       		.byte	0x1
 2204 0440 7702     		.2byte	0x277
 2205 0442 00000000 		.4byte	.LFB10
 2206 0446 38000000 		.4byte	.LFE10-.LFB10
 2207 044a 01       		.uleb128 0x1
 2208 044b 9C       		.byte	0x9c
 2209 044c 73040000 		.4byte	0x473
 2210 0450 14       		.uleb128 0x14
 2211 0451 E4000000 		.4byte	.LASF21
 2212 0455 01       		.byte	0x1
 2213 0456 7902     		.2byte	0x279
 2214 0458 6B000000 		.4byte	0x6b
 2215 045c 1B060000 		.4byte	.LLST28
 2216 0460 08       		.uleb128 0x8
 2217 0461 06000000 		.4byte	.LVL88
 2218 0465 C0040000 		.4byte	0x4c0
 2219 0469 08       		.uleb128 0x8
 2220 046a 2C000000 		.4byte	.LVL89
 2221 046e CB040000 		.4byte	0x4cb
 2222 0472 00       		.byte	0
 2223 0473 11       		.uleb128 0x11
 2224 0474 B8020000 		.4byte	.LASF41
 2225 0478 01       		.byte	0x1
 2226 0479 A102     		.2byte	0x2a1
 2227 047b A4000000 		.4byte	0xa4
 2228 047f 00000000 		.4byte	.LFB11
 2229 0483 28000000 		.4byte	.LFE11-.LFB11
 2230 0487 01       		.uleb128 0x1
 2231 0488 9C       		.byte	0x9c
 2232 0489 9E040000 		.4byte	0x49e
 2233 048d 14       		.uleb128 0x14
 2234 048e 66000000 		.4byte	.LASF28
 2235 0492 01       		.byte	0x1
 2236 0493 A302     		.2byte	0x2a3
 2237 0495 A4000000 		.4byte	0xa4
 2238 0499 2E060000 		.4byte	.LLST29
 2239 049d 00       		.byte	0
 2240 049e 18       		.uleb128 0x18
 2241 049f F8020000 		.4byte	.LASF42
 2242 04a3 01       		.byte	0x1
 2243 04a4 3C       		.byte	0x3c
 2244 04a5 83000000 		.4byte	0x83
 2245 04a9 05       		.uleb128 0x5
 2246 04aa 03       		.byte	0x3
 2247 04ab 04000000 		.4byte	spcWaitPipeBypass
 2248 04af 19       		.uleb128 0x19
 2249 04b0 0B010000 		.4byte	.LASF46
 2250 04b4 01       		.byte	0x1
 2251 04b5 30       		.byte	0x30
 2252 04b6 6B000000 		.4byte	0x6b
 2253 04ba 05       		.uleb128 0x5
 2254 04bb 03       		.byte	0x3
ARM GAS  C:\Users\Luggi\AppData\Local\Temp\ccujN3Qb.s 			page 102


 2255 04bc 00000000 		.4byte	SpcLockState
 2256 04c0 1A       		.uleb128 0x1a
 2257 04c1 F9010000 		.4byte	.LASF47
 2258 04c5 03       		.byte	0x3
 2259 04c6 7D       		.byte	0x7d
 2260 04c7 6B000000 		.4byte	0x6b
 2261 04cb 1B       		.uleb128 0x1b
 2262 04cc 44020000 		.4byte	.LASF48
 2263 04d0 03       		.byte	0x3
 2264 04d1 7E       		.byte	0x7e
 2265 04d2 DC040000 		.4byte	0x4dc
 2266 04d6 1C       		.uleb128 0x1c
 2267 04d7 6B000000 		.4byte	0x6b
 2268 04db 00       		.byte	0
 2269 04dc 1D       		.uleb128 0x1d
 2270 04dd A9020000 		.4byte	.LASF49
 2271 04e1 03       		.byte	0x3
 2272 04e2 77       		.byte	0x77
 2273 04e3 1C       		.uleb128 0x1c
 2274 04e4 77000000 		.4byte	0x77
 2275 04e8 00       		.byte	0
 2276 04e9 00       		.byte	0
 2277              		.section	.debug_abbrev,"",%progbits
 2278              	.Ldebug_abbrev0:
 2279 0000 01       		.uleb128 0x1
 2280 0001 11       		.uleb128 0x11
 2281 0002 01       		.byte	0x1
 2282 0003 25       		.uleb128 0x25
 2283 0004 0E       		.uleb128 0xe
 2284 0005 13       		.uleb128 0x13
 2285 0006 0B       		.uleb128 0xb
 2286 0007 03       		.uleb128 0x3
 2287 0008 0E       		.uleb128 0xe
 2288 0009 1B       		.uleb128 0x1b
 2289 000a 0E       		.uleb128 0xe
 2290 000b 55       		.uleb128 0x55
 2291 000c 17       		.uleb128 0x17
 2292 000d 11       		.uleb128 0x11
 2293 000e 01       		.uleb128 0x1
 2294 000f 10       		.uleb128 0x10
 2295 0010 17       		.uleb128 0x17
 2296 0011 00       		.byte	0
 2297 0012 00       		.byte	0
 2298 0013 02       		.uleb128 0x2
 2299 0014 24       		.uleb128 0x24
 2300 0015 00       		.byte	0
 2301 0016 0B       		.uleb128 0xb
 2302 0017 0B       		.uleb128 0xb
 2303 0018 3E       		.uleb128 0x3e
 2304 0019 0B       		.uleb128 0xb
 2305 001a 03       		.uleb128 0x3
 2306 001b 0E       		.uleb128 0xe
 2307 001c 00       		.byte	0
 2308 001d 00       		.byte	0
 2309 001e 03       		.uleb128 0x3
 2310 001f 24       		.uleb128 0x24
 2311 0020 00       		.byte	0
ARM GAS  C:\Users\Luggi\AppData\Local\Temp\ccujN3Qb.s 			page 103


 2312 0021 0B       		.uleb128 0xb
 2313 0022 0B       		.uleb128 0xb
 2314 0023 3E       		.uleb128 0x3e
 2315 0024 0B       		.uleb128 0xb
 2316 0025 03       		.uleb128 0x3
 2317 0026 08       		.uleb128 0x8
 2318 0027 00       		.byte	0
 2319 0028 00       		.byte	0
 2320 0029 04       		.uleb128 0x4
 2321 002a 16       		.uleb128 0x16
 2322 002b 00       		.byte	0
 2323 002c 03       		.uleb128 0x3
 2324 002d 0E       		.uleb128 0xe
 2325 002e 3A       		.uleb128 0x3a
 2326 002f 0B       		.uleb128 0xb
 2327 0030 3B       		.uleb128 0x3b
 2328 0031 05       		.uleb128 0x5
 2329 0032 49       		.uleb128 0x49
 2330 0033 13       		.uleb128 0x13
 2331 0034 00       		.byte	0
 2332 0035 00       		.byte	0
 2333 0036 05       		.uleb128 0x5
 2334 0037 35       		.uleb128 0x35
 2335 0038 00       		.byte	0
 2336 0039 49       		.uleb128 0x49
 2337 003a 13       		.uleb128 0x13
 2338 003b 00       		.byte	0
 2339 003c 00       		.byte	0
 2340 003d 06       		.uleb128 0x6
 2341 003e 2E       		.uleb128 0x2e
 2342 003f 01       		.byte	0x1
 2343 0040 3F       		.uleb128 0x3f
 2344 0041 19       		.uleb128 0x19
 2345 0042 03       		.uleb128 0x3
 2346 0043 0E       		.uleb128 0xe
 2347 0044 3A       		.uleb128 0x3a
 2348 0045 0B       		.uleb128 0xb
 2349 0046 3B       		.uleb128 0x3b
 2350 0047 0B       		.uleb128 0xb
 2351 0048 27       		.uleb128 0x27
 2352 0049 19       		.uleb128 0x19
 2353 004a 11       		.uleb128 0x11
 2354 004b 01       		.uleb128 0x1
 2355 004c 12       		.uleb128 0x12
 2356 004d 06       		.uleb128 0x6
 2357 004e 40       		.uleb128 0x40
 2358 004f 18       		.uleb128 0x18
 2359 0050 9742     		.uleb128 0x2117
 2360 0052 19       		.uleb128 0x19
 2361 0053 01       		.uleb128 0x1
 2362 0054 13       		.uleb128 0x13
 2363 0055 00       		.byte	0
 2364 0056 00       		.byte	0
 2365 0057 07       		.uleb128 0x7
 2366 0058 34       		.uleb128 0x34
 2367 0059 00       		.byte	0
 2368 005a 03       		.uleb128 0x3
ARM GAS  C:\Users\Luggi\AppData\Local\Temp\ccujN3Qb.s 			page 104


 2369 005b 0E       		.uleb128 0xe
 2370 005c 3A       		.uleb128 0x3a
 2371 005d 0B       		.uleb128 0xb
 2372 005e 3B       		.uleb128 0x3b
 2373 005f 0B       		.uleb128 0xb
 2374 0060 49       		.uleb128 0x49
 2375 0061 13       		.uleb128 0x13
 2376 0062 02       		.uleb128 0x2
 2377 0063 17       		.uleb128 0x17
 2378 0064 00       		.byte	0
 2379 0065 00       		.byte	0
 2380 0066 08       		.uleb128 0x8
 2381 0067 898201   		.uleb128 0x4109
 2382 006a 00       		.byte	0
 2383 006b 11       		.uleb128 0x11
 2384 006c 01       		.uleb128 0x1
 2385 006d 31       		.uleb128 0x31
 2386 006e 13       		.uleb128 0x13
 2387 006f 00       		.byte	0
 2388 0070 00       		.byte	0
 2389 0071 09       		.uleb128 0x9
 2390 0072 2E       		.uleb128 0x2e
 2391 0073 01       		.byte	0x1
 2392 0074 3F       		.uleb128 0x3f
 2393 0075 19       		.uleb128 0x19
 2394 0076 03       		.uleb128 0x3
 2395 0077 0E       		.uleb128 0xe
 2396 0078 3A       		.uleb128 0x3a
 2397 0079 0B       		.uleb128 0xb
 2398 007a 3B       		.uleb128 0x3b
 2399 007b 0B       		.uleb128 0xb
 2400 007c 27       		.uleb128 0x27
 2401 007d 19       		.uleb128 0x19
 2402 007e 49       		.uleb128 0x49
 2403 007f 13       		.uleb128 0x13
 2404 0080 11       		.uleb128 0x11
 2405 0081 01       		.uleb128 0x1
 2406 0082 12       		.uleb128 0x12
 2407 0083 06       		.uleb128 0x6
 2408 0084 40       		.uleb128 0x40
 2409 0085 18       		.uleb128 0x18
 2410 0086 9742     		.uleb128 0x2117
 2411 0088 19       		.uleb128 0x19
 2412 0089 01       		.uleb128 0x1
 2413 008a 13       		.uleb128 0x13
 2414 008b 00       		.byte	0
 2415 008c 00       		.byte	0
 2416 008d 0A       		.uleb128 0xa
 2417 008e 05       		.uleb128 0x5
 2418 008f 00       		.byte	0
 2419 0090 03       		.uleb128 0x3
 2420 0091 0E       		.uleb128 0xe
 2421 0092 3A       		.uleb128 0x3a
 2422 0093 0B       		.uleb128 0xb
 2423 0094 3B       		.uleb128 0x3b
 2424 0095 0B       		.uleb128 0xb
 2425 0096 49       		.uleb128 0x49
ARM GAS  C:\Users\Luggi\AppData\Local\Temp\ccujN3Qb.s 			page 105


 2426 0097 13       		.uleb128 0x13
 2427 0098 02       		.uleb128 0x2
 2428 0099 17       		.uleb128 0x17
 2429 009a 00       		.byte	0
 2430 009b 00       		.byte	0
 2431 009c 0B       		.uleb128 0xb
 2432 009d 34       		.uleb128 0x34
 2433 009e 00       		.byte	0
 2434 009f 03       		.uleb128 0x3
 2435 00a0 08       		.uleb128 0x8
 2436 00a1 3A       		.uleb128 0x3a
 2437 00a2 0B       		.uleb128 0xb
 2438 00a3 3B       		.uleb128 0x3b
 2439 00a4 0B       		.uleb128 0xb
 2440 00a5 49       		.uleb128 0x49
 2441 00a6 13       		.uleb128 0x13
 2442 00a7 02       		.uleb128 0x2
 2443 00a8 17       		.uleb128 0x17
 2444 00a9 00       		.byte	0
 2445 00aa 00       		.byte	0
 2446 00ab 0C       		.uleb128 0xc
 2447 00ac 898201   		.uleb128 0x4109
 2448 00af 01       		.byte	0x1
 2449 00b0 11       		.uleb128 0x11
 2450 00b1 01       		.uleb128 0x1
 2451 00b2 31       		.uleb128 0x31
 2452 00b3 13       		.uleb128 0x13
 2453 00b4 00       		.byte	0
 2454 00b5 00       		.byte	0
 2455 00b6 0D       		.uleb128 0xd
 2456 00b7 8A8201   		.uleb128 0x410a
 2457 00ba 00       		.byte	0
 2458 00bb 02       		.uleb128 0x2
 2459 00bc 18       		.uleb128 0x18
 2460 00bd 9142     		.uleb128 0x2111
 2461 00bf 18       		.uleb128 0x18
 2462 00c0 00       		.byte	0
 2463 00c1 00       		.byte	0
 2464 00c2 0E       		.uleb128 0xe
 2465 00c3 0F       		.uleb128 0xf
 2466 00c4 00       		.byte	0
 2467 00c5 0B       		.uleb128 0xb
 2468 00c6 0B       		.uleb128 0xb
 2469 00c7 49       		.uleb128 0x49
 2470 00c8 13       		.uleb128 0x13
 2471 00c9 00       		.byte	0
 2472 00ca 00       		.byte	0
 2473 00cb 0F       		.uleb128 0xf
 2474 00cc 05       		.uleb128 0x5
 2475 00cd 00       		.byte	0
 2476 00ce 03       		.uleb128 0x3
 2477 00cf 0E       		.uleb128 0xe
 2478 00d0 3A       		.uleb128 0x3a
 2479 00d1 0B       		.uleb128 0xb
 2480 00d2 3B       		.uleb128 0x3b
 2481 00d3 0B       		.uleb128 0xb
 2482 00d4 49       		.uleb128 0x49
ARM GAS  C:\Users\Luggi\AppData\Local\Temp\ccujN3Qb.s 			page 106


 2483 00d5 13       		.uleb128 0x13
 2484 00d6 02       		.uleb128 0x2
 2485 00d7 18       		.uleb128 0x18
 2486 00d8 00       		.byte	0
 2487 00d9 00       		.byte	0
 2488 00da 10       		.uleb128 0x10
 2489 00db 26       		.uleb128 0x26
 2490 00dc 00       		.byte	0
 2491 00dd 49       		.uleb128 0x49
 2492 00de 13       		.uleb128 0x13
 2493 00df 00       		.byte	0
 2494 00e0 00       		.byte	0
 2495 00e1 11       		.uleb128 0x11
 2496 00e2 2E       		.uleb128 0x2e
 2497 00e3 01       		.byte	0x1
 2498 00e4 3F       		.uleb128 0x3f
 2499 00e5 19       		.uleb128 0x19
 2500 00e6 03       		.uleb128 0x3
 2501 00e7 0E       		.uleb128 0xe
 2502 00e8 3A       		.uleb128 0x3a
 2503 00e9 0B       		.uleb128 0xb
 2504 00ea 3B       		.uleb128 0x3b
 2505 00eb 05       		.uleb128 0x5
 2506 00ec 27       		.uleb128 0x27
 2507 00ed 19       		.uleb128 0x19
 2508 00ee 49       		.uleb128 0x49
 2509 00ef 13       		.uleb128 0x13
 2510 00f0 11       		.uleb128 0x11
 2511 00f1 01       		.uleb128 0x1
 2512 00f2 12       		.uleb128 0x12
 2513 00f3 06       		.uleb128 0x6
 2514 00f4 40       		.uleb128 0x40
 2515 00f5 18       		.uleb128 0x18
 2516 00f6 9742     		.uleb128 0x2117
 2517 00f8 19       		.uleb128 0x19
 2518 00f9 01       		.uleb128 0x1
 2519 00fa 13       		.uleb128 0x13
 2520 00fb 00       		.byte	0
 2521 00fc 00       		.byte	0
 2522 00fd 12       		.uleb128 0x12
 2523 00fe 05       		.uleb128 0x5
 2524 00ff 00       		.byte	0
 2525 0100 03       		.uleb128 0x3
 2526 0101 0E       		.uleb128 0xe
 2527 0102 3A       		.uleb128 0x3a
 2528 0103 0B       		.uleb128 0xb
 2529 0104 3B       		.uleb128 0x3b
 2530 0105 05       		.uleb128 0x5
 2531 0106 49       		.uleb128 0x49
 2532 0107 13       		.uleb128 0x13
 2533 0108 02       		.uleb128 0x2
 2534 0109 17       		.uleb128 0x17
 2535 010a 00       		.byte	0
 2536 010b 00       		.byte	0
 2537 010c 13       		.uleb128 0x13
 2538 010d 05       		.uleb128 0x5
 2539 010e 00       		.byte	0
ARM GAS  C:\Users\Luggi\AppData\Local\Temp\ccujN3Qb.s 			page 107


 2540 010f 03       		.uleb128 0x3
 2541 0110 08       		.uleb128 0x8
 2542 0111 3A       		.uleb128 0x3a
 2543 0112 0B       		.uleb128 0xb
 2544 0113 3B       		.uleb128 0x3b
 2545 0114 05       		.uleb128 0x5
 2546 0115 49       		.uleb128 0x49
 2547 0116 13       		.uleb128 0x13
 2548 0117 02       		.uleb128 0x2
 2549 0118 17       		.uleb128 0x17
 2550 0119 00       		.byte	0
 2551 011a 00       		.byte	0
 2552 011b 14       		.uleb128 0x14
 2553 011c 34       		.uleb128 0x34
 2554 011d 00       		.byte	0
 2555 011e 03       		.uleb128 0x3
 2556 011f 0E       		.uleb128 0xe
 2557 0120 3A       		.uleb128 0x3a
 2558 0121 0B       		.uleb128 0xb
 2559 0122 3B       		.uleb128 0x3b
 2560 0123 05       		.uleb128 0x5
 2561 0124 49       		.uleb128 0x49
 2562 0125 13       		.uleb128 0x13
 2563 0126 02       		.uleb128 0x2
 2564 0127 17       		.uleb128 0x17
 2565 0128 00       		.byte	0
 2566 0129 00       		.byte	0
 2567 012a 15       		.uleb128 0x15
 2568 012b 34       		.uleb128 0x34
 2569 012c 00       		.byte	0
 2570 012d 03       		.uleb128 0x3
 2571 012e 08       		.uleb128 0x8
 2572 012f 3A       		.uleb128 0x3a
 2573 0130 0B       		.uleb128 0xb
 2574 0131 3B       		.uleb128 0x3b
 2575 0132 05       		.uleb128 0x5
 2576 0133 49       		.uleb128 0x49
 2577 0134 13       		.uleb128 0x13
 2578 0135 02       		.uleb128 0x2
 2579 0136 17       		.uleb128 0x17
 2580 0137 00       		.byte	0
 2581 0138 00       		.byte	0
 2582 0139 16       		.uleb128 0x16
 2583 013a 05       		.uleb128 0x5
 2584 013b 00       		.byte	0
 2585 013c 03       		.uleb128 0x3
 2586 013d 0E       		.uleb128 0xe
 2587 013e 3A       		.uleb128 0x3a
 2588 013f 0B       		.uleb128 0xb
 2589 0140 3B       		.uleb128 0x3b
 2590 0141 05       		.uleb128 0x5
 2591 0142 49       		.uleb128 0x49
 2592 0143 13       		.uleb128 0x13
 2593 0144 02       		.uleb128 0x2
 2594 0145 18       		.uleb128 0x18
 2595 0146 00       		.byte	0
 2596 0147 00       		.byte	0
ARM GAS  C:\Users\Luggi\AppData\Local\Temp\ccujN3Qb.s 			page 108


 2597 0148 17       		.uleb128 0x17
 2598 0149 2E       		.uleb128 0x2e
 2599 014a 01       		.byte	0x1
 2600 014b 3F       		.uleb128 0x3f
 2601 014c 19       		.uleb128 0x19
 2602 014d 03       		.uleb128 0x3
 2603 014e 0E       		.uleb128 0xe
 2604 014f 3A       		.uleb128 0x3a
 2605 0150 0B       		.uleb128 0xb
 2606 0151 3B       		.uleb128 0x3b
 2607 0152 05       		.uleb128 0x5
 2608 0153 27       		.uleb128 0x27
 2609 0154 19       		.uleb128 0x19
 2610 0155 11       		.uleb128 0x11
 2611 0156 01       		.uleb128 0x1
 2612 0157 12       		.uleb128 0x12
 2613 0158 06       		.uleb128 0x6
 2614 0159 40       		.uleb128 0x40
 2615 015a 18       		.uleb128 0x18
 2616 015b 9742     		.uleb128 0x2117
 2617 015d 19       		.uleb128 0x19
 2618 015e 01       		.uleb128 0x1
 2619 015f 13       		.uleb128 0x13
 2620 0160 00       		.byte	0
 2621 0161 00       		.byte	0
 2622 0162 18       		.uleb128 0x18
 2623 0163 34       		.uleb128 0x34
 2624 0164 00       		.byte	0
 2625 0165 03       		.uleb128 0x3
 2626 0166 0E       		.uleb128 0xe
 2627 0167 3A       		.uleb128 0x3a
 2628 0168 0B       		.uleb128 0xb
 2629 0169 3B       		.uleb128 0x3b
 2630 016a 0B       		.uleb128 0xb
 2631 016b 49       		.uleb128 0x49
 2632 016c 13       		.uleb128 0x13
 2633 016d 02       		.uleb128 0x2
 2634 016e 18       		.uleb128 0x18
 2635 016f 00       		.byte	0
 2636 0170 00       		.byte	0
 2637 0171 19       		.uleb128 0x19
 2638 0172 34       		.uleb128 0x34
 2639 0173 00       		.byte	0
 2640 0174 03       		.uleb128 0x3
 2641 0175 0E       		.uleb128 0xe
 2642 0176 3A       		.uleb128 0x3a
 2643 0177 0B       		.uleb128 0xb
 2644 0178 3B       		.uleb128 0x3b
 2645 0179 0B       		.uleb128 0xb
 2646 017a 49       		.uleb128 0x49
 2647 017b 13       		.uleb128 0x13
 2648 017c 3F       		.uleb128 0x3f
 2649 017d 19       		.uleb128 0x19
 2650 017e 02       		.uleb128 0x2
 2651 017f 18       		.uleb128 0x18
 2652 0180 00       		.byte	0
 2653 0181 00       		.byte	0
ARM GAS  C:\Users\Luggi\AppData\Local\Temp\ccujN3Qb.s 			page 109


 2654 0182 1A       		.uleb128 0x1a
 2655 0183 2E       		.uleb128 0x2e
 2656 0184 00       		.byte	0
 2657 0185 3F       		.uleb128 0x3f
 2658 0186 19       		.uleb128 0x19
 2659 0187 03       		.uleb128 0x3
 2660 0188 0E       		.uleb128 0xe
 2661 0189 3A       		.uleb128 0x3a
 2662 018a 0B       		.uleb128 0xb
 2663 018b 3B       		.uleb128 0x3b
 2664 018c 0B       		.uleb128 0xb
 2665 018d 27       		.uleb128 0x27
 2666 018e 19       		.uleb128 0x19
 2667 018f 49       		.uleb128 0x49
 2668 0190 13       		.uleb128 0x13
 2669 0191 3C       		.uleb128 0x3c
 2670 0192 19       		.uleb128 0x19
 2671 0193 00       		.byte	0
 2672 0194 00       		.byte	0
 2673 0195 1B       		.uleb128 0x1b
 2674 0196 2E       		.uleb128 0x2e
 2675 0197 01       		.byte	0x1
 2676 0198 3F       		.uleb128 0x3f
 2677 0199 19       		.uleb128 0x19
 2678 019a 03       		.uleb128 0x3
 2679 019b 0E       		.uleb128 0xe
 2680 019c 3A       		.uleb128 0x3a
 2681 019d 0B       		.uleb128 0xb
 2682 019e 3B       		.uleb128 0x3b
 2683 019f 0B       		.uleb128 0xb
 2684 01a0 27       		.uleb128 0x27
 2685 01a1 19       		.uleb128 0x19
 2686 01a2 3C       		.uleb128 0x3c
 2687 01a3 19       		.uleb128 0x19
 2688 01a4 01       		.uleb128 0x1
 2689 01a5 13       		.uleb128 0x13
 2690 01a6 00       		.byte	0
 2691 01a7 00       		.byte	0
 2692 01a8 1C       		.uleb128 0x1c
 2693 01a9 05       		.uleb128 0x5
 2694 01aa 00       		.byte	0
 2695 01ab 49       		.uleb128 0x49
 2696 01ac 13       		.uleb128 0x13
 2697 01ad 00       		.byte	0
 2698 01ae 00       		.byte	0
 2699 01af 1D       		.uleb128 0x1d
 2700 01b0 2E       		.uleb128 0x2e
 2701 01b1 01       		.byte	0x1
 2702 01b2 3F       		.uleb128 0x3f
 2703 01b3 19       		.uleb128 0x19
 2704 01b4 03       		.uleb128 0x3
 2705 01b5 0E       		.uleb128 0xe
 2706 01b6 3A       		.uleb128 0x3a
 2707 01b7 0B       		.uleb128 0xb
 2708 01b8 3B       		.uleb128 0x3b
 2709 01b9 0B       		.uleb128 0xb
 2710 01ba 27       		.uleb128 0x27
ARM GAS  C:\Users\Luggi\AppData\Local\Temp\ccujN3Qb.s 			page 110


 2711 01bb 19       		.uleb128 0x19
 2712 01bc 3C       		.uleb128 0x3c
 2713 01bd 19       		.uleb128 0x19
 2714 01be 00       		.byte	0
 2715 01bf 00       		.byte	0
 2716 01c0 00       		.byte	0
 2717              		.section	.debug_loc,"",%progbits
 2718              	.Ldebug_loc0:
 2719              	.LLST0:
 2720 0000 06000000 		.4byte	.LVL0
 2721 0004 1D000000 		.4byte	.LVL1-1
 2722 0008 0100     		.2byte	0x1
 2723 000a 50       		.byte	0x50
 2724 000b 00000000 		.4byte	0
 2725 000f 00000000 		.4byte	0
 2726              	.LLST1:
 2727 0013 06000000 		.4byte	.LVL2
 2728 0017 1D000000 		.4byte	.LVL3-1
 2729 001b 0100     		.2byte	0x1
 2730 001d 50       		.byte	0x50
 2731 001e 00000000 		.4byte	0
 2732 0022 00000000 		.4byte	0
 2733              	.LLST2:
 2734 0026 00000000 		.4byte	.LVL4
 2735 002a 0A000000 		.4byte	.LVL6
 2736 002e 0100     		.2byte	0x1
 2737 0030 50       		.byte	0x50
 2738 0031 0A000000 		.4byte	.LVL6
 2739 0035 2C000000 		.4byte	.LVL10
 2740 0039 0100     		.2byte	0x1
 2741 003b 56       		.byte	0x56
 2742 003c 2C000000 		.4byte	.LVL10
 2743 0040 34000000 		.4byte	.LFE2
 2744 0044 0400     		.2byte	0x4
 2745 0046 F3       		.byte	0xf3
 2746 0047 01       		.uleb128 0x1
 2747 0048 50       		.byte	0x50
 2748 0049 9F       		.byte	0x9f
 2749 004a 00000000 		.4byte	0
 2750 004e 00000000 		.4byte	0
 2751              	.LLST3:
 2752 0052 00000000 		.4byte	.LVL4
 2753 0056 0A000000 		.4byte	.LVL6
 2754 005a 0100     		.2byte	0x1
 2755 005c 51       		.byte	0x51
 2756 005d 0A000000 		.4byte	.LVL6
 2757 0061 34000000 		.4byte	.LFE2
 2758 0065 0400     		.2byte	0x4
 2759 0067 F3       		.byte	0xf3
 2760 0068 01       		.uleb128 0x1
 2761 0069 51       		.byte	0x51
 2762 006a 9F       		.byte	0x9f
 2763 006b 00000000 		.4byte	0
 2764 006f 00000000 		.4byte	0
 2765              	.LLST4:
 2766 0073 06000000 		.4byte	.LVL5
 2767 0077 0A000000 		.4byte	.LVL6
ARM GAS  C:\Users\Luggi\AppData\Local\Temp\ccujN3Qb.s 			page 111


 2768 007b 0200     		.2byte	0x2
 2769 007d 30       		.byte	0x30
 2770 007e 9F       		.byte	0x9f
 2771 007f 0A000000 		.4byte	.LVL6
 2772 0083 22000000 		.4byte	.LVL8
 2773 0087 0100     		.2byte	0x1
 2774 0089 54       		.byte	0x54
 2775 008a 24000000 		.4byte	.LVL9
 2776 008e 2C000000 		.4byte	.LVL10
 2777 0092 0100     		.2byte	0x1
 2778 0094 54       		.byte	0x54
 2779 0095 00000000 		.4byte	0
 2780 0099 00000000 		.4byte	0
 2781              	.LLST5:
 2782 009d 00000000 		.4byte	.LVL11
 2783 00a1 3C000000 		.4byte	.LVL13
 2784 00a5 0100     		.2byte	0x1
 2785 00a7 50       		.byte	0x50
 2786 00a8 3C000000 		.4byte	.LVL13
 2787 00ac 3E000000 		.4byte	.LVL14
 2788 00b0 0200     		.2byte	0x2
 2789 00b2 74       		.byte	0x74
 2790 00b3 00       		.sleb128 0
 2791 00b4 3E000000 		.4byte	.LVL14
 2792 00b8 5E000000 		.4byte	.LVL20
 2793 00bc 0400     		.2byte	0x4
 2794 00be F3       		.byte	0xf3
 2795 00bf 01       		.uleb128 0x1
 2796 00c0 50       		.byte	0x50
 2797 00c1 9F       		.byte	0x9f
 2798 00c2 5E000000 		.4byte	.LVL20
 2799 00c6 60000000 		.4byte	.LVL21
 2800 00ca 0100     		.2byte	0x1
 2801 00cc 50       		.byte	0x50
 2802 00cd 60000000 		.4byte	.LVL21
 2803 00d1 62000000 		.4byte	.LVL22
 2804 00d5 0400     		.2byte	0x4
 2805 00d7 F3       		.byte	0xf3
 2806 00d8 01       		.uleb128 0x1
 2807 00d9 50       		.byte	0x50
 2808 00da 9F       		.byte	0x9f
 2809 00db 62000000 		.4byte	.LVL22
 2810 00df 64000000 		.4byte	.LVL23
 2811 00e3 0100     		.2byte	0x1
 2812 00e5 50       		.byte	0x50
 2813 00e6 64000000 		.4byte	.LVL23
 2814 00ea 66000000 		.4byte	.LVL24
 2815 00ee 0400     		.2byte	0x4
 2816 00f0 F3       		.byte	0xf3
 2817 00f1 01       		.uleb128 0x1
 2818 00f2 50       		.byte	0x50
 2819 00f3 9F       		.byte	0x9f
 2820 00f4 66000000 		.4byte	.LVL24
 2821 00f8 68000000 		.4byte	.LVL25
 2822 00fc 0100     		.2byte	0x1
 2823 00fe 50       		.byte	0x50
 2824 00ff 68000000 		.4byte	.LVL25
ARM GAS  C:\Users\Luggi\AppData\Local\Temp\ccujN3Qb.s 			page 112


 2825 0103 6A000000 		.4byte	.LVL26
 2826 0107 0400     		.2byte	0x4
 2827 0109 F3       		.byte	0xf3
 2828 010a 01       		.uleb128 0x1
 2829 010b 50       		.byte	0x50
 2830 010c 9F       		.byte	0x9f
 2831 010d 6A000000 		.4byte	.LVL26
 2832 0111 6C000000 		.4byte	.LVL27
 2833 0115 0100     		.2byte	0x1
 2834 0117 50       		.byte	0x50
 2835 0118 6C000000 		.4byte	.LVL27
 2836 011c 78000000 		.4byte	.LFE3
 2837 0120 0400     		.2byte	0x4
 2838 0122 F3       		.byte	0xf3
 2839 0123 01       		.uleb128 0x1
 2840 0124 50       		.byte	0x50
 2841 0125 9F       		.byte	0x9f
 2842 0126 00000000 		.4byte	0
 2843 012a 00000000 		.4byte	0
 2844              	.LLST6:
 2845 012e 00000000 		.4byte	.LVL11
 2846 0132 40000000 		.4byte	.LVL15
 2847 0136 0100     		.2byte	0x1
 2848 0138 51       		.byte	0x51
 2849 0139 40000000 		.4byte	.LVL15
 2850 013d 5E000000 		.4byte	.LVL20
 2851 0141 0400     		.2byte	0x4
 2852 0143 F3       		.byte	0xf3
 2853 0144 01       		.uleb128 0x1
 2854 0145 51       		.byte	0x51
 2855 0146 9F       		.byte	0x9f
 2856 0147 5E000000 		.4byte	.LVL20
 2857 014b 6C000000 		.4byte	.LVL27
 2858 014f 0100     		.2byte	0x1
 2859 0151 51       		.byte	0x51
 2860 0152 6C000000 		.4byte	.LVL27
 2861 0156 78000000 		.4byte	.LFE3
 2862 015a 0400     		.2byte	0x4
 2863 015c F3       		.byte	0xf3
 2864 015d 01       		.uleb128 0x1
 2865 015e 51       		.byte	0x51
 2866 015f 9F       		.byte	0x9f
 2867 0160 00000000 		.4byte	0
 2868 0164 00000000 		.4byte	0
 2869              	.LLST7:
 2870 0168 02000000 		.4byte	.LVL12
 2871 016c 6C000000 		.4byte	.LVL27
 2872 0170 0200     		.2byte	0x2
 2873 0172 37       		.byte	0x37
 2874 0173 9F       		.byte	0x9f
 2875 0174 6C000000 		.4byte	.LVL27
 2876 0178 78000000 		.4byte	.LFE3
 2877 017c 0100     		.2byte	0x1
 2878 017e 50       		.byte	0x50
 2879 017f 00000000 		.4byte	0
 2880 0183 00000000 		.4byte	0
 2881              	.LLST8:
ARM GAS  C:\Users\Luggi\AppData\Local\Temp\ccujN3Qb.s 			page 113


 2882 0187 48000000 		.4byte	.LVL16
 2883 018b 4C000000 		.4byte	.LVL17
 2884 018f 0200     		.2byte	0x2
 2885 0191 30       		.byte	0x30
 2886 0192 9F       		.byte	0x9f
 2887 0193 4C000000 		.4byte	.LVL17
 2888 0197 54000000 		.4byte	.LVL18
 2889 019b 0100     		.2byte	0x1
 2890 019d 51       		.byte	0x51
 2891 019e 56000000 		.4byte	.LVL19
 2892 01a2 5E000000 		.4byte	.LVL20
 2893 01a6 0100     		.2byte	0x1
 2894 01a8 51       		.byte	0x51
 2895 01a9 00000000 		.4byte	0
 2896 01ad 00000000 		.4byte	0
 2897              	.LLST9:
 2898 01b1 00000000 		.4byte	.LVL28
 2899 01b5 2C000000 		.4byte	.LVL30
 2900 01b9 0100     		.2byte	0x1
 2901 01bb 50       		.byte	0x50
 2902 01bc 2C000000 		.4byte	.LVL30
 2903 01c0 3E000000 		.4byte	.LVL33
 2904 01c4 0400     		.2byte	0x4
 2905 01c6 F3       		.byte	0xf3
 2906 01c7 01       		.uleb128 0x1
 2907 01c8 50       		.byte	0x50
 2908 01c9 9F       		.byte	0x9f
 2909 01ca 3E000000 		.4byte	.LVL33
 2910 01ce 40000000 		.4byte	.LVL34
 2911 01d2 0100     		.2byte	0x1
 2912 01d4 50       		.byte	0x50
 2913 01d5 40000000 		.4byte	.LVL34
 2914 01d9 42000000 		.4byte	.LVL35
 2915 01dd 0400     		.2byte	0x4
 2916 01df F3       		.byte	0xf3
 2917 01e0 01       		.uleb128 0x1
 2918 01e1 50       		.byte	0x50
 2919 01e2 9F       		.byte	0x9f
 2920 01e3 42000000 		.4byte	.LVL35
 2921 01e7 44000000 		.4byte	.LVL36
 2922 01eb 0100     		.2byte	0x1
 2923 01ed 50       		.byte	0x50
 2924 01ee 44000000 		.4byte	.LVL36
 2925 01f2 54000000 		.4byte	.LFE4
 2926 01f6 0400     		.2byte	0x4
 2927 01f8 F3       		.byte	0xf3
 2928 01f9 01       		.uleb128 0x1
 2929 01fa 50       		.byte	0x50
 2930 01fb 9F       		.byte	0x9f
 2931 01fc 00000000 		.4byte	0
 2932 0200 00000000 		.4byte	0
 2933              	.LLST10:
 2934 0204 00000000 		.4byte	.LVL28
 2935 0208 40000000 		.4byte	.LVL34
 2936 020c 0200     		.2byte	0x2
 2937 020e 37       		.byte	0x37
 2938 020f 9F       		.byte	0x9f
ARM GAS  C:\Users\Luggi\AppData\Local\Temp\ccujN3Qb.s 			page 114


 2939 0210 40000000 		.4byte	.LVL34
 2940 0214 42000000 		.4byte	.LVL35
 2941 0218 0100     		.2byte	0x1
 2942 021a 50       		.byte	0x50
 2943 021b 42000000 		.4byte	.LVL35
 2944 021f 44000000 		.4byte	.LVL36
 2945 0223 0200     		.2byte	0x2
 2946 0225 37       		.byte	0x37
 2947 0226 9F       		.byte	0x9f
 2948 0227 44000000 		.4byte	.LVL36
 2949 022b 54000000 		.4byte	.LFE4
 2950 022f 0100     		.2byte	0x1
 2951 0231 50       		.byte	0x50
 2952 0232 00000000 		.4byte	0
 2953 0236 00000000 		.4byte	0
 2954              	.LLST11:
 2955 023a 28000000 		.4byte	.LVL29
 2956 023e 2C000000 		.4byte	.LVL30
 2957 0242 0200     		.2byte	0x2
 2958 0244 30       		.byte	0x30
 2959 0245 9F       		.byte	0x9f
 2960 0246 2C000000 		.4byte	.LVL30
 2961 024a 34000000 		.4byte	.LVL31
 2962 024e 0100     		.2byte	0x1
 2963 0250 53       		.byte	0x53
 2964 0251 36000000 		.4byte	.LVL32
 2965 0255 3E000000 		.4byte	.LVL33
 2966 0259 0100     		.2byte	0x1
 2967 025b 53       		.byte	0x53
 2968 025c 00000000 		.4byte	0
 2969 0260 00000000 		.4byte	0
 2970              	.LLST12:
 2971 0264 00000000 		.4byte	.LVL37
 2972 0268 48000000 		.4byte	.LVL43
 2973 026c 0100     		.2byte	0x1
 2974 026e 50       		.byte	0x50
 2975 026f 48000000 		.4byte	.LVL43
 2976 0273 66000000 		.4byte	.LVL51
 2977 0277 0400     		.2byte	0x4
 2978 0279 F3       		.byte	0xf3
 2979 027a 01       		.uleb128 0x1
 2980 027b 50       		.byte	0x50
 2981 027c 9F       		.byte	0x9f
 2982 027d 66000000 		.4byte	.LVL51
 2983 0281 68000000 		.4byte	.LVL52
 2984 0285 0100     		.2byte	0x1
 2985 0287 50       		.byte	0x50
 2986 0288 68000000 		.4byte	.LVL52
 2987 028c 6A000000 		.4byte	.LVL53
 2988 0290 0400     		.2byte	0x4
 2989 0292 F3       		.byte	0xf3
 2990 0293 01       		.uleb128 0x1
 2991 0294 50       		.byte	0x50
 2992 0295 9F       		.byte	0x9f
 2993 0296 6A000000 		.4byte	.LVL53
 2994 029a 6C000000 		.4byte	.LVL54
 2995 029e 0100     		.2byte	0x1
ARM GAS  C:\Users\Luggi\AppData\Local\Temp\ccujN3Qb.s 			page 115


 2996 02a0 50       		.byte	0x50
 2997 02a1 6C000000 		.4byte	.LVL54
 2998 02a5 6E000000 		.4byte	.LVL55
 2999 02a9 0400     		.2byte	0x4
 3000 02ab F3       		.byte	0xf3
 3001 02ac 01       		.uleb128 0x1
 3002 02ad 50       		.byte	0x50
 3003 02ae 9F       		.byte	0x9f
 3004 02af 6E000000 		.4byte	.LVL55
 3005 02b3 70000000 		.4byte	.LVL56
 3006 02b7 0100     		.2byte	0x1
 3007 02b9 50       		.byte	0x50
 3008 02ba 70000000 		.4byte	.LVL56
 3009 02be 72000000 		.4byte	.LVL57
 3010 02c2 0400     		.2byte	0x4
 3011 02c4 F3       		.byte	0xf3
 3012 02c5 01       		.uleb128 0x1
 3013 02c6 50       		.byte	0x50
 3014 02c7 9F       		.byte	0x9f
 3015 02c8 72000000 		.4byte	.LVL57
 3016 02cc 74000000 		.4byte	.LVL58
 3017 02d0 0100     		.2byte	0x1
 3018 02d2 50       		.byte	0x50
 3019 02d3 74000000 		.4byte	.LVL58
 3020 02d7 80000000 		.4byte	.LFE5
 3021 02db 0400     		.2byte	0x4
 3022 02dd F3       		.byte	0xf3
 3023 02de 01       		.uleb128 0x1
 3024 02df 50       		.byte	0x50
 3025 02e0 9F       		.byte	0x9f
 3026 02e1 00000000 		.4byte	0
 3027 02e5 00000000 		.4byte	0
 3028              	.LLST13:
 3029 02e9 00000000 		.4byte	.LVL37
 3030 02ed 4C000000 		.4byte	.LVL44
 3031 02f1 0100     		.2byte	0x1
 3032 02f3 51       		.byte	0x51
 3033 02f4 4C000000 		.4byte	.LVL44
 3034 02f8 66000000 		.4byte	.LVL51
 3035 02fc 0400     		.2byte	0x4
 3036 02fe F3       		.byte	0xf3
 3037 02ff 01       		.uleb128 0x1
 3038 0300 51       		.byte	0x51
 3039 0301 9F       		.byte	0x9f
 3040 0302 66000000 		.4byte	.LVL51
 3041 0306 74000000 		.4byte	.LVL58
 3042 030a 0100     		.2byte	0x1
 3043 030c 51       		.byte	0x51
 3044 030d 74000000 		.4byte	.LVL58
 3045 0311 80000000 		.4byte	.LFE5
 3046 0315 0400     		.2byte	0x4
 3047 0317 F3       		.byte	0xf3
 3048 0318 01       		.uleb128 0x1
 3049 0319 51       		.byte	0x51
 3050 031a 9F       		.byte	0x9f
 3051 031b 00000000 		.4byte	0
 3052 031f 00000000 		.4byte	0
ARM GAS  C:\Users\Luggi\AppData\Local\Temp\ccujN3Qb.s 			page 116


 3053              	.LLST14:
 3054 0323 00000000 		.4byte	.LVL37
 3055 0327 52000000 		.4byte	.LVL47
 3056 032b 0100     		.2byte	0x1
 3057 032d 52       		.byte	0x52
 3058 032e 52000000 		.4byte	.LVL47
 3059 0332 66000000 		.4byte	.LVL51
 3060 0336 0400     		.2byte	0x4
 3061 0338 F3       		.byte	0xf3
 3062 0339 01       		.uleb128 0x1
 3063 033a 52       		.byte	0x52
 3064 033b 9F       		.byte	0x9f
 3065 033c 66000000 		.4byte	.LVL51
 3066 0340 74000000 		.4byte	.LVL58
 3067 0344 0100     		.2byte	0x1
 3068 0346 52       		.byte	0x52
 3069 0347 74000000 		.4byte	.LVL58
 3070 034b 80000000 		.4byte	.LFE5
 3071 034f 0400     		.2byte	0x4
 3072 0351 F3       		.byte	0xf3
 3073 0352 01       		.uleb128 0x1
 3074 0353 52       		.byte	0x52
 3075 0354 9F       		.byte	0x9f
 3076 0355 00000000 		.4byte	0
 3077 0359 00000000 		.4byte	0
 3078              	.LLST15:
 3079 035d 00000000 		.4byte	.LVL37
 3080 0361 50000000 		.4byte	.LVL46
 3081 0365 0100     		.2byte	0x1
 3082 0367 53       		.byte	0x53
 3083 0368 50000000 		.4byte	.LVL46
 3084 036c 66000000 		.4byte	.LVL51
 3085 0370 0400     		.2byte	0x4
 3086 0372 F3       		.byte	0xf3
 3087 0373 01       		.uleb128 0x1
 3088 0374 53       		.byte	0x53
 3089 0375 9F       		.byte	0x9f
 3090 0376 66000000 		.4byte	.LVL51
 3091 037a 74000000 		.4byte	.LVL58
 3092 037e 0100     		.2byte	0x1
 3093 0380 53       		.byte	0x53
 3094 0381 74000000 		.4byte	.LVL58
 3095 0385 80000000 		.4byte	.LFE5
 3096 0389 0400     		.2byte	0x4
 3097 038b F3       		.byte	0xf3
 3098 038c 01       		.uleb128 0x1
 3099 038d 53       		.byte	0x53
 3100 038e 9F       		.byte	0x9f
 3101 038f 00000000 		.4byte	0
 3102 0393 00000000 		.4byte	0
 3103              	.LLST16:
 3104 0397 02000000 		.4byte	.LVL38
 3105 039b 74000000 		.4byte	.LVL58
 3106 039f 0200     		.2byte	0x2
 3107 03a1 37       		.byte	0x37
 3108 03a2 9F       		.byte	0x9f
 3109 03a3 74000000 		.4byte	.LVL58
ARM GAS  C:\Users\Luggi\AppData\Local\Temp\ccujN3Qb.s 			page 117


 3110 03a7 80000000 		.4byte	.LFE5
 3111 03ab 0100     		.2byte	0x1
 3112 03ad 50       		.byte	0x50
 3113 03ae 00000000 		.4byte	0
 3114 03b2 00000000 		.4byte	0
 3115              	.LLST17:
 3116 03b6 28000000 		.4byte	.LVL39
 3117 03ba 2C000000 		.4byte	.LVL40
 3118 03be 0200     		.2byte	0x2
 3119 03c0 30       		.byte	0x30
 3120 03c1 9F       		.byte	0x9f
 3121 03c2 2C000000 		.4byte	.LVL40
 3122 03c6 34000000 		.4byte	.LVL41
 3123 03ca 0100     		.2byte	0x1
 3124 03cc 54       		.byte	0x54
 3125 03cd 36000000 		.4byte	.LVL42
 3126 03d1 4E000000 		.4byte	.LVL45
 3127 03d5 0100     		.2byte	0x1
 3128 03d7 54       		.byte	0x54
 3129 03d8 4E000000 		.4byte	.LVL45
 3130 03dc 52000000 		.4byte	.LVL47
 3131 03e0 0200     		.2byte	0x2
 3132 03e2 30       		.byte	0x30
 3133 03e3 9F       		.byte	0x9f
 3134 03e4 52000000 		.4byte	.LVL47
 3135 03e8 5C000000 		.4byte	.LVL48
 3136 03ec 0100     		.2byte	0x1
 3137 03ee 53       		.byte	0x53
 3138 03ef 5E000000 		.4byte	.LVL49
 3139 03f3 66000000 		.4byte	.LVL51
 3140 03f7 0100     		.2byte	0x1
 3141 03f9 53       		.byte	0x53
 3142 03fa 6E000000 		.4byte	.LVL55
 3143 03fe 74000000 		.4byte	.LVL58
 3144 0402 0100     		.2byte	0x1
 3145 0404 54       		.byte	0x54
 3146 0405 00000000 		.4byte	0
 3147 0409 00000000 		.4byte	0
 3148              	.LLST18:
 3149 040d 4E000000 		.4byte	.LVL45
 3150 0411 64000000 		.4byte	.LVL50
 3151 0415 0100     		.2byte	0x1
 3152 0417 50       		.byte	0x50
 3153 0418 00000000 		.4byte	0
 3154 041c 00000000 		.4byte	0
 3155              	.LLST19:
 3156 0420 00000000 		.4byte	.LVL59
 3157 0424 2A000000 		.4byte	.LVL61
 3158 0428 0100     		.2byte	0x1
 3159 042a 50       		.byte	0x50
 3160 042b 2A000000 		.4byte	.LVL61
 3161 042f 2C000000 		.4byte	.LVL62
 3162 0433 0200     		.2byte	0x2
 3163 0435 74       		.byte	0x74
 3164 0436 00       		.sleb128 0
 3165 0437 2C000000 		.4byte	.LVL62
 3166 043b 38000000 		.4byte	.LVL64
ARM GAS  C:\Users\Luggi\AppData\Local\Temp\ccujN3Qb.s 			page 118


 3167 043f 0400     		.2byte	0x4
 3168 0441 F3       		.byte	0xf3
 3169 0442 01       		.uleb128 0x1
 3170 0443 50       		.byte	0x50
 3171 0444 9F       		.byte	0x9f
 3172 0445 38000000 		.4byte	.LVL64
 3173 0449 3A000000 		.4byte	.LVL65
 3174 044d 0100     		.2byte	0x1
 3175 044f 50       		.byte	0x50
 3176 0450 3A000000 		.4byte	.LVL65
 3177 0454 3C000000 		.4byte	.LVL66
 3178 0458 0400     		.2byte	0x4
 3179 045a F3       		.byte	0xf3
 3180 045b 01       		.uleb128 0x1
 3181 045c 50       		.byte	0x50
 3182 045d 9F       		.byte	0x9f
 3183 045e 3C000000 		.4byte	.LVL66
 3184 0462 3E000000 		.4byte	.LVL67
 3185 0466 0100     		.2byte	0x1
 3186 0468 50       		.byte	0x50
 3187 0469 3E000000 		.4byte	.LVL67
 3188 046d 4C000000 		.4byte	.LFE6
 3189 0471 0400     		.2byte	0x4
 3190 0473 F3       		.byte	0xf3
 3191 0474 01       		.uleb128 0x1
 3192 0475 50       		.byte	0x50
 3193 0476 9F       		.byte	0x9f
 3194 0477 00000000 		.4byte	0
 3195 047b 00000000 		.4byte	0
 3196              	.LLST20:
 3197 047f 00000000 		.4byte	.LVL59
 3198 0483 2E000000 		.4byte	.LVL63
 3199 0487 0100     		.2byte	0x1
 3200 0489 51       		.byte	0x51
 3201 048a 2E000000 		.4byte	.LVL63
 3202 048e 38000000 		.4byte	.LVL64
 3203 0492 0400     		.2byte	0x4
 3204 0494 F3       		.byte	0xf3
 3205 0495 01       		.uleb128 0x1
 3206 0496 51       		.byte	0x51
 3207 0497 9F       		.byte	0x9f
 3208 0498 38000000 		.4byte	.LVL64
 3209 049c 3E000000 		.4byte	.LVL67
 3210 04a0 0100     		.2byte	0x1
 3211 04a2 51       		.byte	0x51
 3212 04a3 3E000000 		.4byte	.LVL67
 3213 04a7 4C000000 		.4byte	.LFE6
 3214 04ab 0400     		.2byte	0x4
 3215 04ad F3       		.byte	0xf3
 3216 04ae 01       		.uleb128 0x1
 3217 04af 51       		.byte	0x51
 3218 04b0 9F       		.byte	0x9f
 3219 04b1 00000000 		.4byte	0
 3220 04b5 00000000 		.4byte	0
 3221              	.LLST21:
 3222 04b9 02000000 		.4byte	.LVL60
 3223 04bd 3E000000 		.4byte	.LVL67
ARM GAS  C:\Users\Luggi\AppData\Local\Temp\ccujN3Qb.s 			page 119


 3224 04c1 0200     		.2byte	0x2
 3225 04c3 37       		.byte	0x37
 3226 04c4 9F       		.byte	0x9f
 3227 04c5 3E000000 		.4byte	.LVL67
 3228 04c9 4C000000 		.4byte	.LFE6
 3229 04cd 0100     		.2byte	0x1
 3230 04cf 50       		.byte	0x50
 3231 04d0 00000000 		.4byte	0
 3232 04d4 00000000 		.4byte	0
 3233              	.LLST22:
 3234 04d8 00000000 		.4byte	.LVL68
 3235 04dc 2A000000 		.4byte	.LVL69
 3236 04e0 0100     		.2byte	0x1
 3237 04e2 50       		.byte	0x50
 3238 04e3 2A000000 		.4byte	.LVL69
 3239 04e7 2C000000 		.4byte	.LVL70
 3240 04eb 0400     		.2byte	0x4
 3241 04ed F3       		.byte	0xf3
 3242 04ee 01       		.uleb128 0x1
 3243 04ef 50       		.byte	0x50
 3244 04f0 9F       		.byte	0x9f
 3245 04f1 2C000000 		.4byte	.LVL70
 3246 04f5 2E000000 		.4byte	.LVL71
 3247 04f9 0100     		.2byte	0x1
 3248 04fb 50       		.byte	0x50
 3249 04fc 2E000000 		.4byte	.LVL71
 3250 0500 30000000 		.4byte	.LVL72
 3251 0504 0400     		.2byte	0x4
 3252 0506 F3       		.byte	0xf3
 3253 0507 01       		.uleb128 0x1
 3254 0508 50       		.byte	0x50
 3255 0509 9F       		.byte	0x9f
 3256 050a 30000000 		.4byte	.LVL72
 3257 050e 32000000 		.4byte	.LVL73
 3258 0512 0100     		.2byte	0x1
 3259 0514 50       		.byte	0x50
 3260 0515 32000000 		.4byte	.LVL73
 3261 0519 3C000000 		.4byte	.LFE7
 3262 051d 0400     		.2byte	0x4
 3263 051f F3       		.byte	0xf3
 3264 0520 01       		.uleb128 0x1
 3265 0521 50       		.byte	0x50
 3266 0522 9F       		.byte	0x9f
 3267 0523 00000000 		.4byte	0
 3268 0527 00000000 		.4byte	0
 3269              	.LLST23:
 3270 052b 00000000 		.4byte	.LVL68
 3271 052f 32000000 		.4byte	.LVL73
 3272 0533 0200     		.2byte	0x2
 3273 0535 37       		.byte	0x37
 3274 0536 9F       		.byte	0x9f
 3275 0537 32000000 		.4byte	.LVL73
 3276 053b 3C000000 		.4byte	.LFE7
 3277 053f 0100     		.2byte	0x1
 3278 0541 50       		.byte	0x50
 3279 0542 00000000 		.4byte	0
 3280 0546 00000000 		.4byte	0
ARM GAS  C:\Users\Luggi\AppData\Local\Temp\ccujN3Qb.s 			page 120


 3281              	.LLST24:
 3282 054a 00000000 		.4byte	.LVL74
 3283 054e 28000000 		.4byte	.LVL75
 3284 0552 0100     		.2byte	0x1
 3285 0554 50       		.byte	0x50
 3286 0555 28000000 		.4byte	.LVL75
 3287 0559 2A000000 		.4byte	.LVL76
 3288 055d 0200     		.2byte	0x2
 3289 055f 73       		.byte	0x73
 3290 0560 00       		.sleb128 0
 3291 0561 2A000000 		.4byte	.LVL76
 3292 0565 2C000000 		.4byte	.LVL77
 3293 0569 0100     		.2byte	0x1
 3294 056b 50       		.byte	0x50
 3295 056c 2C000000 		.4byte	.LVL77
 3296 0570 2E000000 		.4byte	.LVL78
 3297 0574 0400     		.2byte	0x4
 3298 0576 F3       		.byte	0xf3
 3299 0577 01       		.uleb128 0x1
 3300 0578 50       		.byte	0x50
 3301 0579 9F       		.byte	0x9f
 3302 057a 2E000000 		.4byte	.LVL78
 3303 057e 30000000 		.4byte	.LVL79
 3304 0582 0100     		.2byte	0x1
 3305 0584 50       		.byte	0x50
 3306 0585 30000000 		.4byte	.LVL79
 3307 0589 3C000000 		.4byte	.LFE8
 3308 058d 0400     		.2byte	0x4
 3309 058f F3       		.byte	0xf3
 3310 0590 01       		.uleb128 0x1
 3311 0591 50       		.byte	0x50
 3312 0592 9F       		.byte	0x9f
 3313 0593 00000000 		.4byte	0
 3314 0597 00000000 		.4byte	0
 3315              	.LLST25:
 3316 059b 00000000 		.4byte	.LVL74
 3317 059f 30000000 		.4byte	.LVL79
 3318 05a3 0200     		.2byte	0x2
 3319 05a5 37       		.byte	0x37
 3320 05a6 9F       		.byte	0x9f
 3321 05a7 30000000 		.4byte	.LVL79
 3322 05ab 3C000000 		.4byte	.LFE8
 3323 05af 0100     		.2byte	0x1
 3324 05b1 50       		.byte	0x50
 3325 05b2 00000000 		.4byte	0
 3326 05b6 00000000 		.4byte	0
 3327              	.LLST26:
 3328 05ba 02000000 		.4byte	.LVL80
 3329 05be 12000000 		.4byte	.LVL82
 3330 05c2 0200     		.2byte	0x2
 3331 05c4 34       		.byte	0x34
 3332 05c5 9F       		.byte	0x9f
 3333 05c6 12000000 		.4byte	.LVL82
 3334 05ca 36000000 		.4byte	.LVL83
 3335 05ce 0200     		.2byte	0x2
 3336 05d0 30       		.byte	0x30
 3337 05d1 9F       		.byte	0x9f
ARM GAS  C:\Users\Luggi\AppData\Local\Temp\ccujN3Qb.s 			page 121


 3338 05d2 36000000 		.4byte	.LVL83
 3339 05d6 3A000000 		.4byte	.LVL84
 3340 05da 0200     		.2byte	0x2
 3341 05dc 34       		.byte	0x34
 3342 05dd 9F       		.byte	0x9f
 3343 05de 3A000000 		.4byte	.LVL84
 3344 05e2 3C000000 		.4byte	.LVL85
 3345 05e6 0200     		.2byte	0x2
 3346 05e8 30       		.byte	0x30
 3347 05e9 9F       		.byte	0x9f
 3348 05ea 3C000000 		.4byte	.LVL85
 3349 05ee 44000000 		.4byte	.LVL87
 3350 05f2 0100     		.2byte	0x1
 3351 05f4 54       		.byte	0x54
 3352 05f5 44000000 		.4byte	.LVL87
 3353 05f9 4C000000 		.4byte	.LFE9
 3354 05fd 0100     		.2byte	0x1
 3355 05ff 50       		.byte	0x50
 3356 0600 00000000 		.4byte	0
 3357 0604 00000000 		.4byte	0
 3358              	.LLST27:
 3359 0608 06000000 		.4byte	.LVL81
 3360 060c 3F000000 		.4byte	.LVL86-1
 3361 0610 0100     		.2byte	0x1
 3362 0612 50       		.byte	0x50
 3363 0613 00000000 		.4byte	0
 3364 0617 00000000 		.4byte	0
 3365              	.LLST28:
 3366 061b 06000000 		.4byte	.LVL88
 3367 061f 2B000000 		.4byte	.LVL89-1
 3368 0623 0100     		.2byte	0x1
 3369 0625 50       		.byte	0x50
 3370 0626 00000000 		.4byte	0
 3371 062a 00000000 		.4byte	0
 3372              	.LLST29:
 3373 062e 00000000 		.4byte	.LVL90
 3374 0632 1E000000 		.4byte	.LVL91
 3375 0636 0200     		.2byte	0x2
 3376 0638 37       		.byte	0x37
 3377 0639 9F       		.byte	0x9f
 3378 063a 1E000000 		.4byte	.LVL91
 3379 063e 28000000 		.4byte	.LFE11
 3380 0642 0100     		.2byte	0x1
 3381 0644 50       		.byte	0x50
 3382 0645 00000000 		.4byte	0
 3383 0649 00000000 		.4byte	0
 3384              		.section	.debug_aranges,"",%progbits
 3385 0000 74000000 		.4byte	0x74
 3386 0004 0200     		.2byte	0x2
 3387 0006 00000000 		.4byte	.Ldebug_info0
 3388 000a 04       		.byte	0x4
 3389 000b 00       		.byte	0
 3390 000c 0000     		.2byte	0
 3391 000e 0000     		.2byte	0
 3392 0010 00000000 		.4byte	.LFB0
 3393 0014 24000000 		.4byte	.LFE0-.LFB0
 3394 0018 00000000 		.4byte	.LFB1
ARM GAS  C:\Users\Luggi\AppData\Local\Temp\ccujN3Qb.s 			page 122


 3395 001c 24000000 		.4byte	.LFE1-.LFB1
 3396 0020 00000000 		.4byte	.LFB2
 3397 0024 34000000 		.4byte	.LFE2-.LFB2
 3398 0028 00000000 		.4byte	.LFB3
 3399 002c 78000000 		.4byte	.LFE3-.LFB3
 3400 0030 00000000 		.4byte	.LFB4
 3401 0034 54000000 		.4byte	.LFE4-.LFB4
 3402 0038 00000000 		.4byte	.LFB5
 3403 003c 80000000 		.4byte	.LFE5-.LFB5
 3404 0040 00000000 		.4byte	.LFB6
 3405 0044 4C000000 		.4byte	.LFE6-.LFB6
 3406 0048 00000000 		.4byte	.LFB7
 3407 004c 3C000000 		.4byte	.LFE7-.LFB7
 3408 0050 00000000 		.4byte	.LFB8
 3409 0054 3C000000 		.4byte	.LFE8-.LFB8
 3410 0058 00000000 		.4byte	.LFB9
 3411 005c 4C000000 		.4byte	.LFE9-.LFB9
 3412 0060 00000000 		.4byte	.LFB10
 3413 0064 38000000 		.4byte	.LFE10-.LFB10
 3414 0068 00000000 		.4byte	.LFB11
 3415 006c 28000000 		.4byte	.LFE11-.LFB11
 3416 0070 00000000 		.4byte	0
 3417 0074 00000000 		.4byte	0
 3418              		.section	.debug_ranges,"",%progbits
 3419              	.Ldebug_ranges0:
 3420 0000 00000000 		.4byte	.LFB0
 3421 0004 24000000 		.4byte	.LFE0
 3422 0008 00000000 		.4byte	.LFB1
 3423 000c 24000000 		.4byte	.LFE1
 3424 0010 00000000 		.4byte	.LFB2
 3425 0014 34000000 		.4byte	.LFE2
 3426 0018 00000000 		.4byte	.LFB3
 3427 001c 78000000 		.4byte	.LFE3
 3428 0020 00000000 		.4byte	.LFB4
 3429 0024 54000000 		.4byte	.LFE4
 3430 0028 00000000 		.4byte	.LFB5
 3431 002c 80000000 		.4byte	.LFE5
 3432 0030 00000000 		.4byte	.LFB6
 3433 0034 4C000000 		.4byte	.LFE6
 3434 0038 00000000 		.4byte	.LFB7
 3435 003c 3C000000 		.4byte	.LFE7
 3436 0040 00000000 		.4byte	.LFB8
 3437 0044 3C000000 		.4byte	.LFE8
 3438 0048 00000000 		.4byte	.LFB9
 3439 004c 4C000000 		.4byte	.LFE9
 3440 0050 00000000 		.4byte	.LFB10
 3441 0054 38000000 		.4byte	.LFE10
 3442 0058 00000000 		.4byte	.LFB11
 3443 005c 28000000 		.4byte	.LFE11
 3444 0060 00000000 		.4byte	0
 3445 0064 00000000 		.4byte	0
 3446              		.section	.debug_line,"",%progbits
 3447              	.Ldebug_line0:
 3448 0000 38020000 		.section	.debug_str,"MS",%progbits,1
 3448      02004D00 
 3448      00000201 
 3448      FB0E0D00 
ARM GAS  C:\Users\Luggi\AppData\Local\Temp\ccujN3Qb.s 			page 123


 3448      01010101 
 3449              	.LASF25:
 3450 0000 43795370 		.ascii	"CySpcLoadMultiByte\000"
 3450      634C6F61 
 3450      644D756C 
 3450      74694279 
 3450      746500
 3451              	.LASF15:
 3452 0013 63797374 		.ascii	"cystatus\000"
 3452      61747573 
 3452      00
 3453              	.LASF17:
 3454 001c 72656733 		.ascii	"reg32\000"
 3454      3200
 3455              	.LASF19:
 3456 0022 43795370 		.ascii	"CySpcStart\000"
 3456      63537461 
 3456      727400
 3457              	.LASF32:
 3458 002d 43795370 		.ascii	"CySpcWriteRow\000"
 3458      63577269 
 3458      7465526F 
 3458      7700
 3459              	.LASF20:
 3460 003b 43795370 		.ascii	"CySpcStop\000"
 3460      6353746F 
 3460      7000
 3461              	.LASF3:
 3462 0045 73686F72 		.ascii	"short unsigned int\000"
 3462      7420756E 
 3462      7369676E 
 3462      65642069 
 3462      6E7400
 3463              	.LASF24:
 3464 0058 43795370 		.ascii	"CySpcReadData\000"
 3464      63526561 
 3464      64446174 
 3464      6100
 3465              	.LASF28:
 3466 0066 73746174 		.ascii	"status\000"
 3466      757300
 3467              	.LASF12:
 3468 006d 666C6F61 		.ascii	"float\000"
 3468      7400
 3469              	.LASF7:
 3470 0073 6C6F6E67 		.ascii	"long long unsigned int\000"
 3470      206C6F6E 
 3470      6720756E 
 3470      7369676E 
 3470      65642069 
 3471              	.LASF45:
 3472 008a 433A5C55 		.ascii	"C:\\Users\\Luggi\\Documents\\GitHub\\laserschutzsch"
 3472      73657273 
 3472      5C4C7567 
 3472      67695C44 
 3472      6F63756D 
 3473 00b8 616C7475 		.ascii	"altung\\Laserschutzschaltung.cydsn\000"
ARM GAS  C:\Users\Luggi\AppData\Local\Temp\ccujN3Qb.s 			page 124


 3473      6E675C4C 
 3473      61736572 
 3473      73636875 
 3473      747A7363 
 3474              	.LASF23:
 3475 00da 73697A65 		.ascii	"size\000"
 3475      00
 3476              	.LASF16:
 3477 00df 72656738 		.ascii	"reg8\000"
 3477      00
 3478              	.LASF21:
 3479 00e4 696E7465 		.ascii	"interruptState\000"
 3479      72727570 
 3479      74537461 
 3479      746500
 3480              	.LASF5:
 3481 00f3 6C6F6E67 		.ascii	"long unsigned int\000"
 3481      20756E73 
 3481      69676E65 
 3481      6420696E 
 3481      7400
 3482              	.LASF9:
 3483 0105 75696E74 		.ascii	"uint8\000"
 3483      3800
 3484              	.LASF46:
 3485 010b 5370634C 		.ascii	"SpcLockState\000"
 3485      6F636B53 
 3485      74617465 
 3485      00
 3486              	.LASF33:
 3487 0118 74656D70 		.ascii	"tempPolarity\000"
 3487      506F6C61 
 3487      72697479 
 3487      00
 3488              	.LASF26:
 3489 0125 61727261 		.ascii	"array\000"
 3489      7900
 3490              	.LASF1:
 3491 012b 756E7369 		.ascii	"unsigned char\000"
 3491      676E6564 
 3491      20636861 
 3491      7200
 3492              	.LASF13:
 3493 0139 646F7562 		.ascii	"double\000"
 3493      6C6500
 3494              	.LASF43:
 3495 0140 474E5520 		.ascii	"GNU C 4.9.3 20150303 (release) [ARM/embedded-4_9-br"
 3495      4320342E 
 3495      392E3320 
 3495      32303135 
 3495      30333033 
 3496 0173 616E6368 		.ascii	"anch revision 221220] -mcpu=cortex-m3 -mthumb -g -O"
 3496      20726576 
 3496      6973696F 
 3496      6E203232 
 3496      31323230 
 3497 01a6 67202D66 		.ascii	"g -ffunction-sections -flto -ffat-lto-objects\000"
ARM GAS  C:\Users\Luggi\AppData\Local\Temp\ccujN3Qb.s 			page 125


 3497      66756E63 
 3497      74696F6E 
 3497      2D736563 
 3497      74696F6E 
 3498              	.LASF37:
 3499 01d4 43795370 		.ascii	"CySpcGetTemp\000"
 3499      63476574 
 3499      54656D70 
 3499      00
 3500              	.LASF10:
 3501 01e1 75696E74 		.ascii	"uint16\000"
 3501      313600
 3502              	.LASF39:
 3503 01e8 43795370 		.ascii	"CySpcLock\000"
 3503      634C6F63 
 3503      6B00
 3504              	.LASF11:
 3505 01f2 75696E74 		.ascii	"uint32\000"
 3505      333200
 3506              	.LASF47:
 3507 01f9 4379456E 		.ascii	"CyEnterCriticalSection\000"
 3507      74657243 
 3507      72697469 
 3507      63616C53 
 3507      65637469 
 3508              	.LASF44:
 3509 0210 47656E65 		.ascii	"Generated_Source\\PSoC5\\CySpc.c\000"
 3509      72617465 
 3509      645F536F 
 3509      75726365 
 3509      5C50536F 
 3510              	.LASF8:
 3511 022f 756E7369 		.ascii	"unsigned int\000"
 3511      676E6564 
 3511      20696E74 
 3511      00
 3512              	.LASF27:
 3513 023c 61646472 		.ascii	"address\000"
 3513      65737300 
 3514              	.LASF48:
 3515 0244 43794578 		.ascii	"CyExitCriticalSection\000"
 3515      69744372 
 3515      69746963 
 3515      616C5365 
 3515      6374696F 
 3516              	.LASF34:
 3517 025a 74656D70 		.ascii	"tempMagnitude\000"
 3517      4D61676E 
 3517      69747564 
 3517      6500
 3518              	.LASF29:
 3519 0268 43795370 		.ascii	"CySpcLoadRow\000"
 3519      634C6F61 
 3519      64526F77 
 3519      00
 3520              	.LASF18:
 3521 0275 73697A65 		.ascii	"sizetype\000"
ARM GAS  C:\Users\Luggi\AppData\Local\Temp\ccujN3Qb.s 			page 126


 3521      74797065 
 3521      00
 3522              	.LASF40:
 3523 027e 43795370 		.ascii	"CySpcUnlock\000"
 3523      63556E6C 
 3523      6F636B00 
 3524              	.LASF35:
 3525 028a 43795370 		.ascii	"CySpcEraseSector\000"
 3525      63457261 
 3525      73655365 
 3525      63746F72 
 3525      00
 3526              	.LASF6:
 3527 029b 6C6F6E67 		.ascii	"long long int\000"
 3527      206C6F6E 
 3527      6720696E 
 3527      7400
 3528              	.LASF49:
 3529 02a9 43794465 		.ascii	"CyDelayUs\000"
 3529      6C617955 
 3529      7300
 3530              	.LASF14:
 3531 02b3 63686172 		.ascii	"char\000"
 3531      00
 3532              	.LASF41:
 3533 02b8 43795370 		.ascii	"CySpcGetAlgorithm\000"
 3533      63476574 
 3533      416C676F 
 3533      72697468 
 3533      6D00
 3534              	.LASF31:
 3535 02ca 6F666673 		.ascii	"offset\000"
 3535      657400
 3536              	.LASF2:
 3537 02d1 73686F72 		.ascii	"short int\000"
 3537      7420696E 
 3537      7400
 3538              	.LASF22:
 3539 02db 62756666 		.ascii	"buffer\000"
 3539      657200
 3540              	.LASF36:
 3541 02e2 73656374 		.ascii	"sectorNumber\000"
 3541      6F724E75 
 3541      6D626572 
 3541      00
 3542              	.LASF4:
 3543 02ef 6C6F6E67 		.ascii	"long int\000"
 3543      20696E74 
 3543      00
 3544              	.LASF42:
 3545 02f8 73706357 		.ascii	"spcWaitPipeBypass\000"
 3545      61697450 
 3545      69706542 
 3545      79706173 
 3545      7300
 3546              	.LASF0:
 3547 030a 7369676E 		.ascii	"signed char\000"
ARM GAS  C:\Users\Luggi\AppData\Local\Temp\ccujN3Qb.s 			page 127


 3547      65642063 
 3547      68617200 
 3548              	.LASF30:
 3549 0316 43795370 		.ascii	"CySpcLoadRowFull\000"
 3549      634C6F61 
 3549      64526F77 
 3549      46756C6C 
 3549      00
 3550              	.LASF38:
 3551 0327 6E756D53 		.ascii	"numSamples\000"
 3551      616D706C 
 3551      657300
 3552              		.comm	__gnu_lto_v1,1,1
 3553              		.ident	"GCC: (GNU Tools for ARM Embedded Processors) 4.9.3 20150303 (release) [ARM/embedded-4_9-br
