ARM GAS  C:\Users\Luggi\AppData\Local\Temp\ccUS1Rr5.s 			page 1


   1              		.syntax unified
   2              		.cpu cortex-m3
   3              		.fpu softvfp
   4              		.eabi_attribute 20, 1
   5              		.eabi_attribute 21, 1
   6              		.eabi_attribute 23, 3
   7              		.eabi_attribute 24, 1
   8              		.eabi_attribute 25, 1
   9              		.eabi_attribute 26, 1
  10              		.eabi_attribute 30, 1
  11              		.eabi_attribute 34, 1
  12              		.eabi_attribute 18, 4
  13              		.thumb
  14              		.file	"DAC_Out.c"
  15              		.text
  16              	.Ltext0:
  17              		.section	.gnu.lto_.profile.d2358b6,"",%progbits
  18 0000 789C6366 		.ascii	"x\234cf```a\200\000F\006IQ\000\000\273\0007"
  18      60606061 
  18      80004606 
  18      49510000 
  18      BB0037
  19              		.text
  20              		.section	.gnu.lto_.inline.d2358b6,"",%progbits
  21 0000 789C6366 		.ascii	"x\234cf\300\016\022\2404\013\003\003'\007##\003#\003"
  21      C00E12A0 
  21      340B0303 
  21      27072323 
  21      032303
  22 0013 0333C701 		.ascii	"\0033\307\001;\006\266\005\362L\014,\013\344Y@\222\214"
  22      3B06B605 
  22      F24C0C2C 
  22      0BE45940 
  22      928C
  23 0025 0C1CECE8 		.ascii	"\014\034\354\350rL\027\370\301rL\014l\254\214\014Ll"
  23      724C17F8 
  23      C1724C0C 
  23      6CAC8C0C 
  23      4C6C
  24 0037 1FF420E2 		.ascii	"\037\364 \342@\300\214)\304\000\000\333l\011\322"
  24      40C08C29 
  24      C40000DB 
  24      6C09D2
  25              		.text
  26              		.section	.gnu.lto_.jmpfuncs.d2358b6,"",%progbits
  27 0000 789C6366 		.ascii	"x\234cf\300\016\204\2404\013\003##c=#\210`b``\006\212"
  27      C00E84A0 
  27      340B0323 
  27      23633D23 
  27      88606260 
  28 0017 00000DC0 		.ascii	"\000\000\015\300\001$"
  28      0124
  29              		.text
  30              		.section	.gnu.lto_.pureconst.d2358b6,"",%progbits
  31 0000 789C6366 		.ascii	"x\234cf``\340d\200\000\026\006)F)&)f)\000\002\305\000"
  31      6060E064 
  31      80001606 
ARM GAS  C:\Users\Luggi\AppData\Local\Temp\ccUS1Rr5.s 			page 2


  31      29462926 
  31      29662900 
  32 0017 7F       		.ascii	"\177"
  33              		.text
  34              		.section	.gnu.lto_DAC_Out_Write.d2358b6,"",%progbits
  35 0000 789C6591 		.ascii	"x\234e\221OHTQ\024\306\317w\357{3N\272\210\226\263*"
  35      4F485451 
  35      14C6CF77 
  35      EF7B334E 
  35      BA8896B3 
  36 0015 4CAC8856 		.ascii	"L\254\210V\265\257\014Z&\270\035\220a|\013!\022\364"
  36      B5AF0C5A 
  36      26B81D90 
  36      617C0B21 
  36      12F4
  37 0027 4D5BEFAB 		.ascii	"M[\357\253A!\020\304\012\003\021\262\210\376L\376\035"
  37      412110C4 
  37      0A0311B2 
  37      88FE4CFE 
  37      1D
  38 0038 50180A5E 		.ascii	"P\030\012^2\273\250A\244\0021M\230\242\240Ebe&9\235"
  38      32BBA841 
  38      A402314D 
  38      98A2A045 
  38      62652639 
  39 004d 73EF26E9 		.ascii	"s\357&\351\301\375\363\016\277\357\273\337=W\323\377"
  39      C1FDF30E 
  39      BFEFBBDF 
  39      3D57D3FF 
  40 005d 5F9AC731 		.ascii	"_\232\3071Et\232Wh\202\032~M\0245(@6\004\352W\350\307"
  40      45749A57 
  40      68821A7E 
  40      4D143528 
  40      403604EA 
  41 0074 17B5A930 		.ascii	"\027\265\2510\034\027\3574\266>0\306|\033\251F\3551"
  41      1C17EF34 
  41      B63E30C6 
  41      7C1BA946 
  41      ED31
  42 0086 7658B7A5 		.ascii	"vX\267\245\234\017\036\242\225\231\255\242\271\245\365"
  42      9C0F1EA2 
  42      9599ADA2 
  42      B9A5F5
  43 0095 5110EF67 		.ascii	"Q\020\357g\226^\355%[\356\033s-.O\231\263\214\003\217"
  43      965EED25 
  43      5BEE1B73 
  43      2D2E4F99 
  43      B38C038F 
  44 00a9 A0598193 		.ascii	"\240Y\201\223i\034O\023\027\010\217\321\"\360\334Pe"
  44      691C4F13 
  44      17088FD1 
  44      22F0DC50 
  44      65
  45 00ba 5EE91356 		.ascii	"^\351\023V8\361r\243\322\324<\301\302\017\273\363\231"
  45      38F172A3 
  45      D2D43CC1 
  45      C20FBBF3 
ARM GAS  C:\Users\Luggi\AppData\Local\Temp\ccUS1Rr5.s 			page 3


  45      99
  46 00cb 38BA6BF6 		.ascii	"8\272k\366\352u+\177\362\257\334}\314o\026\376\274k"
  46      EA752B7F 
  46      F2AFDC7D 
  46      CC6F16FE 
  46      BC6B
  47 00dd 4C1438D8 		.ascii	"L\0248\330A\024\321\3542\341)\022\340E*\323\207bS\257"
  47      4114D1EC 
  47      32E12912 
  47      E0452AD3 
  47      876253AF 
  48 00f1 979EBFF8 		.ascii	"\227\236\277\370\215\224\342c\025_\224\313\036\344t"
  48      8D94E263 
  48      155F94CB 
  48      1EE474
  49 0100 5F0A0999 		.ascii	"_\012\011\231\2222\021\325x\310\345?\362\017\257z\005"
  49      923211D5 
  49      78C8E53F 
  49      F20FAF7A 
  49      05
  50 0111 8B3F6FAC 		.ascii	"\213?o\254\215&\305q[I'\336\214.\334n\372\254v\224\216"
  50      8D26C571 
  50      5B4927DE 
  50      8C2EDC6E 
  50      FAAC7694 
  51 0126 EF45C693 		.ascii	"\357E\306\223\014\353\265\352R\203-\331H\033\357\007"
  51      0CEBB5EA 
  51      52832DD9 
  51      481BEF07 
  52 0136 6FA6C631 		.ascii	"o\246\3061\026\0258\267\207I\2441\005\216\214i\214\203"
  52      161538B7 
  52      8749A431 
  52      058E8C69 
  52      8C83
  53 0148 5670FDD7 		.ascii	"Vp\375\327\300*\234\241v\236\345g\313U-\006X\347\256"
  53      C02A9CA1 
  53      769EE567 
  53      CB552D06 
  53      58E7AE
  54 015b CC30FC16 		.ascii	"\3140\374\026\312^\202\2232%\242\325\201O\203)\247\362"
  54      CA5E8293 
  54      3225A2D5 
  54      814F8329 
  54      A7F2
  55 016d B795C7AA 		.ascii	"\267\225\307\252\257\313ce\233D\371\204Y\026Y\353\212"
  55      AFCB6365 
  55      9B44F984 
  55      591659EB 
  55      8A
  56 017e 72907012 		.ascii	"r\220p\022f\350G\011\002y\207\011s\016\372\236pH\322"
  56      66E84709 
  56      02798709 
  56      730EFA9E 
  56      7048D2
  57 0191 52E2BE38 		.ascii	"R\342\2768b\003\355\013\037\305\376\376\370%\216\317"
  57      6203ED0B 
  57      1FC5FEFE 
ARM GAS  C:\Users\Luggi\AppData\Local\Temp\ccUS1Rr5.s 			page 4


  57      F8258ECF 
  58 01a1 225A4314 		.ascii	"\"ZC\024\357\372\302\313\033\324\370!\271S\334\267#"
  58      EFFAC2CB 
  58      1BD4F821 
  58      B953DCB7 
  58      23
  59 01b2 17832B41 		.ascii	"\027\203+Ao6\014\272:;z\362\275\271 \323\336\321\323"
  59      6F360CBA 
  59      3A3B7AF2 
  59      BDB920D3 
  59      DED1D3
  60 01c5 762673E1 		.ascii	"v&s\341\\[\347\245|x*G\376\325\354\345|p\240/\314\206"
  60      5C5BE7A5 
  60      7C782A47 
  60      FED5ECE5 
  60      7C70A02F 
  61 01db DDB9F3DD 		.ascii	"\335\271\363\335a\337_\230\214\315P"
  61      61DF5F98 
  61      8CCD50
  62              		.text
  63              		.section	.gnu.lto_DAC_Out_SetDriveMode.d2358b6,"",%progbits
  64 0000 789C7D51 		.ascii	"x\234}Q;H\003A\020\235\267{\371\021\024\261\222t\202"
  64      3B480341 
  64      109DB77B 
  64      F91114B1 
  64      927482
  65 0013 210AA295 		.ascii	"!\012\242\225\275\242h\251\220V\020I\256\324@\210\265"
  65      BDA268A9 
  65      90561049 
  65      AED44088 
  65      B5
  66 0024 178D8D36 		.ascii	"\027\215\2156\321J\020\301\017\222\370\213\202\205\355"
  66      D14A10C1 
  66      0F92F88B 
  66      8285ED
  67 0033 116C4450 		.ascii	"\021lDPb\023\014\032\233\370\005\305\3407H\210\263\027"
  67      62130C1A 
  67      9BF805C5 
  67      E0374888 
  67      B317
  68 0045 8B80E072 		.ascii	"\213\200\340r;;ox\357\335\354\254\244\277\313\303\373"
  68      3B3B6F78 
  68      EFDDECAC 
  68      A4BFCBC3 
  68      FB
  69 0056 1144AD7C 		.ascii	"\021D\255|B\022D\374\224(\352\024\200J\0104)0\211\007"
  69      421244FC 
  69      9428EA14 
  69      804A0834 
  69      29308907 
  70 006a 5114889B 		.ascii	"Q\024\210\233\333\213n\337\206a\030/k\207M3M%A\364*"
  70      DB8B6EDF 
  70      8661182F 
  70      6B874D33 
  70      4D2541F4 
  71 007f AA3648C0 		.ascii	"\2526H\300\307\224\273\322C\242N\266\2008/\317g\317"
  71      C794BBD2 
ARM GAS  C:\Users\Luggi\AppData\Local\Temp\ccUS1Rr5.s 			page 5


  71      43A24EB6 
  71      80382FCF 
  71      67CF
  72 0091 8577DD30 		.ascii	"\205w\3350\246\314\343\224\321\215\022{&!Y\201v\017"
  72      A6CCE394 
  72      D18D127B 
  72      26215981 
  72      760F
  73 00a3 DA3CC405 		.ascii	"\332<\304\005\302&\274\212\\\214\225\263n{\214\275\033"
  73      C226BC8A 
  73      5C8C95B3 
  73      6E7B8CBD 
  73      1B
  74 00b4 AA9ED882 		.ascii	"\252\236\330\202\235\333\242\275F\323\250T^\257\346"
  74      9DDBA2BD 
  74      46D3A854 
  74      5EAFE6
  75 00c3 939D700B 		.ascii	"\223\235p\013\326\010\311Aj*\330\240\344v\225:Tp\252"
  75      D608C941 
  75      6A2AD8A0 
  75      E476953A 
  75      5470AA
  76 00d6 E0521CA2 		.ascii	"\340R\034\242\002ou\203\033\006|\312\034\322\037\263"
  76      026F7583 
  76      1B067CCA 
  76      1CD21FB3 
  77 00e6 B74B9AF2 		.ascii	"\267K\232\362\375\024\352:\227)sN\334\213\222\3206V"
  77      FD14EA3A 
  77      9729734E 
  77      DC8B92D0 
  77      3656
  78 00f8 A286A6BA 		.ascii	"\242\206\246\272\270.\234e\234V\211\024|\237I\256\272"
  78      B82E9C65 
  78      9C568914 
  78      7C9F49AE 
  78      BA
  79 0109 97B1148D 		.ascii	"\227\261\024\215q\3636l\303\203\035\360\300\260\213"
  79      71F3366C 
  79      C3831DF0 
  79      C0B08B
  80 0118 65500E53 		.ascii	"eP\016SyG\325N\262#\343\351/{\025k\\b\375\305\363\313"
  80      7947D54E 
  80      B223E3E9 
  80      2F7B156B 
  80      5C62FDC5 
  81 012e 8965278B 		.ascii	"\211e'\213\225\337\305\263L\261E\215\226?[\255\326\301"
  81      95DFC5B3 
  81      4CB1458D 
  81      963F5BAD 
  81      D6C1
  82 0140 25D6660E 		.ascii	"%\326f\016\236\216l\226\266\236\260gI\246\337~)N\353"
  82      9E8E6C96 
  82      B69EB067 
  82      49A6DF7E 
  82      294EEB
  83 0153 0F8E5A17 		.ascii	"\017\216Z\027\027W\031\247\027\240\360\177\275\357s"
  83      175719A7 
ARM GAS  C:\Users\Luggi\AppData\Local\Temp\ccUS1Rr5.s 			page 6


  83      17A0F07F 
  83      BDEF73
  84 0162 EFCCA73C 		.ascii	"\357\314\247<\242\346w\277b\253\367+\360[\360\230xh"
  84      A2E677BF 
  84      62ABF72B 
  84      F05BF098 
  84      7868
  85 0174 CD03FAB8 		.ascii	"\315\003\372\270\036\036\215\350\301\021\177h\"\034"
  85      1E1E8DE8 
  85      C1117F68 
  85      221C
  86 0182 D08787FC 		.ascii	"\320\207\207\374\241\336\256\341\276\236\336\221\301"
  86      A1DEAEE1 
  86      BE9EDE91 
  86      C1
  87 018f 89484780 		.ascii	"\211HG\200\264\261PP\377\001j\242\2672"
  87      B4B15050 
  87      FF016AA2 
  87      B732
  88              		.text
  89              		.section	.gnu.lto_DAC_Out_Read.d2358b6,"",%progbits
  90 0000 789C654F 		.ascii	"x\234eO=HBQ\024>\337}\357\251`D4\205S\321 \201\264\265"
  90      3D484251 
  90      143EDF7D 
  90      EFA96044 
  90      348553D1 
  91 0018 D414068D 		.ascii	"\324\024\006\215E\256\202\204\2755At\366ij\321\324\317"
  91      45AE8284 
  91      BD354174 
  91      F6696AD1 
  91      D4CF
  92 002a 283604D1 		.ascii	"(6\004\321\377\0174\031\010\025\216e\204C\361\210\327"
  92      FF0F3419 
  92      08158E65 
  92      8443F188 
  92      D7
  93 003b A250D090 		.ascii	"\242P\320\220\375\277\241\354\\_[\027\356w\3569\347"
  93      FDBFA1EC 
  93      5C5F5B17 
  93      EE77EE39 
  93      E7
  94 004c 3BDF778F 		.ascii	";\337w\217B\377\217\217\357\024\210\3729B!\210\245*"
  94      42FF8F8F 
  94      EF1488FA 
  94      39422188 
  94      A52A
  95 005e 51DA2300 		.ascii	"Q\332#\000\371 PJ \205G\321\024\270(\375\324\340\337"
  95      F920504A 
  95      208547D1 
  95      14B828FD 
  95      D4E0DF
  96 0071 308CCCF3 		.ascii	"0\214\314\363J\371\316\233\353\261\005\321\253 \004"
  96      4AF9CE9B 
  96      EBB105D1 
  96      AB2004
  97 0080 7C18903A 		.ascii	"|\030\220:\330\204\237\230\330\314~\337x]Y\3030\272"
  97      D8849F98 
ARM GAS  C:\Users\Luggi\AppData\Local\Temp\ccUS1Rr5.s 			page 7


  97      D8CC7EDF 
  97      785D59C3 
  97      30BA
  98 0092 649F1B5B 		.ascii	"d\237\033[p\261\007\035v\237\032\255\326\361\373\362"
  98      70B1071D 
  98      769F1AAD 
  98      D6F1FBF2 
  99 00a2 C208DC20 		.ascii	"\302\010\334 [\260#\203\312 4\011.\222\232Tg\220\366"
  99      5BB02383 
  99      CA203409 
  99      2E929A54 
  99      6790F6
 100 00b5 0D216454 		.ascii	"\015!dTL\234\177,Zk\303R\347S(l\361R\256\256*\017\302"
 100      4C9C7F2C 
 100      5A6BC352 
 100      E753286C 
 100      F152AEAE 
 101 00cc 16CAD97A 		.ascii	"\026\312\331z\332P\245\353}\375\352\332\323.\221L\033"
 101      DA50A5EB 
 101      7DFDEADA 
 101      D32E914C 
 101      1B
 102 00dd 47B97C67 		.ascii	"G\271|g\021\205t\026\266P\261\015\037v\300\277\304."
 102      11857416 
 102      B650B10D 
 102      1F76C0BF 
 102      C42E
 103 00ef 8A201373 		.ascii	"\212 \023s_\371\212\342\010\302\321,\035\274]z\245\000"
 103      5FF98AE2 
 103      08C2D12C 
 103      1DBC5D7A 
 103      A500
 104 0101 7A097BCC 		.ascii	"z\011{\3145\221\261\334\016Ee\226\034\262\362\025\315"
 104      3591B1DC 
 104      0E456596 
 104      1CB2F215 
 104      CD
 105 0112 A9685CE4 		.ascii	"\251h\\\344\241\247Z\341\244C\016i\032a\337\031\272"
 105      A1A75AE1 
 105      A4430E69 
 105      1A61DF19 
 105      BA
 106 0123 9D0F381C 		.ascii	"\235\0178\034I#\013\370\313\332\233An\304\373\365\215"
 106      49230BF8 
 106      CBDA9B41 
 106      6EC4FBF5 
 106      8D
 107 0134 EBB37A7C 		.ascii	"\353\263z|:\241\317DB\261d<\252\207'C\261\340Pxl4\030"
 107      3AA1CF44 
 107      42B1643C 
 107      AA872743 
 107      B1E05078 
 108 014b 99482606 		.ascii	"\231H&\006\243\364\013\230\230\200+"
 108      A3F40B98 
 108      98802B
 109              		.text
 110              		.section	.gnu.lto_DAC_Out_ReadDataReg.d2358b6,"",%progbits
ARM GAS  C:\Users\Luggi\AppData\Local\Temp\ccUS1Rr5.s 			page 8


 111 0000 789C654F 		.ascii	"x\234eO=H\202Q\024\275\347~~j\330\020M\341T4H!m-ma\320"
 111      3D488251 
 111      14BDE77E 
 111      7E6AD810 
 111      4DE15434 
 112 001b 58E42A48 		.ascii	"X\344*H\230k\202\350\354\247\231FS\024\321 -A\224\375"
 112      986B82E8 
 112      ECA79946 
 112      5314D120 
 112      2D4194FD 
 113 002f 0E0D6193 		.ascii	"\016\015a\223\204c%%QH\031\201AACRT\337\220v\237_[\017"
 113      84632525 
 113      51481981 
 113      41414352 
 113      54DF9076 
 114 0047 DEB9EFDD 		.ascii	"\336\271\357\335{\3569\367j\364\377\270\345N\201\250"
 114      7BEE39F7 
 114      6AF4FFB8 
 114      E54E81A8 
 115 0057 5F223402 		.ascii	"_\"4\002/]\020%\235\014\250\007\201\022\214\004^\270"
 115      2F5D1025 
 115      9D0CA807 
 115      81128C04 
 115      5EB8
 116 0069 C1382B34 		.ascii	"\3018+4+\360l\032F\352\355\252r\347\232\3571\231\350"
 116      2BF06C1A 
 116      46EAEDAA 
 116      72E79AEF 
 116      3199E8
 117 007c 9D095E37 		.ascii	"\235\011^7\006\224\016\266\340!!6\322?7.{\3320\214."
 117      06940EB6 
 117      E0212136 
 117      D23F372E 
 117      7BDA308C 
 118 0091 5597C236 		.ascii	"U\227\3026\354\342A\207\335E\243\325:*//\014\262\003"
 118      ECE24187 
 118      DD45A3D5 
 118      3A2A2F2F 
 118      0CB203
 119 00a4 64B2380A 		.ascii	"d\2628\012\330\004XW`'\245Iu\001e\377\304\254\242V\305"
 119      D8045857 
 119      6027A549 
 119      750165FF 
 119      C4ACA256 
 120 00b9 E9E76233 		.ascii	"\351\347b3?\242t\276X\023\213\353\265\343\325\316g6"
 120      3FA274BE 
 120      58138BEB 
 120      B5E3D5CE 
 120      6736
 121 00cb 592B6E24 		.ascii	"Y+n$\015\233r}\250\227/\235\355\024\251\357\343}v\245"
 121      0D9B727D 
 121      A8972F9D 
 121      ED14A9EF 
 121      E37D76A5 
 122 00df 631DB964 		.ascii	"c\035\271d\032&\333\220\207\033;\220)\261\213uP\025"
 122      1A26DB90 
 122      871B3B90 
ARM GAS  C:\Users\Luggi\AppData\Local\Temp\ccUS1Rr5.s 			page 9


 122      29B18B75 
 122      5015
 123 00f1 73DF9992 		.ascii	"s\337\231\222f\011\302\322,\034|\234\273\224\000z\011"
 123      6609C2D2 
 123      2C1C7C9C 
 123      BB94007A 
 123      09
 124 0102 7BC2AD22 		.ascii	"{\302\255\"UsX\024\233\260TS-S\322\255\214.Iiz\255\344"
 124      55735814 
 124      9BB05453 
 124      2D53D2AD 
 124      8C2E4969 
 125 0119 4EDA83E8 		.ascii	"N\332\203\350:a\337j\272\315z-\216\242Q\015\370\373"
 125      3A61DF6A 
 125      BACD7A2D 
 125      8EA2510D 
 125      F8FB
 126 012b B53783DA 		.ascii	"\2657\203\332H\366\353\033\017\317\206\243\323\261\360"
 126      48F6EB1B 
 126      0FCF86A3 
 126      D3B1F0
 127 013a 4CD01F89 		.ascii	"L\320\037\211GC\341\300\244?\342\033\016\214\215\372"
 127      4743E1C0 
 127      A43FE21B 
 127      0E8C8DFA 
 128 014a 8213F1D8 		.ascii	"\202\023\361\330P\210~\001\333Q\200Z"
 128      50887E01 
 128      DB51805A 
 129              		.text
 130              		.section	.gnu.lto_.symbol_nodes.d2358b6,"",%progbits
 131 0000 789C6366 		.ascii	"x\234cf``pb\200\002&\206z\006\206\011\347\030\030\352"
 131      60607062 
 131      80022686 
 131      7A068609 
 131      E71818EA 
 132 0014 EB19A62D 		.ascii	"\353\031\246-\340``b\254gD\3413\3253\241\360\231\353"
 132      E0606062 
 132      AC6744E1 
 132      33D533A1 
 132      F099EB
 133 0027 9991F90C 		.ascii	"\231\221\371\014\0000N\020\276"
 133      00304E10 
 133      BE
 134              		.text
 135              		.section	.gnu.lto_.refs.d2358b6,"",%progbits
 136 0000 789C6366 		.ascii	"x\234cf```d\200\002\000\000=\000\005"
 136      60606064 
 136      80020000 
 136      3D0005
 137              		.text
 138              		.section	.gnu.lto_.decls.d2358b6,"",%progbits
 139 0000 789C8D92 		.ascii	"x\234\215\222]H\024Q\024\307\357\231;\256:\216\025\024"
 139      5D481451 
 139      14C7EF99 
 139      3BAE3A8E 
 139      1514
 140 0012 1A4BD0F6 		.ascii	"\032K\320\366\"\004\213\320C\340S\037((\201%J\364\240"
ARM GAS  C:\Users\Luggi\AppData\Local\Temp\ccUS1Rr5.s 			page 10


 140      22048BD0 
 140      43E0531F 
 140      28288125 
 140      4AF4A0
 141 0025 208B0EE6 		.ascii	" \213\016\346\213\3126\012>u\363#M\243D*\245p\025\324"
 141      8BCA360A 
 141      3E75F323 
 141      4DA3442A 
 141      A57015D4 
 142 0039 324B3357 		.ascii	"2K3W]w\327t\367%\024)\210\026i\263\207\304\027{\010"
 142      5D77D774 
 142      F7251429 
 142      881669B3 
 142      87C4177B 
 143 004e D6A85008 		.ascii	"\326\250P\010\2463wg\332\301V\360\302\331\275\347\316"
 143      A6337767 
 143      DAC156F0 
 143      C2D9BDE7 
 143      CE
 144 005f F9FDCF39 		.ascii	"\371\375\3179\367\036J\010q\000!\032\256s\224\220'\350"
 144      F71E4A08 
 144      7100211A 
 144      AE739490 
 144      27E8
 145 0071 A7A09590 		.ascii	"\247\240\225\220\304\022\321\246\321f\320|h~\362\377"
 145      C412D1A6 
 145      D166D07C 
 145      687EF2FF 
 146 0081 9AB67013 		.ascii	"\232\266p\023hYh\213h\013\306w0b\366.]\323\266\207\013"
 146      6859688B 
 146      680BC677 
 146      3062F62E 
 146      5DD3B687 
 147 0096 27616792 		.ascii	"'ag\222\260>\2035\271\"\013w\311\302\372\222\260\376"
 147      B03E8335 
 147      B9220B77 
 147      C9C2FA92 
 147      B0FE
 148 00a8 03B2C97A 		.ascii	"\003\262\311z\335\026\300?\371\363]\306\226\000\207"
 148      DD16C03F 
 148      F9F35DC6 
 148      960087
 149 00b7 2487EE06 		.ascii	"$\207\356\006z\227\373m\350\312\222\250\273kK\035\035"
 149      7A97FB6D 
 149      E8CA92A8 
 149      BB6B4B1D 
 149      1D
 150 00c8 6954007D 		.ascii	"iT\000}?\334\277\021\221\234\343\214\261N\026\012AB"
 150      3FDCBF11 
 150      919CE38C 
 150      B14E160A 
 150      4142
 151 00da E2D6D3E0 		.ascii	"\342\326\323\340\335Td\262$\356\336[}\034\246\334\325"
 151      DD5464B2 
 151      24EEDE5B 
 151      7D1CA6DC 
 151      D5
ARM GAS  C:\Users\Luggi\AppData\Local\Temp\ccUS1Rr5.s 			page 11


 152 00eb 744E8846 		.ascii	"tN\210F\037\354R\220r:\031ka\261^F\217\023p\332\341"
 152      1FEC5290 
 152      723A196B 
 152      61B15E46 
 152      8F1370DA 
 153 0100 B49DC024 		.ascii	"\264\235\300$\344`\030\214\203\223\300\013\260\303K"
 153      E460188C 
 153      8393C00B 
 153      B0C34B
 154 010f B093114C 		.ascii	"\260\223\021L\020\033\214|>\301\230\010\023 \301s\240"
 154      101B8C7C 
 154      3EC19808 
 154      1320C173 
 154      A0
 155 0120 3C02DBD0 		.ascii	"<\002\333\3203\030I{\332\303=\242(\340\241\036S\316"
 155      3318497B 
 155      DAC33DA2 
 155      28E0A11E 
 155      53CE
 156 0132 ABFDA56D 		.ascii	"\253\375\245m\214\012\331\017Q\200\365\264\262#\"\224"
 156      8C0AD90F 
 156      5180F5B4 
 156      B2232294 
 157 0142 64C13394 		.ascii	"d\3013\224\035CY\002S\220\215\277\257@4\032\377\276"
 157      1D435902 
 157      53908DBF 
 157      AF40341A 
 157      FFBE
 158 0154 E2A46778 		.ascii	"\342\244gxg\336\267\203\236T\207\207\015M\305\264\037"
 158      67DEB783 
 158      9E548787 
 158      0D4DC5B4 
 158      1F
 159 0165 51992DB3 		.ascii	"Q\231-\263\220\246\235\347\004\274\376\227\235\350\373"
 159      90A69DE7 
 159      04BCFE97 
 159      9DE8FB
 160 0174 F8754E83 		.ascii	"\370uN\203\003\261\333_V\243\031\324\305%>\005\275\033"
 160      03B1DB5F 
 160      56A319D4 
 160      C5253E05 
 160      BD1B
 161 0186 3297180A 		.ascii	"2\227\030\012\014\333\342\002\234\367Zx\257\311\317"
 161      0CDBE202 
 161      9CF75A78 
 161      AFC9CF
 162 0195 70FE4EDB 		.ascii	"p\376N\333\024\265V\2537\222(w\226\227[nT\273\276\033"
 162      14B556AB 
 162      37922877 
 162      96975B6E 
 162      54BBBE1B 
 163 01a9 6C976913 		.ascii	"l\227i\023\317\325\255}\034\264\361\\_\277m*\2416\366"
 163      CFD5AD7D 
 163      1CB4F15C 
 163      5FBF6D2A 
 163      A136F6
 164 01bc 47D32807 		.ascii	"G\323(\007`\316\222m\316\314\346\343\331\302+\236b\332"
ARM GAS  C:\Users\Luggi\AppData\Local\Temp\ccUS1Rr5.s 			page 12


 164      60CE926D 
 164      CECCE6E3 
 164      D9C22B9E 
 164      62DA
 165 01ce 0A5CE1D1 		.ascii	"\012\\\341\321@`\354p\274\332\201Q\263Z\235\237\267"
 165      4060EC70 
 165      BCDA8151 
 165      B35A9D9F 
 165      B7
 166 01df F0F326EF 		.ascii	"\360\363&\357\347<\353\353\036I\243}q\201\331\337]\376"
 166      E73CEBEB 
 166      1E49A37D 
 166      7181D9DF 
 166      5DFE
 167 01f1 4C095FB4 		.ascii	"L\011_\264\365\000/\2123\020y\337\265\226\036\237\201"
 167      F5002F8A 
 167      331079DF 
 167      B5961E9F 
 167      81
 168 0202 BDC49B7D 		.ascii	"\275\304\233}g`g\263\250\215]\200\005\274\226@b\006"
 168      676067B3 
 168      A88D5D80 
 168      05BC9640 
 168      6206
 169 0214 82901882 		.ascii	"\202\220\030\202\310j\313:\225\273\364\301\302+L/\342"
 169      C86ACB3A 
 169      95BBF4C1 
 169      C22B4C2F 
 169      E2
 170 0225 B1892B5C 		.ascii	"\261\211+\\\004\2317\200\377\333\002\235\374\260\344"
 170      04993780 
 170      FFDB029D 
 170      FCB0E4
 171 0234 11C06E97 		.ascii	"\021\300n\227\372q\200wNB\030\205\364mhK\323nj\361u"
 171      FA718077 
 171      4E421885 
 171      F46D684B 
 171      D36E6AF1 
 172 0249 3F951F77 		.ascii	"?\225\037w\352\217\022k\261\224I\3709\201\020\212/\241"
 172      EA8F126B 
 172      B19449F8 
 172      3981108A 
 172      2FA1
 173 025b 3877531A 		.ascii	"8wS\032k\353\324<[\341\345\253\216|r\252P\251S\334."
 173      6BEBD43C 
 173      5BE1E5AB 
 173      8E7C72AA 
 173      50A953DC 
 174 0270 55A9AE2C 		.ascii	"U\251\256,\253otW)\025%e\365\371g+\252\232\325\346\006"
 174      AB6F7457 
 174      29152565 
 174      F5F9672B 
 174      AA9AD5E6 
 175 0285 E546EE75 		.ascii	"\345F\356u\222Yp1\277\362J\243Zy\315]\253*\373\305\033"
 175      92597031 
 175      BFF24AA3 
 175      5A79CD5D 
ARM GAS  C:\Users\Luggi\AppData\Local\Temp\ccUS1Rr5.s 			page 13


 175      AB2AFBC5 
 176 029a 41B955E4 		.ascii	"A\271U\344\230\031_\246\250\005\356\332&\245\270\276"
 176      98195FA6 
 176      A805EEDA 
 176      26A5B8BE 
 177 02aa 5A91CDC3 		.ascii	"Z\221\315\303R\305U}\324\352\024\270TW\251R#\272\225"
 177      52C5557D 
 177      D4EA14B8 
 177      5457A952 
 177      23BA95
 178 02bd 9ABCBFE6 		.ascii	"\232\274\277\346hI6"
 178      684936
 179              		.text
 180              		.section	.gnu.lto_.symtab.d2358b6,"",%progbits
 181 0000 4441435F 		.ascii	"DAC_Out_Write\000\000\000\000\000\000\000\000\000\000"
 181      4F75745F 
 181      57726974 
 181      65000000 
 181      00000000 
 182 0017 0000B200 		.ascii	"\000\000\262\000\000\000DAC_Out_SetDriveMode\000\000"
 182      00004441 
 182      435F4F75 
 182      745F5365 
 182      74447269 
 183 0033 00000000 		.ascii	"\000\000\000\000\000\000\000\000\000\000\264\000\000"
 183      00000000 
 183      0000B400 
 183      00
 184 0040 00444143 		.ascii	"\000DAC_Out_Read\000\000\000\000\000\000\000\000\000"
 184      5F4F7574 
 184      5F526561 
 184      64000000 
 184      00000000 
 185 0056 000000B7 		.ascii	"\000\000\000\267\000\000\000DAC_Out_ReadDataReg\000"
 185      00000044 
 185      41435F4F 
 185      75745F52 
 185      65616444 
 186 0071 00000000 		.ascii	"\000\000\000\000\000\000\000\000\000\000\000\271\000"
 186      00000000 
 186      000000B9 
 186      00
 187 007e 0000     		.ascii	"\000\000"
 188              		.text
 189              		.section	.gnu.lto_.opts,"",%progbits
 190 0000 272D666E 		.ascii	"'-fno-trapv' '-fno-strict-overflow' '-mcpu=cortex-m"
 190      6F2D7472 
 190      61707627 
 190      20272D66 
 190      6E6F2D73 
 191 0033 33272027 		.ascii	"3' '-mthumb' '-g' '-Og' '-ffunction-sections' '-flt"
 191      2D6D7468 
 191      756D6227 
 191      20272D67 
 191      2720272D 
 192 0066 6F272027 		.ascii	"o' '-ffat-lto-objects'\000"
 192      2D666661 
ARM GAS  C:\Users\Luggi\AppData\Local\Temp\ccUS1Rr5.s 			page 14


 192      742D6C74 
 192      6F2D6F62 
 192      6A656374 
 193              		.text
 194              		.cfi_sections	.debug_frame
 195              		.section	.text.DAC_Out_Write,"ax",%progbits
 196              		.align	2
 197              		.global	DAC_Out_Write
 198              		.thumb
 199              		.thumb_func
 200              		.type	DAC_Out_Write, %function
 201              	DAC_Out_Write:
 202              	.LFB0:
 203              		.file 1 "Generated_Source\\PSoC5\\DAC_Out.c"
   1:Generated_Source\PSoC5/DAC_Out.c **** /*******************************************************************************
   2:Generated_Source\PSoC5/DAC_Out.c **** * File Name: DAC_Out.c  
   3:Generated_Source\PSoC5/DAC_Out.c **** * Version 2.20
   4:Generated_Source\PSoC5/DAC_Out.c **** *
   5:Generated_Source\PSoC5/DAC_Out.c **** * Description:
   6:Generated_Source\PSoC5/DAC_Out.c **** *  This file contains API to enable firmware control of a Pins component.
   7:Generated_Source\PSoC5/DAC_Out.c **** *
   8:Generated_Source\PSoC5/DAC_Out.c **** * Note:
   9:Generated_Source\PSoC5/DAC_Out.c **** *
  10:Generated_Source\PSoC5/DAC_Out.c **** ********************************************************************************
  11:Generated_Source\PSoC5/DAC_Out.c **** * Copyright 2008-2015, Cypress Semiconductor Corporation.  All rights reserved.
  12:Generated_Source\PSoC5/DAC_Out.c **** * You may use this file only in accordance with the license, terms, conditions, 
  13:Generated_Source\PSoC5/DAC_Out.c **** * disclaimers, and limitations in the end user license agreement accompanying 
  14:Generated_Source\PSoC5/DAC_Out.c **** * the software package with which this file was provided.
  15:Generated_Source\PSoC5/DAC_Out.c **** *******************************************************************************/
  16:Generated_Source\PSoC5/DAC_Out.c **** 
  17:Generated_Source\PSoC5/DAC_Out.c **** #include "cytypes.h"
  18:Generated_Source\PSoC5/DAC_Out.c **** #include "DAC_Out.h"
  19:Generated_Source\PSoC5/DAC_Out.c **** 
  20:Generated_Source\PSoC5/DAC_Out.c **** /* APIs are not generated for P15[7:6] on PSoC 5 */
  21:Generated_Source\PSoC5/DAC_Out.c **** #if !(CY_PSOC5A &&\
  22:Generated_Source\PSoC5/DAC_Out.c **** 	 DAC_Out__PORT == 15 && ((DAC_Out__MASK & 0xC0) != 0))
  23:Generated_Source\PSoC5/DAC_Out.c **** 
  24:Generated_Source\PSoC5/DAC_Out.c **** 
  25:Generated_Source\PSoC5/DAC_Out.c **** /*******************************************************************************
  26:Generated_Source\PSoC5/DAC_Out.c **** * Function Name: DAC_Out_Write
  27:Generated_Source\PSoC5/DAC_Out.c **** ****************************************************************************//**
  28:Generated_Source\PSoC5/DAC_Out.c **** *
  29:Generated_Source\PSoC5/DAC_Out.c **** * \brief Writes the value to the physical port (data output register), masking
  30:Generated_Source\PSoC5/DAC_Out.c **** *  and shifting the bits appropriately. 
  31:Generated_Source\PSoC5/DAC_Out.c **** *
  32:Generated_Source\PSoC5/DAC_Out.c **** * The data output register controls the signal applied to the physical pin in 
  33:Generated_Source\PSoC5/DAC_Out.c **** * conjunction with the drive mode parameter. This function avoids changing 
  34:Generated_Source\PSoC5/DAC_Out.c **** * other bits in the port by using the appropriate method (read-modify-write or
  35:Generated_Source\PSoC5/DAC_Out.c **** * bit banding).
  36:Generated_Source\PSoC5/DAC_Out.c **** *
  37:Generated_Source\PSoC5/DAC_Out.c **** * <b>Note</b> This function should not be used on a hardware digital output pin 
  38:Generated_Source\PSoC5/DAC_Out.c **** * as it is driven by the hardware signal attached to it.
  39:Generated_Source\PSoC5/DAC_Out.c **** *
  40:Generated_Source\PSoC5/DAC_Out.c **** * \param value
  41:Generated_Source\PSoC5/DAC_Out.c **** *  Value to write to the component instance.
  42:Generated_Source\PSoC5/DAC_Out.c **** *
  43:Generated_Source\PSoC5/DAC_Out.c **** * \return 
ARM GAS  C:\Users\Luggi\AppData\Local\Temp\ccUS1Rr5.s 			page 15


  44:Generated_Source\PSoC5/DAC_Out.c **** *  None 
  45:Generated_Source\PSoC5/DAC_Out.c **** *
  46:Generated_Source\PSoC5/DAC_Out.c **** * \sideeffect
  47:Generated_Source\PSoC5/DAC_Out.c **** *  If you use read-modify-write operations that are not atomic; the Interrupt 
  48:Generated_Source\PSoC5/DAC_Out.c **** *  Service Routines (ISR) can cause corruption of this function. An ISR that 
  49:Generated_Source\PSoC5/DAC_Out.c **** *  interrupts this function and performs writes to the Pins component data 
  50:Generated_Source\PSoC5/DAC_Out.c **** *  register can cause corrupted port data. To avoid this issue, you should 
  51:Generated_Source\PSoC5/DAC_Out.c **** *  either use the Per-Pin APIs (primary method) or disable interrupts around 
  52:Generated_Source\PSoC5/DAC_Out.c **** *  this function.
  53:Generated_Source\PSoC5/DAC_Out.c **** *
  54:Generated_Source\PSoC5/DAC_Out.c **** * \funcusage
  55:Generated_Source\PSoC5/DAC_Out.c **** *  \snippet DAC_Out_SUT.c usage_DAC_Out_Write
  56:Generated_Source\PSoC5/DAC_Out.c **** *******************************************************************************/
  57:Generated_Source\PSoC5/DAC_Out.c **** void DAC_Out_Write(uint8 value)
  58:Generated_Source\PSoC5/DAC_Out.c **** {
 204              		.loc 1 58 0
 205              		.cfi_startproc
 206              		@ args = 0, pretend = 0, frame = 0
 207              		@ frame_needed = 0, uses_anonymous_args = 0
 208              		@ link register save eliminated.
 209              	.LVL0:
  59:Generated_Source\PSoC5/DAC_Out.c ****     uint8 staticBits = (DAC_Out_DR & (uint8)(~DAC_Out_MASK));
 210              		.loc 1 59 0
 211 0000 044A     		ldr	r2, .L2
 212 0002 1378     		ldrb	r3, [r2]	@ zero_extendqisi2
 213 0004 03F0DF03 		and	r3, r3, #223
 214              	.LVL1:
  60:Generated_Source\PSoC5/DAC_Out.c ****     DAC_Out_DR = staticBits | ((uint8)(value << DAC_Out_SHIFT) & DAC_Out_MASK);
 215              		.loc 1 60 0
 216 0008 4001     		lsls	r0, r0, #5
 217              	.LVL2:
 218 000a 00F02000 		and	r0, r0, #32
 219 000e 1843     		orrs	r0, r0, r3
 220 0010 1070     		strb	r0, [r2]
 221 0012 7047     		bx	lr
 222              	.L3:
 223              		.align	2
 224              	.L2:
 225 0014 40510040 		.word	1073762624
 226              		.cfi_endproc
 227              	.LFE0:
 228              		.size	DAC_Out_Write, .-DAC_Out_Write
 229              		.section	.text.DAC_Out_SetDriveMode,"ax",%progbits
 230              		.align	2
 231              		.global	DAC_Out_SetDriveMode
 232              		.thumb
 233              		.thumb_func
 234              		.type	DAC_Out_SetDriveMode, %function
 235              	DAC_Out_SetDriveMode:
 236              	.LFB1:
  61:Generated_Source\PSoC5/DAC_Out.c **** }
  62:Generated_Source\PSoC5/DAC_Out.c **** 
  63:Generated_Source\PSoC5/DAC_Out.c **** 
  64:Generated_Source\PSoC5/DAC_Out.c **** /*******************************************************************************
  65:Generated_Source\PSoC5/DAC_Out.c **** * Function Name: DAC_Out_SetDriveMode
  66:Generated_Source\PSoC5/DAC_Out.c **** ****************************************************************************//**
  67:Generated_Source\PSoC5/DAC_Out.c **** *
ARM GAS  C:\Users\Luggi\AppData\Local\Temp\ccUS1Rr5.s 			page 16


  68:Generated_Source\PSoC5/DAC_Out.c **** * \brief Sets the drive mode for each of the Pins component's pins.
  69:Generated_Source\PSoC5/DAC_Out.c **** * 
  70:Generated_Source\PSoC5/DAC_Out.c **** * <b>Note</b> This affects all pins in the Pins component instance. Use the
  71:Generated_Source\PSoC5/DAC_Out.c **** * Per-Pin APIs if you wish to control individual pin's drive modes.
  72:Generated_Source\PSoC5/DAC_Out.c **** *
  73:Generated_Source\PSoC5/DAC_Out.c **** * \param mode
  74:Generated_Source\PSoC5/DAC_Out.c **** *  Mode for the selected signals. Valid options are documented in 
  75:Generated_Source\PSoC5/DAC_Out.c **** *  \ref driveMode.
  76:Generated_Source\PSoC5/DAC_Out.c **** *
  77:Generated_Source\PSoC5/DAC_Out.c **** * \return
  78:Generated_Source\PSoC5/DAC_Out.c **** *  None
  79:Generated_Source\PSoC5/DAC_Out.c **** *
  80:Generated_Source\PSoC5/DAC_Out.c **** * \sideeffect
  81:Generated_Source\PSoC5/DAC_Out.c **** *  If you use read-modify-write operations that are not atomic, the ISR can
  82:Generated_Source\PSoC5/DAC_Out.c **** *  cause corruption of this function. An ISR that interrupts this function 
  83:Generated_Source\PSoC5/DAC_Out.c **** *  and performs writes to the Pins component Drive Mode registers can cause 
  84:Generated_Source\PSoC5/DAC_Out.c **** *  corrupted port data. To avoid this issue, you should either use the Per-Pin
  85:Generated_Source\PSoC5/DAC_Out.c **** *  APIs (primary method) or disable interrupts around this function.
  86:Generated_Source\PSoC5/DAC_Out.c **** *
  87:Generated_Source\PSoC5/DAC_Out.c **** * \funcusage
  88:Generated_Source\PSoC5/DAC_Out.c **** *  \snippet DAC_Out_SUT.c usage_DAC_Out_SetDriveMode
  89:Generated_Source\PSoC5/DAC_Out.c **** *******************************************************************************/
  90:Generated_Source\PSoC5/DAC_Out.c **** void DAC_Out_SetDriveMode(uint8 mode)
  91:Generated_Source\PSoC5/DAC_Out.c **** {
 237              		.loc 1 91 0
 238              		.cfi_startproc
 239              		@ args = 0, pretend = 0, frame = 0
 240              		@ frame_needed = 0, uses_anonymous_args = 0
 241              		@ link register save eliminated.
 242              	.LVL3:
  92:Generated_Source\PSoC5/DAC_Out.c **** 	CyPins_SetPinDriveMode(DAC_Out_0, mode);
 243              		.loc 1 92 0
 244 0000 044A     		ldr	r2, .L5
 245 0002 1378     		ldrb	r3, [r2]	@ zero_extendqisi2
 246 0004 03F0F103 		and	r3, r3, #241
 247 0008 00F00E00 		and	r0, r0, #14
 248              	.LVL4:
 249 000c 1843     		orrs	r0, r0, r3
 250 000e 1070     		strb	r0, [r2]
 251 0010 7047     		bx	lr
 252              	.L6:
 253 0012 00BF     		.align	2
 254              	.L5:
 255 0014 25500040 		.word	1073762341
 256              		.cfi_endproc
 257              	.LFE1:
 258              		.size	DAC_Out_SetDriveMode, .-DAC_Out_SetDriveMode
 259              		.section	.text.DAC_Out_Read,"ax",%progbits
 260              		.align	2
 261              		.global	DAC_Out_Read
 262              		.thumb
 263              		.thumb_func
 264              		.type	DAC_Out_Read, %function
 265              	DAC_Out_Read:
 266              	.LFB2:
  93:Generated_Source\PSoC5/DAC_Out.c **** }
  94:Generated_Source\PSoC5/DAC_Out.c **** 
ARM GAS  C:\Users\Luggi\AppData\Local\Temp\ccUS1Rr5.s 			page 17


  95:Generated_Source\PSoC5/DAC_Out.c **** 
  96:Generated_Source\PSoC5/DAC_Out.c **** /*******************************************************************************
  97:Generated_Source\PSoC5/DAC_Out.c **** * Function Name: DAC_Out_Read
  98:Generated_Source\PSoC5/DAC_Out.c **** ****************************************************************************//**
  99:Generated_Source\PSoC5/DAC_Out.c **** *
 100:Generated_Source\PSoC5/DAC_Out.c **** * \brief Reads the associated physical port (pin status register) and masks 
 101:Generated_Source\PSoC5/DAC_Out.c **** *  the required bits according to the width and bit position of the component
 102:Generated_Source\PSoC5/DAC_Out.c **** *  instance. 
 103:Generated_Source\PSoC5/DAC_Out.c **** *
 104:Generated_Source\PSoC5/DAC_Out.c **** * The pin's status register returns the current logic level present on the 
 105:Generated_Source\PSoC5/DAC_Out.c **** * physical pin.
 106:Generated_Source\PSoC5/DAC_Out.c **** *
 107:Generated_Source\PSoC5/DAC_Out.c **** * \return 
 108:Generated_Source\PSoC5/DAC_Out.c **** *  The current value for the pins in the component as a right justified number.
 109:Generated_Source\PSoC5/DAC_Out.c **** *
 110:Generated_Source\PSoC5/DAC_Out.c **** * \funcusage
 111:Generated_Source\PSoC5/DAC_Out.c **** *  \snippet DAC_Out_SUT.c usage_DAC_Out_Read  
 112:Generated_Source\PSoC5/DAC_Out.c **** *******************************************************************************/
 113:Generated_Source\PSoC5/DAC_Out.c **** uint8 DAC_Out_Read(void)
 114:Generated_Source\PSoC5/DAC_Out.c **** {
 267              		.loc 1 114 0
 268              		.cfi_startproc
 269              		@ args = 0, pretend = 0, frame = 0
 270              		@ frame_needed = 0, uses_anonymous_args = 0
 271              		@ link register save eliminated.
 115:Generated_Source\PSoC5/DAC_Out.c ****     return (DAC_Out_PS & DAC_Out_MASK) >> DAC_Out_SHIFT;
 272              		.loc 1 115 0
 273 0000 024B     		ldr	r3, .L8
 274 0002 1878     		ldrb	r0, [r3]	@ zero_extendqisi2
 116:Generated_Source\PSoC5/DAC_Out.c **** }
 275              		.loc 1 116 0
 276 0004 C0F34010 		ubfx	r0, r0, #5, #1
 277 0008 7047     		bx	lr
 278              	.L9:
 279 000a 00BF     		.align	2
 280              	.L8:
 281 000c 41510040 		.word	1073762625
 282              		.cfi_endproc
 283              	.LFE2:
 284              		.size	DAC_Out_Read, .-DAC_Out_Read
 285              		.section	.text.DAC_Out_ReadDataReg,"ax",%progbits
 286              		.align	2
 287              		.global	DAC_Out_ReadDataReg
 288              		.thumb
 289              		.thumb_func
 290              		.type	DAC_Out_ReadDataReg, %function
 291              	DAC_Out_ReadDataReg:
 292              	.LFB3:
 117:Generated_Source\PSoC5/DAC_Out.c **** 
 118:Generated_Source\PSoC5/DAC_Out.c **** 
 119:Generated_Source\PSoC5/DAC_Out.c **** /*******************************************************************************
 120:Generated_Source\PSoC5/DAC_Out.c **** * Function Name: DAC_Out_ReadDataReg
 121:Generated_Source\PSoC5/DAC_Out.c **** ****************************************************************************//**
 122:Generated_Source\PSoC5/DAC_Out.c **** *
 123:Generated_Source\PSoC5/DAC_Out.c **** * \brief Reads the associated physical port's data output register and masks 
 124:Generated_Source\PSoC5/DAC_Out.c **** *  the correct bits according to the width and bit position of the component 
 125:Generated_Source\PSoC5/DAC_Out.c **** *  instance. 
ARM GAS  C:\Users\Luggi\AppData\Local\Temp\ccUS1Rr5.s 			page 18


 126:Generated_Source\PSoC5/DAC_Out.c **** *
 127:Generated_Source\PSoC5/DAC_Out.c **** * The data output register controls the signal applied to the physical pin in 
 128:Generated_Source\PSoC5/DAC_Out.c **** * conjunction with the drive mode parameter. This is not the same as the 
 129:Generated_Source\PSoC5/DAC_Out.c **** * preferred DAC_Out_Read() API because the 
 130:Generated_Source\PSoC5/DAC_Out.c **** * DAC_Out_ReadDataReg() reads the data register instead of the status 
 131:Generated_Source\PSoC5/DAC_Out.c **** * register. For output pins this is a useful function to determine the value 
 132:Generated_Source\PSoC5/DAC_Out.c **** * just written to the pin.
 133:Generated_Source\PSoC5/DAC_Out.c **** *
 134:Generated_Source\PSoC5/DAC_Out.c **** * \return 
 135:Generated_Source\PSoC5/DAC_Out.c **** *  The current value of the data register masked and shifted into a right 
 136:Generated_Source\PSoC5/DAC_Out.c **** *  justified number for the component instance.
 137:Generated_Source\PSoC5/DAC_Out.c **** *
 138:Generated_Source\PSoC5/DAC_Out.c **** * \funcusage
 139:Generated_Source\PSoC5/DAC_Out.c **** *  \snippet DAC_Out_SUT.c usage_DAC_Out_ReadDataReg 
 140:Generated_Source\PSoC5/DAC_Out.c **** *******************************************************************************/
 141:Generated_Source\PSoC5/DAC_Out.c **** uint8 DAC_Out_ReadDataReg(void)
 142:Generated_Source\PSoC5/DAC_Out.c **** {
 293              		.loc 1 142 0
 294              		.cfi_startproc
 295              		@ args = 0, pretend = 0, frame = 0
 296              		@ frame_needed = 0, uses_anonymous_args = 0
 297              		@ link register save eliminated.
 143:Generated_Source\PSoC5/DAC_Out.c ****     return (DAC_Out_DR & DAC_Out_MASK) >> DAC_Out_SHIFT;
 298              		.loc 1 143 0
 299 0000 024B     		ldr	r3, .L11
 300 0002 1878     		ldrb	r0, [r3]	@ zero_extendqisi2
 144:Generated_Source\PSoC5/DAC_Out.c **** }
 301              		.loc 1 144 0
 302 0004 C0F34010 		ubfx	r0, r0, #5, #1
 303 0008 7047     		bx	lr
 304              	.L12:
 305 000a 00BF     		.align	2
 306              	.L11:
 307 000c 40510040 		.word	1073762624
 308              		.cfi_endproc
 309              	.LFE3:
 310              		.size	DAC_Out_ReadDataReg, .-DAC_Out_ReadDataReg
 311              		.text
 312              	.Letext0:
 313              		.file 2 "Generated_Source\\PSoC5\\cytypes.h"