ARM GAS  C:\Users\Luggi\AppData\Local\Temp\ccSuMhbE.s 			page 1


   1              		.syntax unified
   2              		.cpu cortex-m3
   3              		.fpu softvfp
   4              		.eabi_attribute 20, 1
   5              		.eabi_attribute 21, 1
   6              		.eabi_attribute 23, 3
   7              		.eabi_attribute 24, 1
   8              		.eabi_attribute 25, 1
   9              		.eabi_attribute 26, 1
  10              		.eabi_attribute 30, 1
  11              		.eabi_attribute 34, 1
  12              		.eabi_attribute 18, 4
  13              		.thumb
  14              		.file	"Diode_Pumpseite.c"
  15              		.text
  16              	.Ltext0:
  17              		.section	.gnu.lto_.profile.bb47791,"",%progbits
  18 0000 789C6366 		.ascii	"x\234cf```a\200\000F\006IQ\000\000\273\0007"
  18      60606061 
  18      80004606 
  18      49510000 
  18      BB0037
  19              		.text
  20              		.section	.gnu.lto_.inline.bb47791,"",%progbits
  21 0000 789C6366 		.ascii	"x\234cf\300\016\022\2404\013\003\003'\007##\003#\003"
  21      C00E12A0 
  21      340B0303 
  21      27072323 
  21      032303
  22 0013 0333C701 		.ascii	"\0033\307\001;\006\266\005\362L\014,\013\344Y@\222\214"
  22      3B06B605 
  22      F24C0C2C 
  22      0BE45940 
  22      928C
  23 0025 0C1CECE8 		.ascii	"\014\034\354\350rL\027\370\301rL\014l\254\214\014Ll"
  23      724C17F8 
  23      C1724C0C 
  23      6CAC8C0C 
  23      4C6C
  24 0037 1FF420E2 		.ascii	"\037\364 \342@\300\214)\304\000\000\333l\011\322"
  24      40C08C29 
  24      C40000DB 
  24      6C09D2
  25              		.text
  26              		.section	.gnu.lto_.jmpfuncs.bb47791,"",%progbits
  27 0000 789C6366 		.ascii	"x\234cf\300\016\204\2404\013\003##c=#\210`b``\006\212"
  27      C00E84A0 
  27      340B0323 
  27      23633D23 
  27      88606260 
  28 0017 00000DC0 		.ascii	"\000\000\015\300\001$"
  28      0124
  29              		.text
  30              		.section	.gnu.lto_.pureconst.bb47791,"",%progbits
  31 0000 789C6366 		.ascii	"x\234cf``\340d\200\000\026\006)F)&)f)\000\002\305\000"
  31      6060E064 
  31      80001606 
ARM GAS  C:\Users\Luggi\AppData\Local\Temp\ccSuMhbE.s 			page 2


  31      29462926 
  31      29662900 
  32 0017 7F       		.ascii	"\177"
  33              		.text
  34              		.section	.gnu.lto_Diode_Pumpseite_Write.bb47791,"",%progbits
  35 0000 789C6591 		.ascii	"x\234e\221OHTQ\024\306\357w\357{3\332\270\210\226\263"
  35      4F485451 
  35      14C6EF77 
  35      EF7B33DA 
  35      B88896B3 
  36 0014 1531415A 		.ascii	"\0251AZ\004\355Z\210\005m\007\334\016\3100\276\305@"
  36      04ED5A88 
  36      056D07DC 
  36      0EC830BE 
  36      C540
  37 0026 35E1BC69 		.ascii	"5\341\274i\353}:(\004\222ha \003ZD\177\246\324F\260"
  37      EB7D3A28 
  37      04926861 
  37      20035A44 
  37      7FA6D446 
  38 003b 4DC1CB06 		.ascii	"M\301\313\006\202\242\006\027\025\210\216\012S\330N"
  38      82A20617 
  38      15888E0A 
  38      53D84E
  39 004a 5132139D 		.ascii	"Q2\023\235\316\271w\243t\341\376y\207\337\367\335\357"
  39      CEB977A3 
  39      74E1FE79 
  39      87DFF7DD 
  39      EF
  40 005b 9EA7C4FF 		.ascii	"\236\247\304\377#N\363\274\024\3422\355P\002r\354\213"
  40      234EF3BC 
  40      14E232ED 
  40      500272EC 
  40      8B
  41 006c 10419304 		.ascii	"\020A\223\004\370  \006$\006\360K\356H\214\205\245\007"
  41      F8202006 
  41      2406F04B 
  41      EE488C85 
  41      A507
  42 007e B1F6C75A 		.ascii	"\261\366\307Z\353\355\361j\220\010q@\272]i}\360\004"
  42      EBEDF16A 
  42      90087140 
  42      BA5D697D 
  42      F004
  43 0090 EDC4EC96 		.ascii	"\355\304\354\226\364=\245:!\350<\277\374\3718\332\366"
  43      F43DA53A 
  43      21E83CBF 
  43      FCF938DA 
  43      F6
  44 00a1 48EBC1F0 		.ascii	"H\353\301\360\343\254\356\"\034x\012E\012t\306\321\021"
  44      E3ACEE22 
  44      1C780A45 
  44      0A74C6D1 
  44      11
  45 00b2 17541078 		.ascii	"\027T\020x\2066\206\313\243\225E\251.\032\341\314\247"
  45      863686CB 
  45      A39545A9 
ARM GAS  C:\Users\Luggi\AppData\Local\Temp\ccSuMhbE.s 			page 3


  45      2E1AE1CC 
  45      A7
  46 00c3 CD4A4BEB 		.ascii	"\315JK\353\014\0117\016\027\223a0\255\217\033\015#\177"
  46      0C09370E 
  46      17936130 
  46      AD8F1B0D 
  46      237F
  47 00d5 7E526E07 		.ascii	"~Rn\007\361;\205\243\357\261H\201\202\235E\011\2556"
  47      F13B85A3 
  47      EFB14881 
  47      829D4509 
  47      AD36
  48 00e7 135E2002 		.ascii	"\023^ \002\332\2702w.\324\215\306\302\333w\177\321,"
  48      DAB83277 
  48      2ED48DC6 
  48      C2DB777F 
  48      D12C
  49 00f9 E95A490F 		.ascii	"\351ZI\017\245\262\003\276\335\345B\204\227(/B\324i"
  49      A5B203BE 
  49      DDE54284 
  49      97282F42 
  49      D469
  50 010b F2E37FD0 		.ascii	"\362\343\177\320\007\355j\005K\277\357\324&\243\354"
  50      07ED6A05 
  50      4BBFEFD4 
  50      26A3EC
  51 011a B82FB913 		.ascii	"\270/\271\023_'_\337o\331\222\007R\205\017\003\355p"
  51      5F275FDF 
  51      6FD99207 
  51      52850F03 
  51      ED70
  52 012c 86F57A75 		.ascii	"\206\365zu\271\311\224L\244\315\265\221\211\346\"\246"
  52      B9C9944C 
  52      A4CDB591 
  52      89E622A6 
  53 013c 8202E576 		.ascii	"\202\002\345v\360\022q\314\202\"c\016E\210\025\014\375"
  53      F01271CC 
  53      8222630E 
  53      4588150C 
  53      FD
  54 014d 195E8535 		.ascii	"\031^\2055T\326s\372Mm\324x\342\210\2722O\3607H\363"
  54      54D673FA 
  54      4D6DD478 
  54      E288BA32 
  54      4FF03748 
  55 0162 084A4A14 		.ascii	"\010JJ\024\213V\207\177\216\304\254\312\335\227\016"
  55      8B56877F 
  55      8EC4ACCA 
  55      DD970E
  56 0171 A93E14B7 		.ascii	"\251>\024\267\312\016\253\270\225\257Hd\254+\312B\314"
  56      CA0EABB8 
  56      95AF4864 
  56      AC2BCA42 
  56      CC
  57 0182 1154DD78 		.ascii	"\021T\335x\177\327X;\324\273\262\205\366\"\026\211\032"
  57      7FD7583B 
  57      D4BBB285 
ARM GAS  C:\Users\Luggi\AppData\Local\Temp\ccSuMhbE.s 			page 4


  57      F6221689 
  57      1A
  58 0193 8ADD97C6 		.ascii	"\212\335\227\306M\240S\341\203\320=\035\177\201\342"
  58      4DA053E1 
  58      83D03D1D 
  58      7F81E2
  59 01a2 9348D410 		.ascii	"\223H\324\020\204\207.\363\374\017\352t;u\212\372\326"
  59      84872EF3 
  59      FC0FEA74 
  59      3B758AFA 
  59      D6
  60 01b3 71CDBBE9 		.ascii	"q\315\273\351\365\247|\257\257\267'\233\357O{\311DO"
  60      F5A77CAF 
  60      AFB7279B 
  60      EF4F7BC9 
  60      444F
  61 01c5 F6CAA5E4 		.ascii	"\366\312\245\344\325L\266\317\353M\344o\334\312y\031"
  61      D54CB6CF 
  61      EB4DE46F 
  61      DCCA7919 
  62 01d5 DFBB9016 		.ascii	"\337\273\220\026\356\355\324\365\274w&\347\247\374L"
  62      EEEDD4F5 
  62      BC7726E7 
  62      A7FC4C
  63 01e4 BA3BE3E7 		.ascii	"\272;\343\347\376\001&H\320\260"
  63      FE012648 
  63      D0B0
  64              		.text
  65              		.section	.gnu.lto_Diode_Pumpseite_SetDriveMode.bb47791,"",%progbits
  66 0000 789C7D51 		.ascii	"x\234}QM(\204Q\024\275\347\275o~4\221\2544{I\011\033"
  66      4D288451 
  66      14BDE7BD 
  66      6F7E3491 
  66      AC347B49 
  67 0016 7B456C95 		.ascii	"{El\225\255\232\304\247,\030\371Y\373\206\261\2612V"
  67      AD9AC4A7 
  67      2C18F959 
  67      FB86B1B1 
  67      3256
  68 0028 4ACA4F32 		.ascii	"J\312O2\376\225ba3\311N\021\233A~6\343g\026d\"L\322"
  68      FE956261 
  68      33C94E11 
  68      9B417E36 
  68      E3671664 
  69 003f 38EF1B8B 		.ascii	"8\357\033\213)\345\365\275\373\356\271\235s\276\373"
  69      29E5F5BD 
  69      FBEEB99D 
  69      73BEFB
  70 004e EED3F277 		.ascii	"\356\323\362w\005\271\323\020\251\343\011-P\223\307"
  70      05B9D310 
  70      A9E3092D 
  70      5093C7
  71 005d 2211BF02 		.ascii	"\"\021\277\002L\"\220\021\205\021\244UFa2\2616\035\250"
  71      4C229011 
  71      8511A455 
  71      466132B1 
  71      361DA8
ARM GAS  C:\Users\Luggi\AppData\Local\Temp\ccSuMhbE.s 			page 5


  72 0070 5C721CE7 		.ascii	"\\r\034\347ea\257|\274<\253D^U\336\006\313\250$\345"
  72      6561AF7C 
  72      BC3CAB44 
  72      5E55DE06 
  72      CBA824E5 
  73 0084 219B5E2E 		.ascii	"!\233^.\326\325\020\346\337\261\344\231\252Xt\234\321"
  73      D6D510E6 
  73      DFB1E499 
  73      AA58749C 
  73      D1
  74 0095 C4C5A6D3 		.ascii	"\304\305\246\323\200,=\343\320T\240:\210\252\240\260"
  74      802C3DE3 
  74      D054A03A 
  74      88AAA0B0 
  75 00a5 20584185 		.ascii	" XA\205!g\242\337\311\2007J\357\322\274'V\341e[\262"
  75      2167A2DF 
  75      C980374A 
  75      EFD2BC27 
  75      56E1655B 
  76 00ba 55967072 		.ascii	"U\226pr\271\327\353X\274\026\001E\215\322\014\3322\301"
  76      B9D7EB58 
  76      BC160145 
  76      8DD20CDA 
  76      32C1
  77 00cc 0323F79A 		.ascii	"\003#\367\232\324g\202\337\204\"\303\021Iq\233\033\334"
  77      D46782DF 
  77      8422C311 
  77      49719B1B 
  77      DC
  78 00dd 11F0D497 		.ascii	"\021\360\324\2278x\237\270\237\261\214\357\2072\327"
  78      38789FB8 
  78      9FB18CEF 
  78      8732D7
  79 00ec B98ADD76 		.ascii	"\271\212\335v?\252\254\262\346\347\"\216e\232\270M\235"
  79      3FAAACB2 
  79      E6E7228E 
  79      659AB84D 
  79      9D
  80 00fd 9CFADD92 		.ascii	"\234\372\335\222\030\230<\337\337U\263\230\211D\331"
  80      18983CDF 
  80      DF55B398 
  80      8944D9
  81 010c BB076B08 		.ascii	"\273\007k\010b\035\234\02760\013\271\304\350\215/\357"
  81      621D9C17 
  81      36300BB9 
  81      C4E88D2F 
  81      EF
  82 011d A669483C 		.ascii	"\246iH<\366\351\315c\213%\352/\236_\216\\;\235\311\375"
  82      F6E9CD63 
  82      8B25EA2F 
  82      9E5F8E5C 
  82      3B9DC9FD 
  83 0131 2E8E7293 		.ascii	".\216r\223\026\005Z~\236B\255\217%jOw\236\016=\256\266"
  83      16055A7E 
  83      9E42AD8F 
  83      256A4F77 
  83      9E0E3DAE 
ARM GAS  C:\Users\Luggi\AppData\Local\Temp\ccSuMhbE.s 			page 6


  84 0146 44B0E54A 		.ascii	"D\260\345J\306\336~)~\367\017\276B\227\"V\211\017\246"
  84      C6DE7E29 
  84      7EF70FBE 
  84      42972256 
  84      890FA6
  85 0159 60F07FBD 		.ascii	"`\360\177\275o\263w\362\345\006\221\304W\263a\233\347"
  85      6FB377F2 
  85      E50691C4 
  85      57B3619B 
  85      E7
  86 016a 4BF12938 		.ascii	"K\361)8%\316\254\252\305\356\263\007:\206\354\256P["
  86      25CEACAA 
  86      C5EEB307 
  86      3A86ECAE 
  86      505B
  87 017c 7878A0D3 		.ascii	"xx\240\323nom\0137\326\2677\365\204\273\354P\353po\377"
  87      6E6F6D0B 
  87      37D6B737 
  87      F584BBEC 
  87      50EB706F 
  88 0191 A0DD3364 		.ascii	"\240\3353d\327t\212\325\313\312\017\203\024\273y"
  88      D7748AD5 
  88      CBCA0F83 
  88      14BB79
  89              		.text
  90              		.section	.gnu.lto_Diode_Pumpseite_Read.bb47791,"",%progbits
  91 0000 789C654F 		.ascii	"x\234eO=HBQ\030\375\316}\317\037\020\"\232\3029\020"
  91      3D484251 
  91      18FDCE7D 
  91      CF1F1022 
  91      9AC23910 
  92 0014 49DA5A6A 		.ascii	"I\332Zj\253\240Up\025$\364\016\016e\230\316>M-\232\372"
  92      ABA05570 
  92      1524F40E 
  92      0E6598CE 
  92      3E4D2D9A 
  93 0029 D90A1B82 		.ascii	"\331\012\033\202\350\027\012\232\032\204\012\3070\242"
  93      E8170A9A 
  93      1A840AC7 
  93      30A2
  94 0037 C190782D 		.ascii	"\301\220x-\012\265e\377o(\373\356{n]\270\347\273\367"
  94      0AB565FF 
  94      6F28FBEE 
  94      7B6E5DB8 
  94      E7BBF7
  95 004a 7CE79E73 		.ascii	"|\347\236s?\215\376/?\357\011\020\015s\205F\020\253"
  95      3F8DFE2F 
  95      3FEF0910 
  95      0D738546 
  95      10AB
  96 005c 75A2BC57 		.ascii	"u\242\274W\000\352@\240\234@\016\317\242#p}\376{\207"
  96      00EA40A0 
  96      9C400ECF 
  96      A223707D 
  96      FE7B87
  97 006f C0AE6114 		.ascii	"\300\256a\024^\326\253\017\276\322\240%\210\336\004"
  97      5ED6AB0F 
ARM GAS  C:\Users\Luggi\AppData\Local\Temp\ccSuMhbE.s 			page 7


  97      BED2A025 
  97      88DE04
  98 007e 21E44750 		.ascii	"!\344GP\371`\017\001ba\247\370\323\360\271\213\206a"
  98      F9600F01 
  98      6261A7F8 
  98      D3F0B98B 
  98      8661
  99 0090 F4AB3E37 		.ascii	"\364\253>7\366\341\346\014:\031\2700\272\335\263\217"
  99      F6E1E60C 
  99      3A19B830 
  99      BADDB38F 
 100 00a0 B5E57178 		.ascii	"\265\345qx@\226\340D\006\235A\270\024\270IyR\213A\305"
 100      4096E044 
 100      069D41B8 
 100      14B84979 
 100      528B41C5 
 101 00b4 B7855055 		.ascii	"\267\205PUk\342\352s\305\334\036S>_B\343\210\327j}C"
 101      6BE2EA73 
 101      C5DC1E53 
 101      3E5F42E3 
 101      88D76A7D 
 102 00c9 7B1296D0 		.ascii	"{\022\226\320.w\362\206\256R\037[7\267^\233\"um\237"
 102      2E77F286 
 102      AE521F5B 
 102      37B75E9B 
 102      22756D9F 
 103 00dd 96CA7D15 		.ascii	"\226\312}\025l\345\213\260\204\216\003\370q\010\376"
 103      6CE58BB0 
 103      848E03F8 
 103      7108FE
 104 00ec 258E5001 		.ascii	"%\216P\0015\261\370]\256\351\216!\034\317\315F\373\335"
 104      35B1F85D 
 104      AEE98E21 
 104      1CCFCD46 
 104      FBDD
 105 00fe F604CF74 		.ascii	"\366\004\317t\314\332&\012\246\307\221\350\254R\217"
 105      CCDA260A 
 105      A6C791E8 
 105      AC528F
 106 010d CC72ADC7 		.ascii	"\314r\255\307\270\230\304\220-\272_\0129\234\242\311"
 106      B898C490 
 106      2DBA5F0A 
 106      399CA2C9 
 107 011d 047A377B 		.ascii	"\004z7{\022\250\011x\236\340\264\234\223\351\231\214"
 107      12A80978 
 107      9EE0B49C 
 107      93E9998C 
 108 012d 4CC422A9 		.ascii	"L\304\"\251l:.\243\341Hjr4:\225L%d,\234\235\235_\220"
 108      6C3A2EA3 
 108      E1486A72 
 108      343A954C 
 108      25642C9C 
 109 0145 C98C1C89 		.ascii	"\311\214\034\211\323\037\377l}>"
 109      D31FFF6C 
 109      7D3E
 110              		.text
 111              		.section	.gnu.lto_Diode_Pumpseite_ReadDataReg.bb47791,"",%progbits
ARM GAS  C:\Users\Luggi\AppData\Local\Temp\ccSuMhbE.s 			page 8


 112 0000 789C654F 		.ascii	"x\234eO=H\202Q\024\275\347~\237?aC4\205s \226\264\265"
 112      3D488251 
 112      14BDE77E 
 112      9F3F6143 
 112      34857320 
 113 0017 3456D02A 		.ascii	"4V\320*\270\012\022\372\015\016e\230\316~\232i4E\021"
 113      B80A12FA 
 113      0D0E6598 
 113      CE7E9A69 
 113      344511
 114 002a 41E11244 		.ascii	"A\341\022DYACC\264I8FR\022\206\224\021(\324\226\024"
 114      59414343 
 114      B4493846 
 114      52128694 
 114      1128D496 
 115 003f 9543DA7D 		.ascii	"\225C\332}\352\326\203w\356{\347\236w\316\273\032\375"
 115      EAD68377 
 115      EE7BE79E 
 115      77CEBB1A 
 115      FD
 116 0050 5F4ED9D3 		.ascii	"_N\331\323 \032\227\012\215\300\0337DI;\003\352@\240"
 116      201A970A 
 116      8DC01B37 
 116      44493B03 
 116      EA40A0
 117 0063 04238137 		.ascii	"\004#\2017n2\256/\333e\270\016L3\365~W~t\254\216\264"
 117      6E32AE2F 
 117      DB65B80E 
 117      4C33F57E 
 117      577E74AC 
 118 0079 98E88309 		.ascii	"\230\350\203\011\036'\334\312\007\207p\221\010\233\351"
 118      1E27DCCA 
 118      07877091 
 118      089BE9
 119 0088 DF8AC39A 		.ascii	"\337\212\303\2326MsH\365\245q\004\253d\320\331p\301"
 119      364D7348 
 119      F5A57104 
 119      AB64D0D9 
 119      70C1
 120 009a EC74CE4B 		.ascii	"\354t\316K\233kcl\003\265X\022\005t\001\266(\260\222"
 120      9B6B636C 
 120      03B55812 
 120      057401B6 
 120      28B092
 121 00ad F2A4BA80 		.ascii	"\362\244\272\200\212o0\253\252Uq\365\265\336\316O)\237"
 121      8A6F30AB 
 121      AA5571F5 
 121      B5DECE4F 
 121      299F
 122 00bf 6FD624E2 		.ascii	"o\326$\342~\347b{\360\225[\254\025\366\223\246\256R"
 122      7EE7627B 
 122      F0955BAC 
 122      15F693A6 
 122      AE52
 123 00d1 9FEBA55B 		.ascii	"\237\353\245[{\227\"u}y\312n\015\344\260\227L\243\305"
 123      7B972275 
 123      7D79CA6E 
ARM GAS  C:\Users\Luggi\AppData\Local\Temp\ccSuMhbE.s 			page 9


 123      0DE4B097 
 123      4CA3C5
 124 00e4 3AF270E2 		.ascii	":\362p\342\030\362K\234 \007\252b\345'S\324{\206\350"
 124      18F24B9C 
 124      2007AA62 
 124      E52753D4 
 124      7B86E8
 125 00f7 79EE561A 		.ascii	"y\356V\032\237\2322\200\314t*\332*R5[O\242\213J=\252"
 125      9F9A3280 
 125      CC742ADA 
 125      2A52355B 
 125      4FA28B4A 
 126 010d 658A7DC6 		.ascii	"e\212}\306\"$F\273\242\207\254\247\307)\232j@\377\326"
 126      222446BB 
 126      A287ACA7 
 126      C7299A6A 
 126      40FFD6
 127 0120 9D046A02 		.ascii	"\235\004j\002\231\307=g,\032\321\371\230\021\012\370"
 127      99C73D67 
 127      2C1AD1F9 
 127      98110AF8 
 128 0130 22F168D0 		.ascii	"\"\361h\320\360{}\221\231I\377l8\0222\002\336\370\302"
 128      F07B7D91 
 128      9949FF6C 
 128      38123202 
 128      DEF8C2
 129 0143 D2B2118E 		.ascii	"\322\262\021\216\031\023A\372\003@\274}m"
 129      191341FA 
 129      0340BC7D 
 129      6D
 130              		.text
 131              		.section	.gnu.lto_.symbol_nodes.bb47791,"",%progbits
 132 0000 789C6366 		.ascii	"x\234cf``pb\200\002&\206z\006\206\011\347\030\030\352"
 132      60607062 
 132      80022686 
 132      7A068609 
 132      E71818EA 
 133 0014 EB19A62D 		.ascii	"\353\031\246-\340``b\254gD\3413\3253\241\360\231\353"
 133      E0606062 
 133      AC6744E1 
 133      33D533A1 
 133      F099EB
 134 0027 9991F90C 		.ascii	"\231\221\371\014\0000N\020\276"
 134      00304E10 
 134      BE
 135              		.text
 136              		.section	.gnu.lto_.refs.bb47791,"",%progbits
 137 0000 789C6366 		.ascii	"x\234cf```d\200\002\000\000=\000\005"
 137      60606064 
 137      80020000 
 137      3D0005
 138              		.text
 139              		.section	.gnu.lto_.decls.bb47791,"",%progbits
 140 0000 789C8D52 		.ascii	"x\234\215R_H\223Q\024\277\347\273\237S?W\364P*Kh\275"
 140      5F489351 
 140      14BFE7BB 
 140      9F533F57 
ARM GAS  C:\Users\Luggi\AppData\Local\Temp\ccSuMhbE.s 			page 10


 140      F4502A4B 
 141 0016 0882083D 		.ascii	"\010\202\010=\004\276\025(\350K1\224\350AA\206~\330"
 141      04BE1528 
 141      E84B3194 
 141      E8414186 
 141      7ED8
 142 0028 1E529B33 		.ascii	"\036R\2333\360\251\33344\013\247\222d\201&L\255,\247"
 142      F0A9DB34 
 142      340BA792 
 142      6481264C 
 142      AD2CA7
 143 003b F96FCE7F 		.ascii	"\371o\316\177\333\262\007A\012\242!\250/\211\006\366"
 143      DBB20741 
 143      0AA221A8 
 143      2F8906F6 
 144 004b 36A1C242 		.ascii	"6\241\302B\374:\367~[\033k\202\007\316\367\335s\356"
 144      FC3AF77E 
 144      5B1B6B82 
 144      07CEF7DD 
 144      73EE
 145 005d F9FDCE9F 		.ascii	"\371\375\316\237{(!$\033\010\321P\212(!+h\247\240ZH"
 145      7B282124 
 145      1B08D150 
 145      8A28212B 
 145      68A7A05A 
 146 0072 4C64D449 		.ascii	"Ld\324I\324iT/\252\217\374/\223q\2701\324L\324e\324"
 146      D469542F 
 146      AA8FFC2F 
 146      9371B831 
 146      D44CD465 
 147 0087 C5C83D44 		.ascii	"\305\310=Db\022\205s\032\022p\301$\330\351$Xo$g\024"
 147      62128573 
 147      1A1270C1 
 147      24D8E924 
 147      586F2467 
 148 009c 579A04E7 		.ascii	"W\232\004\347M\202\363\235\000\227\254\307}\011|\236"
 148      4D82F39D 
 148      0097ACC7 
 148      7D097C9E 
 149 00ac 1F1F33F6 		.ascii	"\037\0373\366$8\255\230\2719\337\263\332g@\323\250\310"
 149      2438AD98 
 149      B939DFB3 
 149      DA6740D3 
 149      A8C8
 150 00be DC5CF7B7 		.ascii	"\334\\\367\267\265\245Q\011\370\331\335\267\035R\362"
 150      B5A55109 
 150      F8D9DDB7 
 150      1D52F2
 151 00cd 471963ED 		.ascii	"G\031c\355,\020\200\030\305\375\221\205\307\251\210"
 151      2C108018 
 151      C5FD9185 
 151      C7A988
 152 00dc C95484D9 		.ascii	"\311T\204\331\271\366<H\205\251q\234\264\261\361\344"
 152      B9F63C48 
 152      85A9719C 
 152      B4B1F1E4 
 153 00ec 370525B7 		.ascii	"7\005%\267\2351'\013\3670\232M \337\004y&\002\036\310"
ARM GAS  C:\Users\Luggi\AppData\Local\Temp\ccSuMhbE.s 			page 11


 153      9D31270B 
 153      F7309A4D 
 153      20DF0479 
 153      26021EC8 
 154 0100 C5301885 		.ascii	"\3050\030\205|\002o\300\004o\301D\2060A\370Eh3\2071"
 154      7C026FC0 
 154      046FC144 
 154      863041F8 
 154      45683387 
 155 0115 19C64081 		.ascii	"\031\306@\201\327@E\004\266\3013D\222v=\010v\311\262"
 155      D7404504 
 155      B6C13344 
 155      92763D08 
 155      76C9B2
 156 0128 844E1E53 		.ascii	"\204N\036S!\252\375\251m\017KY\275H\300\272Z\330\031"
 156      21AAFDA9 
 156      6D0F4B59 
 156      BD48C0BA 
 156      5AD819
 157 013b 192C99F0 		.ascii	"\031,\231\360\022i_!-\201\011\310\302\3578\310:\301"
 157      12695F21 
 157      2D8109C8 
 157      C2EF38C8 
 157      3AC1
 158 014d B7A3C395 		.ascii	"\267\243\303\225\024zI\264\326\273\324=c4\017\260\301"
 158      147A49B4 
 158      D6BBD43D 
 158      63340FB0 
 158      C1
 159 015e 89B0CB3D 		.ascii	"\211\260\313=@\237\261A';\322\260|\016\202w\377\012"
 159      409FB141 
 159      273BD2B0 
 159      7C0E8277 
 159      FF0A
 160 0170 20FCAC4F 		.ascii	" \374\254Ot\022\314|&\343[\3573\350\035A2r\264\331O"
 160      7412CC7C 
 160      26E35BEF 
 160      33E81D41 
 160      3272B4D9 
 161 0185 05C9E0BC 		.ascii	"\005\311\340\274\333\260\312\002\232vE\340\247\342\360"
 161      DBB0CA02 
 161      9A7645E0 
 161      A7E2F0
 162 0194 5351FCB4 		.ascii	"SQ\374\264\300?l\235\240\361\005\363^b\025\317\210\212"
 162      C03F6C9D 
 162      A0F105F3 
 162      5E6215CF 
 162      888A
 163 01a6 2B22052F 		.ascii	"+\"\005/\357\376\331M\247\235 \222\271\272\327?\244"
 163      EFFED94D 
 163      A79D2092 
 163      B9BAD73F 
 163      A4
 164 01b7 89645FBF 		.ascii	"\211d_\277\357\250\201Vv\250iT `6.\335l4\235W\244\333"
 164      EFA88156 
 164      76A86954 
 164      2060362E 
ARM GAS  C:\Users\Luggi\AppData\Local\Temp\ccSuMhbE.s 			page 12


 164      DD6C349D 
 165 01ce DDF3B84E 		.ascii	"\335\363\270NS\267N\361esd[\326\353\355\037\216\326"
 165      53B74EF1 
 165      6573645B 
 165      D6EBED1F 
 165      8ED6
 166 01e0 CB09E6E2 		.ascii	"\313\011\346\342\010\346\242\004>A\300\236>\032J\243"
 166      08E6A204 
 166      3E41C09E 
 166      3E1A4AA3 
 167 01f0 7E9D60E6 		.ascii	"~\235`\346W\207\357\224\202\317\332r\202g\305E\010}"
 167      5787EF94 
 167      82CFDA72 
 167      8267C545 
 167      087D
 168 0202 EA584FD7 		.ascii	"\352XO\327\027!\021\261t\354\"\034\354\224\266\262\253"
 168      172111B1 
 168      74EC221C 
 168      EC94B6B2 
 168      AB
 169 0213 B0888399 		.ascii	"\260\210\203\231\217-\302\002\3046!\264\346\334\242"
 169      8F2DC202 
 169      C43621B4 
 169      E6DCA2
 170 0222 C60EBE5D 		.ascii	"\306\016\276]8\304\364R\021\033\033\3422\030E\003\370"
 170      38C4F452 
 170      111B1BE2 
 170      32184503 
 170      F8
 171 0233 DF97A8E7 		.ascii	"\337\227\250\347\263\177@\002\223I\351\303->\270\000"
 171      B37F4002 
 171      9349E9C3 
 171      2D3EB800 
 172 0243 4124E2C7 		.ascii	"A$\342\307\300\236\246\335\323tq\245\012w;\177\226\260"
 172      C09EA6DD 
 172      D37471A5 
 172      0A773B7F 
 172      96B0
 173 0255 33AE4C22 		.ascii	"3\256L\"\374\004\002H\356Gra\2464\331\352\034\205\206"
 173      FC040248 
 173      EE477261 
 173      A634D9EA 
 173      1C8586
 174 0268 92EB37CC 		.ascii	"\222\3537\314E\344b\211Z\247\332\255\016\265\246\252"
 174      45E46289 
 174      5AA7DAAD 
 174      0EB5A6AA 
 175 0278 BCBEC95E 		.ascii	"\274\276\311^\255VZ\312\353\213.WV7;\232\033\324\306"
 175      AD565ACA 
 175      EB8B2E57 
 175      56373B9A 
 175      1BD4C6
 176 028b 825BE45C 		.ascii	"\202[\344\\\261\255\276F\255\2624\335nhTm\016\265\352"
 176      B1ADBE46 
 176      ADB234DD 
 176      6E68546D 
 176      0EB5EA
ARM GAS  C:\Users\Luggi\AppData\Local\Temp\ccSuMhbE.s 			page 13


 177 029e A61DBF79 		.ascii	"\246\035\277y\307\340\022\202\013\252IN\"\276\\u\024"
 177      C7E01282 
 177      0BAA494E 
 177      22BE5C75 
 177      14
 178 02af DB6D77D5 		.ascii	"\333mw\325k\350>\233xY\246Zk\316's\026[\035\3262\265"
 178      6BE83E9B 
 178      7859A65A 
 178      6BCE2773 
 178      165B1DD6 
 179 02c5 56B6ABB5 		.ascii	"V\266\253\265\205\177\001\356\027]\231"
 179      857F01EE 
 179      175D99
 180              		.text
 181              		.section	.gnu.lto_.symtab.bb47791,"",%progbits
 182 0000 44696F64 		.ascii	"Diode_Pumpseite_Write\000\000\000\000\000\000\000\000"
 182      655F5075 
 182      6D707365 
 182      6974655F 
 182      57726974 
 183 001d 00000000 		.ascii	"\000\000\000\000\262\000\000\000Diode_Pumpseite_Set"
 183      B2000000 
 183      44696F64 
 183      655F5075 
 183      6D707365 
 184 0038 44726976 		.ascii	"DriveMode\000\000\000\000\000\000\000\000\000\000\000"
 184      654D6F64 
 184      65000000 
 184      00000000 
 184      00000000 
 185 004c 00B40000 		.ascii	"\000\264\000\000\000Diode_Pumpseite_Read\000\000\000"
 185      0044696F 
 185      64655F50 
 185      756D7073 
 185      65697465 
 186 0068 00000000 		.ascii	"\000\000\000\000\000\000\000\000\000\267\000\000\000"
 186      00000000 
 186      00B70000 
 186      00
 187 0075 44696F64 		.ascii	"Diode_Pumpseite_ReadDataReg\000\000\000\000\000\000"
 187      655F5075 
 187      6D707365 
 187      6974655F 
 187      52656164 
 188 0096 00000000 		.ascii	"\000\000\000\000\000\000\271\000\000\000"
 188      0000B900 
 188      0000
 189              		.text
 190              		.section	.gnu.lto_.opts,"",%progbits
 191 0000 272D666E 		.ascii	"'-fno-trapv' '-fno-strict-overflow' '-mcpu=cortex-m"
 191      6F2D7472 
 191      61707627 
 191      20272D66 
 191      6E6F2D73 
 192 0033 33272027 		.ascii	"3' '-mthumb' '-g' '-Og' '-ffunction-sections' '-flt"
 192      2D6D7468 
 192      756D6227 
ARM GAS  C:\Users\Luggi\AppData\Local\Temp\ccSuMhbE.s 			page 14


 192      20272D67 
 192      2720272D 
 193 0066 6F272027 		.ascii	"o' '-ffat-lto-objects'\000"
 193      2D666661 
 193      742D6C74 
 193      6F2D6F62 
 193      6A656374 
 194              		.text
 195              		.cfi_sections	.debug_frame
 196              		.section	.text.Diode_Pumpseite_Write,"ax",%progbits
 197              		.align	2
 198              		.global	Diode_Pumpseite_Write
 199              		.thumb
 200              		.thumb_func
 201              		.type	Diode_Pumpseite_Write, %function
 202              	Diode_Pumpseite_Write:
 203              	.LFB0:
 204              		.file 1 "Generated_Source\\PSoC5\\Diode_Pumpseite.c"
   1:Generated_Source\PSoC5/Diode_Pumpseite.c **** /*******************************************************************************
   2:Generated_Source\PSoC5/Diode_Pumpseite.c **** * File Name: Diode_Pumpseite.c  
   3:Generated_Source\PSoC5/Diode_Pumpseite.c **** * Version 2.20
   4:Generated_Source\PSoC5/Diode_Pumpseite.c **** *
   5:Generated_Source\PSoC5/Diode_Pumpseite.c **** * Description:
   6:Generated_Source\PSoC5/Diode_Pumpseite.c **** *  This file contains API to enable firmware control of a Pins component.
   7:Generated_Source\PSoC5/Diode_Pumpseite.c **** *
   8:Generated_Source\PSoC5/Diode_Pumpseite.c **** * Note:
   9:Generated_Source\PSoC5/Diode_Pumpseite.c **** *
  10:Generated_Source\PSoC5/Diode_Pumpseite.c **** ********************************************************************************
  11:Generated_Source\PSoC5/Diode_Pumpseite.c **** * Copyright 2008-2015, Cypress Semiconductor Corporation.  All rights reserved.
  12:Generated_Source\PSoC5/Diode_Pumpseite.c **** * You may use this file only in accordance with the license, terms, conditions, 
  13:Generated_Source\PSoC5/Diode_Pumpseite.c **** * disclaimers, and limitations in the end user license agreement accompanying 
  14:Generated_Source\PSoC5/Diode_Pumpseite.c **** * the software package with which this file was provided.
  15:Generated_Source\PSoC5/Diode_Pumpseite.c **** *******************************************************************************/
  16:Generated_Source\PSoC5/Diode_Pumpseite.c **** 
  17:Generated_Source\PSoC5/Diode_Pumpseite.c **** #include "cytypes.h"
  18:Generated_Source\PSoC5/Diode_Pumpseite.c **** #include "Diode_Pumpseite.h"
  19:Generated_Source\PSoC5/Diode_Pumpseite.c **** 
  20:Generated_Source\PSoC5/Diode_Pumpseite.c **** /* APIs are not generated for P15[7:6] on PSoC 5 */
  21:Generated_Source\PSoC5/Diode_Pumpseite.c **** #if !(CY_PSOC5A &&\
  22:Generated_Source\PSoC5/Diode_Pumpseite.c **** 	 Diode_Pumpseite__PORT == 15 && ((Diode_Pumpseite__MASK & 0xC0) != 0))
  23:Generated_Source\PSoC5/Diode_Pumpseite.c **** 
  24:Generated_Source\PSoC5/Diode_Pumpseite.c **** 
  25:Generated_Source\PSoC5/Diode_Pumpseite.c **** /*******************************************************************************
  26:Generated_Source\PSoC5/Diode_Pumpseite.c **** * Function Name: Diode_Pumpseite_Write
  27:Generated_Source\PSoC5/Diode_Pumpseite.c **** ****************************************************************************//**
  28:Generated_Source\PSoC5/Diode_Pumpseite.c **** *
  29:Generated_Source\PSoC5/Diode_Pumpseite.c **** * \brief Writes the value to the physical port (data output register), masking
  30:Generated_Source\PSoC5/Diode_Pumpseite.c **** *  and shifting the bits appropriately. 
  31:Generated_Source\PSoC5/Diode_Pumpseite.c **** *
  32:Generated_Source\PSoC5/Diode_Pumpseite.c **** * The data output register controls the signal applied to the physical pin in 
  33:Generated_Source\PSoC5/Diode_Pumpseite.c **** * conjunction with the drive mode parameter. This function avoids changing 
  34:Generated_Source\PSoC5/Diode_Pumpseite.c **** * other bits in the port by using the appropriate method (read-modify-write or
  35:Generated_Source\PSoC5/Diode_Pumpseite.c **** * bit banding).
  36:Generated_Source\PSoC5/Diode_Pumpseite.c **** *
  37:Generated_Source\PSoC5/Diode_Pumpseite.c **** * <b>Note</b> This function should not be used on a hardware digital output pin 
  38:Generated_Source\PSoC5/Diode_Pumpseite.c **** * as it is driven by the hardware signal attached to it.
  39:Generated_Source\PSoC5/Diode_Pumpseite.c **** *
ARM GAS  C:\Users\Luggi\AppData\Local\Temp\ccSuMhbE.s 			page 15


  40:Generated_Source\PSoC5/Diode_Pumpseite.c **** * \param value
  41:Generated_Source\PSoC5/Diode_Pumpseite.c **** *  Value to write to the component instance.
  42:Generated_Source\PSoC5/Diode_Pumpseite.c **** *
  43:Generated_Source\PSoC5/Diode_Pumpseite.c **** * \return 
  44:Generated_Source\PSoC5/Diode_Pumpseite.c **** *  None 
  45:Generated_Source\PSoC5/Diode_Pumpseite.c **** *
  46:Generated_Source\PSoC5/Diode_Pumpseite.c **** * \sideeffect
  47:Generated_Source\PSoC5/Diode_Pumpseite.c **** *  If you use read-modify-write operations that are not atomic; the Interrupt 
  48:Generated_Source\PSoC5/Diode_Pumpseite.c **** *  Service Routines (ISR) can cause corruption of this function. An ISR that 
  49:Generated_Source\PSoC5/Diode_Pumpseite.c **** *  interrupts this function and performs writes to the Pins component data 
  50:Generated_Source\PSoC5/Diode_Pumpseite.c **** *  register can cause corrupted port data. To avoid this issue, you should 
  51:Generated_Source\PSoC5/Diode_Pumpseite.c **** *  either use the Per-Pin APIs (primary method) or disable interrupts around 
  52:Generated_Source\PSoC5/Diode_Pumpseite.c **** *  this function.
  53:Generated_Source\PSoC5/Diode_Pumpseite.c **** *
  54:Generated_Source\PSoC5/Diode_Pumpseite.c **** * \funcusage
  55:Generated_Source\PSoC5/Diode_Pumpseite.c **** *  \snippet Diode_Pumpseite_SUT.c usage_Diode_Pumpseite_Write
  56:Generated_Source\PSoC5/Diode_Pumpseite.c **** *******************************************************************************/
  57:Generated_Source\PSoC5/Diode_Pumpseite.c **** void Diode_Pumpseite_Write(uint8 value)
  58:Generated_Source\PSoC5/Diode_Pumpseite.c **** {
 205              		.loc 1 58 0
 206              		.cfi_startproc
 207              		@ args = 0, pretend = 0, frame = 0
 208              		@ frame_needed = 0, uses_anonymous_args = 0
 209              		@ link register save eliminated.
 210              	.LVL0:
  59:Generated_Source\PSoC5/Diode_Pumpseite.c ****     uint8 staticBits = (Diode_Pumpseite_DR & (uint8)(~Diode_Pumpseite_MASK));
 211              		.loc 1 59 0
 212 0000 044A     		ldr	r2, .L2
 213 0002 1378     		ldrb	r3, [r2]	@ zero_extendqisi2
 214 0004 03F0FD03 		and	r3, r3, #253
 215              	.LVL1:
  60:Generated_Source\PSoC5/Diode_Pumpseite.c ****     Diode_Pumpseite_DR = staticBits | ((uint8)(value << Diode_Pumpseite_SHIFT) & Diode_Pumpseite_MA
 216              		.loc 1 60 0
 217 0008 4000     		lsls	r0, r0, #1
 218              	.LVL2:
 219 000a 00F00200 		and	r0, r0, #2
 220 000e 1843     		orrs	r0, r0, r3
 221 0010 1070     		strb	r0, [r2]
 222 0012 7047     		bx	lr
 223              	.L3:
 224              		.align	2
 225              	.L2:
 226 0014 40510040 		.word	1073762624
 227              		.cfi_endproc
 228              	.LFE0:
 229              		.size	Diode_Pumpseite_Write, .-Diode_Pumpseite_Write
 230              		.section	.text.Diode_Pumpseite_SetDriveMode,"ax",%progbits
 231              		.align	2
 232              		.global	Diode_Pumpseite_SetDriveMode
 233              		.thumb
 234              		.thumb_func
 235              		.type	Diode_Pumpseite_SetDriveMode, %function
 236              	Diode_Pumpseite_SetDriveMode:
 237              	.LFB1:
  61:Generated_Source\PSoC5/Diode_Pumpseite.c **** }
  62:Generated_Source\PSoC5/Diode_Pumpseite.c **** 
  63:Generated_Source\PSoC5/Diode_Pumpseite.c **** 
ARM GAS  C:\Users\Luggi\AppData\Local\Temp\ccSuMhbE.s 			page 16


  64:Generated_Source\PSoC5/Diode_Pumpseite.c **** /*******************************************************************************
  65:Generated_Source\PSoC5/Diode_Pumpseite.c **** * Function Name: Diode_Pumpseite_SetDriveMode
  66:Generated_Source\PSoC5/Diode_Pumpseite.c **** ****************************************************************************//**
  67:Generated_Source\PSoC5/Diode_Pumpseite.c **** *
  68:Generated_Source\PSoC5/Diode_Pumpseite.c **** * \brief Sets the drive mode for each of the Pins component's pins.
  69:Generated_Source\PSoC5/Diode_Pumpseite.c **** * 
  70:Generated_Source\PSoC5/Diode_Pumpseite.c **** * <b>Note</b> This affects all pins in the Pins component instance. Use the
  71:Generated_Source\PSoC5/Diode_Pumpseite.c **** * Per-Pin APIs if you wish to control individual pin's drive modes.
  72:Generated_Source\PSoC5/Diode_Pumpseite.c **** *
  73:Generated_Source\PSoC5/Diode_Pumpseite.c **** * \param mode
  74:Generated_Source\PSoC5/Diode_Pumpseite.c **** *  Mode for the selected signals. Valid options are documented in 
  75:Generated_Source\PSoC5/Diode_Pumpseite.c **** *  \ref driveMode.
  76:Generated_Source\PSoC5/Diode_Pumpseite.c **** *
  77:Generated_Source\PSoC5/Diode_Pumpseite.c **** * \return
  78:Generated_Source\PSoC5/Diode_Pumpseite.c **** *  None
  79:Generated_Source\PSoC5/Diode_Pumpseite.c **** *
  80:Generated_Source\PSoC5/Diode_Pumpseite.c **** * \sideeffect
  81:Generated_Source\PSoC5/Diode_Pumpseite.c **** *  If you use read-modify-write operations that are not atomic, the ISR can
  82:Generated_Source\PSoC5/Diode_Pumpseite.c **** *  cause corruption of this function. An ISR that interrupts this function 
  83:Generated_Source\PSoC5/Diode_Pumpseite.c **** *  and performs writes to the Pins component Drive Mode registers can cause 
  84:Generated_Source\PSoC5/Diode_Pumpseite.c **** *  corrupted port data. To avoid this issue, you should either use the Per-Pin
  85:Generated_Source\PSoC5/Diode_Pumpseite.c **** *  APIs (primary method) or disable interrupts around this function.
  86:Generated_Source\PSoC5/Diode_Pumpseite.c **** *
  87:Generated_Source\PSoC5/Diode_Pumpseite.c **** * \funcusage
  88:Generated_Source\PSoC5/Diode_Pumpseite.c **** *  \snippet Diode_Pumpseite_SUT.c usage_Diode_Pumpseite_SetDriveMode
  89:Generated_Source\PSoC5/Diode_Pumpseite.c **** *******************************************************************************/
  90:Generated_Source\PSoC5/Diode_Pumpseite.c **** void Diode_Pumpseite_SetDriveMode(uint8 mode)
  91:Generated_Source\PSoC5/Diode_Pumpseite.c **** {
 238              		.loc 1 91 0
 239              		.cfi_startproc
 240              		@ args = 0, pretend = 0, frame = 0
 241              		@ frame_needed = 0, uses_anonymous_args = 0
 242              		@ link register save eliminated.
 243              	.LVL3:
  92:Generated_Source\PSoC5/Diode_Pumpseite.c **** 	CyPins_SetPinDriveMode(Diode_Pumpseite_0, mode);
 244              		.loc 1 92 0
 245 0000 044A     		ldr	r2, .L5
 246 0002 1378     		ldrb	r3, [r2]	@ zero_extendqisi2
 247 0004 03F0F103 		and	r3, r3, #241
 248 0008 00F00E00 		and	r0, r0, #14
 249              	.LVL4:
 250 000c 1843     		orrs	r0, r0, r3
 251 000e 1070     		strb	r0, [r2]
 252 0010 7047     		bx	lr
 253              	.L6:
 254 0012 00BF     		.align	2
 255              	.L5:
 256 0014 21500040 		.word	1073762337
 257              		.cfi_endproc
 258              	.LFE1:
 259              		.size	Diode_Pumpseite_SetDriveMode, .-Diode_Pumpseite_SetDriveMode
 260              		.section	.text.Diode_Pumpseite_Read,"ax",%progbits
 261              		.align	2
 262              		.global	Diode_Pumpseite_Read
 263              		.thumb
 264              		.thumb_func
 265              		.type	Diode_Pumpseite_Read, %function
ARM GAS  C:\Users\Luggi\AppData\Local\Temp\ccSuMhbE.s 			page 17


 266              	Diode_Pumpseite_Read:
 267              	.LFB2:
  93:Generated_Source\PSoC5/Diode_Pumpseite.c **** }
  94:Generated_Source\PSoC5/Diode_Pumpseite.c **** 
  95:Generated_Source\PSoC5/Diode_Pumpseite.c **** 
  96:Generated_Source\PSoC5/Diode_Pumpseite.c **** /*******************************************************************************
  97:Generated_Source\PSoC5/Diode_Pumpseite.c **** * Function Name: Diode_Pumpseite_Read
  98:Generated_Source\PSoC5/Diode_Pumpseite.c **** ****************************************************************************//**
  99:Generated_Source\PSoC5/Diode_Pumpseite.c **** *
 100:Generated_Source\PSoC5/Diode_Pumpseite.c **** * \brief Reads the associated physical port (pin status register) and masks 
 101:Generated_Source\PSoC5/Diode_Pumpseite.c **** *  the required bits according to the width and bit position of the component
 102:Generated_Source\PSoC5/Diode_Pumpseite.c **** *  instance. 
 103:Generated_Source\PSoC5/Diode_Pumpseite.c **** *
 104:Generated_Source\PSoC5/Diode_Pumpseite.c **** * The pin's status register returns the current logic level present on the 
 105:Generated_Source\PSoC5/Diode_Pumpseite.c **** * physical pin.
 106:Generated_Source\PSoC5/Diode_Pumpseite.c **** *
 107:Generated_Source\PSoC5/Diode_Pumpseite.c **** * \return 
 108:Generated_Source\PSoC5/Diode_Pumpseite.c **** *  The current value for the pins in the component as a right justified number.
 109:Generated_Source\PSoC5/Diode_Pumpseite.c **** *
 110:Generated_Source\PSoC5/Diode_Pumpseite.c **** * \funcusage
 111:Generated_Source\PSoC5/Diode_Pumpseite.c **** *  \snippet Diode_Pumpseite_SUT.c usage_Diode_Pumpseite_Read  
 112:Generated_Source\PSoC5/Diode_Pumpseite.c **** *******************************************************************************/
 113:Generated_Source\PSoC5/Diode_Pumpseite.c **** uint8 Diode_Pumpseite_Read(void)
 114:Generated_Source\PSoC5/Diode_Pumpseite.c **** {
 268              		.loc 1 114 0
 269              		.cfi_startproc
 270              		@ args = 0, pretend = 0, frame = 0
 271              		@ frame_needed = 0, uses_anonymous_args = 0
 272              		@ link register save eliminated.
 115:Generated_Source\PSoC5/Diode_Pumpseite.c ****     return (Diode_Pumpseite_PS & Diode_Pumpseite_MASK) >> Diode_Pumpseite_SHIFT;
 273              		.loc 1 115 0
 274 0000 024B     		ldr	r3, .L8
 275 0002 1878     		ldrb	r0, [r3]	@ zero_extendqisi2
 116:Generated_Source\PSoC5/Diode_Pumpseite.c **** }
 276              		.loc 1 116 0
 277 0004 C0F34000 		ubfx	r0, r0, #1, #1
 278 0008 7047     		bx	lr
 279              	.L9:
 280 000a 00BF     		.align	2
 281              	.L8:
 282 000c 41510040 		.word	1073762625
 283              		.cfi_endproc
 284              	.LFE2:
 285              		.size	Diode_Pumpseite_Read, .-Diode_Pumpseite_Read
 286              		.section	.text.Diode_Pumpseite_ReadDataReg,"ax",%progbits
 287              		.align	2
 288              		.global	Diode_Pumpseite_ReadDataReg
 289              		.thumb
 290              		.thumb_func
 291              		.type	Diode_Pumpseite_ReadDataReg, %function
 292              	Diode_Pumpseite_ReadDataReg:
 293              	.LFB3:
 117:Generated_Source\PSoC5/Diode_Pumpseite.c **** 
 118:Generated_Source\PSoC5/Diode_Pumpseite.c **** 
 119:Generated_Source\PSoC5/Diode_Pumpseite.c **** /*******************************************************************************
 120:Generated_Source\PSoC5/Diode_Pumpseite.c **** * Function Name: Diode_Pumpseite_ReadDataReg
 121:Generated_Source\PSoC5/Diode_Pumpseite.c **** ****************************************************************************//**
ARM GAS  C:\Users\Luggi\AppData\Local\Temp\ccSuMhbE.s 			page 18


 122:Generated_Source\PSoC5/Diode_Pumpseite.c **** *
 123:Generated_Source\PSoC5/Diode_Pumpseite.c **** * \brief Reads the associated physical port's data output register and masks 
 124:Generated_Source\PSoC5/Diode_Pumpseite.c **** *  the correct bits according to the width and bit position of the component 
 125:Generated_Source\PSoC5/Diode_Pumpseite.c **** *  instance. 
 126:Generated_Source\PSoC5/Diode_Pumpseite.c **** *
 127:Generated_Source\PSoC5/Diode_Pumpseite.c **** * The data output register controls the signal applied to the physical pin in 
 128:Generated_Source\PSoC5/Diode_Pumpseite.c **** * conjunction with the drive mode parameter. This is not the same as the 
 129:Generated_Source\PSoC5/Diode_Pumpseite.c **** * preferred Diode_Pumpseite_Read() API because the 
 130:Generated_Source\PSoC5/Diode_Pumpseite.c **** * Diode_Pumpseite_ReadDataReg() reads the data register instead of the status 
 131:Generated_Source\PSoC5/Diode_Pumpseite.c **** * register. For output pins this is a useful function to determine the value 
 132:Generated_Source\PSoC5/Diode_Pumpseite.c **** * just written to the pin.
 133:Generated_Source\PSoC5/Diode_Pumpseite.c **** *
 134:Generated_Source\PSoC5/Diode_Pumpseite.c **** * \return 
 135:Generated_Source\PSoC5/Diode_Pumpseite.c **** *  The current value of the data register masked and shifted into a right 
 136:Generated_Source\PSoC5/Diode_Pumpseite.c **** *  justified number for the component instance.
 137:Generated_Source\PSoC5/Diode_Pumpseite.c **** *
 138:Generated_Source\PSoC5/Diode_Pumpseite.c **** * \funcusage
 139:Generated_Source\PSoC5/Diode_Pumpseite.c **** *  \snippet Diode_Pumpseite_SUT.c usage_Diode_Pumpseite_ReadDataReg 
 140:Generated_Source\PSoC5/Diode_Pumpseite.c **** *******************************************************************************/
 141:Generated_Source\PSoC5/Diode_Pumpseite.c **** uint8 Diode_Pumpseite_ReadDataReg(void)
 142:Generated_Source\PSoC5/Diode_Pumpseite.c **** {
 294              		.loc 1 142 0
 295              		.cfi_startproc
 296              		@ args = 0, pretend = 0, frame = 0
 297              		@ frame_needed = 0, uses_anonymous_args = 0
 298              		@ link register save eliminated.
 143:Generated_Source\PSoC5/Diode_Pumpseite.c ****     return (Diode_Pumpseite_DR & Diode_Pumpseite_MASK) >> Diode_Pumpseite_SHIFT;
 299              		.loc 1 143 0
 300 0000 024B     		ldr	r3, .L11
 301 0002 1878     		ldrb	r0, [r3]	@ zero_extendqisi2
 144:Generated_Source\PSoC5/Diode_Pumpseite.c **** }
 302              		.loc 1 144 0
 303 0004 C0F34000 		ubfx	r0, r0, #1, #1
 304 0008 7047     		bx	lr
 305              	.L12:
 306 000a 00BF     		.align	2
 307              	.L11:
 308 000c 40510040 		.word	1073762624
 309              		.cfi_endproc
 310              	.LFE3:
 311              		.size	Diode_Pumpseite_ReadDataReg, .-Diode_Pumpseite_ReadDataReg
 312              		.text
 313              	.Letext0:
 314              		.file 2 "Generated_Source\\PSoC5\\cytypes.h"