ARM GAS  C:\Users\Luggi\AppData\Local\Temp\cc5AwCUD.s 			page 1


   1              		.syntax unified
   2              		.cpu cortex-m3
   3              		.fpu softvfp
   4              		.eabi_attribute 20, 1
   5              		.eabi_attribute 21, 1
   6              		.eabi_attribute 23, 3
   7              		.eabi_attribute 24, 1
   8              		.eabi_attribute 25, 1
   9              		.eabi_attribute 26, 1
  10              		.eabi_attribute 30, 1
  11              		.eabi_attribute 34, 1
  12              		.eabi_attribute 18, 4
  13              		.thumb
  14              		.file	"eeprom.c"
  15              		.text
  16              	.Ltext0:
  17              		.section	.gnu.lto_.profile.53c784c9,"",%progbits
  18 0000 789C6366 		.ascii	"x\234cf```a\200\000F\206\322\004\000\001\276\000\336"
  18      60606061 
  18      80004686 
  18      D2040001 
  18      BE00DE
  19              		.text
  20              		.section	.gnu.lto_.inline.53c784c9,"",%progbits
  21 0000 789C6366 		.ascii	"x\234cf\300\016\202\24143\003\203\320#\006F\006&\211"
  21      C00E82A1 
  21      34330383 
  21      D0230646 
  21      062689
  22 0013 394BB818 		.ascii	"9K\270\030\330\026\3103\201Ey\030\031\030'\3701\332"
  22      D816C833 
  22      81457918 
  22      191827F8 
  22      31DA
  23 0025 184F6307 		.ascii	"\030Oc\007\312E\374ye\002\227c\341eb`\236\340\007\202"
  23      CA45FC79 
  23      65029763 
  23      E1656260 
  23      9EE00782 
  24 0039 5C368A2D 		.ascii	"\\6\212-\314@y\233/=\372py\006\000s'\017\005"
  24      CC40799B 
  24      2F3DFA70 
  24      79060073 
  24      270F05
  25              		.text
  26              		.section	.gnu.lto_.jmpfuncs.53c784c9,"",%progbits
  27 0000 789C6366 		.ascii	"x\234cf\300\016D\24143\0203\202\0213D\200\013\210\001"
  27      C00E44A1 
  27      34331033 
  27      82113344 
  27      800B8801 
  28 0014 03DC002B 		.ascii	"\003\334\000+"
  29              		.text
  30              		.section	.gnu.lto_.pureconst.53c784c9,"",%progbits
  31 0000 789C6366 		.ascii	"x\234cf```g\200\000f\006)F).)\000\001\314\000g"
  31      60606067 
  31      80006606 
ARM GAS  C:\Users\Luggi\AppData\Local\Temp\cc5AwCUD.s 			page 2


  31      2946292E 
  31      290001CC 
  32              		.text
  33              		.section	.gnu.lto_erase_eeprom.53c784c9,"",%progbits
  34 0000 789C7553 		.ascii	"x\234uS\317KTQ\024>\347\336\367\356\3731\216#\022-&"
  34      CF4B5451 
  34      143EE7DE 
  34      F7EEFB31 
  34      8E23122D 
  35 0015 90C0C056 		.ascii	"\220\300\300V\365\007\364\027\264\223Z\266\222\034\242"
  35      F507F417 
  35      B4935AB6 
  35      921CA2
  36 0024 451A6AD0 		.ascii	"E\032j\320F|\343\014\346\242\"\255\205\244F\012\226"
  36      467CE30C 
  36      E6A222AD 
  36      85A4460A 
  36      96
  37 0035 A5A3A965 		.ascii	"\245\243\251e\232.f\\\224\025c\210f*\323T\240\246\020"
  37      9A2E665C 
  37      94156388 
  37      662AD354 
  37      A0A610
  38 0048 A5288E83 		.ascii	"\245(\216\203\350t\356}\216\031\342\203\367\3369\347"
  38      E874EE7D 
  38      8E19E283 
  38      F7DE39E7 
  39 0058 7EDFF9F1 		.ascii	"~\337\371\361\275\3638\034\276\356\320}B\0038Mo\364"
  39      BDF3381C 
  39      BEEED07D 
  39      4203384D 
  39      6FF4
  40 006a 00B27B13 		.ascii	"\000\262{\023\000A\223\241\346\032\3345b\246\306x}\021"
  40      004193A1 
  40      E61ADC35 
  40      62A6C678 
  40      7D11
  41 007c 38B62E9F 		.ascii	"8\266.\2379:\263F\013\3103\247\317\222g\242-A(\2305"
  41      393AB346 
  41      0BC833A7 
  41      CF9267A2 
  41      2D412898 
  42 0091 C6296A4C 		.ascii	"\306)jL|\000\012\033n8f\332Lt\307)b[\0132n!\3128 \324"
  42      7C000A1B 
  42      6E3866DA 
  42      4C74C729 
  42      625B0B32 
  43 00ab 30AEE9A6 		.ascii	"0\256\351\2460l\013k\270\346vd\273\257\025\266\306p"
  43      306C0B6B 
  43      B8E67664 
  43      BBAF15B6 
  43      C670
  44 00bd B86723EE 		.ascii	"\270g#\356Yfi\006'\201\3347\215\343MB\272\250Iw\273"
  44      59666906 
  44      2781DC37 
  44      8DE34D42 
  44      BAA84977 
ARM GAS  C:\Users\Luggi\AppData\Local\Temp\cc5AwCUD.s 			page 3


  45 00d2 63754514 		.ascii	"cuE\024u8\216\263\332\336\265X\034\325\322\214\301:"
  45      75388EB3 
  45      DADEB558 
  45      1CD5D28C 
  45      C13A
  46 00e4 037C8A7E 		.ascii	"\003|\212~\354D\277,\361\014\213$t\334\3711h\360\034"
  46      EC44BF2C 
  46      F10C8B24 
  46      74DCF931 
  46      68F01C
  47 00f7 94766DF3 		.ascii	"\224vm\363TB\024\2669N\355\367\304ti4\374\330\331\315"
  47      544214B6 
  47      394EEDF7 
  47      C4746934 
  47      FCD8D9CD 
  48 010b 6430CD38 		.ascii	"d0\3158>G\376?]^\304x0\022\353\260y\276bwN~\034\363"
  48      3E47FE3F 
  48      5D5EC478 
  48      3012EBB0 
  48      79BE6277 
  49 0123 B9ECAFA3 		.ascii	"\271\354\257\243\007\330\032v\037\301\336i\231\213Y"
  49      07D81A76 
  49      1FC1DE69 
  49      998B59
  50 0132 BC40B11F 		.ascii	"\274@\261\0375$\177\231.;9t\200\255c\317\021\354\265"
  50      35247F99 
  50      2E3B3974 
  50      80AD63CF 
  50      11ECB5
  51 0145 F0CE178F 		.ascii	"\360\316\027\217\010\323\220y\330\205\205\030\241\273"
  51      08D39079 
  51      D8858518 
  51      A1BB
  52 0153 170BE59C 		.ascii	"\027\013\345\2344\336\013\024\010\300\262'\275\371Q"
  52      34DE0B14 
  52      08C0B227 
  52      BDF951
  53 0162 2793598F 		.ascii	"'\223Y\217\304\032E\036\202\2142\365\344 O5 \201\004"
  53      C41A451E 
  53      828C32F5 
  53      E4204F35 
  53      208104
  54 0175 4AD32453 		.ascii	"J\323$S\330*\352Q\210\034\012\350^\031\315U\276O=\001"
  54      D82AEA51 
  54      881C0AE8 
  54      5E19CD55 
  54      BE4F3D01 
  55 0189 16A8CCAE 		.ascii	"\026\250\314\256\200ERvW\360\031\254\215NV\253\252t"
  55      80455276 
  55      57F019AC 
  55      8D4E56AB 
  55      AA74
  56 019b 4ADD059F 		.ascii	"J\335\005\237\214\3346\344\027\341\324L\237\352{\221"
  56      8CDC36E4 
  56      17E1D44C 
  56      9FEA7B91 
  57 01ab 6C82CE63 		.ascii	"l\202\316c\355\354\255\231M]\202S\314L1\204\004\206"
ARM GAS  C:\Users\Luggi\AppData\Local\Temp\cc5AwCUD.s 			page 4


  57      EDECAD99 
  57      4D5D8253 
  57      CC4C3184 
  57      0486
  58 01bd 9D4BAE6F 		.ascii	"\235K\256oK-\246\356\366\260\352m\247\3361\323\314X"
  58      4B2DA6EE 
  58      F6B0EA6D 
  58      A7DE31D3 
  58      CC58
  59 01cf 2700603F 		.ascii	"'\000`?V\003\241\323\314\204\031d\252\020\265Hx\230"
  59      5603A1D3 
  59      CC841964 
  59      AA10B548 
  59      7898
  60 01e1 C75063DD 		.ascii	"\307Pc\335\333A\237\313\367P>J\361\256u\271_S\345i\332"
  60      DB419FCB 
  60      F7503E4A 
  60      F1AE75B9 
  60      5F53E569 
  61 01f6 012A9F25 		.ascii	"\001*\237%uI\222Gu\243\301\216W6\236\007n*\016\256\243"
  61      75499247 
  61      75A3C18E 
  61      57369E07 
  61      6E2A0EAE 
  62 020b 20089F31 		.ascii	" \010\2371<\033:\356f\305\275\021`\011\225\311\2668"
  62      3C1B3AEE 
  62      66C5BD11 
  62      600995C9 
  62      B638
  63 021d 65E143BE 		.ascii	"e\341C\276%$C0\244Fxw\304CYu9#q\347B\003\347\\2?(\207"
  63      25244330 
  63      A4467877 
  63      C4435975 
  63      392371E7 
  64 0239 45B3BCDC 		.ascii	"E\263\274\334\373\214\2134L\273\306)\251O&\325[\376"
  64      FB8C8B34 
  64      4CBBC629 
  64      A94F26D5 
  64      5BFE
  65 024b 18141340 		.ascii	"\030\024\023@\277\004\251\024j\252K\376\334S)\207R\264"
  65      BF04A914 
  65      6AAA4BFE 
  65      DC532987 
  65      52B4
  66 025d DDCFC4B9 		.ascii	"\335\317\304\271L\241\323\2228\032\340+\364\247H\375"
  66      4CA1D392 
  66      381AE02B 
  66      F4A748FD 
  67 026d 791CDBB4 		.ascii	"y\034\333\264]\230\227`\337\026>M\232\012\246\266\344"
  67      5D989760 
  67      DF163E4D 
  67      9A0AA6B6 
  67      E4
  68 027e 61C3D08C 		.ascii	"a\303\320\214\325\212\315\3010-\223M\231pPV\307\327"
  68      D58ACDC1 
  68      302D934D 
  68      99705056 
ARM GAS  C:\Users\Luggi\AppData\Local\Temp\cc5AwCUD.s 			page 5


  68      C7D7
  69 0290 D8AA469C 		.ascii	"\330\252F\234\013\225\375\343\356w)\0101\264\337\245"
  69      0B95FDE3 
  69      EE772908 
  69      31B4DFA5 
  70 02a0 01BFDFAB 		.ascii	"\001\277\337\253\216\032\353&R^\027\236K\245\017\013"
  70      8E1AEB26 
  70      525E179E 
  70      4BA50F0B 
  71 02b0 9BABF036 		.ascii	"\233\253\3606\320_\214\007\304d\262R<+\246\374\177W"
  71      D05F8C07 
  71      C464B252 
  71      3C2BA6FC 
  71      7F57
  72 02c2 365AE6DC 		.ascii	"6Z\346\334\365\310\320B\015g\305e)\3463I\314\\c\313"
  72      F5C8D042 
  72      0D67C565 
  72      29E63349 
  72      CC5C63CB 
  73 02d6 4B892CA9 		.ascii	"K\211,\251e\022\203y\364\3515y\256a\241_OD\004\275D"
  73      65128379 
  73      F4E93579 
  73      AE61A15F 
  73      4F4404BD 
  74 02eb A2D7C053 		.ascii	"\242\327\300S~\373v\3371\332E$$-\244\025\010\\\257("
  74      7EFB76DF 
  74      31DA4524 
  74      242DA415 
  74      085CAF28 
  75 02ff BF76E632 		.ascii	"\277v\3462\350\347\313J\0037=\201\212\222\312\300\305"
  75      E8E7CB4A 
  75      03373D81 
  75      8A92CAC0 
  75      C5
  76 0310 AA92AA1B 		.ascii	"\252\222\252\033\225\366\205\300\225\342\362\253eU\201"
  76      95F685C0 
  76      95E2F2AB 
  76      655581
  77 031f 8ABFE1CB 		.ascii	"\212\277\341\313m\036"
  77      6D1E
  78              		.text
  79              		.section	.gnu.lto_save_settings.53c784c9,"",%progbits
  80 0000 789CA556 		.ascii	"x\234\245Vkp\214W\030>\357\371n{\265\211\270\024U\321"
  80      6B708C57 
  80      183EEFF9 
  80      6E7BB589 
  80      B81455D1 
  81 0014 C4DDCA98 		.ascii	"\304\335\312\230\316\320\241c\372\243?\332\376\352\364"
  81      CED0A163 
  81      FAA33FDA 
  81      FEEAF4
  82 0023 57A7FF68 		.ascii	"W\247\377hScF\351hf\312L\215/\3112\230Pa\264\010\312"
  82      536346E9 
  82      6866CA4C 
  82      8D2FC932 
  82      985061B4 
  83 0039 D4252568 		.ascii	"\324%%h\010\021\321t\227\210P\011\212\225\020\004I\\"
ARM GAS  C:\Users\Luggi\AppData\Local\Temp\cc5AwCUD.s 			page 6


  83      0811D174 
  83      97885009 
  83      8A951004 
  83      495C
  84 004b 2B36216B 		.ascii	"+6!k\3516}\337svc7\335\230\252o\346;\337w\316y\337\347"
  84      E9367DDF 
  84      73766337 
  84      DD98AA6F 
  84      E63BDF77 
  85 0063 7DDECBB9 		.ascii	"}\336\313\271(\354\337\317A|w8\031{\033\277\320\213"
  85      28ECDFCF 
  85      417C7738 
  85      197B1BBF 
  85      D08B
  86 0075 015F51CB 		.ascii	"\001_Q\313X\266\205\203!\177\024\256\037Q\230iSkO2f"
  86      58B68583 
  86      217F14AE 
  86      1F519869 
  86      536B4F32 
  87 008a 3A5470D2 		.ascii	":Tp\322\270\317\342\344J\345\011\034\261\351\247T\034"
  87      B8CFE2E4 
  87      4AE5091C 
  87      B1E9A754 
  87      1C
  88 009b D7A5BCCF 		.ascii	"\327\245\274\317bp\315;\005\207mg\\8\254Iq\260\201C"
  88      6270CD3B 
  88      05876D67 
  88      5C38AC49 
  88      71B08143 
  89 00af 7C2DDC2E 		.ascii	"|-\334.\320\254\022\315*\207}\026\007\267\334?Eh\366"
  89      D0AC12CD 
  89      2A877D16 
  89      07B7DC3F 
  89      4568F6
  90 00c2 2D80E376 		.ascii	"-\200\343v\000\032g\300\026pEu\352\206f\263Xqt\201j"
  90      001A67C0 
  90      16704575 
  90      EA8666B3 
  90      58717481 
  91 00d7 48D60EF9 		.ascii	"H\326\016\371q\312\317\035\036\340P\266\373Q\215\375"
  91      71CACF1D 
  91      1EE050B6 
  91      FB518DFD 
  92 00e7 360F7196 		.ascii	"6\017q\226\312\260{he\365\032\235\272\240R\367\331\326"
  92      CAB07B68 
  92      65F51A9D 
  92      BAA052F7 
  92      D9D6
  93 00f9 8777F411 		.ascii	"\207w\364\021[M\323|\270\267\370\274c\341\373!\316Y"
  93      5B4DD37C 
  93      B8B7F8BC 
  93      63E1FB21 
  93      CE59
  94 010b 3B67B01D 		.ascii	";g\260\035\006B!\014$c?\303\010\022\015\257\257\367"
  94      0642210C 
  94      24633FC3 
  94      08120DAF 
ARM GAS  C:\Users\Luggi\AppData\Local\Temp\cc5AwCUD.s 			page 7


  94      AFF7
  95 011d 591507D0 		.ascii	"Y\025\007\320\377\306\374\253\367-i\233M3\247qY\356"
  95      FFC6FCAB 
  95      F72D699B 
  95      4D33A771 
  95      59EE
  96 012f 7187596D 		.ascii	"q\207Ymz\032;;\207\204\270\002;@\211\327\247\007U\256"
  96      7A1A3B3B 
  96      8784B802 
  96      3B4089D7 
  96      A70755AE 
  97 0143 E49DDB67 		.ascii	"\344\235\333gQ\372\013\365\037\374\301\026EpjT\250\377"
  97      51FA0BF5 
  97      1FFCC116 
  97      45706A54 
  97      A8FF
  98 0155 C47C526D 		.ascii	"\304|Rm\021\244\336\241\356\266\312\212\3256B7\033\227"
  98      11A4DEA1 
  98      EEB6CA8A 
  98      D5364237 
  98      1B97
  99 0167 DFFCF039 		.ascii	"\337\374\3609\270\012E\022|\027\202\357\216\005o\\\276"
  99      B80A4512 
  99      7C1782EF 
  99      8E056F5C 
  99      BE
 100 0178 3D6C57DE 		.ascii	"=lW\336\024\340m\2557\332T\311\355\273\243'c\270i\360"
 100      14E06DAD 
 100      37DA54C9 
 100      EDBBA327 
 100      63B869F0 
 101 018c 4B0FDC3A 		.ascii	"K\017\334:\314\252\245.%C\250\347__X\341\020\352\233"
 101      CCAAA52E 
 101      2543A8E7 
 101      5F5F58E1 
 101      10EA9B
 102 019f D6FCA4C7 		.ascii	"\326\374\244\307(\357\355Ayi\273\307\347P\306\013\345"
 102      28EFED41 
 102      7969BBC7 
 102      E750C60B 
 102      E5
 103 01b0 A735F74A 		.ascii	"\2475\367J4\241\354-\332k\276\353\331d\376\335\331\011"
 103      34A1EC2D 
 103      DA6BBEEB 
 103      D964FEDD 
 103      D909
 104 01c2 A45DD283 		.ascii	"\244]\322\203v\265y\375\200\241\274%\264s\012\3165\350"
 104      76B579FD 
 104      80A1BC25 
 104      B4730ACE 
 104      35E8
 105 01d4 92F9DA6E 		.ascii	"\222\371\332n\314\017\364\240\036\360\204/\332u\017"
 105      CC0FF4A0 
 105      1EF0842F 
 105      DA750F
 106 01e3 862A0976 		.ascii	"\206*\011vB\032\354\301\267\030\337}\370\356\307\267"
 106      421AECC1 
ARM GAS  C:\Users\Luggi\AppData\Local\Temp\cc5AwCUD.s 			page 8


 106      B718DF7D 
 106      F8EEC7B7 
 107 01f3 14D2289D 		.ascii	"\024\322(\235\230\305\203\240\003cZ\"\211=\275\275f"
 107      98C583A0 
 107      03635A22 
 107      893DBDBD 
 107      66
 108 0204 67E7BEAA 		.ascii	"g\347\276\252\374\305\023\001\203@\323\\\264\212hUF"
 108      FCC51301 
 108      8340D35C 
 108      B48A6855 
 108      46
 109 0215 C21A2371 		.ascii	"\302\032#q\235\221\202\301\260L\234\324\270\250I\306"
 109      9D9182C1 
 109      B04C9CD4 
 109      B8A849C6 
 110 0225 464FC1C6 		.ascii	"FO\301\306\350\213\215\245?5\003\250\031D\023\203Id"
 110      E88B8DA5 
 110      3F3503A8 
 110      19441383 
 110      4964
 111 0237 08FDA552 		.ascii	"\010\375\245R3\224\2324\001\234. \207\011\370\341\342"
 111      33949A34 
 111      019C2E20 
 111      8709F8E1 
 111      E2
 112 0248 7F244D8E 		.ascii	"\177$M\216\302F\031M\177c\204\265\261B\330-\376\031"
 112      C246194D 
 112      7F6384B5 
 112      B142D82D 
 112      FE19
 113 025a 6B426FC2 		.ascii	"kBo\302\300\232\261N\303\240\370!\307\373\343\242\276"
 113      C09AB14E 
 113      C3A0F821 
 113      C7FBE3A2 
 113      BE
 114 026b C23B14C2 		.ascii	"\302;\024\302\210do+\3173\250\2264t\272\014cu\011r:"
 114      88646F2B 
 114      CF33A896 
 114      3474BA0C 
 114      63750972 
 115 0280 96B6ACB5 		.ascii	"\226\266\254\265\221\014\316\267\230\301U\332\374g\030"
 115      910CCEB7 
 115      98C155DA 
 115      FC6718
 116 028f 314B885B 		.ascii	"1K\210[)\034\"\220\327\232N\237\025%h\023\335\3023\346"
 116      291C2290 
 116      D79A4E9F 
 116      15256813 
 116      DDC233E6 
 117 02a3 267D0314 		.ascii	"&}\003\024d\0131;\034\202\371PN\201\207\303\260\001"
 117      640B313B 
 117      1C82F950 
 117      4E8187C3 
 117      B001
 118 02b5 68059C5B 		.ascii	"h\005\234[\276\233#\314b\323\373I\210;\302\\\346\243"
 118      BE9B23CC 
ARM GAS  C:\Users\Luggi\AppData\Local\Temp\cc5AwCUD.s 			page 9


 118      62D3FB49 
 118      883BC25C 
 118      E6A3
 119 02c7 30DBB31E 		.ascii	"0\333\263\036b\364~\355\322\253\300a\342\2622P\353\263"
 119      62F47EED 
 119      D2ABC061 
 119      E2B23250 
 119      EBB3
 120 02d9 12972077 		.ascii	"\022\227 w\242\302\361\375\035\205\272\300Ayg\230\203"
 120      A2C2F1FD 
 120      1D85BAC0 
 120      41796798 
 120      83
 121 02ea 80E972C2 		.ascii	"\200\351r\302)\272\233\0167\\y\216\312\3417D\365\012"
 121      29BA9B0E 
 121      375C798E 
 121      CAE13744 
 121      F50A
 122 02fc 545F1415 		.ascii	"T_\024\025\"\356-\331X\3575\334;\321=/\026N/\362\257"
 122      22EE2DD9 
 122      58EF35DC 
 122      3BD13D2F 
 122      164E2FF2 
 123 0311 8D478AE5 		.ascii	"\215G\212\345\330\203\003\253u97\211`\216\200\273\215"
 123      D88303AB 
 123      75393789 
 123      608E80BB 
 123      8D
 124 0322 0C32380A 		.ascii	"\01428\012n\244#\200\212OG\351\271\022\320\343\011\371"
 124      6EA42380 
 124      8A4F47E9 
 124      B912D0E3 
 124      09F9
 125 0334 5476F139 		.ascii	"Tv\3619\366*|\252\210\217(\326\343\304\307%\303u:`H"
 125      F62A7CAA 
 125      888F28D6 
 125      E3C4C725 
 125      C3753A60 
 126 0349 3EC97161 		.ascii	">\311qaG\303\2560W\342\223\347J\220\204$\250Fz'\004"
 126      47C3AE30 
 126      57E293E7 
 126      4A908424 
 126      A8467A27 
 127 035e BD932FA0 		.ascii	"\275\223/\240\367zwzG\226T\034\267\311\271\014\202\371"
 127      F77A777A 
 127      4796541C 
 127      B7C9B90C 
 127      82F9
 128 0370 9DE82944 		.ascii	"\235\350)D\357\024\321K\226\341:\237o\227\364R\272\323"
 128      EF14D14B 
 128      96E13A9F 
 128      6F97F452 
 128      BAD3
 129 0382 4B0E7335 		.ascii	"K\016s5\236^r\002z\275\241\006\351\325\012z\247_&z1"
 129      9E5E7202 
 129      7ABDA106 
 129      E9D50A7A 
ARM GAS  C:\Users\Luggi\AppData\Local\Temp\cc5AwCUD.s 			page 10


 129      A75F267A 
 130 0397 F42611CC 		.ascii	"\364&\021\314\031\242\247\022\275\263D/\205\200\016"
 130      19A2A712 
 130      BDB3442F 
 130      85800E
 131 03a6 05CE174F 		.ascii	"\005\316\027O\224\364\372v\247\227\022\246%\022K/%\001"
 131      94F4FA76 
 131      A79712A6 
 131      25124B2F 
 131      2501
 132 03b8 BD3EF007 		.ascii	"\275>\360\007\322;G\364p.\317\363}!d\270qi\303y\224"
 132      D23B47F4 
 132      702ECFF3 
 132      7D2164B8 
 132      7169C379 
 133 03cd 8134B115 		.ascii	"\2014\261\025\301\005\310\020\2647Oyi\336}\300O\274"
 133      C105C810 
 133      B4374F79 
 133      69DE7DC0 
 133      4FBC
 134 03df 3539F7B4 		.ascii	"59\367\264\251\362\256#c\027\315\315%#\027\301\035\265"
 134      A9F2AE23 
 134      6317CDCD 
 134      252317C1 
 134      1DB5
 135 03f1 510719E8 		.ascii	"Q\007\031\350\204p\252\370B\324\251\376=:\325\335\213"
 135      8470AAF8 
 135      42D4A9FE 
 135      3D3AD5DD 
 135      8B
 136 0402 FAC45E5C 		.ascii	"\372\304^\\\"/\322\245\205\313\257\342E\303\013\274"
 136      222FD2A5 
 136      85CBAFE2 
 136      45C30BBC 
 137 0412 B8825E44 		.ascii	"\270\202^Dl\\%/\372\313\324ty1\340?{q-\306\213u\027"
 137      6C5C252F 
 137      FACBD474 
 137      7931E03F 
 137      7B712DC6 
 138 0429 9B1F8943 		.ascii	"\233\037\211C\024\227\014v\217\266\266\326\251\322\251"
 138      14970C76 
 138      8FB6B6D6 
 138      A9D2A9
 139 0438 4672EABA 		.ascii	"Fr\352\272<&\340\306\253xu3\306\253\322\313\205>g\214"
 139      3C26E0C6 
 139      AB787533 
 139      C6ABD2CB 
 139      853E678C 
 140 044c 574DE855 		.ascii	"WM\350U\324H3\2715@.\010\177~d\377\030\224`\275\352"
 140      D44833B9 
 140      35402E08 
 140      7F7E64FF 
 140      189460BD 
 141 0461 0917684B 		.ascii	"\011\027hK\327\002\275\365\377W@\022\334&\266:\361\271"
 141      D702BDF5 
 141      FF574012 
 141      DC26B63A 
ARM GAS  C:\Users\Luggi\AppData\Local\Temp\cc5AwCUD.s 			page 11


 141      F1B9
 142 0473 432B6090 		.ascii	"C+`\220\334?\374\327#|\006'\330\317\214\204\373\331"
 142      DC3FFCD7 
 142      237C0627 
 142      D8CF8C84 
 142      FBD9
 143 0485 DDAEFDEC 		.ascii	"\335\256\375\354\336\253\354g\367\211\017\335\314\340"
 143      DEABEC67 
 143      F7890FDD 
 143      CCE0
 144 0493 4FE23398 		.ascii	"O\3423\230\321i\025\250r\212\323\212\316\3372\021\276"
 144      D16915A8 
 144      728AD38A 
 144      CEDF3211 
 144      BE
 145 04a4 66DC54F0 		.ascii	"f\334T\360\316\250\210\322\276zV\221l\207\304\033\373"
 145      CEA888D2 
 145      BE7A5691 
 145      6C87C41B 
 145      FB
 146 04b5 34C4FB4A 		.ascii	"4\304\373Jc\026i\254u\341\343\263.\231\216\301\344\374"
 146      631669AC 
 146      75E1E3B3 
 146      2E998EC1 
 146      E4FC
 147 04c7 03320122 		.ascii	"\0032\001\"\033\2552\345u\221}35\210\333BL\177h\020"
 147      1BAD32E5 
 147      75917D33 
 147      3588DB42 
 147      4C7F6810 
 148 04db 53DA8014 		.ascii	"S\332\200\024\260\307\272\347\250_;\201\300C\230\317"
 148      B0C7BAE7 
 148      A85F3B81 
 148      C04398CF 
 149 04eb 9083501E 		.ascii	"\220\203P\036\032\022\025\233\273r\321\203\2029\022"
 149      1A12159B 
 149      BB72D183 
 149      823912
 150 04fa 220D4D51 		.ascii	"\"\015MQ47\334\336\253\212\263\026o\015\001t\306\017"
 150      3437DCDE 
 150      AB8AB316 
 150      6F0D0174 
 150      C60F
 151 050c 3C7A14A3 		.ascii	"<z\024\243\020\273\000\236\332\334g\313\206D\224P\243"
 151      10BB009E 
 151      DADC67CB 
 151      86449450 
 151      A3
 152 051d 79EDE38B 		.ascii	"y\355\343\213\242h\265\311\014\332\"7\231f\344\267\276"
 152      A268B5C9 
 152      0CDA2237 
 152      9966E4B7 
 152      BE
 153 052e 8A028036 		.ascii	"\212\002\2006\374\005% \345\323\221g\034\352~BM\027"
 153      FC052520 
 153      E5D39167 
 153      1CEA7E42 
ARM GAS  C:\Users\Luggi\AppData\Local\Temp\cc5AwCUD.s 			page 12


 153      4D17
 154 0540 0A4E8617 		.ascii	"\012N\206\027a\334:r\222\230\034\326\230\354\010\313"
 154      61DC3A72 
 154      92981CD6 
 154      98EC08CB 
 155 0550 40966B72 		.ascii	"@\226kr\277\2208\032\332\255k\3149)n\301\232\213A\273"
 155      BF90381A 
 155      DAAD6BCC 
 155      39296EC1 
 155      9A8B41BB 
 156 0564 B4DB0210 		.ascii	"\264\333\002\020\344c5l\322\324\206\322&\254B-\310\207"
 156      E463356C 
 156      D2D486D2 
 156      26AC422D 
 156      C887
 157 0576 533F5D2D 		.ascii	"S?]-*\275\315\321\214\316\036\031J\0140\227q\250*X\241"
 157      2ABDCDD1 
 157      8CCE1E19 
 157      4A0C3097 
 157      71A82A58 
 158 058b 4BEC6118 		.ascii	"K\354a\030\3338\216\373Hl\030\201s\304U\010\027\371"
 158      DB388EFB 
 158      486C1881 
 158      73C45508 
 158      17F9
 159 059d 38E9C262 		.ascii	"8\351\302b\260\207\326\010\230\220Rc)+\222\362\315e"
 159      B087D608 
 159      98905263 
 159      292B92F2 
 159      CD65
 160 05af 9A045691 		.ascii	"\232\004V\221\364\362\335[\332]\2024^\304\036EI+T6\374"
 160      F4F2DD5B 
 160      DA5D8234 
 160      5EC41E45 
 160      492B5436 
 161 05c4 AFE24204 		.ascii	"\257\342B\004\346:\262V\305@^\351L4\254/\036\217\226"
 161      E63AB256 
 161      C5405EE9 
 161      4C34AC2F 
 161      1E8F96
 162 05d7 34A28DA2 		.ascii	"4\242\215\242c\021\327@\211\341$a\024\225\316\3059\033"
 162      6311D740 
 162      89E12461 
 162      1495CEC5 
 162      391B
 163 05e9 5D9B70CE 		.ascii	"]\233p\316-\306\032\312\276\3051\013\363\244\212\362"
 163      2DC61ACA 
 163      BEC5310B 
 163      F3A48AF2 
 164 05f9 0BDC2A8E 		.ascii	"\013\334*\216\024\311\310\370\362\033\367\202\362\233"
 164      14C9C8F8 
 164      F21BF782 
 164      F29B
 165 0607 4CE5F798 		.ascii	"L\345\367\230\312O\027\345\327!\312/w\315\242\312H\220"
 165      CA4F17E5 
 165      D721CA2F 
 165      77CDA2CA 
ARM GAS  C:\Users\Luggi\AppData\Local\Temp\cc5AwCUD.s 			page 13


 165      4890
 166 0619 46A1FCE6 		.ascii	"F\241\374\346U\2355\"\361\012^oM\274R\006a )\\\202#"
 166      559D3522 
 166      F10A5E6F 
 166      4DBC5206 
 166      6120295C 
 167 062f 1D362936 		.ascii	"\0356)6:\366,\222\007\373\272\374\203~+-L\017^\242_"
 167      3AF62C92 
 167      07FBBAFC 
 167      837E2B2D 
 167      4C0F5EA2 
 168 0644 43247822 		.ascii	"C$x\"\226e\210\226%\006\254>wV\204.\252Gj\311\312N\275"
 168      96658896 
 168      2506AC3E 
 168      7756842E 
 168      AA476AC9 
 169 065b 214BE9C1 		.ascii	"!K\351\301\372K\221R\032\203\246\342\322TJ1\037#\344"
 169      FA4B9152 
 169      1A83A6E2 
 169      D2544A31 
 169      1F23E4
 170 066e 1DEC446A 		.ascii	"\035\354Dj\244\222\304\250.3\321Oj\352\321*m\241\236"
 170      A492C4A8 
 170      2E33D14F 
 170      6AEAD12A 
 170      6DA19E
 171 0681 DB86411F 		.ascii	"\333\206A\037c\255s\242\236\235\002\211\364\353D\306"
 171      63AD73A2 
 171      9E9D0289 
 171      F4EB44C6 
 172 0691 283848D8 		.ascii	"(8H\330\364\325\007\365\011%\346b\344\213N>\205\011"
 172      F4D507F5 
 172      0925E662 
 172      E48B4E3E 
 172      8509
 173 06a3 EC2A6427 		.ascii	"\354*d'\341Z2\010\302\300\323\314\222W\236\205\307\201"
 173      E15A3208 
 173      C2C0D3CC 
 173      92579E85 
 173      C781
 174 06b5 E370791F 		.ascii	"\343py\037\274\314\002\242\340\376a\315\314\374j\316"
 174      BCCC02A2 
 174      E0FE61CD 
 174      CCFC6ACE 
 175 06c5 EC2FC77D 		.ascii	"\354/\307}\306l\037gN\377h\366\214YY\231sl\323g\316"
 175      C66C1F67 
 175      4EFF68F6 
 175      8C595999 
 175      736CD367 
 176 06da 9E3675E6 		.ascii	"\2366u\346{S\263\246:\246\315\313\312\374\372\23393"
 176      7B53B3A6 
 176      3AA6CDCB 
 176      CAFCFA9B 
 176      3933
 177 06ec B2B23267 		.ascii	"\262\2622g\301\\\230\247}0\353\363\314\271\377\000\261"
 177      C15C98A7 
 177      7D30EBF3 
ARM GAS  C:\Users\Luggi\AppData\Local\Temp\cc5AwCUD.s 			page 14


 177      CCB9FF00 
 177      B1
 178 06fd 56C9FD   		.ascii	"V\311\375"
 179              		.text
 180              		.section	.gnu.lto_read_settings.53c784c9,"",%progbits
 181 0000 789C9D55 		.ascii	"x\234\235U\335O\\E\024\2373w\357\335/\266\313\2474\304"
 181      DD4F5C45 
 181      149F3377 
 181      EFDD2FB6 
 181      CBA734C4 
 182 0014 44234D78 		.ascii	"D#Mx0\310[\375\352\243>H4\032\377\002QI\243\251\305"
 182      30C85BFD 
 182      EAA33E48 
 182      341AFF02 
 182      5149A3A9 
 183 0029 347DF085 		.ascii	"4}\360\205t\200mm\0151\205\246\212\245\320\222\324\272"
 183      74806D6D 
 183      0D3185A6 
 183      8AA5D092 
 183      D4BA
 184 003b 8A05A12D 		.ascii	"\212\005\241-\245\320\342._\213\265\264E,\337Ph\001"
 184      A5D0E22E 
 184      5F8BB5B4 
 184      452CDF50 
 184      6801
 185 004d 813422B4 		.ascii	"\2014\"\264eY\315\272\2363\263\273]\332\005E\022\356"
 185      6559CDBA 
 185      9E33B3BB 
 185      5DDA0545 
 185      12EE
 186 005f DE9939F3 		.ascii	"\336\2319\363;\277\337\357\2369\243\261\307\377^\305"
 186      3BBFDFEF 
 186      9E39A3B1 
 186      C7FF5EC5 
 187 006f FF77AC8C 		.ascii	"\377w\254\214e\341/\030\014\370\341k\214\025Y8\230\324"
 187      65E12F18 
 187      0CF8E16B 
 187      8C155938 
 187      98D4
 188 0081 8BA65EBC 		.ascii	"\213\246^\274\026\023\327\356^eL\330\364S\300D\202\016"
 188      1613D7EE 
 188      5E654CD8 
 188      F453C044 
 188      820E
 189 0093 40F30CD8 		.ascii	"@\363\014\330>\256\231t\330\307M\012p\236/q8\354\251"
 189      3EAE9974 
 189      D8C74D0A 
 189      709E2F71 
 189      38ECA9
 190 00a6 ADB0677D 		.ascii	"\255\260g}-\204\370\343v\353\326\375[\003\234\261{\\"
 190      2D84F8E3 
 190      76EBD6FD 
 190      5B039CB1 
 190      7B5C
 191 00b8 05C03790 		.ascii	"\005\3007\220\3050&x|\330k\325\022\200\336/\326\335"
 191      C5302678 
 191      7CD86BD5 
ARM GAS  C:\Users\Luggi\AppData\Local\Temp\cc5AwCUD.s 			page 15


 191      1280DE2F 
 191      D6DD
 192 00ca EFB5CFF1 		.ascii	"\357\265\317\361\000\207\247i\330R\336Sa\320\020AqX"
 192      0087A769 
 192      D852DE53 
 192      61D01041 
 192      7158
 193 00dc 5D3671D7 		.ascii	"]6q\327\222Y#D\361\344\\\211/A\364\010\327d(\364T\200"
 193      92592344 
 193      F1E45C89 
 193      2F41F408 
 193      D76428F4 
 194 00f2 6BE0060D 		.ascii	"k\340\006\015q\341[\310\200\357 #\254\011\267\214\227"
 194      71E15BC8 
 194      80EF2023 
 194      AC09B78C 
 194      97
 195 0103 F69FB568 		.ascii	"\366\237\265h\351\022\374\313\001\377\254&\301'5\032"
 195      E912FCCB 
 195      01FFAC26 
 195      C127351A 
 196 0113 AF8AD51E 		.ascii	"\257\212\325\036\213D\337A\303\323\235mGm\204.&\347"
 196      8B44DF41 
 196      C3D39D6D 
 196      476D842E 
 196      26E7
 197 0125 EFE43E04 		.ascii	"\357\344>\0047\301\367\012\374\014\202\327\305\202\367"
 197      37C1F70A 
 197      FC0C82D7 
 197      C582F7
 198 0134 88A926B3 		.ascii	"\210\251&\263\366\214\004/\256\354\0373\024\267\205"
 198      F68C042F 
 198      AEEC1F33 
 198      14B785
 199 0143 8E2B31DC 		.ascii	"\216+1\334t\370a\035nK\256\340\240\335pa\302D\250\205"
 199      74F8611D 
 199      6E4BAEE0 
 199      A0DD7061 
 199      C244A885 
 200 0157 4CA8C7FF 		.ascii	"L\250\307\377\006\310T\006A#\030\300\030\217\314\326"
 200      06C85406 
 200      412318C0 
 200      188FCCD6 
 201 0167 277B4428 		.ascii	"'{D(to\261\314\235\3113\200\321\224\211\241r\035\037"
 201      746FB1CC 
 201      9DC93380 
 201      D19489A1 
 201      721D1F
 202 017a 86598EAD 		.ascii	"\206Y\216\255\370j\266\323\303A\223N|X\222\350\221B"
 202      F86AB6D3 
 202      C341934E 
 202      7C5892E8 
 202      9142
 203 018c 8F349A4B 		.ascii	"\2174\232K\247U\306\2461\003~\275\031\316\361G\033\200"
 203      A755C6A6 
 203      31037EBD 
 203      19CEF147 
ARM GAS  C:\Users\Luggi\AppData\Local\Temp\cc5AwCUD.s 			page 16


 203      1B80
 204 019e 62CFE8A7 		.ascii	"b\317\350\247\2512#\362@f5GB\275\322)\015\365\010\023"
 204      A93223F2 
 204      40663547 
 204      42BDD229 
 204      0DF50813 
 205 01b2 83B3C89B 		.ascii	"\203\263\310\233\302\306}N\031\326 \303\212N\267\226"
 205      C2C67D4E 
 205      19D620C3 
 205      8A4EB796 
 206 01c2 9A294C47 		.ascii	"\232)LG\276\347\244\264\031\2561,\017m\004J*\016t\237"
 206      BEE7A4B4 
 206      19AE312C 
 206      0F6D044A 
 206      2A0E749F 
 207 01d6 68060AF7 		.ascii	"h\006\012\367\243\207\210\340\347\300F\240}\305\246"
 207      A38788E0 
 207      E7C046A0 
 207      7DC5A6
 208 01e5 E67444B8 		.ascii	"\346tD\2705}\275O~\002M:r\254\254y\300Z\005\225E.\010"
 208      357DBD4F 
 208      7E024D3A 
 208      72ACAC79 
 208      C05A0595 
 209 01fc 702B6D3B 		.ascii	"p+m;O\250\320\004U\264\265\270\274f\033\355\305\310"
 209      4FA8D004 
 209      55B4B5B8 
 209      BC661BED 
 209      C5C8
 210 020e 43D5C31E 		.ascii	"C\325\303\036sv-z\347y6\300m\344\3222\017\373\272\270"
 210      73762D7A 
 210      E77936C0 
 210      6DE4D232 
 210      0FFBBAB8 
 211 0222 FF419F33 		.ascii	"\377A\2373\347\014\255\275\020\340v\270\000\331\224"
 211      E70CADBD 
 211      10E076B8 
 211      00D994
 212 0231 9A4C6D86 		.ascii	"\232Lm\206\034L\214P%\345\007V\252G\302\354\314\270"
 212      1C4C8C50 
 212      25E50756 
 212      AA47C2EC 
 212      CCB8
 213 0243 8CFB7C55 		.ascii	"\214\373|Us\215&)\007\375\275(\025\363\210Z?\331\206"
 213      738D2629 
 213      07FDBD28 
 213      15F3885A 
 213      3FD986
 214 0256 EA4C0CAB 		.ascii	"\352L\014\253\235\034Kdj\032\330Mp\365\226<\241\220"
 214      9D1C4B64 
 214      6A1AD84D 
 214      70F5963C 
 214      A190
 215 0268 0866E6AB 		.ascii	"\010f\346\253\007\203\322<\375e\006-\352\203\317\002"
 215      0783D23C 
 215      FD65062D 
 215      EA83CF02 
ARM GAS  C:\Users\Luggi\AppData\Local\Temp\cc5AwCUD.s 			page 17


 216 0278 90417C55 		.ascii	"\220A|UC m\310\201H:Y\217\232V>\233=a\013\253\252\356"
 216      43206DC8 
 216      81483A59 
 216      8F9A563E 
 216      9B3D610B 
 217 028f FFBC8E17 		.ascii	"\377\274\216\027\376%\016\012\317\223\001\236\020\344"
 217      FE250E0A 
 217      CF93019E 
 217      10E4
 218 029d 4A50D425 		.ascii	"JP\324%\207\034\272\213\\\307\201\\\022\302\022\340"
 218      871CBA8B 
 218      5CC7815C 
 218      12C212E0 
 219 02ad 5BA0150A 		.ascii	"[\240\025\012\341\222\364\3512Nc\300\254\360\037\321"
 219      E192F4E9 
 219      324E63C0 
 219      ACF01FD1 
 220 02bd 1146AE3B 		.ascii	"\021F\256;\311\033\265\357\2068i\304\354k\213\356\373"
 220      C91BB5EF 
 220      863869C4 
 220      EC6B8BEE 
 220      FB
 221 02ce 31EC6FD3 		.ascii	"1\354o\323\322\337}V\245\304\272\326\344\227\002<Q\231"
 221      D2DF7D56 
 221      A5C4BAD6 
 221      E497023C 
 221      5199
 222 02e0 0C8A53D7 		.ascii	"\014\212S\327\357MG\015\265\366\006\326\024x {\231\313"
 222      EF4D470D 
 222      B5F606D6 
 222      1478207B 
 222      99CB
 223 02f2 C2F542B6 		.ascii	"\302\365B\266\372V\316\260*\337\371\025\267!Ua\332\244"
 223      FA56CEB0 
 223      2ADFF915 
 223      B7215561 
 223      DAA4
 224 0304 2021C416 		.ascii	" !\304\026O\222\034\236\27446\376P\224\031\332\221\\"
 224      4F921C9E 
 224      BC3436FE 
 224      509419DA 
 224      915C
 225 0316 8724D789 		.ascii	"\207$\327\211\323\310G\362k\010E\370\3317\311\257\213"
 225      D3C847F2 
 225      6B0845F8 
 225      D937C9AF 
 225      8B
 226 0327 F869C4AF 		.ascii	"\370i\304\257\373\337\370\361\270\204|QB=\222\220]\031"
 226      FBDFF8F1 
 226      B8847C51 
 226      423D9290 
 226      5D19
 227 0339 16F28609 		.ascii	"\026\362\206\0119\326\022z\361QB\355\207\332|6\265\366"
 227      39D6127A 
 227      F15142ED 
 227      87DA7C36 
 227      B5F6
ARM GAS  C:\Users\Luggi\AppData\Local\Temp\cc5AwCUD.s 			page 18


 228 034b 3A55E54F 		.ascii	":U\345OD\210z%\\\011\023\232\332\362X\031`\346\344`"
 228      44887A25 
 228      5C09139A 
 228      DAF25819 
 228      60E6E460 
 229 035f F87044AB 		.ascii	"\370pD\253 9N\025\330\341g\344wU\362\353\225\374\034"
 229      20394E15 
 229      D8E167E4 
 229      7755F2EB 
 229      95FC1C
 230 0372 84D9D2D0 		.ascii	"\204\331\322\320\331\370\274\342\347\\\313\357\303\015"
 230      D9F8BCE2 
 230      E75CCBEF 
 230      C30D
 231 0380 F8150678 		.ascii	"\370\025\006x\012\\#~\272Z\373s\272s!A\235\250V\015"
 231      0A5C237E 
 231      BA5AFB73 
 231      BA732141 
 231      9DA8560D 
 232 0394 7B095C87 		.ascii	"{\011\\\207l\310\224\225\0157 G\331\231\025\217}j\220"
 232      6CC89495 
 232      0D372047 
 232      D999158F 
 232      7D6A90
 233 03a7 34C6B24F 		.ascii	"4\306\262O\215\303>\005\372\220\375/\304\036\327J]_"
 233      8DC33E05 
 233      FA90FD2F 
 233      C41ED74A 
 233      5D5F
 234 03b9 B84165CB 		.ascii	"\270Ae\313\245d\375\030\030\311\366+\035`\247\224\266"
 234      A564FD18 
 234      18C9F62B 
 234      1D60A794 
 234      B6
 235 03ca 149596B4 		.ascii	"\024\225\226\264Ii77\2226\200\322\266\251d\203\377M"
 235      49693737 
 235      923680D2 
 235      B6A96483 
 235      FF4D
 236 03dc DAA35A86 		.ascii	"\332\243Z\2066\3202LZ\302\360#\244%I}\246\256\210\226"
 236      36D0324C 
 236      5AC2F023 
 236      A425497D 
 236      A6AE8896 
 237 03f0 944D6A19 		.ascii	"\224Mj\031\215\321rlp\346\276\354<fN\303\013\243n\257"
 237      8DD1726C 
 237      70E6BEEC 
 237      3C664EC3 
 237      0BA36EAF 
 238 0404 2356DA18 		.ascii	"#V\332\030J\033W\015\011&\376\237\266[1\332:\026\027"
 238      4A1B570D 
 238      0926FE9F 
 238      B65B31DA 
 238      3A1617
 239 0417 874C31DA 		.ascii	"\207L1\332&I[\004\177\212\304\245\3103\322\327\305\225"
 239      26495B04 
 239      7F8AC4A5 
ARM GAS  C:\Users\Luggi\AppData\Local\Temp\cc5AwCUD.s 			page 19


 239      C833D2D7 
 239      C595
 240 0429 B6B4B5DA 		.ascii	"\266\264\265\332r6\320\226K%}\233\264\031\204v'rD\034"
 240      7236D096 
 240      4B257D9B 
 240      B4198476 
 240      2772441C 
 241 043d EB1C113D 		.ascii	"\353\034\021=\356\231\230\216\236\211\031y&\322T\023"
 241      EE99988E 
 241      9E891979 
 241      26D25413 
 242 044d E95E0E9F 		.ascii	"\351^\016\237\331\364\265\204vl\320D\336\244\0360K\204"
 242      D9F4B584 
 242      766CD044 
 242      DEA41E30 
 242      4B84
 243 045f E82280DF 		.ascii	"\350\"\200\337\"M$u\235&b\304m\"s\321&2/\011\245\323"
 243      224D2475 
 243      9D2662C4 
 243      6D2273D1 
 243      26322F09 
 244 0475 8538A4CB 		.ascii	"\2058\244\313[\246^\336\251\302;\3547\266\237\023\007"
 244      5BA65EDE 
 244      A9C23BEC 
 244      37B69F13 
 244      07
 245 0486 F106C48B 		.ascii	"\361\006\304\213w\001\266\263\011(\362T\346R\0149;\215"
 245      7701B6B3 
 245      0928F254 
 245      E6520C39 
 245      3B8D
 246 0498 E44E01F6 		.ascii	"\344N\001\366(k~\376\307{\012>z\356=f{;\177\347[\005"
 246      286B7EFE 
 246      C77B0A3E 
 246      7AEE3D66 
 246      7B3B7FE7 
 247 04ae 1FECDE9B 		.ascii	"\037\354\336\233\277\307\266sW\301\273y\273^\311\333"
 247      BFC7B673 
 247      57C1BB79 
 247      BB5EC9DB 
 248 04be 9BA7BFB6 		.ascii	"\233\247\277\266\373\375\374O\376\001Hk\\m"
 248      FBFDFC4F 
 248      FE01486B 
 248      5C6D
 249              		.text
 250              		.section	.gnu.lto_.symbol_nodes.53c784c9,"",%progbits
 251 0000 789C4DCB 		.ascii	"x\234M\313\273\015\203@\020E\321;3\273\374\003z\241"
 251      BB0D8340 
 251      1045D13B 
 251      33BBFC03 
 251      7AA1
 252 0012 C0A10124 		.ascii	"\300\241\001$H\210\035\270\036\"\012p\340:,3\202`_p"
 252      48881DB8 
 252      1E220A70 
 252      E03A2C33 
 252      82605F70 
 253 0026 A41B3C03 		.ascii	"\244\033<\0036\236)\016\353\001\356\354\257\006\025"
ARM GAS  C:\Users\Luggi\AppData\Local\Temp\cc5AwCUD.s 			page 20


 253      369E290E 
 253      EB01EEEC 
 253      AF0615
 254 0035 97B27362 		.ascii	"\227\262sbtr\226\260\322\260\266\260Ia\233\303\256\012"
 254      747296B0 
 254      D2B0B6B0 
 254      49619BC3 
 254      AE0A
 255 0047 FBFA52D5 		.ascii	"\373\372R\325\265\374\213\271\335\315<_9x*\322\350\371"
 255      B5FC8BB9 
 255      DDCD3C5F 
 255      39782AD2 
 255      E8F9
 256 0059 7E7E6232 		.ascii	"~~b2\360>\316e\342\017 \322\036\253"
 256      F03ECE65 
 256      E20F20D2 
 256      1EAB
 257              		.text
 258              		.section	.gnu.lto_.refs.53c784c9,"",%progbits
 259 0000 789C25C1 		.ascii	"x\234%\301Q\012\200 \020E\321\373\034m\034ED$\"\332"
 259      510A8020 
 259      1045D1FB 
 259      1C6D1C45 
 259      442422DA 
 260 0014 4BFB5F56 		.ascii	"K\373_V\037\235c\300\313\257\211\2240#\027\212s\004"
 260      1F9D63C0 
 260      CBAF8994 
 260      3023178A 
 260      7304
 261 0026 DEF1814F 		.ascii	"\336\361\201O\352\"v4\245.\033\312Se\311\267\374\224"
 261      EA227634 
 261      A52E1BCA 
 261      5365C9B7 
 261      FC94
 262 0038 5FAAB7E2 		.ascii	"_\252\267\342\341\003;2\001\347"
 262      E1033B32 
 262      01E7
 263              		.text
 264              		.section	.gnu.lto_.decls.53c784c9,"",%progbits
 265 0000 789CB557 		.ascii	"x\234\265WyP[\307\031\327\276\225\320\201\200\324WR"
 265      79505BC7 
 265      19D7BE95 
 265      D08180D4 
 265      5752
 266 0012 4F3A4348 		.ascii	"O:CHK\2354q\235\246\311\270\255'q\0167\307L\033\332"
 266      4B9D3471 
 266      9DA6C9B8 
 266      AD27710E 
 266      37C74C1B 
 267 0027 34D33FC2 		.ascii	"4\323?\302\214B\244g\254\251A\032\035q=\375\243\017"
 267      8C42A467 
 267      ACA9411A 
 267      1D713DFD 
 267      A30F
 268 0039 416A0C3E 		.ascii	"Aj\014>\2611\227\355\3106\367!\260\2151\2079\014>\260"
 268      B13197ED 
 268      C836F721 
ARM GAS  C:\Users\Luggi\AppData\Local\Temp\cc5AwCUD.s 			page 21


 268      B08D3187 
 268      390C3EB0 
 269 004d C1360918 		.ascii	"\3016\011\030\214\361! 6$\304\004\023\316&1\375v\367"
 269      8CF12120 
 269      3624C404 
 269      13CE2631 
 269      FD76F7
 270 0060 494FC2A2 		.ascii	"IO\302\242\323v\246o\346\323{\273\373\333\337~\327~"
 270      D376A66F 
 270      E6D37BBB 
 270      FBDBDF7E 
 270      D77E
 271 0072 BBC23299 		.ascii	"\273\3022\231l\025'\223\315\301\243[,\223u\300\267\034"
 271      6C152793 
 271      CDC1A35B 
 271      2C9375C0 
 271      B71C
 272 0084 FAA264D2 		.ascii	"\372\242d\322\243\000)\005q\201\034\005i\0049\013\242"
 272      A3002905 
 272      71811C05 
 272      6904390B 
 272      A2
 273 0095 02B907F2 		.ascii	"\002\271\007\3625\310}\220Y\202E2Y0H\010H\030\222\371"
 273      35C87D90 
 273      59824532 
 273      59304808 
 273      481892F9 
 274 00a9 3D842318 		.ascii	"=\204#\030$\024D\013\3626\310\233 U K\000\273\014\336"
 274      2414440B 
 274      F236C89B 
 274      2055204B 
 274      00BB0CDE 
 275 00bd 4BE15D0F 		.ascii	"K\341]\017\357'@\026\211\3639qn\243\354\341\207\350"
 275      EF274016 
 275      89F33971 
 275      6EA3ECE1 
 275      87E8
 276 00cf F4C3799C 		.ascii	"\364\303y\234\204\353E\304\270\011g8\310\032\220\325"
 276      84EB45C4 
 276      B8096738 
 276      C81A90D5 
 277 00df D0F712C8 		.ascii	"\320\367\022\310\010|\277\014\357W\340\035\011\357\265"
 277      087CBF0C 
 277      EF57E01D 
 277      09EFB5
 278 00ee 2053F0FD 		.ascii	" S\360\375\012\2741\310\253 j\220U \257\201\264\210"
 278      0ABC31C8 
 278      AB206A90 
 278      5520AF81 
 278      B488
 279 0100 BAA8E1FD 		.ascii	"\272\250\341\375<\274\177\014\3624\310O@~\006\362S\220"
 279      3CBC7F0C 
 279      F234C84F 
 279      407E06F2 
 279      5390
 280 0112 A7409E04 		.ascii	"\247@\236\004y\0011}]\377\243\217\210\177\227\212\376"
 280      7901317D 
ARM GAS  C:\Users\Luggi\AppData\Local\Temp\cc5AwCUD.s 			page 22


 280      5DFFA38F 
 280      887F978A 
 280      FE
 281 0123 F7D834DF 		.ascii	"\367\3304\337\236\267E{\026\211:N\211\366xl#vF\212\366"
 281      9EB7457B 
 281      16893A4E 
 281      89F6786C 
 281      2376468A 
 282 0138 AD156D21 		.ascii	"\255\025m!6\021]\210~\363m\360\325\037\211:(\003\350"
 282      36115D88 
 282      7EF36DF0 
 282      D51F893A 
 282      2803E8
 283 014b BD90CEF7 		.ascii	"\275\220\316\3679T\343\232\270\024<\314\241PM8i\326"
 283      3954E39A 
 283      B8143CCC 
 283      A1504D38 
 283      69D6
 284 015d A6B56606 		.ascii	"\246\265f\006AS\253\221\223f\335\267\003]\362G\323\005"
 284      4153AB91 
 284      9366DDB7 
 284      035DF247 
 284      D305
 285 016f 7876250A 		.ascii	"xv%\012\217\310\321\333\032T\200\226\243B\264\034V,"
 285      8FC8D1DB 
 285      1A548096 
 285      A342B41C 
 285      562C
 286 0181 428FC2EF 		.ascii	"B\217\302\357\373r\306\224\264\367f.\2079D\276\217d"
 286      FB72C694 
 286      B4F7662E 
 286      873944BE 
 286      8F64
 287 0193 F677699E 		.ascii	"\366wi\236)\206i\311B\323\014\222\226\313\257\354=\031"
 287      298669C9 
 287      42D30C92 
 287      96CBAFEC 
 287      3D19
 288 01a5 1C7E5070 		.ascii	"\034~PpV\214\271*\257j\205V\241in\356eJ\205\212\021"
 288      568CB92A 
 288      AF6A8556 
 288      A1696EEE 
 288      654A858A 
 289 01ba 4625E819 		.ascii	"F%\350\031\202$\337t\012*E\3410\355Sw\226;\004\207S"
 289      8224DF74 
 289      0A2A45E1 
 289      30ED5377 
 289      963B0487 
 290 01cf EEF19DDD 		.ascii	"\356\361\235\335\005a\224\302\231z$\210\021\320\371"
 290      056194C2 
 290      997A2488 
 290      11D0F9
 291 01de 653EF3CB 		.ascii	"e>\363\313<\363]t\376CvD-\363\261\243\334\317\216\033"
 291      3CF35D74 
 291      FE437644 
 291      2DF3B1A3 
 291      DCCF8E1B 
ARM GAS  C:\Users\Luggi\AppData\Local\Temp\cc5AwCUD.s 			page 23


 292 01f2 0F6E6E51 		.ascii	"\017nnQ\343\225t\255\336\3363\315\230\256\345\276\325"
 292      E39574AD 
 292      DEDE33CD 
 292      98AEE5BE 
 292      D5
 293 0203 C2372509 		.ascii	"\3027%\011\337\315\315a:\001U\370\254V\341Y\355(]-="
 293      DFCDCD61 
 293      3A0155F8 
 293      AC56E159 
 293      ED285D2D 
 294 0218 27F16618 		.ascii	"'\361f\030^C\031\022\362\353\266)\301\241Oh(\371\355"
 294      5E431912 
 294      F2EBB629 
 294      C1A14F68 
 294      28F9ED
 295 022b 9CD95C35 		.ascii	"\234\331\\5m\222}\033\006]\334\201\357\367W+Q\244&\027"
 295      6D927D1B 
 295      065DDC81 
 295      EFF7572B 
 295      51A42617 
 296 023f 941BDB9E 		.ascii	"\224\033\333\236X\247\255\023\004\025\252B\032t\314"
 296      58A7AD13 
 296      0415AA42 
 296      1A74CC
 297 024e BB049D4E 		.ascii	"\273\004\235N\236dAp\020\023\324o\312\274\006\240\023"
 297      9E644170 
 297      1013D46F 
 297      CABC06A0 
 297      13
 298 025f 28120014 		.ascii	"(\022\000\024\212\216Cg%t\302Z\335\215[\266\250p\254"
 298      8A8E4367 
 298      2574C25A 
 298      DD8D5BB6 
 298      A870AC
 299 0272 9F1ACB98 		.ascii	"\237\032\313\230\032;\332\262Oc\332\234#\303\\o\357"
 299      1A3BDAB2 
 299      4F63DA9C 
 299      23C35C6F 
 299      EF
 300 0283 DE598C34 		.ascii	"\336Y\2144\221\224~,M\300\217\311\3203\313\321S@^\007"
 300      91947E2C 
 300      4DC08FC9 
 300      D033CBD1 
 300      53405E07 
 301 0297 E4CB44F2 		.ascii	"\344\313D\362j \257\001r\242\252\273\270,T@\250\026"
 301      6A20AF01 
 301      72A2AABB 
 301      B82C5440 
 301      A816
 302 02a9 F43C29E9 		.ascii	"\364<)\351\271L\343\015\365\256\217O\357\222\313aKQ"
 302      B94CE30D 
 302      F5AE8F4F 
 302      EF92CB61 
 302      4B51
 303 02bb CCFB349F 		.ascii	"\314\3734\237\366\247\227nC\276q fJ\201\250\247\201"
 303      F6A7976E 
 303      43BE7120 
ARM GAS  C:\Users\Luggi\AppData\Local\Temp\cc5AwCUD.s 			page 24


 303      664A81A8 
 303      A781
 304 02cd 3885C448 		.ascii	"8\205\304H\334*\030\265\3438\252\177OkR\035\311\033"
 304      DC2A18B5 
 304      E338AA7F 
 304      4F6B521D 
 304      C91B
 305 02df B7309692 		.ascii	"\2670\226\222\267'$K8\344\020\036\314\201\362d\016j"
 305      B727244B 
 305      38E4101E 
 305      CC81F264 
 305      0E6A
 306 02f1 F0894583 		.ascii	"\360\211E\203'\026\2154\026\201\264\310H\036\256Tz\373"
 306      27168D34 
 306      1681B4C8 
 306      481EAE54 
 306      7AFB
 307 0303 9A10ED1C 		.ascii	"\232\020\355\034,\313\276\252\360v\236f\235\005yU\335"
 307      2CCBBEAA 
 307      F0769E66 
 307      9D057955 
 307      DD
 308 0314 AA85F56D 		.ascii	"\252\205\365m\241\3726{\364\2754Y\346\220\343<D5\236"
 308      A1FA367B 
 308      F4BD3459 
 308      E690E33C 
 308      44359E
 309 0327 CD75BB34 		.ascii	"\315u\2734Tcg\3371\341U\226:d\006:\343\243\355\031\217"
 309      546367DF 
 309      31E15596 
 309      3A64063A 
 309      E3A3ED19 
 310 033c B667599E 		.ascii	"\266gY\236\316T\025\204\322\335\350\246$\307N\015O\206"
 310      CE541584 
 310      D2DDE8A6 
 310      24C74E0D 
 310      4F86
 311 034e D1EDF838 		.ascii	"\321\355\3708i\3569\322R\032\214\353\330\002uC\216^"
 311      69EE39D2 
 311      521A8CEB 
 311      D8027543 
 311      8E5E
 312 0360 256E648D 		.ascii	"%nd\215\231/\207\276B\370<k\270n\266l\202IA\032\242"
 312      992F87BE 
 312      42F83C6B 
 312      B86EB66C 
 312      8249411A 
 313 0375 F70C4934 		.ascii	"\367\014I4\364w\350\276\320y\245CA\373I\227\222\304"
 313      F477E8BE 
 313      D079A543 
 313      41FB4997 
 313      92C4
 314 0387 7D5FFFCE 		.ascii	"}_\377\316Y\216\305]x(\255.C\344\203\304\310\267Ag\273"
 314      598EC55D 
 314      7828AD2E 
 314      43E483C4 
 314      C8B74167 
ARM GAS  C:\Users\Luggi\AppData\Local\Temp\cc5AwCUD.s 			page 25


 315 039c 18F9B1A2 		.ascii	"\030\371\261\242\241O\036\027\0049\272\004\316\270("
 315      A14F1E17 
 315      0439BA04 
 315      CEB828
 316 03ab C53EC81B 		.ascii	"\305>\310\033{\316y.\253\006yr\372@j\317R\002\357\000"
 316      7BCE792E 
 316      AB067972 
 316      FA406ACF 
 316      5202EF00 
 317 03bf F805090E 		.ascii	"\370\005\011\016\263\2759\375\360\342W\002,\0166\034"
 317      B3BD39FD 
 317      F0E25702 
 317      2C0E361C 
 318 03cf AD2D2C53 		.ascii	"\255-,S\342\032L\355\034=\361I\266\006\327\261\306q"
 318      E21A4CED 
 318      1C3DF149 
 318      B606D7B1 
 318      C671
 319 03e1 57568D16 		.ascii	"WV\215\026\327\263Fn\372\276R\005\365\233\2124K'SF\024"
 319      D7B3466E 
 319      FABE5205 
 319      F59B8A34 
 319      4B275346 
 320 03f6 B8918D0D 		.ascii	"\270\221\215\015^\315\035\320\342\263\254\32160\363"
 320      5ECD1DD0 
 320      E2B3ACD1 
 320      3630F3
 321 0405 8D96021F 		.ascii	"\215\226\002\037\241\031\347\354i\017\305\355l\254\363"
 321      A119E7EC 
 321      690FC5ED 
 321      6CACF3
 322 0414 EEA0A0A5 		.ascii	"\356\240\240\245\031\321\341M\235m\343\323#\312\005"
 322      19D1E14D 
 322      9D6DE3D3 
 322      23CA05
 323 0423 0BC9759A 		.ascii	"\013\311u\232\017\275\236|p\346\244\266\005\341N\306"
 323      0FBD9E7C 
 323      70E6A4B6 
 323      05E14EC6 
 324 0433 B6EFEC80 		.ascii	"\266\357\354\200\240\324\246x\367/\001\373L\275\201"
 324      A0D4A678 
 324      F72F01FB 
 324      4CBD81
 325 0442 B4A263C0 		.ascii	"\264\242c\300}\305\303\235mJ\244\215\\\000\215n\201"
 325      7DC5C39D 
 325      6D4AA48D 
 325      5C008D6E 
 325      81
 326 0453 73A409D4 		.ascii	"s\244\011\324\311\227\256\234_B\234|\023\272\373$'\003"
 326      C997AE9C 
 326      5F429C7C 
 326      13BAFB24 
 326      2703
 327 0465 CABB21BB 		.ascii	"\312\273!\273>\373Z\300\370+\246N\326t\3739\226Y\217"
 327      3EFB5AC0 
 327      F82BA64E 
 327      D674FB39 
ARM GAS  C:\Users\Luggi\AppData\Local\Temp\cc5AwCUD.s 			page 26


 327      96598F
 328 0478 4153BDBD 		.ascii	"AS\275\275\374@\237\006E\300\263\030$\322I6\270\253"
 328      FC409F06 
 328      45C0B318 
 328      24D24936 
 328      B8AB
 329 048a D2D09484 		.ascii	"\322\320\224\204\251\361\335\300x\007-\2264\350\241"
 329      A9F1DDC0 
 329      78072D96 
 329      34E8A1
 330 0499 4A3F0D3F 		.ascii	"J?\015?2\202u\226\035\023\326\212\330\253\363\261]\024"
 330      32827596 
 330      1D13D68A 
 330      D8ABF3B1 
 330      5D14
 331 04ab 5B80BCE0 		.ascii	"[\200\274\340\022\011\374\331|\360\212y\330r\011{-\260"
 331      1209FCD9 
 331      7CF08A79 
 331      D872097B 
 331      2DB0
 332 04bd 120CBC9B 		.ascii	"\022\014\274\233\206D\020\326\312e\350\034\000\316\023"
 332      864410D6 
 332      CA65E81C 
 332      00CE13
 333 04cc 40AB3803 		.ascii	"@\2538\003\234\201\276\000\237\015\241\0104\010r\027"
 333      9C81BE00 
 333      9F0DA108 
 333      34087217 
 334 04dc 6400A41F 		.ascii	"d\000\244\037\344s\220a\024A\235DW,\225V\354\014l\212"
 334      E4739061 
 334      14419D44 
 334      572C9556 
 334      EC0C6C8A 
 335 04f0 D76C7771 		.ascii	"\327lwq\255\327E\237\006\264\304\003u\270\253\257Q("
 335      ADD7459F 
 335      06B4C403 
 335      75B8ABAF 
 335      5128
 336 0502 89CFEDF9 		.ascii	"\211\317\355\371P\267DKKka\224\212\000d\2362\341\335"
 336      50B7444B 
 336      4B6B6194 
 336      8A00649E 
 336      32E1DD
 337 0515 5705FB46 		.ascii	"W\005\373F\373\340\254XLQ5A\010\215\000M\253\024n2\211"
 337      FBE0AC58 
 337      4C513541 
 337      088D004D 
 337      AB146E32 
 338 052a 3E01DDF1 		.ascii	">\001\335\361%\270\340\277q\007\311\031W~\276\022\217"
 338      25B8E0BF 
 338      7107C919 
 338      577EBE12 
 338      8F
 339 053b B39C71E4 		.ascii	"\263\234q\344e\315(\236<D\212\260\253\303\234\0005\330"
 339      65CD289E 
 339      3C448AB0 
 339      ABC39C00 
ARM GAS  C:\Users\Luggi\AppData\Local\Temp\cc5AwCUD.s 			page 27


 339      35D8
 340 054d 2190C397 		.ascii	"!\220\303\227j\361\025\323\302\273\232\214\364\320\322"
 340      6AF115D3 
 340      C2BB9A8C 
 340      F4D0D2
 341 055c 760F3D09 		.ascii	"v\017=\011\223K\036\224\247\"<\315\230\316\214\346\316"
 341      934B1E94 
 341      A7223CCD 
 341      98CE8CE6 
 341      CE
 342 056d 05019353 		.ascii	"\005\001\223Sp\026\221\342\230D\2139\271]\214\2124\322"
 342      701691E2 
 342      98448B39 
 342      B95D8C8A 
 342      34D2
 343 057f CE181569 		.ascii	"\316\030\025i\276\2464\323\345\303Y\032\014\211N\367"
 343      BEA634D3 
 343      E5C3591A 
 343      0C894EF7 
 344 058f 5461F744 		.ascii	"Ta\367D0\243)\361\247\031{\210fL\244\271Oi2>\275vR\216"
 344      30A329F1 
 344      A7197B88 
 344      664CA4B9 
 344      4F69323E 
 345 05a7 B7329A94 		.ascii	"\2672\232\224\276\242v%\336M\033\\\332\340\004T\360"
 345      BEA27625 
 345      DE4D1B5C 
 345      DAE00454 
 345      F0
 346 05b8 8047E1E4 		.ascii	"\200G\341\344\002G\341XQ\301NZ\020' \017\276\011t\030"
 346      0247E158 
 346      51C14E5A 
 346      1027200F 
 346      BE097418 
 347 05cc 72EE9EBC 		.ascii	"r\356\236\274?\004&\235^\210\364@I\033-\233S@:.\221"
 347      3F04269D 
 347      5E88F440 
 347      491B2D9B 
 347      53403A2E 
 348 05e1 4E20E988 		.ascii	"N \351\210\355\271w\356\210\002\3470+\356\334/\316\246"
 348      EDB977EE 
 348      8802E730 
 348      2BEEDC2F 
 348      CEA6
 349 05f3 3E758CB9 		.ascii	">u\214\271\2569Q\206\320/\210\341!\0143\242C\330\252"
 349      AE395186 
 349      D02F88E1 
 349      210C33A2 
 349      43D8AA
 350 0606 32D2A6EE 		.ascii	"2\322\246\356\230\245\356\360\224\301PV\006\263{\356"
 350      98A5EEF0 
 350      94C15056 
 350      06B37BEE 
 351 0616 4C605A1C 		.ascii	"L`Z\0348\322L\277\230\263S\201\363\3312\273\372\323"
 351      38D24CBF 
 351      98B35381 
 351      F3D932BB 
ARM GAS  C:\Users\Luggi\AppData\Local\Temp\cc5AwCUD.s 			page 28


 351      FAD3
 352 0628 3AE5B85C 		.ascii	":\345\270\\\356w\255\010g\327\212\214\221\231J\025m"
 352      EE77AD08 
 352      67D78A8C 
 352      91994A15 
 352      6D
 353 0639 926B1298 		.ascii	"\222k\022\230};g\177\277\326s\016\024\015uS/%p\032\364"
 353      7D3B677F 
 353      BFD6730E 
 353      140D7553 
 353      2F25701A 
 354 064e BD6450B8 		.ascii	"\275dP\270\357\325FH\024\024+d\350\237\340\210oI\312"
 354      EFD54648 
 354      14142B64 
 354      E89FE088 
 354      6F49CA
 355 0661 0A5C2400 		.ascii	"\012\\$\000\230w\036@\347\034=\006\270\224Q\3476\354"
 355      98771E40 
 355      E71C3D06 
 355      B89451E7 
 355      36EC
 356 0673 3D5F4AD2 		.ascii	"=_J\322\226\021\336D\340\375N\342\205e\376\015\261#"
 356      9611DE44 
 356      E0FD4EE2 
 356      8565FE0D 
 356      B123
 357 0685 20319A69 		.ascii	" 1\232i.J\017\301\265\314\272\263\343\035#H\364\350"
 357      2E4A0FC1 
 357      B5CCBAB3 
 357      E31D2348 
 357      F4E8
 358 0697 F55C9429 		.ascii	"\365\\\224)\034J\020=J\226J\342\230G=\2242\322C}\372"
 358      1C4A103D 
 358      4A964AE2 
 358      98473D94 
 358      32D2437D 
 359 06ac 31477C5A 		.ascii	"1G|Z\321X\262UM}\372\001!\233\376xl\253\206\372TK]\345"
 359      D158B255 
 359      4D7DFA01 
 359      219BFE78 
 359      6CAB86FA 
 360 06c4 AEC8566B 		.ascii	"\256\310Vk\244\243\017\372}\2225\231\350\016\025\204"
 360      A4A30FFA 
 360      7D923599 
 360      E80E1584 
 361 06d4 1293FBDA 		.ascii	"\022\223\373\332\245\361i\345\242]\342\246\016\227\243"
 361      A5F169E5 
 361      A25DE2A6 
 361      0E97A3
 362 06e3 35C1E81F 		.ascii	"5\301\350\037\334r\264\205#\350\255\334\"\317\034jC"
 362      DC72B485 
 362      23E8ADDC 
 362      22CF1C6A 
 362      43
 363 06f4 E1BE8450 		.ascii	"\341\276\204P|\201\331p4\351pW\010\335\"n\327)y\263"
 363      7C81D970 
 363      34E97057 
ARM GAS  C:\Users\Luggi\AppData\Local\Temp\cc5AwCUD.s 			page 29


 363      08DD226E 
 363      D72979B3 
 364 0708 678BC014 		.ascii	"g\213\300\024\224\"\032 \021\245\210\006\244R\003\006"
 364      94221A20 
 364      11A58806 
 364      A4520306 
 365 0718 6F0D4DA8 		.ascii	"o\015M\250\360\020\343\251O\035/\244<\016wyGts\202\310"
 365      F010E3A9 
 365      4F1D2FA4 
 365      3C0E7779 
 365      47747382 
 366 072d 43526B1B 		.ascii	"CRk\033\347\237Z\333D\226\355\224e`{\373wJ|\217\261"
 366      E79F5ADB 
 366      4496ED94 
 366      65607BFB 
 366      774A7C8F 
 367 0742 B85D937D 		.ascii	"\270]\223}\012\246Mu\265\301\253\015l\330\035\334\374"
 367      0AA64D75 
 367      B5C1AB0D 
 367      6CD81DDC 
 367      FC
 368 0753 0DBB43A4 		.ascii	"\015\273C\244\331Ii\204\214\324\\\025\236a4'\246RjB"
 368      D9496984 
 368      8CD45C15 
 368      9E613427 
 368      A6526A42 
 369 0767 88F312FF 		.ascii	"\210\363\022\377\203\313*\244K\327\345\224n5\333~\363"
 369      83CB2AA4 
 369      4BD7E594 
 369      6E35DB7E 
 369      F3
 370 0778 67ECE116 		.ascii	"g\354\341\026\330~\333\023\033\265\027\310M<\015b\275"
 370      D87EDB13 
 370      1BB517C8 
 370      4D3C0D62 
 370      BD
 371 0789 8BF3A6D5 		.ascii	"\213\363\246\325nN\332\177]m\216>\354{\246\023\254d"
 371      6E4EDA7F 
 371      5D6D8E3E 
 371      EC7BA613 
 371      AC64
 372 079b C15E8E1E 		.ascii	"\301^\216\036\276\344M\376\023\225;\306C|\301\365~\027"
 372      BEE44DFE 
 372      13953BC6 
 372      437CC1F5 
 372      7E17
 373 07ad 8074119C 		.ascii	"\200t\021\234N\301\031\335\323w1\273\010b\032Sa\246"
 373      4EC119DD 
 373      D37731BB 
 373      08621A53 
 373      61A6
 374 07bf 5545B367 		.ascii	"UE\263g\015\275\010\3465_\014\301\3373o\364M"
 374      0DBD08E6 
 374      355F0CC1 
 374      DF336FF4 
 374      4D
 375 07d0 EDBDAEC0 		.ascii	"\355\275\256\300\251\012\332\310\2761\025\213\263\330"
ARM GAS  C:\Users\Luggi\AppData\Local\Temp\cc5AwCUD.s 			page 30


 375      A90ADAC8 
 375      BE31158B 
 375      B3D8
 376 07de F774C3D1 		.ascii	"\367t\303\321\036%>\310\032\236?zZ\366G\257t\350\370"
 376      1E253EC8 
 376      1A9E3F7A 
 376      5AF647AF 
 376      74E8F8
 377 07f1 758C0BD8 		.ascii	"u\214\013\330\330X\375\255d\016\273X\343\366\364\355"
 377      D858FDAD 
 377      640EBB58 
 377      E3F6F4ED 
 378 0801 66255D7A 		.ascii	"f%]z\025i\026\016\\N\013\241\363V\370\216j\331hBSY'"
 378      1569160E 
 378      5C4E0BA1 
 378      F356F88E 
 378      6AD96842 
 379 0818 6BAE86A6 		.ascii	"k\256\206\246\246\367\336\375\0115\022o\021\342=b\314"
 379      A6F7DEFD 
 379      0935126F 
 379      11E23D62 
 379      CC
 380 0829 956DCF12 		.ascii	"\225m\317\022\234\315\3360\347s>G\337a\316\377\"\321"
 380      9CCDDE30 
 380      E7733E47 
 380      DF61CEFF 
 380      22D1
 381 083b C84E5F80 		.ascii	"\310N_\200\346\314\207\272\375\357\021\016\367\205\317"
 381      E6CC87BA 
 381      FDEF110E 
 381      F785CF
 382 084a A29B1230 		.ascii	"\242\233\0220\315\301\003\"X\214\352~.\360\315`\037"
 382      CDC10322 
 382      588CEA7E 
 382      2EF0CD60 
 382      1F
 383 085b A47A068C 		.ascii	"\244z\006\214\241,\021OR\256\024R\240\220\213@\271 "
 383      A12C114F 
 383      52AE1452 
 383      A0908B40 
 383      B920
 384 086d C5207920 		.ascii	"\305 y % \005 E G8\351v\340nk\220\223c\334\263\177\010"
 384      25200520 
 384      45204738 
 384      E976E06E 
 384      6B909363 
 385 0885 8767FF20 		.ascii	"\207g\377 \247\277-\356\206Z\212%\247c\266\210\365\236"
 385      A7BF2DEE 
 385      865A8A25 
 385      A763B688 
 385      F59E
 386 0897 C5F36E07 		.ascii	"\305\363n\007\355\222)\333\374M9\304\371\337\210\334"
 386      ED9229DB 
 386      FC4D39C4 
 386      F9DF88DC 
 387 08a7 ADECCE21 		.ascii	"\255\354\316!\036r~\036\332\317\371\263^\354\372\240"
 387      1E727E1E 
ARM GAS  C:\Users\Luggi\AppData\Local\Temp\cc5AwCUD.s 			page 31


 387      DACFF9B3 
 387      5EECFAA0 
 388 08b7 C98169B5 		.ascii	"\311\201i\265:(\262z\013 \303~\302y/\035\365\253U\004"
 388      3A28B27A 
 388      0B20C37E 
 388      C2792F1D 
 388      F5AB5504 
 389 08cb F1D0A503 		.ascii	"\361\320\245\003\355\350?\3749\207O\261\354\270\223"
 389      EDE83FFC 
 389      39874FB1 
 389      ECB893
 390 08da 35D9C38E 		.ascii	"5\331\303\216\206\337\320+\301\027\273k\302\026,c\345"
 390      86DFD02B 
 390      C117BB6B 
 390      C2162C63 
 390      E5
 391 08eb 9E32E6E2 		.ascii	"\2362\346\342h\031\333\233q\346K\265T\306X\371\360\304"
 391      6819DB9B 
 391      71E64BB5 
 391      54C658F9 
 391      F0C4
 392 08fd 04FE46D3 		.ascii	"\004\376F\323:V\356\251cw{ko(\361y\272\256\274b\250"
 392      3A56EEA9 
 392      63777B6B 
 392      6F28F179 
 392      BAAEBC62 
 393 0912 F5A01C2D 		.ascii	"\365\240\034-\211\210\214H\013\024\317L0\357\030\267"
 393      89888C48 
 393      0B14CF4C 
 393      30EF18B7 
 394 0922 84C6B312 		.ascii	"\204\306\263\022\342y\034\342v\3027n\227W\266\256\242"
 394      E2791CE2 
 394      76C2376E 
 394      9757B6AE 
 394      A2
 395 0933 0E281391 		.ascii	"\016(\023\221\336\251+\374\357^u/\251\310\370<7P\216"
 395      DEA92BFC 
 395      EF5E752F 
 395      A9C8F83C 
 395      37508E
 396 0946 2B104F08 		.ascii	"+\020O\010\022\250\211\216.\314\002\365f\370DU\246\032"
 396      12A8898E 
 396      2ECC02F5 
 396      66F84455 
 396      A61A
 397 0958 2D890CA8 		.ascii	"-\211\014\250\352IPo!U\251\006\327\340^W\005\200L\251"
 397      EA49506F 
 397      2155A906 
 397      D7E05E57 
 397      05804CA9 
 398 096c E81085E8 		.ascii	"\350\020\205\350C\006Hi\336\223\232\037\354[K\010^\362"
 398      43064869 
 398      DE939A1F 
 398      EC5B4B08 
 398      5EF2
 399 097e 7BB5584B 		.ascii	"{\265XK\252i-i-9\360\001ngn\034\334_Q\025\206\"\227"
 399      AA692D69 
ARM GAS  C:\Users\Luggi\AppData\Local\Temp\cc5AwCUD.s 			page 32


 399      2D39F001 
 399      6E676E1C 
 399      DC5F5115 
 400 0995 2FA74767 		.ascii	"/\247Gg\262\260\026\325Cr\324\260R+>\231\320?\3632\031"
 400      B2B016D5 
 400      4372D4B0 
 400      522B3E99 
 400      D03FF332 
 401 09aa 804F157D 		.ascii	"\200O\025}\007\270\267\324\202\352d.\255\234\247\300"
 401      07B8B7D4 
 401      82EA642E 
 401      AD9CA7C0 
 402 09ba B83A16E3 		.ascii	"\270:\026\343\251\007[g\021Q\355\260\247\314\371\325"
 402      A9075B67 
 402      1151EDB0 
 402      A7CCF9D5 
 403 09ca C40651B5 		.ascii	"\304\006Q\265\006\252Z\303`W=\347k\307\210\317\265\030"
 403      06AA5AC3 
 403      60573DE7 
 403      6BC788CF 
 403      B518
 404 09dc FEC28BE0 		.ascii	"\376\302\213\340F\012>\2275R\247\360\005O\371\375\031"
 404      460A3E97 
 404      3552A7F0 
 404      054FF9FD 
 404      19
 405 09ed 6F12C14D 		.ascii	"o\022\301M\024<};\371\220\037s\242\237\032\247E\360"
 405      143C7D3B 
 405      F9901F73 
 405      A29F1AA7 
 405      45F0
 406 09ff 690AAE19 		.ascii	"i\012\256\031\253\273\034\344\013&\333[\0027\213\340"
 406      ABBB1CE4 
 406      0B26DB5B 
 406      02378BE0 
 407 0a0f 660A3EED 		.ascii	"f\012>\355\3361\251\366\005\267\370\325\361\026\021"
 407      DE31A9F6 
 407      05B7F8D5 
 407      F11611
 408 0a1e 4CDE5ADE 		.ascii	"L\336Z\336\022c\345u<o\266\230\342\202\336\370\375{"
 408      1263E575 
 408      3C6FB698 
 408      E282DEF8 
 408      FD7B
 409 0a30 E1AFC9D4 		.ascii	"\341\257\311\324\254\265R/\013\261\306|\304\353\254"
 409      ACB5522F 
 409      0BB1C67C 
 409      C4EBAC
 410 0a3f BCCD668C 		.ascii	"\274\315f\214\217\265\206X\370\030\203\267\245\322o"
 410      8FB58658 
 410      F81883B7 
 410      A5D26F
 411 0a4e B6DA626C 		.ascii	"\266\332blv\353\023o\360\361\300b\343\015\272wMv\213"
 411      76EB136F 
 411      F0F1C062 
 411      E30DBA77 
 411      4D768B
ARM GAS  C:\Users\Luggi\AppData\Local\Temp\cc5AwCUD.s 			page 33


 412 0a61 9E8F8E7A 		.ascii	"\236\217\216z\327\364\332\013?\327o\266m6\363\326\225"
 412      D7F4DA0B 
 412      3FD76FB6 
 412      6D36F3D6 
 412      95
 413 0a72 1B640ABB 		.ascii	"\033d\012\2731\336\266z\311\272uQ\177|\347w\272\347"
 413      31DEB67A 
 413      C9BA7551 
 413      7F7CE777 
 413      BAE7
 414 0a84 74EBC89A 		.ascii	"t\353\310\232\357\362z\233\311\022\261\300d\017\026"
 414      EFF27A9B 
 414      C912B1C0 
 414      640F16
 415 0a93 662FF5CE 		.ascii	"f/\365\316{u\263\215\377\263\305h\343\243LVl6\032\224"
 415      7B75B38D 
 415      FFB3C568 
 415      E3A34C56 
 415      6C361A94 
 416 0aa7 40FBFC2F 		.ascii	"@\373\374/t6\265N'~\375M\377\353h\320=\326\022\023\027"
 416      7436B54E 
 416      277EFD4D 
 416      FFEB68D0 
 416      3DD61213 
 417 0abc BEDEB891 		.ascii	"\276\336\270\221\267F\3537\233-\274\325\032m\266\232"
 417      B746EB37 
 417      9B2DBCD5 
 417      1A6DB69A 
 418 0acc F4E17AB0 		.ascii	"\364\341z\260\000\026\215\376\345\312U\376\035\3068"
 418      00168DFE 
 418      E5CA55FE 
 418      1DC638
 419 0adb B3C9628B 		.ascii	"\263\311b\213\216\215\267G\307X\342`\374W+\237'_\317"
 419      8E8DB747 
 419      C758E260 
 419      FC572B9F 
 419      275FCF
 420 0aee C69BE2F9 		.ascii	"\306\233\342\371g\371\230\017\215\321\306x\375F\273"
 420      67F9980F 
 420      8DD1C678 
 420      FD46BB
 421 0afd 818F8E8B 		.ascii	"\201\217\216\213\321o0\306\363\321:\003\277>\306\276"
 421      D16F30C6 
 421      F3D13A03 
 421      BF3EC6BE 
 422 0b0d D1A6F358 		.ascii	"\321\246\363X\371\227\377\377\332V\233\001\014\205\265"
 422      F997FFFF 
 422      DA569B01 
 422      0C85B5
 423 0b1c 50147A0B 		.ascii	"P\024z\013\275\256x\313\306[\342\202L\033\015:\363G"
 423      BDAE78CB 
 423      C65BE282 
 423      4C1B0D3A 
 423      F347
 424 0b2e 419B8CF1 		.ascii	"A\233\214\361\006\273\371\007&\273\315l\267\375\326"
 424      06BBF907 
 424      26BBCD6C 
ARM GAS  C:\Users\Luggi\AppData\Local\Temp\cc5AwCUD.s 			page 34


 424      B7FDD6
 425 0b3d 1EAFB719 		.ascii	"\036\257\267\031M\361Q6K\020x\212\004a\023\361\234\034"
 425      4DF15136 
 425      4B10788A 
 425      046113F1 
 425      9C1C
 426 0b4f 1ACFA920 		.ascii	"\032\317\251 \206f\0230\251\014\374F[\314\237\342\254"
 426      86661330 
 426      A90CFC46 
 426      5BCC9FE2 
 426      AC
 427 0b60 4A1A21EA 		.ascii	"J\032!\352I\361Kc\210\321\353L\353\327\003TE\272\236"
 427      49F14B63 
 427      88D1EB4C 
 427      EBD70354 
 427      45BA9E
 428 0b73 7B11FAD8 		.ascii	"{\021\372\330(\371\014\325\333-\026>\336&B~d\336`\262"
 428      28F90CD5 
 428      DB2D163E 
 428      DE26427E 
 428      64DE60B2 
 429 0b87 990C4693 		.ascii	"\231\014F\223\201\327\231M\233x\213No\342\327\2577\352"
 429      81D7994D 
 429      9B788B4E 
 429      6FE2D7AF 
 429      37EA
 430 0b99 8D80B12A 		.ascii	"\215\200\261*\014\374\207\366X\215\215\2173\3536\032"
 430      0CFC87F6 
 430      588D8D8F 
 430      33EB361A 
 431 0ba9 E38C36B9 		.ascii	"\343\2146\271\205\217]M\223\353\365\030[\314{\361\240"
 431      858F5D4D 
 431      93EBF518 
 431      5BCC7BF1 
 431      A0
 432 0bba 688801BE 		.ascii	"h\210\001\276\2546\213]o\263[\250\232\177%jF\0215\203"
 432      AC368B5D 
 432      6FB35BA8 
 432      9A7F256A 
 432      46113583 
 433 0bce D82221E2 		.ascii	"\330\"!\342\232\357\320\226\206\201\011\201\234\376"
 433      9AEFD096 
 433      86810981 
 433      9CFE
 434 0bdc E837C458 		.ascii	"\3507\304X\376\0058\345\310\206"
 434      FE0538E5 
 434      C886
 435              		.text
 436              		.section	.gnu.lto_.symtab.53c784c9,"",%progbits
 437 0000 65726173 		.ascii	"erase_eeprom\000\000\000\000\000\000\000\000\000\000"
 437      655F6565 
 437      70726F6D 
 437      00000000 
 437      00000000 
 438 0016 0000AC00 		.ascii	"\000\000\254\000\000\000save_settings\000\000\000\000"
 438      00007361 
 438      76655F73 
ARM GAS  C:\Users\Luggi\AppData\Local\Temp\cc5AwCUD.s 			page 35


 438      65747469 
 438      6E677300 
 439 002d 00000000 		.ascii	"\000\000\000\000\000\000\000\000\256\000\000\000rea"
 439      00000000 
 439      AE000000 
 439      726561
 440 003c 645F7365 		.ascii	"d_settings\000\000\000\000\000\000\000\000\000\000\000"
 440      7474696E 
 440      67730000 
 440      00000000 
 440      00000000 
 441 0051 00B10000 		.ascii	"\000\261\000\000\000pid1\000\000\002\000\000\000\000"
 441      00706964 
 441      31000002 
 441      00000000 
 442 0061 00000000 		.ascii	"\000\000\000\000\000\355\000\000\000setpoint\000\000"
 442      00ED0000 
 442      00736574 
 442      706F696E 
 442      740000
 443 0074 02000000 		.ascii	"\002\000\000\000\000\000\000\000\000\000\357\000\000"
 443      00000000 
 443      0000EF00 
 443      00
 444 0081 0064656C 		.ascii	"\000deltaTms\000\000\002\000\000\000\000\000\000\000"
 444      7461546D 
 444      73000002 
 444      00000000 
 444      000000
 445 0094 0000F100 		.ascii	"\000\000\361\000\000\000dac_offset\000\000\002\000\000"
 445      00006461 
 445      635F6F66 
 445      66736574 
 445      00000200 
 446 00a9 00000000 		.ascii	"\000\000\000\000\000\000\000\371\000\000\000current"
 446      000000F9 
 446      00000063 
 446      75727265 
 446      6E74
 447 00bb 5F6F6666 		.ascii	"_offset\000\000\002\000\000\000\000\000\000\000\000"
 447      73657400 
 447      00020000 
 447      00000000 
 447      0000
 448 00cd 00050100 		.ascii	"\000\005\001\000\000photodiode_power_coefficients\000"
 448      0070686F 
 448      746F6469 
 448      6F64655F 
 448      706F7765 
 449 00f0 00020000 		.ascii	"\000\002\000\000\000\000\000\000\000\000\000\013\001"
 449      00000000 
 449      0000000B 
 449      01
 450 00fd 00006465 		.ascii	"\000\000debug\000\000\002\000\000\000\000\000\000\000"
 450      62756700 
 450      00020000 
 450      00000000 
ARM GAS  C:\Users\Luggi\AppData\Local\Temp\cc5AwCUD.s 			page 36


 450      00
 451 010e 00000D01 		.ascii	"\000\000\015\001\000\000temp_limit\000\000\002\000\000"
 451      00007465 
 451      6D705F6C 
 451      696D6974 
 451      00000200 
 452 0123 00000000 		.ascii	"\000\000\000\000\000\000\000\017\001\000\000EEPROM_"
 452      0000000F 
 452      01000045 
 452      4550524F 
 452      4D5F
 453 0135 315F4572 		.ascii	"1_EraseSector\000\000\002\000\000\000\000\000\000\000"
 453      61736553 
 453      6563746F 
 453      72000002 
 453      00000000 
 454 014c 0000BF00 		.ascii	"\000\000\277\000\000\000EEPROM_1_ByteWritePos\000\000"
 454      00004545 
 454      50524F4D 
 454      5F315F42 
 454      79746557 
 455 0169 02000000 		.ascii	"\002\000\000\000\000\000\000\000\000\000\305\000\000"
 455      00000000 
 455      0000C500 
 455      00
 456 0176 00       		.ascii	"\000"
 457              		.text
 458              		.section	.gnu.lto_.opts,"",%progbits
 459 0000 272D666E 		.ascii	"'-fno-trapv' '-fno-strict-overflow' '-mcpu=cortex-m"
 459      6F2D7472 
 459      61707627 
 459      20272D66 
 459      6E6F2D73 
 460 0033 33272027 		.ascii	"3' '-mthumb' '-g' '-Og' '-ffunction-sections' '-flt"
 460      2D6D7468 
 460      756D6227 
 460      20272D67 
 460      2720272D 
 461 0066 6F272027 		.ascii	"o' '-ffat-lto-objects'\000"
 461      2D666661 
 461      742D6C74 
 461      6F2D6F62 
 461      6A656374 
 462              		.text
 463              		.cfi_sections	.debug_frame
 464              		.section	.text.erase_eeprom,"ax",%progbits
 465              		.align	2
 466              		.global	erase_eeprom
 467              		.thumb
 468              		.thumb_func
 469              		.type	erase_eeprom, %function
 470              	erase_eeprom:
 471              	.LFB0:
 472              		.file 1 "eeprom.c"
   1:eeprom.c      **** /* ========================================
   2:eeprom.c      ****  *
   3:eeprom.c      ****  * Copyright YOUR COMPANY, THE YEAR
ARM GAS  C:\Users\Luggi\AppData\Local\Temp\cc5AwCUD.s 			page 37


   4:eeprom.c      ****  * All Rights Reserved
   5:eeprom.c      ****  * UNPUBLISHED, LICENSED SOFTWARE.
   6:eeprom.c      ****  *
   7:eeprom.c      ****  * CONFIDENTIAL AND PROPRIETARY INFORMATION
   8:eeprom.c      ****  * WHICH IS THE PROPERTY OF your company.
   9:eeprom.c      ****  *
  10:eeprom.c      ****  * ========================================
  11:eeprom.c      **** */
  12:eeprom.c      **** #include "EEPROM_1.h"
  13:eeprom.c      **** #include "pid.h"
  14:eeprom.c      **** 
  15:eeprom.c      **** // global data to save
  16:eeprom.c      **** extern pid pid1;
  17:eeprom.c      **** extern int setpoint;
  18:eeprom.c      **** extern uint32_t eventcounter;
  19:eeprom.c      **** extern int deltaTms;
  20:eeprom.c      **** extern uint8_t dac_offset;
  21:eeprom.c      **** extern uint16_t current_offset;
  22:eeprom.c      **** extern float photodiode_power_coefficients[3];
  23:eeprom.c      **** extern uint8_t debug;
  24:eeprom.c      **** extern int temp_limit;
  25:eeprom.c      **** 
  26:eeprom.c      **** 
  27:eeprom.c      **** typedef union saveDataUnion // union zum umwandeln der Variablen in ein byte array
  28:eeprom.c      **** {
  29:eeprom.c      ****     struct datastructure{
  30:eeprom.c      ****         pid pidx;
  31:eeprom.c      ****         int setPoint; 
  32:eeprom.c      ****         int deltaTms; 
  33:eeprom.c      ****         uint8_t offset; 
  34:eeprom.c      ****         uint16_t currentOffset;
  35:eeprom.c      ****         float photodiode_power_coefficients[3];
  36:eeprom.c      ****         uint8_t debug;
  37:eeprom.c      ****         int temp_limit;
  38:eeprom.c      ****     } structData;
  39:eeprom.c      ****     uint8_t Data[sizeof(struct datastructure)];
  40:eeprom.c      **** } saveDataUnion;
  41:eeprom.c      **** 
  42:eeprom.c      **** int erase_eeprom(void) // eeprom lschen
  43:eeprom.c      **** {
 473              		.loc 1 43 0
 474              		.cfi_startproc
 475              		@ args = 0, pretend = 0, frame = 0
 476              		@ frame_needed = 0, uses_anonymous_args = 0
 477 0000 10B5     		push	{r4, lr}
 478              		.cfi_def_cfa_offset 8
 479              		.cfi_offset 4, -8
 480              		.cfi_offset 14, -4
 481              	.LVL0:
  44:eeprom.c      ****     unsigned int Index;
  45:eeprom.c      ****     cystatus eraseStatus;
  46:eeprom.c      ****     reg8 * RegPointer;
  47:eeprom.c      ****     
  48:eeprom.c      ****     for(Index = 0u; Index < CY_EEPROM_NUMBER_ARRAYS; Index++)
 482              		.loc 1 48 0
 483 0002 0024     		movs	r4, #0
 484 0004 03E0     		b	.L2
ARM GAS  C:\Users\Luggi\AppData\Local\Temp\cc5AwCUD.s 			page 38


 485              	.LVL1:
 486              	.L3:
  49:eeprom.c      ****     {
  50:eeprom.c      ****         eraseStatus = EEPROM_1_EraseSector(Index);
 487              		.loc 1 50 0 discriminator 3
 488 0006 E0B2     		uxtb	r0, r4
 489              	.LVL2:
 490 0008 FFF7FEFF 		bl	EEPROM_1_EraseSector
 491              	.LVL3:
  48:eeprom.c      ****     {
 492              		.loc 1 48 0 discriminator 3
 493 000c 0134     		adds	r4, r4, #1
 494              	.LVL4:
 495              	.L2:
  48:eeprom.c      ****     {
 496              		.loc 1 48 0 is_stmt 0 discriminator 1
 497 000e 002C     		cmp	r4, #0
 498 0010 F9D0     		beq	.L3
  51:eeprom.c      ****     }
  52:eeprom.c      ****     if(eraseStatus != CYRET_SUCCESS)
 499              		.loc 1 52 0 is_stmt 1
 500 0012 78B9     		cbnz	r0, .L7
 501 0014 0022     		movs	r2, #0
 502 0016 08E0     		b	.L5
 503              	.LVL5:
 504              	.L6:
  53:eeprom.c      ****         return 0;
  54:eeprom.c      ****     
  55:eeprom.c      ****     RegPointer = (reg8 *)CYDEV_EE_BASE;
  56:eeprom.c      ****     
  57:eeprom.c      ****     for(Index = 0; Index < EEPROM_1_EEPROM_SIZE; Index++)
  58:eeprom.c      ****     {
  59:eeprom.c      ****         if(RegPointer[Index] != 0u)
 505              		.loc 1 59 0
 506 0018 02F18043 		add	r3, r2, #1073741824
 507 001c 03F50043 		add	r3, r3, #32768
 508 0020 1B78     		ldrb	r3, [r3]	@ zero_extendqisi2
 509 0022 13F0FF0F 		tst	r3, #255
 510 0026 07D1     		bne	.L8
  57:eeprom.c      ****     {
 511              		.loc 1 57 0 discriminator 2
 512 0028 0132     		adds	r2, r2, #1
 513              	.LVL6:
 514              	.L5:
  57:eeprom.c      ****     {
 515              		.loc 1 57 0 is_stmt 0 discriminator 1
 516 002a B2F5006F 		cmp	r2, #2048
 517 002e F3D3     		bcc	.L6
  60:eeprom.c      ****         {
  61:eeprom.c      ****             return 0;
  62:eeprom.c      ****         }
  63:eeprom.c      ****     }
  64:eeprom.c      ****     return 1;
 518              		.loc 1 64 0 is_stmt 1
 519 0030 0120     		movs	r0, #1
 520              	.LVL7:
 521 0032 10BD     		pop	{r4, pc}
ARM GAS  C:\Users\Luggi\AppData\Local\Temp\cc5AwCUD.s 			page 39


 522              	.LVL8:
 523              	.L7:
  53:eeprom.c      ****     
 524              		.loc 1 53 0
 525 0034 0020     		movs	r0, #0
 526              	.LVL9:
 527 0036 10BD     		pop	{r4, pc}
 528              	.LVL10:
 529              	.L8:
  61:eeprom.c      ****         }
 530              		.loc 1 61 0
 531 0038 0020     		movs	r0, #0
 532              	.LVL11:
  65:eeprom.c      **** }
 533              		.loc 1 65 0
 534 003a 10BD     		pop	{r4, pc}
 535              		.cfi_endproc
 536              	.LFE0:
 537              		.size	erase_eeprom, .-erase_eeprom
 538              		.section	.text.save_settings,"ax",%progbits
 539              		.align	2
 540              		.global	save_settings
 541              		.thumb
 542              		.thumb_func
 543              		.type	save_settings, %function
 544              	save_settings:
 545              	.LFB1:
  66:eeprom.c      **** 
  67:eeprom.c      **** int save_settings(void) // speichern der Variablen
  68:eeprom.c      **** {
 546              		.loc 1 68 0
 547              		.cfi_startproc
 548              		@ args = 0, pretend = 0, frame = 64
 549              		@ frame_needed = 0, uses_anonymous_args = 0
 550 0000 70B5     		push	{r4, r5, r6, lr}
 551              		.cfi_def_cfa_offset 16
 552              		.cfi_offset 4, -16
 553              		.cfi_offset 5, -12
 554              		.cfi_offset 6, -8
 555              		.cfi_offset 14, -4
 556 0002 90B0     		sub	sp, sp, #64
 557              		.cfi_def_cfa_offset 80
 558              	.LVL12:
  69:eeprom.c      ****     reg8 * RegPointer;
  70:eeprom.c      ****     saveDataUnion globalData;
  71:eeprom.c      ****     unsigned int byteswritten=0;
  72:eeprom.c      ****     unsigned int x,y;
  73:eeprom.c      ****     unsigned int Index;
  74:eeprom.c      ****     
  75:eeprom.c      **** 	// Variablen in Zwischenspeicher schreiben
  76:eeprom.c      ****     memcpy(&globalData.structData.pidx,&pid1,sizeof(pid));
 559              		.loc 1 76 0
 560 0004 01AC     		add	r4, sp, #4
 561 0006 274D     		ldr	r5, .L21
 562 0008 0FCD     		ldmia	r5!, {r0, r1, r2, r3}
 563 000a 0FC4     		stmia	r4!, {r0, r1, r2, r3}
 564 000c 95E80700 		ldmia	r5, {r0, r1, r2}
ARM GAS  C:\Users\Luggi\AppData\Local\Temp\cc5AwCUD.s 			page 40


 565 0010 84E80700 		stmia	r4, {r0, r1, r2}
  77:eeprom.c      ****     globalData.structData.setPoint = setpoint;
 566              		.loc 1 77 0
 567 0014 244B     		ldr	r3, .L21+4
 568 0016 1B68     		ldr	r3, [r3]
 569 0018 0893     		str	r3, [sp, #32]
  78:eeprom.c      ****     globalData.structData.deltaTms = deltaTms;
 570              		.loc 1 78 0
 571 001a 244B     		ldr	r3, .L21+8
 572 001c 1B68     		ldr	r3, [r3]
 573 001e 0993     		str	r3, [sp, #36]
  79:eeprom.c      **** 	globalData.structData.offset = dac_offset;
 574              		.loc 1 79 0
 575 0020 234B     		ldr	r3, .L21+12
 576 0022 1B78     		ldrb	r3, [r3]	@ zero_extendqisi2
 577 0024 8DF82830 		strb	r3, [sp, #40]
  80:eeprom.c      ****     globalData.structData.currentOffset = current_offset;
 578              		.loc 1 80 0
 579 0028 224B     		ldr	r3, .L21+16
 580 002a 1B88     		ldrh	r3, [r3]
 581 002c ADF82A30 		strh	r3, [sp, #42]	@ movhi
  81:eeprom.c      ****     globalData.structData.photodiode_power_coefficients[0] = photodiode_power_coefficients[0];
 582              		.loc 1 81 0
 583 0030 214B     		ldr	r3, .L21+20
 584 0032 1A68     		ldr	r2, [r3]	@ float
 585 0034 0B92     		str	r2, [sp, #44]	@ float
  82:eeprom.c      ****     globalData.structData.photodiode_power_coefficients[1] = photodiode_power_coefficients[1];
 586              		.loc 1 82 0
 587 0036 5A68     		ldr	r2, [r3, #4]	@ float
 588 0038 0C92     		str	r2, [sp, #48]	@ float
  83:eeprom.c      ****     globalData.structData.photodiode_power_coefficients[2] = photodiode_power_coefficients[2];
 589              		.loc 1 83 0
 590 003a 9B68     		ldr	r3, [r3, #8]	@ float
 591 003c 0D93     		str	r3, [sp, #52]	@ float
  84:eeprom.c      ****     globalData.structData.debug = debug;
 592              		.loc 1 84 0
 593 003e 1F4B     		ldr	r3, .L21+24
 594 0040 1B78     		ldrb	r3, [r3]	@ zero_extendqisi2
 595 0042 8DF83830 		strb	r3, [sp, #56]
  85:eeprom.c      ****     globalData.structData.temp_limit = temp_limit;
 596              		.loc 1 85 0
 597 0046 1E4B     		ldr	r3, .L21+28
 598 0048 1B68     		ldr	r3, [r3]
 599 004a 0F93     		str	r3, [sp, #60]
 600              	.LVL13:
  86:eeprom.c      ****     
  87:eeprom.c      ****     // Variablen byteweise in den EEPROM schreiben
  88:eeprom.c      ****     for(x = 0; x <= (sizeof(globalData) / SIZEOF_EEPROM_ROW); x++) 
 601              		.loc 1 88 0
 602 004c 0026     		movs	r6, #0
  71:eeprom.c      ****     unsigned int x,y;
 603              		.loc 1 71 0
 604 004e 3546     		mov	r5, r6
 605              		.loc 1 88 0
 606 0050 10E0     		b	.L11
 607              	.LVL14:
 608              	.L13:
ARM GAS  C:\Users\Luggi\AppData\Local\Temp\cc5AwCUD.s 			page 41


  89:eeprom.c      ****     {
  90:eeprom.c      ****         for(y=0; y < SIZEOF_EEPROM_ROW; y++)
  91:eeprom.c      ****         {
  92:eeprom.c      ****             EEPROM_1_ByteWrite(globalData.Data[byteswritten], x, y);
 609              		.loc 1 92 0
 610 0052 10AB     		add	r3, sp, #64
 611 0054 2B44     		add	r3, r3, r5
 612 0056 13F83C0C 		ldrb	r0, [r3, #-60]	@ zero_extendqisi2
 613 005a F1B2     		uxtb	r1, r6
 614 005c E2B2     		uxtb	r2, r4
 615 005e FFF7FEFF 		bl	EEPROM_1_ByteWritePos
 616              	.LVL15:
  93:eeprom.c      ****             byteswritten++;
 617              		.loc 1 93 0
 618 0062 0135     		adds	r5, r5, #1
 619              	.LVL16:
  94:eeprom.c      ****             if(byteswritten >= sizeof(globalData))
 620              		.loc 1 94 0
 621 0064 3B2D     		cmp	r5, #59
 622 0066 04D8     		bhi	.L12
  90:eeprom.c      ****         {
 623              		.loc 1 90 0 discriminator 2
 624 0068 0134     		adds	r4, r4, #1
 625              	.LVL17:
 626 006a 00E0     		b	.L14
 627              	.LVL18:
 628              	.L18:
 629 006c 0024     		movs	r4, #0
 630              	.L14:
 631              	.LVL19:
  90:eeprom.c      ****         {
 632              		.loc 1 90 0 is_stmt 0 discriminator 1
 633 006e 0F2C     		cmp	r4, #15
 634 0070 EFD9     		bls	.L13
 635              	.L12:
  88:eeprom.c      ****     {
 636              		.loc 1 88 0 is_stmt 1 discriminator 2
 637 0072 0136     		adds	r6, r6, #1
 638              	.LVL20:
 639              	.L11:
  88:eeprom.c      ****     {
 640              		.loc 1 88 0 is_stmt 0 discriminator 1
 641 0074 032E     		cmp	r6, #3
 642 0076 F9D9     		bls	.L18
 643 0078 0023     		movs	r3, #0
 644 007a 0BE0     		b	.L15
 645              	.LVL21:
 646              	.L17:
  95:eeprom.c      ****                 break;
  96:eeprom.c      ****         }
  97:eeprom.c      ****     }
  98:eeprom.c      ****     
  99:eeprom.c      **** 	// die geschriebenen Daten berprfen
 100:eeprom.c      ****     RegPointer = (reg8 *) CYDEV_EE_BASE;
 101:eeprom.c      ****     for(Index = 0; Index < sizeof(globalData); Index++)
 102:eeprom.c      ****     {
 103:eeprom.c      ****         if(globalData.Data[Index] != RegPointer[Index])
ARM GAS  C:\Users\Luggi\AppData\Local\Temp\cc5AwCUD.s 			page 42


 647              		.loc 1 103 0 is_stmt 1
 648 007c 03F18042 		add	r2, r3, #1073741824
 649 0080 02F50042 		add	r2, r2, #32768
 650 0084 1178     		ldrb	r1, [r2]	@ zero_extendqisi2
 651 0086 10AA     		add	r2, sp, #64
 652 0088 1A44     		add	r2, r2, r3
 653 008a 12F83C2C 		ldrb	r2, [r2, #-60]	@ zero_extendqisi2
 654 008e 8A42     		cmp	r2, r1
 655 0090 04D1     		bne	.L19
 101:eeprom.c      ****     {
 656              		.loc 1 101 0 discriminator 2
 657 0092 0133     		adds	r3, r3, #1
 658              	.LVL22:
 659              	.L15:
 101:eeprom.c      ****     {
 660              		.loc 1 101 0 is_stmt 0 discriminator 1
 661 0094 3B2B     		cmp	r3, #59
 662 0096 F1D9     		bls	.L17
 104:eeprom.c      ****             return 0;
 105:eeprom.c      ****     }
 106:eeprom.c      ****     
 107:eeprom.c      ****     return 1;   
 663              		.loc 1 107 0 is_stmt 1
 664 0098 0120     		movs	r0, #1
 665 009a 00E0     		b	.L16
 666              	.L19:
 104:eeprom.c      ****             return 0;
 667              		.loc 1 104 0
 668 009c 0020     		movs	r0, #0
 669              	.L16:
 108:eeprom.c      **** }
 670              		.loc 1 108 0
 671 009e 10B0     		add	sp, sp, #64
 672              		.cfi_def_cfa_offset 16
 673              		@ sp needed
 674 00a0 70BD     		pop	{r4, r5, r6, pc}
 675              	.LVL23:
 676              	.L22:
 677 00a2 00BF     		.align	2
 678              	.L21:
 679 00a4 00000000 		.word	pid1
 680 00a8 00000000 		.word	setpoint
 681 00ac 00000000 		.word	deltaTms
 682 00b0 00000000 		.word	dac_offset
 683 00b4 00000000 		.word	current_offset
 684 00b8 00000000 		.word	photodiode_power_coefficients
 685 00bc 00000000 		.word	debug
 686 00c0 00000000 		.word	temp_limit
 687              		.cfi_endproc
 688              	.LFE1:
 689              		.size	save_settings, .-save_settings
 690              		.section	.text.read_settings,"ax",%progbits
 691              		.align	2
 692              		.global	read_settings
 693              		.thumb
 694              		.thumb_func
 695              		.type	read_settings, %function
ARM GAS  C:\Users\Luggi\AppData\Local\Temp\cc5AwCUD.s 			page 43


 696              	read_settings:
 697              	.LFB2:
 109:eeprom.c      **** 
 110:eeprom.c      **** void read_settings(void)
 111:eeprom.c      **** {
 698              		.loc 1 111 0
 699              		.cfi_startproc
 700              		@ args = 0, pretend = 0, frame = 64
 701              		@ frame_needed = 0, uses_anonymous_args = 0
 702              		@ link register save eliminated.
 703 0000 30B4     		push	{r4, r5}
 704              		.cfi_def_cfa_offset 8
 705              		.cfi_offset 4, -8
 706              		.cfi_offset 5, -4
 707 0002 90B0     		sub	sp, sp, #64
 708              		.cfi_def_cfa_offset 72
 709              	.LVL24:
 112:eeprom.c      ****     reg8 * RegPointer;
 113:eeprom.c      ****     saveDataUnion globalData;
 114:eeprom.c      ****     unsigned int Index;
 115:eeprom.c      ****     
 116:eeprom.c      **** 	// EEPROM byteweise lesen
 117:eeprom.c      ****     RegPointer = (reg8 *) CYDEV_EE_BASE;
 118:eeprom.c      ****     for(Index = 0; Index < sizeof(globalData); Index++)
 710              		.loc 1 118 0
 711 0004 0023     		movs	r3, #0
 712 0006 09E0     		b	.L24
 713              	.LVL25:
 714              	.L25:
 119:eeprom.c      ****     {
 120:eeprom.c      ****         globalData.Data[Index] = RegPointer[Index];
 715              		.loc 1 120 0 discriminator 3
 716 0008 03F18042 		add	r2, r3, #1073741824
 717 000c 02F50042 		add	r2, r2, #32768
 718 0010 1178     		ldrb	r1, [r2]	@ zero_extendqisi2
 719 0012 10AA     		add	r2, sp, #64
 720 0014 1A44     		add	r2, r2, r3
 721 0016 02F83C1C 		strb	r1, [r2, #-60]
 118:eeprom.c      ****     {
 722              		.loc 1 118 0 discriminator 3
 723 001a 0133     		adds	r3, r3, #1
 724              	.LVL26:
 725              	.L24:
 118:eeprom.c      ****     {
 726              		.loc 1 118 0 is_stmt 0 discriminator 1
 727 001c 3B2B     		cmp	r3, #59
 728 001e F3D9     		bls	.L25
 121:eeprom.c      ****     }
 122:eeprom.c      **** 	
 123:eeprom.c      **** 	// globale Variablen setzen 
 124:eeprom.c      ****     memcpy(&pid1, &globalData.structData.pidx, sizeof(pid));
 729              		.loc 1 124 0 is_stmt 1
 730 0020 114C     		ldr	r4, .L27
 731 0022 01AD     		add	r5, sp, #4
 732 0024 0FCD     		ldmia	r5!, {r0, r1, r2, r3}
 733              	.LVL27:
 734 0026 0FC4     		stmia	r4!, {r0, r1, r2, r3}
ARM GAS  C:\Users\Luggi\AppData\Local\Temp\cc5AwCUD.s 			page 44


 735 0028 95E80700 		ldmia	r5, {r0, r1, r2}
 736 002c 84E80700 		stmia	r4, {r0, r1, r2}
 125:eeprom.c      ****     setpoint = globalData.structData.setPoint;  
 737              		.loc 1 125 0
 738 0030 0E4B     		ldr	r3, .L27+4
 739 0032 089A     		ldr	r2, [sp, #32]
 740 0034 1A60     		str	r2, [r3]
 126:eeprom.c      ****     deltaTms = globalData.structData.deltaTms;
 741              		.loc 1 126 0
 742 0036 0E4B     		ldr	r3, .L27+8
 743 0038 099A     		ldr	r2, [sp, #36]
 744 003a 1A60     		str	r2, [r3]
 127:eeprom.c      **** 	dac_offset = globalData.structData.offset;
 745              		.loc 1 127 0
 746 003c 9DF82820 		ldrb	r2, [sp, #40]	@ zero_extendqisi2
 747 0040 0C4B     		ldr	r3, .L27+12
 748 0042 1A70     		strb	r2, [r3]
 128:eeprom.c      ****     photodiode_power_coefficients[0] = globalData.structData.photodiode_power_coefficients[0];
 749              		.loc 1 128 0
 750 0044 0C4B     		ldr	r3, .L27+16
 751 0046 0B9A     		ldr	r2, [sp, #44]	@ float
 752 0048 1A60     		str	r2, [r3]	@ float
 129:eeprom.c      ****     photodiode_power_coefficients[1] = globalData.structData.photodiode_power_coefficients[1];
 753              		.loc 1 129 0
 754 004a 0C9A     		ldr	r2, [sp, #48]	@ float
 755 004c 5A60     		str	r2, [r3, #4]	@ float
 130:eeprom.c      ****     photodiode_power_coefficients[2] = globalData.structData.photodiode_power_coefficients[2];
 756              		.loc 1 130 0
 757 004e 0D9A     		ldr	r2, [sp, #52]	@ float
 758 0050 9A60     		str	r2, [r3, #8]	@ float
 131:eeprom.c      ****     debug = globalData.structData.debug;
 759              		.loc 1 131 0
 760 0052 9DF83820 		ldrb	r2, [sp, #56]	@ zero_extendqisi2
 761 0056 094B     		ldr	r3, .L27+20
 762 0058 1A70     		strb	r2, [r3]
 132:eeprom.c      ****     temp_limit = globalData.structData.temp_limit;
 763              		.loc 1 132 0
 764 005a 094B     		ldr	r3, .L27+24
 765 005c 0F9A     		ldr	r2, [sp, #60]
 766 005e 1A60     		str	r2, [r3]
 133:eeprom.c      **** }
 767              		.loc 1 133 0
 768 0060 10B0     		add	sp, sp, #64
 769              		.cfi_def_cfa_offset 8
 770              		@ sp needed
 771 0062 30BC     		pop	{r4, r5}
 772              		.cfi_restore 5
 773              		.cfi_restore 4
 774              		.cfi_def_cfa_offset 0
 775 0064 7047     		bx	lr
 776              	.L28:
 777 0066 00BF     		.align	2
 778              	.L27:
 779 0068 00000000 		.word	pid1
 780 006c 00000000 		.word	setpoint
 781 0070 00000000 		.word	deltaTms
 782 0074 00000000 		.word	dac_offset
ARM GAS  C:\Users\Luggi\AppData\Local\Temp\cc5AwCUD.s 			page 45


 783 0078 00000000 		.word	photodiode_power_coefficients
 784 007c 00000000 		.word	debug
 785 0080 00000000 		.word	temp_limit
 786              		.cfi_endproc
 787              	.LFE2:
 788              		.size	read_settings, .-read_settings
 789              		.text
 790              	.Letext0:
 791              		.file 2 "c:\\program files\\cypress\\psoc creator\\4.0\\psoc creator\\import\\gnu\\arm\\4.9.3\\arm
 792              		.file 3 "c:\\program files\\cypress\\psoc creator\\4.0\\psoc creator\\import\\gnu\\arm\\4.9.3\\arm
 793              		.file 4 "Generated_Source\\PSoC5/cytypes.h"
 794              		.file 5 "pid.h"
 795              		.file 6 "Generated_Source\\PSoC5/EEPROM_1.h"