ARM GAS  C:\Users\Luggi\AppData\Local\Temp\ccU0ribR.s 			page 1


   1              		.syntax unified
   2              		.cpu cortex-m3
   3              		.fpu softvfp
   4              		.eabi_attribute 20, 1
   5              		.eabi_attribute 21, 1
   6              		.eabi_attribute 23, 3
   7              		.eabi_attribute 24, 1
   8              		.eabi_attribute 25, 1
   9              		.eabi_attribute 26, 1
  10              		.eabi_attribute 30, 1
  11              		.eabi_attribute 34, 1
  12              		.eabi_attribute 18, 4
  13              		.thumb
  14              		.file	"Fault_isr.c"
  15              		.text
  16              	.Ltext0:
  17              		.section	.gnu.lto_.profile.53c7a60b,"",%progbits
  18 0000 789C6366 		.ascii	"x\234cf```e\200\000F\206\211\214Z\000\002i\000\306"
  18      60606065 
  18      80004686 
  18      898C5A00 
  18      026900C6 
  19              		.text
  20              		.section	.gnu.lto_.inline.53c7a60b,"",%progbits
  21 0000 789C858E 		.ascii	"x\234\205\216\301\015\200 \014E?PPQ\342\321\243\013"
  21      C10D8020 
  21      0C453F50 
  21      5051E2D1 
  21      A30B
  22 0012 78760C67 		.ascii	"xv\014gs\004Fr$[H\214Z\0239\264\315\343A\277\303\367"
  22      73044672 
  22      245B488C 
  22      5A1339B4 
  22      CDE341BF 
  23 0028 594DED09 		.ascii	"YM\355\011p\326\300\362\030\362,\015\006\236\230P\236"
  23      70D6C0F2 
  23      18F22C0D 
  23      069E9850 
  23      9E
  24 0039 2F643572 		.ascii	"/d5r\202\014\313\374\376\030+\346\201\344\216\264\356"
  24      820CCBFC 
  24      FE182BE6 
  24      81E48EB4 
  24      EE
  25 004a 418ED1A5 		.ascii	"A\216\321\245\312>m5\332j\321-\257|Q\022\365\022\264"
  25      CA3E6D35 
  25      DA6AD12D 
  25      AF7C5112 
  25      F512B4
  26 005d D602BA5F 		.ascii	"\326\002\272_o\337\012\211\010\323S\274\3752\350\000"
  26      6FDF0A89 
  26      08D353BC 
  26      FD32E800 
  27 006d 49239CD0 		.ascii	"I#\234\320\037\025c"
  27      1F1563
  28              		.text
  29              		.section	.gnu.lto_.jmpfuncs.53c7a60b,"",%progbits
ARM GAS  C:\Users\Luggi\AppData\Local\Temp\ccU0ribR.s 			page 2


  30 0000 789C6366 		.ascii	"x\234cf\300\016&Bi^ f\004\202z&\006\006f\020\315\302"
  30      C00E2642 
  30      695E2066 
  30      04827A26 
  30      06066610 
  31 0016 C0C0CAC0 		.ascii	"\300\300\312\300\300\306\300\300\316\300\300\001\222"
  31      C0C6C0C0 
  31      CEC0C001 
  31      92
  32 0023 64FAC8C4 		.ascii	"d\372\310\304\370}\361\203\327\214/\230~2\001E\031\227"
  32      F87DF183 
  32      D78C2F98 
  32      7E320145 
  32      1997
  33 0035 334A4144 		.ascii	"3JAD\347]\356[\307T\373\273\241\243\201\343'\023\343"
  33      E75DEE5B 
  33      C754FBBB 
  33      A1A381E3 
  33      2713E3
  34 0048 672690EA 		.ascii	"g&\220\352\025\214\265\014\014\234 \023\201j J\231\313"
  34      158CB50C 
  34      0C9C2013 
  34      816A204A 
  34      99CB
  35 005a 1980525C 		.ascii	"\031\200R\\\014\33051\002\305W\2024\361@\034\003\000"
  35      0CD83531 
  35      02C55782 
  35      34F1401C 
  35      0300
  36 006c 01121DD7 		.ascii	"\001\022\035\327"
  37              		.text
  38              		.section	.gnu.lto_.pureconst.53c7a60b,"",%progbits
  39 0000 789C6366 		.ascii	"x\234cf``\220f\200\000^\006\006F)&Vf)\026)V)6)v)\016"
  39      60609066 
  39      80005E06 
  39      06462926 
  39      56662916 
  40 001c 094E092E 		.ascii	"\011N\011.\011\036)^)\000\025G\001\231"
  40      091E295E 
  40      29001547 
  40      0199
  41              		.text
  42              		.section	.gnu.lto_Fault_isr_Interrupt.53c7a60b,"",%progbits
  43 0000 789C6366 		.ascii	"x\234cf\300\004R@\\\002\304\252@\314\310\314\300\310"
  43      C0045240 
  43      5C02C4AA 
  43      40CCC8CC 
  43      C0C8
  44 0012 34E11C03 		.ascii	"4\341\034\003C#\007\023##\210\301\300\310P\317\304X"
  44      43230713 
  44      232388C1 
  44      C0C850CF 
  44      C458
  45 0024 CFF892E9 		.ascii	"\317\370\222\351#\023\343\204\003\253gp\253/mhh\370"
  45      2313E384 
  45      03AB6770 
  45      AB2F6D68 
ARM GAS  C:\Users\Luggi\AppData\Local\Temp\ccU0ribR.s 			page 3


  45      68F8
  46 0036 D07493A5 		.ascii	"\320t\223\245U\342'\023\003\303g&\2101\214\313\031\325"
  46      55E22713 
  46      03C36726 
  46      88318CCB 
  46      19D5
  47 0048 19806A3E 		.ascii	"\031\200j>\266\374\275\316\315\326\002T#\000\221c\\"
  47      B6FCBDCE 
  47      CDD60254 
  47      23009163 
  47      5C
  48 0059 C1C8C608 		.ascii	"\301\310\306\010\244\327\013\035h\370\377\377\362\223"
  48      A4D70B1D 
  48      68F8FFFF 
  48      F293
  49 0067 435BB881 		.ascii	"C[\270\201\302O\200\030d\376S&&\020\315|\217\221\021"
  49      C24F8018 
  49      64FE5326 
  49      2610CD7C 
  49      8F9111
  50 007a A41064D2 		.ascii	"\244\020d\322\023&F\220\020P\201\262{j^jQbIjJ|p~iQr"
  50      13264690 
  50      105081B2 
  50      7B6A5E6A 
  50      5162496A 
  51 0095 6A4C4070 		.ascii	"jL@p\276\263i\214[biNI|fq\221^2\003\000\244s6#"
  51      BEB3698C 
  51      5B62694E 
  51      497C6671 
  51      915E3203 
  52              		.text
  53              		.section	.gnu.lto_Fault_isr_SetVector.53c7a60b,"",%progbits
  54 0000 789C6590 		.ascii	"x\234e\220OhSA\020\306\367\233}\215\205\204 \236J.\012"
  54      4F685341 
  54      10C6F79B 
  54      7D8D8584 
  54      209E4A2E 
  55 0015 A1E62004 		.ascii	"\241\346 \004z\350\315C\241\2407\021*\242P(\317\344"
  55      7AE8CD43 
  55      A1A03711 
  55      2AA25028 
  55      CFE4
  56 0027 1D846AE0 		.ascii	"\035\204j\340%=w\023#5z\260(HQ\212\224V\374\023mm\304"
  56      253D7713 
  56      23357AB0 
  56      2848518A 
  56      9456FC13 
  57 003e 43BDF890 		.ascii	"C\275\370\220\"\201V\203h\255\366\240\225\246\022\025"
  57      22815683 
  57      68ADF6A0 
  57      95A61215 
  58 004e 5A4B8A25 		.ascii	"ZK\212%\202\2443/^\304\205ew\206\371~\363\315h\365\377"
  58      82A4332F 
  58      5EC48565 
  58      7786F97E 
  58      F3CD68F5 
  59 0063 89F02D43 		.ascii	"\211\360-C\251\303\374B+\320\350k\245\262\355\004\310"
ARM GAS  C:\Users\Luggi\AppData\Local\Temp\ccU0ribR.s 			page 4


  59      A9C3FC42 
  59      2BD0E86B 
  59      A5B2ED04 
  59      C8
  60 0074 47410D13 		.ascii	"GA\015\023\206\361\215\266\010\243^q,\030\273c\214\371"
  60      86F18DB6 
  60      08A35E71 
  60      2C18BB63 
  60      8CF9
  61 0086 99AB775C 		.ascii	"\231\253w\\\354h\220Rujap\0271)\371\361\361jH\037\204"
  61      EC689052 
  61      756A6170 
  61      173129F9 
  61      F1F16A48 
  62 009c E2FFDCF4 		.ascii	"\342\377\334\364\366\253`\215\032\204\003\022>\273V"
  62      F6AB608D 
  62      1A840312 
  62      3EBB56
  63 00ab 1E0B4848 		.ascii	"\036\013HH\226\204\337\013K/t\347\24419\257R2=V\203"
  63      9684DF0B 
  63      4B2F74E7 
  63      A43139AF 
  63      52323D56 
  64 00c0 34EE4133 		.ascii	"4\356A3\017\367\021\301\003D\024\247\024\212\350\224"
  64      0FF711C1 
  64      034414A7 
  64      148AE894 
  65 00d0 F2A75F6A 		.ascii	"\362\247_jEK\307}\360fqb\311\212N\260t\365\346\310B"
  65      454BC77D 
  65      F0667162 
  65      C98A4EB0 
  65      74F5E6C8 
  66 00e5 C8944D7E 		.ascii	"\310\224M~\265\331\334\337 \013\017\377%\264\016K\266"
  66      B5D9DCDF 
  66      200B0FFF 
  66      25B40E4B 
  66      B6
  67 00f6 F27F9683 		.ascii	"\362\177\226\203\201<[\337\213G\210\266lc\032\001\236"
  67      813C5BDF 
  67      8B4788B6 
  67      6C631A01 
  67      9E
  68 0107 1C9299D9 		.ascii	"\034\222\231\331\347\231f\263\276x\275\026\323mL\340"
  68      E79966B3 
  68      BE78BD16 
  68      D36D4CE0 
  69 0117 9486DF5C 		.ascii	"\224\206\337\\U\271Vv\261N$\257^A\356\327\345\257s\247"
  69      55B95676 
  69      B14E24AF 
  69      5E41EED7 
  69      E5AF73A7 
  70 012b 44BE43B2 		.ascii	"D\276C\262\230\322\374\225\021\222\321\332.\255\\0a"
  70      98D2FC95 
  70      1192D1DA 
  70      2EAD5C30 
  70      61
  71 013c 69F8B95A 		.ascii	"i\370\271Zy\323\356\247\374\376\357\326\012\033\241"
ARM GAS  C:\Users\Luggi\AppData\Local\Temp\ccU0ribR.s 			page 5


  71      79D3EEA7 
  71      FCFEEFD6 
  71      0A1BA1
  72 014b 71DCCA1A 		.ascii	"q\334\312\032\343\305\305\350\014;|,\0161\213q\250\367"
  72      E3C5C5E8 
  72      0C3B7C2C 
  72      0E318B71 
  72      A8F7
  73 015d C899D3BE 		.ascii	"\310\231\323\276\037n\314P\305Mn\314V\336vI\216\365"
  73      1F6ECC50 
  73      C54D6ECC 
  73      56DE7649 
  73      8EF5
  74 016f B7970BBF 		.ascii	"\267\227\013\277\303\202\263z\004\367\362\303\324\202"
  74      C382B37A 
  74      04F7F2C3 
  74      D482
  75 017d F5177788 		.ascii	"\365\027w\210\327\304\012\224|\332\023\246\355\360\336"
  75      D7C40A94 
  75      7CDA13A6 
  75      EDF0DE
  76 018c 3E21EB3D 		.ascii	">!\353=?&j\331@\225 \326y\220\350Q\347\274\343\332\031"
  76      3F266AD9 
  76      409520D6 
  76      7990E851 
  76      E7BCE3DA 
  77 01a1 2739D097 		.ascii	"'9\320\227\032r\023N\377\361\276Tow\377\021{h03p6\355"
  77      1A72134E 
  77      FFF1BE54 
  77      6F77FF11 
  77      7B683033 
  78 01b8 C6136A8F 		.ascii	"\306\023j\217\235L\272N:\035v\355s'\235D&\345\236\260"
  78      9D4CBA4E 
  78      3A1D76ED 
  78      73279D44 
  78      26E59EB0 
  79 01cc CF0C3ABB 		.ascii	"\317\014:\273+h\270^"
  79      2B68B85E 
  80              		.text
  81              		.section	.gnu.lto_Fault_isr_GetVector.53c7a60b,"",%progbits
  82 0000 789C654F 		.ascii	"x\234eOOH\223a\030\177~\357\3731V\312\220\216\273\030"
  82      4F489361 
  82      187F7EEF 
  82      FB3156CA 
  82      908EBB18 
  83 0014 0CF2B68B 		.ascii	"\014\362\266\213z\027\002\273\006\013Q\020\344k~\207"
  83      7A1702BB 
  83      060B5110 
  83      E46B7E87 
  84 0024 6039F8DA 		.ascii	"`9\370\332\240\233\257s`\346E\264\303D\304\006E\177"
  84      A09BAF73 
  84      60E645B4 
  84      C344C406 
  84      457F
  85 0036 66B3820E 		.ascii	"f\263\202\016\211\007\017\"\322P\011\312\211\207T\\"
  85      89070F22 
  85      D25009CA 
ARM GAS  C:\Users\Luggi\AppData\Local\Temp\ccU0ribR.s 			page 6


  85      8987545C 
  86 0046 312FD658 		.ascii	"1/\326X,&\304\347\363|v\221\036xy\336\347y\337\337?"
  86      2C26C4E7 
  86      F37C7691 
  86      1E7879DE 
  86      E779DFDF 
  87 005b 4DFF5798 		.ascii	"M\377W\230\317,\210\272\270C\023\324\3646\321XP\001"
  87      CF2C88BA 
  87      B84313D4 
  87      F436D158 
  87      5001
  88 006d 7221D0A8 		.ascii	"r!\320\250\302(NTM\341c\361\367VKU5\025]'\036Wf6s\001"
  88      C2284E54 
  88      4DE163F1 
  88      F7564B55 
  88      35155D27 
  89 0087 1961C958 		.ascii	"\031a\311X\336\315\225\257t<7&\363+\323|8\367\344)\277"
  89      DECD95AF 
  89      743C3726 
  89      F32BD37C 
  89      38F7E429 
  90 009c 28AA2BC2 		.ascii	"(\252+\302\013\204\361\022\"\204W\350\220\277\037\216"
  90      0B84F112 
  90      228457E8 
  90      90BF1F8E 
  91 00ac AA054BDF 		.ascii	"\252\005K\337\200\334\177\026\362_\255H\236q\207\237"
  91      80DC7F16 
  91      F25FAD48 
  91      9E71879F 
  92 00bc 264AAD66 		.ascii	"&J\255f\323d\017=\257\275\2514^C_\306K1\244\226\375"
  92      D3640F3D 
  92      AFBDA934 
  92      5E435FC6 
  92      4B31A496 
  93 00d1 5B6E0964 		.ascii	"[n\011d\2151m( \"\"\314\275\204\000\347\200l\226\257"
  93      8D316D28 
  93      202222CC 
  93      BD8400E7 
  93      806C96AF 
  94 00e5 AD19CFAB 		.ascii	"\255\031\317\253Wf\253\235\332b\006^i\022;T\341#\301"
  94      5766AB9D 
  94      DA62065E 
  94      69123B54 
  94      E123C1
  95 00f8 BEF3C05D 		.ascii	"\276\363\300]\357#\323x\374c\265_\320\177\224\244|\277"
  95      EF23D378 
  95      FC63B55F 
  95      D07F94A4 
  95      7CBF
  96 010a 3E35A124 		.ascii	">5\241$\226\365h\177\334\204D\357\240\262\3639\350\257"
  96      96F5687F 
  96      DC8444EF 
  96      A0B2F339 
  96      E8AF
  97 011c 7CF92FC7 		.ascii	"|\371/\307\223\247\255\013\230\0373f-*>\337\260\301"
  97      93A7AD0B 
  97      981F3366 
ARM GAS  C:\Users\Luggi\AppData\Local\Temp\ccU0ribR.s 			page 7


  97      2D2A3EDF 
  97      B0C1
  98 012e A218C432 		.ascii	"\242\030\3042\026@\273\310\230\001\337\016\3532)\371"
  98      1640BBC8 
  98      9801DF0E 
  98      EB3229F9 
  99 013e 228DD5AB 		.ascii	"\"\215\325\253\027\"\232)\026\313\223g!a\324=\302\270"
  99      17229A29 
  99      16CB9367 
  99      2161D43D 
  99      C2B8
 100 0150 B1F7AC64 		.ascii	"\261\367\254d]0\006\331&c\360\326\347{'|\337\200\177"
 100      5D3006D9 
 100      2663F0D6 
 100      E77B277C 
 100      DF807F
 101 0163 48920010 		.ascii	"H\222\000\020\343\034#r\313\031q\\;\345\014\017\305"
 101      E31C2372 
 101      CB19715C 
 101      3BE50C0F 
 101      C5
 102 0174 926937EE 		.ascii	"\222i7\356\014\336\216%ov\017\366\332\351Dj\350\336"
 102      0CDE8E25 
 102      6F760FF6 
 102      DAE9446A 
 102      E8DE
 103 0186 03371AA7 		.ascii	"\0037\032\247\220k\337\357s\342\251\244{\307\276\233"
 103      906BDFEF 
 103      73E2A9A4 
 103      7BC7BE9B 
 104 0196 70CE0115 		.ascii	"p\316\001\025p\243\304"
 104      70A3C4
 105              		.text
 106              		.section	.gnu.lto_Fault_isr_SetPriority.53c7a60b,"",%progbits
 107 0000 789C6590 		.ascii	"x\234e\220OHBA\020\306\347\333\247\"\024\022\235\352"
 107      4F484241 
 107      10C6E7DB 
 107      A7221412 
 107      9DEA
 108 0012 5DC52408 		.ascii	"]\305$\010\017A\367 \250k\344U\020\261w\020\"\343\245"
 108      0F41F720 
 108      A86BE455 
 108      10B17710 
 108      22E3A5
 109 0025 4127F7E5 		.ascii	"A'\367\345+\272D\026\021\201x)*\313\376\334\202N=\202"
 109      2BBA4416 
 109      11817829 
 109      2ACBFEDC 
 109      824E3D82 
 110 0039 40828A20 		.ascii	"@\202\212 \020$\254\300\242nI\007\361\0205k\307\026"
 110      1024ACC0 
 110      A26E4907 
 110      F110356B 
 110      C716
 111 004b 869D9DF9 		.ascii	"\206\235\235\371\346\267\337\256F\377\227\3161\010\242"
 111      E6B7DFAE 
 111      46FF97CE 
ARM GAS  C:\Users\Luggi\AppData\Local\Temp\ccU0ribR.s 			page 8


 111      3108A2
 112 005a 10EFD008 		.ascii	"\020\357\320\010\"wKdy\005\240\022\002e\0042\370\020"
 112      22774B64 
 112      7905A012 
 112      02650432 
 112      F810
 113 006c 0D819C53 		.ascii	"\015\201\234S\332\352\010\356J)?\267\327z\027{Z\202"
 113      DAEA08EE 
 113      4A293FB7 
 113      D77A177B 
 113      5A82
 114 007e E84BFC61 		.ascii	"\350K\374a\260\217 K\366.^\316\335Z\037\210\363\212"
 114      B08F204B 
 114      F62E5ECE 
 114      DD5A1F88 
 114      F38A
 115 0090 557AEE0C 		.ascii	"Uz\356\014\354H\271\340\\\237\310a\264\230Y\204\306"
 115      EC48B9E0 
 115      5C9FC861 
 115      B4985984 
 115      C6
 116 00a1 1318D0D1 		.ascii	"\023\030\320\321\257\023\027\010\007\010(q\303\376\256"
 116      AF131708 
 116      07082871 
 116      C3FEAE
 117 00b0 74786C66 		.ascii	"txlfw\3751q\010\017\333\242\323nG\376\374|]m\024\375"
 117      77FD3171 
 117      080FDBA2 
 117      D36E47FE 
 117      FC7C5D6D 
 118 00c6 2E37A0F4 		.ascii	".7\240\364\202'YR\347P\036_\371\300\273VE\366q\351\255"
 118      82275952 
 118      E7501E5F 
 118      F9C0BB56 
 118      45F671E9 
 119 00db 3CA7269B 		.ascii	"<\247&\233B4\031*\260j\237\325<\357\242%47\241\004\235"
 119      4234192A 
 119      B06A9FD5 
 119      3CEFA225 
 119      3437A104 
 120 00f0 AAB85C87 		.ascii	"\252\270\\\207\222p\363A.o\372T\323%\313Y\351S>\236"
 120      9270F341 
 120      2E6FFA54 
 120      D325CB59 
 120      E9533E9E 
 121 0104 EA77F7DE 		.ascii	"\352w\367\336v\211\332\266VnlW\001y\313\266\0347Cp\004"
 121      7689DAB6 
 121      566E6C57 
 121      0179CBB6 
 121      1C374370 
 122 0119 1DC78C21 		.ascii	"\035\307\214!\234\240\000\276\206j\260\234\374\204\""
 122      9CA000BE 
 122      866AB09C 
 122      FC8422
 123 0128 AA7FA8F3 		.ascii	"\252\177\250\363\233\330\014[\363\217\031\323\206\031"
 123      9BD80C5B 
 123      F38F19D3 
ARM GAS  C:\Users\Luggi\AppData\Local\Temp\ccU0ribR.s 			page 9


 123      8619
 124 0136 4B1993D1 		.ascii	"K\031\223\321p2m\306\215\310x892\024\031\215\245\247"
 124      70326DC6 
 124      8DC87838 
 124      39321419 
 124      8DA5A7
 125 0149 52D1C4AC 		.ascii	"R\321\304\254\031\212\223w\306L$\315Dj\376\027s\240"
 125      198A9377 
 125      C64C24CD 
 125      446AFE17 
 125      73A0
 126 015b 7A6A     		.ascii	"zj"
 127              		.text
 128              		.section	.gnu.lto_Fault_isr_GetPriority.53c7a60b,"",%progbits
 129 0000 789C658F 		.ascii	"x\234e\217\313+\204a\024\306\317s\276\031M\015\222\225"
 129      CB2B8461 
 129      14C6CF73 
 129      BE194D0D 
 129      9295
 130 0012 66633145 		.ascii	"fc1EJ\263P\376\002\305V)\253\251i\032\263\230\222\321"
 130      4AB350FE 
 130      02C55629 
 130      ABA9691A 
 130      B39892D1 
 131 0026 672CACBC 		.ascii	"g,\254\274c>\222R\026Bi\026\026\356\2675\026&\013)\267"
 131      633E9252 
 131      16426916 
 131      16EEB735 
 131      16260B29 
 132 003b 1851936B 		.ascii	"\030Q\223k\2152\222LD\263\340\363\036c\241\234z;\247"
 132      8D32924C 
 132      44B3E0F3 
 132      1E63A19C 
 132      7A3BA7
 133 004e D3F33CE7 		.ascii	"\323\363<\347\367\032\364\277<\372\265\203\310\247;"
 133      F71AF4BF 
 133      3CFAB583 
 133      C8A73B
 134 005d 0C028F1D 		.ascii	"\014\002\217\035\021\305]\014\310@\240~F?r\234g\034"
 134      11C55D0C 
 134      C840A07E 
 134      463F729C 
 134      671C
 135 006f 6C7CA551 		.ascii	"l|\245Q;\253\324\300\313\300\344\225{\260\252\300D\257"
 135      3BABD4C0 
 135      CBC0E495 
 135      7BB0AAC0 
 135      44AF
 136 0081 4CA8F7A0 		.ascii	"L\250\367\240Nr0\217Z\322\302\271\355\273\015\247Q\003"
 136      4E72308F 
 136      5AD2C2B9 
 136      EDBB0DA7 
 136      5103
 137 0093 99D7535B 		.ascii	"\231\327S[\217e\336\031m\272\335\314\355\272\325\224"
 137      8F65DE19 
 137      6DBADDCC 
 137      EDBAD594 
ARM GAS  C:\Users\Luggi\AppData\Local\Temp\ccU0ribR.s 			page 10


 138 00a3 B26E6DBB 		.ascii	"\262nm\273Z[\261\000\343\257[J\033\362\326\347\205\273"
 138      5A5BB100 
 138      E3AF5B4A 
 138      1BF2D6E7 
 138      85BB
 139 00b5 C4524A55 		.ascii	"\304RJU`\021^9\240\223\227P\242!!\233\365\312\224\262"
 139      60115E39 
 139      A0939750 
 139      A221219B 
 139      F5CA94B2 
 140 00c9 EDD7CBF1 		.ascii	"\355\327\313\361\341\006\207\203\251\300\202-J\312j"
 140      E1068783 
 140      A9C0822D 
 140      4ACA6A
 141 00d8 A950DF33 		.ascii	"\251P\3373K72\330y\037y\336o\025\367\007\313\027\316"
 141      4B3732D8 
 141      791F79DE 
 141      6F15F707 
 141      CB17CE
 142 00eb D4F044F9 		.ascii	"\324\360D\371\003\027\230\325^B\225\313\275\233\354"
 142      031798D5 
 142      5E4295CB 
 142      BD9BEC
 143 00fa F189EB67 		.ascii	"\361\211\353gU<?zh9\222\230\216[(\260\201ex\260\002"
 143      553C3F7A 
 143      68399298 
 143      8E5B28B0 
 143      816578B0 
 144 010f 8D875524 		.ascii	"\215\207U$A\031$\256\207\336P\0144\212\231O\351\351"
 144      411924AE 
 144      87DE500C 
 144      348A994F 
 144      E9E9
 145 0121 CD520970 		.ascii	"\315R\011p8\011kZ{\016\376\341\325LZD\327\210\247\354"
 145      38096B5A 
 145      7B0EFEE1 
 145      D54C5A44 
 145      D788A7EC 
 146 0135 53FEF590 		.ascii	"S\376\365\220`B\360\364=oK\270+l\006c\341\216@[\264"
 146      6042F0F4 
 146      3D6F4BB8 
 146      2B6C0663 
 146      E18E405B 
 147 014a D70C85FD 		.ascii	"\327\014\205\375\255m\321\246F\177s\260\2673\026\210"
 147      AD6DD1A6 
 147      467F73B0 
 147      B7331688 
 148 015a F498BE10 		.ascii	"\364\230\276\020\271\272\315H\324\214\304\372\276\001"
 148      B9BACD48 
 148      D48CC4FA 
 148      BE01
 149 0168 99E2882B 		.ascii	"\231\342\210+"
 150              		.text
 151              		.section	.gnu.lto_Fault_isr_Enable.53c7a60b,"",%progbits
 152 0000 789C6366 		.ascii	"x\234cf\300\004R@|\007\210U\201\230\221\231\201\221"
 152      C0045240 
 152      7C078855 
ARM GAS  C:\Users\Luggi\AppData\Local\Temp\ccU0ribR.s 			page 11


 152      81989199 
 152      8191
 153 0012 69C23906 		.ascii	"i\3029\006\206F\016&FF\020\203\201\221\241\236\211\261"
 153      86460E26 
 153      46461083 
 153      8191A19E 
 153      89B1
 154 0024 9EF125D3 		.ascii	"\236\361%\323G&\306\011\007V\317\340V_\332\320\320\360"
 154      4726C609 
 154      0756CFE0 
 154      565FDAD0 
 154      D0F0
 155 0036 61D35CC9 		.ascii	"a\323\\\311V\211\237L\014\014\237\231 \3060.gTg\000"
 155      56899F4C 
 155      0C0C9F99 
 155      20C6302E 
 155      67546700 
 156 004a AAF9D8F2 		.ascii	"\252\371\330\362\367:7[\013P\215\000D\216q\005#\033"
 156      F73A375B 
 156      0B508D00 
 156      448E7105 
 156      231B
 157 005c 23905E2F 		.ascii	"#\220^/t\240\341\377\377\315\337\246\274\260faf`x\002"
 157      74A0E1FF 
 157      FFCDDFA6 
 157      BCB06661 
 157      66607802 
 158 0070 940359F0 		.ascii	"\224\003Y\360\224\211\011D3\337b<\364a\303\367#\354"
 158      94890944 
 158      33DF623C 
 158      F461C3F7 
 158      23EC
 159 0082 20E54063 		.ascii	" \345@c>\275n\230\313\362\202\351'\023c\303\241\346"
 159      3EBD6E98 
 159      CBF282E9 
 159      271363C3 
 159      A1E6
 160 0094 063E90C9 		.ascii	"\006>\220\311\367\237\234\277\310\001\026b\000q\277"
 160      F79F9CBF 
 160      C8011662 
 160      0071BF
 161 00a3 7C5A3489 		.ascii	"|Z4\211w.\343\354\306\226\306\003\254?\231\230\030W"
 161      772EE3EC 
 161      C696C603 
 161      AC3F9998 
 161      1857
 162 00b5 324A31AE 		.ascii	"2J1\256b\004z\207q5\343\\F\240\212\213\263\2265\363"
 162      62047A87 
 162      7135E35C 
 162      46A08A8B 
 162      B39635F3 
 163 00c9 83340075 		.ascii	"\2034\000u0\256\001\312\334cl<p?\030d\003\310\305O\200"
 163      30AE01CA 
 163      DC636C3C 
 163      703F1864 
 163      03C8C54F 
 164 00de C2409B81 		.ascii	"\302@\233\201\356PvO\315K-J,IM\211\017\316/-JN\215\011"
ARM GAS  C:\Users\Luggi\AppData\Local\Temp\ccU0ribR.s 			page 12


 164      EE50764F 
 164      CD4B2D4A 
 164      2C494D89 
 164      0FCE2F2D 
 165 00f6 08CE7736 		.ascii	"\010\316w6\215qK,\315)\211\317,.\322Kf\000\000A\376"
 165      8D714B2C 
 165      CD2989CF 
 165      2C2ED24B 
 165      66000041 
 166 010b 5F0B     		.ascii	"_\013"
 167              		.text
 168              		.section	.gnu.lto_Fault_isr_GetState.53c7a60b,"",%progbits
 169 0000 789C654F 		.ascii	"x\234eO;H\003A\020\2357w\011\201\340\267\222kE\016!"
 169      3B480341 
 169      109D3777 
 169      0981E0B7 
 169      926B450E 
 170 0015 D8D9D909 		.ascii	"\330\331\331\011\332\012i\003!\304+\0041p&u6\227\023"
 170      DA0A6903 
 170      21C42B04 
 170      31702675 
 170      369713
 171 0028 C54A041B 		.ascii	"\305J\004\033%\215\340_\260\260\262\223\324A\011\026"
 171      258DE05F 
 171      B0B0B293 
 171      D4410916 
 172 0038 6AC0D844 		.ascii	"j\300\330DPlL\"\352\025\032g\023;\027vg\346\315\314"
 172      506C4C22 
 172      EA151A67 
 172      133B1776 
 172      67E6CDCC 
 173 004c 7B6F0DFA 		.ascii	"{o\015\372\177,\271C \032\223\010\203\300\033WD\205"
 173      7F2CB943 
 173      201A9308 
 173      83C01B57 
 173      4485
 174 005e 08033A21 		.ascii	"\010\003:!P\236\221\307\0137\031\225\213\237\033\330"
 174      509E91C7 
 174      0B371995 
 174      8B9F1BD8 
 175 006e 7B4A796F 		.ascii	"{Jyo\336\371Cte$`\2426\023b\026\3065\017\016`\223\014"
 175      DEF94374 
 175      652460A2 
 175      36136216 
 175      C6350F0E 
 176 0085 36FDEFDB 		.ascii	"6\375\357\333h\330WJ\015\352\2764\016\021\026\015:\033"
 176      68D8574A 
 176      0DEABE34 
 176      0E11160D 
 176      3A1B
 177 0097 BE549D4E 		.ascii	"\276T\235N\273\262\265f\207BL\001\213b\300l\222f\242"
 177      BBB2B566 
 177      87424C01 
 177      8B62C06C 
 177      9266A2
 178 00aa 863C5AF4 		.ascii	"\206<Z\364\211YG\243\206\362\307z\375~Jo\177\262v\320"
 178      895947A3 
ARM GAS  C:\Users\Luggi\AppData\Local\Temp\ccU0ribR.s 			page 13


 178      86F2C77A 
 178      FD7E4A6F 
 178      7FB276D0 
 179 00be 7A5525F3 		.ascii	"zU%\363\231\0036T\271\250\372\265\326c\343\272\032\351"
 179      99033654 
 179      B9A8FAB5 
 179      D663E3BA 
 179      1AE9
 180 00d0 42A4CBF7 		.ascii	"B\244\313\367\326\356f_\011;\005\037\001\2338\202\205"
 180      D6EE665F 
 180      093B051F 
 180      019B3882 
 180      85
 181 00e1 6388379C 		.ascii	"c\2107\234\240\004\252\301\273[\215\365\370\014\241"
 181      A004AAC1 
 181      BB5B8DF5 
 181      F80CA1
 182 00f0 14A0F815 		.ascii	"\024\240\370\025\356\325\246@BP\335\336/\016h>\371:"
 182      EED5A640 
 182      4250DDDE 
 182      2F0E683E 
 182      F93A
 183 0102 4E65B50E 		.ascii	"Ne\265\016\374\015t-B[\023\243\243\263\316\222\343\246"
 183      FC0D742D 
 183      425B13A3 
 183      A3B3CE92 
 183      E3A6
 184 0114 B2CE7C32 		.ascii	"\262\316|2\236\311\271i'1\027\317LO&fR\271\305lra\331"
 184      9EC9B969 
 184      273117CF 
 184      4C4F2666 
 184      52B9C56C 
 185 012b 9D48D32F 		.ascii	"\235H\323/j\334k\311"
 185      6ADC6BC9 
 186              		.text
 187              		.section	.gnu.lto_Fault_isr_Disable.53c7a60b,"",%progbits
 188 0000 789C6366 		.ascii	"x\234cf\300\004R@|\007\210U\201\230\221\231\201\221"
 188      C0045240 
 188      7C078855 
 188      81989199 
 188      8191
 189 0012 69C23906 		.ascii	"i\3029\006\206F\016&FF\020\203\201\221\241\236\211\261"
 189      86460E26 
 189      46461083 
 189      8191A19E 
 189      89B1
 190 0024 9EF125D3 		.ascii	"\236\361%\323G&\306\011\007V\317\340V_\332\320\320\360"
 190      4726C609 
 190      0756CFE0 
 190      565FDAD0 
 190      D0F0
 191 0036 E1D276C9 		.ascii	"\341\322v\311V\211\237L\014\014\237\231 \3060.gTg\000"
 191      56899F4C 
 191      0C0C9F99 
 191      20C6302E 
 191      67546700 
 192 004a AAF9D8F2 		.ascii	"\252\371\330\362\367:7[\013P\215\000D\216q\005#\033"
ARM GAS  C:\Users\Luggi\AppData\Local\Temp\ccU0ribR.s 			page 14


 192      F73A375B 
 192      0B508D00 
 192      448E7105 
 192      231B
 193 005c 23905E2F 		.ascii	"#\220^/t\240\341\377\377\315\367\247\2560bef`x\002\224"
 193      74A0E1FF 
 193      FFCDF7A7 
 193      AE306265 
 193      66607802 
 194 0071 0359F094 		.ascii	"\003Y\360\224\211\011D3\337b<\364a\303\223\243\354 "
 194      89094433 
 194      DF623CF4 
 194      61C393A3 
 194      EC20
 195 0083 E5406326 		.ascii	"\345@c&\276o?\313\365\202\351'\023c\303\341\346\006"
 195      BE6F3FCB 
 195      F582E927 
 195      1363C3E1 
 195      E606
 196 0095 3E90C9F7 		.ascii	">\220\311\367\237\234\277\310\001\026b\000q/\2664\374"
 196      9F9CBFC8 
 196      01166200 
 196      712FB634 
 196      FC
 197 00a6 659DCB38 		.ascii	"e\235\3138\273\261\245\361\000\353O&&\306\225\214R\214"
 197      BBB1A5F1 
 197      00EB4F26 
 197      26C6958C 
 197      528C
 198 00b8 AB1881DE 		.ascii	"\253\030\201\336a\\\3158\227\021\244b\326\262f~\220"
 198      615CCD38 
 198      9711A462 
 198      D6B2667E 
 198      90
 199 00c9 06A00EC6 		.ascii	"\006\240\016\3065@\231{\214\215\007&\207\203l\000\271"
 199      3540997B 
 199      8C8D0726 
 199      87836C00 
 199      B9
 200 00da F8095018 		.ascii	"\370\011P\030h3\320\035\312\356\251y\251E\211%\251)"
 200      6833D01D 
 200      CAEEA979 
 200      A9458925 
 200      A929
 201 00ec F1C1F9A5 		.ascii	"\361\301\371\245E\311\2511\001\301\371\316\2461n\211"
 201      45C9A931 
 201      01C1F9CE 
 201      A6316E89 
 202 00fc A53925F1 		.ascii	"\2459%\361\231\305Ez\311\014\000\345W^\036"
 202      99C5457A 
 202      C90C00E5 
 202      575E1E
 203              		.text
 204              		.section	.gnu.lto_Fault_isr_Start.53c7a60b,"",%progbits
 205 0000 789C6D8F 		.ascii	"x\234m\217=K\003A\020\206\347\2353\227@\032\261L+\222"
 205      3D4B0341 
 205      1086E79D 
ARM GAS  C:\Users\Luggi\AppData\Local\Temp\ccU0ribR.s 			page 15


 205      3397401A 
 205      B14C2B92 
 206 0014 CECE5F20 		.ascii	"\316\316_ \304\322@\332@\010\361\012A\014\304\244<r"
 206      C4D240DA 
 206      4008F10A 
 206      410CC4A4 
 206      3C72
 207 0026 87575849 		.ascii	"\207WXIl\304BlD\374\210F\210Z\2736\226\012Z\330\004"
 207      6CC4426C 
 207      44FC8846 
 207      885ABB36 
 207      960A5AD8 
 208 003b B150506C 		.ascii	"\261PPl\014W\310\"\022g\357,\004oa\331\205\367\231g"
 208      0C57C822 
 208      1267EF2C 
 208      046F61D9 
 208      85F79967 
 209 004f 662CFA7F 		.ascii	"f,\372\177rr\347A4%/,\002wn\210\374\014\003\346C\240"
 209      7272E741 
 209      34252F2C 
 209      02776E88 
 209      FC0C03E6 
 210 0065 36A38D37 		.ascii	"6\243\2157\0362:\252\273\225\315\357y\236\367qw\353"
 210      1E323AAA 
 210      BB95CDEF 
 210      799EF771 
 210      77EB
 211 0077 17153413 		.ascii	"\027\0254\023\205\034{\260\217<\0114\014\276\037\262"
 211      851C7BB0 
 211      8F3C0934 
 211      0CBE1FB2 
 212 0087 7620D078 		.ascii	"v \320x\234\341\000\266\370\351tBy\243\321\331\345\325"
 212      9CE100B6 
 212      F8E97442 
 212      79A3D1D9 
 212      E5D5
 213 0099 B96D133D 		.ascii	"\271m\023=Kd\032\2740\233\327\032`Um\\\263\201\215e"
 213      4B641ABC 
 213      309BD71A 
 213      60556D5C 
 213      B3818D65 
 214 00ad E77EBDC7 		.ascii	"\347~\275\307\356\227\267\346e4#d\021\340\020.i\301"
 214      EE97B7E6 
 214      65342364 
 214      11E0102E 
 214      69C1
 215 00bf 0708D4A6 		.ascii	"\007\010\324\246\235HZ\241\344\204#!\377D\261\302\212"
 215      9D485AA1 
 215      E4842321 
 215      FF44B1C2 
 215      8A
 216 00d0 2AD085AB 		.ascii	"*\320\205\253y,\222l'KR\241\344\204\343X\362\271\373"
 216      792C926C 
 216      274B52A1 
 216      E484E358 
 216      F2B9FB
 217 00e3 F48E57D6 		.ascii	"\364\216W\326l\247\011'\310iN\223\031\266\237\\,\215"
ARM GAS  C:\Users\Luggi\AppData\Local\Temp\ccU0ribR.s 			page 16


 217      6CA70927 
 217      C8694E93 
 217      19B69F5C 
 217      2C8D
 218 00f5 5252DCFB 		.ascii	"RR\334\373\235\365\021\276\272(D$\231\245a\226\225\021"
 218      9DF511BE 
 218      BA284424 
 218      99A56196 
 218      9511
 219 0107 27E79C65 		.ascii	"'\347\234e\247Qm:\013\225R\275\325\2509\345b\251>;S"
 219      A7516D3A 
 219      0B9552BD 
 219      D5A839E5 
 219      62A93E3B 
 220 011c 2E545B4B 		.ascii	".T[K\315\312\342Jc\272F?\235'\203g"
 220      CDCAE24A 
 220      63BA463F 
 220      9D278367 
 221              		.text
 222              		.section	.gnu.lto_Fault_isr_StartEx.53c7a60b,"",%progbits
 223 0000 789C6D8F 		.ascii	"x\234m\217M(DQ\024\307\317\377\3341o\030\013YiVJ\303"
 223      4D284451 
 223      14C7CFFF 
 223      DC316F18 
 223      0B596956 
 224 0016 8A9D958D 		.ascii	"\212\235\225\215Rf\253f\253\246\311\274\205\0225\303"
 224      5266AB66 
 224      ABA6C9BC 
 224      851235C3 
 225 0026 522E46B1 		.ascii	"R.F\261\361UjV6\223\214\257\031l\344c\361\262a\303\202"
 225      F1556A56 
 225      36938CAF 
 225      196CE463 
 225      F1B261C3 
 226 003b 84481694 		.ascii	"\204H\026\224\257\005=\245\227\304\271\303\316\334\272"
 226      AF053DA5 
 226      97C4B9C3 
 226      CEDCBA
 227 004a 9D73EEFD 		.ascii	"\235s\356\375\235\377\371\037E\377OH\356\034\210\032"
 227      9DFFF91F 
 227      45FF4F48 
 227      EE1C881A 
 228 005a 25421178 		.ascii	"%B\021x\372\230h8\300\200I\0104\304\030\302#\2771\246"
 228      FA986838 
 228      C0804908 
 228      34C418C2 
 228      23BF31A6 
 229 006e 9D954CB0 		.ascii	"\235\225L\260aAk\375:\262[3V\3431\221\313\2772XD\203"
 229      61416BFD 
 229      3AB25B33 
 229      56E33191 
 229      CBBF3258 
 230 0084 419E2FA7 		.ascii	"A\236/\247*U=H\362\355\374\373Q\360\201=F\255)wf\017"
 230      2A553D48 
 230      F2EDFCFB 
 230      51F0813D 
 230      46AD2977 
ARM GAS  C:\Users\Luggi\AppData\Local\Temp\ccU0ribR.s 			page 17


 231 009a 337E53B2 		.ascii	"3~S\262\317\224O\023g\373*\234\325z\3049\332\324\255"
 231      CF944F13 
 231      67FB2A9C 
 231      D57AC439 
 231      DAD4AD
 232 00ad 3E8F1572 		.ascii	">\217\025rP\242\207%\204\260\214\020\311\023a\005a\203"
 232      50A28725 
 232      84B08C10 
 232      C9136105 
 232      6183
 233 00bf BFA5BFCE 		.ascii	"\277\245\277\316\203\376\264\314\256\372\235\211U\370"
 233      83FEB4CC 
 233      AEFA9D89 
 233      55F8
 234 00cd C53615AA 		.ascii	"\3056\025\252\035\375\375\355\276\314\344Z`)\024y\272"
 234      1DFDFDED 
 234      BECCE45A 
 234      60291479 
 234      BA
 235 00de 13C2D8BF 		.ascii	"\023\302\330\277g6Q]c\324\331:`\323c\304\346O'\363<"
 235      6736515D 
 235      63D4D93A 
 235      60D363C4 
 235      E64F27F3 
 236 00f3 F8A9C775 		.ascii	"\370\251\307u\300c\237\313\242\2035\014\312\3002\272"
 236      C0639FCB 
 236      A283350C 
 236      CAC032BA 
 237 0103 46DAD9B3 		.ascii	"F\332\331\263J\222~W\344\010y!?Xyl\025\341\223\322p"
 237      4A927E57 
 237      E4087921 
 237      3F58796C 
 237      15E193D2 
 238 0118 C015F784 		.ascii	"\300\025\367\204\202\300\362\365\221\275}\206Y\276\334"
 238      82C0F2F5 
 238      91BD7D86 
 238      59BEDC
 239 0127 22AC23E4 		.ascii	"\"\254#\344q\005\031S\027\245\233\305\223O\2327\376"
 239      71051953 
 239      17A59BC5 
 239      934F9A37 
 239      FE
 240 0138 3CDD60D8 		.ascii	"<\335`\330\271\212\024I2\313\301,%V\352\"v\257\235\214"
 240      B98A1449 
 240      32CBC12C 
 240      2556EA22 
 240      76AF9D8C 
 241 014c F7DB8958 		.ascii	"\367\333\211X\264o \331ewvD\373\332\232;\333\343\003"
 241      B46F20D9 
 241      65777644 
 241      FBDA9A3B 
 241      DBE303
 242 015f 3DFDB1EE 		.ascii	"=\375\261\356T\262\251\213\254x\"\221\264S\251\037\\"
 242      54B2A98B 
 242      AC782291 
 242      B453A91F 
 242      5C
ARM GAS  C:\Users\Luggi\AppData\Local\Temp\ccU0ribR.s 			page 18


 243 0170 629E53   		.ascii	"b\236S"
 244              		.text
 245              		.section	.gnu.lto_Fault_isr_Stop.53c7a60b,"",%progbits
 246 0000 789C6366 		.ascii	"x\234cf\300\004R@\374\002\210U\201\230\221\231\201\221"
 246      C0045240 
 246      FC028855 
 246      81989199 
 246      8191
 247 0012 69C23906 		.ascii	"i\3029\006\206F\016&FF\020\203\201\221\241\236\211\261"
 247      86460E26 
 247      46461083 
 247      8191A19E 
 247      89B1
 248 0024 9EF125D3 		.ascii	"\236\361%\323G&\306\011\007V\317\340V_\332\320\320\360"
 248      4726C609 
 248      0756CFE0 
 248      565FDAD0 
 248      D0F0
 249 0036 E1D14589 		.ascii	"\341\321E\211V\211\237L\014\014\237\231 \3060.gTg\000"
 249      56899F4C 
 249      0C0C9F99 
 249      20C6302E 
 249      67546700 
 250 004a AAF9D8F2 		.ascii	"\252\371\330\362\367:7[\013P\215\000D\216q\005#\033"
 250      F73A375B 
 250      0B508D00 
 250      448E7105 
 250      231B
 251 005c 23905E2F 		.ascii	"#\220^/t\240\341\377\377\317\307'\255Pgba`x\002\224"
 251      74A0E1FF 
 251      FFCFC727 
 251      AD506762 
 251      61607802 
 252 0071 0359F094 		.ascii	"\003Y\360\224\211\011D3\337al>\260\371\024\023H5\310"
 252      89094433 
 252      DF616C3E 
 252      B0F91413 
 252      4835C8
 253 0084 987997FB 		.ascii	"\230y\227\373\3261\325\376n\350h\340\370\311\304\370"
 253      D631D5FE 
 253      6EE868E0 
 253      F8C9C4F8 
 254 0094 99096802 		.ascii	"\231\011h\002\343J\306Z\206\237@\345w\030[\016\354\340"
 254      E34AC65A 
 254      869F40E5 
 254      77185B0E 
 254      ECE0
 255 00a6 C2AA92F9 		.ascii	"\302\252\222\3713P\236\201q\025P%\222\024\304\010f\260"
 255      33509E81 
 255      71155025 
 255      9214C408 
 255      66B0
 256 00b8 0EC6D58C 		.ascii	"\016\306\325\214\265?\201\016\270\307\330x`\267\027"
 256      B53F810E 
 256      B8C7D878 
 256      60B717
 257 00c7 588801E4 		.ascii	"X\210\001\344\032F\220+\200z\225\335S\363R\213\022K"
ARM GAS  C:\Users\Luggi\AppData\Local\Temp\ccU0ribR.s 			page 19


 257      1A46902B 
 257      807A95DD 
 257      53F3528B 
 257      124B
 258 00d9 5253E283 		.ascii	"RS\342\203\363K\213\222Sc\002\202\363\235Mc\334\022"
 258      F34B8B92 
 258      53630282 
 258      F39D4D63 
 258      DC12
 259 00eb 4B734AE2 		.ascii	"KsJ\3423\213\213\364\222\031\000\026\\`\014"
 259      338B8BF4 
 259      92190016 
 259      5C600C
 260              		.text
 261              		.section	.gnu.lto_Fault_isr_SetPending.53c7a60b,"",%progbits
 262 0000 789C6366 		.ascii	"x\234cf\300\004R@|\007\210U\201\230\221\231\201\221"
 262      C0045240 
 262      7C078855 
 262      81989199 
 262      8191
 263 0012 69C23906 		.ascii	"i\3029\006\206F\016&FF\020\203\201\221\241\236\211\261"
 263      86460E26 
 263      46461083 
 263      8191A19E 
 263      89B1
 264 0024 9EF125D3 		.ascii	"\236\361%\323G&\306\011\007V\317\340V_\332\320\320\360"
 264      4726C609 
 264      0756CFE0 
 264      565FDAD0 
 264      D0F0
 265 0036 A169BF64 		.ascii	"\241i\277d\253\304O&\006\206\317L\020c\030\2273\252"
 265      ABC44F26 
 265      0686CF4C 
 265      10631897 
 265      33AA
 266 0048 3300D57C 		.ascii	"3\000\325|l\371{\235\233\255\005\250F\000\"\307\270"
 266      6CF97B9D 
 266      9BAD05A8 
 266      460022C7 
 266      B8
 267 0059 82918D11 		.ascii	"\202\221\215\021H\257\027:\320\360\377\377\347?S_\330"
 267      48AF173A 
 267      D0F0FFFF 
 267      E73F535F 
 267      D8
 268 006a B1323330 		.ascii	"\261230<\001\312\201,x\312\304\004\242\231o1\036\372"
 268      3C01CA81 
 268      2C78CAC4 
 268      04A2996F 
 268      311EFA
 269 007d B0E1EF51 		.ascii	"\260\341\357Qv\220r\2401[n\255}\310\361\202\351'\023"
 269      769072A0 
 269      315B6EAD 
 269      7DC8F182 
 269      E92713
 270 0090 63C391E6 		.ascii	"c\303\221\346\006>\220\311\367\237\234\277\010\021b"
 270      063E90C9 
ARM GAS  C:\Users\Luggi\AppData\Local\Temp\ccU0ribR.s 			page 20


 270      F79F9CBF 
 270      081162
 271 009f 0071A736 		.ascii	"\000q\2476\317\372\3101\227qvcK\343\001\326\237LL\214"
 271      CFFAC831 
 271      97717663 
 271      4BE301D6 
 271      9F4C4C8C 
 272 00b3 2B19A518 		.ascii	"+\031\245\030W1\002\275\303\270\232q.#P\305\305Y\313"
 272      573102BD 
 272      C3B89A71 
 272      2E2350C5 
 272      C559CB
 273 00c6 9AF9411A 		.ascii	"\232\371A\032\200:\030\327\000e\35616\036\370\036\016"
 273      803A18D7 
 273      0065EE31 
 273      361EF81E 
 273      0E
 274 00d7 B201E4E2 		.ascii	"\262\001\344\342'@a\240\315@w(\273\247\346\245\026%"
 274      274061A0 
 274      CD407728 
 274      BBA7E6A5 
 274      1625
 275 00e9 96A4A6C4 		.ascii	"\226\244\246\304\007\347\227\026%\247\306\004\004\347"
 275      07E79716 
 275      25A7C604 
 275      04E7
 276 00f7 3B9BC6B8 		.ascii	";\233\306\270%\226\346\224\304g\026\027\351%3\000\000"
 276      2596E694 
 276      C4671617 
 276      E9253300 
 276      00
 277 0108 543F5F17 		.ascii	"T?_\027"
 278              		.text
 279              		.section	.gnu.lto_Fault_isr_ClearPending.53c7a60b,"",%progbits
 280 0000 789C6366 		.ascii	"x\234cf\300\004R@|\007\210U\201\230\221\231\201\221"
 280      C0045240 
 280      7C078855 
 280      81989199 
 280      8191
 281 0012 69C23906 		.ascii	"i\3029\006\206F\016&FF\020\203\201\221\241\236\211\261"
 281      86460E26 
 281      46461083 
 281      8191A19E 
 281      89B1
 282 0024 9EF125D3 		.ascii	"\236\361%\323G&\306\011\007V\317\340V_\332\320\320\360"
 282      4726C609 
 282      0756CFE0 
 282      565FDAD0 
 282      D0F0
 283 0036 61D255C9 		.ascii	"a\322U\311V\211\237L\014\014\237\231 \3060.gTg\000\252"
 283      56899F4C 
 283      0C0C9F99 
 283      20C6302E 
 283      67546700 
 284 004b F9D8F2F7 		.ascii	"\371\330\362\367:7[\013P\215\000D\216q\005#\033#\220"
 284      3A375B0B 
 284      508D0044 
ARM GAS  C:\Users\Luggi\AppData\Local\Temp\ccU0ribR.s 			page 21


 284      8E710523 
 284      1B2390
 285 005e 5E2F74A0 		.ascii	"^/t\240\341\377\377\315W\247uh\263130<\001\312\201,"
 285      E1FFFFCD 
 285      57A77568 
 285      B3313330 
 285      3C01CA81 
 286 0073 78CAC404 		.ascii	"x\312\304\004\242\231o1\036\372\360\341\3521v\220r\240"
 286      A2996F31 
 286      1EFAF0E1 
 286      EA317690 
 286      72A0
 287 0085 317D93E6 		.ascii	"1}\223\346\266\362\276`\372\311\304\330p\264\271\201"
 287      B6F2BE60 
 287      FAC9C4D8 
 287      70B4B981 
 288 0095 0F64F2FD 		.ascii	"\017d\362\375'\347/r\200\205\030@\3349\0353v\263\317"
 288      27E72F72 
 288      80851840 
 288      DC391D33 
 288      76B3CF
 289 00a8 659CDDD8 		.ascii	"e\234\335\330\322x\200\365'\023\023\343JF)\306U\214"
 289      D27880F5 
 289      271313E3 
 289      4A4629C6 
 289      558C
 290 00ba 40EF30AE 		.ascii	"@\3570\256f\234\313\010Tqq\326\262f~\220\006\240\016"
 290      669CCB08 
 290      547171D6 
 290      B2667E90 
 290      06A00E
 291 00cd C6354099 		.ascii	"\3065@\231{\214\215\007nF\201l\000\271\370\011P\030"
 291      7B8C8D07 
 291      6E46816C 
 291      00B9F809 
 291      5018
 292 00df 6833D01D 		.ascii	"h3\320\035\312\356\251y\251E\211%\251)\361\301\371\245"
 292      CAEEA979 
 292      A9458925 
 292      A929F1C1 
 292      F9A5
 293 00f1 45C9A931 		.ascii	"E\311\2511\001\301\371\316\2461n\211\2459%\361\231\305"
 293      01C1F9CE 
 293      A6316E89 
 293      A53925F1 
 293      99C5
 294 0103 457AC90C 		.ascii	"Ez\311\014\000]6]b"
 294      005D365D 
 294      62
 295              		.text
 296              		.section	.gnu.lto_.symbol_nodes.53c7a60b,"",%progbits
 297 0000 789C55CA 		.ascii	"x\234U\312\301\015\3020\014\205\341\347\270i\342\264"
 297      C10DC230 
 297      0C85E1E7 
 297      B869E2B4 
 298 0010 1D86095F 		.ascii	"\035\206\011_\305\211#'\316\210\023s0\0003\000\203 "
 298      C5892327 
ARM GAS  C:\Users\Luggi\AppData\Local\Temp\ccU0ribR.s 			page 22


 298      CE881373 
 298      30003300 
 298      8320
 299 0022 A22642B5 		.ascii	"\242&B\265/O\237~+\200\203\240]P\002\347'@\342r\317"
 299      2F4F9F7E 
 299      2B8083A0 
 299      5D5002E7 
 299      2740E272 
 300 0037 0803C3DF 		.ascii	"\010\003\303\337\327\352Hu\03698'F\347\314\321\331\230"
 300      D7EA4875 
 300      1E393827 
 300      46E7CCD1 
 300      D998
 301 0049 9C0BB333 		.ascii	"\234\013\2633h\316\302\342\0348\355-\013\245\031\353"
 301      68CEC2E2 
 301      1C38ED2D 
 301      0BA519EB 
 302 0059 A9E689B3 		.ascii	"\251\346\211\263{\237\271\354\2559\341\366\372\212f"
 302      7B9FB9EC 
 302      AD39E1F6 
 302      FA8A66
 303 0068 C1635BC5 		.ascii	"\301c[\305g\333\210\343\273\256\365n\275[\357\326{\351"
 303      67DB88E3 
 303      BBAEF56E 
 303      BD5BEFD6 
 303      7BE9
 304 007a BDB48E1F 		.ascii	"\275\264\216\037\257\376T\012"
 304      AFFE540A 
 305              		.text
 306              		.section	.gnu.lto_.refs.53c7a60b,"",%progbits
 307 0000 789C6366 		.ascii	"x\234cf``\340f\200\000F\016&\006&F.&n&\006\000\002\015"
 307      6060E066 
 307      8000460E 
 307      26062646 
 307      2E266E26 
 308 0018 0036     		.ascii	"\0006"
 309              		.text
 310              		.section	.gnu.lto_.decls.53c7a60b,"",%progbits
 311 0000 789C8D56 		.ascii	"x\234\215VmLSW\030\276\247\247\224R\012\3526q\361\027"
 311      6D4C5357 
 311      18BEA7A7 
 311      94520AEA 
 311      3671F117 
 312 0014 6409C912 		.ascii	"d\011\311\022\343\022\315\022\377\315\315\317\315d!"
 312      E312CD12 
 312      FFCDCDCF 
 312      CD6421
 313 0023 21DB1F4D 		.ascii	"!\333\037M\014\203;GB\212)%\031\377\356\370\230L\011"
 313      0C833B47 
 313      428A2925 
 313      19FFEEF8 
 313      984C09
 314 0036 3244E724 		.ascii	"2D\347$S6Q\007\212 _Z\020, \322R\345C\3127jA\276\014"
 314      53365107 
 314      8A205F5A 
 314      102C20D2 
 314      52E543CA 
ARM GAS  C:\Users\Luggi\AppData\Local\Temp\ccU0ribR.s 			page 23


 315 004f 53D9E250 		.ascii	"S\331\342P\206\322\275\347\343\332s\261\2507y\333\336"
 315      86D2BDE7 
 315      E3DA73B1 
 315      A83779DB 
 315      DE
 316 0060 B7CFFB3C 		.ascii	"\267\317\373<\357\373\234sn\213%IJ\300\222\344\203\253"
 316      EFFB9C73 
 316      6E8B2549 
 316      4AC092E4 
 316      83AB
 317 0072 DE28490A 		.ascii	"\336(I\012\222\244p\310\305@\350 \" \316K\354\"\371"
 317      92A470C8 
 317      C540E820 
 317      2220CE4B 
 317      EC22F9
 318 0085 32887288 		.ascii	"2\210r\210Z\010;D3D+D\033\204\013\302\015q\013\242\023"
 318      5A083B44 
 318      33442B44 
 318      1B840BC2 
 318      0D710BA2 
 319 009a A21BA207 		.ascii	"\242\033\242\007\242Wz\365\"<\210\353H\374sY\000\034"
 319      A2577AF5 
 319      223C88EB 
 319      48FC7359 
 319      001C
 320 00ac D131701C 		.ascii	"\3211p\034\3217CTB\364A\364\013\265\265\001jI\177Ao"
 320      D1374354 
 320      42F441F4 
 320      0BB5B501 
 320      6A497F41 
 321 00c1 A8B307A8 		.ascii	"\250\263\007\250k\346uD\263\201{0\0041\"\3245\007\250"
 321      6BE67544 
 321      B3817B30 
 321      043122D4 
 321      3507A8
 322 00d4 6BE5756A 		.ascii	"k\345uj\315\010\257\373B\250k\015PG\274\303\\o\022b"
 322      CD08AFFB 
 322      42A86B0D 
 322      5047BCC3 
 322      5C6F1262 
 323 00e8 42C0B705 		.ascii	"B\300\267\005\300\273\004\235(\256\265\264\316\025\240"
 323      C0BB049D 
 323      28AEB5B4 
 323      CE15A0
 324 00f7 CEFD1A1D 		.ascii	"\316\375\032\035w\000<YG#\307\223=P\0021\005Q\0151\315"
 324      77003C59 
 324      4723C793 
 324      3D500231 
 324      05510D31 
 325 010c 751D1C6B 		.ascii	"u\035\034k\340x\302C\326\202\254e\3632\375\223\275\021"
 325      E078C243 
 325      D682AC65 
 325      F332FD93 
 325      BD11
 326 011e 2ABDBAA6 		.ascii	"*\275\272\246o\322\010\342\265\252\306r\374\335\222"
 326      6FD208E2 
 326      B5AAC672 
ARM GAS  C:\Users\Luggi\AppData\Local\Temp\ccU0ribR.s 			page 24


 326      FCDD92
 327 012d 7FFD9672 		.ascii	"\177\375\226r\222K\3171*Oy\000\016\262o\227\363\252"
 327      924BCF31 
 327      2A4F7900 
 327      0EB26F97 
 327      F3AA
 328 013f 2700BEF7 		.ascii	"'\000\276\3675\370@\373\377o\035\262_|r+tZ\207\302M"
 328      35F840FB 
 328      FF6F1DB2 
 328      5F7C722B 
 328      745A87C2 
 329 0154 91E4B62E 		.ascii	"\221\344\266.\337y\334\000\267f\223\236\334\326/\214"
 329      DF79DC00 
 329      B766939E 
 329      DCD62F8C 
 330 0164 79F46B8E 		.ascii	"y\364k\216*p\345e(+\365(&\002\235Ck\321\237h-\260\226"
 330      2A70E565 
 330      282BF528 
 330      26029D43 
 330      6BD19F68 
 331 017b A035F0BA 		.ascii	"\2405\360\272[\317\230N\037\037\365\230\326\225\002"
 331      5BCF984E 
 331      1F1FF598 
 331      D69502
 332 018a 345B71AC 		.ascii	"4[q\254\364+\224\317u\225\206\232\017*J:\341\010\331"
 332      F42B94CF 
 332      7595869A 
 332      0F2A4A3A 
 332      E108D9
 333 019d 49CA0492 		.ascii	"I\312\004\222\363\310\214J\321:\211}\004\274\2531\353"
 333      F3C88C4A 
 333      D13A897D 
 333      04BCAB31 
 333      EB
 334 01ae 1F330E41 		.ascii	"\0373\016A\244\366XN\335@h\344Ie\266b\266!o\327\257"
 334      A4F6584E 
 334      DD4068E4 
 334      4965B662 
 334      B6216FD7 
 335 01c3 4A51BAB2 		.ascii	"JQ\272\262\350\363!*\215. \314+%\362\231MZ\206\"\241"
 335      E8F3212A 
 335      8D2E20CC 
 335      2B25F299 
 335      4D5A8622 
 336 01d8 AEF748BD 		.ascii	"\256\367H\275\023\343O)\307\260\322\340\014\007\016"
 336      13E34F29 
 336      C7B0D2E0 
 336      0C070E
 337 01e7 AF523458 		.ascii	"\257R4X\251|\226\251<\367\3710%\270(\020\\T\011\312"
 337      A97C96A9 
 337      3CF7F930 
 337      25B82810 
 337      5C5409CA 
 338 01fb 2981DD59 		.ascii	")\201\335Y3\206p,!\320)\217\272\012\215(\332\\\014\243"
 338      3386702C 
 338      21D0298F 
 338      BA0A8D28 
ARM GAS  C:\Users\Luggi\AppData\Local\Temp\ccU0ribR.s 			page 25


 338      DA5C0CA3 
 339 020f CD3A5BA6 		.ascii	"\315:[\246\314e\212bD\225\320w\305K\002\322;\233x\231"
 339      CC658A62 
 339      4495D077 
 339      C54B02D2 
 339      3B9B7899 
 340 0223 41D12514 		.ascii	"A\321%\024-\314\012\022\027f\246K\202\364\360x\243T"
 340      2DCC0A12 
 340      1766A64B 
 340      82F4F078 
 340      A354
 341 0235 BBA9DF53 		.ascii	"\273\251\337S\367\353\036\007-\353w5\365\273\012q\303"
 341      F7EB1E07 
 341      2DEB7735 
 341      F5BB0A71 
 341      C3
 342 0246 9F2D8E4F 		.ascii	"\237-\216O\207\343tD\247,\236\312r\031\311\224\340T"
 342      87E37444 
 342      A72C9ECA 
 342      7219C994 
 342      E054
 343 0258 452E16AC 		.ascii	"E.\026\254\202*T#LZ\243NZK'\035\313P\206CEI\322\215"
 343      822A5423 
 343      4C5AA34E 
 343      5A4B271D 
 343      CB508643 
 344 0270 5FF3B266 		.ascii	"_\363\262f\215K\306N4\206\341cL\362\214\317{S\007\222"
 344      8D4BC64E 
 344      3486E163 
 344      4CF28CCF 
 344      7B530792 
 345 0284 45155E67 		.ascii	"E\025^g[\233Yq*\016\237\357\023#)AW\004\301+\252\240"
 345      5B9B5971 
 345      2A0E9FEF 
 345      13232941 
 345      5704C12B 
 346 029a 9D0AF65D 		.ascii	"\235\012\366];p\300\210K\031\307\017g\353s\202a\277"
 346      3B70C088 
 346      4B19C70F 
 346      67EB7382 
 346      61BF
 347 02ac 4598287F 		.ascii	"E\230(\177\256\373D\023\246\267>j\375\340`\301<F\246"
 347      AEFB4413 
 347      A6B73E6A 
 347      FDE060C1 
 347      3C46A6
 348 02bf E86C62EA 		.ascii	"\350lb\352l\276\202\337\227\320\272\265\350C\360\263"
 348      6CBE82DF 
 348      97D0BAB5 
 348      E843F0B3 
 349 02cf 11FC8C30 		.ascii	"\021\374\2140Q\021T\017\355^\205v\371\012\225\356\312"
 349      5111540F 
 349      ED5E8576 
 349      F90A95EE 
 349      CA
 350 02e0 5036A306 		.ascii	"P6\243\006dBu\376\005\"\012|G\346e5\345\351\251\363"
 350      644275FE 
ARM GAS  C:\Users\Luggi\AppData\Local\Temp\ccU0ribR.s 			page 26


 350      05220A7C 
 350      47E66535 
 350      E5E9A9F3 
 351 02f4 04C39CFF 		.ascii	"\004\303\234\377\3277zF\267\254\363\016\352\3025\325"
 351      D7377A46 
 351      B7ACF30E 
 351      EAC235D5 
 352 0304 F91F9B32 		.ascii	"\371\037\2332\0271\256`#\024T\316\377\245\343\316\027"
 352      1731AE60 
 352      231454CE 
 352      FFA5E3CE 
 352      17
 353 0315 E48BCE43 		.ascii	"\344\213\316C\025j\022\214hR\215h\246F\374\224Y\201"
 353      156A128C 
 353      68528D68 
 353      A646FC94 
 353      5981
 354 0327 4545D28C 		.ascii	"EE\322\214_\262Ec\374\203sg\2070\276\301\024\237N\333"
 354      5FB24563 
 354      FC837367 
 354      8730BEC1 
 354      149F4EDB 
 355 033b B733DFAF 		.ascii	"\2673\337\257<\220\035lC\323\002t]P\273\256\252\265"
 355      3C901D6C 
 355      43D30274 
 355      5D50BBAE 
 355      AAB5
 356 034d 52356FCE 		.ascii	"R5o\316\302\251`<\302\030\032\263\353k1\355\331;\343"
 356      C2A9603C 
 356      C2181AB3 
 356      EB6B31ED 
 356      D93BE3
 357 0360 F253900D 		.ascii	"\362S\220\015{C\240\270\241R\264Q\212\206\236;^\214"
 357      7B43A0B8 
 357      A152B451 
 357      8A869E3B 
 357      5E8C
 358 0372 1F320A77 		.ascii	"\0372\012w\326\263L\003\353\342\370\214\266\013\247"
 358      D6B34C03 
 358      EBE2F88C 
 358      B60BA7
 359 0381 40E15429 		.ascii	"@\341T)\\\224\242\377\367\027\207\364X\321Q\212\361"
 359      5C94A2FF 
 359      F71787F4 
 359      58D1518A 
 359      F1
 360 0392 6EDF1113 		.ascii	"n\337\021\023\353\242\301\255\355\242]\240hW)\334\224"
 360      EBA2C1AD 
 360      EDA25DA0 
 360      685729DC 
 360      94
 361 03a3 626E36F7 		.ascii	"bn6\367\241\001\3473\212\232r\247\007\323.\212^T*\233"
 361      A101E733 
 361      8A9A72A7 
 361      07D32E8A 
 361      5E542A9B 
 362 03b7 85C37D53 		.ascii	"\205\303}S`\270\2512\334\242\014\2359\235\351\010\377"
ARM GAS  C:\Users\Luggi\AppData\Local\Temp\ccU0ribR.s 			page 27


 362      60B8A932 
 362      DCA20C9D 
 362      399DE908 
 362      FF
 363 03c8 C118FAFB 		.ascii	"\301\030\372\373\312\306\202\031\303\300i\003\333\303"
 363      CAC68219 
 363      C3C06903 
 363      DBC3
 364 03d6 F4CC7408 		.ascii	"\364\314t\010\004\035*A'%\270<9\337\021\206\253\031"
 364      041D2A41 
 364      2725B83C 
 364      39DF1186 
 364      AB19
 365 03e8 41FBDDC5 		.ascii	"A\373\335\305\237\303\030A\356\031\225\200t\320%\020"
 365      9FC31841 
 365      EE199580 
 365      74D02510 
 366 03f8 74A904DD 		.ascii	"t\251\004\335\224 \3577\367\3650\334\302\010nO<}\300"
 366      9420EF37 
 366      F7F530DC 
 366      C2086E4F 
 366      3C7DC0
 367 040b 6778765E 		.ascii	"gxv^$\270-\020\334V\011z\330\336\271w\270>\034\0170"
 367      24B82D10 
 367      DC56097A 
 367      D8DEB977 
 367      B83E1C0F 
 368 0420 82AAC29A 		.ascii	"\202\252\302\232v\023#()\023\011<\002\201G%\350e\036"
 368      76132328 
 368      2913093C 
 368      02814725 
 368      E8651E
 369 0433 1C187EAE 		.ascii	"\034\030~\256\023\237\312\332c\337\307\036g\344\035"
 369      139FCADA 
 369      63DFC71E 
 369      67E41D
 370 0442 C02DEEC7 		.ascii	"\300-\356\307Y!\"\270O\003\356\347\340~\012V~9Tl\304"
 370      592122B8 
 370      4F03EEE7 
 370      E07E0A56 
 370      7E39546C 
 371 0457 8FF9FACC 		.ascii	"\217\371\372\314\035\264\207\231\340\370f\274\305\361"
 371      1DB48799 
 371      E0F866BC 
 371      C5F1
 372 0465 8503EFE9 		.ascii	"\205\003\357\3518\330\027\302\016\374\322\212\341e\017"
 372      38D817C2 
 372      0EFCD28A 
 372      E1650F
 373 0474 7CC635B3 		.ascii	"|\3065\263\213<\222\207\340\000\015\370O\374 \342G\236"
 373      8B3C9287 
 373      E0000DF8 
 373      4FFC20E2 
 373      479E
 374 0486 7C01BD78 		.ascii	"|\001\275x\334\351\303X\234bHs\340F\370\024#t\212\354"
 374      DCE9C358 
 374      9C624873 
ARM GAS  C:\Users\Luggi\AppData\Local\Temp\ccU0ribR.s 			page 28


 374      E046F814 
 374      23748AEC 
 375 049a FCDA9920 		.ascii	"\374\332\231 \374D\247yJE\261\247\324\275\302\371\342"
 375      FC44A779 
 375      4A45B1A7 
 375      D4BDC2F9 
 375      E2
 376 04ab 107A4BFE 		.ascii	"\020zK\376\260\256 \251\321\201\376\253\301\370?\012"
 376      B0AE20A9 
 376      D181FEAB 
 376      C1F83F0A 
 377 04bb D73D2C48 		.ascii	"\327=,H\367\205\242h\023\351\316{\241,\\Ah\014\244\274"
 377      F785A268 
 377      13E9CE7B 
 377      A12C5C41 
 377      680CA4BC 
 378 04cf FED6A278 		.ascii	"\376\326\242xg\331/\233\221\374\277\024\2430h\024\037"
 378      67D92F9B 
 378      91FCBF14 
 378      A3306814 
 378      1F
 379 04e0 F42E24EF 		.ascii	"\364.$\357Qk\220\375hw\233\211Y\371v\025:GU\336\202"
 379      516B90FD 
 379      68779B89 
 379      59F97615 
 379      3A4755DE 
 380 04f5 59ED63F1 		.ascii	"Y\355c\361R\261NQ\364h\002:\271\343\357\344>\362\267"
 380      52B14E51 
 380      F468023A 
 380      B9E3EFE4 
 380      3EF2B7
 381 0508 F22AF178 		.ascii	"\362*\361x\340V&\306O-\030D''4NNr''\251\223s\205\207"
 381      E05626C6 
 381      4F2D1844 
 381      2727344E 
 381      4E722727 
 382 0521 1F696CAF 		.ascii	"\037il\257\326\374\376Oq\360\024\005\237\254\030\212"
 382      D6FCFE4F 
 382      71F01405 
 382      9FAC188A 
 383 0531 12B10E0D 		.ascii	"\022\261\016\015v\232c\311\273a\307\227_En\221\336\335"
 383      769A63C9 
 383      BB61C797 
 383      5F456E91 
 383      DEDD
 384 0543 1E979A64 		.ascii	"\036\227\232d\333\233\230b\335\373\271\305&[\255\251"
 384      DB9B9862 
 384      DDFBB9C5 
 384      265BADA9 
 385 0553 FB6D1FEC 		.ascii	"\373m\037\354\220-\2625\316&'\354\215MN\265\306\313"
 385      902DB235 
 385      CE2627EC 
 385      8D4D4EB5 
 385      C6CB
 386 0565 7B626293 		.ascii	"{bb\223\267|\274\347%t}\274\264\012\320[\345oIfg\234"
 386      B77CBCE7 
 386      25747DBC 
ARM GAS  C:\Users\Luggi\AppData\Local\Temp\ccU0ribR.s 			page 29


 386      B40AD05B 
 386      E56F4966 
 387 057b 252149B6 		.ascii	"%!I\266\232\343\323\340\253\270\204\004\253\234\222"
 387      9AE3D3E0 
 387      ABB88404 
 387      AB9C92
 388 058a 121598E2 		.ascii	"\022\025\230\342\243\3704[\332~9e\375w\242p\254l\373"
 388      A3F8345B 
 388      DA7E3965 
 388      FD77A270 
 388      AC6CFB
 389 059d 5A8EB725 		.ascii	"Z\216\267%[\205\334\0165\027\224\232h\261mZ\255A\307"
 389      5B85DC0E 
 389      3517949A 
 389      68B16D5A 
 389      AD41C7
 390 05b0 581393AD 		.ascii	"X\023\223\255\211\266\264\325\032\274\232]\351\317n"
 390      89B6B4D5 
 390      1ABC9A5D 
 390      E9CF6E
 391 05bf B3C47D93 		.ascii	"\263\304}\223$\277\243\201\305\332\240\255U\376\324"
 391      24BFA381 
 391      C5DAA0AD 
 391      55FED4
 392 05ce D6C41402 		.ascii	"\326\304\024\002Z!(\330\342\254\266UK\356\267}\037."
 392      5A2128D8 
 392      E2ACB655 
 392      4BEEB77D 
 392      1F2E
 393 05e0 6692F7BF 		.ascii	"f\222\367\277\247mI\266$$Z\366E\370\223[\222\3448+O"
 393      A76D49B6 
 393      24245AF6 
 393      45F8935B 
 393      92E4382B 
 394 05f5 EBADF2BE 		.ascii	"\353\255\362\276MA\360\262q\203\201\314\263q\303\377"
 394      4D41F0B2 
 394      718381CC 
 394      B371C3FF 
 395 0605 C0AE8E8F 		.ascii	"\300\256\216\217"
 396              		.text
 397              		.section	.gnu.lto_.symtab.53c7a60b,"",%progbits
 398 0000 4661756C 		.ascii	"Fault_isr_Interrupt\000\000\000\000\000\000\000\000"
 398      745F6973 
 398      725F496E 
 398      74657272 
 398      75707400 
 399 001b 00000000 		.ascii	"\000\000\000\000\255\000\000\000Fault_isr_SetVector"
 399      AD000000 
 399      4661756C 
 399      745F6973 
 399      725F5365 
 400 0036 00000000 		.ascii	"\000\000\000\000\000\000\000\000\000\000\000\000\266"
 400      00000000 
 400      00000000 
 400      B6
 401 0043 00000046 		.ascii	"\000\000\000Fault_isr_GetVector\000\000\000\000\000"
 401      61756C74 
ARM GAS  C:\Users\Luggi\AppData\Local\Temp\ccU0ribR.s 			page 30


 401      5F697372 
 401      5F476574 
 401      56656374 
 402 005e 00000000 		.ascii	"\000\000\000\000\000\000\000\271\000\000\000Fault_i"
 402      000000B9 
 402      00000046 
 402      61756C74 
 402      5F69
 403 0070 73725F53 		.ascii	"sr_SetPriority\000\000\000\000\000\000\000\000\000\000"
 403      65745072 
 403      696F7269 
 403      74790000 
 403      00000000 
 404 0088 0000C200 		.ascii	"\000\000\302\000\000\000Fault_isr_GetPriority\000\000"
 404      00004661 
 404      756C745F 
 404      6973725F 
 404      47657450 
 405 00a5 00000000 		.ascii	"\000\000\000\000\000\000\000\000\000\000\305\000\000"
 405      00000000 
 405      0000C500 
 405      00
 406 00b2 00466175 		.ascii	"\000Fault_isr_Enable\000\000\000\000\000\000\000\000"
 406      6C745F69 
 406      73725F45 
 406      6E61626C 
 406      65000000 
 407 00cb 00000000 		.ascii	"\000\000\000\000\307\000\000\000Fault_isr_GetState\000"
 407      C7000000 
 407      4661756C 
 407      745F6973 
 407      725F4765 
 408 00e6 00000000 		.ascii	"\000\000\000\000\000\000\000\000\000\000\000\311\000"
 408      00000000 
 408      000000C9 
 408      00
 409 00f3 00004661 		.ascii	"\000\000Fault_isr_Disable\000\000\000\000\000\000\000"
 409      756C745F 
 409      6973725F 
 409      44697361 
 409      626C6500 
 410 010d 00000000 		.ascii	"\000\000\000\000\000\313\000\000\000Fault_isr_Start"
 410      00CB0000 
 410      00466175 
 410      6C745F69 
 410      73725F53 
 411 0125 00000000 		.ascii	"\000\000\000\000\000\000\000\000\000\000\000\000\315"
 411      00000000 
 411      00000000 
 411      CD
 412 0132 00000046 		.ascii	"\000\000\000Fault_isr_StartEx\000\000\000\000\000\000"
 412      61756C74 
 412      5F697372 
 412      5F537461 
 412      72744578 
 413 014c 00000000 		.ascii	"\000\000\000\000\000\000\317\000\000\000Fault_isr_S"
 413      0000CF00 
ARM GAS  C:\Users\Luggi\AppData\Local\Temp\ccU0ribR.s 			page 31


 413      00004661 
 413      756C745F 
 413      6973725F 
 414 0161 746F7000 		.ascii	"top\000\000\000\000\000\000\000\000\000\000\000\000"
 414      00000000 
 414      00000000 
 414      000000
 415 0170 D1000000 		.ascii	"\321\000\000\000Fault_isr_SetPending\000\000\000\000"
 415      4661756C 
 415      745F6973 
 415      725F5365 
 415      7450656E 
 416 018c 00000000 		.ascii	"\000\000\000\000\000\000\000\000\323\000\000\000Fau"
 416      00000000 
 416      D3000000 
 416      466175
 417 019b 6C745F69 		.ascii	"lt_isr_ClearPending\000\000\000\000\000\000\000\000"
 417      73725F43 
 417      6C656172 
 417      50656E64 
 417      696E6700 
 418 01b6 00000000 		.ascii	"\000\000\000\000\325\000\000\000IntDefaultHandler\000"
 418      D5000000 
 418      496E7444 
 418      65666175 
 418      6C744861 
 419 01d0 00020000 		.ascii	"\000\002\000\000\000\000\000\000\000\000\000\257\000"
 419      00000000 
 419      000000AF 
 419      00
 420 01dd 0000     		.ascii	"\000\000"
 421              		.text
 422              		.section	.gnu.lto_.opts,"",%progbits
 423 0000 272D666E 		.ascii	"'-fno-trapv' '-fno-strict-overflow' '-mcpu=cortex-m"
 423      6F2D7472 
 423      61707627 
 423      20272D66 
 423      6E6F2D73 
 424 0033 33272027 		.ascii	"3' '-mthumb' '-g' '-Og' '-ffunction-sections' '-flt"
 424      2D6D7468 
 424      756D6227 
 424      20272D67 
 424      2720272D 
 425 0066 6F272027 		.ascii	"o' '-ffat-lto-objects'\000"
 425      2D666661 
 425      742D6C74 
 425      6F2D6F62 
 425      6A656374 
 426              		.text
 427              		.cfi_sections	.debug_frame
 428              		.section	.text.Fault_isr_Interrupt,"ax",%progbits
 429              		.align	2
 430              		.global	Fault_isr_Interrupt
 431              		.thumb
 432              		.thumb_func
 433              		.type	Fault_isr_Interrupt, %function
 434              	Fault_isr_Interrupt:
ARM GAS  C:\Users\Luggi\AppData\Local\Temp\ccU0ribR.s 			page 32


 435              	.LFB3:
 436              		.file 1 "Generated_Source\\PSoC5\\Fault_isr.c"
   1:Generated_Source\PSoC5/Fault_isr.c **** /*******************************************************************************
   2:Generated_Source\PSoC5/Fault_isr.c **** * File Name: Fault_isr.c  
   3:Generated_Source\PSoC5/Fault_isr.c **** * Version 1.70
   4:Generated_Source\PSoC5/Fault_isr.c **** *
   5:Generated_Source\PSoC5/Fault_isr.c **** *  Description:
   6:Generated_Source\PSoC5/Fault_isr.c **** *   API for controlling the state of an interrupt.
   7:Generated_Source\PSoC5/Fault_isr.c **** *
   8:Generated_Source\PSoC5/Fault_isr.c **** *
   9:Generated_Source\PSoC5/Fault_isr.c **** *  Note:
  10:Generated_Source\PSoC5/Fault_isr.c **** *
  11:Generated_Source\PSoC5/Fault_isr.c **** ********************************************************************************
  12:Generated_Source\PSoC5/Fault_isr.c **** * Copyright 2008-2015, Cypress Semiconductor Corporation.  All rights reserved.
  13:Generated_Source\PSoC5/Fault_isr.c **** * You may use this file only in accordance with the license, terms, conditions, 
  14:Generated_Source\PSoC5/Fault_isr.c **** * disclaimers, and limitations in the end user license agreement accompanying 
  15:Generated_Source\PSoC5/Fault_isr.c **** * the software package with which this file was provided.
  16:Generated_Source\PSoC5/Fault_isr.c **** *******************************************************************************/
  17:Generated_Source\PSoC5/Fault_isr.c **** 
  18:Generated_Source\PSoC5/Fault_isr.c **** 
  19:Generated_Source\PSoC5/Fault_isr.c **** #include <cydevice_trm.h>
  20:Generated_Source\PSoC5/Fault_isr.c **** #include <CyLib.h>
  21:Generated_Source\PSoC5/Fault_isr.c **** #include <Fault_isr.h>
  22:Generated_Source\PSoC5/Fault_isr.c **** 
  23:Generated_Source\PSoC5/Fault_isr.c **** 
  24:Generated_Source\PSoC5/Fault_isr.c **** #if !defined(Fault_isr__REMOVED) /* Check for removal by optimization */
  25:Generated_Source\PSoC5/Fault_isr.c **** 
  26:Generated_Source\PSoC5/Fault_isr.c **** /*******************************************************************************
  27:Generated_Source\PSoC5/Fault_isr.c **** *  Place your includes, defines and code here 
  28:Generated_Source\PSoC5/Fault_isr.c **** ********************************************************************************/
  29:Generated_Source\PSoC5/Fault_isr.c **** /* `#START Fault_isr_intc` */
  30:Generated_Source\PSoC5/Fault_isr.c **** 
  31:Generated_Source\PSoC5/Fault_isr.c **** /* `#END` */
  32:Generated_Source\PSoC5/Fault_isr.c **** 
  33:Generated_Source\PSoC5/Fault_isr.c **** #ifndef CYINT_IRQ_BASE
  34:Generated_Source\PSoC5/Fault_isr.c **** #define CYINT_IRQ_BASE      16
  35:Generated_Source\PSoC5/Fault_isr.c **** #endif /* CYINT_IRQ_BASE */
  36:Generated_Source\PSoC5/Fault_isr.c **** #ifndef CYINT_VECT_TABLE
  37:Generated_Source\PSoC5/Fault_isr.c **** #define CYINT_VECT_TABLE    ((cyisraddress **) CYREG_NVIC_VECT_OFFSET)
  38:Generated_Source\PSoC5/Fault_isr.c **** #endif /* CYINT_VECT_TABLE */
  39:Generated_Source\PSoC5/Fault_isr.c **** 
  40:Generated_Source\PSoC5/Fault_isr.c **** /* Declared in startup, used to set unused interrupts to. */
  41:Generated_Source\PSoC5/Fault_isr.c **** CY_ISR_PROTO(IntDefaultHandler);
  42:Generated_Source\PSoC5/Fault_isr.c **** 
  43:Generated_Source\PSoC5/Fault_isr.c **** 
  44:Generated_Source\PSoC5/Fault_isr.c **** /*******************************************************************************
  45:Generated_Source\PSoC5/Fault_isr.c **** * Function Name: Fault_isr_Start
  46:Generated_Source\PSoC5/Fault_isr.c **** ********************************************************************************
  47:Generated_Source\PSoC5/Fault_isr.c **** *
  48:Generated_Source\PSoC5/Fault_isr.c **** * Summary:
  49:Generated_Source\PSoC5/Fault_isr.c **** *  Set up the interrupt and enable it. This function disables the interrupt, 
  50:Generated_Source\PSoC5/Fault_isr.c **** *  sets the default interrupt vector, sets the priority from the value in the
  51:Generated_Source\PSoC5/Fault_isr.c **** *  Design Wide Resources Interrupt Editor, then enables the interrupt to the 
  52:Generated_Source\PSoC5/Fault_isr.c **** *  interrupt controller.
  53:Generated_Source\PSoC5/Fault_isr.c **** *
  54:Generated_Source\PSoC5/Fault_isr.c **** * Parameters:  
  55:Generated_Source\PSoC5/Fault_isr.c **** *   None
ARM GAS  C:\Users\Luggi\AppData\Local\Temp\ccU0ribR.s 			page 33


  56:Generated_Source\PSoC5/Fault_isr.c **** *
  57:Generated_Source\PSoC5/Fault_isr.c **** * Return:
  58:Generated_Source\PSoC5/Fault_isr.c **** *   None
  59:Generated_Source\PSoC5/Fault_isr.c **** *
  60:Generated_Source\PSoC5/Fault_isr.c **** *******************************************************************************/
  61:Generated_Source\PSoC5/Fault_isr.c **** void Fault_isr_Start(void)
  62:Generated_Source\PSoC5/Fault_isr.c **** {
  63:Generated_Source\PSoC5/Fault_isr.c ****     /* For all we know the interrupt is active. */
  64:Generated_Source\PSoC5/Fault_isr.c ****     Fault_isr_Disable();
  65:Generated_Source\PSoC5/Fault_isr.c **** 
  66:Generated_Source\PSoC5/Fault_isr.c ****     /* Set the ISR to point to the Fault_isr Interrupt. */
  67:Generated_Source\PSoC5/Fault_isr.c ****     Fault_isr_SetVector(&Fault_isr_Interrupt);
  68:Generated_Source\PSoC5/Fault_isr.c **** 
  69:Generated_Source\PSoC5/Fault_isr.c ****     /* Set the priority. */
  70:Generated_Source\PSoC5/Fault_isr.c ****     Fault_isr_SetPriority((uint8)Fault_isr_INTC_PRIOR_NUMBER);
  71:Generated_Source\PSoC5/Fault_isr.c **** 
  72:Generated_Source\PSoC5/Fault_isr.c ****     /* Enable it. */
  73:Generated_Source\PSoC5/Fault_isr.c ****     Fault_isr_Enable();
  74:Generated_Source\PSoC5/Fault_isr.c **** }
  75:Generated_Source\PSoC5/Fault_isr.c **** 
  76:Generated_Source\PSoC5/Fault_isr.c **** 
  77:Generated_Source\PSoC5/Fault_isr.c **** /*******************************************************************************
  78:Generated_Source\PSoC5/Fault_isr.c **** * Function Name: Fault_isr_StartEx
  79:Generated_Source\PSoC5/Fault_isr.c **** ********************************************************************************
  80:Generated_Source\PSoC5/Fault_isr.c **** *
  81:Generated_Source\PSoC5/Fault_isr.c **** * Summary:
  82:Generated_Source\PSoC5/Fault_isr.c **** *  Sets up the interrupt and enables it. This function disables the interrupt,
  83:Generated_Source\PSoC5/Fault_isr.c **** *  sets the interrupt vector based on the address passed in, sets the priority 
  84:Generated_Source\PSoC5/Fault_isr.c **** *  from the value in the Design Wide Resources Interrupt Editor, then enables 
  85:Generated_Source\PSoC5/Fault_isr.c **** *  the interrupt to the interrupt controller.
  86:Generated_Source\PSoC5/Fault_isr.c **** *  
  87:Generated_Source\PSoC5/Fault_isr.c **** *  When defining ISR functions, the CY_ISR and CY_ISR_PROTO macros should be 
  88:Generated_Source\PSoC5/Fault_isr.c **** *  used to provide consistent definition across compilers:
  89:Generated_Source\PSoC5/Fault_isr.c **** *  
  90:Generated_Source\PSoC5/Fault_isr.c **** *  Function definition example:
  91:Generated_Source\PSoC5/Fault_isr.c **** *   CY_ISR(MyISR)
  92:Generated_Source\PSoC5/Fault_isr.c **** *   {
  93:Generated_Source\PSoC5/Fault_isr.c **** *   }
  94:Generated_Source\PSoC5/Fault_isr.c **** *   Function prototype example:
  95:Generated_Source\PSoC5/Fault_isr.c **** *   CY_ISR_PROTO(MyISR);
  96:Generated_Source\PSoC5/Fault_isr.c **** *
  97:Generated_Source\PSoC5/Fault_isr.c **** * Parameters:  
  98:Generated_Source\PSoC5/Fault_isr.c **** *   address: Address of the ISR to set in the interrupt vector table.
  99:Generated_Source\PSoC5/Fault_isr.c **** *
 100:Generated_Source\PSoC5/Fault_isr.c **** * Return:
 101:Generated_Source\PSoC5/Fault_isr.c **** *   None
 102:Generated_Source\PSoC5/Fault_isr.c **** *
 103:Generated_Source\PSoC5/Fault_isr.c **** *******************************************************************************/
 104:Generated_Source\PSoC5/Fault_isr.c **** void Fault_isr_StartEx(cyisraddress address)
 105:Generated_Source\PSoC5/Fault_isr.c **** {
 106:Generated_Source\PSoC5/Fault_isr.c ****     /* For all we know the interrupt is active. */
 107:Generated_Source\PSoC5/Fault_isr.c ****     Fault_isr_Disable();
 108:Generated_Source\PSoC5/Fault_isr.c **** 
 109:Generated_Source\PSoC5/Fault_isr.c ****     /* Set the ISR to point to the Fault_isr Interrupt. */
 110:Generated_Source\PSoC5/Fault_isr.c ****     Fault_isr_SetVector(address);
 111:Generated_Source\PSoC5/Fault_isr.c **** 
 112:Generated_Source\PSoC5/Fault_isr.c ****     /* Set the priority. */
ARM GAS  C:\Users\Luggi\AppData\Local\Temp\ccU0ribR.s 			page 34


 113:Generated_Source\PSoC5/Fault_isr.c ****     Fault_isr_SetPriority((uint8)Fault_isr_INTC_PRIOR_NUMBER);
 114:Generated_Source\PSoC5/Fault_isr.c **** 
 115:Generated_Source\PSoC5/Fault_isr.c ****     /* Enable it. */
 116:Generated_Source\PSoC5/Fault_isr.c ****     Fault_isr_Enable();
 117:Generated_Source\PSoC5/Fault_isr.c **** }
 118:Generated_Source\PSoC5/Fault_isr.c **** 
 119:Generated_Source\PSoC5/Fault_isr.c **** 
 120:Generated_Source\PSoC5/Fault_isr.c **** /*******************************************************************************
 121:Generated_Source\PSoC5/Fault_isr.c **** * Function Name: Fault_isr_Stop
 122:Generated_Source\PSoC5/Fault_isr.c **** ********************************************************************************
 123:Generated_Source\PSoC5/Fault_isr.c **** *
 124:Generated_Source\PSoC5/Fault_isr.c **** * Summary:
 125:Generated_Source\PSoC5/Fault_isr.c **** *   Disables and removes the interrupt.
 126:Generated_Source\PSoC5/Fault_isr.c **** *
 127:Generated_Source\PSoC5/Fault_isr.c **** * Parameters:  
 128:Generated_Source\PSoC5/Fault_isr.c **** *   None
 129:Generated_Source\PSoC5/Fault_isr.c **** *
 130:Generated_Source\PSoC5/Fault_isr.c **** * Return:
 131:Generated_Source\PSoC5/Fault_isr.c **** *   None
 132:Generated_Source\PSoC5/Fault_isr.c **** *
 133:Generated_Source\PSoC5/Fault_isr.c **** *******************************************************************************/
 134:Generated_Source\PSoC5/Fault_isr.c **** void Fault_isr_Stop(void)
 135:Generated_Source\PSoC5/Fault_isr.c **** {
 136:Generated_Source\PSoC5/Fault_isr.c ****     /* Disable this interrupt. */
 137:Generated_Source\PSoC5/Fault_isr.c ****     Fault_isr_Disable();
 138:Generated_Source\PSoC5/Fault_isr.c **** 
 139:Generated_Source\PSoC5/Fault_isr.c ****     /* Set the ISR to point to the passive one. */
 140:Generated_Source\PSoC5/Fault_isr.c ****     Fault_isr_SetVector(&IntDefaultHandler);
 141:Generated_Source\PSoC5/Fault_isr.c **** }
 142:Generated_Source\PSoC5/Fault_isr.c **** 
 143:Generated_Source\PSoC5/Fault_isr.c **** 
 144:Generated_Source\PSoC5/Fault_isr.c **** /*******************************************************************************
 145:Generated_Source\PSoC5/Fault_isr.c **** * Function Name: Fault_isr_Interrupt
 146:Generated_Source\PSoC5/Fault_isr.c **** ********************************************************************************
 147:Generated_Source\PSoC5/Fault_isr.c **** *
 148:Generated_Source\PSoC5/Fault_isr.c **** * Summary:
 149:Generated_Source\PSoC5/Fault_isr.c **** *   The default Interrupt Service Routine for Fault_isr.
 150:Generated_Source\PSoC5/Fault_isr.c **** *
 151:Generated_Source\PSoC5/Fault_isr.c **** *   Add custom code between the coments to keep the next version of this file
 152:Generated_Source\PSoC5/Fault_isr.c **** *   from over writting your code.
 153:Generated_Source\PSoC5/Fault_isr.c **** *
 154:Generated_Source\PSoC5/Fault_isr.c **** * Parameters:  
 155:Generated_Source\PSoC5/Fault_isr.c **** *
 156:Generated_Source\PSoC5/Fault_isr.c **** * Return:
 157:Generated_Source\PSoC5/Fault_isr.c **** *   None
 158:Generated_Source\PSoC5/Fault_isr.c **** *
 159:Generated_Source\PSoC5/Fault_isr.c **** *******************************************************************************/
 160:Generated_Source\PSoC5/Fault_isr.c **** CY_ISR(Fault_isr_Interrupt)
 161:Generated_Source\PSoC5/Fault_isr.c **** {
 437              		.loc 1 161 0
 438              		.cfi_startproc
 439              		@ args = 0, pretend = 0, frame = 0
 440              		@ frame_needed = 0, uses_anonymous_args = 0
 441              		@ link register save eliminated.
 442 0000 7047     		bx	lr
 443              		.cfi_endproc
 444              	.LFE3:
ARM GAS  C:\Users\Luggi\AppData\Local\Temp\ccU0ribR.s 			page 35


 445              		.size	Fault_isr_Interrupt, .-Fault_isr_Interrupt
 446 0002 00BF     		.section	.text.Fault_isr_SetVector,"ax",%progbits
 447              		.align	2
 448              		.global	Fault_isr_SetVector
 449              		.thumb
 450              		.thumb_func
 451              		.type	Fault_isr_SetVector, %function
 452              	Fault_isr_SetVector:
 453              	.LFB4:
 162:Generated_Source\PSoC5/Fault_isr.c ****     #ifdef Fault_isr_INTERRUPT_INTERRUPT_CALLBACK
 163:Generated_Source\PSoC5/Fault_isr.c ****         Fault_isr_Interrupt_InterruptCallback();
 164:Generated_Source\PSoC5/Fault_isr.c ****     #endif /* Fault_isr_INTERRUPT_INTERRUPT_CALLBACK */ 
 165:Generated_Source\PSoC5/Fault_isr.c **** 
 166:Generated_Source\PSoC5/Fault_isr.c ****     /*  Place your Interrupt code here. */
 167:Generated_Source\PSoC5/Fault_isr.c ****     /* `#START Fault_isr_Interrupt` */
 168:Generated_Source\PSoC5/Fault_isr.c **** 
 169:Generated_Source\PSoC5/Fault_isr.c ****     /* `#END` */
 170:Generated_Source\PSoC5/Fault_isr.c **** }
 171:Generated_Source\PSoC5/Fault_isr.c **** 
 172:Generated_Source\PSoC5/Fault_isr.c **** 
 173:Generated_Source\PSoC5/Fault_isr.c **** /*******************************************************************************
 174:Generated_Source\PSoC5/Fault_isr.c **** * Function Name: Fault_isr_SetVector
 175:Generated_Source\PSoC5/Fault_isr.c **** ********************************************************************************
 176:Generated_Source\PSoC5/Fault_isr.c **** *
 177:Generated_Source\PSoC5/Fault_isr.c **** * Summary:
 178:Generated_Source\PSoC5/Fault_isr.c **** *   Change the ISR vector for the Interrupt. Note calling Fault_isr_Start
 179:Generated_Source\PSoC5/Fault_isr.c **** *   will override any effect this method would have had. To set the vector 
 180:Generated_Source\PSoC5/Fault_isr.c **** *   before the component has been started use Fault_isr_StartEx instead.
 181:Generated_Source\PSoC5/Fault_isr.c **** * 
 182:Generated_Source\PSoC5/Fault_isr.c **** *   When defining ISR functions, the CY_ISR and CY_ISR_PROTO macros should be 
 183:Generated_Source\PSoC5/Fault_isr.c **** *   used to provide consistent definition across compilers:
 184:Generated_Source\PSoC5/Fault_isr.c **** *
 185:Generated_Source\PSoC5/Fault_isr.c **** *   Function definition example:
 186:Generated_Source\PSoC5/Fault_isr.c **** *   CY_ISR(MyISR)
 187:Generated_Source\PSoC5/Fault_isr.c **** *   {
 188:Generated_Source\PSoC5/Fault_isr.c **** *   }
 189:Generated_Source\PSoC5/Fault_isr.c **** *
 190:Generated_Source\PSoC5/Fault_isr.c **** *   Function prototype example:
 191:Generated_Source\PSoC5/Fault_isr.c **** *     CY_ISR_PROTO(MyISR);
 192:Generated_Source\PSoC5/Fault_isr.c **** *
 193:Generated_Source\PSoC5/Fault_isr.c **** * Parameters:
 194:Generated_Source\PSoC5/Fault_isr.c **** *   address: Address of the ISR to set in the interrupt vector table.
 195:Generated_Source\PSoC5/Fault_isr.c **** *
 196:Generated_Source\PSoC5/Fault_isr.c **** * Return:
 197:Generated_Source\PSoC5/Fault_isr.c **** *   None
 198:Generated_Source\PSoC5/Fault_isr.c **** *
 199:Generated_Source\PSoC5/Fault_isr.c **** *******************************************************************************/
 200:Generated_Source\PSoC5/Fault_isr.c **** void Fault_isr_SetVector(cyisraddress address)
 201:Generated_Source\PSoC5/Fault_isr.c **** {
 454              		.loc 1 201 0
 455              		.cfi_startproc
 456              		@ args = 0, pretend = 0, frame = 0
 457              		@ frame_needed = 0, uses_anonymous_args = 0
 458              		@ link register save eliminated.
 459              	.LVL0:
 202:Generated_Source\PSoC5/Fault_isr.c ****     cyisraddress * ramVectorTable;
 203:Generated_Source\PSoC5/Fault_isr.c **** 
ARM GAS  C:\Users\Luggi\AppData\Local\Temp\ccU0ribR.s 			page 36


 204:Generated_Source\PSoC5/Fault_isr.c ****     ramVectorTable = (cyisraddress *) *CYINT_VECT_TABLE;
 460              		.loc 1 204 0
 461 0000 014B     		ldr	r3, .L3
 462 0002 1B68     		ldr	r3, [r3]
 463              	.LVL1:
 205:Generated_Source\PSoC5/Fault_isr.c **** 
 206:Generated_Source\PSoC5/Fault_isr.c ****     ramVectorTable[CYINT_IRQ_BASE + (uint32)Fault_isr__INTC_NUMBER] = address;
 464              		.loc 1 206 0
 465 0004 1864     		str	r0, [r3, #64]
 466 0006 7047     		bx	lr
 467              	.L4:
 468              		.align	2
 469              	.L3:
 470 0008 08ED00E0 		.word	-536810232
 471              		.cfi_endproc
 472              	.LFE4:
 473              		.size	Fault_isr_SetVector, .-Fault_isr_SetVector
 474              		.section	.text.Fault_isr_GetVector,"ax",%progbits
 475              		.align	2
 476              		.global	Fault_isr_GetVector
 477              		.thumb
 478              		.thumb_func
 479              		.type	Fault_isr_GetVector, %function
 480              	Fault_isr_GetVector:
 481              	.LFB5:
 207:Generated_Source\PSoC5/Fault_isr.c **** }
 208:Generated_Source\PSoC5/Fault_isr.c **** 
 209:Generated_Source\PSoC5/Fault_isr.c **** 
 210:Generated_Source\PSoC5/Fault_isr.c **** /*******************************************************************************
 211:Generated_Source\PSoC5/Fault_isr.c **** * Function Name: Fault_isr_GetVector
 212:Generated_Source\PSoC5/Fault_isr.c **** ********************************************************************************
 213:Generated_Source\PSoC5/Fault_isr.c **** *
 214:Generated_Source\PSoC5/Fault_isr.c **** * Summary:
 215:Generated_Source\PSoC5/Fault_isr.c **** *   Gets the "address" of the current ISR vector for the Interrupt.
 216:Generated_Source\PSoC5/Fault_isr.c **** *
 217:Generated_Source\PSoC5/Fault_isr.c **** * Parameters:
 218:Generated_Source\PSoC5/Fault_isr.c **** *   None
 219:Generated_Source\PSoC5/Fault_isr.c **** *
 220:Generated_Source\PSoC5/Fault_isr.c **** * Return:
 221:Generated_Source\PSoC5/Fault_isr.c **** *   Address of the ISR in the interrupt vector table.
 222:Generated_Source\PSoC5/Fault_isr.c **** *
 223:Generated_Source\PSoC5/Fault_isr.c **** *******************************************************************************/
 224:Generated_Source\PSoC5/Fault_isr.c **** cyisraddress Fault_isr_GetVector(void)
 225:Generated_Source\PSoC5/Fault_isr.c **** {
 482              		.loc 1 225 0
 483              		.cfi_startproc
 484              		@ args = 0, pretend = 0, frame = 0
 485              		@ frame_needed = 0, uses_anonymous_args = 0
 486              		@ link register save eliminated.
 226:Generated_Source\PSoC5/Fault_isr.c ****     cyisraddress * ramVectorTable;
 227:Generated_Source\PSoC5/Fault_isr.c **** 
 228:Generated_Source\PSoC5/Fault_isr.c ****     ramVectorTable = (cyisraddress *) *CYINT_VECT_TABLE;
 487              		.loc 1 228 0
 488 0000 014B     		ldr	r3, .L6
 489 0002 1B68     		ldr	r3, [r3]
 490              	.LVL2:
 229:Generated_Source\PSoC5/Fault_isr.c **** 
ARM GAS  C:\Users\Luggi\AppData\Local\Temp\ccU0ribR.s 			page 37


 230:Generated_Source\PSoC5/Fault_isr.c ****     return ramVectorTable[CYINT_IRQ_BASE + (uint32)Fault_isr__INTC_NUMBER];
 231:Generated_Source\PSoC5/Fault_isr.c **** }
 491              		.loc 1 231 0
 492 0004 186C     		ldr	r0, [r3, #64]
 493 0006 7047     		bx	lr
 494              	.L7:
 495              		.align	2
 496              	.L6:
 497 0008 08ED00E0 		.word	-536810232
 498              		.cfi_endproc
 499              	.LFE5:
 500              		.size	Fault_isr_GetVector, .-Fault_isr_GetVector
 501              		.section	.text.Fault_isr_SetPriority,"ax",%progbits
 502              		.align	2
 503              		.global	Fault_isr_SetPriority
 504              		.thumb
 505              		.thumb_func
 506              		.type	Fault_isr_SetPriority, %function
 507              	Fault_isr_SetPriority:
 508              	.LFB6:
 232:Generated_Source\PSoC5/Fault_isr.c **** 
 233:Generated_Source\PSoC5/Fault_isr.c **** 
 234:Generated_Source\PSoC5/Fault_isr.c **** /*******************************************************************************
 235:Generated_Source\PSoC5/Fault_isr.c **** * Function Name: Fault_isr_SetPriority
 236:Generated_Source\PSoC5/Fault_isr.c **** ********************************************************************************
 237:Generated_Source\PSoC5/Fault_isr.c **** *
 238:Generated_Source\PSoC5/Fault_isr.c **** * Summary:
 239:Generated_Source\PSoC5/Fault_isr.c **** *   Sets the Priority of the Interrupt. 
 240:Generated_Source\PSoC5/Fault_isr.c **** *
 241:Generated_Source\PSoC5/Fault_isr.c **** *   Note calling Fault_isr_Start or Fault_isr_StartEx will 
 242:Generated_Source\PSoC5/Fault_isr.c **** *   override any effect this API would have had. This API should only be called
 243:Generated_Source\PSoC5/Fault_isr.c **** *   after Fault_isr_Start or Fault_isr_StartEx has been called. 
 244:Generated_Source\PSoC5/Fault_isr.c **** *   To set the initial priority for the component, use the Design-Wide Resources
 245:Generated_Source\PSoC5/Fault_isr.c **** *   Interrupt Editor.
 246:Generated_Source\PSoC5/Fault_isr.c **** *
 247:Generated_Source\PSoC5/Fault_isr.c **** *   Note This API has no effect on Non-maskable interrupt NMI).
 248:Generated_Source\PSoC5/Fault_isr.c **** *
 249:Generated_Source\PSoC5/Fault_isr.c **** * Parameters:
 250:Generated_Source\PSoC5/Fault_isr.c **** *   priority: Priority of the interrupt, 0 being the highest priority
 251:Generated_Source\PSoC5/Fault_isr.c **** *             PSoC 3 and PSoC 5LP: Priority is from 0 to 7.
 252:Generated_Source\PSoC5/Fault_isr.c **** *             PSoC 4: Priority is from 0 to 3.
 253:Generated_Source\PSoC5/Fault_isr.c **** *
 254:Generated_Source\PSoC5/Fault_isr.c **** * Return:
 255:Generated_Source\PSoC5/Fault_isr.c **** *   None
 256:Generated_Source\PSoC5/Fault_isr.c **** *
 257:Generated_Source\PSoC5/Fault_isr.c **** *******************************************************************************/
 258:Generated_Source\PSoC5/Fault_isr.c **** void Fault_isr_SetPriority(uint8 priority)
 259:Generated_Source\PSoC5/Fault_isr.c **** {
 509              		.loc 1 259 0
 510              		.cfi_startproc
 511              		@ args = 0, pretend = 0, frame = 0
 512              		@ frame_needed = 0, uses_anonymous_args = 0
 513              		@ link register save eliminated.
 514              	.LVL3:
 260:Generated_Source\PSoC5/Fault_isr.c ****     *Fault_isr_INTC_PRIOR = priority << 5;
 515              		.loc 1 260 0
 516 0000 4001     		lsls	r0, r0, #5
ARM GAS  C:\Users\Luggi\AppData\Local\Temp\ccU0ribR.s 			page 38


 517              	.LVL4:
 518 0002 C0B2     		uxtb	r0, r0
 519 0004 014B     		ldr	r3, .L9
 520 0006 1870     		strb	r0, [r3]
 521 0008 7047     		bx	lr
 522              	.L10:
 523 000a 00BF     		.align	2
 524              	.L9:
 525 000c 00E400E0 		.word	-536812544
 526              		.cfi_endproc
 527              	.LFE6:
 528              		.size	Fault_isr_SetPriority, .-Fault_isr_SetPriority
 529              		.section	.text.Fault_isr_GetPriority,"ax",%progbits
 530              		.align	2
 531              		.global	Fault_isr_GetPriority
 532              		.thumb
 533              		.thumb_func
 534              		.type	Fault_isr_GetPriority, %function
 535              	Fault_isr_GetPriority:
 536              	.LFB7:
 261:Generated_Source\PSoC5/Fault_isr.c **** }
 262:Generated_Source\PSoC5/Fault_isr.c **** 
 263:Generated_Source\PSoC5/Fault_isr.c **** 
 264:Generated_Source\PSoC5/Fault_isr.c **** /*******************************************************************************
 265:Generated_Source\PSoC5/Fault_isr.c **** * Function Name: Fault_isr_GetPriority
 266:Generated_Source\PSoC5/Fault_isr.c **** ********************************************************************************
 267:Generated_Source\PSoC5/Fault_isr.c **** *
 268:Generated_Source\PSoC5/Fault_isr.c **** * Summary:
 269:Generated_Source\PSoC5/Fault_isr.c **** *   Gets the Priority of the Interrupt.
 270:Generated_Source\PSoC5/Fault_isr.c **** *
 271:Generated_Source\PSoC5/Fault_isr.c **** * Parameters:
 272:Generated_Source\PSoC5/Fault_isr.c **** *   None
 273:Generated_Source\PSoC5/Fault_isr.c **** *
 274:Generated_Source\PSoC5/Fault_isr.c **** * Return:
 275:Generated_Source\PSoC5/Fault_isr.c **** *   Priority of the interrupt, 0 being the highest priority
 276:Generated_Source\PSoC5/Fault_isr.c **** *    PSoC 3 and PSoC 5LP: Priority is from 0 to 7.
 277:Generated_Source\PSoC5/Fault_isr.c **** *    PSoC 4: Priority is from 0 to 3.
 278:Generated_Source\PSoC5/Fault_isr.c **** *
 279:Generated_Source\PSoC5/Fault_isr.c **** *******************************************************************************/
 280:Generated_Source\PSoC5/Fault_isr.c **** uint8 Fault_isr_GetPriority(void)
 281:Generated_Source\PSoC5/Fault_isr.c **** {
 537              		.loc 1 281 0
 538              		.cfi_startproc
 539              		@ args = 0, pretend = 0, frame = 0
 540              		@ frame_needed = 0, uses_anonymous_args = 0
 541              		@ link register save eliminated.
 282:Generated_Source\PSoC5/Fault_isr.c ****     uint8 priority;
 283:Generated_Source\PSoC5/Fault_isr.c **** 
 284:Generated_Source\PSoC5/Fault_isr.c **** 
 285:Generated_Source\PSoC5/Fault_isr.c ****     priority = *Fault_isr_INTC_PRIOR >> 5;
 542              		.loc 1 285 0
 543 0000 014B     		ldr	r3, .L12
 544 0002 1878     		ldrb	r0, [r3]	@ zero_extendqisi2
 545              	.LVL5:
 286:Generated_Source\PSoC5/Fault_isr.c **** 
 287:Generated_Source\PSoC5/Fault_isr.c ****     return priority;
 288:Generated_Source\PSoC5/Fault_isr.c **** }
ARM GAS  C:\Users\Luggi\AppData\Local\Temp\ccU0ribR.s 			page 39


 546              		.loc 1 288 0
 547 0004 4009     		lsrs	r0, r0, #5
 548              	.LVL6:
 549 0006 7047     		bx	lr
 550              	.L13:
 551              		.align	2
 552              	.L12:
 553 0008 00E400E0 		.word	-536812544
 554              		.cfi_endproc
 555              	.LFE7:
 556              		.size	Fault_isr_GetPriority, .-Fault_isr_GetPriority
 557              		.section	.text.Fault_isr_Enable,"ax",%progbits
 558              		.align	2
 559              		.global	Fault_isr_Enable
 560              		.thumb
 561              		.thumb_func
 562              		.type	Fault_isr_Enable, %function
 563              	Fault_isr_Enable:
 564              	.LFB8:
 289:Generated_Source\PSoC5/Fault_isr.c **** 
 290:Generated_Source\PSoC5/Fault_isr.c **** 
 291:Generated_Source\PSoC5/Fault_isr.c **** /*******************************************************************************
 292:Generated_Source\PSoC5/Fault_isr.c **** * Function Name: Fault_isr_Enable
 293:Generated_Source\PSoC5/Fault_isr.c **** ********************************************************************************
 294:Generated_Source\PSoC5/Fault_isr.c **** *
 295:Generated_Source\PSoC5/Fault_isr.c **** * Summary:
 296:Generated_Source\PSoC5/Fault_isr.c **** *   Enables the interrupt to the interrupt controller. Do not call this function
 297:Generated_Source\PSoC5/Fault_isr.c **** *   unless ISR_Start() has been called or the functionality of the ISR_Start() 
 298:Generated_Source\PSoC5/Fault_isr.c **** *   function, which sets the vector and the priority, has been called.
 299:Generated_Source\PSoC5/Fault_isr.c **** *
 300:Generated_Source\PSoC5/Fault_isr.c **** * Parameters:
 301:Generated_Source\PSoC5/Fault_isr.c **** *   None
 302:Generated_Source\PSoC5/Fault_isr.c **** *
 303:Generated_Source\PSoC5/Fault_isr.c **** * Return:
 304:Generated_Source\PSoC5/Fault_isr.c **** *   None
 305:Generated_Source\PSoC5/Fault_isr.c **** *
 306:Generated_Source\PSoC5/Fault_isr.c **** *******************************************************************************/
 307:Generated_Source\PSoC5/Fault_isr.c **** void Fault_isr_Enable(void)
 308:Generated_Source\PSoC5/Fault_isr.c **** {
 565              		.loc 1 308 0
 566              		.cfi_startproc
 567              		@ args = 0, pretend = 0, frame = 0
 568              		@ frame_needed = 0, uses_anonymous_args = 0
 569              		@ link register save eliminated.
 309:Generated_Source\PSoC5/Fault_isr.c ****     /* Enable the general interrupt. */
 310:Generated_Source\PSoC5/Fault_isr.c ****     *Fault_isr_INTC_SET_EN = Fault_isr__INTC_MASK;
 570              		.loc 1 310 0
 571 0000 0122     		movs	r2, #1
 572 0002 014B     		ldr	r3, .L15
 573 0004 1A60     		str	r2, [r3]
 574 0006 7047     		bx	lr
 575              	.L16:
 576              		.align	2
 577              	.L15:
 578 0008 00E100E0 		.word	-536813312
 579              		.cfi_endproc
 580              	.LFE8:
ARM GAS  C:\Users\Luggi\AppData\Local\Temp\ccU0ribR.s 			page 40


 581              		.size	Fault_isr_Enable, .-Fault_isr_Enable
 582              		.section	.text.Fault_isr_GetState,"ax",%progbits
 583              		.align	2
 584              		.global	Fault_isr_GetState
 585              		.thumb
 586              		.thumb_func
 587              		.type	Fault_isr_GetState, %function
 588              	Fault_isr_GetState:
 589              	.LFB9:
 311:Generated_Source\PSoC5/Fault_isr.c **** }
 312:Generated_Source\PSoC5/Fault_isr.c **** 
 313:Generated_Source\PSoC5/Fault_isr.c **** 
 314:Generated_Source\PSoC5/Fault_isr.c **** /*******************************************************************************
 315:Generated_Source\PSoC5/Fault_isr.c **** * Function Name: Fault_isr_GetState
 316:Generated_Source\PSoC5/Fault_isr.c **** ********************************************************************************
 317:Generated_Source\PSoC5/Fault_isr.c **** *
 318:Generated_Source\PSoC5/Fault_isr.c **** * Summary:
 319:Generated_Source\PSoC5/Fault_isr.c **** *   Gets the state (enabled, disabled) of the Interrupt.
 320:Generated_Source\PSoC5/Fault_isr.c **** *
 321:Generated_Source\PSoC5/Fault_isr.c **** * Parameters:
 322:Generated_Source\PSoC5/Fault_isr.c **** *   None
 323:Generated_Source\PSoC5/Fault_isr.c **** *
 324:Generated_Source\PSoC5/Fault_isr.c **** * Return:
 325:Generated_Source\PSoC5/Fault_isr.c **** *   1 if enabled, 0 if disabled.
 326:Generated_Source\PSoC5/Fault_isr.c **** *
 327:Generated_Source\PSoC5/Fault_isr.c **** *******************************************************************************/
 328:Generated_Source\PSoC5/Fault_isr.c **** uint8 Fault_isr_GetState(void)
 329:Generated_Source\PSoC5/Fault_isr.c **** {
 590              		.loc 1 329 0
 591              		.cfi_startproc
 592              		@ args = 0, pretend = 0, frame = 0
 593              		@ frame_needed = 0, uses_anonymous_args = 0
 594              		@ link register save eliminated.
 330:Generated_Source\PSoC5/Fault_isr.c ****     /* Get the state of the general interrupt. */
 331:Generated_Source\PSoC5/Fault_isr.c ****     return ((*Fault_isr_INTC_SET_EN & (uint32)Fault_isr__INTC_MASK) != 0u) ? 1u:0u;
 595              		.loc 1 331 0
 596 0000 024B     		ldr	r3, .L18
 597 0002 1868     		ldr	r0, [r3]
 332:Generated_Source\PSoC5/Fault_isr.c **** }
 598              		.loc 1 332 0
 599 0004 00F00100 		and	r0, r0, #1
 600 0008 7047     		bx	lr
 601              	.L19:
 602 000a 00BF     		.align	2
 603              	.L18:
 604 000c 00E100E0 		.word	-536813312
 605              		.cfi_endproc
 606              	.LFE9:
 607              		.size	Fault_isr_GetState, .-Fault_isr_GetState
 608              		.section	.text.Fault_isr_Disable,"ax",%progbits
 609              		.align	2
 610              		.global	Fault_isr_Disable
 611              		.thumb
 612              		.thumb_func
 613              		.type	Fault_isr_Disable, %function
 614              	Fault_isr_Disable:
 615              	.LFB10:
ARM GAS  C:\Users\Luggi\AppData\Local\Temp\ccU0ribR.s 			page 41


 333:Generated_Source\PSoC5/Fault_isr.c **** 
 334:Generated_Source\PSoC5/Fault_isr.c **** 
 335:Generated_Source\PSoC5/Fault_isr.c **** /*******************************************************************************
 336:Generated_Source\PSoC5/Fault_isr.c **** * Function Name: Fault_isr_Disable
 337:Generated_Source\PSoC5/Fault_isr.c **** ********************************************************************************
 338:Generated_Source\PSoC5/Fault_isr.c **** *
 339:Generated_Source\PSoC5/Fault_isr.c **** * Summary:
 340:Generated_Source\PSoC5/Fault_isr.c **** *   Disables the Interrupt in the interrupt controller.
 341:Generated_Source\PSoC5/Fault_isr.c **** *
 342:Generated_Source\PSoC5/Fault_isr.c **** * Parameters:
 343:Generated_Source\PSoC5/Fault_isr.c **** *   None
 344:Generated_Source\PSoC5/Fault_isr.c **** *
 345:Generated_Source\PSoC5/Fault_isr.c **** * Return:
 346:Generated_Source\PSoC5/Fault_isr.c **** *   None
 347:Generated_Source\PSoC5/Fault_isr.c **** *
 348:Generated_Source\PSoC5/Fault_isr.c **** *******************************************************************************/
 349:Generated_Source\PSoC5/Fault_isr.c **** void Fault_isr_Disable(void)
 350:Generated_Source\PSoC5/Fault_isr.c **** {
 616              		.loc 1 350 0
 617              		.cfi_startproc
 618              		@ args = 0, pretend = 0, frame = 0
 619              		@ frame_needed = 0, uses_anonymous_args = 0
 620              		@ link register save eliminated.
 351:Generated_Source\PSoC5/Fault_isr.c ****     /* Disable the general interrupt. */
 352:Generated_Source\PSoC5/Fault_isr.c ****     *Fault_isr_INTC_CLR_EN = Fault_isr__INTC_MASK;
 621              		.loc 1 352 0
 622 0000 0122     		movs	r2, #1
 623 0002 014B     		ldr	r3, .L21
 624 0004 1A60     		str	r2, [r3]
 625 0006 7047     		bx	lr
 626              	.L22:
 627              		.align	2
 628              	.L21:
 629 0008 80E100E0 		.word	-536813184
 630              		.cfi_endproc
 631              	.LFE10:
 632              		.size	Fault_isr_Disable, .-Fault_isr_Disable
 633              		.section	.text.Fault_isr_Start,"ax",%progbits
 634              		.align	2
 635              		.global	Fault_isr_Start
 636              		.thumb
 637              		.thumb_func
 638              		.type	Fault_isr_Start, %function
 639              	Fault_isr_Start:
 640              	.LFB0:
  62:Generated_Source\PSoC5/Fault_isr.c ****     /* For all we know the interrupt is active. */
 641              		.loc 1 62 0
 642              		.cfi_startproc
 643              		@ args = 0, pretend = 0, frame = 0
 644              		@ frame_needed = 0, uses_anonymous_args = 0
 645 0000 08B5     		push	{r3, lr}
 646              		.cfi_def_cfa_offset 8
 647              		.cfi_offset 3, -8
 648              		.cfi_offset 14, -4
  64:Generated_Source\PSoC5/Fault_isr.c **** 
 649              		.loc 1 64 0
 650 0002 FFF7FEFF 		bl	Fault_isr_Disable
ARM GAS  C:\Users\Luggi\AppData\Local\Temp\ccU0ribR.s 			page 42


 651              	.LVL7:
  67:Generated_Source\PSoC5/Fault_isr.c **** 
 652              		.loc 1 67 0
 653 0006 0448     		ldr	r0, .L25
 654 0008 FFF7FEFF 		bl	Fault_isr_SetVector
 655              	.LVL8:
  70:Generated_Source\PSoC5/Fault_isr.c **** 
 656              		.loc 1 70 0
 657 000c 0720     		movs	r0, #7
 658 000e FFF7FEFF 		bl	Fault_isr_SetPriority
 659              	.LVL9:
  73:Generated_Source\PSoC5/Fault_isr.c **** }
 660              		.loc 1 73 0
 661 0012 FFF7FEFF 		bl	Fault_isr_Enable
 662              	.LVL10:
 663 0016 08BD     		pop	{r3, pc}
 664              	.L26:
 665              		.align	2
 666              	.L25:
 667 0018 00000000 		.word	Fault_isr_Interrupt
 668              		.cfi_endproc
 669              	.LFE0:
 670              		.size	Fault_isr_Start, .-Fault_isr_Start
 671              		.section	.text.Fault_isr_StartEx,"ax",%progbits
 672              		.align	2
 673              		.global	Fault_isr_StartEx
 674              		.thumb
 675              		.thumb_func
 676              		.type	Fault_isr_StartEx, %function
 677              	Fault_isr_StartEx:
 678              	.LFB1:
 105:Generated_Source\PSoC5/Fault_isr.c ****     /* For all we know the interrupt is active. */
 679              		.loc 1 105 0
 680              		.cfi_startproc
 681              		@ args = 0, pretend = 0, frame = 0
 682              		@ frame_needed = 0, uses_anonymous_args = 0
 683              	.LVL11:
 684 0000 10B5     		push	{r4, lr}
 685              		.cfi_def_cfa_offset 8
 686              		.cfi_offset 4, -8
 687              		.cfi_offset 14, -4
 688 0002 0446     		mov	r4, r0
 107:Generated_Source\PSoC5/Fault_isr.c **** 
 689              		.loc 1 107 0
 690 0004 FFF7FEFF 		bl	Fault_isr_Disable
 691              	.LVL12:
 110:Generated_Source\PSoC5/Fault_isr.c **** 
 692              		.loc 1 110 0
 693 0008 2046     		mov	r0, r4
 694 000a FFF7FEFF 		bl	Fault_isr_SetVector
 695              	.LVL13:
 113:Generated_Source\PSoC5/Fault_isr.c **** 
 696              		.loc 1 113 0
 697 000e 0720     		movs	r0, #7
 698 0010 FFF7FEFF 		bl	Fault_isr_SetPriority
 699              	.LVL14:
 116:Generated_Source\PSoC5/Fault_isr.c **** }
ARM GAS  C:\Users\Luggi\AppData\Local\Temp\ccU0ribR.s 			page 43


 700              		.loc 1 116 0
 701 0014 FFF7FEFF 		bl	Fault_isr_Enable
 702              	.LVL15:
 703 0018 10BD     		pop	{r4, pc}
 704              		.cfi_endproc
 705              	.LFE1:
 706              		.size	Fault_isr_StartEx, .-Fault_isr_StartEx
 707 001a 00BF     		.section	.text.Fault_isr_Stop,"ax",%progbits
 708              		.align	2
 709              		.global	Fault_isr_Stop
 710              		.thumb
 711              		.thumb_func
 712              		.type	Fault_isr_Stop, %function
 713              	Fault_isr_Stop:
 714              	.LFB2:
 135:Generated_Source\PSoC5/Fault_isr.c ****     /* Disable this interrupt. */
 715              		.loc 1 135 0
 716              		.cfi_startproc
 717              		@ args = 0, pretend = 0, frame = 0
 718              		@ frame_needed = 0, uses_anonymous_args = 0
 719 0000 08B5     		push	{r3, lr}
 720              		.cfi_def_cfa_offset 8
 721              		.cfi_offset 3, -8
 722              		.cfi_offset 14, -4
 137:Generated_Source\PSoC5/Fault_isr.c **** 
 723              		.loc 1 137 0
 724 0002 FFF7FEFF 		bl	Fault_isr_Disable
 725              	.LVL16:
 140:Generated_Source\PSoC5/Fault_isr.c **** }
 726              		.loc 1 140 0
 727 0006 0248     		ldr	r0, .L31
 728 0008 FFF7FEFF 		bl	Fault_isr_SetVector
 729              	.LVL17:
 730 000c 08BD     		pop	{r3, pc}
 731              	.L32:
 732 000e 00BF     		.align	2
 733              	.L31:
 734 0010 00000000 		.word	IntDefaultHandler
 735              		.cfi_endproc
 736              	.LFE2:
 737              		.size	Fault_isr_Stop, .-Fault_isr_Stop
 738              		.section	.text.Fault_isr_SetPending,"ax",%progbits
 739              		.align	2
 740              		.global	Fault_isr_SetPending
 741              		.thumb
 742              		.thumb_func
 743              		.type	Fault_isr_SetPending, %function
 744              	Fault_isr_SetPending:
 745              	.LFB11:
 353:Generated_Source\PSoC5/Fault_isr.c **** }
 354:Generated_Source\PSoC5/Fault_isr.c **** 
 355:Generated_Source\PSoC5/Fault_isr.c **** 
 356:Generated_Source\PSoC5/Fault_isr.c **** /*******************************************************************************
 357:Generated_Source\PSoC5/Fault_isr.c **** * Function Name: Fault_isr_SetPending
 358:Generated_Source\PSoC5/Fault_isr.c **** ********************************************************************************
 359:Generated_Source\PSoC5/Fault_isr.c **** *
 360:Generated_Source\PSoC5/Fault_isr.c **** * Summary:
ARM GAS  C:\Users\Luggi\AppData\Local\Temp\ccU0ribR.s 			page 44


 361:Generated_Source\PSoC5/Fault_isr.c **** *   Causes the Interrupt to enter the pending state, a software method of
 362:Generated_Source\PSoC5/Fault_isr.c **** *   generating the interrupt.
 363:Generated_Source\PSoC5/Fault_isr.c **** *
 364:Generated_Source\PSoC5/Fault_isr.c **** * Parameters:
 365:Generated_Source\PSoC5/Fault_isr.c **** *   None
 366:Generated_Source\PSoC5/Fault_isr.c **** *
 367:Generated_Source\PSoC5/Fault_isr.c **** * Return:
 368:Generated_Source\PSoC5/Fault_isr.c **** *   None
 369:Generated_Source\PSoC5/Fault_isr.c **** *
 370:Generated_Source\PSoC5/Fault_isr.c **** * Side Effects:
 371:Generated_Source\PSoC5/Fault_isr.c **** *   If interrupts are enabled and the interrupt is set up properly, the ISR is
 372:Generated_Source\PSoC5/Fault_isr.c **** *   entered (depending on the priority of this interrupt and other pending 
 373:Generated_Source\PSoC5/Fault_isr.c **** *   interrupts).
 374:Generated_Source\PSoC5/Fault_isr.c **** *
 375:Generated_Source\PSoC5/Fault_isr.c **** *******************************************************************************/
 376:Generated_Source\PSoC5/Fault_isr.c **** void Fault_isr_SetPending(void)
 377:Generated_Source\PSoC5/Fault_isr.c **** {
 746              		.loc 1 377 0
 747              		.cfi_startproc
 748              		@ args = 0, pretend = 0, frame = 0
 749              		@ frame_needed = 0, uses_anonymous_args = 0
 750              		@ link register save eliminated.
 378:Generated_Source\PSoC5/Fault_isr.c ****     *Fault_isr_INTC_SET_PD = Fault_isr__INTC_MASK;
 751              		.loc 1 378 0
 752 0000 0122     		movs	r2, #1
 753 0002 014B     		ldr	r3, .L34
 754 0004 1A60     		str	r2, [r3]
 755 0006 7047     		bx	lr
 756              	.L35:
 757              		.align	2
 758              	.L34:
 759 0008 00E200E0 		.word	-536813056
 760              		.cfi_endproc
 761              	.LFE11:
 762              		.size	Fault_isr_SetPending, .-Fault_isr_SetPending
 763              		.section	.text.Fault_isr_ClearPending,"ax",%progbits
 764              		.align	2
 765              		.global	Fault_isr_ClearPending
 766              		.thumb
 767              		.thumb_func
 768              		.type	Fault_isr_ClearPending, %function
 769              	Fault_isr_ClearPending:
 770              	.LFB12:
 379:Generated_Source\PSoC5/Fault_isr.c **** }
 380:Generated_Source\PSoC5/Fault_isr.c **** 
 381:Generated_Source\PSoC5/Fault_isr.c **** 
 382:Generated_Source\PSoC5/Fault_isr.c **** /*******************************************************************************
 383:Generated_Source\PSoC5/Fault_isr.c **** * Function Name: Fault_isr_ClearPending
 384:Generated_Source\PSoC5/Fault_isr.c **** ********************************************************************************
 385:Generated_Source\PSoC5/Fault_isr.c **** *
 386:Generated_Source\PSoC5/Fault_isr.c **** * Summary:
 387:Generated_Source\PSoC5/Fault_isr.c **** *   Clears a pending interrupt in the interrupt controller.
 388:Generated_Source\PSoC5/Fault_isr.c **** *
 389:Generated_Source\PSoC5/Fault_isr.c **** *   Note Some interrupt sources are clear-on-read and require the block 
 390:Generated_Source\PSoC5/Fault_isr.c **** *   interrupt/status register to be read/cleared with the appropriate block API 
 391:Generated_Source\PSoC5/Fault_isr.c **** *   (GPIO, UART, and so on). Otherwise the ISR will continue to remain in 
 392:Generated_Source\PSoC5/Fault_isr.c **** *   pending state even though the interrupt itself is cleared using this API.
ARM GAS  C:\Users\Luggi\AppData\Local\Temp\ccU0ribR.s 			page 45


 393:Generated_Source\PSoC5/Fault_isr.c **** *
 394:Generated_Source\PSoC5/Fault_isr.c **** * Parameters:
 395:Generated_Source\PSoC5/Fault_isr.c **** *   None
 396:Generated_Source\PSoC5/Fault_isr.c **** *
 397:Generated_Source\PSoC5/Fault_isr.c **** * Return:
 398:Generated_Source\PSoC5/Fault_isr.c **** *   None
 399:Generated_Source\PSoC5/Fault_isr.c **** *
 400:Generated_Source\PSoC5/Fault_isr.c **** *******************************************************************************/
 401:Generated_Source\PSoC5/Fault_isr.c **** void Fault_isr_ClearPending(void)
 402:Generated_Source\PSoC5/Fault_isr.c **** {
 771              		.loc 1 402 0
 772              		.cfi_startproc
 773              		@ args = 0, pretend = 0, frame = 0
 774              		@ frame_needed = 0, uses_anonymous_args = 0
 775              		@ link register save eliminated.
 403:Generated_Source\PSoC5/Fault_isr.c ****     *Fault_isr_INTC_CLR_PD = Fault_isr__INTC_MASK;
 776              		.loc 1 403 0
 777 0000 0122     		movs	r2, #1
 778 0002 014B     		ldr	r3, .L37
 779 0004 1A60     		str	r2, [r3]
 780 0006 7047     		bx	lr
 781              	.L38:
 782              		.align	2
 783              	.L37:
 784 0008 80E200E0 		.word	-536812928
 785              		.cfi_endproc
 786              	.LFE12:
 787              		.size	Fault_isr_ClearPending, .-Fault_isr_ClearPending
 788              		.text
 789              	.Letext0:
 790              		.file 2 "Generated_Source\\PSoC5/cytypes.h"