ARM GAS  C:\Users\Luggi\AppData\Local\Temp\ccvPoVQT.s 			page 1


   1              		.syntax unified
   2              		.cpu cortex-m3
   3              		.fpu softvfp
   4              		.eabi_attribute 20, 1
   5              		.eabi_attribute 21, 1
   6              		.eabi_attribute 23, 3
   7              		.eabi_attribute 24, 1
   8              		.eabi_attribute 25, 1
   9              		.eabi_attribute 26, 1
  10              		.eabi_attribute 30, 1
  11              		.eabi_attribute 34, 1
  12              		.eabi_attribute 18, 4
  13              		.thumb
  14              		.file	"IDAC8_1.c"
  15              		.text
  16              	.Ltext0:
  17              		.section	.gnu.lto_.profile.53c7a929,"",%progbits
  18 0000 789C6366 		.ascii	"x\234cf```e\200\000F\206~Fw\000\002\200\000\341"
  18      60606065 
  18      80004686 
  18      7E467700 
  18      028000E1 
  19              		.text
  20              		.section	.gnu.lto_.inline.53c7a929,"",%progbits
  21 0000 789C6366 		.ascii	"x\234cf\300\016\336AiN \342`d`\342y\020\313\300\266"
  21      C00EDE41 
  21      694E20E2 
  21      606460E2 
  21      7910CBC0 
  22 0015 409E0924 		.ascii	"@\236\011$\306\210)\304\304\300\305\311\310\010\224"
  22      C68829C4 
  22      C4C0C5C9 
  22      C80894
  23 0024 6160860B 		.ascii	"a`\206\0133]\340g\001\31113\2600\003\225\003\271p\345"
  23      335DE067 
  23      01C93133 
  23      B0300395 
  23      03B970E5 
  24 0038 2C0C7CBC 		.ascii	",\014|\274@!\261'K\031\341b\254\014\\\322@1\216\003"
  24      4021B127 
  24      4B19E162 
  24      AC0C5CD2 
  24      40318E03 
  25 004c 76088BB8 		.ascii	"v\010\213\270@Fs\203ldc\340\226\003\311\3762A\330\011"
  25      40467383 
  25      6C6463E0 
  25      9603C9FE 
  25      3241D809 
  26 0060 9600AB01 		.ascii	"\226\000\253\001\023\034\014\334\302\270\334\000V\300"
  26      131C0CDC 
  26      C2B8DC00 
  26      56C0
  27 006e 49480103 		.ascii	"IH\001\003\000\370]\027Q"
  27      00F85D17 
  27      51
  28              		.text
  29              		.section	.gnu.lto_.jmpfuncs.53c7a929,"",%progbits
ARM GAS  C:\Users\Luggi\AppData\Local\Temp\ccvPoVQT.s 			page 2


  30 0000 789C6366 		.ascii	"x\234cf\300\016\302\2404'\0203200122\3263\203\010\026"
  30      C00EC2A0 
  30      34271033 
  30      32303031 
  30      3232D633 
  31 0017 06065690 		.ascii	"\006\006V\220\030\323G&\306Y\327\237~a~\301\364\223"
  31      18D34726 
  31      C659D79F 
  31      7E617EC1 
  31      F493
  32 0029 89818981 		.ascii	"\211\201\211\201q9\243\024\003\033T\342\374\333\256"
  32      7139A314 
  32      031B54E2 
  32      FCDBAE
  33 0038 33600946 		.ascii	"3`\011F{\006\306\025@\011\006\006\016\220f\006N0\311"
  33      7B06C615 
  33      40090606 
  33      0E906606 
  33      4E30C9
  34 004b 0000B1D7 		.ascii	"\000\000\261\327\020t"
  34      1074
  35              		.text
  36              		.section	.gnu.lto_.pureconst.53c7a929,"",%progbits
  37 0000 789C6366 		.ascii	"x\234cf``\020f\200\000N\006)F)&)f)\026)V)6\011\016)"
  37      60601066 
  37      80004E06 
  37      29462926 
  37      29662916 
  38 001b 4E29000C 		.ascii	"N)\000\014N\001."
  38      4E012E
  39              		.text
  40              		.section	.gnu.lto_IDAC8_1_Enable.53c7a929,"",%progbits
  41 0000 789C6366 		.ascii	"x\234cf\300\004R@\274\211\221\201A\031H32302M8\307\300"
  41      C0045240 
  41      BC899181 
  41      41194833 
  41      32333032 
  42 0018 D0C8C1C4 		.ascii	"\320\310\301\304\310\010b002\32431\3263\276d\372\310"
  42      C8086230 
  42      3032D433 
  42      31D633BE 
  42      64FAC8
  43 002b C438E1C0 		.ascii	"\3048\341\300\352\031\334\352K\033\032\032>|\332-\321"
  43      EA19DCEA 
  43      4B1B1A1A 
  43      3E7CDA2D 
  43      D1
  44 003c 2AF19389 		.ascii	"*\361\223\211\201\3413\023\304\030\306\345\214\352\014"
  44      81E13313 
  44      C418C6E5 
  44      8CEA0C
  45 004b 40351F5B 		.ascii	"@5\037[\376^\347fk\001\252\021\200\3101\256`d\003\032"
  45      FE5EE766 
  45      6B01AA11 
  45      80C831AE 
  45      6064031A 
  46 005f CFB05EE8 		.ascii	"\317\260^\350@\303\377\377\233\277L|a\317\310\301\304"
ARM GAS  C:\Users\Luggi\AppData\Local\Temp\ccvPoVQT.s 			page 3


  46      40C3FFFF 
  46      9BBF4C7C 
  46      61CFC8C1 
  46      C4
  47 0070 F0930968 		.ascii	"\360\223\011h\031\220`\005\021l \202\201\341\011P=\310"
  47      19906005 
  47      116C2082 
  47      81E10950 
  47      3DC8
  48 0082 D2A74C4C 		.ascii	"\322\247LL \232\371\026\343\241o]\347\346E\200\214\370"
  48      209AF916 
  48      E3A16F5D 
  48      E7E64580 
  48      8CF8
  49 0094 CE0472C1 		.ascii	"\316\004r\301\344\333\233\3773\277`\372\311\304\264"
  49      E4DB9BFF 
  49      33BF60FA 
  49      C9C4B4
  50 00a3 A2BDB181 		.ascii	"\242\275\261\201\005d\341\375'\347/r\200\205\030@\334"
  50      0564E1FD 
  50      27E72F72 
  50      80851840 
  50      DC
  51 00b4 B74BBF3D 		.ascii	"\267K\277=\340\235\3138\273\261\205\361'\0233\343JF"
  51      E09DCB38 
  51      BBB185F1 
  51      271333E3 
  51      4A46
  52 00c6 29C6558C 		.ascii	")\306U\214@?2\256f\234\313\310p\213\261\371\013\033"
  52      403F32AE 
  52      669CCBC8 
  52      708BB1F9 
  52      0B1B
  53 00d8 C4386688 		.ascii	"\3048f\210\211\263\256?\375\0026\221\221\211\201q\015"
  53      89B3AE3F 
  53      FD023691 
  53      91898171 
  53      0D
  54 00e9 5025D0D2 		.ascii	"P%\320\322I\214 %\370\014[\0134\014h\004\003\330\205"
  54      498C2025 
  54      F80C5B0B 
  54      340C6804 
  54      03D885
  55 00fc D7E61541 		.ascii	"\327\346\025A\214d\005j\231\276\350\301sv\260sv\300"
  55      8C64056A 
  55      99BEE8C1 
  55      7376B073 
  55      76C0
  56 010e 5CD8B1F3 		.ascii	"\\\330\261\363\323ef\204)\353\340\246\254Gs\022\310"
  56      D3656684 
  56      29EBE0A6 
  56      AC477312 
  56      C8
  57 011f 080C37E0 		.ascii	"\010\0147\340\324\275\001\354\0066\206{\214\215\007"
  57      D4BD01EC 
  57      0636867B 
  57      8C8D07
ARM GAS  C:\Users\Luggi\AppData\Local\Temp\ccvPoVQT.s 			page 4


  58 012e FEBB8354 		.ascii	"\376\273\203T\203\342\341\0110 \201a\007\014\014E\367"
  58      83E2E109 
  58      30208161 
  58      070C0C45 
  58      F7
  59 013f D4BCD4A2 		.ascii	"\324\274\324\242\304\222\324\224\370\340\374\322\242"
  59      C492D494 
  59      F8E0FCD2 
  59      A2
  60 014c E4D49880 		.ascii	"\344\324\230\200\340|g\323\030O\027Gg\213xC\275d\006"
  60      E07C67D3 
  60      184F1747 
  60      678B7843 
  60      BD6406
  61 015f 003BF1A2 		.ascii	"\000;\361\242("
  61      28
  62              		.text
  63              		.section	.gnu.lto_IDAC8_1_Stop.53c7a929,"",%progbits
  64 0000 789C6366 		.ascii	"x\234cf\300\004R@\274\231\221\201A\031H32302M8\307\300"
  64      C0045240 
  64      BC999181 
  64      41194833 
  64      32333032 
  65 0018 D0C8C1C4 		.ascii	"\320\310\301\304\310\010b002\32431\3263\276d\372\310"
  65      C8086230 
  65      3032D433 
  65      31D633BE 
  65      64FAC8
  66 002b C438E1C0 		.ascii	"\3048\341\300\352\031\334\352K\033\032\032>|\272+\321"
  66      EA19DCEA 
  66      4B1B1A1A 
  66      3E7CBA2B 
  66      D1
  67 003c 2AF19389 		.ascii	"*\361\223\211\201\3413\023\304\030\306\345\214\352\014"
  67      81E13313 
  67      C418C6E5 
  67      8CEA0C
  68 004b 40351F5B 		.ascii	"@5\037[\376^\347fk\001\252\021\200\3101\256`d\003\032"
  68      FE5EE766 
  68      6B01AA11 
  68      80C831AE 
  68      6064031A 
  69 005f CFB05EE8 		.ascii	"\317\260^\350@\303\377\377\233\377L:\241\314\314\301"
  69      40C3FFFF 
  69      9BFF4C3A 
  69      A1CCCCC1 
  70 006f C4F09309 		.ascii	"\304\360\223\011h\031\220`\005\021l \202\201\341\011"
  70      68199060 
  70      05116C20 
  70      8281E109 
  71 007f 503DC8D2 		.ascii	"P=\310\322\247LL \232\371\026\343\241o]\327\326G\200"
  71      A74C4C20 
  71      9AF916E3 
  71      A16F5DD7 
  71      D64780
  72 0092 8CF8CE04 		.ascii	"\214\370\316\004r\301\344\333\233\3773\277`\372\311"
  72      72C1E4DB 
ARM GAS  C:\Users\Luggi\AppData\Local\Temp\ccvPoVQT.s 			page 5


  72      9BFF33BF 
  72      60FAC9
  73 00a1 C4B4A2BD 		.ascii	"\304\264\242\275\261\201\005d\341\375'\347/r\200\205"
  73      B1810564 
  73      E1FD27E7 
  73      2F728085 
  74 00b1 1840DCB7 		.ascii	"\030@\334\267K\277=\340\235\3138\273\261\205\361'\023"
  74      4BBF3DE0 
  74      9DCB38BB 
  74      B185F127 
  74      13
  75 00c2 33E34A46 		.ascii	"3\343JF)\306U\214@?2\256f\234\313\310p\213\261\371\007"
  75      29C6558C 
  75      403F32AE 
  75      669CCBC8 
  75      708BB1F9 
  76 00d7 1BC43866 		.ascii	"\033\3048f\210\211\013\366\334\353\345\001ig\376\313"
  76      88890BF6 
  76      DCEBE501 
  76      6967FECB 
  77 00e7 C8C0B806 		.ascii	"\310\300\270\006\250\024h\353$F\220\032|\246\255\005"
  77      A81468EB 
  77      2446901A 
  77      7CA6AD05 
  78 00f7 9A063483 		.ascii	"\232\0064\203\001\354\304{\353\213 f\262\002\265L_\364"
  78      01ECC47B 
  78      EB8B2066 
  78      B202B54C 
  78      5FF4
  79 0109 E0393BD8 		.ascii	"\3409;\330=;`N\354\330\371\35123\302\224upS\326\243"
  79      3D3B604E 
  79      ECD8F9E9 
  79      3233C294 
  79      757053D6 
  80 011e B9096404 		.ascii	"\271\011d\004\206\033p\352\336\000v\003\033\303=\306"
  80      861B70EA 
  80      DE007603 
  80      1BC33DC6 
  81 012e C60373FD 		.ascii	"\306\003s\375@\252A\021\361\004\030\222\300\300\003"
  81      40AA4111 
  81      F1041892 
  81      C0C003
  82 013d 8686A27B 		.ascii	"\206\206\242{j^jQbIjJ|p~iQrjL@p\276\263i\214\247\213"
  82      6A5E6A51 
  82      62496A4A 
  82      7C707E69 
  82      51726A4C 
  83 0159 A3B345BC 		.ascii	"\243\263E\274\241^2\003\000#\374\242}"
  83      A15E3203 
  83      0023FCA2 
  83      7D
  84              		.text
  85              		.section	.gnu.lto_IDAC8_1_SetSpeed.53c7a929,"",%progbits
  86 0000 789C8D51 		.ascii	"x\234\215QK(\204Q\024>\337\2753\277?\024Yiv\212\244"
  86      4B288451 
  86      143EDFBD 
  86      33BF3F14 
ARM GAS  C:\Users\Luggi\AppData\Local\Temp\ccvPoVQT.s 			page 6


  86      5969768A 
  87 0015 44164AD9 		.ascii	"D\026J\331\020%\033\311l\225\304\277E\036k\377\230\337"
  87      10251BC9 
  87      6C95C4BF 
  87      451E6BFF 
  87      98DF
  88 0027 82125152 		.ascii	"\202\022QR\232\222G\336\317-\362\307\316b$\013\245<"
  88      9A9247DE 
  88      CF2DF2C7 
  88      CE62240B 
  88      A53C
  89 0039 D22836F2 		.ascii	"\322(6\362\312\230\205\3069\363[Qr\353\236s\356\355"
  89      CA9885C6 
  89      39F35B51 
  89      72EB9E73 
  89      EEED
  90 004b 7B9C7BAE 		.ascii	"{\234{\256\246\337+\300\333\247\210\2128C\023\324X\224"
  90      A6DF2BC0 
  90      DBA7888A 
  90      384313D4 
  90      5894
  91 005d 28642A40 		.ascii	"(d*@\012\002\365+\364\343A=+\214\271\253S\031\205\013"
  91      0A02F52B 
  91      F4E3413D 
  91      2B8CB9AB 
  91      5319850B 
  92 0071 B66D3FCD 		.ascii	"\266m?\315\306s\007s\023L{U\236\014\026Q\310\220\260"
  92      C6730773 
  92      134C7B55 
  92      9E0C1651 
  92      C890B0
  93 0084 7B7B60EA 		.ascii	"{{`\352|\020\327\223\013C\373Y\005s\266=\340\356o\330"
  93      7C10D793 
  93      0B43FB59 
  93      0573B63D 
  93      E0EE6FD8 
  94 0098 5548B0E6 		.ascii	"UH\260\346\02243P\034@Q\200\370\202\260\214\002\001"
  94      12343350 
  94      1C405180 
  94      F882B08C 
  94      0201
  95 00aa 3F3B9FE7 		.ascii	"?;\237\347\031\206\303\332\331\236&V`\200\363f\216k"
  95      1986C3DA 
  95      D99E2656 
  95      6080F366 
  95      8E6B
  96 00bc 2793AF97 		.ascii	"'\223\257\227\023\367\245:]1Gi\011~\011\006\204\236"
  96      13F7A53A 
  96      5D314769 
  96      097E0906 
  96      849E
  97 00ce 26A52981 		.ascii	"&\245)\201(\306[\372\276\343\003g}\201\303\367\341\307"
  97      28C65BFA 
  97      BEE30367 
  97      7D81C3F7 
  97      E1C7
  98 00e0 DD26518B 		.ascii	"\335&Q\213+y\204\263\030\215\244\337\253\204\322\363"
ARM GAS  C:\Users\Luggi\AppData\Local\Temp\ccvPoVQT.s 			page 7


  98      2B7984B3 
  98      188DA4DF 
  98      AB84D2F3 
  99 00f0 5B21DB27 		.ascii	"[!\333'\336\327\261\223S3uEr<s\334c#\202\351\220\303"
  99      DED7B193 
  99      53337545 
  99      723C73DC 
  99      632382E9 
 100 0106 2DFBB08A 		.ascii	"-\373\260\212\000\326\300c\302:\"\240\013\204?\014O"
 100      00D6C063 
 100      C23A22A0 
 100      0B843F0C 
 100      4F
 101 0117 4E7B8A33 		.ascii	"N{\2123{W#\231B\367}\362{6\030\312\256\343\020\314_"
 101      7B572399 
 101      42F77DF2 
 101      7B3618CA 
 101      AEE310CC 
 102 012c 6A9BACC6 		.ascii	"j\233\254\306\032\224j\361\245\322\223\364\377\305\330"
 102      1A946AF1 
 102      A5D293F4 
 102      FFC5D8
 103 013b FAE19F16 		.ascii	"\372\341\237\026W\342prs4\352\371\363d\267S\366\341"
 103      57E27072 
 103      7334EAF9 
 103      F364B753 
 103      F6E1
 104 014d B76F88C9 		.ascii	"\267o\210\311\222\014\374_G;\251\216L\272B\310M6\010"
 104      920CFC5F 
 104      473BA98E 
 104      4CBA42C8 
 104      4D3608
 105 0160 5A7E36C6 		.ascii	"Z~6\306\277\304\243\344\301\346\325Y\035Vwk\257\325"
 105      BFC4A3E4 
 105      C1E6D559 
 105      1D56776B 
 105      AFD5
 106 0172 DE12ECEC 		.ascii	"\336\022\354\354\353n\263\232\033\203\2355\345\315\365"
 106      EB6EB39A 
 106      1B839D35 
 106      E5CDF5
 107 0181 B5D53515 		.ascii	"\265\3255\025-e%m\344\357\351\262\254\366/\357B\271"
 107      2D65256D 
 107      E4EFE9B2 
 107      ACF62FEF 
 107      42B9
 108 0193 8B       		.ascii	"\213"
 109              		.text
 110              		.section	.gnu.lto_IDAC8_1_SetValue.53c7a929,"",%progbits
 111 0000 789C6366 		.ascii	"x\234cf\300\004R@\314\311\310\300\240\011\244\031\231"
 111      C0045240 
 111      CCC9C8C0 
 111      A009A419 
 111      99
 112 0011 19189926 		.ascii	"\031\030\231&\234c`h\344`bd\0041\030\030\031\352\231"
 112      9C636068 
 112      E4606264 
ARM GAS  C:\Users\Luggi\AppData\Local\Temp\ccvPoVQT.s 			page 8


 112      04311818 
 112      19EA99
 113 0024 18EB195F 		.ascii	"\030\353\031_2}db\234p`\365\014n\365\245\015\015\015"
 113      327D6462 
 113      9C7060F5 
 113      0C6EF5A5 
 113      0D0D0D
 114 0037 1F16CD96 		.ascii	"\037\026\315\226l\225\370\311\304\300\360\231\011b\014"
 114      6C95F8C9 
 114      C4C0F099 
 114      09620C
 115 0046 E3724675 		.ascii	"\343rFu\240\222\317\253\033\24603\25302\000\331\033"
 115      A092CFAB 
 115      1BA63033 
 115      AB303200 
 115      D91B
 116 0058 2E9EFDC7 		.ascii	".\236\375\307\256\272\270\241\241\351\300\336u\015\016"
 116      AEBAB8A1 
 116      A1E9C0DE 
 116      750D0E
 117 0067 8C3F8166 		.ascii	"\214?\201f\256`d\006\352`\324\221b\324\224b\000\012"
 117      AE606406 
 117      EA60D491 
 117      62D49462 
 117      000A
 118 0079 3030AE64 		.ascii	"00\256dT\005)\376\330\362\367:7[\013\320l\001\210\231"
 118      540529FE 
 118      D8F2F73A 
 118      375B0BD0 
 118      6C018899 
 119 008d 8CAB18D9 		.ascii	"\214\253\030\331\200\316bX/t\240\341\377\377\317o\247"
 119      80CE6258 
 119      2F74A0E1 
 119      FFFFCF6F 
 119      A7
 120 009e 74D8B1B0 		.ascii	"t\330\261\260\000M\000\251gx\002T\001r\336S&&\020\315"
 120      004D00A9 
 120      67780254 
 120      0172DE53 
 120      262610CD 
 121 00b2 7C8BF1D0 		.ascii	"|\213\361\320\264\217_\226\260\2024\001\015\273\363"
 121      B48F5F96 
 121      B0823401 
 121      0DBBF3
 122 00c1 FDC74EA6 		.ascii	"\375\307N\246\027L?\231\230\032\26776\260\200\314\277"
 122      174C3F99 
 122      981AB737 
 122      36B080CC 
 122      BF
 123 00d2 FFE4FC45 		.ascii	"\377\344\374E\016\260\020\003\210{y\343\343\362\271"
 123      0EB01003 
 123      887B79E3 
 123      E3F2B9
 124 00e1 8CB31B5B 		.ascii	"\214\263\033[\032\017\260\376dbf\\\315(\305\270\206"
 124      1A0FB0FE 
 124      6462665C 
 124      CD28C5B8 
ARM GAS  C:\Users\Luggi\AppData\Local\Temp\ccvPoVQT.s 			page 9


 124      86
 125 00f2 1118168C 		.ascii	"\021\030\026\214k\031\3472~\007\252\272\307\330x\340"
 125      6B19E732 
 125      7E07AABA 
 125      C7D878E0 
 126 0102 6330C840 		.ascii	"c0\310@\220\367\236\000\235\012\264\010\250Y\321=5/"
 126      90F79E00 
 126      9D0AB408 
 126      A859D13D 
 126      352F
 127 0114 B528B124 		.ascii	"\265(\261$5%>8\277\264(95& 8\337\3314\306\323\305\321"
 127      35253E38 
 127      BFB42839 
 127      35262038 
 127      DFD934C6 
 128 012b D922DE50 		.ascii	"\331\"\336P/\231\201\265,1\2474\025\000\024\030l,"
 128      2F9981B5 
 128      2C31A734 
 128      15001418 
 128      6C2C
 129              		.text
 130              		.section	.gnu.lto_IDAC8_1_DacTrim.53c7a929,"",%progbits
 131 0000 789C6552 		.ascii	"x\234eRMHTQ\030\375\276{\337{\363\253\015\321\242fa"
 131      4D485451 
 131      18FDBE7B 
 131      DF7BF3AB 
 131      0DD1A266 
 132 0015 84820591 		.ascii	"\204\202\005\221\205\004\021m\302 \332\005\006m\004"
 132      8504116D 
 132      C220DA05 
 132      066D04
 133 0024 099D458B 		.ascii	"\011\235E\213\032\220l\321\30673\3171C\310&\"3\0062"
 133      1A906CD1 
 133      C63733CF 
 133      3143C826 
 133      22330632 
 134 0038 1AADAC34 		.ascii	"\032\255\2544\2554+\030\244D\302\024i\262\032\207\321"
 134      AD342B18 
 134      A444C214 
 134      69B21A87 
 134      D1
 135 0049 855AD622 		.ascii	"\205Z\326\"E\320&\212\351\273\367\216\246\364\340\335"
 135      45D0268A 
 135      E9BBF78E 
 135      A6F4E0DD 
 136 0059 9FF3CE77 		.ascii	"\237\363\316w\356\371\316}\034\376\177J\351=\317\001"
 136      EEF9CE7D 
 136      1CFE7F4A 
 136      E93DCF01 
 137 0069 76D28C3A 		.ascii	"v\322\214: k\036\005\010\330\031\343\211\0220\235\332"
 137      206B1E05 
 137      08D819E3 
 137      8912309D 
 137      DA
 138 007a CB0230DD 		.ascii	"\313\0020\335\0345\005k\210b\001\010u\214kX\207\363"
 138      1C35056B 
 138      88620108 
ARM GAS  C:\Users\Luggi\AppData\Local\Temp\ccvPoVQT.s 			page 10


 138      758C6B58 
 138      87F3
 139 008c 6C916173 		.ascii	"l\221as\274\263\305U\0343Ms!\330\267\255~k\206\001,"
 139      BCB3C555 
 139      1C334D73 
 139      21D8B7AD 
 139      7E6B8601 
 140 00a1 31A58F1D 		.ascii	"1\245\217\035X\014\304\371\222\231\357\310\343E(\326"
 140      580CC4F9 
 140      9299EFC8 
 140      E34528D6 
 141 00b1 DF626F16 		.ascii	"\337bo\026\034\205m\246\031\234\036\370>\3442[Lk:\233"
 141      1C856DA6 
 141      199C1EF8 
 141      3EE4325B 
 141      4C6B3A9B 
 142 00c5 DD9E6188 		.ascii	"\335\236a\210w\221S%\356\366\342.o\316!\025,Z\177>\272"
 142      77915325 
 142      EEF6E22E 
 142      6FCE2115 
 142      2C5A7F3E 
 143 00da 0C8B0EF0 		.ascii	"\014\213\016\360\340=,T\342x\037\015\244I ]\233\343"
 143      E03D2C54 
 143      E2781F0D 
 143      A449205D 
 143      9BE3
 144 00ec 6636BB94 		.ascii	"f6\273\224\272v\261T\367 \010\210C\2061\215\006\256"
 144      BA76B154 
 144      F7200888 
 144      4386318D 
 144      06AE
 145 00fe 8BC190A0 		.ascii	"\213\301\220\240M\200v18\344\336)\226.\361\335-\206"
 145      4D807631 
 145      38E4DE29 
 145      962EF1DD 
 145      2D86
 146 0110 3C1AB47C 		.ascii	"<\032\264|\201\001\314\320+z\235\245\015\315<\211\203"
 146      8101CCD0 
 146      2B7A9DA5 
 146      0DCD3C89 
 146      83
 147 0121 CB97E626 		.ascii	"\313\227\346&\017\211cW\030'WV\307h\324\371\225e\230"
 147      0F896357 
 147      18275756 
 147      C768D4F9 
 147      956598
 148 0134 7EA73B60 		.ascii	"~\247;`j\302\350\324\314\330\270]B\322\367{+\376\326"
 148      6AC2E8D4 
 148      CCD8B85D 
 148      42D2F77B 
 148      2BFED6
 149 0147 88E2CD80 		.ascii	"\210\342\315\200\205\031f`'z\361\001R_\370\020\243\010"
 149      85196660 
 149      277AF101 
 149      525FF810 
 149      A308
 150 0159 490CFD0C 		.ascii	"I\014\375\014'\270\022t*\315\225\372\205F\251\311\334"
ARM GAS  C:\Users\Luggi\AppData\Local\Temp\ccvPoVQT.s 			page 11


 150      27B81274 
 150      2ACD95FA 
 150      8546A9C9 
 150      DC
 151 016a 808F889B 		.ascii	"\200\217\210\233\304`\332\246(\032\261DQ:\374\332P\210"
 151      C460DAA6 
 151      281AB144 
 151      513AFCDA 
 151      5088
 152 017c 4E201649 		.ascii	"N \026I\322\247\206\004*P\3400\201L\346C=\022\002\322"
 152      D2A78604 
 152      2A50E030 
 152      814CE643 
 152      3D1202D2 
 153 0190 FCF2E405 		.ascii	"\374\362\344\005\305\260\321A\227\177\274\332+\215\306"
 153      C5B0D141 
 153      977FBCDA 
 153      2B8DC6
 154 019f 56BDF7DC 		.ascii	"V\275\367\334\236\376\275\316l\327\232\331\356\177f"
 154      9EFEBDCE 
 154      6CD79AD9 
 154      EE7F66
 155 01ae 75256057 		.ascii	"u%`W\032\003\221\341\026C\232\325\000\037\023\367\003"
 155      1A0391E1 
 155      16439AD5 
 155      001F13F7 
 155      03
 156 01bf 5A9F4305 		.ascii	"Z\237C\0059\016\021\002\355/\232l\222@2=\250nt\226q"
 156      390E1102 
 156      ED2F9A6C 
 156      9240323D 
 156      A86E7496 
 157 01d4 4894509E 		.ascii	"H\224P\236\241Hx(uP\261\035\344\222\012\306[\333C\233"
 157      A1487828 
 157      7550B11D 
 157      E4920AC6 
 157      5BDB439B 
 158 01e8 4401D225 		.ascii	"D\001\322%\366R\301\206>\034\262Z\223\3271\201A\017"
 158      F652C186 
 158      3E1CB25A 
 158      93D73181 
 158      410F
 159 01fa 28186548 		.ascii	"(\030eH\015\351\324\011\245\345RP(\222K\311M\020i\307"
 159      0DE9D409 
 159      A5E55250 
 159      28924BC9 
 159      4D1069C7 
 160 020e 97AF4F49 		.ascii	"\227\257OI\267\274;h\016\223\343'\033\343\315#\246\014"
 160      B7BC3B68 
 160      0E93E327 
 160      1BE3CD23 
 160      A60C
 161 0220 CAA9F6F9 		.ascii	"\312\251\366\371\353\357S\223\367\331z\245\177\302\261"
 161      EBEF5393 
 161      F7D97AA5 
 161      7FC2B1
 162 022f 1A918D4A 		.ascii	"\032\221\215J\360\251L\350\231Jh0\322\266E\324\022\263"
ARM GAS  C:\Users\Luggi\AppData\Local\Temp\ccvPoVQT.s 			page 12


 162      F0A94CE8 
 162      994A6830 
 162      D2B645D4 
 162      12B3
 163 0241 77E4EA28 		.ascii	"w\344\352(\223\37166\345\362}\367+vK\025\007\342\272"
 163      93F93636 
 163      E5F27DF7 
 163      2B764B15 
 163      07E2BA
 164 0254 48B86F2D 		.ascii	"H\270o-\341~\252\247\003!\215\201\370\215\223B\202:"
 164      E17EAAA7 
 164      03218D81 
 164      F88D9342 
 164      823A
 165 0266 9D43C20C 		.ascii	"\235C\302\0146\322w\232:\347M\317k\351\227D\321;\205"
 165      36D2779A 
 165      3AE74DCF 
 165      6BE99744 
 165      D13B85
 166 0279 B9E3A8EF 		.ascii	"\271\343\250\357\254\257\346\3249_ue\271\277\266\246"
 166      ACAFE6D4 
 166      395F7565 
 166      B9BFB6A6 
 167 0289 CA5771BC 		.ascii	"\312Wq\274\334_\266\277\342\330\221\303e\007*\367\355"
 167      DC5FB6BF 
 167      E2D891C3 
 167      65072AF7 
 167      ED
 168 029a A902ED8C 		.ascii	"\251\002\355\214\277\332\367\0276\\9\261"
 168      BFDAF717 
 168      365C39B1 
 169              		.text
 170              		.section	.gnu.lto_IDAC8_1_Init.53c7a929,"",%progbits
 171 0000 789C7591 		.ascii	"x\234u\221M(DQ\024\307\317\377\274\231gb#+f'\013\331"
 171      4D284451 
 171      14C7CFFF 
 171      BC996762 
 171      232B6627 
 172 0016 8885B215 		.ascii	"\210\205\262\025\221\235\262\223\222\230-%\226\362^"
 172      919DB293 
 172      92982D25 
 172      96F25E
 173 0025 DE421648 		.ascii	"\336B\026H\026>\032\013\231\306\2671l\351Q,,F\262P\362"
 173      163E1A0B 
 173      99C6B731 
 173      6CE9512C 
 173      2C46B250 
 174 003a B5A028E5 		.ascii	"\265\240(\345cD/\30493(\341\326\355\336{\316\377\377"
 174      63442FC4 
 174      393328E1 
 174      D6EDDE7B 
 174      CEFFFF
 175 004d 3BE7DE6B 		.ascii	";\347\336k\320\357\021\224\351\201\250@V\030\004\036"
 175      D0EF1194 
 175      E981A840 
 175      5618041E 
 176 005d 4A10D901 		.ascii	"J\020\331\001\006tC\240\036F\017\256\371\2361\344\316"
ARM GAS  C:\Users\Luggi\AppData\Local\Temp\ccvPoVQT.s 			page 13


 176      067443A0 
 176      1E460FAE 
 176      F99E31E4 
 176      CE
 177 006e 8F661546 		.ascii	"\217f\025F,\313\272\233\332\263\353\\xL\224\3444\007"
 177      2CCBBA9B 
 177      DAB3EB5C 
 177      784C94E4 
 177      3407
 178 0080 51149288 		.ascii	"Q\024\222\210\356\235\267\303,\323\021Qv:\207\031\230"
 178      EE9DB7C3 
 178      2CD31151 
 178      763A8719 
 178      98
 179 0091 C2A7E51C 		.ascii	"\302\247\345\034\327z\177O\256o>\231\001\037y,\261\013"
 179      D77A7F4F 
 179      AE6F3E99 
 179      011F792C 
 179      B10B
 180 00a3 C96B954B 		.ascii	"\311k\225Kf]\215#l\335\3056\212\324!$'\232\010g^\261"
 180      665D8D23 
 180      6CDDC536 
 180      8AD42124 
 180      279A0867 
 181 00b9 C73C1DB3 		.ascii	"\307<\035\263-\237\302\317.\366\366\003\251\020\351"
 181      2D9FC2CF 
 181      2EF6F603 
 181      A910E9
 182 00c8 F1C07177 		.ascii	"\361\300qw\3150&l\307v\375\036\033\230E\020s\220+a\036"
 182      CD30266C 
 182      C776FD1E 
 182      1B984510 
 182      73902B61 
 183 00dd 6188E226 		.ascii	"a\210\342&\356\214\260\032\214\\\302\202dR%\266\367"
 183      EE8CB01A 
 183      8C5CC282 
 183      645225B6 
 183      F7
 184 00ee FD9F3506 		.ascii	"\375\2375\006o\327KR\274\310W\211\370\324\371\353\027"
 184      6FD74B52 
 184      BCC85789 
 184      F8D4F9EB 
 184      17
 185 00ff 334F998B 		.ascii	"3O\231\213\337\314\2454\363\273\011Cb\313i\346S\177"
 185      DFCCA534 
 185      F3BB0943 
 185      62CB69E6 
 185      537F
 186 0111 62AC4199 		.ascii	"b\254A\231\317\354\373\001\301ODL\020\252\037\306g\003"
 186      CFECFB01 
 186      C14F444C 
 186      10AA1FC6 
 186      6703
 187 0123 FF2A5744 		.ascii	"\377*WD)0:\206\343\236\354\260\312\265\275\311\203\201"
 187      29303A86 
 187      E39EECB0 
 187      CAB5BDC9 
ARM GAS  C:\Users\Luggi\AppData\Local\Temp\ccvPoVQT.s 			page 14


 187      8381
 188 0135 25EE7EB1 		.ascii	"%\356~\261\372\254\200\307\276\244\276\"\342\350\326"
 188      FAAC80C7 
 188      BEA4BE22 
 188      E2E8D6
 189 0144 D4F8E1E5 		.ascii	"\324\370\341\345\243\241}\201\011\253\010z\354\027w"
 189      A3A17D81 
 189      09AB087A 
 189      EC1777
 190 0153 AFFB60FE 		.ascii	"\257\373`\376i6\223\372\212X\023\263\307\031t\012\333"
 190      693693FA 
 190      8A5813B3 
 190      C719740A 
 190      DB
 191 0164 7DAE4E29 		.ascii	"}\256N)I\177\006\372#\"\310\257\011\265\205:\232;C\255"
 191      497F06FA 
 191      2322C8AF 
 191      09B5853A 
 191      9A3B43AD 
 192 0178 4DF5ED5D 		.ascii	"M\365\355]\035-\241\306\272\372\366\312\262\306\332"
 192      1D2DA1C6 
 192      BAFAF6CA 
 192      B2C6DA
 193 0187 AA8ACAF2 		.ascii	"\252\212\312\362\246\322\342\026\372\000\026\232\301"
 193      A6D2E216 
 193      FA00169A 
 193      C1
 194 0194 D4       		.ascii	"\324"
 195              		.text
 196              		.section	.gnu.lto_IDAC8_1_Start.53c7a929,"",%progbits
 197 0000 789C7591 		.ascii	"x\234u\221K(DQ\034\306\377\337\377\\3\223Qd%\213)Y\330"
 197      4B284451 
 197      1CC6FFDF 
 197      FF5C3393 
 197      5164258B 
 198 0017 11527612 		.ascii	"\021Rv\022%\331([%\217\331Rb99\327\\%I\232\015y-\024"
 198      25D9285B 
 198      258FD952 
 198      623939D7 
 198      5C25499A 
 199 002f C6FBB563 		.ascii	"\306\373\265cs\327\022I\036\311cC\261P\246Yh\322\304"
 199      73D71249 
 199      1EC96343 
 199      B150A659 
 199      68D2C4
 200 0042 FFDC11E5 		.ascii	"\377\334\021\345q\353v\316\375\316\367\377\276\337\275"
 200      71EB76CE 
 200      FDCEF7FF 
 200      BEDFBD
 201 0051 57D1EFAB 		.ascii	"W\321\357\253R\356$\210\212eE\026\201\307\217\210\354"
 201      52EE2488 
 201      8A654516 
 201      81C78F88 
 201      EC
 202 0062 00B3DA0B 		.ascii	"\000\263\332\013\221\316\266\316\313H\347(X\031\331"
 202      91CEB6CE 
 202      CB48E728 
ARM GAS  C:\Users\Luggi\AppData\Local\Temp\ccvPoVQT.s 			page 15


 202      5819D9
 203 0071 02CC8640 		.ascii	"\002\314\206@\003\254,\014\340\211\023\214qwu2X\262"
 203      03AC2C0C 
 203      E089138C 
 203      71777532 
 203      58B2
 204 0083 A0B57ED9 		.ascii	"\240\265~\3319+\030*H\261dr&\037K(!\361$\234\364E\320"
 204      392B182A 
 204      48B16472 
 204      261F4B28 
 204      21F1249C 
 205 009a E788272F 		.ascii	"\347\210'/s\2068|\322K\233\371\256~\177\337=\217=Vp"
 205      7386387C 
 205      D24B9BF9 
 205      AE7E7FDF 
 205      3D8F3D56 
 206 00af 40518A45 		.ascii	"@Q\212E\274\027\203\351y`6\253\272\302`l\373b\336of"
 206      BC1783E9 
 206      796036AB 
 206      BAC2606C 
 206      FB62DE6F 
 207 00c4 5E5949DC 		.ascii	"^YI\334\334\351\330\006G\336\364\260\016\244\230\323"
 207      DCE9D806 
 207      47DEF4B0 
 207      0EA498D3 
 208 00d4 2650D4BB 		.ascii	"&P\324\273\373\343\223\300#\213\342=\306mg\006\263\230"
 208      FBE393C0 
 208      238BE23D 
 208      C66D6706 
 208      B398
 209 00e6 B6B57129 		.ascii	"\266\265q),#\202\025\024J\367\252\310t\006\3472\332"
 209      2C238215 
 209      144AF7AA 
 209      C87406E7 
 209      32DA
 210 00f8 F19D692F 		.ascii	"\361\235i/\356\217\372\315\264\020`\315\370\310 (\332"
 210      EE8FFACD 
 210      B41060CD 
 210      F8C82028 
 210      DA
 211 0109 0BA96B44 		.ascii	"\013\251kD\335\304A\2161\323\317z+\351M\254#\"\364Y"
 211      DDC4418E 
 211      31D3CF7A 
 211      2BE94DAC 
 211      2322F459 
 212 011d 24B02F5B 		.ascii	"$\260/[71\017\366_\322\237h\033_h\233\"\213\341dj1\232"
 212      37310FF6 
 212      5FD29F68 
 212      1B5F689B 
 212      228BE164 
 213 0134 6B601408 		.ascii	"k`\024\010[\036\314\003[\336\3270,\351\003\376\217E"
 213      5B1ECC03 
 213      5BDED730 
 213      2CE903FE 
 213      8F45
 214 0146 1AB0FDC9 		.ascii	"\032\260\375\311r\015\307\215\005\377t\372\222\362f"
 214      720DC78D 
ARM GAS  C:\Users\Luggi\AppData\Local\Temp\ccvPoVQT.s 			page 16


 214      05FF74FA 
 214      92F266
 215 0155 841D71CA 		.ascii	"\204\035q\312\321\361\363\310\241\362\352j\010\273("
 215      D1F1F3C8 
 215      A1F2EA6A 
 215      08BB28
 216 0164 4CB19F6E 		.ascii	"L\261\237na\273\023M\3360\231\177\002\323.\351E\015"
 216      61BB134D 
 216      DE30997F 
 216      02D32EE9 
 216      450D
 217 0176 E1EE706F 		.ascii	"\341\356po{_\270\253\255\245\247\277\2673\334\332\334"
 217      7B5FB8AB 
 217      ADA5A7BF 
 217      B733DCDA 
 217      DC
 218 0187 D25357D5 		.ascii	"\322SW\325\332X_[W\335V^\332I\0375\251\275\210"
 218      DA585F5B 
 218      57DD565E 
 218      DA491F35 
 218      A9BD88
 219              		.text
 220              		.section	.gnu.lto_IDAC8_1_SetPolarity.53c7a929,"",%progbits
 221 0000 789C8D51 		.ascii	"x\234\215QMhSA\020\236o6y}\020\205\34217\301P\204R\342"
 221      4D685341 
 221      109E6F36 
 221      797D1085 
 221      E23137C1 
 222 0018 41F056A5 		.ascii	"A\360V\245B\361&\344&\205\032b\240B1\022\352\301C\351"
 222      42F126E4 
 222      26851A62 
 222      A0423112 
 222      EAC143E9 
 223 002c C6E4503C 		.ascii	"\306\344P<h)=\010\245\"j\251\032\223\376\235\213\257"
 223      68293D08 
 223      A5226AA9 
 223      1A93FE9D 
 223      8BAF
 224 003e 053D8818 		.ascii	"\005=\210\030C@\241J[JE=iIi|\324Rg\336\363\244P\\\330"
 224      4340A14A 
 224      5B4A453D 
 224      6949697C 
 224      D45267DE 
 225 0057 99D9E5FB 		.ascii	"\231\331\345\373\231\2355\364\357\212\313N2Q\247d\030"
 225      999D35F4 
 225      EF8ACB4E 
 225      3251A764 
 225      18
 226 0068 028FBD25 		.ascii	"\002\217\275%*\270\014hA\240\021\306\010\276\3616c\314"
 226      2AB80C68 
 226      41A011C6 
 226      08BEF136 
 226      63CC
 227 007a 2BDF8B75 		.ascii	"+\337\213uL[k\177l\356\017\330\211\313\276\360\232\034"
 227      4C5B6B7F 
 227      6CEE0FD8 
 227      89CBBEF0 
ARM GAS  C:\Users\Luggi\AppData\Local\Temp\ccvPoVQT.s 			page 17


 227      9A1C
 228 008c EA60061D 		.ascii	"\352`\006\035\202\261\357\037T\034s\002$\365\273\311"
 228      82B1EF1F 
 228      541C7302 
 228      24F5BBC9 
 229 009c 8F139C78 		.ascii	"\217\023\234xd\355-\357M\325\236\205/\242O`\204\201"
 229      64ED2DEF 
 229      4DD59E85 
 229      2FA24F60 
 229      8481
 230 00ae CE384EC6 		.ascii	"\3168N\306I.\010O\221P\360vi\377C\314)\211x{\250\211"
 230      492E084F 
 230      9150F076 
 230      69FF43CC 
 230      2989787B 
 231 00c4 67702079 		.ascii	"gp y\366\230g\017\016\232\255\306h\267\211\261p\330"
 231      F698670F 
 231      0E9AADC6 
 231      68B789B1 
 231      70D8
 232 00d6 68886A70 		.ascii	"h\210jp\240\3646-]\015D[\262\265\361\317r\220lV\261"
 232      A0F4362D 
 232      5D0D445B 
 232      B2B5F1CF 
 232      72906C56 
 233 00eb B27BFBD5 		.ascii	"\262{\373\325\213K\252\326b}\305\335\357K\311\257\354"
 233      8B4BAAD6 
 233      627DC5DD 
 233      EF4BC9AF 
 233      EC
 234 00fc B3999E2B 		.ascii	"\263\231\236+\330\210Z\257o\325\352npEz\\x\270\361\313"
 234      D8885AAF 
 234      6FD5EA6E 
 234      70457A5C 
 234      78B8F1CB 
 235 0110 99C264A1 		.ascii	"\231\302d\241$\035GPF\034\317!cB\005S\240U\024\177:"
 235      241D4750 
 235      461CCF21 
 235      63420553 
 235      A055147F 
 236 0125 A19A0905 		.ascii	"\241\232\011\005g^~Y>\252\364\310\236<\247*P1\035\207"
 236      675E7E59 
 236      3EAAF4C8 
 236      9E3CA72A 
 236      50311D87 
 237 0139 620E539B 		.ascii	"b\016S\233\0255\321\240\240\303\327\335\241d\3640\306"
 237      1535D1A0 
 237      A0C3D7DD 
 237      A164F430 
 237      C6
 238 014a DC5FFE6D 		.ascii	"\334_\376m-V\207\307\365\365\272\011\374#\204\371\300"
 238      2D5687C7 
 238      F5F5BA09 
 238      FC2384F9 
 238      C0
 239 015b BEB8F307 		.ascii	"\276\270\363\007\342\212\244\000\377\257\243\205\240"
 239      E28AA400 
ARM GAS  C:\Users\Luggi\AppData\Local\Temp\ccvPoVQT.s 			page 18


 239      FFAFA385 
 239      A0
 240 0168 23973EA1 		.ascii	"#\227>\241\350\265jG\024\256\363\270\337\270S\345\341"
 240      E8B56A47 
 240      14AEF3B8 
 240      DFB853E5 
 240      E1
 241 0179 3D3B6A5D 		.ascii	"=;j]\237\243M\3713\302\"\206e\336\016\255\241\340\371"
 241      9FA34DF9 
 241      33C22286 
 241      65DE0EAD 
 241      A1E0F9
 242 018c 350EA0A4 		.ascii	"5\016\240\244\323\207N]\376\340xo\366Z6\237\036\312"
 242      D3874E5D 
 242      FEE0786F 
 242      F65A369F 
 242      1ECA
 243 019e 5EE94FE5 		.ascii	"^\351O\345n\3443\331\276\213\251\\\317\351\276\013\347"
 243      6EE433D9 
 243      BE8BA95C 
 243      CFE9BE0B 
 243      E7
 244 01af CFF59CE9 		.ascii	"\317\365\234\351?\325\225!\367zn0\235\277:t\3637;\326"
 244      3FD59521 
 244      F77A6E30 
 244      9DBF3A74 
 244      F3373BD6 
 245 01c3 CDD6     		.ascii	"\315\326"
 246              		.text
 247              		.section	.gnu.lto_IDAC8_1_SetRange.53c7a929,"",%progbits
 248 0000 789C8D52 		.ascii	"x\234\215RKH\034A\020\255\3273;\216\256`\360\224\354"
 248      4B481C41 
 248      10ADD733 
 248      3B8EAE60 
 248      F094EC
 249 0013 4D504412 		.ascii	"MPD\022\0149\0109*\006B<\211^\005\021\035\274),\346"
 249      0C390839 
 249      2A06423C 
 249      895E0511 
 249      1DBC292C 
 250 0028 28F66647 		.ascii	"(\366fG\020\021\221E!\0206\227D\374\257?\304\213\302"
 250      10119145 
 250      21103697 
 250      44FCAF3F 
 250      C48BC2
 251 003b E041C31E 		.ascii	"\340A\303\0366\250\004\301_D6\220\334\"+\352\"\301T"
 251      36A804C1 
 251      5F443690 
 251      DC222BEA 
 251      22C154
 252 004e CD785210 		.ascii	"\315xR\020\007\272\272\272\347\275W\257\253\333\240"
 252      07BABABA 
 252      E7BD57AF 
 252      ABDBA0
 253 005d FB5F84C7 		.ascii	"\373_\204\307KET\3053\014\202\032\311\020\305l\005H"
 253      4B4554C5 
 253      330C821A 
ARM GAS  C:\Users\Luggi\AppData\Local\Temp\ccvPoVQT.s 			page 19


 253      C910C56C 
 253      0548
 254 006f 42A03E85 		.ascii	"B\240>\205>\374Qg\012#\336\314\307p\345\270\326\372"
 254      3EFC5167 
 254      0A23DECC 
 254      C770E5B8 
 254      D6FA
 255 0081 6F62EC59 		.ascii	"ob\354Y\377\323<\323r*\220\301\004*\031\262\236\330"
 255      FFD33CD3 
 255      722A90C1 
 255      042A19B2 
 255      9ED8
 256 0093 5A2D31CA 		.ascii	"Z-1\312A\234\217\236d\326P\361E\353\017\336zJ\327\""
 256      419C8F9E 
 256      64D650F1 
 256      45EB0FDE 
 256      7A4AD722 
 257 00a7 CF9A9330 		.ascii	"\317\232\2230\230\201\027\021TE\2107\010S\250\020\360"
 257      98811711 
 257      54458837 
 257      0853A810 
 257      F0
 258 00b8 99FB6F2F 		.ascii	"\231\373o/l\271\254\375$\320\3044,\360<_\352\351\233"
 258      6CB9ACFD 
 258      24D0C434 
 258      2CF03C5F 
 258      EAE99B
 259 00cb 9BE51FA3 		.ascii	"\233\345\037\243\337\236\233a\305\034eH\010I\260 \364"
 259      DF9E9B61 
 259      C51C6548 
 259      0849B020 
 259      F4
 260 00dc 02496D09 		.ascii	"\002Im\011DY\036\342\373\027/x6\366\261q1x\234n\022"
 260      44591EE2 
 260      FB172F78 
 260      36F6B171 
 260      31789C6E 
 261 00f1 B54B2587 		.ascii	"\265K%\207p'2\311\242\337*\257\214\257\0131mJ\355\237"
 261      702732C9 
 261      A2DF2AAF 
 261      8CAF0B31 
 261      6D4AED9F 
 262 0105 D9EFDBB6 		.ascii	"\331\357\333\266\277E\262\334u\275\264\225\304\247\230"
 262      BF45B2DC 
 262      75BDB495 
 262      C4A798
 263 0114 CB964DCC 		.ascii	"\313\226M\314 \202Yp\2330\207$h\037\361++\2203\002\305"
 263      20825970 
 263      9B308724 
 263      681FF12B 
 263      2B903302 
 264 0129 C4507AA5 		.ascii	"\304Pz\245P\350f\216\317\223b(WM@0\017\251\315\263\032"
 264      50E8668E 
 264      CF936228 
 264      574D4030 
 264      0FA9CDB3 
 265 013e 6B906FF1 		.ascii	"k\220o\361\264!\220\014=\304X\270S\277\340RI\205\311"
ARM GAS  C:\Users\Luggi\AppData\Local\Temp\ccvPoVQT.s 			page 20


 265      B421900C 
 265      3DC458B8 
 265      53BFE052 
 265      4985C9
 266 0151 A3CCA66F 		.ascii	"\243\314\246o\337,&,\372\345\343\347\267\020\233%\031"
 266      DF2C262C 
 266      FAE5E3E7 
 266      B7109B25 
 266      19
 267 0162 F838474B 		.ascii	"\3708GK\276#\233\016\021\367\016v\224\300\245\037\237"
 267      BE239B0E 
 267      11F70E76 
 267      94C0A51F 
 267      9F
 268 0173 778753AA 		.ascii	"w\207S\252\367Z\017h;\257B9\2764\3022z\271\341\026\035"
 268      F75A0F68 
 268      3BAF4239 
 268      BE34C232 
 268      7AB9E116 
 269 0188 23E61DF9 		.ascii	"#\346\035\371\335\225G\220\345\177\334u\276\203\262"
 269      DD954790 
 269      E57FDC75 
 269      BE83B2
 270 0197 B74E9713 		.ascii	"\267N\227\023m\353q:Z\233\273\337G\333\235\226\306\346"
 270      6DEB713A 
 270      5A9BBBDF 
 270      47DB9D96 
 270      C6E6
 271 01a9 EEFA9A96 		.ascii	"\356\372\232\226wo\352\352_\267\276\252n\247P\264\255"
 271      776FEAEA 
 271      5FB7BEAA 
 271      6EA750B4 
 271      AD
 272 01ba ABD3F90F 		.ascii	"\253\323\371\017^E\310S"
 272      5E45C853 
 273              		.text
 274              		.section	.gnu.lto_.symbol_nodes.53c7a929,"",%progbits
 275 0000 789C55CD 		.ascii	"x\234U\315\261\015\002A\014D\321\277\366zo\257\012\232"
 275      B10D0241 
 275      0C44D1BF 
 275      F67A6FAF 
 275      0A9A
 276 0012 A0BF9108 		.ascii	"\240\277\221\010\210/\"\006j\240\002\012@\264\00015"
 276      882F2206 
 276      6AA0020A 
 276      40B40031 
 276      35
 277 0023 20404B70 		.ascii	" @Kpv2z\243\221\354\300\235\377\231\011\226\033H\034"
 277      76327AA3 
 277      91ECC09D 
 277      FF990996 
 277      1B481C
 278 0036 8E1DAB2A 		.ascii	"\216\035\253*\311!K\356\362\344Y5\271(\222]m\355\200"
 278      C9214BEE 
 278      F2E45935 
 278      B928925D 
 278      6DED80
ARM GAS  C:\Users\Luggi\AppData\Local\Temp\ccvPoVQT.s 			page 21


 279 0049 D3F7A535 		.ascii	"\323\367\2455Mi6\251\257\355a\234\037\357\342Q\271\376"
 279      4D6936A9 
 279      AFED619C 
 279      1FEFE251 
 279      B9FE
 280 005b B205CFCB 		.ascii	"\262\005\317\313\326\033\243n>\352^\331\355_\033\237"
 280      D61BA36E 
 280      3EEA5ED9 
 280      ED5F1B9F 
 281 006b 47F20153 		.ascii	"G\362\001S\3767\317"
 281      FE37CF
 282              		.text
 283              		.section	.gnu.lto_.refs.53c7a929,"",%progbits
 284 0000 789C6366 		.ascii	"x\234cf``\340d\200\000&6\006vFFv\026\006\000\001\177"
 284      6060E064 
 284      80002636 
 284      06764646 
 284      76160600 
 285 0016 0029     		.ascii	"\000)"
 286              		.text
 287              		.section	.gnu.lto_.decls.53c7a929,"",%progbits
 288 0000 789C9594 		.ascii	"x\234\225\224_L[U\034\307\317\351)\320^\012[b\302\014"
 288      5F4C5B55 
 288      1CC7CFE9 
 288      29D05E0A 
 288      5B62C20C 
 289 0014 319165C9 		.ascii	"1\221e\311\022\023\262\270\007\023\336\234af\354\305"
 289      1213B2B8 
 289      0713DE9C 
 289      6166ECC5 
 290 0024 10D1C5C4 		.ascii	"\020\321\305\304E\322\261\233\331\004[RK\014oG`\202"
 290      45D2B19B 
 290      D9045B52 
 290      4B0C6F47 
 290      6082
 291 0036 4C4D47BA 		.ascii	"LMG\272\311&l\035nCZ\205Be\320\226\256\355*\005d\005"
 291      C9266C1D 
 291      6E435A85 
 291      4265D096 
 291      AEED2A05 
 292 004c 340D06A6 		.ascii	"4\015\006\246\001$1{\032`\204\351\266\354\372\273\347"
 292      0124317B 
 292      1A6084E9 
 292      B6ECFABB 
 292      E7
 293 005d DE4B4F49 		.ascii	"\336KOI\233\351I\276\267\367\234\373\373~\316\357w\376"
 293      9BE949BE 
 293      B7F79CFB 
 293      FB7ECEEF 
 293      77FE
 294 006f 9420845C 		.ascii	"\224 \204\\:\204$h\037\345!\264\005}\001T\015\202aT"
 294      3A842468 
 294      1FE521B4 
 294      057D0154 
 294      0D826154 
 295 0083 02F222A5 		.ascii	"\002\362\"\245\031AC ?h\024\024\000\205@aP\004\024\003"
 295      19414320 
ARM GAS  C:\Users\Luggi\AppData\Local\Temp\ccvPoVQT.s 			page 22


 295      3F681414 
 295      00854061 
 295      50041403 
 296 0097 C5411894 		.ascii	"\305A\030\224@\231M\366\351U\256\314\234\001M\253\337"
 296      40994DF6 
 296      E955AECC 
 296      9C014DAB 
 296      DF
 297 00a8 B0FA7D77 		.ascii	"\260\372}w\363?\303\343\317\342\221\363\312S=\336\034"
 297      F33FC3E3 
 297      CFE291F3 
 297      CA533DDE 
 297      1C
 298 00b9 BED12CBE 		.ascii	"\276\321,\276\0007\2277\213'\220\305#\327n\3305W\025"
 298      00379737 
 298      8B2790C5 
 298      23D76ED8 
 298      355715
 299 00cc 28C9F9EF 		.ascii	"(\311\371\357r\214P\026F\230c\360\271\316\202F@s\240"
 299      728C5016 
 299      469863F0 
 299      B9CE8246 
 299      4073A0
 300 00df 413596A8 		.ascii	"A5\226\250\361\2439X\221]\254y5/\215\2411\221ZkD\345"
 300      F1A33958 
 300      915DAC79 
 300      352F8DA1 
 300      31915A6B 
 301 00f5 0DA9F565 		.ascii	"\015\251\365e\3337yO\013P\366\365\344s\323\251\261\331"
 301      DB37794F 
 301      0B50F6F5 
 301      E473D3A9 
 301      B1D9
 302 0107 F28AFF0F 		.ascii	"\362\212\377\017F<\007cS\207\027\"mm\006\242\303\362"
 302      463C0763 
 302      53871722 
 302      6D6D06A2 
 302      C3F2
 303 0119 FBD75DAB 		.ascii	"\373\327]\253)\241\334C)m\247\321(N\007}|3\364Y\301"
 303      29A1DC43 
 303      296DA7D1 
 303      284E077D 
 303      7C33F459 
 304 012e 7D1D2E11 		.ascii	"}\035.\021X\367\213\231\3131\302\272\222\354\323-.\272"
 304      58F78B99 
 304      CB31C2BA 
 304      92ECD32D 
 304      2EBA
 305 0140 FE215838 		.ascii	"\376!X8\330Ni3\335\350\244\344y\204\313K\361K\245\010"
 305      D84E6933 
 305      DDE8A4E4 
 305      7984CB4B 
 305      F14BA508 
 306 0154 7F8B0F42 		.ascii	"\177\213\017B\030\376\006\227#\334\217K\261\007\227"
 306      18FE0697 
 306      23DC8F4B 
 306      B10797
ARM GAS  C:\Users\Luggi\AppData\Local\Temp\ccvPoVQT.s 			page 23


 307 0163 A2EB30C1 		.ascii	"\242\3530\301\306\325\324\322\013\224\352\261\027\013"
 307      C6D5D4D2 
 307      0B94EAB1 
 307      170B
 308 0171 B80F1316 		.ascii	"\270\017\023\026\001\213%\317 7y\034f\012\014\374\225"
 308      018B25CF 
 308      2037791C 
 308      660A0CFC 
 308      95
 309 0182 2C84998A 		.ascii	",\204\231\212\2052y\342`\347TW>tM\202^\356\206\036\377"
 309      853279E2 
 309      60E75457 
 309      3E744D82 
 309      5EEE861E 
 310 0197 9ED2EFBB 		.ascii	"\236\322\357\273\0008\352l\241{\365\270\272\004\177"
 310      0038EA6C 
 310      A17BF5B8 
 310      BA047F
 311 01a6 07930CC0 		.ascii	"\007\223\014\300$\010\017\342}\360|W\257\224\360\371"
 311      24080FE2 
 311      7DF07C57 
 311      AF94F0F9 
 312 01b6 D82FDD45 		.ascii	"\330/\335E\3440\2533\334;9d(\273BW|\033\355k\017_\276"
 312      E430AB33 
 312      DC3B3964 
 312      28BB4257 
 312      7C1BED6B 
 313 01cd 44DDCDF4 		.ascii	"D\335\315\364\251\004\265\310\036\354\333\311\006\311"
 313      A904B5C8 
 313      1EECDBC9 
 313      06C9
 314 01db EF4A3A43 		.ascii	"\357J:C\270\014\214\376eW\204\220S\014\322\332\323w"
 314      B80C8CFE 
 314      65578490 
 314      530CD2DA 
 314      D377
 315 01ed 391F206E 		.ascii	"9\037 n\237{\375F\376\024\215J\322\253\314?\314\371"
 315      9F7BFD46 
 315      FE148D4A 
 315      D2ABCC3F 
 315      CCF9
 316 01ff 8735BF9F 		.ascii	"\2075\277\237\371\235gcN\275^\247\224'\247\006c[\322"
 316      F99D6763 
 316      4EBD5EA7 
 316      9427A706 
 316      635BD2
 317 0212 EA0D5DCE 		.ascii	"\352\015]\316\"FX\021\337c\265\212\344\037=\313\006"
 317      22465811 
 317      DF63B58A 
 317      E41F3DCB 
 317      06
 318 0223 6263093C 		.ascii	"bc\011<\356\351\3556\262*\334\301>-\001\210\307\267"
 318      EEE9ED36 
 318      B22ADCC1 
 318      3E2D0188 
 318      C7B7
 319 0235 B8046E69 		.ascii	"\270\004ni\011\214\262\004\274\236\373.\201P\314\000"
ARM GAS  C:\Users\Luggi\AppData\Local\Temp\ccvPoVQT.s 			page 24


 319      098CB204 
 319      BC9EFB2E 
 319      8150CC00 
 320 0245 DD9F6EAE 		.ascii	"\335\237n\256\023\005\260\324\317\003\3068\300\230\006"
 320      1305B0D4 
 320      CF03C638 
 320      C09806
 321 0254 083080EF 		.ascii	"\0100\200\357\374\310;\344\274\342_|\322\325\262G\361"
 321      FCC83BE4 
 321      BCE25F7C 
 321      D2D5B247 
 321      F1
 322 0265 8F79F915 		.ascii	"\217y\371\025\010r\376\240\346\0171\377\317\023\027"
 322      0872FEA0 
 322      E60F31FF 
 322      CF1317
 323 0274 2704724D 		.ascii	"'\004rM\001\304\"mg\013\025\300\243az\244\225>\221$"
 323      01C4226D 
 323      670B15C0 
 323      A3617AA4 
 323      953E9124 
 324 0288 C208E31C 		.ascii	"\302\010\343\034a\\#\204\031\341\317\257\266\327\365"
 324      615C2384 
 324      19E1CFAF 
 324      B6D7F5
 325 0297 6440215C 		.ascii	"d@!\\]8\267eT6\301\233\261\011\2679\300m\015\020a\200"
 325      5D38B765 
 325      5436C19B 
 325      B109B739 
 325      C06D0D10 
 326 02ad BECD9EE5 		.ascii	"\276\315\236\345b2\256\256A\320u\241\200\001V\036L&"
 326      6232AEAE 
 326      41D075A1 
 326      8001561E 
 326      4C26
 327 02bf 4C5441B0 		.ascii	"LTA\260u\307Q\216\021\325\0301\306\270\264\366k\274"
 327      75C7518E 
 327      11D51831 
 327      C6B8B4F6 
 327      6BBC
 328 02d1 80CC2B8C 		.ascii	"\200\314+\214p\347\362C\235\302\350\237\026\243J\031"
 328      70E7F243 
 328      9DC2E89F 
 328      16A34A19 
 329 02e1 0AE20E87 		.ascii	"\012\342\016\207\270\243!\342\014\261\346y\024.\"\253"
 329      B8A321E2 
 329      0CB1E679 
 329      142E22AB 
 330 02f1 0AE2E93D 		.ascii	"\012\342\351=\337\250|\260\341X\260}\276y\321\371\233"
 330      DFA87CB0 
 330      E158B07D 
 330      BE79D1F9 
 330      9B
 331 0302 E1C035EA 		.ascii	"\341\3005\352\356]\011=\310\353\242tE\222^d\207\346"
 331      EE5D093D 
 331      C8EBA274 
 331      45925E64 
ARM GAS  C:\Users\Luggi\AppData\Local\Temp\ccvPoVQT.s 			page 25


 331      87E6
 332 0314 0785A8DE 		.ascii	"\007\205\250\336/$\367\3419\001\207\005'\360\001\260"
 332      2F24F7E1 
 332      39018705 
 332      27F001B0 
 333 0324 D22FCF5D 		.ascii	"\322/\317]7\220M\205;\262\335\021(\022\340^\266\374"
 333      37904D85 
 333      3BB2DD11 
 333      2812E05E 
 333      B6FC
 334 0336 877B0937 		.ascii	"\207{\011795\333\261`Tn\362n\307\2179o\362\337kU\255"
 334      3935DBB1 
 334      60546EF2 
 334      6EC78F39 
 334      6FF2DF6B 
 335 034c F4089E86 		.ascii	"\364\010\236\206\354&\3237y\012\013;\377\037\251\231"
 335      EC26D337 
 335      790A0B3B 
 335      FF1FA999 
 336 035c E67BC4D4 		.ascii	"\346{\304\324!\377=\300\0317V\261\330\364!\237\301&"
 336      21FF3DC0 
 336      193756B1 
 336      D8F4219F 
 336      C126
 337 036e B630F00B 		.ascii	"\2660\360\013\301\253\316\304\270Q\313\271\375\031\031"
 337      C1ABCEC4 
 337      B851CBB9 
 337      FD1919
 338 037d 407CCB27 		.ascii	"@|\313'\335\011\003\017\277\233\001O\252\360$\203_\361"
 338      DD09030F 
 338      BF9B014F 
 338      AAF02483 
 338      5FF1
 339 038f 2DEDE763 		.ascii	"-\355\347c\345MJ\307\316\252\261\263,vp{\336S\310\007"
 339      E54D4AC7 
 339      CEAAB1B3 
 339      2C76707B 
 339      DE53C807 
 340 03a3 0F6604CF 		.ascii	"\017f\004\317a\223V\353\034\213\377iCz\217\017\367f"
 340      619356EB 
 340      1C8BFF69 
 340      437A8F0F 
 340      F766
 341 03b5 E431AFB2 		.ascii	"\3441\257\262\345\337\274F\213\325Q\221\177\354\215"
 341      E5DFBC46 
 341      8BD55191 
 341      7FEC8D
 342 03c4 B7CB2AD1 		.ascii	"\267\313*\321\376c\242U\264\233\035\342\351\332\032"
 342      FE63A255 
 342      B49B1DE2 
 342      E9DA1A
 343 03d3 5BA3BD4E 		.ascii	"[\243\275N<Y]c\253|\345d]\223\243\251A\374\360\320\373"
 343      3C595D63 
 343      AB7CE564 
 343      5D93A3A9 
 343      41FCF0D0 
 344 03e8 A8F8F8D1 		.ascii	"\250\370\370\321\327*+j\017\327\276n5\237\252\027s\031"
ARM GAS  C:\Users\Luggi\AppData\Local\Temp\ccvPoVQT.s 			page 26


 344      D72A2B6A 
 344      0FD7BE6E 
 344      359FAA17 
 344      7319
 345 03fa D4A84375 		.ascii	"\324\250Cu\310\244\031j\034\266\206\275;\035\321Q\323"
 345      C8A4196A 
 345      1CB686BD 
 345      3B1DD151 
 345      D3
 346 040b 208AA7F9 		.ascii	" \212\247\371\201\023\346\372Fq\2176p\324\\\367\226"
 346      8113E6FA 
 346      46718F36 
 346      70D45CF7 
 346      96
 347 041c DDF2C18E 		.ascii	"\335\362\301\216\375\270\325\342(J\263\314v\307s\234"
 347      FDB8D5E2 
 347      284AB3CC 
 347      76C7739C 
 348 042c B7DA566F 		.ascii	"\267\332Vo\266[\034M<\357M\263\365L\232g\001\377\011"
 348      B65B1C4D 
 348      3CEF4DB3 
 348      F54C9A67 
 348      01FF09
 349 043f B35D6F17 		.ascii	"\263]o\027\317T\374\013\221\223:w"
 349      CF54FC0B 
 349      91933A77 
 350              		.text
 351              		.section	.gnu.lto_.symtab.53c7a929,"",%progbits
 352 0000 49444143 		.ascii	"IDAC8_1_Enable\000\000\000\000\000\000\000\000\000\000"
 352      385F315F 
 352      456E6162 
 352      6C650000 
 352      00000000 
 353 0018 0000B100 		.ascii	"\000\000\261\000\000\000IDAC8_1_Stop\000\000\000\000"
 353      00004944 
 353      4143385F 
 353      315F5374 
 353      6F700000 
 354 002e 00000000 		.ascii	"\000\000\000\000\000\000\000\000\263\000\000\000IDA"
 354      00000000 
 354      B3000000 
 354      494441
 355 003d 43385F31 		.ascii	"C8_1_SetSpeed\000\000\000\000\000\000\000\000\000\000"
 355      5F536574 
 355      53706565 
 355      64000000 
 355      00000000 
 356 0054 0000B700 		.ascii	"\000\000\267\000\000\000IDAC8_1_SetValue\000\000\000"
 356      00004944 
 356      4143385F 
 356      315F5365 
 356      7456616C 
 357 006d 00000000 		.ascii	"\000\000\000\000\000\000\000\000\000\271\000\000\000"
 357      00000000 
 357      00B90000 
 357      00
 358 007a 49444143 		.ascii	"IDAC8_1_DacTrim\000\000\000\000\000\000\000\000\000"
ARM GAS  C:\Users\Luggi\AppData\Local\Temp\ccvPoVQT.s 			page 27


 358      385F315F 
 358      44616354 
 358      72696D00 
 358      00000000 
 359 0092 000000BB 		.ascii	"\000\000\000\273\000\000\000IDAC8_1_Init\000\000\000"
 359      00000049 
 359      44414338 
 359      5F315F49 
 359      6E697400 
 360 00a8 00000000 		.ascii	"\000\000\000\000\000\000\000\000\000\275\000\000\000"
 360      00000000 
 360      00BD0000 
 360      00
 361 00b5 49444143 		.ascii	"IDAC8_1_Start\000\000\000\000\000\000\000\000\000\000"
 361      385F315F 
 361      53746172 
 361      74000000 
 361      00000000 
 362 00cc 0000BF00 		.ascii	"\000\000\277\000\000\000IDAC8_1_initVar\000\000\000"
 362      00004944 
 362      4143385F 
 362      315F696E 
 362      69745661 
 363 00e4 00000000 		.ascii	"\000\000\000\000\000\000\000\000\000\306\000\000\000"
 363      00000000 
 363      00C60000 
 363      00
 364 00f1 49444143 		.ascii	"IDAC8_1_SetPolarity\000\000\000\000\000\000\000\000"
 364      385F315F 
 364      53657450 
 364      6F6C6172 
 364      69747900 
 365 010c 00000000 		.ascii	"\000\000\000\000\301\000\000\000IDAC8_1_SetRange\000"
 365      C1000000 
 365      49444143 
 365      385F315F 
 365      53657452 
 366 0125 00000000 		.ascii	"\000\000\000\000\000\000\000\000\000\000\000\303\000"
 366      00000000 
 366      000000C3 
 366      00
 367 0132 0000     		.ascii	"\000\000"
 368              		.text
 369              		.section	.gnu.lto_.opts,"",%progbits
 370 0000 272D666E 		.ascii	"'-fno-trapv' '-fno-strict-overflow' '-mcpu=cortex-m"
 370      6F2D7472 
 370      61707627 
 370      20272D66 
 370      6E6F2D73 
 371 0033 33272027 		.ascii	"3' '-mthumb' '-g' '-Og' '-ffunction-sections' '-flt"
 371      2D6D7468 
 371      756D6227 
 371      20272D67 
 371      2720272D 
 372 0066 6F272027 		.ascii	"o' '-ffat-lto-objects'\000"
 372      2D666661 
 372      742D6C74 
ARM GAS  C:\Users\Luggi\AppData\Local\Temp\ccvPoVQT.s 			page 28


 372      6F2D6F62 
 372      6A656374 
 373              		.text
 374              		.cfi_sections	.debug_frame
 375              		.section	.text.IDAC8_1_Enable,"ax",%progbits
 376              		.align	2
 377              		.global	IDAC8_1_Enable
 378              		.thumb
 379              		.thumb_func
 380              		.type	IDAC8_1_Enable, %function
 381              	IDAC8_1_Enable:
 382              	.LFB1:
 383              		.file 1 "Generated_Source\\PSoC5\\IDAC8_1.c"
   1:Generated_Source\PSoC5/IDAC8_1.c **** /*******************************************************************************
   2:Generated_Source\PSoC5/IDAC8_1.c **** * File Name: IDAC8_1.c
   3:Generated_Source\PSoC5/IDAC8_1.c **** * Version 2.0
   4:Generated_Source\PSoC5/IDAC8_1.c **** *
   5:Generated_Source\PSoC5/IDAC8_1.c **** * Description:
   6:Generated_Source\PSoC5/IDAC8_1.c **** *  This file provides the source code to the API for the 8-bit Current 
   7:Generated_Source\PSoC5/IDAC8_1.c **** *  DAC (IDAC8) User Module.
   8:Generated_Source\PSoC5/IDAC8_1.c **** *
   9:Generated_Source\PSoC5/IDAC8_1.c **** * Note:
  10:Generated_Source\PSoC5/IDAC8_1.c **** *  None
  11:Generated_Source\PSoC5/IDAC8_1.c **** *
  12:Generated_Source\PSoC5/IDAC8_1.c **** ********************************************************************************
  13:Generated_Source\PSoC5/IDAC8_1.c **** * Copyright 2008-2012, Cypress Semiconductor Corporation.  All rights reserved.
  14:Generated_Source\PSoC5/IDAC8_1.c **** * You may use this file only in accordance with the license, terms, conditions, 
  15:Generated_Source\PSoC5/IDAC8_1.c **** * disclaimers, and limitations in the end user license agreement accompanying 
  16:Generated_Source\PSoC5/IDAC8_1.c **** * the software package with which this file was provided.
  17:Generated_Source\PSoC5/IDAC8_1.c **** *******************************************************************************/
  18:Generated_Source\PSoC5/IDAC8_1.c **** 
  19:Generated_Source\PSoC5/IDAC8_1.c **** #include "cytypes.h"
  20:Generated_Source\PSoC5/IDAC8_1.c **** #include "IDAC8_1.h"   
  21:Generated_Source\PSoC5/IDAC8_1.c **** 
  22:Generated_Source\PSoC5/IDAC8_1.c **** #if (CY_PSOC5A)
  23:Generated_Source\PSoC5/IDAC8_1.c ****     #include <CyLib.h>
  24:Generated_Source\PSoC5/IDAC8_1.c **** #endif /* CY_PSOC5A */
  25:Generated_Source\PSoC5/IDAC8_1.c **** 
  26:Generated_Source\PSoC5/IDAC8_1.c **** 
  27:Generated_Source\PSoC5/IDAC8_1.c **** uint8 IDAC8_1_initVar = 0u;
  28:Generated_Source\PSoC5/IDAC8_1.c **** 
  29:Generated_Source\PSoC5/IDAC8_1.c **** 
  30:Generated_Source\PSoC5/IDAC8_1.c **** #if (CY_PSOC5A)
  31:Generated_Source\PSoC5/IDAC8_1.c ****     static IDAC8_1_LOWPOWER_BACKUP_STRUCT  IDAC8_1_lowPowerBackup;
  32:Generated_Source\PSoC5/IDAC8_1.c **** #endif /* CY_PSOC5A */
  33:Generated_Source\PSoC5/IDAC8_1.c **** 
  34:Generated_Source\PSoC5/IDAC8_1.c **** /* Variable to decide whether or not to restore control register in Enable()
  35:Generated_Source\PSoC5/IDAC8_1.c ****    API. This valid only for PSoC5A */
  36:Generated_Source\PSoC5/IDAC8_1.c **** #if (CY_PSOC5A)
  37:Generated_Source\PSoC5/IDAC8_1.c ****     static uint8 IDAC8_1_restoreReg = 0u;
  38:Generated_Source\PSoC5/IDAC8_1.c **** #endif /* CY_PSOC5A */
  39:Generated_Source\PSoC5/IDAC8_1.c **** 
  40:Generated_Source\PSoC5/IDAC8_1.c **** 
  41:Generated_Source\PSoC5/IDAC8_1.c **** /*******************************************************************************
  42:Generated_Source\PSoC5/IDAC8_1.c **** * Function Name: IDAC8_1_Init
  43:Generated_Source\PSoC5/IDAC8_1.c **** ********************************************************************************
  44:Generated_Source\PSoC5/IDAC8_1.c **** * Summary:
ARM GAS  C:\Users\Luggi\AppData\Local\Temp\ccvPoVQT.s 			page 29


  45:Generated_Source\PSoC5/IDAC8_1.c **** *  Initialize to the schematic state.
  46:Generated_Source\PSoC5/IDAC8_1.c **** * 
  47:Generated_Source\PSoC5/IDAC8_1.c **** * Parameters:
  48:Generated_Source\PSoC5/IDAC8_1.c **** *  void:
  49:Generated_Source\PSoC5/IDAC8_1.c **** *
  50:Generated_Source\PSoC5/IDAC8_1.c **** * Return:
  51:Generated_Source\PSoC5/IDAC8_1.c **** *  (void)
  52:Generated_Source\PSoC5/IDAC8_1.c **** *
  53:Generated_Source\PSoC5/IDAC8_1.c **** * Theory:
  54:Generated_Source\PSoC5/IDAC8_1.c **** *
  55:Generated_Source\PSoC5/IDAC8_1.c **** * Side Effects:
  56:Generated_Source\PSoC5/IDAC8_1.c **** *
  57:Generated_Source\PSoC5/IDAC8_1.c **** *******************************************************************************/
  58:Generated_Source\PSoC5/IDAC8_1.c **** void IDAC8_1_Init(void) 
  59:Generated_Source\PSoC5/IDAC8_1.c **** {
  60:Generated_Source\PSoC5/IDAC8_1.c ****     IDAC8_1_CR0 = (IDAC8_1_MODE_I | IDAC8_1_DEFAULT_RANGE );
  61:Generated_Source\PSoC5/IDAC8_1.c **** 
  62:Generated_Source\PSoC5/IDAC8_1.c ****     /* Set default data source */
  63:Generated_Source\PSoC5/IDAC8_1.c ****     #if(IDAC8_1_DEFAULT_DATA_SRC != 0u )    
  64:Generated_Source\PSoC5/IDAC8_1.c ****         IDAC8_1_CR1 = (IDAC8_1_DEFAULT_CNTL | IDAC8_1_DACBUS_ENABLE);
  65:Generated_Source\PSoC5/IDAC8_1.c ****     #else
  66:Generated_Source\PSoC5/IDAC8_1.c ****         IDAC8_1_CR1 = (IDAC8_1_DEFAULT_CNTL | IDAC8_1_DACBUS_DISABLE);
  67:Generated_Source\PSoC5/IDAC8_1.c ****     #endif /* (IDAC8_1_DEFAULT_DATA_SRC != 0u ) */
  68:Generated_Source\PSoC5/IDAC8_1.c ****     
  69:Generated_Source\PSoC5/IDAC8_1.c ****     /*Controls polarity from UDB Control*/
  70:Generated_Source\PSoC5/IDAC8_1.c ****     #if(IDAC8_1_DEFAULT_POLARITY == IDAC8_1_HARDWARE_CONTROLLED)
  71:Generated_Source\PSoC5/IDAC8_1.c ****         IDAC8_1_CR1 |= IDAC8_1_IDIR_SRC_UDB;
  72:Generated_Source\PSoC5/IDAC8_1.c ****     #else
  73:Generated_Source\PSoC5/IDAC8_1.c ****         IDAC8_1_CR1 |= IDAC8_1_DEFAULT_POLARITY;
  74:Generated_Source\PSoC5/IDAC8_1.c ****     #endif/* (IDAC8_1_DEFAULT_POLARITY == IDAC8_1_HARDWARE_CONTROLLED) */
  75:Generated_Source\PSoC5/IDAC8_1.c ****     /*Controls Current Source from UDB Control*/
  76:Generated_Source\PSoC5/IDAC8_1.c ****     #if(IDAC8_1_HARDWARE_ENABLE != 0u ) 
  77:Generated_Source\PSoC5/IDAC8_1.c ****         IDAC8_1_CR1 |= IDAC8_1_IDIR_CTL_UDB;
  78:Generated_Source\PSoC5/IDAC8_1.c ****     #endif /* (IDAC8_1_HARDWARE_ENABLE != 0u ) */ 
  79:Generated_Source\PSoC5/IDAC8_1.c ****     
  80:Generated_Source\PSoC5/IDAC8_1.c ****     /* Set default strobe mode */
  81:Generated_Source\PSoC5/IDAC8_1.c ****     #if(IDAC8_1_DEFAULT_STRB != 0u)
  82:Generated_Source\PSoC5/IDAC8_1.c ****         IDAC8_1_Strobe |= IDAC8_1_STRB_EN;
  83:Generated_Source\PSoC5/IDAC8_1.c ****     #endif /* (IDAC8_1_DEFAULT_STRB != 0u) */
  84:Generated_Source\PSoC5/IDAC8_1.c ****     
  85:Generated_Source\PSoC5/IDAC8_1.c ****     /* Set default speed */
  86:Generated_Source\PSoC5/IDAC8_1.c ****     IDAC8_1_SetSpeed(IDAC8_1_DEFAULT_SPEED);
  87:Generated_Source\PSoC5/IDAC8_1.c ****     
  88:Generated_Source\PSoC5/IDAC8_1.c ****     /* Set proper DAC trim */
  89:Generated_Source\PSoC5/IDAC8_1.c ****     IDAC8_1_DacTrim();
  90:Generated_Source\PSoC5/IDAC8_1.c ****     
  91:Generated_Source\PSoC5/IDAC8_1.c **** }
  92:Generated_Source\PSoC5/IDAC8_1.c **** 
  93:Generated_Source\PSoC5/IDAC8_1.c **** 
  94:Generated_Source\PSoC5/IDAC8_1.c **** /*******************************************************************************
  95:Generated_Source\PSoC5/IDAC8_1.c **** * Function Name: IDAC8_1_Enable
  96:Generated_Source\PSoC5/IDAC8_1.c **** ********************************************************************************
  97:Generated_Source\PSoC5/IDAC8_1.c **** * Summary:
  98:Generated_Source\PSoC5/IDAC8_1.c **** *  Enable the IDAC8
  99:Generated_Source\PSoC5/IDAC8_1.c **** * 
 100:Generated_Source\PSoC5/IDAC8_1.c **** * Parameters:
 101:Generated_Source\PSoC5/IDAC8_1.c **** *  void:
ARM GAS  C:\Users\Luggi\AppData\Local\Temp\ccvPoVQT.s 			page 30


 102:Generated_Source\PSoC5/IDAC8_1.c **** *
 103:Generated_Source\PSoC5/IDAC8_1.c **** * Return:
 104:Generated_Source\PSoC5/IDAC8_1.c **** *  (void)
 105:Generated_Source\PSoC5/IDAC8_1.c **** *
 106:Generated_Source\PSoC5/IDAC8_1.c **** * Theory:
 107:Generated_Source\PSoC5/IDAC8_1.c **** *
 108:Generated_Source\PSoC5/IDAC8_1.c **** * Side Effects:
 109:Generated_Source\PSoC5/IDAC8_1.c **** *
 110:Generated_Source\PSoC5/IDAC8_1.c **** *******************************************************************************/
 111:Generated_Source\PSoC5/IDAC8_1.c **** void IDAC8_1_Enable(void) 
 112:Generated_Source\PSoC5/IDAC8_1.c **** {
 384              		.loc 1 112 0
 385              		.cfi_startproc
 386              		@ args = 0, pretend = 0, frame = 0
 387              		@ frame_needed = 0, uses_anonymous_args = 0
 388              		@ link register save eliminated.
 113:Generated_Source\PSoC5/IDAC8_1.c ****     IDAC8_1_PWRMGR |= IDAC8_1_ACT_PWR_EN;
 389              		.loc 1 113 0
 390 0000 054A     		ldr	r2, .L2
 391 0002 1378     		ldrb	r3, [r2]	@ zero_extendqisi2
 392 0004 43F00203 		orr	r3, r3, #2
 393 0008 1370     		strb	r3, [r2]
 114:Generated_Source\PSoC5/IDAC8_1.c ****     IDAC8_1_STBY_PWRMGR |= IDAC8_1_STBY_PWR_EN;
 394              		.loc 1 114 0
 395 000a 1032     		adds	r2, r2, #16
 396 000c 1378     		ldrb	r3, [r2]	@ zero_extendqisi2
 397 000e 43F00203 		orr	r3, r3, #2
 398 0012 1370     		strb	r3, [r2]
 399 0014 7047     		bx	lr
 400              	.L3:
 401 0016 00BF     		.align	2
 402              	.L2:
 403 0018 A8430040 		.word	1073759144
 404              		.cfi_endproc
 405              	.LFE1:
 406              		.size	IDAC8_1_Enable, .-IDAC8_1_Enable
 407              		.section	.text.IDAC8_1_Stop,"ax",%progbits
 408              		.align	2
 409              		.global	IDAC8_1_Stop
 410              		.thumb
 411              		.thumb_func
 412              		.type	IDAC8_1_Stop, %function
 413              	IDAC8_1_Stop:
 414              	.LFB3:
 115:Generated_Source\PSoC5/IDAC8_1.c **** 
 116:Generated_Source\PSoC5/IDAC8_1.c ****     /* This is to restore the value of register CR0 which is saved 
 117:Generated_Source\PSoC5/IDAC8_1.c ****       in prior to the modification in stop() API */
 118:Generated_Source\PSoC5/IDAC8_1.c ****     #if (CY_PSOC5A)
 119:Generated_Source\PSoC5/IDAC8_1.c ****         if(IDAC8_1_restoreReg == 1u)
 120:Generated_Source\PSoC5/IDAC8_1.c ****         {
 121:Generated_Source\PSoC5/IDAC8_1.c ****             IDAC8_1_CR0 = IDAC8_1_lowPowerBackup.DACCR0Reg;
 122:Generated_Source\PSoC5/IDAC8_1.c **** 
 123:Generated_Source\PSoC5/IDAC8_1.c ****             /* Clear the flag */
 124:Generated_Source\PSoC5/IDAC8_1.c ****             IDAC8_1_restoreReg = 0u;
 125:Generated_Source\PSoC5/IDAC8_1.c ****         }
 126:Generated_Source\PSoC5/IDAC8_1.c ****     #endif /* CY_PSOC5A */
 127:Generated_Source\PSoC5/IDAC8_1.c **** }
ARM GAS  C:\Users\Luggi\AppData\Local\Temp\ccvPoVQT.s 			page 31


 128:Generated_Source\PSoC5/IDAC8_1.c **** 
 129:Generated_Source\PSoC5/IDAC8_1.c **** 
 130:Generated_Source\PSoC5/IDAC8_1.c **** /*******************************************************************************
 131:Generated_Source\PSoC5/IDAC8_1.c **** * Function Name: IDAC8_1_Start
 132:Generated_Source\PSoC5/IDAC8_1.c **** ********************************************************************************
 133:Generated_Source\PSoC5/IDAC8_1.c **** * Summary:
 134:Generated_Source\PSoC5/IDAC8_1.c **** *  Set power level then turn on IDAC8.
 135:Generated_Source\PSoC5/IDAC8_1.c **** *
 136:Generated_Source\PSoC5/IDAC8_1.c **** * Parameters:  
 137:Generated_Source\PSoC5/IDAC8_1.c **** *  power: Sets power level between off (0) and (3) high power
 138:Generated_Source\PSoC5/IDAC8_1.c **** *
 139:Generated_Source\PSoC5/IDAC8_1.c **** * Return:
 140:Generated_Source\PSoC5/IDAC8_1.c **** *  (void)
 141:Generated_Source\PSoC5/IDAC8_1.c **** *
 142:Generated_Source\PSoC5/IDAC8_1.c **** * Global variables:
 143:Generated_Source\PSoC5/IDAC8_1.c **** *  IDAC8_1_initVar: Is modified when this function is called for 
 144:Generated_Source\PSoC5/IDAC8_1.c **** *   the first time. Is used to ensure that initialization happens only once.
 145:Generated_Source\PSoC5/IDAC8_1.c **** *
 146:Generated_Source\PSoC5/IDAC8_1.c **** *******************************************************************************/
 147:Generated_Source\PSoC5/IDAC8_1.c **** void IDAC8_1_Start(void) 
 148:Generated_Source\PSoC5/IDAC8_1.c **** {
 149:Generated_Source\PSoC5/IDAC8_1.c ****     /* Hardware initiazation only needs to occur the first time */
 150:Generated_Source\PSoC5/IDAC8_1.c ****     if ( IDAC8_1_initVar == 0u)  
 151:Generated_Source\PSoC5/IDAC8_1.c ****     {
 152:Generated_Source\PSoC5/IDAC8_1.c ****         IDAC8_1_Init();
 153:Generated_Source\PSoC5/IDAC8_1.c ****         
 154:Generated_Source\PSoC5/IDAC8_1.c ****         IDAC8_1_initVar = 1u;
 155:Generated_Source\PSoC5/IDAC8_1.c ****     }
 156:Generated_Source\PSoC5/IDAC8_1.c ****    
 157:Generated_Source\PSoC5/IDAC8_1.c ****     /* Enable power to DAC */
 158:Generated_Source\PSoC5/IDAC8_1.c ****     IDAC8_1_Enable();
 159:Generated_Source\PSoC5/IDAC8_1.c **** 
 160:Generated_Source\PSoC5/IDAC8_1.c ****     /* Set default value */
 161:Generated_Source\PSoC5/IDAC8_1.c ****     IDAC8_1_SetValue(IDAC8_1_DEFAULT_DATA);
 162:Generated_Source\PSoC5/IDAC8_1.c **** 
 163:Generated_Source\PSoC5/IDAC8_1.c **** }
 164:Generated_Source\PSoC5/IDAC8_1.c **** 
 165:Generated_Source\PSoC5/IDAC8_1.c **** 
 166:Generated_Source\PSoC5/IDAC8_1.c **** /*******************************************************************************
 167:Generated_Source\PSoC5/IDAC8_1.c **** * Function Name: IDAC8_1_Stop
 168:Generated_Source\PSoC5/IDAC8_1.c **** ********************************************************************************
 169:Generated_Source\PSoC5/IDAC8_1.c **** * Summary:
 170:Generated_Source\PSoC5/IDAC8_1.c **** *  Powers down IDAC8 to lowest power state.
 171:Generated_Source\PSoC5/IDAC8_1.c **** *
 172:Generated_Source\PSoC5/IDAC8_1.c **** * Parameters:
 173:Generated_Source\PSoC5/IDAC8_1.c **** *  (void)
 174:Generated_Source\PSoC5/IDAC8_1.c **** *
 175:Generated_Source\PSoC5/IDAC8_1.c **** * Return:
 176:Generated_Source\PSoC5/IDAC8_1.c **** *  (void)
 177:Generated_Source\PSoC5/IDAC8_1.c **** *
 178:Generated_Source\PSoC5/IDAC8_1.c **** * Theory:
 179:Generated_Source\PSoC5/IDAC8_1.c **** *
 180:Generated_Source\PSoC5/IDAC8_1.c **** * Side Effects:
 181:Generated_Source\PSoC5/IDAC8_1.c **** *
 182:Generated_Source\PSoC5/IDAC8_1.c **** *******************************************************************************/
 183:Generated_Source\PSoC5/IDAC8_1.c **** void IDAC8_1_Stop(void) 
 184:Generated_Source\PSoC5/IDAC8_1.c **** {
ARM GAS  C:\Users\Luggi\AppData\Local\Temp\ccvPoVQT.s 			page 32


 415              		.loc 1 184 0
 416              		.cfi_startproc
 417              		@ args = 0, pretend = 0, frame = 0
 418              		@ frame_needed = 0, uses_anonymous_args = 0
 419              		@ link register save eliminated.
 185:Generated_Source\PSoC5/IDAC8_1.c ****     /* Disble power to DAC */
 186:Generated_Source\PSoC5/IDAC8_1.c ****     IDAC8_1_PWRMGR &= (uint8)(~IDAC8_1_ACT_PWR_EN);
 420              		.loc 1 186 0
 421 0000 054A     		ldr	r2, .L5
 422 0002 1378     		ldrb	r3, [r2]	@ zero_extendqisi2
 423 0004 03F0FD03 		and	r3, r3, #253
 424 0008 1370     		strb	r3, [r2]
 187:Generated_Source\PSoC5/IDAC8_1.c ****     IDAC8_1_STBY_PWRMGR &= (uint8)(~IDAC8_1_STBY_PWR_EN);
 425              		.loc 1 187 0
 426 000a 1032     		adds	r2, r2, #16
 427 000c 1378     		ldrb	r3, [r2]	@ zero_extendqisi2
 428 000e 03F0FD03 		and	r3, r3, #253
 429 0012 1370     		strb	r3, [r2]
 430 0014 7047     		bx	lr
 431              	.L6:
 432 0016 00BF     		.align	2
 433              	.L5:
 434 0018 A8430040 		.word	1073759144
 435              		.cfi_endproc
 436              	.LFE3:
 437              		.size	IDAC8_1_Stop, .-IDAC8_1_Stop
 438              		.section	.text.IDAC8_1_SetSpeed,"ax",%progbits
 439              		.align	2
 440              		.global	IDAC8_1_SetSpeed
 441              		.thumb
 442              		.thumb_func
 443              		.type	IDAC8_1_SetSpeed, %function
 444              	IDAC8_1_SetSpeed:
 445              	.LFB4:
 188:Generated_Source\PSoC5/IDAC8_1.c ****     
 189:Generated_Source\PSoC5/IDAC8_1.c ****     #if (CY_PSOC5A)
 190:Generated_Source\PSoC5/IDAC8_1.c ****     
 191:Generated_Source\PSoC5/IDAC8_1.c ****         /* Set the global variable  */
 192:Generated_Source\PSoC5/IDAC8_1.c ****         IDAC8_1_restoreReg = 1u;
 193:Generated_Source\PSoC5/IDAC8_1.c **** 
 194:Generated_Source\PSoC5/IDAC8_1.c ****         /* Save the control register and then Clear it. */
 195:Generated_Source\PSoC5/IDAC8_1.c ****         IDAC8_1_lowPowerBackup.DACCR0Reg = IDAC8_1_CR0;
 196:Generated_Source\PSoC5/IDAC8_1.c ****         IDAC8_1_CR0 = (IDAC8_1_MODE_I | IDAC8_1_RANGE_3 | IDAC8_1_HS_HIGHSPEED);
 197:Generated_Source\PSoC5/IDAC8_1.c ****     #endif /* CY_PSOC5A */
 198:Generated_Source\PSoC5/IDAC8_1.c **** }
 199:Generated_Source\PSoC5/IDAC8_1.c **** 
 200:Generated_Source\PSoC5/IDAC8_1.c **** 
 201:Generated_Source\PSoC5/IDAC8_1.c **** /*******************************************************************************
 202:Generated_Source\PSoC5/IDAC8_1.c **** * Function Name: IDAC8_1_SetSpeed
 203:Generated_Source\PSoC5/IDAC8_1.c **** ********************************************************************************
 204:Generated_Source\PSoC5/IDAC8_1.c **** * Summary:
 205:Generated_Source\PSoC5/IDAC8_1.c **** *  Set DAC speed
 206:Generated_Source\PSoC5/IDAC8_1.c **** *
 207:Generated_Source\PSoC5/IDAC8_1.c **** * Parameters:
 208:Generated_Source\PSoC5/IDAC8_1.c **** *  power: Sets speed value
 209:Generated_Source\PSoC5/IDAC8_1.c **** *
 210:Generated_Source\PSoC5/IDAC8_1.c **** * Return:
ARM GAS  C:\Users\Luggi\AppData\Local\Temp\ccvPoVQT.s 			page 33


 211:Generated_Source\PSoC5/IDAC8_1.c **** *  (void)
 212:Generated_Source\PSoC5/IDAC8_1.c **** *
 213:Generated_Source\PSoC5/IDAC8_1.c **** * Theory:
 214:Generated_Source\PSoC5/IDAC8_1.c **** *
 215:Generated_Source\PSoC5/IDAC8_1.c **** * Side Effects:
 216:Generated_Source\PSoC5/IDAC8_1.c **** *
 217:Generated_Source\PSoC5/IDAC8_1.c **** *******************************************************************************/
 218:Generated_Source\PSoC5/IDAC8_1.c **** void IDAC8_1_SetSpeed(uint8 speed) 
 219:Generated_Source\PSoC5/IDAC8_1.c **** {
 446              		.loc 1 219 0
 447              		.cfi_startproc
 448              		@ args = 0, pretend = 0, frame = 0
 449              		@ frame_needed = 0, uses_anonymous_args = 0
 450              		@ link register save eliminated.
 451              	.LVL0:
 220:Generated_Source\PSoC5/IDAC8_1.c ****     /* Clear power mask then write in new value */
 221:Generated_Source\PSoC5/IDAC8_1.c ****     IDAC8_1_CR0 &= (uint8)(~IDAC8_1_HS_MASK);
 452              		.loc 1 221 0
 453 0000 054B     		ldr	r3, .L8
 454 0002 1A78     		ldrb	r2, [r3]	@ zero_extendqisi2
 455 0004 02F0FD02 		and	r2, r2, #253
 456 0008 1A70     		strb	r2, [r3]
 222:Generated_Source\PSoC5/IDAC8_1.c ****     IDAC8_1_CR0 |=  ( speed & IDAC8_1_HS_MASK);
 457              		.loc 1 222 0
 458 000a 1A78     		ldrb	r2, [r3]	@ zero_extendqisi2
 459 000c 00F00200 		and	r0, r0, #2
 460              	.LVL1:
 461 0010 1043     		orrs	r0, r0, r2
 462 0012 1870     		strb	r0, [r3]
 463 0014 7047     		bx	lr
 464              	.L9:
 465 0016 00BF     		.align	2
 466              	.L8:
 467 0018 24580040 		.word	1073764388
 468              		.cfi_endproc
 469              	.LFE4:
 470              		.size	IDAC8_1_SetSpeed, .-IDAC8_1_SetSpeed
 471              		.section	.text.IDAC8_1_SetValue,"ax",%progbits
 472              		.align	2
 473              		.global	IDAC8_1_SetValue
 474              		.thumb
 475              		.thumb_func
 476              		.type	IDAC8_1_SetValue, %function
 477              	IDAC8_1_SetValue:
 478              	.LFB7:
 223:Generated_Source\PSoC5/IDAC8_1.c **** }
 224:Generated_Source\PSoC5/IDAC8_1.c **** 
 225:Generated_Source\PSoC5/IDAC8_1.c **** 
 226:Generated_Source\PSoC5/IDAC8_1.c **** /*******************************************************************************
 227:Generated_Source\PSoC5/IDAC8_1.c **** * Function Name: IDAC8_1_SetPolarity
 228:Generated_Source\PSoC5/IDAC8_1.c **** ********************************************************************************
 229:Generated_Source\PSoC5/IDAC8_1.c **** * Summary:
 230:Generated_Source\PSoC5/IDAC8_1.c **** *  Sets IDAC to Sink or Source current.
 231:Generated_Source\PSoC5/IDAC8_1.c **** *  
 232:Generated_Source\PSoC5/IDAC8_1.c **** * Parameters:
 233:Generated_Source\PSoC5/IDAC8_1.c **** *  Polarity: Sets the IDAC to Sink or Source 
 234:Generated_Source\PSoC5/IDAC8_1.c **** *  0x00 - Source
ARM GAS  C:\Users\Luggi\AppData\Local\Temp\ccvPoVQT.s 			page 34


 235:Generated_Source\PSoC5/IDAC8_1.c **** *  0x04 - Sink
 236:Generated_Source\PSoC5/IDAC8_1.c **** *
 237:Generated_Source\PSoC5/IDAC8_1.c **** * Return:
 238:Generated_Source\PSoC5/IDAC8_1.c **** *  (void)
 239:Generated_Source\PSoC5/IDAC8_1.c **** *
 240:Generated_Source\PSoC5/IDAC8_1.c **** * Theory:
 241:Generated_Source\PSoC5/IDAC8_1.c **** *
 242:Generated_Source\PSoC5/IDAC8_1.c **** * Side Effects:
 243:Generated_Source\PSoC5/IDAC8_1.c **** *
 244:Generated_Source\PSoC5/IDAC8_1.c **** *******************************************************************************/
 245:Generated_Source\PSoC5/IDAC8_1.c **** #if(IDAC8_1_DEFAULT_POLARITY != IDAC8_1_HARDWARE_CONTROLLED)
 246:Generated_Source\PSoC5/IDAC8_1.c ****     void IDAC8_1_SetPolarity(uint8 polarity) 
 247:Generated_Source\PSoC5/IDAC8_1.c ****     {
 248:Generated_Source\PSoC5/IDAC8_1.c ****         IDAC8_1_CR1 &= (uint8)(~IDAC8_1_IDIR_MASK);                /* clear polarity bit */
 249:Generated_Source\PSoC5/IDAC8_1.c ****         IDAC8_1_CR1 |= (polarity & IDAC8_1_IDIR_MASK);             /* set new value */
 250:Generated_Source\PSoC5/IDAC8_1.c ****     
 251:Generated_Source\PSoC5/IDAC8_1.c ****         IDAC8_1_DacTrim();
 252:Generated_Source\PSoC5/IDAC8_1.c ****     }
 253:Generated_Source\PSoC5/IDAC8_1.c **** #endif/*(IDAC8_1_DEFAULT_POLARITY != IDAC8_1_HARDWARE_CONTROLLED)*/
 254:Generated_Source\PSoC5/IDAC8_1.c **** 
 255:Generated_Source\PSoC5/IDAC8_1.c **** 
 256:Generated_Source\PSoC5/IDAC8_1.c **** /*******************************************************************************
 257:Generated_Source\PSoC5/IDAC8_1.c **** * Function Name: IDAC8_1_SetRange
 258:Generated_Source\PSoC5/IDAC8_1.c **** ********************************************************************************
 259:Generated_Source\PSoC5/IDAC8_1.c **** * Summary:
 260:Generated_Source\PSoC5/IDAC8_1.c **** *  Set current range
 261:Generated_Source\PSoC5/IDAC8_1.c **** *
 262:Generated_Source\PSoC5/IDAC8_1.c **** * Parameters:
 263:Generated_Source\PSoC5/IDAC8_1.c **** *  Range: Sets on of four valid ranges.
 264:Generated_Source\PSoC5/IDAC8_1.c **** *
 265:Generated_Source\PSoC5/IDAC8_1.c **** * Return:
 266:Generated_Source\PSoC5/IDAC8_1.c **** *  (void)
 267:Generated_Source\PSoC5/IDAC8_1.c **** *
 268:Generated_Source\PSoC5/IDAC8_1.c **** * Theory:
 269:Generated_Source\PSoC5/IDAC8_1.c **** *
 270:Generated_Source\PSoC5/IDAC8_1.c **** * Side Effects:
 271:Generated_Source\PSoC5/IDAC8_1.c **** *
 272:Generated_Source\PSoC5/IDAC8_1.c **** *******************************************************************************/
 273:Generated_Source\PSoC5/IDAC8_1.c **** void IDAC8_1_SetRange(uint8 range) 
 274:Generated_Source\PSoC5/IDAC8_1.c **** {
 275:Generated_Source\PSoC5/IDAC8_1.c ****     IDAC8_1_CR0 &= (uint8)(~IDAC8_1_RANGE_MASK);       /* Clear existing mode */
 276:Generated_Source\PSoC5/IDAC8_1.c ****     IDAC8_1_CR0 |= ( range & IDAC8_1_RANGE_MASK );     /*  Set Range  */
 277:Generated_Source\PSoC5/IDAC8_1.c ****     IDAC8_1_DacTrim();
 278:Generated_Source\PSoC5/IDAC8_1.c **** }
 279:Generated_Source\PSoC5/IDAC8_1.c **** 
 280:Generated_Source\PSoC5/IDAC8_1.c **** 
 281:Generated_Source\PSoC5/IDAC8_1.c **** /*******************************************************************************
 282:Generated_Source\PSoC5/IDAC8_1.c **** * Function Name: IDAC8_1_SetValue
 283:Generated_Source\PSoC5/IDAC8_1.c **** ********************************************************************************
 284:Generated_Source\PSoC5/IDAC8_1.c **** * Summary:
 285:Generated_Source\PSoC5/IDAC8_1.c **** *  Set DAC value
 286:Generated_Source\PSoC5/IDAC8_1.c **** *
 287:Generated_Source\PSoC5/IDAC8_1.c **** * Parameters:
 288:Generated_Source\PSoC5/IDAC8_1.c **** *  value: Sets DAC value between 0 and 255.
 289:Generated_Source\PSoC5/IDAC8_1.c **** *
 290:Generated_Source\PSoC5/IDAC8_1.c **** * Return:
 291:Generated_Source\PSoC5/IDAC8_1.c **** *  (void)
ARM GAS  C:\Users\Luggi\AppData\Local\Temp\ccvPoVQT.s 			page 35


 292:Generated_Source\PSoC5/IDAC8_1.c **** *
 293:Generated_Source\PSoC5/IDAC8_1.c **** * Theory:
 294:Generated_Source\PSoC5/IDAC8_1.c **** *
 295:Generated_Source\PSoC5/IDAC8_1.c **** * Side Effects:
 296:Generated_Source\PSoC5/IDAC8_1.c **** *
 297:Generated_Source\PSoC5/IDAC8_1.c **** *******************************************************************************/
 298:Generated_Source\PSoC5/IDAC8_1.c **** void IDAC8_1_SetValue(uint8 value) 
 299:Generated_Source\PSoC5/IDAC8_1.c **** {
 479              		.loc 1 299 0
 480              		.cfi_startproc
 481              		@ args = 0, pretend = 0, frame = 0
 482              		@ frame_needed = 0, uses_anonymous_args = 0
 483              		@ link register save eliminated.
 484              	.LVL2:
 300:Generated_Source\PSoC5/IDAC8_1.c **** 
 301:Generated_Source\PSoC5/IDAC8_1.c ****     #if (CY_PSOC5A)
 302:Generated_Source\PSoC5/IDAC8_1.c ****         uint8 IDAC8_1_intrStatus = CyEnterCriticalSection();
 303:Generated_Source\PSoC5/IDAC8_1.c ****     #endif /* CY_PSOC5A */
 304:Generated_Source\PSoC5/IDAC8_1.c **** 
 305:Generated_Source\PSoC5/IDAC8_1.c ****     IDAC8_1_Data = value;         /*  Set Value  */
 485              		.loc 1 305 0
 486 0000 014B     		ldr	r3, .L11
 487 0002 1870     		strb	r0, [r3]
 488 0004 7047     		bx	lr
 489              	.L12:
 490 0006 00BF     		.align	2
 491              	.L11:
 492 0008 815B0040 		.word	1073765249
 493              		.cfi_endproc
 494              	.LFE7:
 495              		.size	IDAC8_1_SetValue, .-IDAC8_1_SetValue
 496              		.section	.text.IDAC8_1_DacTrim,"ax",%progbits
 497              		.align	2
 498              		.global	IDAC8_1_DacTrim
 499              		.thumb
 500              		.thumb_func
 501              		.type	IDAC8_1_DacTrim, %function
 502              	IDAC8_1_DacTrim:
 503              	.LFB8:
 306:Generated_Source\PSoC5/IDAC8_1.c ****     
 307:Generated_Source\PSoC5/IDAC8_1.c ****     /* PSOC5A silicons require a double write */
 308:Generated_Source\PSoC5/IDAC8_1.c ****     #if (CY_PSOC5A)
 309:Generated_Source\PSoC5/IDAC8_1.c ****         IDAC8_1_Data = value;
 310:Generated_Source\PSoC5/IDAC8_1.c ****         CyExitCriticalSection(IDAC8_1_intrStatus);
 311:Generated_Source\PSoC5/IDAC8_1.c ****     #endif /* CY_PSOC5A */
 312:Generated_Source\PSoC5/IDAC8_1.c **** }
 313:Generated_Source\PSoC5/IDAC8_1.c **** 
 314:Generated_Source\PSoC5/IDAC8_1.c **** 
 315:Generated_Source\PSoC5/IDAC8_1.c **** /*******************************************************************************
 316:Generated_Source\PSoC5/IDAC8_1.c **** * Function Name: IDAC8_1_DacTrim
 317:Generated_Source\PSoC5/IDAC8_1.c **** ********************************************************************************
 318:Generated_Source\PSoC5/IDAC8_1.c **** * Summary:
 319:Generated_Source\PSoC5/IDAC8_1.c **** *  Set the trim value for the given range.
 320:Generated_Source\PSoC5/IDAC8_1.c **** *
 321:Generated_Source\PSoC5/IDAC8_1.c **** * Parameters:
 322:Generated_Source\PSoC5/IDAC8_1.c **** *  None
 323:Generated_Source\PSoC5/IDAC8_1.c **** *
ARM GAS  C:\Users\Luggi\AppData\Local\Temp\ccvPoVQT.s 			page 36


 324:Generated_Source\PSoC5/IDAC8_1.c **** * Return:
 325:Generated_Source\PSoC5/IDAC8_1.c **** *  (void) 
 326:Generated_Source\PSoC5/IDAC8_1.c **** *
 327:Generated_Source\PSoC5/IDAC8_1.c **** * Theory:
 328:Generated_Source\PSoC5/IDAC8_1.c **** *  Trim values for the IDAC blocks are stored in the "Customer Table" area in 
 329:Generated_Source\PSoC5/IDAC8_1.c **** *  Row 1 of the Hidden Flash.  There are 8 bytes of trim data for each 
 330:Generated_Source\PSoC5/IDAC8_1.c **** *  IDAC block.
 331:Generated_Source\PSoC5/IDAC8_1.c **** *  The values are:
 332:Generated_Source\PSoC5/IDAC8_1.c **** *       I Gain offset, min range, Sourcing
 333:Generated_Source\PSoC5/IDAC8_1.c **** *       I Gain offset, min range, Sinking
 334:Generated_Source\PSoC5/IDAC8_1.c **** *       I Gain offset, med range, Sourcing
 335:Generated_Source\PSoC5/IDAC8_1.c **** *       I Gain offset, med range, Sinking
 336:Generated_Source\PSoC5/IDAC8_1.c **** *       I Gain offset, max range, Sourcing
 337:Generated_Source\PSoC5/IDAC8_1.c **** *       I Gain offset, max range, Sinking
 338:Generated_Source\PSoC5/IDAC8_1.c **** *       V Gain offset, 1V range
 339:Generated_Source\PSoC5/IDAC8_1.c **** *       V Gain offset, 4V range
 340:Generated_Source\PSoC5/IDAC8_1.c **** *
 341:Generated_Source\PSoC5/IDAC8_1.c **** * Side Effects:
 342:Generated_Source\PSoC5/IDAC8_1.c **** *
 343:Generated_Source\PSoC5/IDAC8_1.c **** *******************************************************************************/
 344:Generated_Source\PSoC5/IDAC8_1.c **** void IDAC8_1_DacTrim(void) 
 345:Generated_Source\PSoC5/IDAC8_1.c **** {
 504              		.loc 1 345 0
 505              		.cfi_startproc
 506              		@ args = 0, pretend = 0, frame = 0
 507              		@ frame_needed = 0, uses_anonymous_args = 0
 508              		@ link register save eliminated.
 346:Generated_Source\PSoC5/IDAC8_1.c ****     uint8 mode;
 347:Generated_Source\PSoC5/IDAC8_1.c **** 
 348:Generated_Source\PSoC5/IDAC8_1.c ****     mode = ((IDAC8_1_CR0 & IDAC8_1_RANGE_MASK) >> 1u);
 509              		.loc 1 348 0
 510 0000 094B     		ldr	r3, .L15
 511 0002 1B78     		ldrb	r3, [r3]	@ zero_extendqisi2
 512 0004 03F00C03 		and	r3, r3, #12
 513 0008 5B08     		lsrs	r3, r3, #1
 514              	.LVL3:
 349:Generated_Source\PSoC5/IDAC8_1.c ****     
 350:Generated_Source\PSoC5/IDAC8_1.c ****     if((IDAC8_1_IDIR_MASK & IDAC8_1_CR1) == IDAC8_1_IDIR_SINK)
 515              		.loc 1 350 0
 516 000a 084A     		ldr	r2, .L15+4
 517 000c 1278     		ldrb	r2, [r2]	@ zero_extendqisi2
 518 000e 12F0040F 		tst	r2, #4
 519 0012 00D0     		beq	.L14
 351:Generated_Source\PSoC5/IDAC8_1.c ****     {
 352:Generated_Source\PSoC5/IDAC8_1.c ****         mode++;
 520              		.loc 1 352 0
 521 0014 0133     		adds	r3, r3, #1
 522              	.LVL4:
 523              	.L14:
 353:Generated_Source\PSoC5/IDAC8_1.c ****     }
 354:Generated_Source\PSoC5/IDAC8_1.c **** 
 355:Generated_Source\PSoC5/IDAC8_1.c ****     IDAC8_1_TR = CY_GET_XTND_REG8((uint8 *)(IDAC8_1_DAC_TRIM_BASE + mode));
 524              		.loc 1 355 0
 525 0016 03F19243 		add	r3, r3, #1224736768
 526              	.LVL5:
 527 001a 93F83031 		ldrb	r3, [r3, #304]	@ zero_extendqisi2
 528 001e DBB2     		uxtb	r3, r3
ARM GAS  C:\Users\Luggi\AppData\Local\Temp\ccvPoVQT.s 			page 37


 529 0020 034A     		ldr	r2, .L15+8
 530 0022 1370     		strb	r3, [r2]
 531 0024 7047     		bx	lr
 532              	.L16:
 533 0026 00BF     		.align	2
 534              	.L15:
 535 0028 24580040 		.word	1073764388
 536 002c 25580040 		.word	1073764389
 537 0030 09460040 		.word	1073759753
 538              		.cfi_endproc
 539              	.LFE8:
 540              		.size	IDAC8_1_DacTrim, .-IDAC8_1_DacTrim
 541              		.section	.text.IDAC8_1_Init,"ax",%progbits
 542              		.align	2
 543              		.global	IDAC8_1_Init
 544              		.thumb
 545              		.thumb_func
 546              		.type	IDAC8_1_Init, %function
 547              	IDAC8_1_Init:
 548              	.LFB0:
  59:Generated_Source\PSoC5/IDAC8_1.c ****     IDAC8_1_CR0 = (IDAC8_1_MODE_I | IDAC8_1_DEFAULT_RANGE );
 549              		.loc 1 59 0
 550              		.cfi_startproc
 551              		@ args = 0, pretend = 0, frame = 0
 552              		@ frame_needed = 0, uses_anonymous_args = 0
 553 0000 08B5     		push	{r3, lr}
 554              		.cfi_def_cfa_offset 8
 555              		.cfi_offset 3, -8
 556              		.cfi_offset 14, -4
  60:Generated_Source\PSoC5/IDAC8_1.c **** 
 557              		.loc 1 60 0
 558 0002 1822     		movs	r2, #24
 559 0004 064B     		ldr	r3, .L19
 560 0006 1A70     		strb	r2, [r3]
  66:Generated_Source\PSoC5/IDAC8_1.c ****     #endif /* (IDAC8_1_DEFAULT_DATA_SRC != 0u ) */
 561              		.loc 1 66 0
 562 0008 0133     		adds	r3, r3, #1
 563 000a 0022     		movs	r2, #0
 564 000c 1A70     		strb	r2, [r3]
  73:Generated_Source\PSoC5/IDAC8_1.c ****     #endif/* (IDAC8_1_DEFAULT_POLARITY == IDAC8_1_HARDWARE_CONTROLLED) */
 565              		.loc 1 73 0
 566 000e 1A78     		ldrb	r2, [r3]	@ zero_extendqisi2
 567 0010 D2B2     		uxtb	r2, r2
 568 0012 1A70     		strb	r2, [r3]
  86:Generated_Source\PSoC5/IDAC8_1.c ****     
 569              		.loc 1 86 0
 570 0014 0220     		movs	r0, #2
 571 0016 FFF7FEFF 		bl	IDAC8_1_SetSpeed
 572              	.LVL6:
  89:Generated_Source\PSoC5/IDAC8_1.c ****     
 573              		.loc 1 89 0
 574 001a FFF7FEFF 		bl	IDAC8_1_DacTrim
 575              	.LVL7:
 576 001e 08BD     		pop	{r3, pc}
 577              	.L20:
 578              		.align	2
 579              	.L19:
ARM GAS  C:\Users\Luggi\AppData\Local\Temp\ccvPoVQT.s 			page 38


 580 0020 24580040 		.word	1073764388
 581              		.cfi_endproc
 582              	.LFE0:
 583              		.size	IDAC8_1_Init, .-IDAC8_1_Init
 584              		.section	.text.IDAC8_1_Start,"ax",%progbits
 585              		.align	2
 586              		.global	IDAC8_1_Start
 587              		.thumb
 588              		.thumb_func
 589              		.type	IDAC8_1_Start, %function
 590              	IDAC8_1_Start:
 591              	.LFB2:
 148:Generated_Source\PSoC5/IDAC8_1.c ****     /* Hardware initiazation only needs to occur the first time */
 592              		.loc 1 148 0
 593              		.cfi_startproc
 594              		@ args = 0, pretend = 0, frame = 0
 595              		@ frame_needed = 0, uses_anonymous_args = 0
 596 0000 08B5     		push	{r3, lr}
 597              		.cfi_def_cfa_offset 8
 598              		.cfi_offset 3, -8
 599              		.cfi_offset 14, -4
 150:Generated_Source\PSoC5/IDAC8_1.c ****     {
 600              		.loc 1 150 0
 601 0002 074B     		ldr	r3, .L24
 602 0004 1B78     		ldrb	r3, [r3]	@ zero_extendqisi2
 603 0006 23B9     		cbnz	r3, .L22
 152:Generated_Source\PSoC5/IDAC8_1.c ****         
 604              		.loc 1 152 0
 605 0008 FFF7FEFF 		bl	IDAC8_1_Init
 606              	.LVL8:
 154:Generated_Source\PSoC5/IDAC8_1.c ****     }
 607              		.loc 1 154 0
 608 000c 0122     		movs	r2, #1
 609 000e 044B     		ldr	r3, .L24
 610 0010 1A70     		strb	r2, [r3]
 611              	.L22:
 158:Generated_Source\PSoC5/IDAC8_1.c **** 
 612              		.loc 1 158 0
 613 0012 FFF7FEFF 		bl	IDAC8_1_Enable
 614              	.LVL9:
 161:Generated_Source\PSoC5/IDAC8_1.c **** 
 615              		.loc 1 161 0
 616 0016 3F20     		movs	r0, #63
 617 0018 FFF7FEFF 		bl	IDAC8_1_SetValue
 618              	.LVL10:
 619 001c 08BD     		pop	{r3, pc}
 620              	.L25:
 621 001e 00BF     		.align	2
 622              	.L24:
 623 0020 00000000 		.word	.LANCHOR0
 624              		.cfi_endproc
 625              	.LFE2:
 626              		.size	IDAC8_1_Start, .-IDAC8_1_Start
 627              		.section	.text.IDAC8_1_SetPolarity,"ax",%progbits
 628              		.align	2
 629              		.global	IDAC8_1_SetPolarity
 630              		.thumb
ARM GAS  C:\Users\Luggi\AppData\Local\Temp\ccvPoVQT.s 			page 39


 631              		.thumb_func
 632              		.type	IDAC8_1_SetPolarity, %function
 633              	IDAC8_1_SetPolarity:
 634              	.LFB5:
 247:Generated_Source\PSoC5/IDAC8_1.c ****         IDAC8_1_CR1 &= (uint8)(~IDAC8_1_IDIR_MASK);                /* clear polarity bit */
 635              		.loc 1 247 0
 636              		.cfi_startproc
 637              		@ args = 0, pretend = 0, frame = 0
 638              		@ frame_needed = 0, uses_anonymous_args = 0
 639              	.LVL11:
 640 0000 08B5     		push	{r3, lr}
 641              		.cfi_def_cfa_offset 8
 642              		.cfi_offset 3, -8
 643              		.cfi_offset 14, -4
 248:Generated_Source\PSoC5/IDAC8_1.c ****         IDAC8_1_CR1 |= (polarity & IDAC8_1_IDIR_MASK);             /* set new value */
 644              		.loc 1 248 0
 645 0002 064B     		ldr	r3, .L28
 646 0004 1A78     		ldrb	r2, [r3]	@ zero_extendqisi2
 647 0006 02F0FB02 		and	r2, r2, #251
 648 000a 1A70     		strb	r2, [r3]
 249:Generated_Source\PSoC5/IDAC8_1.c ****     
 649              		.loc 1 249 0
 650 000c 1A78     		ldrb	r2, [r3]	@ zero_extendqisi2
 651 000e 00F00400 		and	r0, r0, #4
 652              	.LVL12:
 653 0012 1043     		orrs	r0, r0, r2
 654 0014 1870     		strb	r0, [r3]
 251:Generated_Source\PSoC5/IDAC8_1.c ****     }
 655              		.loc 1 251 0
 656 0016 FFF7FEFF 		bl	IDAC8_1_DacTrim
 657              	.LVL13:
 658 001a 08BD     		pop	{r3, pc}
 659              	.L29:
 660              		.align	2
 661              	.L28:
 662 001c 25580040 		.word	1073764389
 663              		.cfi_endproc
 664              	.LFE5:
 665              		.size	IDAC8_1_SetPolarity, .-IDAC8_1_SetPolarity
 666              		.section	.text.IDAC8_1_SetRange,"ax",%progbits
 667              		.align	2
 668              		.global	IDAC8_1_SetRange
 669              		.thumb
 670              		.thumb_func
 671              		.type	IDAC8_1_SetRange, %function
 672              	IDAC8_1_SetRange:
 673              	.LFB6:
 274:Generated_Source\PSoC5/IDAC8_1.c ****     IDAC8_1_CR0 &= (uint8)(~IDAC8_1_RANGE_MASK);       /* Clear existing mode */
 674              		.loc 1 274 0
 675              		.cfi_startproc
 676              		@ args = 0, pretend = 0, frame = 0
 677              		@ frame_needed = 0, uses_anonymous_args = 0
 678              	.LVL14:
 679 0000 08B5     		push	{r3, lr}
 680              		.cfi_def_cfa_offset 8
 681              		.cfi_offset 3, -8
 682              		.cfi_offset 14, -4
ARM GAS  C:\Users\Luggi\AppData\Local\Temp\ccvPoVQT.s 			page 40


 275:Generated_Source\PSoC5/IDAC8_1.c ****     IDAC8_1_CR0 |= ( range & IDAC8_1_RANGE_MASK );     /*  Set Range  */
 683              		.loc 1 275 0
 684 0002 064B     		ldr	r3, .L32
 685 0004 1A78     		ldrb	r2, [r3]	@ zero_extendqisi2
 686 0006 02F0F302 		and	r2, r2, #243
 687 000a 1A70     		strb	r2, [r3]
 276:Generated_Source\PSoC5/IDAC8_1.c ****     IDAC8_1_DacTrim();
 688              		.loc 1 276 0
 689 000c 1A78     		ldrb	r2, [r3]	@ zero_extendqisi2
 690 000e 00F00C00 		and	r0, r0, #12
 691              	.LVL15:
 692 0012 1043     		orrs	r0, r0, r2
 693 0014 1870     		strb	r0, [r3]
 277:Generated_Source\PSoC5/IDAC8_1.c **** }
 694              		.loc 1 277 0
 695 0016 FFF7FEFF 		bl	IDAC8_1_DacTrim
 696              	.LVL16:
 697 001a 08BD     		pop	{r3, pc}
 698              	.L33:
 699              		.align	2
 700              	.L32:
 701 001c 24580040 		.word	1073764388
 702              		.cfi_endproc
 703              	.LFE6:
 704              		.size	IDAC8_1_SetRange, .-IDAC8_1_SetRange
 705              		.global	IDAC8_1_initVar
 706              		.bss
 707              		.set	.LANCHOR0,. + 0
 708              		.type	IDAC8_1_initVar, %object
 709              		.size	IDAC8_1_initVar, 1
 710              	IDAC8_1_initVar:
 711 0000 00       		.space	1
 712              		.text
 713              	.Letext0:
 714              		.file 2 "Generated_Source\\PSoC5\\cytypes.h"