ARM GAS  C:\Users\Luggi\AppData\Local\Temp\ccCf7ojr.s 			page 1


   1              		.syntax unified
   2              		.cpu cortex-m3
   3              		.fpu softvfp
   4              		.eabi_attribute 20, 1
   5              		.eabi_attribute 21, 1
   6              		.eabi_attribute 23, 3
   7              		.eabi_attribute 24, 1
   8              		.eabi_attribute 25, 1
   9              		.eabi_attribute 26, 1
  10              		.eabi_attribute 30, 1
  11              		.eabi_attribute 34, 1
  12              		.eabi_attribute 18, 4
  13              		.thumb
  14              		.file	"IDAC8_2.c"
  15              		.text
  16              	.Ltext0:
  17              		.section	.gnu.lto_.profile.304b4f96,"",%progbits
  18 0000 789C6366 		.ascii	"x\234cf```e\200\000F\206~Fw\000\002\200\000\341"
  18      60606065 
  18      80004686 
  18      7E467700 
  18      028000E1 
  19              		.text
  20              		.section	.gnu.lto_.inline.304b4f96,"",%progbits
  21 0000 789C6366 		.ascii	"x\234cf\300\016\336AiN \342`d`\342y\020\313\300\266"
  21      C00EDE41 
  21      694E20E2 
  21      606460E2 
  21      7910CBC0 
  22 0015 409E0924 		.ascii	"@\236\011$\306\210)\304\304\300\305\311\310\010\224"
  22      C68829C4 
  22      C4C0C5C9 
  22      C80894
  23 0024 6160860B 		.ascii	"a`\206\0133]\340g\001\31113\2600\003\225\003\271p\345"
  23      335DE067 
  23      01C93133 
  23      B0300395 
  23      03B970E5 
  24 0038 2C0C7CBC 		.ascii	",\014|\274@!\261'K\031\341b\254\014\\\322@1\216\003"
  24      4021B127 
  24      4B19E162 
  24      AC0C5CD2 
  24      40318E03 
  25 004c 76088BB8 		.ascii	"v\010\213\270@Fs\203ldc\340\226\003\311\3762A\330\011"
  25      40467383 
  25      6C6463E0 
  25      9603C9FE 
  25      3241D809 
  26 0060 9600AB01 		.ascii	"\226\000\253\001\023\034\014\334\302\270\334\000V\300"
  26      131C0CDC 
  26      C2B8DC00 
  26      56C0
  27 006e 49480103 		.ascii	"IH\001\003\000\370]\027Q"
  27      00F85D17 
  27      51
  28              		.text
  29              		.section	.gnu.lto_.jmpfuncs.304b4f96,"",%progbits
ARM GAS  C:\Users\Luggi\AppData\Local\Temp\ccCf7ojr.s 			page 2


  30 0000 789C6366 		.ascii	"x\234cf\300\016\302\2404'\0203200122\3263\203\010\026"
  30      C00EC2A0 
  30      34271033 
  30      32303031 
  30      3232D633 
  31 0017 06065690 		.ascii	"\006\006V\220\030\323G&\306Y\327\237~a~\301\364\223"
  31      18D34726 
  31      C659D79F 
  31      7E617EC1 
  31      F493
  32 0029 89818981 		.ascii	"\211\201\211\201q9\243\024\003\033T\342\371\303\231"
  32      7139A314 
  32      031B54E2 
  32      F9C399
  33 0038 6F784112 		.ascii	"oxA\022\214\001\014\214+\200\022\014\014\034 \315\014"
  33      8C010C8C 
  33      2B80120C 
  33      0C1C20CD 
  33      0C
  34 0049 9C609201 		.ascii	"\234`\222\001\000\273S\020\312"
  34      00BB5310 
  34      CA
  35              		.text
  36              		.section	.gnu.lto_.pureconst.304b4f96,"",%progbits
  37 0000 789C6366 		.ascii	"x\234cf``\020f\200\000N\006)F)&)f)\026)V)6\011\016)"
  37      60601066 
  37      80004E06 
  37      29462926 
  37      29662916 
  38 001b 4E29000C 		.ascii	"N)\000\014N\001."
  38      4E012E
  39              		.text
  40              		.section	.gnu.lto_IDAC8_2_Enable.304b4f96,"",%progbits
  41 0000 789C6366 		.ascii	"x\234cf\300\004R@\274\211\221\201A\031H32302M8\307\300"
  41      C0045240 
  41      BC899181 
  41      41194833 
  41      32333032 
  42 0018 D0C8C1C4 		.ascii	"\320\310\301\304\310\010b002\32431\3263\276d\372\310"
  42      C8086230 
  42      3032D433 
  42      31D633BE 
  42      64FAC8
  43 002b C438E1C0 		.ascii	"\3048\341\300\352\031\334\352K\033\032\032>|\332-\321"
  43      EA19DCEA 
  43      4B1B1A1A 
  43      3E7CDA2D 
  43      D1
  44 003c 2AF19389 		.ascii	"*\361\223\211\201\3413\023\304\030\306\345\214\352\014"
  44      81E13313 
  44      C418C6E5 
  44      8CEA0C
  45 004b 40351F5B 		.ascii	"@5\037[\376^\347fk\001\252\021\200\3101\256`d\003\032"
  45      FE5EE766 
  45      6B01AA11 
  45      80C831AE 
  45      6064031A 
ARM GAS  C:\Users\Luggi\AppData\Local\Temp\ccCf7ojr.s 			page 3


  46 005f CFB05EE8 		.ascii	"\317\260^\350@\303\377\377\233\277L|a\317\310\301\304"
  46      40C3FFFF 
  46      9BBF4C7C 
  46      61CFC8C1 
  46      C4
  47 0070 F0930968 		.ascii	"\360\223\011h\031\220`\005\021l \202\201\341\011P=\310"
  47      19906005 
  47      116C2082 
  47      81E10950 
  47      3DC8
  48 0082 D2A74C4C 		.ascii	"\322\247LL \232\371\026\343\241o]\347\346E\200\214\370"
  48      209AF916 
  48      E3A16F5D 
  48      E7E64580 
  48      8CF8
  49 0094 CE0472C1 		.ascii	"\316\004r\301\344\333\233\3773\277`\372\311\304\264"
  49      E4DB9BFF 
  49      33BF60FA 
  49      C9C4B4
  50 00a3 A2BDB181 		.ascii	"\242\275\261\201\005d\341\375'\347/r\200\205\030@\334"
  50      0564E1FD 
  50      27E72F72 
  50      80851840 
  50      DC
  51 00b4 B74BBF3D 		.ascii	"\267K\277=\340\235\3138\273\261\205\361'\0233\343JF"
  51      E09DCB38 
  51      BBB185F1 
  51      271333E3 
  51      4A46
  52 00c6 29C6558C 		.ascii	")\306U\214@?2\256f\234\313\310p\213\261\371\013\033"
  52      403F32AE 
  52      669CCBC8 
  52      708BB1F9 
  52      0B1B
  53 00d8 C4386688 		.ascii	"\3048f\210\211K\246N[\303\012\322\316\310\301\300\270"
  53      894BA64E 
  53      5BC30AD2 
  53      CEC8C1C0 
  53      B8
  54 00e9 06A81268 		.ascii	"\006\250\022h\351$F\220\022|\206\255\005\032\0064\202"
  54      E9244690 
  54      127C86AD 
  54      051A0634 
  54      82
  55 00fa 01ECC26B 		.ascii	"\001\354\302k\363\212 F\262\002\265L_\364\3409;\330"
  55      F38A2046 
  55      B202B54C 
  55      5FF4E039 
  55      3BD8
  56 010c 393B602E 		.ascii	"9;`.\354\330\371\35123\302\224upS\326\2439\011d\004"
  56      ECD8F9E9 
  56      3233C294 
  56      757053D6 
  56      A3390964 
  57 0121 861B70EA 		.ascii	"\206\033p\352\336\000v\003\033\303=\306\306\003\377"
  57      DE007603 
  57      1BC33DC6 
ARM GAS  C:\Users\Luggi\AppData\Local\Temp\ccCf7ojr.s 			page 4


  57      C603FF
  58 0130 DD41AA41 		.ascii	"\335A\252A\361\360\004\030\220\300\260\003\006\206\242"
  58      F1F00418 
  58      90C0B003 
  58      0686A2
  59 013f 7B6A5E6A 		.ascii	"{j^jQbIjJ|p~iQrjL@p\276\263i\214\247\213\243\263E\274"
  59      5162496A 
  59      4A7C707E 
  59      6951726A 
  59      4C4070BE 
  60 015c 915E3203 		.ascii	"\221^2\003\000yv\241b"
  60      007976A1 
  60      62
  61              		.text
  62              		.section	.gnu.lto_IDAC8_2_Stop.304b4f96,"",%progbits
  63 0000 789C7D91 		.ascii	"x\234}\221?HBQ\024\306\31797_\202\004\321$m\341\340"
  63      3F484251 
  63      14C6CF39 
  63      375F8204 
  63      D1246DE1 
  64 0015 D61004AD 		.ascii	"\326\020\004\255a\020-\021\2704\010\022\346\232 5\373"
  64      61102D11 
  64      B8340812 
  64      E69A2035 
  64      FB
  65 0026 1E194593 		.ascii	"\036\031E\223\330P\020.\201di\275\300\2456\211\206\246"
  65      D850102E 
  65      816469BD 
  65      C0A53689 
  65      86A6
  66 0038 22820223 		.ascii	"\"\202\002#s0\252!H\003\355Aa\347\274G\005I]\270\347"
  66      7330AA21 
  66      4803ED41 
  66      61E7BC47 
  66      05495DB8 
  67 004d FE79DFF9 		.ascii	"\376y\337\371\235\357\236\247\240s\364\363,\"\200\217"
  67      9DEF9EA7 
  67      A073F4F3 
  67      2C22808F 
  68 005d 57548094 		.ascii	"WT\200\224:\0030\334\204(\033@H\020&\360\211\352\204"
  68      3A0330DC 
  68      84281B40 
  68      481026F0 
  68      89EA84
  69 0070 A9527EC3 		.ascii	"\251R~\303\343\317\352\272\376\322\270\365.y-\002x%"
  69      E3CFEABA 
  69      FED2B8F5 
  69      2E792D02 
  69      7825
  70 0082 0783DBE8 		.ascii	"\007\203\333\350\007\326\324\223\037\327\036-\311\232"
  70      07D6D493 
  70      1FD71E2D 
  70      C99A
  71 0090 5EE71BE6 		.ascii	"^\347\033\346Pc<\230}%\275\335.\276\247O}\312M`\021"
  71      50633C98 
  71      7D25BDDD 
  71      2EBEA74F 
ARM GAS  C:\Users\Luggi\AppData\Local\Temp\ccCf7ojr.s 			page 5


  71      7DCA4D60 
  72 00a5 17E3E092 		.ascii	"\027\343\340\222\240I\000\250\261^\212\336\023\311\252"
  72      A04900A8 
  72      B15E8ADE 
  72      13C9AA
  73 00b4 CA78DC5C 		.ascii	"\312x\334\\\2752\247\005\321\"q\260vSl\253G\262\210"
  73      BD32A705 
  73      D12271B0 
  73      76536CAB 
  73      47B288
  74 00c7 72CB86DE 		.ascii	"r\313\206\336%\005\357j\347\027n\373\012\344\370\234"
  74      2505EF6A 
  74      E7176EFB 
  74      0AE4F89C 
  75 00d7 6D567B32 		.ascii	"mV{2\270i$\321\"\205;\330\217\273\310o\304<f\020\312"
  75      B86924D1 
  75      22853BD8 
  75      8FBBC86F 
  75      C43C6610 
  76 00ec B8F8A639 		.ascii	"\270\370\24698\345\020\315F\341D\223t\325B\300\002K"
  76      38E510CD 
  76      46E14493 
  76      74D542C0 
  76      024B
  77 00fe B96A1A45 		.ascii	"\271j\032E\363\037m\217i\314\000\333b\305\214;L\027"
  77      F31F6D8F 
  77      69CC00DB 
  77      62C58C3B 
  77      4C17
  78 0110 A7AC6F55 		.ascii	"\247\254oU\037\272m?\207_\026W\216\032\227\352\207\262"
  78      1FBA6D3F 
  78      875F1657 
  78      8E1A97EA 
  78      87B2
  79 0122 FF4D317F 		.ascii	"\377M1\177y\022D\207\207?\263\017l\017\032T\320(e&E"
  79      79124487 
  79      873FB30F 
  79      6C0F1A54 
  79      D0286526 
  80 0137 2D3FA2C6 		.ascii	"-?\242\306\235\344\346q7\006\306\243s\321\370\314|t"
  80      9DE4E671 
  80      3706C6A3 
  80      73D1F8CC 
  80      7C74
  81 0149 361C8C2D 		.ascii	"6\034\214-\304#\321\320T0\026\030\016M\214\215\006F"
  81      C423D1D0 
  81      54301618 
  81      0E4D8C8D 
  81      0646
  82 015b C2438311 		.ascii	"\302C\203\021\370\004a#\242\274"
  82      F8046123 
  82      A2BC
  83              		.text
  84              		.section	.gnu.lto_IDAC8_2_SetSpeed.304b4f96,"",%progbits
  85 0000 789C8D51 		.ascii	"x\234\215Q_(\203Q\024?\347\336m\276P\223'\355M\221V"
  85      5F288351 
  85      143FE7DE 
ARM GAS  C:\Users\Luggi\AppData\Local\Temp\ccCf7ojr.s 			page 6


  85      6DBE5093 
  85      27ED4D91 
  86 0015 A294525E 		.ascii	"\242\224R^hJ^$^\225\264}\257\310\237\347}\237M\241\344"
  86      684A5E24 
  86      5E95B47D 
  86      AFC89FE7 
  86      7D9F4DA1 
  87 002a 5F4949F9 		.ascii	"_II\371\223\374\3310^\221/<\312x\242\225Y\232\232\027"
  87      93FCD930 
  87      5E912F3C 
  87      CA78A295 
  87      599A9A17 
  88 003e 19327B58 		.ascii	"\0312{Xs\316>O\324r\353\336s\356\351\367\347\334s%\374"
  88      73CE3E4F 
  88      D472EBDE 
  88      73EEE9F7 
  88      E7DC7325 
  89 0053 5D0EDA16 		.ascii	"]\016\332\026\001\340\244\210\022P\314\\\001\350\212"
  89      01E0A488 
  89      1250CC5C 
  89      01E88A
  90 0062 40E40410 		.ascii	"@\344\004\020\274\002\275\370,\222\002g\214\300bQ\325"
  90      BC02BDF8 
  90      2C920267 
  90      8CC06251 
  90      D5
  91 0073 86A669AF 		.ascii	"\206\246i\257k\251\262\261\2624\321\336\205)\203\233"
  91      6BA9B2B1 
  91      B234D1DE 
  91      8529839B 
  92 0083 5845109F 		.ascii	"XE\020\237\361x\252\310\012\004\312\0276&N\354\225\353"
  92      F178AAC8 
  92      0A04CA17 
  92      36264EEC 
  92      95EB
  93 0095 9A366A9C 		.ascii	"\2326j\234\354iM\230&\315-\224\304\300j\007:\035@\005"
  93      EC694D98 
  93      26CD2D94 
  93      C4C06A07 
  93      3A1D4005 
  94 00a9 C06DAC64 		.ascii	"\300m\254dp\322\237\271-\262\371I\273\304\324\304\035"
  94      70D29FB9 
  94      2DB2F949 
  94      BBC4D4C4 
  94      1D
  95 00ba B421C5FD 		.ascii	"\264!\305\375RC\313f\337\357\347\023\265\262P\020GH"
  95      5243CB66 
  95      DFEFE713 
  95      B5B25010 
  95      4748
  96 00cc 3EAC7CD8 		.ascii	">\254|\330\220\351\005\234*|\000\304is\337Ot\241(#x"
  96      90E9059C 
  96      2A7C00C4 
  96      6973DF4F 
  96      74A12823 
  97 00e1 F639F972 		.ascii	"\3669\371r\324\311j)\301\217\270\274\033\217\331\023"
  97      D4C96A29 
ARM GAS  C:\Users\Luggi\AppData\Local\Temp\ccCf7ojr.s 			page 7


  97      C18FB8BC 
  97      1B8FD913 
  98 00f1 222D6430 		.ascii	"\"-d0\244k\026\366~\210\207o\224\\\011\370z\261:{\215"
  98      A46B16F6 
  98      7E88876F 
  98      945C09F8 
  98      7AB13A7B 
  99 0106 CBB8A4FB 		.ascii	"\313\270\244\373\251e\013\006\320\201A\2441\341.U!\202"
  99      A9650B06 
  99      D08141A4 
  99      31E12E55 
  99      2182
 100 0118 BE2F9B29 		.ascii	"\276/\233)'M\305\225\343\350T1\323-\031z\317\036A\311"
 100      274DC595 
 100      E3E85431 
 100      D32D197A 
 100      CF1E41C9 
 101 012c 750E1993 		.ascii	"u\016\031\223Om\237\252\244\001\271\026\337\032MIk>"
 101      4F6D9FAA 
 101      A401B916 
 101      DF1A4D49 
 101      6B3E
 102 013e 46E8977F 		.ascii	"F\350\227\177AJ\260C8v>m\372\323d\017r\366\276\217\037"
 102      414AB043 
 102      38763E6D 
 102      FAD3640F 
 102      72F6BE8F 
 103 0153 88429204 		.ascii	"\210B\222\004\374_G\207\271\216\024\210\242nd\333\031"
 103      FC5F4787 
 103      B98E1488 
 103      A26E64DB 
 103      19
 104 0164 CD3F1BA7 		.ascii	"\315?\033\247_\242Q\322`\313[\325>u\260wX\365\364t\365"
 104      5FA251D2 
 104      60CB5BD5 
 104      3E75B077 
 104      58F5F474 
 105 0179 8F0CBAD5 		.ascii	"\217\014\272\325\356\216\256~W}w[K\263\253\241\247\256"
 105      EE8EAE7E 
 105      577D775B 
 105      4BB3ABA1 
 105      A7AE
 106 018b C60DD6A1 		.ascii	"\306\015\326\241\001U\365|\003:~\271\217"
 106      0155F57C 
 106      033A7EB9 
 106      8F
 107              		.text
 108              		.section	.gnu.lto_IDAC8_2_SetValue.304b4f96,"",%progbits
 109 0000 789C6366 		.ascii	"x\234cf\300\004R@\314\305\310\300\240\011\244\031\231"
 109      C0045240 
 109      CCC5C8C0 
 109      A009A419 
 109      99
 110 0011 19189926 		.ascii	"\031\030\231&\234c`h\344`bd\0041\030\030\031\352\231"
 110      9C636068 
 110      E4606264 
 110      04311818 
ARM GAS  C:\Users\Luggi\AppData\Local\Temp\ccCf7ojr.s 			page 8


 110      19EA99
 111 0024 18EB195F 		.ascii	"\030\353\031_2}db\234p`\365\014n\365\245\015\015\015"
 111      327D6462 
 111      9C7060F5 
 111      0C6EF5A5 
 111      0D0D0D
 112 0037 1F16CD96 		.ascii	"\037\026\315\226l\225\370\311\304\300\360\231\011b\014"
 112      6C95F8C9 
 112      C4C0F099 
 112      09620C
 113 0046 E3724675 		.ascii	"\343rFu\240\222\317\253\033\24603\25302\000\331\033"
 113      A092CFAB 
 113      1BA63033 
 113      AB303200 
 113      D91B
 114 0058 2E9EFDC7 		.ascii	".\236\375\307\256\272\270\241\241\351\300\336u\015\016"
 114      AEBAB8A1 
 114      A1E9C0DE 
 114      750D0E
 115 0067 8C3F8166 		.ascii	"\214?\201f\256`d\006\352`\324\221b\324\224b\000\012"
 115      AE606406 
 115      EA60D491 
 115      62D49462 
 115      000A
 116 0079 3030AE64 		.ascii	"00\256dT\005)\376\330\362\367:7[\013\320l\001\210\231"
 116      540529FE 
 116      D8F2F73A 
 116      375B0BD0 
 116      6C018899 
 117 008d 8CAB18D9 		.ascii	"\214\253\030\331\200\316bX/t\240\341\377\377\317o\247"
 117      80CE6258 
 117      2F74A0E1 
 117      FFFFCF6F 
 117      A7
 118 009e 74D8B1B0 		.ascii	"t\330\261\260\000M\000\251gx\002T\001r\336S&&\020\315"
 118      004D00A9 
 118      67780254 
 118      0172DE53 
 118      262610CD 
 119 00b2 7C8BF1D0 		.ascii	"|\213\361\320\264\217_\226\260\2024\001\015\353}q\353"
 119      B48F5F96 
 119      B0823401 
 119      0DEB7D71 
 119      EB
 120 00c3 31CF0BA6 		.ascii	"1\317\013\246\237LL\315\333\033\033X@\346\337\177r\376"
 120      9F4C4CCD 
 120      DB1B1B58 
 120      40E6DF7F 
 120      72FE
 121 00d5 22075888 		.ascii	"\"\007X\210\001\304\335\273d}\027\337\\\306\331\215"
 121      01C4DDBB 
 121      647D17DF 
 121      5CC6D98D 
 122 00e5 2D8D0758 		.ascii	"-\215\007X\177213\256f\224b\\\303\010\014\014\306\265"
 122      7F323133 
 122      AE669462 
 122      5CC3080C 
ARM GAS  C:\Users\Luggi\AppData\Local\Temp\ccCf7ojr.s 			page 9


 122      0CC6B5
 123 00f8 8C7319BF 		.ascii	"\214s\031\277\003\225\335cl<\3601\030d\"\310\177O\200"
 123      0395DD63 
 123      6C3CF031 
 123      186422C8 
 123      7F4F80
 124 010b 6E05DA04 		.ascii	"n\005\332\004\324\255\350\236\232\227Z\224X\222\232"
 124      D4ADE89E 
 124      9A975A94 
 124      58929A
 125 011a 121F9C5F 		.ascii	"\022\037\234_Z\224\234\032\023\020\234\357l\032\343"
 125      5A949C1A 
 125      13109CEF 
 125      6C1AE3
 126 0129 E9E2E86C 		.ascii	"\351\342\350l\021o\244\227\314\300Z\226\230S\232\012"
 126      116FA497 
 126      CCC05A96 
 126      98539A0A 
 127 0139 002BF46B 		.ascii	"\000+\364k\262"
 127      B2
 128              		.text
 129              		.section	.gnu.lto_IDAC8_2_DacTrim.304b4f96,"",%progbits
 130 0000 789C6552 		.ascii	"x\234eRMHTQ\030\375\276{\357{\363\253\015\321\242\\"
 130      4D485451 
 130      18FDBE7B 
 130      EF7BF3AB 
 130      0DD1A25C 
 131 0014 18A16041 		.ascii	"\030\241`A$$AD\2330\210v\201A\033ABg\321\242\004I\202"
 131      24244144 
 131      9B308876 
 131      81411B41 
 131      4267D1A2 
 132 002b 36BEF971 		.ascii	"6\276\371q\264r\241C\201\231-f\241Vj\332\257\346\264"
 132      B472A143 
 132      81992D66 
 132      A1566ADA 
 132      AFE6B4
 133 003e 18C4C485 		.ascii	"\030\304\304\205\224\023\223\243\3430I\250em\024A\233"
 133      941393A3 
 133      E33049A8 
 133      656D1441 
 133      9B
 134 004f 454CDFBD 		.ascii	"EL\337\275w\324\244\007\357\376\234w\276s\317w\356\343"
 134      77D4A407 
 134      EFFE9C77 
 134      BE73CF77 
 134      EEE3
 135 0061 F0FF5341 		.ascii	"\360\377SA\357-\016p\224f4\000Y\373G\000\237\2351\236"
 135      EF2D0E70 
 135      94663400 
 135      59FB4700 
 135      9F9D319E 
 136 0075 2807CB29 		.ascii	"(\007\313)\336\027\203\345\346(4,\020\345\002\020\232"
 136      DE1783E5 
 136      E628342C 
 136      10E50210 
 136      9A
ARM GAS  C:\Users\Luggi\AppData\Local\Temp\ccCf7ojr.s 			page 10


 137 0086 1817D884 		.ascii	"\030\027\330\204\253l\235a{\254\277\323U\326cY\326\232"
 137      AB6C9D61 
 137      7BACBFD3 
 137      55D66359 
 137      D69A
 138 0098 7FE450F3 		.ascii	"\177\344P\363\301,\003\330`Z\037\373\260\014\210\363"
 138      C12C03D8 
 138      605A1FFB 
 138      B00C88F3 
 139 00a8 3DBBDA57 		.ascii	"=\273\332W\300KQ\256\177\366|Xs\224D,\313\2778\366k"
 139      C04B51AE 
 139      7FF67C58 
 139      7394442C 
 139      CBBF38F6 
 140 00bd D265755A 		.ascii	"\322euZ\301\305\\\356p\226!>AN\225x\274\010\217\025"
 140      C1C55CEE 
 140      7096213E 
 140      414E9578 
 140      BC088F15 
 141 00d1 E51D52C1 		.ascii	"\345\035R\301z\360O\322e\006\351\000\017>\305\022-\216"
 141      7AF04FD2 
 141      6506E900 
 141      0F3EC512 
 141      2D8E
 142 00e3 CFD0449A 		.ascii	"\317\320D\232$2\264?f\345r\033\351\007\255\025\206\007"
 142      2432B43F 
 142      66E5721B 
 142      E907AD15 
 142      8607
 143 00f5 41421CB2 		.ascii	"AB\034\262\214\011\032\270!\007S\2016\011\332\345\340"
 143      8C091AB8 
 143      21075381 
 143      3609DAE5 
 143      E0
 144 0106 507BA75C 		.ascii	"P{\247\\\272\344w\267\034\012h\020\205\022\003X\242"
 144      BAE477B7 
 144      1C0A6810 
 144      85120358 
 144      A2
 145 0117 57F6BA4C 		.ascii	"W\366\272L\033\232y\012\3077\357\256,\234\225\307n1"
 145      1B9A790A 
 145      C737EFAE 
 145      2C9C95C7 
 145      6E31
 146 0129 4EAEA6E7 		.ascii	"N\256\246\347Z\027\367\375`Yf\014\014\373,!\215~]\372"
 146      5A17F7FD 
 146      6059660C 
 146      0CFB2C21 
 146      8D7E5DFA 
 147 013d 14B72B48 		.ascii	"\024\267+H\371\236\210t\314\340c|\344\013b\226\231\330"
 147      F99E8874 
 147      CCE0637C 
 147      E40B6296 
 147      99D8
 148 014f 8F453880 		.ascii	"\217E8\200\324\027\016\022\012)\014\374\016%\270\026"
 148      D4170E12 
 148      0A290CFC 
ARM GAS  C:\Users\Luggi\AppData\Local\Temp\ccCf7ojr.s 			page 11


 148      0E25B816 
 149 015f 746ACDAD 		.ascii	"tj\315\255\346\265;N)\300\334\200\317\211\233B\177\306"
 149      E6B53B4E 
 149      29C0DC80 
 149      CF899B42 
 149      7FC6
 150 0171 A6298258 		.ascii	"\246)\202X\262(\023\23205b\020\210\245\2124\327\222"
 150      B228139A 
 150      30356210 
 150      88A58A34 
 150      D792
 151 0183 400D4A1C 		.ascii	"@\015J\034f\221\251|\250GB@\231\337\\\270\255\0316:"
 151      6691A97C 
 151      A8474240 
 151      99DF5CB8 
 151      AD19363A 
 152 0197 2818FA7C 		.ascii	"(\030\372|_(\247\203\333\346\223=\335\353\356]\267C"
 152      5F28A783 
 152      DBE6933D 
 152      DDEBEE5D 
 152      B743
 153 01a9 3B6E8777 		.ascii	";n\207w\335\032Z\301\256E\306\302S\235\246r+\000_\020"
 153      DD1A5AC1 
 153      AE45C6C2 
 153      539DA672 
 153      2B005F10 
 154 01bd F70B06E7 		.ascii	"\367\013\006\347\003\305y\016\021|\275\3216\233\"\220"
 154      03C5790E 
 154      117CBDD1 
 154      369B2290 
 155 01cd CC4BD457 		.ascii	"\314K\324W\272\3148$\312)\320@84\231>\243\331\016\262"
 155      BACC3824 
 155      CA29D040 
 155      3834993E 
 155      A3D90EB2 
 156 01e1 4905F1AE 		.ascii	"I\005\361\256\336\200\312\024\351\026_Q\301\236F\034"
 156      DE80CA14 
 156      E9165F51 
 156      C19E461C 
 157 01f1 AA5AA8FB 		.ascii	"\252Z\250\373\230E\277\0074\214*\245\226L\372\262\326"
 157      9845BF07 
 157      348C2AA5 
 157      964CFAB2 
 157      D6
 158 0202 72692810 		.ascii	"ri(\020\316\307\344&\210\264'\323\221h\241\324\346\243"
 158      CEC7E426 
 158      88B427D3 
 158      9168A1D4 
 158      E6A3
 159 0214 7E6B8A1C 		.ascii	"~k\212\034\277\336\233o\0011URN\275/\374\367B\205\272"
 159      BFDE9B6F 
 159      01315552 
 159      4EBD2FFC 
 159      F74285BA 
 160 0228 D0AE8ED1 		.ascii	"\320\256\216\321Y\307vD6*\3017*\241\267:\241\361p\344"
 160      59C77644 
 160      362AC137 
ARM GAS  C:\Users\Luggi\AppData\Local\Temp\ccCf7ojr.s 			page 12


 160      2AA1B73A 
 160      A1F170E4 
 161 023c 80AC25E6 		.ascii	"\200\254%\346\267L\262\333\245\362\275\327\226\3177"
 161      B74CB2DB 
 161      A5F2BDD7 
 161      96CF37
 162 024b 3A138BDB 		.ascii	":\023\213\333U\261/f\310\204Gv\022\036\245z:\0202\350"
 162      55B12F66 
 162      C8844776 
 162      121EA57A 
 162      3A1032E8 
 163 025f 8B3DBC22 		.ascii	"\213=\274\"%\250\323\025$\314d\323#\327\250s\336\366"
 163      25A8D315 
 163      24CC64D3 
 163      23D7A873 
 163      DEF6
 164 0271 AE91FE49 		.ascii	"\256\221\376I\224\275S\230G.xox\033\256\336\364\326"
 164      94BD5398 
 164      472E786F 
 164      781BAEDE 
 164      F4D6
 165 0283 D554D537 		.ascii	"\325T\32576\324z\253/U\325W\236\252\276x\376\\\345\351"
 165      36D47AAB 
 165      2F55D557 
 165      9EAABE78 
 165      FE5CE5E9 
 166 0297 9A93276A 		.ascii	"\232\223'jA\\\257\257\363\376\005\333\322:U"
 166      415CAFAF 
 166      F3FE05DB 
 166      D23A55
 167              		.text
 168              		.section	.gnu.lto_IDAC8_2_Init.304b4f96,"",%progbits
 169 0000 789C7591 		.ascii	"x\234u\221=H[Q\024\307\317\377\274\227\327\224\010\025"
 169      3D485B51 
 169      14C7CFFF 
 169      BC97D794 
 169      0815
 170 0012 37B38983 		.ascii	"7\263\211\203\270t(\010\256Ei\351&\270\225@\220\230"
 170      B8742808 
 170      AE4569E9 
 170      26B89540 
 170      9098
 171 0024 B58150C7 		.ascii	"\265\201P\307\220\367\350\263\204\016E\213\203\366\013"
 171      90F7E8B3 
 171      840E458B 
 171      83F60B
 172 0033 2CA45F89 		.ascii	",\244_\211\232~\254\225\327b;\225\244\261CD\264\355"
 172      9A7EAC95 
 172      D7623B95 
 172      A4B14344 
 172      B4ED
 173 0045 10A1DD8C 		.ascii	"\020\241\335\214\021\345)\222\236\223\244\001\261^\270"
 173      11E52992 
 173      9E93A401 
 173      B15EB8
 174 0054 DC7BCFF9 		.ascii	"\334{\317\371\377\177\347\334{\015:;\3022\217@\324/"
 174      FF7FE7DC 
ARM GAS  C:\Users\Luggi\AppData\Local\Temp\ccCf7ojr.s 			page 13


 174      7B0D3A3B 
 174      C2328F40 
 174      D42F
 175 0066 2B0C02CF 		.ascii	"+\014\002\317\024\211\234 \003\272!P\232\221\306\037"
 175      14899C20 
 175      03BA2150 
 175      9A91C61F 
 176 0076 AE3166BC 		.ascii	"\2561f\274\334|h k\333\366\356\263\2223\346\301g\242"
 176      DC7C6820 
 176      6BDBF6EE 
 176      B39233E6 
 176      C167A2
 177 0089 3AB73878 		.ascii	":\2678x\201\001\022Q\315=\251\204,WD\335\255\034^\302"
 177      81011251 
 177      CD3DA984 
 177      2C5744DD 
 177      AD1C5EC2 
 178 009d 123EADF4 		.ascii	"\022>\255\364xv\243Q\377\360\361\300\012\232\344\263"
 178      7876A351 
 178      FFF0F1C0 
 178      0A9AE4B3 
 179 00ad C4AA92D7 		.ascii	"\304\252\222\327*;\314\272\032\233\370\264[X\035T\207"
 179      2A3BCCBA 
 179      1A9BF8B4 
 179      5B581D54 
 179      87
 180 00be 90BE6E64 		.ascii	"\220\276nd~]\372\315>s\276\340\330\246\302\177VK\345"
 180      7E5DFACD 
 180      3E73BEE0 
 180      D8A6C27F 
 180      564BE5
 181 00d1 6033447A 		.ascii	"`3Dz\\[\234\375\206'x\344\270\216\027\360\331\300+\204"
 181      5C5B9CFD 
 181      862778E4 
 181      B88E17F0 
 181      D9C02B84 
 182 00e5 F11A7225 		.ascii	"\361\032r%\344$.\212\347\333\323G\027\325`t\023\362"
 182      E4242E8A 
 182      E7DBD347 
 182      17D56074 
 182      13F2
 183 00f7 926996F8 		.ascii	"\222i\226\370\\\016\264k\270w\327\347\314&p\351_\215"
 183      5C0EB46B 
 183      B877D7E7 
 183      CC2670E9 
 183      5F8D
 184 0109 4AF671AD 		.ascii	"J\366q\255\253\015\355U\350R\007\272\334\202v\2720$"
 184      AB0DED55 
 184      E85207BA 
 184      DC8276BA 
 184      3024
 185 011b B6D2821E 		.ascii	"\266\322\202\036\334+.\334T\350!\233\247 8\215(\010"
 185      DC2B2EDC 
 185      54E8219B 
 185      A720388D 
 185      2808
 186 012d 42F50FD0 		.ascii	"B\365\017\320\356\340\\\345\033Q\012\214\266\340z\333"
ARM GAS  C:\Users\Luggi\AppData\Local\Temp\ccCf7ojr.s 			page 14


 186      EEE05CE5 
 186      1B510A8C 
 186      B6E07ADB 
 187 013d 5F58E5DA 		.ascii	"_X\345\332\336\323\357\367\2279ulg\354\240\317f]\237"
 187      DED3EFF7 
 187      9739756C 
 187      67ECA0CF 
 187      665D9F
 188 0150 116F91D2 		.ascii	"\021o\221\322\324\303\312\316\276\241}\201\011\357\020"
 188      D4C3CACE 
 188      BEA17D81 
 188      09EF10
 189 015f F63920EE 		.ascii	"\3669 \356;\336\236\365_\263U\327g\304{1\373|\201~\300"
 189      3BDE9EF5 
 189      5FB355D7 
 189      67C47B31 
 189      FB7C817E 
 190 0174 F10EAF35 		.ascii	"\361\016\2575\225\244_\003\375\022\021\364]\217\337"
 190      95A45F03 
 190      FD1211F4 
 190      5D8FDF
 191 0183 8A27276E 		.ascii	"\212''n\307'\243\343\211\251d,\036\031\033O\214\014"
 191      C727A3E3 
 191      89A9642C 
 191      1E191B4F 
 191      8C0C
 192 0195 456E8C5E 		.ascii	"En\214^\035\031\216^\271\034\243\2774\304\3022"
 192      1D198E5E 
 192      B91CA3BF 
 192      34C4C232 
 193              		.text
 194              		.section	.gnu.lto_IDAC8_2_Start.304b4f96,"",%progbits
 195 0000 789C7591 		.ascii	"x\234u\221K(DQ\034\306\377\337\377\\3\223!\262\222\205"
 195      4B284451 
 195      1CC6FFDF 
 195      FF5C3393 
 195      21B29285 
 196 0014 92C5EC28 		.ascii	"\222\305\354(R\266\242$\033e\253\3441[Sb99\327\\e!i"
 196      52B6A224 
 196      1B65ABE4 
 196      315B5362 
 196      3939D75C 
 197 002b 36DE16CA 		.ascii	"6\336\026\312\373\315\216\315][\220\344\221<R\204\262"
 197      FBCD8ECD 
 197      5D5B90E4 
 197      913C5284 
 197      B2
 198 003c 30CD4293 		.ascii	"0\315B\223&\376\347\216(\217[\267s\356w\276\377\367"
 198      26FEE78E 
 198      288F5BB7 
 198      73EE77BE 
 198      FFF7
 199 004e FDEEBD8A 		.ascii	"\375\356\275\212~_\225r'AT*+\262\010<r@d\007\230\325"
 199      7E5F9572 
 199      2741542A 
 199      2BB2083C 
 199      72406407 
ARM GAS  C:\Users\Luggi\AppData\Local\Temp\ccCf7ojr.s 			page 15


 200 0064 6E31E96C 		.ascii	"n1\351l\353\264\234t\216\202\225\221-\300l\010\324\307"
 200      EBB49C74 
 200      8E829591 
 200      2DC06C08 
 200      D4C7
 201 0076 CA421F9E 		.ascii	"\312B\037\2368\301\030qW\306\202\2419\255\365\313\366"
 201      38C11871 
 201      57C682A1 
 201      39ADF5CB 
 201      F6
 202 0087 49E14061 		.ascii	"I\341@a\212%\2233\371X@\210\304\223p\322gA\237#\236"
 202      8A259333 
 202      F9584088 
 202      C49370D2 
 202      67419F23 
 203 009c FCCC1916 		.ascii	"\374\314\031\026\341\223^\332(p\365\373\373\316i\374"
 203      E1935EDA 
 203      2870F5FB 
 203      FBCE69FC 
 204 00ac B182038A 		.ascii	"\261\202\003\212R,\342\235\030L\317=\263Y\325\005\372"
 204      522CE29D 
 204      184CCF3D 
 204      B359D505 
 204      FA
 205 00bd E35B67B3 		.ascii	"\343[g\263~3\363\312J\342f\216\207\3279\372\246\007"
 205      7E33F3CA 
 205      4AE2668E 
 205      87D739FA 
 205      A607
 206 00cf 7520C59C 		.ascii	"u \305\2346\201\242\336\334\035\036\005\036Y\024\357"
 206      3681A2DE 
 206      DC1D1E05 
 206      1E5914EF 
 207 00df 71D176A6 		.ascii	"q\321v\2460\215I[\033\227\302\022\242XF\221t\257\210"
 207      308D495B 
 207      1B97C212 
 207      A2584691 
 207      74AF88
 208 00f2 4C2770CE 		.ascii	"L'p\316c\355\337\231\366\374\336\220\337L\013\001V\215"
 208      63EDDF99 
 208      F6FCDE90 
 208      DF4C0B01 
 208      568D
 209 0104 8F0C82A2 		.ascii	"\217\014\202\242\335bu\211\230\233\330\3171f\372Yo%"
 209      DD627589 
 209      989BD8CF 
 209      3166FA59 
 209      6F25
 210 0116 BD893544 		.ascii	"\275\2115D\205>\213\004\366e\363*\356\301\376K\372\023"
 210      853E8B04 
 210      F665F32A 
 210      EEC1FE4B 
 210      FA13
 211 0128 6DFD0B6D 		.ascii	"m\375\013mCd1\034M\314\307\362\014\214\002a\323\203"
 211      4364311C 
 211      4DCCC7F2 
 211      0C8C0261 
ARM GAS  C:\Users\Luggi\AppData\Local\Temp\ccCf7ojr.s 			page 16


 211      D383
 212 013a B967CBFB 		.ascii	"\271g\313\373\032\206%\275\317\377\261H\003\266>Y.\341"
 212      1A8625BD 
 212      CFFFB148 
 212      03B63E59 
 212      2EE1
 213 014c B8F1E09F 		.ascii	"\270\361\340\237N_R\336\214\260-N9z\270\035\177\316"
 213      4E5F52DE 
 213      8CB02D4E 
 213      397AB81D 
 213      7FCE
 214 015e F5EA9A08 		.ascii	"\365\352\232\010;(J\261\237\256a\273\243\215\3360\231"
 214      3B284AB1 
 214      9FAE61BB 
 214      A38DDE30 
 214      99
 215 016f 7F02D32E 		.ascii	"\177\002\323.\351%\365\341\256pw[O\270\263\2659\322"
 215      E925F5E1 
 215      AE70775B 
 215      4FB8B3B5 
 215      39D2
 216 0181 DBDD116E 		.ascii	"\333\335\021nij\216\324V\2654\324\325\324V\267V\224"
 216      696A8ED4 
 216      56B534D4 
 216      D5D456B7 
 216      5694
 217 0193 75D0074E 		.ascii	"u\320\007N\235\275\337"
 217      9DBDDF
 218              		.text
 219              		.section	.gnu.lto_IDAC8_2_SetPolarity.304b4f96,"",%progbits
 220 0000 789C8D51 		.ascii	"x\234\215Q\315KTQ\024?\277s\337<\037\214A\264\234]\240"
 220      CD4B5451 
 220      143FBF73 
 220      DF3C1F8C 
 220      41B49C5D 
 221 0015 48208141 		.ascii	"H \201A\320N\303 \332\005\356BP\261\201\202pb\320\205"
 221      D04EC320 
 221      DA05EE42 
 221      50B18182 
 221      7062D085 
 222 0029 0BF14E33 		.ascii	"\013\361N3\204\264\020\211Y\004\246\004*~5\243\325\037"
 222      84B41089 
 222      5904A604 
 222      2A7E35A3 
 222      D51F
 223 003b D053C885 		.ascii	"\320S\310\205D\323$(h$\204\242\356\034&\232\036\"v\316"
 223      44D32428 
 223      682484A2 
 223      EE1C269A 
 223      1E2276CE 
 224 004f 7BAD0AA4 		.ascii	"{\255\012\244\013\367\234s/\277\217s\3175\364\357J\310"
 224      0BF79C73 
 224      2FBF8F73 
 224      CF35F4EF 
 224      4AC8
 225 0061 6E61A266 		.ascii	"na\242f\3110\004\036\373D\224\361\030\320\202@\303\214"
 225      C930041E 
ARM GAS  C:\Users\Luggi\AppData\Local\Temp\ccCf7ojr.s 			page 17


 225      FB4494F1 
 225      18D08240 
 225      C38C
 226 0073 611C7185 		.ascii	"a\034q\2051\346/\276\2107\315Xk\217\277\237>\260\371"
 226      31E62FBE 
 226      8837CD58 
 226      6B8FBF9F 
 226      3EB0F9
 227 0086 EE407855 		.ascii	"\356@xU\216t0\213&\301\330\315W\005\3274\200\244\376"
 227      8E74308B 
 227      26C1D8CD 
 227      5705D734 
 227      80A4FE
 228 0099 3CBE93E7 		.ascii	"<\276\223\347\306)k\237\370\037\213\266\015\201\210"
 228      C6296B9F 
 228      F81F8BB6 
 228      0D8188
 229 00a8 CEC10803 		.ascii	"\316\301\010\003\315\011\\I\220\\\020\346\321\250\340"
 229      CD095C49 
 229      905C10E6 
 229      D1A8E0
 230 00b7 4AEE742B 		.ascii	"J\356t+\356\346D\374b\244\211\005\270\220\274t\311\267"
 230      EEE644FC 
 230      62A48905 
 230      B890BC74 
 230      C9B7
 231 00c9 6767D5DA 		.ascii	"gg\325\332\306H\253\211\263p\330h\210ip\241\364:-=\015"
 231      C648AB89 
 231      B370D868 
 231      886970A1 
 231      F43A2D3D 
 232 00de 447BB2B5 		.ascii	"D{\262\265\361}9H6\333X\375\371l\355\375=U\253\261\276"
 232      F17D3948 
 232      36DB58FD 
 232      F96CEDFD 
 232      3D55ABB1 
 233 00f3 22F7F44B 		.ascii	"\"\367\364K\3369\344\200Ma9c\035\365\336\335+\225\275"
 233      DE39E480 
 233      4D613963 
 233      1DF5DEDD 
 233      2B95BD
 234 0106 F08AF4B8 		.ascii	"\360\212\364\2705\363\262R?\201\361LNZv\260\210\004"
 234      35F3B252 
 234      3F81F14C 
 234      4E5A76B0 
 234      8804
 235 0118 5E43E684 		.ascii	"^C\346\204\002&@\333\310\376r#9\023)\316~8X\271\240"
 235      022640DB 
 235      C8FE7223 
 235      391329CE 
 235      7E3858B9 
 236 012d 74E744DE 		.ascii	"t\347D\336S\024\250\270>\207b\316S[\0225\321\240\260"
 236      5314A8B8 
 236      3E8762CE 
 236      535B1235 
 236      D1A0B0
 237 0140 C5F5D648 		.ascii	"\305\365\326H2v\036c\371/\377\272\032\253\303ty\267"
ARM GAS  C:\Users\Luggi\AppData\Local\Temp\ccCf7ojr.s 			page 18


 237      32761E63 
 237      F92FFFBA 
 237      1AABC374 
 237      79B7
 238 0152 6C427F87 		.ascii	"lB\177\207\360&\264\317\376\370\003\361DR\200\377\327"
 238      F026B4CF 
 238      FEF803F1 
 238      445280FF 
 238      D7
 239 0163 D1DBB023 		.ascii	"\321\333\260#\217\276\"\353\327J\365\012\327yLn\214"
 239      8FBE22EB 
 239      D74AF50A 
 239      D7794C6E 
 239      8C
 240 0174 1679E8C4 		.ascii	"\026y\350\304\216X/\340XU>\215\360\016C2p\227\276!\343"
 240      8E582FE0 
 240      58553E8D 
 240      F00E4332 
 240      7097BE21 
 241 0189 07250EA1 		.ascii	"\007%\016\241\244\343\207\216]>\341\362\355d_2\335\323"
 241      A4E3878E 
 241      5D3EE1F2 
 241      ED645F32 
 241      DDD3
 242 019b 9FBCDFD5 		.ascii	"\237\274\337\325\221\032H\367&;\357v\244\332\257w\336"
 242      911A48F7 
 242      263BEF76 
 242      A4DAAF77 
 242      DE
 243 01ac B975B3FD 		.ascii	"\271u\263\375F\327\265\253\275\344=N=\352I?\354\037"
 243      46D7B5AB 
 243      BDE43D4E 
 243      3DEA493F 
 243      EC1F
 244 01be FC0D1C91 		.ascii	"\374\015\034\221\315e"
 244      CD65
 245              		.text
 246              		.section	.gnu.lto_IDAC8_2_SetRange.304b4f96,"",%progbits
 247 0000 789C8D52 		.ascii	"x\234\215RKH\034A\020\255\3273;\216l@\361\244{\023\024"
 247      4B481C41 
 247      10ADD733 
 247      3B8E6C40 
 247      F1A47B13 
 248 0015 91048540 		.ascii	"\221\004\205@ GEA\364$z\025Dt\360\246\260$G\261\327"
 248      20474541 
 248      F4247A15 
 248      4474F0A6 
 248      B02447B1 
 249 002a DD808410 		.ascii	"\335\200\204\020tQ\020DAD\374\257?\304\213\302 \222"
 249      74511044 
 249      4144FCAF 
 249      3FC48BC2 
 249      2092
 250 003c 04913551 		.ascii	"\004\2215QD\361\027\011+$\267\310\206\350\022D\253f"
 250      44F11709 
 250      2B24B7C8 
 250      86E81244 
ARM GAS  C:\Users\Luggi\AppData\Local\Temp\ccCf7ojr.s 			page 19


 250      AB66
 251 004e 724A401C 		.ascii	"rJ@\034\350\252\352\232\367^UW\267A\377\177!^\345\212"
 251      E8AAEA9A 
 251      F75E5557 
 251      B741FF7F 
 251      215EE58A 
 252 0062 A8943D0C 		.ascii	"\250\224=\014\202\352K\022El\005H@\240n\205n\374PW\012"
 252      82EA4B12 
 252      456C0548 
 252      40A06E85 
 252      6EFC5057 
 253 0077 7DEEEC50 		.ascii	"}\356\354P\260dBk\3753>X\360&?\303\264\264\362e0\211"
 253      B064426B 
 253      FD333E58 
 253      F0263FC3 
 253      B4B4F265 
 254 008d 12866CC4 		.ascii	"\022\206l\304?\256\345\030E \216\007.\222\353(\036\327"
 254      3FAEE518 
 254      45208E07 
 254      2E92EB28 
 254      1ED7
 255 009f BAC7DD48 		.ascii	"\272\307\335H\350\012dXs\012\0063\360,\204\322\020q"
 255      E80A6458 
 255      730A0633 
 255      F02C84D2 
 255      1071
 256 00b1 82308D62 		.ascii	"\2020\215b\001_\305n\017\203V\214\265s}M\314\300\002"
 256      015FC56E 
 256      0F83568C 
 256      B5737D4D 
 256      CCC002
 257 00c4 FB853C57 		.ascii	"\373\205<W\337\335\255\034\014|zj\006\025s\224!& \306"
 257      DFDDAD1C 
 257      0C7C7A6A 
 257      06157394 
 257      212620C6 
 258 00d8 82D0B324 		.ascii	"\202\320\263$\264\305\020\245xI\337\227\274ao\034c\363"
 258      B4C510A5 
 258      7849DF97 
 258      BC616F1C 
 258      63F3
 259 00ea F7DBF3ED 		.ascii	"\367\333\363\355\006Q\273Vr\210\235\243\336\213\234"
 259      0651BB56 
 259      72889DA3 
 259      DE8B9C
 260 00f9 EF2AA38C 		.ascii	"\357*\243\214\271\305\2106\245\366\327\324\356\027\333"
 260      B9C58836 
 260      A5F6D7D4 
 260      EE17DB
 261 0108 4B916CB7 		.ascii	"K\221l\267\306\372?c\004\303\221\030\267lb\026!\314"
 261      C6FA3F63 
 261      04C39118 
 261      B76C6216 
 261      21CC
 262 011a 81C78479 		.ascii	"\201\307\204y\316\3221\2427\226/g\370\212\361w\333\253"
 262      CED231A2 
 262      37962F67 
ARM GAS  C:\Users\Luggi\AppData\Local\Temp\ccCf7ojr.s 			page 20


 262      F88AF177 
 262      DBAB
 263 012c D94237D3 		.ascii	"\331B7\323|\236\004C\271j\034\202yHm\201\263\254A^\213"
 263      7C9E0443 
 263      B96A1C82 
 263      79486D81 
 263      B3AC415E 
 264 0141 DFEA7CC9 		.ascii	"\337\352|\311\300C\214\305\177\352g]+\2510u\226\374"
 264      C0438CC5 
 264      7FEA675D 
 264      2BA93075 
 264      96FC
 265 0153 E0B56F3E 		.ascii	"\340\265o>!,y\345\243\277\376Bl\226d\340\343:Z\366:"
 265      212C79E5 
 265      A3BFFE42 
 265      6C9664E0 
 265      E33A5AF6 
 266 0168 B2E91451 		.ascii	"\262\351\024Q\367dO\011\\\3461\272\377>\241\272\376"
 266      F7644F09 
 266      5CE631BA 
 266      FF3EA1BA 
 266      FE
 267 0179 E85E6D67 		.ascii	"\350^mgT \315\227FXA\027\017\334\242sD\3343o\272\362"
 267      5420CD97 
 267      46584117 
 267      0FDCA273 
 267      44DC336F 
 268 018f 0852FC8F 		.ascii	"\010R\374\217\247\316wPX\343t8\341\226WN[sc\347\353"
 268      A7CE7750 
 268      58E37438 
 268      E196574E 
 268      5B7363E7 
 269 01a4 70ABD354 		.ascii	"p\253\323T\337\330Y\365\242\251\266\272\262\352e\363"
 269      DFD859F5 
 269      A2A9B6BA 
 269      B2EA65F3 
 270 01b4 F3B2560A 		.ascii	"\363\262V\012\204[:\332\235{\251\363\310W"
 270      845B3ADA 
 270      9D7BA9F3 
 270      C857
 271              		.text
 272              		.section	.gnu.lto_.symbol_nodes.304b4f96,"",%progbits
 273 0000 789C55CD 		.ascii	"x\234U\315\261\015\002A\014D\321\277\366zo\257\012\232"
 273      B10D0241 
 273      0C44D1BF 
 273      F67A6FAF 
 273      0A9A
 274 0012 A0BF9108 		.ascii	"\240\277\221\010\210/\"\006j\240\002\012@\264\00015"
 274      882F2206 
 274      6AA0020A 
 274      40B40031 
 274      35
 275 0023 20404B70 		.ascii	" @Kpv2z\243\221\354\300\235\377\231\011\226\033H\034"
 275      76327AA3 
 275      91ECC09D 
 275      FF990996 
 275      1B481C
ARM GAS  C:\Users\Luggi\AppData\Local\Temp\ccCf7ojr.s 			page 21


 276 0036 8E1DAB2A 		.ascii	"\216\035\253*\311!K\356\362\344Y5\271(\222]m\355\200"
 276      C9214BEE 
 276      F2E45935 
 276      B928925D 
 276      6DED80
 277 0049 D3F7A535 		.ascii	"\323\367\2455Mi6\251\257\355a\234\037\357\342Q\271\376"
 277      4D6936A9 
 277      AFED619C 
 277      1FEFE251 
 277      B9FE
 278 005b B205CFCB 		.ascii	"\262\005\317\313\326\033\243n>\352^\331\355_\033\237"
 278      D61BA36E 
 278      3EEA5ED9 
 278      ED5F1B9F 
 279 006b 47F20153 		.ascii	"G\362\001S\3767\317"
 279      FE37CF
 280              		.text
 281              		.section	.gnu.lto_.refs.304b4f96,"",%progbits
 282 0000 789C6366 		.ascii	"x\234cf``\340d\200\000&6\006vFFv\026\006\000\001\177"
 282      6060E064 
 282      80002636 
 282      06764646 
 282      76160600 
 283 0016 0029     		.ascii	"\000)"
 284              		.text
 285              		.section	.gnu.lto_.decls.304b4f96,"",%progbits
 286 0000 789C9594 		.ascii	"x\234\225\224mh[U\030\307\317\311M\332$\315\342@\350"
 286      6D685B55 
 286      18C7CFC9 
 286      4DDA24CD 
 286      E240E8
 287 0013 A408760C 		.ascii	"\244\010v\014\006B\031S\020\372\315I'\353\276H\261\272"
 287      06421953 
 287      10FACD49 
 287      27EBBE48 
 287      B1BA
 288 0025 2F0E4BD6 		.ascii	"/\016K\326]f\240&%\246H\277\235\265\235\013qH,\025\353"
 288      5D66A026 
 288      25A648BF 
 288      9DB59D0B 
 288      71482C15 
 289 003a D02ED5D6 		.ascii	"\320.\325\326\256\2156ic\227&i\226\264\3254m\227\227"
 289      AE8D3669 
 289      63972669 
 289      96B4D534 
 289      6D9797
 290 004d 4198AE83 		.ascii	"A\230\256\203\231Z\260\333\227\331\201\233\263\352\256"
 290      995AB0DB 
 290      97D9819B 
 290      B3EAAE
 291 005c CF3DF7DC 		.ascii	"\317=\367\334\346\244$L\017\374o\3569\367\371\377\316"
 291      E6A4244C 
 291      0FFC6FEE 
 291      39F7F9FF 
 291      CE
 292 006d F39C9708 		.ascii	"\363\234\227\010\010\241\001\015B\022\264\367u\010="
 292      08A1010D 
ARM GAS  C:\Users\Luggi\AppData\Local\Temp\ccCf7ojr.s 			page 22


 292      4212B4F7 
 292      75083D
 293 007c 80BE11D4 		.ascii	"\200\276\021\324\002\202aT\013\362!\245\031@S\240 ("
 293      02826154 
 293      0BF221A5 
 293      194053A0 
 293      2028
 294 008e 040A83A2 		.ascii	"\004\012\203\242\240\030(\016\232\007-\2020(\211J\233"
 294      A018280E 
 294      9A072D82 
 294      3028894A 
 294      9B
 295 009f ECD332AE 		.ascii	"\354\3232\256\314\\\005-\263o\230}\337\335\202O\360"
 295      CC5C052D 
 295      B36F987D 
 295      DFDD824F 
 295      F0
 296 00b0 04CB78E4 		.ascii	"\004\313x\344\274t\314\343\253\340\013\225\361\205\271"
 296      BC74CCE3 
 296      ABE00B95 
 296      F185B9
 297 00bf B97C653C 		.ascii	"\271|e<\3412\036\271v\375\256\271\232Ai\316\177\215"
 297      E1321EB9 
 297      76FDAEB9 
 297      9A4169CE 
 297      7F8D
 298 00d1 6344CB30 		.ascii	"cD\3130b\034\203\3175\003\232\001eA~\026+\260\370P\005"
 298      621C83CF 
 298      35039A01 
 298      65417E16 
 298      2BB0F850 
 299 00e6 567C172B 		.ascii	"V|\027+\307\362R\031*\023\261Z\343\2147\305\352+\267"
 299      C7F25219 
 299      2A13B15A 
 299      E38C37C5 
 299      EA2BB7
 300 00f9 6FF29E56 		.ascii	"o\362\236V\243\362\353\311\347\246a\261\345\362Z\374"
 300      A3F2EBC9 
 300      E7A661B1 
 300      E5F25AFC 
 301 0109 1F8CC50A 		.ascii	"\037\214\305\012\214\373\032|#~\376\274^\320`\371\375"
 301      8CFB1A7C 
 301      237EFEBC 
 301      5ED060F9 
 301      FD
 302 011a ABC1F5BC 		.ascii	"\253\301\365\274\261a\202\020\342\"\211\004.\006\235"
 302      B1618210 
 302      E2228904 
 302      2E069D
 303 0129 FD3A7AA1 		.ascii	"\375:z\241\372\216\006\327\032i\367\243\325\213\363"
 303      FA8E06D7 
 303      1A69F7A3 
 303      D58BF3
 304 0138 02ED4AB2 		.ascii	"\002\355J\262Os\363\346\300\237\0026\036t\021\322C\266"
 304      4F73F3E6 
 304      C09F0236 
 304      1E7411D2 
ARM GAS  C:\Users\Luggi\AppData\Local\Temp\ccCf7ojr.s 			page 23


 304      43B6
 305 014a FA89F00C 		.ascii	"\372\211\360\014\302\015u\370\371:\204\277\301\007!"
 305      C20D75F8 
 305      F93A84BF 
 305      C10721
 306 0159 0C5FC60D 		.ascii	"\014_\306\015\010\217\343:<\201\353\320\010L\260u)\277"
 306      088FE33A 
 306      3C81EBD0 
 306      084CB075 
 306      29BF
 307 016b F62C215A 		.ascii	"\366,!Z\354\303F<\206\005\032\001\213%\317 7y\034f\012"
 307      ECC3463C 
 307      86051A01 
 307      8B25CF20 
 307      37791C66 
 308 0180 4FFE9EAE 		.ascii	"O\376\236\256\201\231\314\306zy\342H\177j\260\012\272"
 308      8199CCC6 
 308      7A79E248 
 308      7F6AB00A 
 308      BA
 309 0191 26A356EE 		.ascii	"&\243V\356F\377\372%\257\335\367\011\340\210\247\227"
 309      46FFFA25 
 309      AFDDF709 
 309      E088A797 
 310 01a1 ECD5E296 		.ascii	"\354\325\342\226Z\374-L2\011\223 \354\307\373\340\371"
 310      5AFC2D4C 
 310      32099320 
 310      ECC7FBE0 
 310      F9
 311 01b2 96562961 		.ascii	"\226V)ad\364\372l\265\360\002\255\323U\010f\315\365"
 311      64F4FA6C 
 311      B5F002AD 
 311      D3550866 
 311      CDF5
 312 01c4 43A410D8 		.ascii	"C\244\020\330rm\374q\3703\342\355!\217%\250E\366\340"
 312      726DFC71 
 312      F833E2ED 
 312      218F25A8 
 312      45F6E0
 313 01d7 C04E3648 		.ascii	"\300N6H~W\322\231\302\365`\354\357\273\370k\225p\212"
 313      7E57D299 
 313      C2F560EC 
 313      EFBBF86B 
 313      95708A
 314 01ea 42B281E4 		.ascii	"B\262\201\344\355\032\200x\003\336\337F\253R$!I/S\377"
 314      ED1A8078 
 314      03DEDF46 
 314      AB522421 
 314      492F53FF 
 315 01fe 34E79F56 		.ascii	"4\347\237V\375A\352\367\234\233\367h\265\032\245<95"
 315      FD41EAF7 
 315      9C9BF768 
 315      B51AA53C 
 315      3935
 316 0210 187B20AD 		.ascii	"\030{ \255\217j*\0261C\213\370\016\263*6\2477\006\014"
 316      8F6A2A16 
 316      31438BF8 
ARM GAS  C:\Users\Luggi\AppData\Local\Temp\ccCf7ojr.s 			page 24


 316      0EB32A36 
 316      A737060C 
 317 0224 829D26F0 		.ascii	"\202\235&\360O\317\243\014\246Ux#cj\002\020\217\257"
 317      4FCFA30C 
 317      A6557823 
 317      636A0210 
 317      8FAF
 318 0236 70095C51 		.ascii	"p\011\\Q\023\010\321\0042\236s\011\263@0\005H\303\227"
 318      1308D104 
 318      329E7309 
 318      B3403005 
 318      48C397
 319 0249 6F2BCBE0 		.ascii	"o+\313\340]\033\347\001\263\034`V\005\204)`\255\337"
 319      5D1BE701 
 319      B31C6056 
 319      05842960 
 319      ADDF
 320 025b BDA4133E 		.ascii	"\275\244\023>V\000\221\273\233a\226\301\254\217_\202"
 320      560091BB 
 320      9B6196C1 
 320      AC8F5F82 
 321 026b 080788A8 		.ascii	"\010\007\210\250\200(\005l\237\035\312aaX\001\304\356"
 321      8028056C 
 321      9F1DCA61 
 321      615801C4 
 321      EE
 322 027c F4B91960 		.ascii	"\364\271\031`{\232\034\351#\177K\222@\011s\034aN%\304"
 322      7B9A1CE9 
 322      237F4B92 
 322      4009731C 
 322      614E25C4 
 323 0290 2821E1DD 		.ascii	"(!\341\335H\031\204I\2050\264\222\226\260\262\013\276"
 323      48198449 
 323      8530B492 
 323      96B0B20B 
 323      BE
 324 02a1 925DB8CA 		.ascii	"\222]\270\312\001\256\252\2008\005\\\010\3744`\026\346"
 324      01AEAA80 
 324      38055C08 
 324      FC346016 
 324      E6
 325 02b2 14C0CCDD 		.ascii	"\024\300\314\335\261\0375\024P\270\267\2244\021\005"
 325      B11F3514 
 325      50B8B794 
 325      341105
 326 02c1 41171E27 		.ascii	"A\027\036'8FBe\314S\306\302R\"\257\027r\012\343\322"
 326      38464265 
 326      CC53C6C2 
 326      5222AF17 
 326      720AE3D2 
 327 02d5 CAC2CF06 		.ascii	"\312\302\317\006\2051\276,&\2242\024\304\002\207XP\021"
 327      8531BE2C 
 327      26943214 
 327      C4028758 
 327      5011
 328 02e7 8B14F185 		.ascii	"\213\024\361\205\177\323(\254+\204\307\267\002!\371"
 328      7FD328AC 
ARM GAS  C:\Users\Luggi\AppData\Local\Temp\ccCf7ojr.s 			page 25


 328      2B84C7B7 
 328      0221F9
 329 02f6 60C3B1A0 		.ascii	"`\303\261\240\373\234\312\307\266M\007\206\211\367\313"
 329      FB9CCAC7 
 329      B64D0786 
 329      89F7CB
 330 0305 42F49E6E 		.ascii	"B\364\236n\220\220\202$=G\017\315\367\012\220\335/$"
 330      90908224 
 330      3D470FCD 
 330      F70A90DD 
 330      2F24
 331 0317 F7E1F903 		.ascii	"\367\341\371\003\034\026\234\304\007\300J>\375pD/\334"
 331      1C169CC4 
 331      07C04A3E 
 331      FD70442F 
 331      DC
 332 0328 67D53D74 		.ascii	"g\325=t\207\367\030\341^\366\376\207{\01179\237q\337"
 332      87F718E1 
 332      5EF6FE87 
 332      7B093739 
 332      9F71DF
 333 033b 30283779 		.ascii	"0(7y\267c\245\342M~\264\321\334G\216\340e\310n\251x"
 333      B763A5E2 
 333      4D7EB4D1 
 333      DC478EE0 
 333      65C86EA9 
 334 0350 9353D8B8 		.ascii	"\223S\330\270\363\377\221_\355\271%\230\334\362\337"
 334      F3FF915F 
 334      EDB92598 
 334      DCF2DF
 335 035f 039C7143 		.ascii	"\003\234qC3\215-\036\362Ul\242\353\002\277\020\274\356"
 335      338D2D1E 
 335      F2556CA2 
 335      EB02BF10 
 335      BCEE
 336 0371 49CE19D4 		.ascii	"I\316\031\324\234]O\310\000\342{?\370<\251\347\341\327"
 336      9C5D4FC8 
 336      00E27B3F 
 336      F83CA9E7 
 336      E1D7
 337 0383 4AE06906 		.ascii	"J\340i\006OS\370P`m?\037+\357Q16\303b34\326\37707Q\303"
 337      4F53F850 
 337      606D3F1F 
 337      2BEF5131 
 337      36C36233 
 338 039e 07FB4B82 		.ascii	"\007\373K\202\263\330\244\326\232\245\361\327\267\244"
 338      B3D8A4D6 
 338      9AA5F1D7 
 338      B7A4
 339 03ac B7F9705F 		.ascii	"\267\371p_I\0369\306\226\177u]V\233\263\261\352\330"
 339      491E39C6 
 339      967F755D 
 339      569BB3B1 
 339      EAD8
 340 03be 6B6FD637 		.ascii	"ko\3267\241\375\307D\233\350\2608\305\323m\255\366."
 340      A1FDC744 
 340      9BE8B038 
ARM GAS  C:\Users\Luggi\AppData\Local\Temp\ccCf7ojr.s 			page 26


 340      C5D36DAD 
 340      F62E
 341 03d0 47BB78B2 		.ascii	"G\273x\262\245\325\336\364\322\311\366ngw\247\370\336"
 341      A5D5DEF4 
 341      D2C9F66E 
 341      6777A7F8 
 341      DE
 342 03e1 A17790F9 		.ascii	"\241w\220\371\370\321W\232\032\333^l{\325f9\325!V2\260"
 342      F8D1579A 
 342      1ADB5E6C 
 342      7BD56639 
 342      D5215632 
 343 03f6 A843EDC8 		.ascii	"\250C\355\310\244\032Z\235\366\316\275;\035\321\331"
 343      A41A5A9D 
 343      F6CEBD3B 
 343      1DD1D9
 344 0405 DA298AA7 		.ascii	"\332)\212\247\371\201\023\226\216.\361)u\340\250\245"
 344      F9811396 
 344      8E2EF129 
 344      75E0A8A5 
 345 0415 FD0D87F5 		.ascii	"\375\015\207\365\335\035\373q\233\325\271\247\310\262"
 345      DD1DFB71 
 345      9BD5B9A7 
 345      C8B2
 346 0423 389C4F73 		.ascii	"8\234Os\336\026{\207\305auv\363\274\327-\2663E\236\025"
 346      DE167B87 
 346      C5617576 
 346      F3BCD72D 
 346      B633459E 
 347 0438 FC272C0E 		.ascii	"\374',\016\255C<\323\370/\232\021;\302"
 347      AD433CD3 
 347      F82F9A11 
 347      3BC2
 348              		.text
 349              		.section	.gnu.lto_.symtab.304b4f96,"",%progbits
 350 0000 49444143 		.ascii	"IDAC8_2_Enable\000\000\000\000\000\000\000\000\000\000"
 350      385F325F 
 350      456E6162 
 350      6C650000 
 350      00000000 
 351 0018 0000B100 		.ascii	"\000\000\261\000\000\000IDAC8_2_Stop\000\000\000\000"
 351      00004944 
 351      4143385F 
 351      325F5374 
 351      6F700000 
 352 002e 00000000 		.ascii	"\000\000\000\000\000\000\000\000\263\000\000\000IDA"
 352      00000000 
 352      B3000000 
 352      494441
 353 003d 43385F32 		.ascii	"C8_2_SetSpeed\000\000\000\000\000\000\000\000\000\000"
 353      5F536574 
 353      53706565 
 353      64000000 
 353      00000000 
 354 0054 0000B700 		.ascii	"\000\000\267\000\000\000IDAC8_2_SetValue\000\000\000"
 354      00004944 
 354      4143385F 
ARM GAS  C:\Users\Luggi\AppData\Local\Temp\ccCf7ojr.s 			page 27


 354      325F5365 
 354      7456616C 
 355 006d 00000000 		.ascii	"\000\000\000\000\000\000\000\000\000\271\000\000\000"
 355      00000000 
 355      00B90000 
 355      00
 356 007a 49444143 		.ascii	"IDAC8_2_DacTrim\000\000\000\000\000\000\000\000\000"
 356      385F325F 
 356      44616354 
 356      72696D00 
 356      00000000 
 357 0092 000000BB 		.ascii	"\000\000\000\273\000\000\000IDAC8_2_Init\000\000\000"
 357      00000049 
 357      44414338 
 357      5F325F49 
 357      6E697400 
 358 00a8 00000000 		.ascii	"\000\000\000\000\000\000\000\000\000\275\000\000\000"
 358      00000000 
 358      00BD0000 
 358      00
 359 00b5 49444143 		.ascii	"IDAC8_2_Start\000\000\000\000\000\000\000\000\000\000"
 359      385F325F 
 359      53746172 
 359      74000000 
 359      00000000 
 360 00cc 0000BF00 		.ascii	"\000\000\277\000\000\000IDAC8_2_initVar\000\000\000"
 360      00004944 
 360      4143385F 
 360      325F696E 
 360      69745661 
 361 00e4 00000000 		.ascii	"\000\000\000\000\000\000\000\000\000\306\000\000\000"
 361      00000000 
 361      00C60000 
 361      00
 362 00f1 49444143 		.ascii	"IDAC8_2_SetPolarity\000\000\000\000\000\000\000\000"
 362      385F325F 
 362      53657450 
 362      6F6C6172 
 362      69747900 
 363 010c 00000000 		.ascii	"\000\000\000\000\301\000\000\000IDAC8_2_SetRange\000"
 363      C1000000 
 363      49444143 
 363      385F325F 
 363      53657452 
 364 0125 00000000 		.ascii	"\000\000\000\000\000\000\000\000\000\000\000\303\000"
 364      00000000 
 364      000000C3 
 364      00
 365 0132 0000     		.ascii	"\000\000"
 366              		.text
 367              		.section	.gnu.lto_.opts,"",%progbits
 368 0000 272D666E 		.ascii	"'-fno-trapv' '-fno-strict-overflow' '-mcpu=cortex-m"
 368      6F2D7472 
 368      61707627 
 368      20272D66 
 368      6E6F2D73 
 369 0033 33272027 		.ascii	"3' '-mthumb' '-g' '-Og' '-ffunction-sections' '-flt"
ARM GAS  C:\Users\Luggi\AppData\Local\Temp\ccCf7ojr.s 			page 28


 369      2D6D7468 
 369      756D6227 
 369      20272D67 
 369      2720272D 
 370 0066 6F272027 		.ascii	"o' '-ffat-lto-objects'\000"
 370      2D666661 
 370      742D6C74 
 370      6F2D6F62 
 370      6A656374 
 371              		.text
 372              		.cfi_sections	.debug_frame
 373              		.section	.text.IDAC8_2_Enable,"ax",%progbits
 374              		.align	2
 375              		.global	IDAC8_2_Enable
 376              		.thumb
 377              		.thumb_func
 378              		.type	IDAC8_2_Enable, %function
 379              	IDAC8_2_Enable:
 380              	.LFB1:
 381              		.file 1 "Generated_Source\\PSoC5\\IDAC8_2.c"
   1:Generated_Source\PSoC5/IDAC8_2.c **** /*******************************************************************************
   2:Generated_Source\PSoC5/IDAC8_2.c **** * File Name: IDAC8_2.c
   3:Generated_Source\PSoC5/IDAC8_2.c **** * Version 2.0
   4:Generated_Source\PSoC5/IDAC8_2.c **** *
   5:Generated_Source\PSoC5/IDAC8_2.c **** * Description:
   6:Generated_Source\PSoC5/IDAC8_2.c **** *  This file provides the source code to the API for the 8-bit Current 
   7:Generated_Source\PSoC5/IDAC8_2.c **** *  DAC (IDAC8) User Module.
   8:Generated_Source\PSoC5/IDAC8_2.c **** *
   9:Generated_Source\PSoC5/IDAC8_2.c **** * Note:
  10:Generated_Source\PSoC5/IDAC8_2.c **** *  None
  11:Generated_Source\PSoC5/IDAC8_2.c **** *
  12:Generated_Source\PSoC5/IDAC8_2.c **** ********************************************************************************
  13:Generated_Source\PSoC5/IDAC8_2.c **** * Copyright 2008-2012, Cypress Semiconductor Corporation.  All rights reserved.
  14:Generated_Source\PSoC5/IDAC8_2.c **** * You may use this file only in accordance with the license, terms, conditions, 
  15:Generated_Source\PSoC5/IDAC8_2.c **** * disclaimers, and limitations in the end user license agreement accompanying 
  16:Generated_Source\PSoC5/IDAC8_2.c **** * the software package with which this file was provided.
  17:Generated_Source\PSoC5/IDAC8_2.c **** *******************************************************************************/
  18:Generated_Source\PSoC5/IDAC8_2.c **** 
  19:Generated_Source\PSoC5/IDAC8_2.c **** #include "cytypes.h"
  20:Generated_Source\PSoC5/IDAC8_2.c **** #include "IDAC8_2.h"   
  21:Generated_Source\PSoC5/IDAC8_2.c **** 
  22:Generated_Source\PSoC5/IDAC8_2.c **** #if (CY_PSOC5A)
  23:Generated_Source\PSoC5/IDAC8_2.c ****     #include <CyLib.h>
  24:Generated_Source\PSoC5/IDAC8_2.c **** #endif /* CY_PSOC5A */
  25:Generated_Source\PSoC5/IDAC8_2.c **** 
  26:Generated_Source\PSoC5/IDAC8_2.c **** 
  27:Generated_Source\PSoC5/IDAC8_2.c **** uint8 IDAC8_2_initVar = 0u;
  28:Generated_Source\PSoC5/IDAC8_2.c **** 
  29:Generated_Source\PSoC5/IDAC8_2.c **** 
  30:Generated_Source\PSoC5/IDAC8_2.c **** #if (CY_PSOC5A)
  31:Generated_Source\PSoC5/IDAC8_2.c ****     static IDAC8_2_LOWPOWER_BACKUP_STRUCT  IDAC8_2_lowPowerBackup;
  32:Generated_Source\PSoC5/IDAC8_2.c **** #endif /* CY_PSOC5A */
  33:Generated_Source\PSoC5/IDAC8_2.c **** 
  34:Generated_Source\PSoC5/IDAC8_2.c **** /* Variable to decide whether or not to restore control register in Enable()
  35:Generated_Source\PSoC5/IDAC8_2.c ****    API. This valid only for PSoC5A */
  36:Generated_Source\PSoC5/IDAC8_2.c **** #if (CY_PSOC5A)
  37:Generated_Source\PSoC5/IDAC8_2.c ****     static uint8 IDAC8_2_restoreReg = 0u;
ARM GAS  C:\Users\Luggi\AppData\Local\Temp\ccCf7ojr.s 			page 29


  38:Generated_Source\PSoC5/IDAC8_2.c **** #endif /* CY_PSOC5A */
  39:Generated_Source\PSoC5/IDAC8_2.c **** 
  40:Generated_Source\PSoC5/IDAC8_2.c **** 
  41:Generated_Source\PSoC5/IDAC8_2.c **** /*******************************************************************************
  42:Generated_Source\PSoC5/IDAC8_2.c **** * Function Name: IDAC8_2_Init
  43:Generated_Source\PSoC5/IDAC8_2.c **** ********************************************************************************
  44:Generated_Source\PSoC5/IDAC8_2.c **** * Summary:
  45:Generated_Source\PSoC5/IDAC8_2.c **** *  Initialize to the schematic state.
  46:Generated_Source\PSoC5/IDAC8_2.c **** * 
  47:Generated_Source\PSoC5/IDAC8_2.c **** * Parameters:
  48:Generated_Source\PSoC5/IDAC8_2.c **** *  void:
  49:Generated_Source\PSoC5/IDAC8_2.c **** *
  50:Generated_Source\PSoC5/IDAC8_2.c **** * Return:
  51:Generated_Source\PSoC5/IDAC8_2.c **** *  (void)
  52:Generated_Source\PSoC5/IDAC8_2.c **** *
  53:Generated_Source\PSoC5/IDAC8_2.c **** * Theory:
  54:Generated_Source\PSoC5/IDAC8_2.c **** *
  55:Generated_Source\PSoC5/IDAC8_2.c **** * Side Effects:
  56:Generated_Source\PSoC5/IDAC8_2.c **** *
  57:Generated_Source\PSoC5/IDAC8_2.c **** *******************************************************************************/
  58:Generated_Source\PSoC5/IDAC8_2.c **** void IDAC8_2_Init(void) 
  59:Generated_Source\PSoC5/IDAC8_2.c **** {
  60:Generated_Source\PSoC5/IDAC8_2.c ****     IDAC8_2_CR0 = (IDAC8_2_MODE_I | IDAC8_2_DEFAULT_RANGE );
  61:Generated_Source\PSoC5/IDAC8_2.c **** 
  62:Generated_Source\PSoC5/IDAC8_2.c ****     /* Set default data source */
  63:Generated_Source\PSoC5/IDAC8_2.c ****     #if(IDAC8_2_DEFAULT_DATA_SRC != 0u )    
  64:Generated_Source\PSoC5/IDAC8_2.c ****         IDAC8_2_CR1 = (IDAC8_2_DEFAULT_CNTL | IDAC8_2_DACBUS_ENABLE);
  65:Generated_Source\PSoC5/IDAC8_2.c ****     #else
  66:Generated_Source\PSoC5/IDAC8_2.c ****         IDAC8_2_CR1 = (IDAC8_2_DEFAULT_CNTL | IDAC8_2_DACBUS_DISABLE);
  67:Generated_Source\PSoC5/IDAC8_2.c ****     #endif /* (IDAC8_2_DEFAULT_DATA_SRC != 0u ) */
  68:Generated_Source\PSoC5/IDAC8_2.c ****     
  69:Generated_Source\PSoC5/IDAC8_2.c ****     /*Controls polarity from UDB Control*/
  70:Generated_Source\PSoC5/IDAC8_2.c ****     #if(IDAC8_2_DEFAULT_POLARITY == IDAC8_2_HARDWARE_CONTROLLED)
  71:Generated_Source\PSoC5/IDAC8_2.c ****         IDAC8_2_CR1 |= IDAC8_2_IDIR_SRC_UDB;
  72:Generated_Source\PSoC5/IDAC8_2.c ****     #else
  73:Generated_Source\PSoC5/IDAC8_2.c ****         IDAC8_2_CR1 |= IDAC8_2_DEFAULT_POLARITY;
  74:Generated_Source\PSoC5/IDAC8_2.c ****     #endif/* (IDAC8_2_DEFAULT_POLARITY == IDAC8_2_HARDWARE_CONTROLLED) */
  75:Generated_Source\PSoC5/IDAC8_2.c ****     /*Controls Current Source from UDB Control*/
  76:Generated_Source\PSoC5/IDAC8_2.c ****     #if(IDAC8_2_HARDWARE_ENABLE != 0u ) 
  77:Generated_Source\PSoC5/IDAC8_2.c ****         IDAC8_2_CR1 |= IDAC8_2_IDIR_CTL_UDB;
  78:Generated_Source\PSoC5/IDAC8_2.c ****     #endif /* (IDAC8_2_HARDWARE_ENABLE != 0u ) */ 
  79:Generated_Source\PSoC5/IDAC8_2.c ****     
  80:Generated_Source\PSoC5/IDAC8_2.c ****     /* Set default strobe mode */
  81:Generated_Source\PSoC5/IDAC8_2.c ****     #if(IDAC8_2_DEFAULT_STRB != 0u)
  82:Generated_Source\PSoC5/IDAC8_2.c ****         IDAC8_2_Strobe |= IDAC8_2_STRB_EN;
  83:Generated_Source\PSoC5/IDAC8_2.c ****     #endif /* (IDAC8_2_DEFAULT_STRB != 0u) */
  84:Generated_Source\PSoC5/IDAC8_2.c ****     
  85:Generated_Source\PSoC5/IDAC8_2.c ****     /* Set default speed */
  86:Generated_Source\PSoC5/IDAC8_2.c ****     IDAC8_2_SetSpeed(IDAC8_2_DEFAULT_SPEED);
  87:Generated_Source\PSoC5/IDAC8_2.c ****     
  88:Generated_Source\PSoC5/IDAC8_2.c ****     /* Set proper DAC trim */
  89:Generated_Source\PSoC5/IDAC8_2.c ****     IDAC8_2_DacTrim();
  90:Generated_Source\PSoC5/IDAC8_2.c ****     
  91:Generated_Source\PSoC5/IDAC8_2.c **** }
  92:Generated_Source\PSoC5/IDAC8_2.c **** 
  93:Generated_Source\PSoC5/IDAC8_2.c **** 
  94:Generated_Source\PSoC5/IDAC8_2.c **** /*******************************************************************************
ARM GAS  C:\Users\Luggi\AppData\Local\Temp\ccCf7ojr.s 			page 30


  95:Generated_Source\PSoC5/IDAC8_2.c **** * Function Name: IDAC8_2_Enable
  96:Generated_Source\PSoC5/IDAC8_2.c **** ********************************************************************************
  97:Generated_Source\PSoC5/IDAC8_2.c **** * Summary:
  98:Generated_Source\PSoC5/IDAC8_2.c **** *  Enable the IDAC8
  99:Generated_Source\PSoC5/IDAC8_2.c **** * 
 100:Generated_Source\PSoC5/IDAC8_2.c **** * Parameters:
 101:Generated_Source\PSoC5/IDAC8_2.c **** *  void:
 102:Generated_Source\PSoC5/IDAC8_2.c **** *
 103:Generated_Source\PSoC5/IDAC8_2.c **** * Return:
 104:Generated_Source\PSoC5/IDAC8_2.c **** *  (void)
 105:Generated_Source\PSoC5/IDAC8_2.c **** *
 106:Generated_Source\PSoC5/IDAC8_2.c **** * Theory:
 107:Generated_Source\PSoC5/IDAC8_2.c **** *
 108:Generated_Source\PSoC5/IDAC8_2.c **** * Side Effects:
 109:Generated_Source\PSoC5/IDAC8_2.c **** *
 110:Generated_Source\PSoC5/IDAC8_2.c **** *******************************************************************************/
 111:Generated_Source\PSoC5/IDAC8_2.c **** void IDAC8_2_Enable(void) 
 112:Generated_Source\PSoC5/IDAC8_2.c **** {
 382              		.loc 1 112 0
 383              		.cfi_startproc
 384              		@ args = 0, pretend = 0, frame = 0
 385              		@ frame_needed = 0, uses_anonymous_args = 0
 386              		@ link register save eliminated.
 113:Generated_Source\PSoC5/IDAC8_2.c ****     IDAC8_2_PWRMGR |= IDAC8_2_ACT_PWR_EN;
 387              		.loc 1 113 0
 388 0000 054A     		ldr	r2, .L2
 389 0002 1378     		ldrb	r3, [r2]	@ zero_extendqisi2
 390 0004 43F00803 		orr	r3, r3, #8
 391 0008 1370     		strb	r3, [r2]
 114:Generated_Source\PSoC5/IDAC8_2.c ****     IDAC8_2_STBY_PWRMGR |= IDAC8_2_STBY_PWR_EN;
 392              		.loc 1 114 0
 393 000a 1032     		adds	r2, r2, #16
 394 000c 1378     		ldrb	r3, [r2]	@ zero_extendqisi2
 395 000e 43F00803 		orr	r3, r3, #8
 396 0012 1370     		strb	r3, [r2]
 397 0014 7047     		bx	lr
 398              	.L3:
 399 0016 00BF     		.align	2
 400              	.L2:
 401 0018 A8430040 		.word	1073759144
 402              		.cfi_endproc
 403              	.LFE1:
 404              		.size	IDAC8_2_Enable, .-IDAC8_2_Enable
 405              		.section	.text.IDAC8_2_Stop,"ax",%progbits
 406              		.align	2
 407              		.global	IDAC8_2_Stop
 408              		.thumb
 409              		.thumb_func
 410              		.type	IDAC8_2_Stop, %function
 411              	IDAC8_2_Stop:
 412              	.LFB3:
 115:Generated_Source\PSoC5/IDAC8_2.c **** 
 116:Generated_Source\PSoC5/IDAC8_2.c ****     /* This is to restore the value of register CR0 which is saved 
 117:Generated_Source\PSoC5/IDAC8_2.c ****       in prior to the modification in stop() API */
 118:Generated_Source\PSoC5/IDAC8_2.c ****     #if (CY_PSOC5A)
 119:Generated_Source\PSoC5/IDAC8_2.c ****         if(IDAC8_2_restoreReg == 1u)
 120:Generated_Source\PSoC5/IDAC8_2.c ****         {
ARM GAS  C:\Users\Luggi\AppData\Local\Temp\ccCf7ojr.s 			page 31


 121:Generated_Source\PSoC5/IDAC8_2.c ****             IDAC8_2_CR0 = IDAC8_2_lowPowerBackup.DACCR0Reg;
 122:Generated_Source\PSoC5/IDAC8_2.c **** 
 123:Generated_Source\PSoC5/IDAC8_2.c ****             /* Clear the flag */
 124:Generated_Source\PSoC5/IDAC8_2.c ****             IDAC8_2_restoreReg = 0u;
 125:Generated_Source\PSoC5/IDAC8_2.c ****         }
 126:Generated_Source\PSoC5/IDAC8_2.c ****     #endif /* CY_PSOC5A */
 127:Generated_Source\PSoC5/IDAC8_2.c **** }
 128:Generated_Source\PSoC5/IDAC8_2.c **** 
 129:Generated_Source\PSoC5/IDAC8_2.c **** 
 130:Generated_Source\PSoC5/IDAC8_2.c **** /*******************************************************************************
 131:Generated_Source\PSoC5/IDAC8_2.c **** * Function Name: IDAC8_2_Start
 132:Generated_Source\PSoC5/IDAC8_2.c **** ********************************************************************************
 133:Generated_Source\PSoC5/IDAC8_2.c **** * Summary:
 134:Generated_Source\PSoC5/IDAC8_2.c **** *  Set power level then turn on IDAC8.
 135:Generated_Source\PSoC5/IDAC8_2.c **** *
 136:Generated_Source\PSoC5/IDAC8_2.c **** * Parameters:  
 137:Generated_Source\PSoC5/IDAC8_2.c **** *  power: Sets power level between off (0) and (3) high power
 138:Generated_Source\PSoC5/IDAC8_2.c **** *
 139:Generated_Source\PSoC5/IDAC8_2.c **** * Return:
 140:Generated_Source\PSoC5/IDAC8_2.c **** *  (void)
 141:Generated_Source\PSoC5/IDAC8_2.c **** *
 142:Generated_Source\PSoC5/IDAC8_2.c **** * Global variables:
 143:Generated_Source\PSoC5/IDAC8_2.c **** *  IDAC8_2_initVar: Is modified when this function is called for 
 144:Generated_Source\PSoC5/IDAC8_2.c **** *   the first time. Is used to ensure that initialization happens only once.
 145:Generated_Source\PSoC5/IDAC8_2.c **** *
 146:Generated_Source\PSoC5/IDAC8_2.c **** *******************************************************************************/
 147:Generated_Source\PSoC5/IDAC8_2.c **** void IDAC8_2_Start(void) 
 148:Generated_Source\PSoC5/IDAC8_2.c **** {
 149:Generated_Source\PSoC5/IDAC8_2.c ****     /* Hardware initiazation only needs to occur the first time */
 150:Generated_Source\PSoC5/IDAC8_2.c ****     if ( IDAC8_2_initVar == 0u)  
 151:Generated_Source\PSoC5/IDAC8_2.c ****     {
 152:Generated_Source\PSoC5/IDAC8_2.c ****         IDAC8_2_Init();
 153:Generated_Source\PSoC5/IDAC8_2.c ****         
 154:Generated_Source\PSoC5/IDAC8_2.c ****         IDAC8_2_initVar = 1u;
 155:Generated_Source\PSoC5/IDAC8_2.c ****     }
 156:Generated_Source\PSoC5/IDAC8_2.c ****    
 157:Generated_Source\PSoC5/IDAC8_2.c ****     /* Enable power to DAC */
 158:Generated_Source\PSoC5/IDAC8_2.c ****     IDAC8_2_Enable();
 159:Generated_Source\PSoC5/IDAC8_2.c **** 
 160:Generated_Source\PSoC5/IDAC8_2.c ****     /* Set default value */
 161:Generated_Source\PSoC5/IDAC8_2.c ****     IDAC8_2_SetValue(IDAC8_2_DEFAULT_DATA);
 162:Generated_Source\PSoC5/IDAC8_2.c **** 
 163:Generated_Source\PSoC5/IDAC8_2.c **** }
 164:Generated_Source\PSoC5/IDAC8_2.c **** 
 165:Generated_Source\PSoC5/IDAC8_2.c **** 
 166:Generated_Source\PSoC5/IDAC8_2.c **** /*******************************************************************************
 167:Generated_Source\PSoC5/IDAC8_2.c **** * Function Name: IDAC8_2_Stop
 168:Generated_Source\PSoC5/IDAC8_2.c **** ********************************************************************************
 169:Generated_Source\PSoC5/IDAC8_2.c **** * Summary:
 170:Generated_Source\PSoC5/IDAC8_2.c **** *  Powers down IDAC8 to lowest power state.
 171:Generated_Source\PSoC5/IDAC8_2.c **** *
 172:Generated_Source\PSoC5/IDAC8_2.c **** * Parameters:
 173:Generated_Source\PSoC5/IDAC8_2.c **** *  (void)
 174:Generated_Source\PSoC5/IDAC8_2.c **** *
 175:Generated_Source\PSoC5/IDAC8_2.c **** * Return:
 176:Generated_Source\PSoC5/IDAC8_2.c **** *  (void)
 177:Generated_Source\PSoC5/IDAC8_2.c **** *
ARM GAS  C:\Users\Luggi\AppData\Local\Temp\ccCf7ojr.s 			page 32


 178:Generated_Source\PSoC5/IDAC8_2.c **** * Theory:
 179:Generated_Source\PSoC5/IDAC8_2.c **** *
 180:Generated_Source\PSoC5/IDAC8_2.c **** * Side Effects:
 181:Generated_Source\PSoC5/IDAC8_2.c **** *
 182:Generated_Source\PSoC5/IDAC8_2.c **** *******************************************************************************/
 183:Generated_Source\PSoC5/IDAC8_2.c **** void IDAC8_2_Stop(void) 
 184:Generated_Source\PSoC5/IDAC8_2.c **** {
 413              		.loc 1 184 0
 414              		.cfi_startproc
 415              		@ args = 0, pretend = 0, frame = 0
 416              		@ frame_needed = 0, uses_anonymous_args = 0
 417              		@ link register save eliminated.
 185:Generated_Source\PSoC5/IDAC8_2.c ****     /* Disble power to DAC */
 186:Generated_Source\PSoC5/IDAC8_2.c ****     IDAC8_2_PWRMGR &= (uint8)(~IDAC8_2_ACT_PWR_EN);
 418              		.loc 1 186 0
 419 0000 054A     		ldr	r2, .L5
 420 0002 1378     		ldrb	r3, [r2]	@ zero_extendqisi2
 421 0004 03F0F703 		and	r3, r3, #247
 422 0008 1370     		strb	r3, [r2]
 187:Generated_Source\PSoC5/IDAC8_2.c ****     IDAC8_2_STBY_PWRMGR &= (uint8)(~IDAC8_2_STBY_PWR_EN);
 423              		.loc 1 187 0
 424 000a 1032     		adds	r2, r2, #16
 425 000c 1378     		ldrb	r3, [r2]	@ zero_extendqisi2
 426 000e 03F0F703 		and	r3, r3, #247
 427 0012 1370     		strb	r3, [r2]
 428 0014 7047     		bx	lr
 429              	.L6:
 430 0016 00BF     		.align	2
 431              	.L5:
 432 0018 A8430040 		.word	1073759144
 433              		.cfi_endproc
 434              	.LFE3:
 435              		.size	IDAC8_2_Stop, .-IDAC8_2_Stop
 436              		.section	.text.IDAC8_2_SetSpeed,"ax",%progbits
 437              		.align	2
 438              		.global	IDAC8_2_SetSpeed
 439              		.thumb
 440              		.thumb_func
 441              		.type	IDAC8_2_SetSpeed, %function
 442              	IDAC8_2_SetSpeed:
 443              	.LFB4:
 188:Generated_Source\PSoC5/IDAC8_2.c ****     
 189:Generated_Source\PSoC5/IDAC8_2.c ****     #if (CY_PSOC5A)
 190:Generated_Source\PSoC5/IDAC8_2.c ****     
 191:Generated_Source\PSoC5/IDAC8_2.c ****         /* Set the global variable  */
 192:Generated_Source\PSoC5/IDAC8_2.c ****         IDAC8_2_restoreReg = 1u;
 193:Generated_Source\PSoC5/IDAC8_2.c **** 
 194:Generated_Source\PSoC5/IDAC8_2.c ****         /* Save the control register and then Clear it. */
 195:Generated_Source\PSoC5/IDAC8_2.c ****         IDAC8_2_lowPowerBackup.DACCR0Reg = IDAC8_2_CR0;
 196:Generated_Source\PSoC5/IDAC8_2.c ****         IDAC8_2_CR0 = (IDAC8_2_MODE_I | IDAC8_2_RANGE_3 | IDAC8_2_HS_HIGHSPEED);
 197:Generated_Source\PSoC5/IDAC8_2.c ****     #endif /* CY_PSOC5A */
 198:Generated_Source\PSoC5/IDAC8_2.c **** }
 199:Generated_Source\PSoC5/IDAC8_2.c **** 
 200:Generated_Source\PSoC5/IDAC8_2.c **** 
 201:Generated_Source\PSoC5/IDAC8_2.c **** /*******************************************************************************
 202:Generated_Source\PSoC5/IDAC8_2.c **** * Function Name: IDAC8_2_SetSpeed
 203:Generated_Source\PSoC5/IDAC8_2.c **** ********************************************************************************
ARM GAS  C:\Users\Luggi\AppData\Local\Temp\ccCf7ojr.s 			page 33


 204:Generated_Source\PSoC5/IDAC8_2.c **** * Summary:
 205:Generated_Source\PSoC5/IDAC8_2.c **** *  Set DAC speed
 206:Generated_Source\PSoC5/IDAC8_2.c **** *
 207:Generated_Source\PSoC5/IDAC8_2.c **** * Parameters:
 208:Generated_Source\PSoC5/IDAC8_2.c **** *  power: Sets speed value
 209:Generated_Source\PSoC5/IDAC8_2.c **** *
 210:Generated_Source\PSoC5/IDAC8_2.c **** * Return:
 211:Generated_Source\PSoC5/IDAC8_2.c **** *  (void)
 212:Generated_Source\PSoC5/IDAC8_2.c **** *
 213:Generated_Source\PSoC5/IDAC8_2.c **** * Theory:
 214:Generated_Source\PSoC5/IDAC8_2.c **** *
 215:Generated_Source\PSoC5/IDAC8_2.c **** * Side Effects:
 216:Generated_Source\PSoC5/IDAC8_2.c **** *
 217:Generated_Source\PSoC5/IDAC8_2.c **** *******************************************************************************/
 218:Generated_Source\PSoC5/IDAC8_2.c **** void IDAC8_2_SetSpeed(uint8 speed) 
 219:Generated_Source\PSoC5/IDAC8_2.c **** {
 444              		.loc 1 219 0
 445              		.cfi_startproc
 446              		@ args = 0, pretend = 0, frame = 0
 447              		@ frame_needed = 0, uses_anonymous_args = 0
 448              		@ link register save eliminated.
 449              	.LVL0:
 220:Generated_Source\PSoC5/IDAC8_2.c ****     /* Clear power mask then write in new value */
 221:Generated_Source\PSoC5/IDAC8_2.c ****     IDAC8_2_CR0 &= (uint8)(~IDAC8_2_HS_MASK);
 450              		.loc 1 221 0
 451 0000 054B     		ldr	r3, .L8
 452 0002 1A78     		ldrb	r2, [r3]	@ zero_extendqisi2
 453 0004 02F0FD02 		and	r2, r2, #253
 454 0008 1A70     		strb	r2, [r3]
 222:Generated_Source\PSoC5/IDAC8_2.c ****     IDAC8_2_CR0 |=  ( speed & IDAC8_2_HS_MASK);
 455              		.loc 1 222 0
 456 000a 1A78     		ldrb	r2, [r3]	@ zero_extendqisi2
 457 000c 00F00200 		and	r0, r0, #2
 458              	.LVL1:
 459 0010 1043     		orrs	r0, r0, r2
 460 0012 1870     		strb	r0, [r3]
 461 0014 7047     		bx	lr
 462              	.L9:
 463 0016 00BF     		.align	2
 464              	.L8:
 465 0018 2C580040 		.word	1073764396
 466              		.cfi_endproc
 467              	.LFE4:
 468              		.size	IDAC8_2_SetSpeed, .-IDAC8_2_SetSpeed
 469              		.section	.text.IDAC8_2_SetValue,"ax",%progbits
 470              		.align	2
 471              		.global	IDAC8_2_SetValue
 472              		.thumb
 473              		.thumb_func
 474              		.type	IDAC8_2_SetValue, %function
 475              	IDAC8_2_SetValue:
 476              	.LFB7:
 223:Generated_Source\PSoC5/IDAC8_2.c **** }
 224:Generated_Source\PSoC5/IDAC8_2.c **** 
 225:Generated_Source\PSoC5/IDAC8_2.c **** 
 226:Generated_Source\PSoC5/IDAC8_2.c **** /*******************************************************************************
 227:Generated_Source\PSoC5/IDAC8_2.c **** * Function Name: IDAC8_2_SetPolarity
ARM GAS  C:\Users\Luggi\AppData\Local\Temp\ccCf7ojr.s 			page 34


 228:Generated_Source\PSoC5/IDAC8_2.c **** ********************************************************************************
 229:Generated_Source\PSoC5/IDAC8_2.c **** * Summary:
 230:Generated_Source\PSoC5/IDAC8_2.c **** *  Sets IDAC to Sink or Source current.
 231:Generated_Source\PSoC5/IDAC8_2.c **** *  
 232:Generated_Source\PSoC5/IDAC8_2.c **** * Parameters:
 233:Generated_Source\PSoC5/IDAC8_2.c **** *  Polarity: Sets the IDAC to Sink or Source 
 234:Generated_Source\PSoC5/IDAC8_2.c **** *  0x00 - Source
 235:Generated_Source\PSoC5/IDAC8_2.c **** *  0x04 - Sink
 236:Generated_Source\PSoC5/IDAC8_2.c **** *
 237:Generated_Source\PSoC5/IDAC8_2.c **** * Return:
 238:Generated_Source\PSoC5/IDAC8_2.c **** *  (void)
 239:Generated_Source\PSoC5/IDAC8_2.c **** *
 240:Generated_Source\PSoC5/IDAC8_2.c **** * Theory:
 241:Generated_Source\PSoC5/IDAC8_2.c **** *
 242:Generated_Source\PSoC5/IDAC8_2.c **** * Side Effects:
 243:Generated_Source\PSoC5/IDAC8_2.c **** *
 244:Generated_Source\PSoC5/IDAC8_2.c **** *******************************************************************************/
 245:Generated_Source\PSoC5/IDAC8_2.c **** #if(IDAC8_2_DEFAULT_POLARITY != IDAC8_2_HARDWARE_CONTROLLED)
 246:Generated_Source\PSoC5/IDAC8_2.c ****     void IDAC8_2_SetPolarity(uint8 polarity) 
 247:Generated_Source\PSoC5/IDAC8_2.c ****     {
 248:Generated_Source\PSoC5/IDAC8_2.c ****         IDAC8_2_CR1 &= (uint8)(~IDAC8_2_IDIR_MASK);                /* clear polarity bit */
 249:Generated_Source\PSoC5/IDAC8_2.c ****         IDAC8_2_CR1 |= (polarity & IDAC8_2_IDIR_MASK);             /* set new value */
 250:Generated_Source\PSoC5/IDAC8_2.c ****     
 251:Generated_Source\PSoC5/IDAC8_2.c ****         IDAC8_2_DacTrim();
 252:Generated_Source\PSoC5/IDAC8_2.c ****     }
 253:Generated_Source\PSoC5/IDAC8_2.c **** #endif/*(IDAC8_2_DEFAULT_POLARITY != IDAC8_2_HARDWARE_CONTROLLED)*/
 254:Generated_Source\PSoC5/IDAC8_2.c **** 
 255:Generated_Source\PSoC5/IDAC8_2.c **** 
 256:Generated_Source\PSoC5/IDAC8_2.c **** /*******************************************************************************
 257:Generated_Source\PSoC5/IDAC8_2.c **** * Function Name: IDAC8_2_SetRange
 258:Generated_Source\PSoC5/IDAC8_2.c **** ********************************************************************************
 259:Generated_Source\PSoC5/IDAC8_2.c **** * Summary:
 260:Generated_Source\PSoC5/IDAC8_2.c **** *  Set current range
 261:Generated_Source\PSoC5/IDAC8_2.c **** *
 262:Generated_Source\PSoC5/IDAC8_2.c **** * Parameters:
 263:Generated_Source\PSoC5/IDAC8_2.c **** *  Range: Sets on of four valid ranges.
 264:Generated_Source\PSoC5/IDAC8_2.c **** *
 265:Generated_Source\PSoC5/IDAC8_2.c **** * Return:
 266:Generated_Source\PSoC5/IDAC8_2.c **** *  (void)
 267:Generated_Source\PSoC5/IDAC8_2.c **** *
 268:Generated_Source\PSoC5/IDAC8_2.c **** * Theory:
 269:Generated_Source\PSoC5/IDAC8_2.c **** *
 270:Generated_Source\PSoC5/IDAC8_2.c **** * Side Effects:
 271:Generated_Source\PSoC5/IDAC8_2.c **** *
 272:Generated_Source\PSoC5/IDAC8_2.c **** *******************************************************************************/
 273:Generated_Source\PSoC5/IDAC8_2.c **** void IDAC8_2_SetRange(uint8 range) 
 274:Generated_Source\PSoC5/IDAC8_2.c **** {
 275:Generated_Source\PSoC5/IDAC8_2.c ****     IDAC8_2_CR0 &= (uint8)(~IDAC8_2_RANGE_MASK);       /* Clear existing mode */
 276:Generated_Source\PSoC5/IDAC8_2.c ****     IDAC8_2_CR0 |= ( range & IDAC8_2_RANGE_MASK );     /*  Set Range  */
 277:Generated_Source\PSoC5/IDAC8_2.c ****     IDAC8_2_DacTrim();
 278:Generated_Source\PSoC5/IDAC8_2.c **** }
 279:Generated_Source\PSoC5/IDAC8_2.c **** 
 280:Generated_Source\PSoC5/IDAC8_2.c **** 
 281:Generated_Source\PSoC5/IDAC8_2.c **** /*******************************************************************************
 282:Generated_Source\PSoC5/IDAC8_2.c **** * Function Name: IDAC8_2_SetValue
 283:Generated_Source\PSoC5/IDAC8_2.c **** ********************************************************************************
 284:Generated_Source\PSoC5/IDAC8_2.c **** * Summary:
ARM GAS  C:\Users\Luggi\AppData\Local\Temp\ccCf7ojr.s 			page 35


 285:Generated_Source\PSoC5/IDAC8_2.c **** *  Set DAC value
 286:Generated_Source\PSoC5/IDAC8_2.c **** *
 287:Generated_Source\PSoC5/IDAC8_2.c **** * Parameters:
 288:Generated_Source\PSoC5/IDAC8_2.c **** *  value: Sets DAC value between 0 and 255.
 289:Generated_Source\PSoC5/IDAC8_2.c **** *
 290:Generated_Source\PSoC5/IDAC8_2.c **** * Return:
 291:Generated_Source\PSoC5/IDAC8_2.c **** *  (void)
 292:Generated_Source\PSoC5/IDAC8_2.c **** *
 293:Generated_Source\PSoC5/IDAC8_2.c **** * Theory:
 294:Generated_Source\PSoC5/IDAC8_2.c **** *
 295:Generated_Source\PSoC5/IDAC8_2.c **** * Side Effects:
 296:Generated_Source\PSoC5/IDAC8_2.c **** *
 297:Generated_Source\PSoC5/IDAC8_2.c **** *******************************************************************************/
 298:Generated_Source\PSoC5/IDAC8_2.c **** void IDAC8_2_SetValue(uint8 value) 
 299:Generated_Source\PSoC5/IDAC8_2.c **** {
 477              		.loc 1 299 0
 478              		.cfi_startproc
 479              		@ args = 0, pretend = 0, frame = 0
 480              		@ frame_needed = 0, uses_anonymous_args = 0
 481              		@ link register save eliminated.
 482              	.LVL2:
 300:Generated_Source\PSoC5/IDAC8_2.c **** 
 301:Generated_Source\PSoC5/IDAC8_2.c ****     #if (CY_PSOC5A)
 302:Generated_Source\PSoC5/IDAC8_2.c ****         uint8 IDAC8_2_intrStatus = CyEnterCriticalSection();
 303:Generated_Source\PSoC5/IDAC8_2.c ****     #endif /* CY_PSOC5A */
 304:Generated_Source\PSoC5/IDAC8_2.c **** 
 305:Generated_Source\PSoC5/IDAC8_2.c ****     IDAC8_2_Data = value;         /*  Set Value  */
 483              		.loc 1 305 0
 484 0000 014B     		ldr	r3, .L11
 485 0002 1870     		strb	r0, [r3]
 486 0004 7047     		bx	lr
 487              	.L12:
 488 0006 00BF     		.align	2
 489              	.L11:
 490 0008 835B0040 		.word	1073765251
 491              		.cfi_endproc
 492              	.LFE7:
 493              		.size	IDAC8_2_SetValue, .-IDAC8_2_SetValue
 494              		.section	.text.IDAC8_2_DacTrim,"ax",%progbits
 495              		.align	2
 496              		.global	IDAC8_2_DacTrim
 497              		.thumb
 498              		.thumb_func
 499              		.type	IDAC8_2_DacTrim, %function
 500              	IDAC8_2_DacTrim:
 501              	.LFB8:
 306:Generated_Source\PSoC5/IDAC8_2.c ****     
 307:Generated_Source\PSoC5/IDAC8_2.c ****     /* PSOC5A silicons require a double write */
 308:Generated_Source\PSoC5/IDAC8_2.c ****     #if (CY_PSOC5A)
 309:Generated_Source\PSoC5/IDAC8_2.c ****         IDAC8_2_Data = value;
 310:Generated_Source\PSoC5/IDAC8_2.c ****         CyExitCriticalSection(IDAC8_2_intrStatus);
 311:Generated_Source\PSoC5/IDAC8_2.c ****     #endif /* CY_PSOC5A */
 312:Generated_Source\PSoC5/IDAC8_2.c **** }
 313:Generated_Source\PSoC5/IDAC8_2.c **** 
 314:Generated_Source\PSoC5/IDAC8_2.c **** 
 315:Generated_Source\PSoC5/IDAC8_2.c **** /*******************************************************************************
 316:Generated_Source\PSoC5/IDAC8_2.c **** * Function Name: IDAC8_2_DacTrim
ARM GAS  C:\Users\Luggi\AppData\Local\Temp\ccCf7ojr.s 			page 36


 317:Generated_Source\PSoC5/IDAC8_2.c **** ********************************************************************************
 318:Generated_Source\PSoC5/IDAC8_2.c **** * Summary:
 319:Generated_Source\PSoC5/IDAC8_2.c **** *  Set the trim value for the given range.
 320:Generated_Source\PSoC5/IDAC8_2.c **** *
 321:Generated_Source\PSoC5/IDAC8_2.c **** * Parameters:
 322:Generated_Source\PSoC5/IDAC8_2.c **** *  None
 323:Generated_Source\PSoC5/IDAC8_2.c **** *
 324:Generated_Source\PSoC5/IDAC8_2.c **** * Return:
 325:Generated_Source\PSoC5/IDAC8_2.c **** *  (void) 
 326:Generated_Source\PSoC5/IDAC8_2.c **** *
 327:Generated_Source\PSoC5/IDAC8_2.c **** * Theory:
 328:Generated_Source\PSoC5/IDAC8_2.c **** *  Trim values for the IDAC blocks are stored in the "Customer Table" area in 
 329:Generated_Source\PSoC5/IDAC8_2.c **** *  Row 1 of the Hidden Flash.  There are 8 bytes of trim data for each 
 330:Generated_Source\PSoC5/IDAC8_2.c **** *  IDAC block.
 331:Generated_Source\PSoC5/IDAC8_2.c **** *  The values are:
 332:Generated_Source\PSoC5/IDAC8_2.c **** *       I Gain offset, min range, Sourcing
 333:Generated_Source\PSoC5/IDAC8_2.c **** *       I Gain offset, min range, Sinking
 334:Generated_Source\PSoC5/IDAC8_2.c **** *       I Gain offset, med range, Sourcing
 335:Generated_Source\PSoC5/IDAC8_2.c **** *       I Gain offset, med range, Sinking
 336:Generated_Source\PSoC5/IDAC8_2.c **** *       I Gain offset, max range, Sourcing
 337:Generated_Source\PSoC5/IDAC8_2.c **** *       I Gain offset, max range, Sinking
 338:Generated_Source\PSoC5/IDAC8_2.c **** *       V Gain offset, 1V range
 339:Generated_Source\PSoC5/IDAC8_2.c **** *       V Gain offset, 4V range
 340:Generated_Source\PSoC5/IDAC8_2.c **** *
 341:Generated_Source\PSoC5/IDAC8_2.c **** * Side Effects:
 342:Generated_Source\PSoC5/IDAC8_2.c **** *
 343:Generated_Source\PSoC5/IDAC8_2.c **** *******************************************************************************/
 344:Generated_Source\PSoC5/IDAC8_2.c **** void IDAC8_2_DacTrim(void) 
 345:Generated_Source\PSoC5/IDAC8_2.c **** {
 502              		.loc 1 345 0
 503              		.cfi_startproc
 504              		@ args = 0, pretend = 0, frame = 0
 505              		@ frame_needed = 0, uses_anonymous_args = 0
 506              		@ link register save eliminated.
 346:Generated_Source\PSoC5/IDAC8_2.c ****     uint8 mode;
 347:Generated_Source\PSoC5/IDAC8_2.c **** 
 348:Generated_Source\PSoC5/IDAC8_2.c ****     mode = ((IDAC8_2_CR0 & IDAC8_2_RANGE_MASK) >> 1u);
 507              		.loc 1 348 0
 508 0000 094B     		ldr	r3, .L15
 509 0002 1B78     		ldrb	r3, [r3]	@ zero_extendqisi2
 510 0004 03F00C03 		and	r3, r3, #12
 511 0008 5B08     		lsrs	r3, r3, #1
 512              	.LVL3:
 349:Generated_Source\PSoC5/IDAC8_2.c ****     
 350:Generated_Source\PSoC5/IDAC8_2.c ****     if((IDAC8_2_IDIR_MASK & IDAC8_2_CR1) == IDAC8_2_IDIR_SINK)
 513              		.loc 1 350 0
 514 000a 084A     		ldr	r2, .L15+4
 515 000c 1278     		ldrb	r2, [r2]	@ zero_extendqisi2
 516 000e 12F0040F 		tst	r2, #4
 517 0012 00D0     		beq	.L14
 351:Generated_Source\PSoC5/IDAC8_2.c ****     {
 352:Generated_Source\PSoC5/IDAC8_2.c ****         mode++;
 518              		.loc 1 352 0
 519 0014 0133     		adds	r3, r3, #1
 520              	.LVL4:
 521              	.L14:
 353:Generated_Source\PSoC5/IDAC8_2.c ****     }
ARM GAS  C:\Users\Luggi\AppData\Local\Temp\ccCf7ojr.s 			page 37


 354:Generated_Source\PSoC5/IDAC8_2.c **** 
 355:Generated_Source\PSoC5/IDAC8_2.c ****     IDAC8_2_TR = CY_GET_XTND_REG8((uint8 *)(IDAC8_2_DAC_TRIM_BASE + mode));
 522              		.loc 1 355 0
 523 0016 03F19243 		add	r3, r3, #1224736768
 524              	.LVL5:
 525 001a 93F83831 		ldrb	r3, [r3, #312]	@ zero_extendqisi2
 526 001e DBB2     		uxtb	r3, r3
 527 0020 034A     		ldr	r2, .L15+8
 528 0022 1370     		strb	r3, [r2]
 529 0024 7047     		bx	lr
 530              	.L16:
 531 0026 00BF     		.align	2
 532              	.L15:
 533 0028 2C580040 		.word	1073764396
 534 002c 2D580040 		.word	1073764397
 535 0030 0B460040 		.word	1073759755
 536              		.cfi_endproc
 537              	.LFE8:
 538              		.size	IDAC8_2_DacTrim, .-IDAC8_2_DacTrim
 539              		.section	.text.IDAC8_2_Init,"ax",%progbits
 540              		.align	2
 541              		.global	IDAC8_2_Init
 542              		.thumb
 543              		.thumb_func
 544              		.type	IDAC8_2_Init, %function
 545              	IDAC8_2_Init:
 546              	.LFB0:
  59:Generated_Source\PSoC5/IDAC8_2.c ****     IDAC8_2_CR0 = (IDAC8_2_MODE_I | IDAC8_2_DEFAULT_RANGE );
 547              		.loc 1 59 0
 548              		.cfi_startproc
 549              		@ args = 0, pretend = 0, frame = 0
 550              		@ frame_needed = 0, uses_anonymous_args = 0
 551 0000 08B5     		push	{r3, lr}
 552              		.cfi_def_cfa_offset 8
 553              		.cfi_offset 3, -8
 554              		.cfi_offset 14, -4
  60:Generated_Source\PSoC5/IDAC8_2.c **** 
 555              		.loc 1 60 0
 556 0002 1022     		movs	r2, #16
 557 0004 064B     		ldr	r3, .L19
 558 0006 1A70     		strb	r2, [r3]
  66:Generated_Source\PSoC5/IDAC8_2.c ****     #endif /* (IDAC8_2_DEFAULT_DATA_SRC != 0u ) */
 559              		.loc 1 66 0
 560 0008 0133     		adds	r3, r3, #1
 561 000a 0022     		movs	r2, #0
 562 000c 1A70     		strb	r2, [r3]
  73:Generated_Source\PSoC5/IDAC8_2.c ****     #endif/* (IDAC8_2_DEFAULT_POLARITY == IDAC8_2_HARDWARE_CONTROLLED) */
 563              		.loc 1 73 0
 564 000e 1A78     		ldrb	r2, [r3]	@ zero_extendqisi2
 565 0010 D2B2     		uxtb	r2, r2
 566 0012 1A70     		strb	r2, [r3]
  86:Generated_Source\PSoC5/IDAC8_2.c ****     
 567              		.loc 1 86 0
 568 0014 0220     		movs	r0, #2
 569 0016 FFF7FEFF 		bl	IDAC8_2_SetSpeed
 570              	.LVL6:
  89:Generated_Source\PSoC5/IDAC8_2.c ****     
ARM GAS  C:\Users\Luggi\AppData\Local\Temp\ccCf7ojr.s 			page 38


 571              		.loc 1 89 0
 572 001a FFF7FEFF 		bl	IDAC8_2_DacTrim
 573              	.LVL7:
 574 001e 08BD     		pop	{r3, pc}
 575              	.L20:
 576              		.align	2
 577              	.L19:
 578 0020 2C580040 		.word	1073764396
 579              		.cfi_endproc
 580              	.LFE0:
 581              		.size	IDAC8_2_Init, .-IDAC8_2_Init
 582              		.section	.text.IDAC8_2_Start,"ax",%progbits
 583              		.align	2
 584              		.global	IDAC8_2_Start
 585              		.thumb
 586              		.thumb_func
 587              		.type	IDAC8_2_Start, %function
 588              	IDAC8_2_Start:
 589              	.LFB2:
 148:Generated_Source\PSoC5/IDAC8_2.c ****     /* Hardware initiazation only needs to occur the first time */
 590              		.loc 1 148 0
 591              		.cfi_startproc
 592              		@ args = 0, pretend = 0, frame = 0
 593              		@ frame_needed = 0, uses_anonymous_args = 0
 594 0000 08B5     		push	{r3, lr}
 595              		.cfi_def_cfa_offset 8
 596              		.cfi_offset 3, -8
 597              		.cfi_offset 14, -4
 150:Generated_Source\PSoC5/IDAC8_2.c ****     {
 598              		.loc 1 150 0
 599 0002 074B     		ldr	r3, .L24
 600 0004 1B78     		ldrb	r3, [r3]	@ zero_extendqisi2
 601 0006 23B9     		cbnz	r3, .L22
 152:Generated_Source\PSoC5/IDAC8_2.c ****         
 602              		.loc 1 152 0
 603 0008 FFF7FEFF 		bl	IDAC8_2_Init
 604              	.LVL8:
 154:Generated_Source\PSoC5/IDAC8_2.c ****     }
 605              		.loc 1 154 0
 606 000c 0122     		movs	r2, #1
 607 000e 044B     		ldr	r3, .L24
 608 0010 1A70     		strb	r2, [r3]
 609              	.L22:
 158:Generated_Source\PSoC5/IDAC8_2.c **** 
 610              		.loc 1 158 0
 611 0012 FFF7FEFF 		bl	IDAC8_2_Enable
 612              	.LVL9:
 161:Generated_Source\PSoC5/IDAC8_2.c **** 
 613              		.loc 1 161 0
 614 0016 5020     		movs	r0, #80
 615 0018 FFF7FEFF 		bl	IDAC8_2_SetValue
 616              	.LVL10:
 617 001c 08BD     		pop	{r3, pc}
 618              	.L25:
 619 001e 00BF     		.align	2
 620              	.L24:
 621 0020 00000000 		.word	.LANCHOR0
ARM GAS  C:\Users\Luggi\AppData\Local\Temp\ccCf7ojr.s 			page 39


 622              		.cfi_endproc
 623              	.LFE2:
 624              		.size	IDAC8_2_Start, .-IDAC8_2_Start
 625              		.section	.text.IDAC8_2_SetPolarity,"ax",%progbits
 626              		.align	2
 627              		.global	IDAC8_2_SetPolarity
 628              		.thumb
 629              		.thumb_func
 630              		.type	IDAC8_2_SetPolarity, %function
 631              	IDAC8_2_SetPolarity:
 632              	.LFB5:
 247:Generated_Source\PSoC5/IDAC8_2.c ****         IDAC8_2_CR1 &= (uint8)(~IDAC8_2_IDIR_MASK);                /* clear polarity bit */
 633              		.loc 1 247 0
 634              		.cfi_startproc
 635              		@ args = 0, pretend = 0, frame = 0
 636              		@ frame_needed = 0, uses_anonymous_args = 0
 637              	.LVL11:
 638 0000 08B5     		push	{r3, lr}
 639              		.cfi_def_cfa_offset 8
 640              		.cfi_offset 3, -8
 641              		.cfi_offset 14, -4
 248:Generated_Source\PSoC5/IDAC8_2.c ****         IDAC8_2_CR1 |= (polarity & IDAC8_2_IDIR_MASK);             /* set new value */
 642              		.loc 1 248 0
 643 0002 064B     		ldr	r3, .L28
 644 0004 1A78     		ldrb	r2, [r3]	@ zero_extendqisi2
 645 0006 02F0FB02 		and	r2, r2, #251
 646 000a 1A70     		strb	r2, [r3]
 249:Generated_Source\PSoC5/IDAC8_2.c ****     
 647              		.loc 1 249 0
 648 000c 1A78     		ldrb	r2, [r3]	@ zero_extendqisi2
 649 000e 00F00400 		and	r0, r0, #4
 650              	.LVL12:
 651 0012 1043     		orrs	r0, r0, r2
 652 0014 1870     		strb	r0, [r3]
 251:Generated_Source\PSoC5/IDAC8_2.c ****     }
 653              		.loc 1 251 0
 654 0016 FFF7FEFF 		bl	IDAC8_2_DacTrim
 655              	.LVL13:
 656 001a 08BD     		pop	{r3, pc}
 657              	.L29:
 658              		.align	2
 659              	.L28:
 660 001c 2D580040 		.word	1073764397
 661              		.cfi_endproc
 662              	.LFE5:
 663              		.size	IDAC8_2_SetPolarity, .-IDAC8_2_SetPolarity
 664              		.section	.text.IDAC8_2_SetRange,"ax",%progbits
 665              		.align	2
 666              		.global	IDAC8_2_SetRange
 667              		.thumb
 668              		.thumb_func
 669              		.type	IDAC8_2_SetRange, %function
 670              	IDAC8_2_SetRange:
 671              	.LFB6:
 274:Generated_Source\PSoC5/IDAC8_2.c ****     IDAC8_2_CR0 &= (uint8)(~IDAC8_2_RANGE_MASK);       /* Clear existing mode */
 672              		.loc 1 274 0
 673              		.cfi_startproc
ARM GAS  C:\Users\Luggi\AppData\Local\Temp\ccCf7ojr.s 			page 40


 674              		@ args = 0, pretend = 0, frame = 0
 675              		@ frame_needed = 0, uses_anonymous_args = 0
 676              	.LVL14:
 677 0000 08B5     		push	{r3, lr}
 678              		.cfi_def_cfa_offset 8
 679              		.cfi_offset 3, -8
 680              		.cfi_offset 14, -4
 275:Generated_Source\PSoC5/IDAC8_2.c ****     IDAC8_2_CR0 |= ( range & IDAC8_2_RANGE_MASK );     /*  Set Range  */
 681              		.loc 1 275 0
 682 0002 064B     		ldr	r3, .L32
 683 0004 1A78     		ldrb	r2, [r3]	@ zero_extendqisi2
 684 0006 02F0F302 		and	r2, r2, #243
 685 000a 1A70     		strb	r2, [r3]
 276:Generated_Source\PSoC5/IDAC8_2.c ****     IDAC8_2_DacTrim();
 686              		.loc 1 276 0
 687 000c 1A78     		ldrb	r2, [r3]	@ zero_extendqisi2
 688 000e 00F00C00 		and	r0, r0, #12
 689              	.LVL15:
 690 0012 1043     		orrs	r0, r0, r2
 691 0014 1870     		strb	r0, [r3]
 277:Generated_Source\PSoC5/IDAC8_2.c **** }
 692              		.loc 1 277 0
 693 0016 FFF7FEFF 		bl	IDAC8_2_DacTrim
 694              	.LVL16:
 695 001a 08BD     		pop	{r3, pc}
 696              	.L33:
 697              		.align	2
 698              	.L32:
 699 001c 2C580040 		.word	1073764396
 700              		.cfi_endproc
 701              	.LFE6:
 702              		.size	IDAC8_2_SetRange, .-IDAC8_2_SetRange
 703              		.global	IDAC8_2_initVar
 704              		.bss
 705              		.set	.LANCHOR0,. + 0
 706              		.type	IDAC8_2_initVar, %object
 707              		.size	IDAC8_2_initVar, 1
 708              	IDAC8_2_initVar:
 709 0000 00       		.space	1
 710              		.text
 711              	.Letext0:
 712              		.file 2 "Generated_Source\\PSoC5\\cytypes.h"