ARM GAS  C:\Users\Luggi\AppData\Local\Temp\ccYZhbdS.s 			page 1


   1              		.syntax unified
   2              		.cpu cortex-m3
   3              		.fpu softvfp
   4              		.eabi_attribute 20, 1
   5              		.eabi_attribute 21, 1
   6              		.eabi_attribute 23, 3
   7              		.eabi_attribute 24, 1
   8              		.eabi_attribute 25, 1
   9              		.eabi_attribute 26, 1
  10              		.eabi_attribute 30, 1
  11              		.eabi_attribute 34, 1
  12              		.eabi_attribute 18, 4
  13              		.thumb
  14              		.file	"IDAC8_2_PM.c"
  15              		.text
  16              	.Ltext0:
  17              		.section	.gnu.lto_.profile.d235a88,"",%progbits
  18 0000 789C6366 		.ascii	"x\234cf```a\200\000F\206X\035\000\001Z\000\222"
  18      60606061 
  18      80004686 
  18      581D0001 
  18      5A0092
  19              		.text
  20              		.section	.gnu.lto_.inline.d235a88,"",%progbits
  21 0000 789C6366 		.ascii	"x\234cf\300\016\262\2404\013\003\003';#\003\023\317"
  21      C00EB2A0 
  21      340B0303 
  21      273B2303 
  21      13CF
  22 0012 894006B6 		.ascii	"\211@\006\266\005\362L 1&\006Qn\240\220\312\207^F\270"
  22      05F24C20 
  22      31260651 
  22      6EA090CA 
  22      875E46B8 
  23 0026 183303B7 		.ascii	"\0303\003\2674H\331\004?\270\020#\027\214`a\340\026"
  23      3448D904 
  23      3FB81023 
  23      178C6061 
  23      E016
  24 0038 064A72FC 		.ascii	"\006Jr\3743D\230\301\015\224\233\340\207P\303\000\000"
  24      334498C1 
  24      0D949BE0 
  24      8750C300 
  24      00
  25 0049 6A730A17 		.ascii	"js\012\027"
  26              		.text
  27              		.section	.gnu.lto_.jmpfuncs.d235a88,"",%progbits
  28 0000 789C6366 		.ascii	"x\234cf\300\016D\2414\013\0203100C\331\214`A\000\003"
  28      C00E44A1 
  28      340B1033 
  28      31303043 
  28      D98C6041 
  29 0016 FF0027   		.ascii	"\377\000'"
  30              		.text
  31              		.section	.gnu.lto_.pureconst.d235a88,"",%progbits
  32 0000 789C6366 		.ascii	"x\234cf``\340d\200\000\026\006)&)f)\026)\000\002\321"
  32      6060E064 
ARM GAS  C:\Users\Luggi\AppData\Local\Temp\ccYZhbdS.s 			page 2


  32      80001606 
  32      29262966 
  32      29162900 
  33 0016 0082     		.ascii	"\000\202"
  34              		.text
  35              		.section	.gnu.lto_IDAC8_2_SaveConfig.d235a88,"",%progbits
  36 0000 789C6591 		.ascii	"x\234e\221AH\024Q\030\307\277\377\367\336\214[\333!"
  36      41481451 
  36      18C7BFFF 
  36      F7DE8C5B 
  36      DB21
  37 0012 3A7A900E 		.ascii	":z\220\016\225'\333(\202\256a\020\035\202\005\257\302"
  37      9527DB28 
  37      82AE6110 
  37      1D8205AF 
  37      C2
  38 0023 52B6D704 		.ascii	"R\266\327\004):\211ot\210\210H\351\024\224\035\004\323"
  38      293A896F 
  38      74888848 
  38      E914941D 
  38      04D3
  39 0035 5A5B753B 		.ascii	"Z[u;\324R\301\024\025t\250\010\265B\302\322V\250S\231"
  39      D452C114 
  39      1574A808 
  39      B542C2D2 
  39      56A85399 
  40 0049 920E65F6 		.ascii	"\222\016e\366}3K\005\015\314{\363\336\367{\377\377\377"
  40      7D334B05 
  40      0DCC7BF3 
  40      DEF77BFF 
  40      FFFF
  41 005b 7D63E8FF 		.ascii	"}c\350\377g\237\274\213 \332%3<\002\017\274 \0122\314"
  41      679FBC8B 
  41      20DA2533 
  41      3C020FBC 
  41      200A32CC 
  42 006f 663A476E 		.ascii	"f:Gn\263\275\337Dn\213\201M\267-\240\037\004\352ac\321"
  42      B3BDDF44 
  42      6E8B814D 
  42      B72DA01F 
  42      04EA6163 
  43 0084 83CFBCC4 		.ascii	"\203\317\274\304\030\210J\227\263\315\303\316\271\257"
  43      18884A97 
  43      B3CDC3CE 
  43      B9AF
  44 0092 0BCF827C 		.ascii	"\013\317\202|\204\230\211\22695\300\010\232I\240\245"
  44      84988996 
  44      3935C008 
  44      9A49A0A5 
  45 00a2 70FD4DD6 		.ascii	"p\375M\326\017\005\332\232\3260\012_\214i|[\34466\226"
  45      0F05DA9A 
  45      D6300A5F 
  45      8C697C5B 
  45      E4363696 
  46 00b6 471EDE45 		.ascii	"G\036\336E\203\241\230au\360t \252\011\251\216\213\314"
  46      83A19861 
  46      75F07420 
ARM GAS  C:\Users\Luggi\AppData\Local\Temp\ccYZhbdS.s 			page 3


  46      AA09A98E 
  46      8BCC
  47 00c8 3A9B593C 		.ascii	":\233Y<\372~\376\351\023\243\207W\331\210n\377\227\007"
  47      FA7EFEE9 
  47      13A38757 
  47      D9886EFF 
  47      9707
  48 00da 7B3E71CC 		.ascii	"{>q\314<<\0218\253N\357k/_e\222-\322ee\350\303O\177"
  48      3C3C1138 
  48      AB4EEF6B 
  48      2F5F6592 
  48      2DD26565 
  49 00f2 10578250 		.ascii	"\020W\202Pr\031\334@#n\242Q\374K\030\004\315\242o\355"
  49      7219DC40 
  49      236EA251 
  49      FC4B1804 
  49      CDA26FED 
  50 0106 ECE3BA9E 		.ascii	"\354\343\272\236M%\253\345\225\347Y\025\300v\302\230"
  50      4D25ABE5 
  50      95E75915 
  50      C076C298 
  51 0116 B03308DF 		.ascii	"\2603\010\337\366\035\2573\002\004\327\357]hH\000\221"
  51      F61DAF33 
  51      0204D7EF 
  51      5D684800 
  51      91
  52 0127 B9A562DA 		.ascii	"\271\245b\332E64\235K\023\276\236\331\224\322\236\320"
  52      4536349D 
  52      4B13BE9E 
  52      D994D29E 
  52      D0
  53 0138 EF56D7AA 		.ascii	"\357V\327\252\234\344\011\356\324#NM~<\3637R\371O\244"
  53      9CE409EE 
  53      D4234E4D 
  53      7E3CF337 
  53      52F94FA4 
  54 014c F13452EF 		.ascii	"\3614R\357\245\371\235z^\310kS\027\313\334\375\303\235"
  54      A5F99D7A 
  54      5EC86B53 
  54      17CBDCFD 
  54      C39D
  55 015e 739998ED 		.ascii	"s\231\230\355\2726\356\337+\332d9\032\204W\241zN)\017"
  55      BA36EEDF 
  55      2BDA6439 
  55      1A8457A1 
  55      7A4E290F 
  56 0172 13E8C6A4 		.ascii	"\023\350\306\244\012J\355\327X\177\305o)I\337\243\\"
  56      0A4AEDD7 
  56      587FC56F 
  56      2949DFA3 
  56      5C
  57 0183 CC3E2A02 		.ascii	"\314>*\002~K\376\015n\243E\022&\321m\322\3359\004Q\325"
  57      7E4BFE0D 
  57      6EA34512 
  57      26D16DD2 
  57      DD390451 
  58 0198 5367ADD7 		.ascii	"Sg\255\327\344z\262+\354\216\303\305\223\305\256c\247"
ARM GAS  C:\Users\Luggi\AppData\Local\Temp\ccYZhbdS.s 			page 4


  58      E47AB22B 
  58      EC8EC3C5 
  58      93C5AE63 
  58      A7
  59 01a9 8A270A6D 		.ascii	"\212'\012m\235\247\273:\212\355\371\266\316\326\375"
  59      9DA7BB3A 
  59      8AEDF9B6 
  59      CED6FD
  60 01b8 ED470E1D 		.ascii	"\355G\016\035l=P\330[\310\037\335\335A\277\001%n\274"
  60      6C3D50D8 
  60      5BC81FDD 
  60      DD41BF01 
  60      256EBC
  61 01cb B8       		.ascii	"\270"
  62              		.text
  63              		.section	.gnu.lto_IDAC8_2_RestoreConfig.d235a88,"",%progbits
  64 0000 789C8D93 		.ascii	"x\234\215\223]H\024Q\024\307\317\2713swu\027\267\366"
  64      5D481451 
  64      14C7CFB9 
  64      33737775 
  64      17B7F6
  65 0013 51D8E821 		.ascii	"Q\330\350!\362!\314\010\202\350-\214\"(\020|\025\244"
  65      F221CC08 
  65      82E82D8C 
  65      2228107C 
  65      15A4
  66 0025 6C5F15A4 		.ascii	"l_\025\244\250\027q&\227\250\210\224\250\020\312`#\313"
  66      A8177126 
  66      97A88894 
  66      A810CA60 
  66      23CB
  67 0037 74F3333F 		.ascii	"t\3633?\326\217\334B\352\241RJ\243\222\260\240\015\352"
  67      D68FDC42 
  67      EAA1524A 
  67      A392B0A0 
  67      0DEA
  68 0049 A5729374 		.ascii	"\245r\223t)\265s\356\235U\261\224\006\366\334\231{\377"
  68      29B573EE 
  68      9D55B194 
  68      06F6DC99 
  68      7BFF
  69 005b F33FBFF9 		.ascii	"\363?\277\371\337\273\006\374}\035\242_\320\004\330"
  69      DFBB06FC 
  69      7D1DA25F 
  69      D004D8
  70 006a 4A237A00 		.ascii	"J#z\000E\335(\200\343\025\302\230(\000;[\016n\002\333"
  70      45DD2880 
  70      E315C298 
  70      28003B5B 
  70      0E6E02DB 
  71 007e 6F0893C7 		.ascii	"o\010\223\307l\213\347\374&J-\26227\022\221o\000\241"
  71      6C8BE7FC 
  71      264A2DB2 
  71      32371291 
  71      6F00A1
  72 0091 5A18A625 		.ascii	"Z\030\246%\261\032\277\210i\201u\211\226z_^\243m\333"
  72      B11ABF88 
ARM GAS  C:\Users\Luggi\AppData\Local\Temp\ccYZhbdS.s 			page 5


  72      69817589 
  72      967A5F5E 
  72      A36DDB
  73 00a4 DF5F8E39 		.ascii	"\337_\2169E\011L\013\200\037Bw\306;\230\007$\232\216"
  73      45094C0B 
  73      801F4277 
  73      C63B9807 
  73      249A8E
  74 00b7 CCBFF6C9 		.ascii	"\314\277\366\311\010\2116\3505lB\2114\266\005\023\366"
  74      088936E8 
  74      356C4289 
  74      34B60513 
  74      F6
  75 00c8 E262D7F0 		.ascii	"\342b\327\360\303>\271\321\200\264@\223\213\305Er\361"
  75      C33EB9D1 
  75      80B44093 
  75      8BC54572 
  75      F1
  76 00d9 70C9E2E2 		.ascii	"p\311\342\342\343\342\347\222\303%\300\005 If\214\365"
  76      E3E2E792 
  76      C325C005 
  76      2049668C 
  76      F5
  77 00ea 49081E8D 		.ascii	"I\010\036\215I|\364\363\374\302\023\203\375g\205A\255"
  77      497CF4F3 
  77      FCC21383 
  77      FD678541 
  77      AD
  78 00fb 6BBF0DED 		.ascii	"k\277\015\355\370,\322B4\266;\266\3110\357\223c/\274"
  78      F82CD242 
  78      34B63BB6 
  78      C930EF93 
  78      632FBC
  79 010e 6A0AF8B1 		.ascii	"j\012\370\261\363\346\207\337\262\001\2579\021B7\360"
  79      F3E687DF 
  79      B201AF39 
  79      114237F0 
  80 011e 2EE66233 		.ascii	".\346b3\346\022b\0136 Lb\315\334\231\021\327/G[\306"
  80      E612620B 
  80      36204C62 
  80      CDDC9911 
  80      D72F475B 
  81 0133 5B679EFB 		.ascii	"[g\236\373\330\0007\003\306H\373\012#oj\216\272\032"
  81      D8003703 
  81      C648FB0A 
  81      236F6A8E 
  81      BA1A
  82 0145 1238B707 		.ascii	"\0228\267\007.x\224\200l\356\261\0310\242\001\023\005"
  82      2E789480 
  82      6CEEB119 
  82      30A20113 
  82      05
  83 0156 9A70B47E 		.ascii	"\232p\264~\217V[\244\356\237I5k\236\332n\027\361r4\352"
  83      8F565BA4 
  83      EE9F4935 
  83      6B9EDA6E 
  83      17F17234 
ARM GAS  C:\Users\Luggi\AppData\Local\Temp\ccYZhbdS.s 			page 6


  84 016b 0496995A 		.ascii	"\004\226\231Z\227\230\332\226\230\222.\223\251Mn]\271"
  84      9798DA96 
  84      98922E93 
  84      A94D6E5D 
  84      B9
  85 017c 1AB3544B 		.ascii	"\032\263TK/`\273fz[S\356jV@\230\3604\250!\246\352O\351"
  85      2F60BB66 
  85      7A5B53EE 
  85      6A564098 
  85      F034A821 
  86 0194 65B95EC7 		.ascii	"e\271^\307\216LG\251\305\036\255oK\305F$\3673f\021\260"
  86      8E4C47A9 
  86      C51EAD6F 
  86      4BC54624 
  86      F7336611 
  87 01a9 93A4E479 		.ascii	"\223\244\344y\011Y\263\236[\027\271\221\007\211O\367"
  87      0959B39E 
  87      5B17B991 
  87      07894FF7 
  88 01b9 743C8EFA 		.ascii	"t<\216\372\264g\026\275rc\374b\253\250\372e\237\265"
  88      B46716BD 
  88      7263FC62 
  88      ABA8FA65 
  88      9FB5
  89 01cb BD6961CE 		.ascii	"\275ia\316\363!Y\271W\246zlr\"\327\221}mVYx\037\253"
  89      F32159B9 
  89      57A67A6C 
  89      7222D791 
  89      7D6D5659 
  90 01e2 B09B8D69 		.ascii	"\260\233\215im!V\333)\363\267\245\205\304\036\322\244"
  90      6D2156DB 
  90      29F3B7A5 
  90      85C41ED2 
  90      A4
  91 01f3 D411C45E 		.ascii	"\324\021\304^\314Wd\321\220\213\366nv..T\332N\257\233"
  91      CC5764D1 
  91      908BF66E 
  91      762E2E54 
  91      DA4EAF9B 
  92 0207 F678C7C7 		.ascii	"\366x\307\307\223\012\326I\204\030\267o\0117\256p\263"
  92      930AD649 
  92      8418B76F 
  92      0937AE70 
  92      B3
  93 0218 40E5F535 		.ascii	"@\345\3655\223\227o\275/\354w\363\232q\363\362\223^"
  93      93976FBD 
  93      2FEC77F3 
  93      9A71F3F2 
  93      935E
  94 022a 6DC87FE5 		.ascii	"m\310\177\3453\240\032\372\325NYp.dpP\323\3172A\005"
  94      33A01AFA 
  94      D54E5970 
  94      2E647050 
  94      D3CF3241 
  95 023f D60C6A75 		.ascii	"\326\014ju2\203\377Nfh9\231\007\253\223Y;\206aE\025"
  95      3283FF4E 
  95      66683999 
ARM GAS  C:\Users\Luggi\AppData\Local\Temp\ccYZhbdS.s 			page 7


  95      07AB9359 
  95      3B866145 
  96 0254 505452FD 		.ascii	"PTR\375\317\246\320I\304\367\363\213\354\225\244\203"
  96      CFA6D049 
  96      C4F7F38B 
  96      EC95A483 
  97 0264 4EB3E4BB 		.ascii	"N\263\344\273\345@\270<\\y\344x\370Xiq\305\211\312\262"
  97      E540B83C 
  97      5C79E478 
  97      F8586971 
  97      C589CAB2 
  98 0278 70495171 		.ascii	"pIQqE\341\256\222\203\373\366\026\356.\335YZtx{\031"
  98      45E1AE92 
  98      83FBF616 
  98      EE2EDD59 
  98      5A74787B 
  99 028d FC01AE20 		.ascii	"\374\001\256 r\353"
  99      72EB
 100              		.text
 101              		.section	.gnu.lto_IDAC8_2_Sleep.d235a88,"",%progbits
 102 0000 789C8592 		.ascii	"x\234\205\222MHTQ\030\206\277\367\273?3fQ\264\022\027"
 102      4D485451 
 102      1886BFF7 
 102      BB3F3366 
 102      51B41217 
 103 0014 B38A5CD9 		.ascii	"\263\212\\\331@\020\265i\021\012\322\"\020\334\012C"
 103      4010B569 
 103      110AD222 
 103      10DC0A43 
 104 0024 D86C13A4 		.ascii	"\330l\023\244\226\223\347\316\334~\010)\303M\230\266"
 104      9693E7CE 
 104      DC7E0829 
 104      C34D98B6 
 105 0034 D3A6C6D4 		.ascii	"\323\246\306\324\264_\034\350\326\246]!Y\222E\265\230"
 105      B45F1CE8 
 105      D6A65D21 
 105      599245B5 
 105      98
 106 0045 095B0863 		.ascii	"\011[\010c#\326%l\372\316\271\323\017Fu\341\336\363"
 106      23D6256C 
 106      FACEB9D3 
 106      0F4675E1 
 106      DEF3
 107 0057 F7DCF77D 		.ascii	"\367\334\367}\317w\216E\177>\007\345\3152\321ni\341"
 107      CF778E45 
 107      7F3E07E5 
 107      CD32D16E 
 107      69E1
 108 0069 1278F029 		.ascii	"\022x\360)\221\027g\266\212\011R[\354\205$\251\255\026"
 108      911767B6 
 108      8A09525B 
 108      EC8524A9 
 108      AD16
 109 007b 9C68DAFE 		.ascii	"\234h\332\376\321q\000\335!P?[\266\203~|\344U\306`P"
 109      D17100DD 
 109      21503F5B 
 109      B6837E7C 
ARM GAS  C:\Users\Luggi\AppData\Local\Temp\ccYZhbdS.s 			page 8


 109      E455C660 
 110 0090 B8DCD832 		.ascii	"\270\334\3302\246\224\252d\0374\235n\012E\271\312\221"
 110      A694AA64 
 110      1F349D6E 
 110      0A45B9CA 
 110      91
 111 00a1 13AEA185 		.ascii	"\023\256\241\205\204Y\3657\026\033]_\230\035\321\032"
 111      8459F537 
 111      161B5D5F 
 111      981DD11A 
 112 00b1 F27021ED 		.ascii	"\362p!\355\324\316@\325j\325\322\245\345\375h`\012\031"
 112      D4CE40D5 
 112      6AD5D2A5 
 112      E5FD6860 
 112      0A19
 113 00c3 B6FE1095 		.ascii	"\266\376\020\225\204\322nef\335ZKx\274~\376\345\310"
 113      84D26E65 
 113      66DD5A4B 
 113      78BC7EFE 
 113      E5C8
 114 00d5 29FDE367 		.ascii	")\375\343g\266Es\350\365l\315Z\346\2209\177\326S\266"
 114      B64573E8 
 114      F56CCD5A 
 114      E690397F 
 114      D653B6
 115 00e8 B679577A 		.ascii	"\266yWz6\0377S\244\207+c\353\357\267\215\342\212\347"
 115      361F3753 
 115      A4872B63 
 115      EBEFB78D 
 115      E28AE7
 116 00fb 23640BD7 		.ascii	"#d\013\327\321\214\033h\026\363\002FAK\310}9\263\346"
 116      D18C1B68 
 116      16F30246 
 116      414BC87D 
 116      39B3E6
 117 010e 44821C69 		.ascii	"D\202\034i\016/\226\327\214&\2300!\354\013\370\257r"
 117      0E2F96D7 
 117      8C269830 
 117      21EC0BF8 
 117      AF72
 118 0120 893A2380 		.ascii	"\211:#\2007>7\0203\200\310\334\324b\2443ZTLH\304l\245"
 118      373E3710 
 118      3380C8DC 
 118      D462A433 
 118      5A544C48 
 119 0137 F2E15183 		.ascii	"\362\341Q\203\246\005\275\372\374\302$g\276\252s*\036"
 119      A605BDFA 
 119      FCC22467 
 119      BEAA732A 
 119      1E
 120 0148 B2BDA177 		.ascii	"\262\275\241w\375{D\333\014\363\236?\002\035Qi\312\301"
 120      FD7B44DB 
 120      0CF39E3F 
 120      021D5169 
 120      CAC1
 121 015a 243298D2 		.ascii	"$2\230\322\262\262\366m\342\342\214\333Z\220\242\005"
 121      B2B2F66D 
ARM GAS  C:\Users\Luggi\AppData\Local\Temp\ccYZhbdS.s 			page 9


 121      E2E28CDB 
 121      5A90A205 
 122 016a C9905D4C 		.ascii	"\311\220]L\013\370\311\024\026\267\320*\300\374\360"
 122      0BF8C914 
 122      16B7D02A 
 122      C0FCF0
 123 0179 786EBBD6 		.ascii	"xn\273\326\222Rb\306\204)\213\356B\322D\231^\371O\224"
 123      925262C6 
 123      84298BEE 
 123      42D24499 
 123      5EF94F94 
 124 018d CDDEB3FF 		.ascii	"\315\336\263\377\360\276\375\313\373\216\361\376\271"
 124      F0BEFDCB 
 124      FB8EF1FE 
 124      B9
 125 019a 0F57A6EE 		.ascii	"\017W\246\356\326\275\035sTo\220\013\346\236\260\366"
 125      D6BD1D73 
 125      546F900B 
 125      E69EB0F6 
 126 01aa A6CDE6B1 		.ascii	"\246\315\346\261\252\251\334=d\344\230\343\244\321b"
 126      AAA9DC3D 
 126      64E498E3 
 126      A4D162
 127 01b9 EC6FA4F8 		.ascii	"\354o\244\370\341~\235|\013/x\330aH\322\267\003\332"
 127      E17E9D7C 
 127      0B2F78D8 
 127      6148D2B7 
 127      03DA
 128 01cb 4A805D1D 		.ascii	"J\200]\035\351\343\351\276\243'\322\307R]\275'\373z"
 128      E9E3E9BE 
 128      A327D2C7 
 128      525DBD27 
 128      FB7A
 129 01dd D2DD9D5D 		.ascii	"\322\335\235]\275m\373\272\017\267\037j;\220\332\233"
 129      BD6DFBBA 
 129      0FB71F6A 
 129      3B90DA9B 
 130 01ed EA3CB2A7 		.ascii	"\352<\262\247\207\276\003Z\006\365\005"
 130      87BE035A 
 130      06F505
 131              		.text
 132              		.section	.gnu.lto_IDAC8_2_Wakeup.d235a88,"",%progbits
 133 0000 789C7551 		.ascii	"x\234uQMH\024a\030~\237w\276\035\307\0370:\211\007O"
 133      4D481461 
 133      187E9F77 
 133      BE1DC71F 
 133      303A8907 
 134 0015 A268E821 		.ascii	"\242h\350!\011:\011\241\020\006\201\340UX\302\366\252"
 134      093A09A1 
 134      100681E0 
 134      5558C2F6 
 134      AA
 135 0026 2085A7C5 		.ascii	" \205\247\305ot\004\351P\322)\320\365\026Z\376\356\006"
 135      6F7404E9 
 135      50D229D0 
 135      F5165AFE 
 135      EE06
ARM GAS  C:\Users\Luggi\AppData\Local\Temp\ccYZhbdS.s 			page 10


 136 0038 49B7C5C3 		.ascii	"I\267\305\303\006\213(\213D\"KA*\330-]R\2070{\337YH"
 136      068B288B 
 136      44224B41 
 136      2AD82D5D 
 136      5287307B 
 137 004f EC6760E6 		.ascii	"\354g`\346\233y\277\347w>\207\376\276:\344\376\016\242"
 137      9B79BFE7 
 137      773E87FE 
 137      BE3AE4FE 
 137      0EA2
 138 0061 26591123 		.ascii	"&Y\021#\360\324&\221\3571;\271Z\262U&\337I\266\306\201"
 138      F0D42691 
 138      EF313BB9 
 138      5AB25526 
 138      DF49B6C6 
 139 0076 298F0DA0 		.ascii	")\217\015\240/\004\032e\307`\024_\371\2101\225]xQ\335"
 139      2F041A65 
 139      C760145F 
 139      F9883195 
 139      5D7851DD 
 140 008a FCD25AFB 		.ascii	"\374\322Z\373m\275P7Q\0272Q\211\313\372\230C3\011\346"
 140      6DBD5037 
 140      51173251 
 140      89CBFA98 
 140      433309E6 
 141 009e 2838FF58 		.ascii	"(8\377X\355\006\202\271V\336\303<\\\361\245\225\353"
 141      ED0682B9 
 141      56DEC33C 
 141      5CF1A595 
 141      EB
 142 00af 597B7151 		.ascii	"Y{qQ\312=\237le\317P\310p\365A\264/(5;`\326\325)b<\233"
 142      CA3D9F6C 
 142      65CF50C8 
 142      70F541B4 
 142      2F28353B 
 143 00ca CAB3F254 		.ascii	"\312\263\362Tpv\373\3512'\177\330I\353\205\314%e\340"
 143      7076FBE9 
 143      32277FD8 
 143      49EB85CC 
 143      2565E0
 144 00dd 1592C275 		.ascii	"\025\222\302uh\027co\323\033_b\212=e\363'\332\234k\000"
 144      6817636F 
 144      D31B5F62 
 144      8A3D65F3 
 144      27DA9C6B 
 145 00f2 997EDEDF 		.ascii	"\231~\336\337*x\207,\223\350s\336\017f\220\302\264o"
 145      2A78872C 
 145      93E873DE 
 145      0F6690C2 
 145      B46F
 146 0104 1515C36B 		.ascii	"\025\025\303k$\261\200\372h\357\347\342\263\214\333"
 146      24B180FA 
 146      68EFE7E2 
 146      B38CDB
 147 0113 76236417 		.ascii	"v#d\027\213\2029\216\352a\011m\364\001\301\316x\303"
 147      8B82398E 
 147      EA61096D 
ARM GAS  C:\Users\Luggi\AppData\Local\Temp\ccYZhbdS.s 			page 11


 147      F401C1CE 
 147      78C3
 148 0125 A5D5FBD4 		.ascii	"\245\325\373\324a\306\250(@XV:i\011\207r\265Q\207\265"
 148      61C6A828 
 148      4058563A 
 148      69098772 
 148      B55187B5 
 149 0139 7CCDFF3A 		.ascii	"|\315\377:\210(V~wX?yr\334R\326u\005\\<={\307\252[\341"
 149      8828567E 
 149      77583F79 
 149      72DC52D6 
 149      75055C3C 
 150 0153 AFF9D65C 		.ascii	"\257\371\326\\\311_\021e\334N\357\215h\374\000!{XE="
 150      C95F1165 
 150      DC4EEF8D 
 150      68FC0021 
 150      7B58453D 
 151 0167 D26A8F8C 		.ascii	"\322j\217\214\004\246\"\314?m+KbFx#\266\342\023rU\224"
 151      04A622CC 
 151      3F6D2B4B 
 151      62467823 
 151      B6E21372 
 152 017d D644BFFC 		.ascii	"\326D\277\374\023\374l\341^D#=\020\350TB6\336M\014&"
 152      13FC6CE1 
 152      5E44233D 
 152      10E85442 
 152      36DE4D0C 
 153 0192 861F3C4A 		.ascii	"\206\037<J<\214\367\015=\036\036H\364\367\366\015u\335"
 153      3C8CF70D 
 153      3D1E1E48 
 153      F4F7F60D 
 153      75DD
 154 01a4 EAEFE9BE 		.ascii	"\352\357\351\276\323u;~3\336{\277}\200~\001\035\375"
 154      D3753B7E 
 154      33DE7BBF 
 154      7D807E01 
 154      1DFD
 155 01b6 BF56     		.ascii	"\277V"
 156              		.text
 157              		.section	.gnu.lto_.symbol_nodes.d235a88,"",%progbits
 158 0000 789C55C8 		.ascii	"x\234U\310\261\021\202@\030D\341w\377\336\035\024A\257"
 158      B1118240 
 158      1844E177 
 158      FFDE1D14 
 158      41AF
 159 0012 4B600146 		.ascii	"K`\001FF\006\014}\220\021S\003P\210\243\214\006\347"
 159      46060C7D 
 159      90115303 
 159      5088A38C 
 159      06E7
 160 0024 266FBE15 		.ascii	"&o\276\025\360\344\267H\206\373\0066\217\251\247\300"
 160      F0E4B748 
 160      86FB0636 
 160      8FA9A7C0 
 161 0034 14568453 		.ascii	"\024V\204S{\207\034\177\316V\353T\234\277f\034?\354"
 161      7B871C7F 
 161      CE56EB54 
ARM GAS  C:\Users\Luggi\AppData\Local\Temp\ccYZhbdS.s 			page 12


 161      9CBF661C 
 161      3FEC
 162 0046 5C5A56D7 		.ascii	"\\ZV\327\206Ra=^I\202\363j\016\346\375j\307m\031\224"
 162      8652613D 
 162      5E4982F3 
 162      6A0EE6FD 
 162      6AC76D19 
 163 005b 2BEB32F0 		.ascii	"+\3532\360\006\3675'\253"
 163      06F73527 
 163      AB
 164              		.text
 165              		.section	.gnu.lto_.refs.d235a88,"",%progbits
 166 0000 789C25C7 		.ascii	"x\234%\307\261\015\000 \014\004\261\273Ohh2\000\373"
 166      B10D0020 
 166      0C04B1BB 
 166      4F686832 
 166      00FB
 167 0012 EF0912EE 		.ascii	"\357\011\022\356\\\300\341\023]\011n\234\224\366\273"
 167      5CC0E113 
 167      5D096E9C 
 167      94F6BB
 168 0021 8DE10207 		.ascii	"\215\341\002\007\361\000`"
 168      F10060
 169              		.text
 170              		.section	.gnu.lto_.decls.d235a88,"",%progbits
 171 0000 789C9553 		.ascii	"x\234\225SkL\034U\024\236\263w`\227e\241D\224\032\376"
 171      6B4C1C55 
 171      149EB377 
 171      609765A1 
 171      44941AFE 
 172 0014 48A921DA 		.ascii	"H\251!\332\220\376hb\302?i\320\264\306h\210D\373\243"
 172      90FE6862 
 172      C23F69D0 
 172      B4C66888 
 172      44FBA3
 173 0027 24644BA7 		.ascii	"$dK\247\265\226\000\331\3166\351\277\013\224\264\"\251"
 173      B59600D9 
 173      CE36E9BF 
 173      0B94B422 
 173      A9
 174 0038 5BAA8248 		.ascii	"[\252\202H\232E\240Z\204\345\265P\336,\005\012\355\362"
 174      9A45A05A 
 174      84E5B550 
 174      DE2C050A 
 174      EDF2
 175 004a 28B04117 		.ascii	"(\260A\027\232\010\304G\323\326dU\304\267\343\271wf"
 175      9A08C447 
 175      D3D66455 
 175      C4B7E3B9 
 175      7766
 176 005c D8C174AB 		.ascii	"\330\301t\253\336\344\314\235\233\371\276\357\334\363"
 176      DEE4CC9D 
 176      9BF9BEEF 
 176      DCF3
 177 006a 9D334410 		.ascii	"\2353D\020\004\027\010\202\202k)J\020\366\340;nB\266"
 177      04170882 
 177      826B294A 
ARM GAS  C:\Users\Luggi\AppData\Local\Temp\ccYZhbdS.s 			page 13


 177      10F6E03B 
 177      6E42B6
 178 007d 105E668C 		.ascii	"\020^f\214\026\014\017F;F'\206\027c\010c\004\003)\302"
 178      160C0F46 
 178      3B462786 
 178      17630863 
 178      040329C2 
 179 0091 B4B07DB5 		.ascii	"\264\260}\265h<\246\223\2041\2171\207\261\200q\013\243"
 179      683CA693 
 179      84318F31 
 179      87B18071 
 179      0BA3
 180 00a3 57E34D6A 		.ascii	"W\343Mj{K\004\035\317\377\324\361D\320a\367\216\371"
 180      7B4B041D 
 180      CFFFD4F1 
 180      44D061F7 
 180      8EF9
 181 00b5 179D458C 		.ascii	"\027\235E\214\253\032\377\006\006\321x\336G\334\217"
 181      AB1AFF06 
 181      06D178DE 
 181      47DC8F
 182 00c4 79116BD0 		.ascii	"y\021k\320\3255\214\272z\256\000\306\200A_\324\370\036"
 182      D5358CBA 
 182      7AAE00C6 
 182      80415FD4 
 182      F81E
 183 00d6 CDC7A108 		.ascii	"\315\307\241\0109\2767A\237gc&\366\256\011\342\255)"
 183      39BE3741 
 183      9F676326 
 183      F6AE09E2 
 183      AD29
 184 00e8 ECD85F35 		.ascii	"\354\330_5U\023\215G\233Ud\307\201\337\327\003\342\316"
 184      55138D47 
 184      9B5564C7 
 184      81DFD703 
 184      E2CE
 185 00fa F7292E57 		.ascii	"\367).W\031M\020!;\011>\201d\370\024\222Q\361*\354\304"
 185      194D1021 
 185      3B093E81 
 185      64F81492 
 185      51F12AEC 
 186 010f E7615155 		.ascii	"\347aQU\372ny<\236\230\200\2756\324\254\005\254\351"
 186      FA6E793C 
 186      9E9880BD 
 186      36D4AC05 
 186      ACE9
 187 0121 CDC83A4F 		.ascii	"\315\310:O}wM\341l\027\356\265\256\230S.\323\325\366"
 187      7D774DE1 
 187      6C17EEB5 
 187      AE98532E 
 187      D3D5F6
 188 0134 D0605DD0 		.ascii	"\320`]\320F\247\250OQ\236\347J\320\014\004>\203t\206"
 188      46A7A84F 
 188      519EE74A 
 188      D00C043E 
 188      837486
 189 0147 64EF9C02 		.ascii	"d\357\234\002-\220\202\264\272I\357\203X\262\237kW\015"
ARM GAS  C:\Users\Luggi\AppData\Local\Temp\ccYZhbdS.s 			page 14


 189      2D9082B4 
 189      BA49EF83 
 189      58B29F6B 
 189      570D
 190 0159 7BEFC571 		.ascii	"{\357\305q\011\367\237\2354\363,\375CQ\010\027h5\010"
 190      09F79F9D 
 190      34F32CFD 
 190      43510817 
 190      683508
 191 016c B4EA021E 		.ascii	"\264\352\002\036.P_\271\326o&\207\270@\311\364\370\307"
 191      2E505FB9 
 191      D66F2687 
 191      B840C9F4 
 191      F8C7
 192 017e 261470B7 		.ascii	"&\024p\267\273\247\032\242\325\033p~\233\201\337\246"
 192      BBA71AA2 
 192      D51B707E 
 192      9B81DFA6 
 193 018e F3DB399F 		.ascii	"\363\3339\237\336\377\240\316F$\316\177\360\355o\255"
 193      DEFFA0CE 
 193      4624CE7F 
 193      F0ED6FAD 
 194 019e 44E55736 		.ascii	"D\345W6\031\371\035\006~\207\316\357\344\374\252\263"
 194      19F91D06 
 194      7E87CEEF 
 194      E4FCAAB3 
 195 01ae B5DF4413 		.ascii	"\265\337D\023\231\363\247{\334\325;X\0014\364v\323\227"
 195      99F3A77B 
 195      DCD53B58 
 195      0134F476 
 195      D397
 196 01c0 B60F697D 		.ascii	"\266\017i})\375KQ@u\241\313 \322\245\213x\271\310\322"
 196      29FD4B51 
 196      4075A1CB 
 196      20D2A58B 
 196      78B9C8D2 
 197 01d4 C8B97316 		.ascii	"\310\271s\026\322\000j\025W\006*\315\330\250$\253j\254"
 197      D2006A15 
 197      57062ACD 
 197      D8A824AB 
 197      6AAC
 198 01e6 BF7694F0 		.ascii	"\277v\224\360\243\302>\233\202\301\367~%`M;Oi)\015U"
 198      A3C23E9B 
 198      82C1F77E 
 198      25604D3B 
 198      4F69290D 
 199 01fb 51F2A400 		.ascii	"Q\362\244\000\351\311\360l\262\000}\220\2060\236\004"
 199      E9C9F06C 
 199      B2007D90 
 199      86309E04 
 200 020b 7AB097D7 		.ascii	"z\260\227\327\260\227\215\330\252Pp\242\371\3452\232"
 200      B0978DD8 
 200      AA5070A2 
 200      F9E5329A 
 201 021b 09BD6085 		.ascii	"\011\275`\205\356\255k\360\014Z\373\\\345\243.Q\304"
 201      EEAD6BF0 
 201      0C5AFB5C 
ARM GAS  C:\Users\Luggi\AppData\Local\Temp\ccYZhbdS.s 			page 15


 201      E5A32E51 
 201      C4
 202 022c 7E72CC61 		.ascii	"~r\314a>\"?)kM\246\210#2\300G\244\037\264\031\231u\225"
 202      3E223F29 
 202      6B4DA688 
 202      2332C047 
 202      A41FB419 
 203 0243 FBE2895F 		.ascii	"\373\342\211_-\241\243\364\347\352x\335\210\365\203"
 203      2DA1A3F4 
 203      E7EA78DD 
 203      88F583
 204 0252 17CB5C8D 		.ascii	"\027\313\\\215tUQ\236\342,\0304\0301\250\0331\304\215"
 204      7455519E 
 204      E22C1834 
 204      1831A81B 
 204      31C48D
 205 0265 686C9AEF 		.ascii	"hl\232\3575\223;\252\312\245\345\331>\221\253\254^\030"
 205      35933BAA 
 205      CAA5E5D9 
 205      3E91ABAC 
 205      5E18
 206 0277 93AEABF3 		.ascii	"\223\256\253\363\240z9l\220\030\326%F\270\204\177\375"
 206      A07A396C 
 206      9018D625 
 206      46B8847F 
 206      FD
 207 0288 971F6D7C 		.ascii	"\227\037m|\354\023\230H\355\347_o\020>\366&\356\346"
 207      EC139848 
 207      EDE75F6F 
 207      103EF626 
 207      EEE6
 208 029a B5775BA2 		.ascii	"\265w[\242\310}5\301\210g\261\306B\250:\331\315\265"
 208      C87D35C1 
 208      8867B1C6 
 208      42A83AD9 
 208      CDB5
 209 02ac 132B3B48 		.ascii	"\023+;H%?\210\037\325\365\217Y!155\355\"/\337\215\346"
 209      253F881F 
 209      D5F58F59 
 209      21313535 
 209      ED222FDF 
 210 02c2 09E0C3E2 		.ascii	"\011\340\303\342Gy\361\023\220\310\362\303\024:~\003"
 210      4779F113 
 210      90C8F2C3 
 210      143A7E03 
 211 02d2 52611252 		.ascii	"Ra\022R\371\035\334\330\224\325\271\236\\_\011\341F"
 211      F91DDCD8 
 211      94D5B99E 
 211      5C5F09E1 
 211      46
 212 02e3 8EE13D19 		.ascii	"\216\341=\031Vk\3203\214\273'Y\003\272\277\360\320L"
 212      566BD033 
 212      8CBB2759 
 212      03BABFF0 
 212      D04C
 213 02f5 0D38FE10 		.ascii	"\0158\376\020`:\003\262\376\255\316\354\263\260\257"
 213      603A03B2 
ARM GAS  C:\Users\Luggi\AppData\Local\Temp\ccYZhbdS.s 			page 16


 213      FEADCEEC 
 213      B3B0AF
 214 0304 825EB3DE 		.ascii	"\202^\263\3366S}\310\373\026\244%rPP\004\270\205\022"
 214      36537DC8 
 214      FB16A425 
 214      72505004 
 214      B88512
 215 0317 D7C30D66 		.ascii	"\327\303\015f\034\276\036V\005\334\304\313G*\004\015"
 215      1CBE1E56 
 215      05DCC4CB 
 215      472A040D 
 216 0327 19F75DDA 		.ascii	"\031\367]\332\020I\265\352\316\017\335\345\233\346\335"
 216      1049B5EA 
 216      CE0FDDE5 
 216      9BE6DD
 217 0336 F594BA43 		.ascii	"\365\224\272C\203w6\240\204\272K)e\277\007O\351WS\032"
 217      837736A0 
 217      84BA4B29 
 217      65BF074F 
 217      E957531A 
 218 034a 0CF2AB4D 		.ascii	"\014\362\253M\201i\330\315~\262\352w\032-\344\212*\325"
 218      8169D8CD 
 218      7EB2EA77 
 218      1A2DE48A 
 218      2AD5
 219 035c BD59D117 		.ascii	"\275Y\321\027g\305\361-\373\017\343\2135\006f+\226b"
 219      67C5F12D 
 219      FB0FE38B 
 219      3506662B 
 219      9662
 220 036e D481FF27 		.ascii	"\324\201\377'\343v\304\201/\037\261\335\244\324\002"
 220      E376C481 
 220      2F1FB1DD 
 220      A4D402
 221 037d 73E8ED4C 		.ascii	"s\350\355L\330\220Y\010\217|\300_\272Bl\025\3547\302"
 221      D8905908 
 221      8F7CC05F 
 221      BA426C15 
 221      EC37C2
 222 0390 F18E39C8 		.ascii	"\361\2169\310\261\341\371\236\007\033\257\000w67\375"
 222      B1E1F99E 
 222      071BAF00 
 222      773637FD 
 223 03a0 5D5F598C 		.ascii	"]_Y\214`Vv\030\274\240\201\0278\270m\363vs\254\021\314"
 223      60567618 
 223      BCA08117 
 223      38B86DF3 
 223      7673AC11 
 224 03b5 46360C5E 		.ascii	"F6\014^\004\233~\237E\216\277\334\276\274\313\010\037"
 224      049B7E9F 
 224      458EBFDC 
 224      BEBCCB08 
 224      1F
 225 03c6 D8060F68 		.ascii	"\330\006\017h\332l\177\354\245\027\366ge\344\355\313"
 225      DA6C7FEC 
 225      A517F667 
 225      65E4EDCB 
ARM GAS  C:\Users\Luggi\AppData\Local\Temp\ccYZhbdS.s 			page 17


 226 03d6 CBB19F96 		.ascii	"\313\261\237\226\262\212\012\217\2358\036}\340\325\327"
 226      B28A0A8F 
 226      9D381E7D 
 226      E0D5D7
 227 03e5 53B284A7 		.ascii	"S\262\204\247\017H\205\222\303.KG\363r\212\234\216|"
 227      0F488592 
 227      C32E4B47 
 227      F3728A9C 
 227      8E7C
 228 03f7 29373BA7 		.ascii	")7;\247(\353\271\\\235\220\375\312\336|\341\011\375"
 228      28EBB95C 
 228      9D90FDCA 
 228      DE7CE109 
 228      FD
 229 0408 F49A744A 		.ascii	"\364\232tJ.rh\012q[\242\005\222T\034\257\237\016\331"
 229      2E72680A 
 229      715BA205 
 229      92541CAF 
 229      9F0ED9
 230 041b 4F4ACE62 		.ascii	"OJ\316b\333\326G\271\250x\327\243\223\354}S\210r\236"
 230      DBD647B9 
 230      A878D7A3 
 230      93EC7D53 
 230      88729E
 231 042e 28943322 		.ascii	"(\2243\"\341\362\317\310g\212\245S\210K\330\222\225"
 231      E1F2CFC8 
 231      678AA553 
 231      884BD892 
 231      95
 232 043f E437EC05 		.ascii	"\3447\354\005Ni+\355\213\205\366#\005\322\343\372\361"
 232      4E692BED 
 232      8B85F623 
 232      05D2E3FA 
 232      F1
 233 0450 883DFFA4 		.ascii	"\210=\377\244\2638Gv8\363\345X\211\177\313\221Q\331"
 233      B3384776 
 233      38F3E558 
 233      897FCB91 
 233      51D9
 234 0462 7AD42EDB 		.ascii	"z\324.\333\363No\243\252X\321!\035\317\370\033\256\204"
 234      F34E6FA3 
 234      AA58D121 
 234      1DCFF81B 
 234      AE84
 235 0474 4CFA     		.ascii	"L\372"
 236              		.text
 237              		.section	.gnu.lto_.symtab.d235a88,"",%progbits
 238 0000 49444143 		.ascii	"IDAC8_2_SaveConfig\000\000\000\000\000\000\000\000\000"
 238      385F325F 
 238      53617665 
 238      436F6E66 
 238      69670000 
 239 001b 000000AC 		.ascii	"\000\000\000\254\000\000\000IDAC8_2_RestoreConfig\000"
 239      00000049 
 239      44414338 
 239      5F325F52 
 239      6573746F 
ARM GAS  C:\Users\Luggi\AppData\Local\Temp\ccYZhbdS.s 			page 18


 240 0038 00000000 		.ascii	"\000\000\000\000\000\000\000\000\000\000\000\256\000"
 240      00000000 
 240      000000AE 
 240      00
 241 0045 00004944 		.ascii	"\000\000IDAC8_2_Sleep\000\000\000\000\000\000\000\000"
 241      4143385F 
 241      325F536C 
 241      65657000 
 241      00000000 
 242 005c 00000000 		.ascii	"\000\000\000\000\260\000\000\000IDAC8_2_Wakeup\000\000"
 242      B0000000 
 242      49444143 
 242      385F325F 
 242      57616B65 
 243 0074 00000000 		.ascii	"\000\000\000\000\000\000\000\000\000\000\262\000\000"
 243      00000000 
 243      0000B200 
 243      00
 244 0081 00494441 		.ascii	"\000IDAC8_2_Stop\000\000\002\000\000\000\000\000\000"
 244      43385F32 
 244      5F53746F 
 244      70000002 
 244      00000000 
 245 0097 000000B4 		.ascii	"\000\000\000\264\000\000\000IDAC8_2_SetValue\000\000"
 245      00000049 
 245      44414338 
 245      5F325F53 
 245      65745661 
 246 00b0 02000000 		.ascii	"\002\000\000\000\000\000\000\000\000\000\275\000\000"
 246      00000000 
 246      0000BD00 
 246      00
 247 00bd 00494441 		.ascii	"\000IDAC8_2_Enable\000\000\002\000\000\000\000\000\000"
 247      43385F32 
 247      5F456E61 
 247      626C6500 
 247      00020000 
 248 00d5 000000BF 		.ascii	"\000\000\000\277\000\000\000"
 248      000000
 249              		.text
 250              		.section	.gnu.lto_.opts,"",%progbits
 251 0000 272D666E 		.ascii	"'-fno-trapv' '-fno-strict-overflow' '-mcpu=cortex-m"
 251      6F2D7472 
 251      61707627 
 251      20272D66 
 251      6E6F2D73 
 252 0033 33272027 		.ascii	"3' '-mthumb' '-g' '-Og' '-ffunction-sections' '-flt"
 252      2D6D7468 
 252      756D6227 
 252      20272D67 
 252      2720272D 
 253 0066 6F272027 		.ascii	"o' '-ffat-lto-objects'\000"
 253      2D666661 
 253      742D6C74 
 253      6F2D6F62 
 253      6A656374 
 254              		.text
ARM GAS  C:\Users\Luggi\AppData\Local\Temp\ccYZhbdS.s 			page 19


 255              		.cfi_sections	.debug_frame
 256              		.section	.text.IDAC8_2_SaveConfig,"ax",%progbits
 257              		.align	2
 258              		.global	IDAC8_2_SaveConfig
 259              		.thumb
 260              		.thumb_func
 261              		.type	IDAC8_2_SaveConfig, %function
 262              	IDAC8_2_SaveConfig:
 263              	.LFB0:
 264              		.file 1 "Generated_Source\\PSoC5\\IDAC8_2_PM.c"
   1:Generated_Source\PSoC5/IDAC8_2_PM.c **** /*******************************************************************************
   2:Generated_Source\PSoC5/IDAC8_2_PM.c **** * File Name: IDAC8_2.c
   3:Generated_Source\PSoC5/IDAC8_2_PM.c **** * Version 2.0
   4:Generated_Source\PSoC5/IDAC8_2_PM.c **** *
   5:Generated_Source\PSoC5/IDAC8_2_PM.c **** * Description:
   6:Generated_Source\PSoC5/IDAC8_2_PM.c **** *  This file provides the power management source code to API for the
   7:Generated_Source\PSoC5/IDAC8_2_PM.c **** *  IDAC8.
   8:Generated_Source\PSoC5/IDAC8_2_PM.c **** *
   9:Generated_Source\PSoC5/IDAC8_2_PM.c **** * Note:
  10:Generated_Source\PSoC5/IDAC8_2_PM.c **** *  None
  11:Generated_Source\PSoC5/IDAC8_2_PM.c **** *
  12:Generated_Source\PSoC5/IDAC8_2_PM.c **** ********************************************************************************
  13:Generated_Source\PSoC5/IDAC8_2_PM.c **** * Copyright 2008-2012, Cypress Semiconductor Corporation.  All rights reserved.
  14:Generated_Source\PSoC5/IDAC8_2_PM.c **** * You may use this file only in accordance with the license, terms, conditions, 
  15:Generated_Source\PSoC5/IDAC8_2_PM.c **** * disclaimers, and limitations in the end user license agreement accompanying 
  16:Generated_Source\PSoC5/IDAC8_2_PM.c **** * the software package with which this file was provided.
  17:Generated_Source\PSoC5/IDAC8_2_PM.c **** *******************************************************************************/
  18:Generated_Source\PSoC5/IDAC8_2_PM.c **** 
  19:Generated_Source\PSoC5/IDAC8_2_PM.c **** 
  20:Generated_Source\PSoC5/IDAC8_2_PM.c **** #include "IDAC8_2.h"
  21:Generated_Source\PSoC5/IDAC8_2_PM.c **** 
  22:Generated_Source\PSoC5/IDAC8_2_PM.c **** static IDAC8_2_backupStruct IDAC8_2_backup;
  23:Generated_Source\PSoC5/IDAC8_2_PM.c **** 
  24:Generated_Source\PSoC5/IDAC8_2_PM.c **** 
  25:Generated_Source\PSoC5/IDAC8_2_PM.c **** /*******************************************************************************
  26:Generated_Source\PSoC5/IDAC8_2_PM.c **** * Function Name: IDAC8_2_SaveConfig
  27:Generated_Source\PSoC5/IDAC8_2_PM.c **** ********************************************************************************
  28:Generated_Source\PSoC5/IDAC8_2_PM.c **** * Summary:
  29:Generated_Source\PSoC5/IDAC8_2_PM.c **** *  Save the current user configuration
  30:Generated_Source\PSoC5/IDAC8_2_PM.c **** *
  31:Generated_Source\PSoC5/IDAC8_2_PM.c **** * Parameters:
  32:Generated_Source\PSoC5/IDAC8_2_PM.c **** *  void
  33:Generated_Source\PSoC5/IDAC8_2_PM.c **** *
  34:Generated_Source\PSoC5/IDAC8_2_PM.c **** * Return:
  35:Generated_Source\PSoC5/IDAC8_2_PM.c **** *  void
  36:Generated_Source\PSoC5/IDAC8_2_PM.c **** *
  37:Generated_Source\PSoC5/IDAC8_2_PM.c **** *******************************************************************************/
  38:Generated_Source\PSoC5/IDAC8_2_PM.c **** void IDAC8_2_SaveConfig(void) 
  39:Generated_Source\PSoC5/IDAC8_2_PM.c **** {
 265              		.loc 1 39 0
 266              		.cfi_startproc
 267              		@ args = 0, pretend = 0, frame = 0
 268              		@ frame_needed = 0, uses_anonymous_args = 0
 269              		@ link register save eliminated.
  40:Generated_Source\PSoC5/IDAC8_2_PM.c ****     if (!((IDAC8_2_CR1 & IDAC8_2_SRC_MASK) == IDAC8_2_SRC_UDB))
 270              		.loc 1 40 0
 271 0000 044B     		ldr	r3, .L3
ARM GAS  C:\Users\Luggi\AppData\Local\Temp\ccYZhbdS.s 			page 20


 272 0002 1B78     		ldrb	r3, [r3]	@ zero_extendqisi2
 273 0004 13F0200F 		tst	r3, #32
 274 0008 03D1     		bne	.L1
  41:Generated_Source\PSoC5/IDAC8_2_PM.c ****     {
  42:Generated_Source\PSoC5/IDAC8_2_PM.c ****         IDAC8_2_backup.data_value = IDAC8_2_Data;
 275              		.loc 1 42 0
 276 000a 034B     		ldr	r3, .L3+4
 277 000c 1A78     		ldrb	r2, [r3]	@ zero_extendqisi2
 278 000e 034B     		ldr	r3, .L3+8
 279 0010 5A70     		strb	r2, [r3, #1]
 280              	.L1:
 281 0012 7047     		bx	lr
 282              	.L4:
 283              		.align	2
 284              	.L3:
 285 0014 25580040 		.word	1073764389
 286 0018 815B0040 		.word	1073765249
 287 001c 00000000 		.word	.LANCHOR0
 288              		.cfi_endproc
 289              	.LFE0:
 290              		.size	IDAC8_2_SaveConfig, .-IDAC8_2_SaveConfig
 291              		.section	.text.IDAC8_2_RestoreConfig,"ax",%progbits
 292              		.align	2
 293              		.global	IDAC8_2_RestoreConfig
 294              		.thumb
 295              		.thumb_func
 296              		.type	IDAC8_2_RestoreConfig, %function
 297              	IDAC8_2_RestoreConfig:
 298              	.LFB1:
  43:Generated_Source\PSoC5/IDAC8_2_PM.c ****     }
  44:Generated_Source\PSoC5/IDAC8_2_PM.c **** }
  45:Generated_Source\PSoC5/IDAC8_2_PM.c **** 
  46:Generated_Source\PSoC5/IDAC8_2_PM.c **** 
  47:Generated_Source\PSoC5/IDAC8_2_PM.c **** /*******************************************************************************
  48:Generated_Source\PSoC5/IDAC8_2_PM.c **** * Function Name: IDAC8_2_RestoreConfig
  49:Generated_Source\PSoC5/IDAC8_2_PM.c **** ********************************************************************************
  50:Generated_Source\PSoC5/IDAC8_2_PM.c **** *
  51:Generated_Source\PSoC5/IDAC8_2_PM.c **** * Summary:
  52:Generated_Source\PSoC5/IDAC8_2_PM.c **** *  Restores the current user configuration.
  53:Generated_Source\PSoC5/IDAC8_2_PM.c **** *
  54:Generated_Source\PSoC5/IDAC8_2_PM.c **** * Parameters:
  55:Generated_Source\PSoC5/IDAC8_2_PM.c **** *  void
  56:Generated_Source\PSoC5/IDAC8_2_PM.c **** *
  57:Generated_Source\PSoC5/IDAC8_2_PM.c **** * Return:
  58:Generated_Source\PSoC5/IDAC8_2_PM.c **** *  void
  59:Generated_Source\PSoC5/IDAC8_2_PM.c **** *
  60:Generated_Source\PSoC5/IDAC8_2_PM.c **** *******************************************************************************/
  61:Generated_Source\PSoC5/IDAC8_2_PM.c **** void IDAC8_2_RestoreConfig(void) 
  62:Generated_Source\PSoC5/IDAC8_2_PM.c **** {
 299              		.loc 1 62 0
 300              		.cfi_startproc
 301              		@ args = 0, pretend = 0, frame = 0
 302              		@ frame_needed = 0, uses_anonymous_args = 0
 303              		@ link register save eliminated.
  63:Generated_Source\PSoC5/IDAC8_2_PM.c ****     if (!((IDAC8_2_CR1 & IDAC8_2_SRC_MASK) == IDAC8_2_SRC_UDB))
 304              		.loc 1 63 0
 305 0000 0E4B     		ldr	r3, .L8
ARM GAS  C:\Users\Luggi\AppData\Local\Temp\ccYZhbdS.s 			page 21


 306 0002 1B78     		ldrb	r3, [r3]	@ zero_extendqisi2
 307 0004 13F0200F 		tst	r3, #32
 308 0008 16D1     		bne	.L5
  64:Generated_Source\PSoC5/IDAC8_2_PM.c ****     {
  65:Generated_Source\PSoC5/IDAC8_2_PM.c ****         if((IDAC8_2_Strobe & IDAC8_2_STRB_MASK) == IDAC8_2_STRB_EN)
 309              		.loc 1 65 0
 310 000a 0D4B     		ldr	r3, .L8+4
 311 000c 1B78     		ldrb	r3, [r3]	@ zero_extendqisi2
 312 000e 13F0080F 		tst	r3, #8
 313 0012 0DD0     		beq	.L7
  66:Generated_Source\PSoC5/IDAC8_2_PM.c ****         {
  67:Generated_Source\PSoC5/IDAC8_2_PM.c ****             IDAC8_2_Strobe &= (uint8)(~IDAC8_2_STRB_MASK);
 314              		.loc 1 67 0
 315 0014 0A4B     		ldr	r3, .L8+4
 316 0016 1A78     		ldrb	r2, [r3]	@ zero_extendqisi2
 317 0018 02F0F702 		and	r2, r2, #247
 318 001c 1A70     		strb	r2, [r3]
  68:Generated_Source\PSoC5/IDAC8_2_PM.c ****             IDAC8_2_Data = IDAC8_2_backup.data_value;
 319              		.loc 1 68 0
 320 001e 094A     		ldr	r2, .L8+8
 321 0020 5178     		ldrb	r1, [r2, #1]	@ zero_extendqisi2
 322 0022 094A     		ldr	r2, .L8+12
 323 0024 1170     		strb	r1, [r2]
  69:Generated_Source\PSoC5/IDAC8_2_PM.c ****             IDAC8_2_Strobe |= IDAC8_2_STRB_EN;
 324              		.loc 1 69 0
 325 0026 1A78     		ldrb	r2, [r3]	@ zero_extendqisi2
 326 0028 42F00802 		orr	r2, r2, #8
 327 002c 1A70     		strb	r2, [r3]
 328 002e 7047     		bx	lr
 329              	.L7:
  70:Generated_Source\PSoC5/IDAC8_2_PM.c ****         }
  71:Generated_Source\PSoC5/IDAC8_2_PM.c ****         else
  72:Generated_Source\PSoC5/IDAC8_2_PM.c ****         {
  73:Generated_Source\PSoC5/IDAC8_2_PM.c ****             IDAC8_2_Data = IDAC8_2_backup.data_value;
 330              		.loc 1 73 0
 331 0030 044B     		ldr	r3, .L8+8
 332 0032 5A78     		ldrb	r2, [r3, #1]	@ zero_extendqisi2
 333 0034 044B     		ldr	r3, .L8+12
 334 0036 1A70     		strb	r2, [r3]
 335              	.L5:
 336 0038 7047     		bx	lr
 337              	.L9:
 338 003a 00BF     		.align	2
 339              	.L8:
 340 003c 25580040 		.word	1073764389
 341 0040 8F5A0040 		.word	1073765007
 342 0044 00000000 		.word	.LANCHOR0
 343 0048 815B0040 		.word	1073765249
 344              		.cfi_endproc
 345              	.LFE1:
 346              		.size	IDAC8_2_RestoreConfig, .-IDAC8_2_RestoreConfig
 347              		.section	.text.IDAC8_2_Sleep,"ax",%progbits
 348              		.align	2
 349              		.global	IDAC8_2_Sleep
 350              		.thumb
 351              		.thumb_func
 352              		.type	IDAC8_2_Sleep, %function
ARM GAS  C:\Users\Luggi\AppData\Local\Temp\ccYZhbdS.s 			page 22


 353              	IDAC8_2_Sleep:
 354              	.LFB2:
  74:Generated_Source\PSoC5/IDAC8_2_PM.c ****         }
  75:Generated_Source\PSoC5/IDAC8_2_PM.c ****     }
  76:Generated_Source\PSoC5/IDAC8_2_PM.c **** }
  77:Generated_Source\PSoC5/IDAC8_2_PM.c **** 
  78:Generated_Source\PSoC5/IDAC8_2_PM.c **** 
  79:Generated_Source\PSoC5/IDAC8_2_PM.c **** /*******************************************************************************
  80:Generated_Source\PSoC5/IDAC8_2_PM.c **** * Function Name: IDAC8_2_Sleep
  81:Generated_Source\PSoC5/IDAC8_2_PM.c **** ********************************************************************************
  82:Generated_Source\PSoC5/IDAC8_2_PM.c **** * Summary:
  83:Generated_Source\PSoC5/IDAC8_2_PM.c **** *  Stop and Save the user configuration
  84:Generated_Source\PSoC5/IDAC8_2_PM.c **** *
  85:Generated_Source\PSoC5/IDAC8_2_PM.c **** * Parameters:
  86:Generated_Source\PSoC5/IDAC8_2_PM.c **** *  void:
  87:Generated_Source\PSoC5/IDAC8_2_PM.c **** *
  88:Generated_Source\PSoC5/IDAC8_2_PM.c **** * Return:
  89:Generated_Source\PSoC5/IDAC8_2_PM.c **** *  void
  90:Generated_Source\PSoC5/IDAC8_2_PM.c **** *
  91:Generated_Source\PSoC5/IDAC8_2_PM.c **** * Global variables:
  92:Generated_Source\PSoC5/IDAC8_2_PM.c **** *  IDAC8_2_backup.enableState: Is modified depending on the enable 
  93:Generated_Source\PSoC5/IDAC8_2_PM.c **** *  state of the block before entering sleep mode.
  94:Generated_Source\PSoC5/IDAC8_2_PM.c **** *
  95:Generated_Source\PSoC5/IDAC8_2_PM.c **** *******************************************************************************/
  96:Generated_Source\PSoC5/IDAC8_2_PM.c **** void IDAC8_2_Sleep(void) 
  97:Generated_Source\PSoC5/IDAC8_2_PM.c **** {
 355              		.loc 1 97 0
 356              		.cfi_startproc
 357              		@ args = 0, pretend = 0, frame = 0
 358              		@ frame_needed = 0, uses_anonymous_args = 0
 359 0000 08B5     		push	{r3, lr}
 360              		.cfi_def_cfa_offset 8
 361              		.cfi_offset 3, -8
 362              		.cfi_offset 14, -4
  98:Generated_Source\PSoC5/IDAC8_2_PM.c ****     if(IDAC8_2_ACT_PWR_EN == (IDAC8_2_PWRMGR & IDAC8_2_ACT_PWR_EN))
 363              		.loc 1 98 0
 364 0002 084B     		ldr	r3, .L14
 365 0004 1B78     		ldrb	r3, [r3]	@ zero_extendqisi2
 366 0006 13F0020F 		tst	r3, #2
 367 000a 03D0     		beq	.L11
  99:Generated_Source\PSoC5/IDAC8_2_PM.c ****     {
 100:Generated_Source\PSoC5/IDAC8_2_PM.c ****         /* IDAC8 is enabled */
 101:Generated_Source\PSoC5/IDAC8_2_PM.c ****         IDAC8_2_backup.enableState = 1u;
 368              		.loc 1 101 0
 369 000c 0122     		movs	r2, #1
 370 000e 064B     		ldr	r3, .L14+4
 371 0010 1A70     		strb	r2, [r3]
 372 0012 02E0     		b	.L12
 373              	.L11:
 102:Generated_Source\PSoC5/IDAC8_2_PM.c ****     }
 103:Generated_Source\PSoC5/IDAC8_2_PM.c ****     else
 104:Generated_Source\PSoC5/IDAC8_2_PM.c ****     {
 105:Generated_Source\PSoC5/IDAC8_2_PM.c ****         /* IDAC8 is disabled */
 106:Generated_Source\PSoC5/IDAC8_2_PM.c ****         IDAC8_2_backup.enableState = 0u;
 374              		.loc 1 106 0
 375 0014 0022     		movs	r2, #0
 376 0016 044B     		ldr	r3, .L14+4
ARM GAS  C:\Users\Luggi\AppData\Local\Temp\ccYZhbdS.s 			page 23


 377 0018 1A70     		strb	r2, [r3]
 378              	.L12:
 107:Generated_Source\PSoC5/IDAC8_2_PM.c ****     }
 108:Generated_Source\PSoC5/IDAC8_2_PM.c **** 
 109:Generated_Source\PSoC5/IDAC8_2_PM.c ****     IDAC8_2_Stop();
 379              		.loc 1 109 0
 380 001a FFF7FEFF 		bl	IDAC8_2_Stop
 381              	.LVL0:
 110:Generated_Source\PSoC5/IDAC8_2_PM.c ****     IDAC8_2_SaveConfig();
 382              		.loc 1 110 0
 383 001e FFF7FEFF 		bl	IDAC8_2_SaveConfig
 384              	.LVL1:
 385 0022 08BD     		pop	{r3, pc}
 386              	.L15:
 387              		.align	2
 388              	.L14:
 389 0024 A8430040 		.word	1073759144
 390 0028 00000000 		.word	.LANCHOR0
 391              		.cfi_endproc
 392              	.LFE2:
 393              		.size	IDAC8_2_Sleep, .-IDAC8_2_Sleep
 394              		.section	.text.IDAC8_2_Wakeup,"ax",%progbits
 395              		.align	2
 396              		.global	IDAC8_2_Wakeup
 397              		.thumb
 398              		.thumb_func
 399              		.type	IDAC8_2_Wakeup, %function
 400              	IDAC8_2_Wakeup:
 401              	.LFB3:
 111:Generated_Source\PSoC5/IDAC8_2_PM.c **** }
 112:Generated_Source\PSoC5/IDAC8_2_PM.c **** 
 113:Generated_Source\PSoC5/IDAC8_2_PM.c **** 
 114:Generated_Source\PSoC5/IDAC8_2_PM.c **** /*******************************************************************************
 115:Generated_Source\PSoC5/IDAC8_2_PM.c **** * Function Name: IDAC8_2_Wakeup
 116:Generated_Source\PSoC5/IDAC8_2_PM.c **** ********************************************************************************
 117:Generated_Source\PSoC5/IDAC8_2_PM.c **** *
 118:Generated_Source\PSoC5/IDAC8_2_PM.c **** * Summary:
 119:Generated_Source\PSoC5/IDAC8_2_PM.c **** *  Restores and enables the user configuration
 120:Generated_Source\PSoC5/IDAC8_2_PM.c **** *  
 121:Generated_Source\PSoC5/IDAC8_2_PM.c **** * Parameters:
 122:Generated_Source\PSoC5/IDAC8_2_PM.c **** *  void
 123:Generated_Source\PSoC5/IDAC8_2_PM.c **** *
 124:Generated_Source\PSoC5/IDAC8_2_PM.c **** * Return:
 125:Generated_Source\PSoC5/IDAC8_2_PM.c **** *  void
 126:Generated_Source\PSoC5/IDAC8_2_PM.c **** *
 127:Generated_Source\PSoC5/IDAC8_2_PM.c **** * Global variables:
 128:Generated_Source\PSoC5/IDAC8_2_PM.c **** *  IDAC8_2_backup.enableState: Is used to restore the enable state of 
 129:Generated_Source\PSoC5/IDAC8_2_PM.c **** *  block on wakeup from sleep mode.
 130:Generated_Source\PSoC5/IDAC8_2_PM.c **** *
 131:Generated_Source\PSoC5/IDAC8_2_PM.c **** *******************************************************************************/
 132:Generated_Source\PSoC5/IDAC8_2_PM.c **** void IDAC8_2_Wakeup(void) 
 133:Generated_Source\PSoC5/IDAC8_2_PM.c **** {
 402              		.loc 1 133 0
 403              		.cfi_startproc
 404              		@ args = 0, pretend = 0, frame = 0
 405              		@ frame_needed = 0, uses_anonymous_args = 0
 406 0000 08B5     		push	{r3, lr}
ARM GAS  C:\Users\Luggi\AppData\Local\Temp\ccYZhbdS.s 			page 24


 407              		.cfi_def_cfa_offset 8
 408              		.cfi_offset 3, -8
 409              		.cfi_offset 14, -4
 134:Generated_Source\PSoC5/IDAC8_2_PM.c ****     IDAC8_2_RestoreConfig();
 410              		.loc 1 134 0
 411 0002 FFF7FEFF 		bl	IDAC8_2_RestoreConfig
 412              	.LVL2:
 135:Generated_Source\PSoC5/IDAC8_2_PM.c ****     
 136:Generated_Source\PSoC5/IDAC8_2_PM.c ****     if(IDAC8_2_backup.enableState == 1u)
 413              		.loc 1 136 0
 414 0006 054B     		ldr	r3, .L19
 415 0008 1B78     		ldrb	r3, [r3]	@ zero_extendqisi2
 416 000a 012B     		cmp	r3, #1
 417 000c 05D1     		bne	.L16
 137:Generated_Source\PSoC5/IDAC8_2_PM.c ****     {
 138:Generated_Source\PSoC5/IDAC8_2_PM.c ****         /* Enable IDAC8's operation */
 139:Generated_Source\PSoC5/IDAC8_2_PM.c ****         IDAC8_2_Enable();
 418              		.loc 1 139 0
 419 000e FFF7FEFF 		bl	IDAC8_2_Enable
 420              	.LVL3:
 140:Generated_Source\PSoC5/IDAC8_2_PM.c ****         
 141:Generated_Source\PSoC5/IDAC8_2_PM.c ****         /* Set the data register */
 142:Generated_Source\PSoC5/IDAC8_2_PM.c ****         IDAC8_2_SetValue(IDAC8_2_Data);
 421              		.loc 1 142 0
 422 0012 034B     		ldr	r3, .L19+4
 423 0014 1878     		ldrb	r0, [r3]	@ zero_extendqisi2
 424 0016 FFF7FEFF 		bl	IDAC8_2_SetValue
 425              	.LVL4:
 426              	.L16:
 427 001a 08BD     		pop	{r3, pc}
 428              	.L20:
 429              		.align	2
 430              	.L19:
 431 001c 00000000 		.word	.LANCHOR0
 432 0020 815B0040 		.word	1073765249
 433              		.cfi_endproc
 434              	.LFE3:
 435              		.size	IDAC8_2_Wakeup, .-IDAC8_2_Wakeup
 436              		.bss
 437              		.align	2
 438              		.set	.LANCHOR0,. + 0
 439              		.type	IDAC8_2_backup, %object
 440              		.size	IDAC8_2_backup, 2
 441              	IDAC8_2_backup:
 442 0000 0000     		.space	2
 443 0002 0000     		.text
 444              	.Letext0:
 445              		.file 2 "Generated_Source\\PSoC5\\cytypes.h"
 446              		.file 3 "Generated_Source\\PSoC5\\IDAC8_2.h"