ARM GAS  C:\Users\Luggi\AppData\Local\Temp\ccpgurXZ.s 			page 1


   1              		.syntax unified
   2              		.cpu cortex-m3
   3              		.fpu softvfp
   4              		.eabi_attribute 20, 1
   5              		.eabi_attribute 21, 1
   6              		.eabi_attribute 23, 3
   7              		.eabi_attribute 24, 1
   8              		.eabi_attribute 25, 1
   9              		.eabi_attribute 26, 1
  10              		.eabi_attribute 30, 1
  11              		.eabi_attribute 34, 1
  12              		.eabi_attribute 18, 4
  13              		.thumb
  14              		.file	"IDAC8_1_PM.c"
  15              		.text
  16              	.Ltext0:
  17              		.section	.gnu.lto_.profile.53c7aef2,"",%progbits
  18 0000 789C6366 		.ascii	"x\234cf```a\200\000F\206X\035\000\001Z\000\222"
  18      60606061 
  18      80004686 
  18      581D0001 
  18      5A0092
  19              		.text
  20              		.section	.gnu.lto_.inline.53c7aef2,"",%progbits
  21 0000 789C6366 		.ascii	"x\234cf\300\016\262\2404\013\003\003';#\003\023\317"
  21      C00EB2A0 
  21      340B0303 
  21      273B2303 
  21      13CF
  22 0012 894006B6 		.ascii	"\211@\006\266\005\362L 1&\006Qn\240\220\312\207^F\270"
  22      05F24C20 
  22      31260651 
  22      6EA090CA 
  22      875E46B8 
  23 0026 183303B7 		.ascii	"\0303\003\2674H\331\004?\270\020#\027\214`a\340\026"
  23      3448D904 
  23      3FB81023 
  23      178C6061 
  23      E016
  24 0038 064A72FC 		.ascii	"\006Jr\3743D\230\301\015\224\233\340\207P\303\000\000"
  24      334498C1 
  24      0D949BE0 
  24      8750C300 
  24      00
  25 0049 6A730A17 		.ascii	"js\012\027"
  26              		.text
  27              		.section	.gnu.lto_.jmpfuncs.53c7aef2,"",%progbits
  28 0000 789C6366 		.ascii	"x\234cf\300\016D\2414\013\0203100C\331\214`A\000\003"
  28      C00E44A1 
  28      340B1033 
  28      31303043 
  28      D98C6041 
  29 0016 FF0027   		.ascii	"\377\000'"
  30              		.text
  31              		.section	.gnu.lto_.pureconst.53c7aef2,"",%progbits
  32 0000 789C6366 		.ascii	"x\234cf``\340d\200\000\026\006)&)f)\026)\000\002\321"
  32      6060E064 
ARM GAS  C:\Users\Luggi\AppData\Local\Temp\ccpgurXZ.s 			page 2


  32      80001606 
  32      29262966 
  32      29162900 
  33 0016 0082     		.ascii	"\000\202"
  34              		.text
  35              		.section	.gnu.lto_IDAC8_1_SaveConfig.53c7aef2,"",%progbits
  36 0000 789C6591 		.ascii	"x\234e\221AH\024Q\030\307\277\377\367\336\214[\333!"
  36      41481451 
  36      18C7BFFF 
  36      F7DE8C5B 
  36      DB21
  37 0012 3A7A900E 		.ascii	":z\220\016\225'\333\"\202\256a\020\035\202\005\257\302"
  37      9527DB22 
  37      82AE6110 
  37      1D8205AF 
  37      C2
  38 0023 52B6D704 		.ascii	"R\266\327\004):\211ot\210\210H\351\024\224\035\004\323"
  38      293A896F 
  38      74888848 
  38      E914941D 
  38      04D3
  39 0035 5A5B753B 		.ascii	"Z[u;\324R\301\024\025t\250\010\265B\302\322V\250S\231"
  39      D452C114 
  39      1574A808 
  39      B542C2D2 
  39      56A85399 
  40 0049 920E65F6 		.ascii	"\222\016e\366}3K\005\015\314{\363\336\367{\377\377\377"
  40      7D334B05 
  40      0DCC7BF3 
  40      DEF77BFF 
  40      FFFF
  41 005b 7D63E8FF 		.ascii	"}c\350\377g\237\274\213 \332%3<\002\017\274 \0122\314"
  41      679FBC8B 
  41      20DA2533 
  41      3C020FBC 
  41      200A32CC 
  42 006f 663A476E 		.ascii	"f:Gn\263\275\337Dn\213\201M\267-\240\037\004\352ac\321"
  42      B3BDDF44 
  42      6E8B814D 
  42      B72DA01F 
  42      04EA6163 
  43 0084 83CFBCC4 		.ascii	"\203\317\274\304\030\210J\227\263\315\303\316\271\257"
  43      18884A97 
  43      B3CDC3CE 
  43      B9AF
  44 0092 0BCF827C 		.ascii	"\013\317\202|\204\230\211\22695\300\010\232I\240\245"
  44      84988996 
  44      3935C008 
  44      9A49A0A5 
  45 00a2 70FD4DD6 		.ascii	"p\375M\326\017\005\332\232\3260\012_\214i|[\34466\226"
  45      0F05DA9A 
  45      D6300A5F 
  45      8C697C5B 
  45      E4363696 
  46 00b6 471EDE45 		.ascii	"G\036\336E\203\241\230au\360t \252\011\251\216\213\314"
  46      83A19861 
  46      75F07420 
ARM GAS  C:\Users\Luggi\AppData\Local\Temp\ccpgurXZ.s 			page 3


  46      AA09A98E 
  46      8BCC
  47 00c8 3A9B593C 		.ascii	":\233Y<\372~\376\351\023\243\207W\331\210n\377\227\007"
  47      FA7EFEE9 
  47      13A38757 
  47      D9886EFF 
  47      9707
  48 00da 7B3E71CC 		.ascii	"{>q\314<<\0218\253N\357k/_e\222-\322ee\350\303O\177"
  48      3C3C1138 
  48      AB4EEF6B 
  48      2F5F6592 
  48      2DD26565 
  49 00f2 10578250 		.ascii	"\020W\202Pr\031\334@#n\242Q\374K\030\004\315\242o\355"
  49      7219DC40 
  49      236EA251 
  49      FC4B1804 
  49      CDA26FED 
  50 0106 ECE3BA9E 		.ascii	"\354\343\272\236M%\253\345\225\347Y\025\300v\302\230"
  50      4D25ABE5 
  50      95E75915 
  50      C076C298 
  51 0116 B03308DF 		.ascii	"\2603\010\337\366\035\2573\002\004\327\357]hH\000\221"
  51      F61DAF33 
  51      0204D7EF 
  51      5D684800 
  51      91
  52 0127 B9A562DA 		.ascii	"\271\245b\332E64\235K\023\276\236\331\224\322\236\320"
  52      4536349D 
  52      4B13BE9E 
  52      D994D29E 
  52      D0
  53 0138 EF56D7AA 		.ascii	"\357V\327\252\234\344\011\356\324#NM~<\3637R\371O\244"
  53      9CE409EE 
  53      D4234E4D 
  53      7E3CF337 
  53      52F94FA4 
  54 014c F13452EF 		.ascii	"\3614R\357\245\371\235z^\310kS\027\313\334\375\303\235"
  54      A5F99D7A 
  54      5EC86B53 
  54      17CBDCFD 
  54      C39D
  55 015e 739998ED 		.ascii	"s\231\230\355\2726\356\337+\332d9\032\204W\241zN)\017"
  55      BA36EEDF 
  55      2BDA6439 
  55      1A8457A1 
  55      7A4E290F 
  56 0172 13E8C6A4 		.ascii	"\023\350\306\244\012J\355\327X\177\305o)I\337\243\\"
  56      0A4AEDD7 
  56      587FC56F 
  56      2949DFA3 
  56      5C
  57 0183 CC3E2A02 		.ascii	"\314>*\002~K\376\015n\243E\022&\321m\322\3359\004Q\325"
  57      7E4BFE0D 
  57      6EA34512 
  57      26D16DD2 
  57      DD390451 
  58 0198 5367ADD7 		.ascii	"Sg\255\327\344z\262+\354\216\303\305\223\305\256c\247"
ARM GAS  C:\Users\Luggi\AppData\Local\Temp\ccpgurXZ.s 			page 4


  58      E47AB22B 
  58      EC8EC3C5 
  58      93C5AE63 
  58      A7
  59 01a9 8A270A6D 		.ascii	"\212'\012m\235\247\273:\212\355\371\266\316\326\375"
  59      9DA7BB3A 
  59      8AEDF9B6 
  59      CED6FD
  60 01b8 ED470E1D 		.ascii	"\355G\016\035l=P\330[\310\037\335\335A\277\001%g\274"
  60      6C3D50D8 
  60      5BC81FDD 
  60      DD41BF01 
  60      2567BC
  61 01cb B7       		.ascii	"\267"
  62              		.text
  63              		.section	.gnu.lto_IDAC8_1_RestoreConfig.53c7aef2,"",%progbits
  64 0000 789C8D93 		.ascii	"x\234\215\223]H\024Q\024\307\317\2713swu\027\267\366"
  64      5D481451 
  64      14C7CFB9 
  64      33737775 
  64      17B7F6
  65 0013 51D8E821 		.ascii	"Q\330\350!\362!\314z\010\242\2670\212\240@\360U\220"
  65      F221CC7A 
  65      08A2B730 
  65      8AA040F0 
  65      5590
  66 0025 B27D5590 		.ascii	"\262}U\220\242^\304\231\\\242\"R\242B(\203\215,\323"
  66      A25EC499 
  66      5CA22252 
  66      A2422883 
  66      8D2CD3
  67 0038 CDCFFC58 		.ascii	"\315\317\374X?r\013\251\207J)\215J\302\2026\250\227"
  67      3F720BA9 
  67      874A298D 
  67      4AC28236 
  67      A897
  68 004a CA4DD2A5 		.ascii	"\312M\322\245\324\316\271wV\305R\032\330sg\356\375\317"
  68      D4CEB977 
  68      56C5521A 
  68      D87367EE 
  68      FDCF
  69 005c FFFCE67F 		.ascii	"\377\374\346\177\357\032\360\367u\210~A\023`+\215\350"
  69      EF1AF0F7 
  69      75887E41 
  69      13602B8D 
  69      E8
  70 006d 011475A3 		.ascii	"\001\024u\243\000\216W\010c\242\000\354l9\270\011l\277"
  70      008E5708 
  70      63A200EC 
  70      6C39B809 
  70      6CBF
  71 007f 214C1EB3 		.ascii	"!L\036\263-\236\363\233(\265\310\312\334HD\276\001\204"
  71      2D9EF39B 
  71      28B5C8CA 
  71      DC4844BE 
  71      0184
  72 0091 6A619896 		.ascii	"ja\230\226\304j\374\"\246\005\326%Z\352}y\215\266m\177"
ARM GAS  C:\Users\Luggi\AppData\Local\Temp\ccpgurXZ.s 			page 5


  72      C46AFC22 
  72      A605D625 
  72      5AEA7D79 
  72      8DB66D7F 
  73 00a5 7F39E614 		.ascii	"\1779\346\024%0-\000~\010\335\031\357`\036\220h:2\377"
  73      25302D00 
  73      7E08DD19 
  73      EF601E90 
  73      683A32FF 
  74 00b9 DA272324 		.ascii	"\332'#$\332\240\327\260\011%\322\330\026L\330\213\213"
  74      DAA0D7B0 
  74      0925D2D8 
  74      164CD88B 
  74      8B
  75 00ca 5DC30FFB 		.ascii	"]\303\017\373\344F\003\322\002M.\026\027\311\305\303"
  75      E44603D2 
  75      024D2E16 
  75      17C9C5C3 
  76 00da 258B8B8F 		.ascii	"%\213\213\217\213\237K\016\227\000\027\200$\2311\326"
  76      8B9F4B0E 
  76      97001780 
  76      249931D6 
  77 00ea 27217834 		.ascii	"'!x4&\361\321\317\363\013O\014\366\237\025\006\265\256"
  77      26F1D1CF 
  77      F30B4F0C 
  77      F69F1506 
  77      B5AE
  78 00fc FD36B4E3 		.ascii	"\3756\264\343\263H\013\321\330\356\330&\303\274O\216"
  78      B3480BD1 
  78      D8EED826 
  78      C3BC4F8E 
  79 010c BDF0AA29 		.ascii	"\275\360\252)\340\307\316\233\037~\313\006\274\346D"
  79      E0C7CE9B 
  79      1F7ECB06 
  79      BCE644
  80 011b 08DDC0BB 		.ascii	"\010\335\300\273\230\213\315\230K\210-\330\2000\211"
  80      988BCD98 
  80      4B882DD8 
  80      803089
  81 012a 35736746 		.ascii	"5sgF\\\277\034m\031o\235y\356c\003\334\014\030#\355"
  81      5CBF1C6D 
  81      196F9D79 
  81      EE6303DC 
  81      0C1823ED 
  82 013e 2B8CBCA9 		.ascii	"+\214\274\2519\352jH\340\334\036\270\340Q\002\262\271"
  82      39EA6A48 
  82      E0DC1EB8 
  82      E05102B2 
  82      B9
  83 014f C766C088 		.ascii	"\307f\300\210\006L\024h\302\321\372=Zm\221\272\177&"
  83      064C1468 
  83      C2D1FA3D 
  83      5A6D91BA 
  83      7F26
  84 0161 D5AC796A 		.ascii	"\325\254yj\273]\304\313\321\250\023Xfj]bj[bJ\272L\246"
  84      BB5DC4CB 
  84      D1A81358 
ARM GAS  C:\Users\Luggi\AppData\Local\Temp\ccpgurXZ.s 			page 6


  84      666A5D62 
  84      6A5B624A 
  85 0178 36B975E5 		.ascii	"6\271u\345j\314R-\275\200\355\232\351mM\271\253Y\001"
  85      6ACC522D 
  85      BD80ED9A 
  85      E96D4DB9 
  85      AB5901
  86 018b 61C2D3A0 		.ascii	"a\302\323\240\206\230\252?\245\227\345z\035;2\035\245"
  86      8698AA3F 
  86      A597E57A 
  86      1D3B321D 
  86      A5
  87 019c 167BB4BE 		.ascii	"\026{\264\276-\025\033\221\334\317\230E\300N\222\222"
  87      2D151B91 
  87      DCCF9845 
  87      C04E9292 
  88 01ac E72564CD 		.ascii	"\347%d\315zn]\344F\036$>\335\323\3618\352\323\236Y\364"
  88      7A6E5DE4 
  88      461E243E 
  88      DDD3F138 
  88      EAD39E59 
  89 01c1 CA8DF18B 		.ascii	"\312\215\361\213\255\242\352\227}\326\366\246\2059\317"
  89      ADA2EA97 
  89      7DD6F6A6 
  89      8539CF
  90 01d0 8764E55E 		.ascii	"\207d\345^\231\352\261\311\211\\G\366\265Ye\341}\254"
  90      99EAB1C9 
  90      895C47F6 
  90      B55965E1 
  90      7DAC
  91 01e2 C26E36A6 		.ascii	"\302n6\246\265\205Xm\247\314\337\226\026\022{H\223R"
  91      B585586D 
  91      A7CCDF96 
  91      16127B48 
  91      9352
  92 01f4 47107B31 		.ascii	"G\020{1_\221EC.\332\273\331\271\270Pi;\275n\332\343"
  92      5F914543 
  92      2EDABBD9 
  92      B9B85069 
  92      3BBD6EDA 
  93 0209 1D1F4F2A 		.ascii	"\035\037O*X'\021b\334\276%\334\270\302\315\002\225\327"
  93      58271162 
  93      DCBE25DC 
  93      B8C2CD02 
  93      95D7
  94 021b D74C5EBE 		.ascii	"\327L^\276\365\276\260\337\315k\306\315\313Oz\265!\377"
  94      F5BEB0DF 
  94      CD6BC6CD 
  94      CB4F7AB5 
  94      21FF
  95 022d 95CF806A 		.ascii	"\225\317\200j\350W;e\301\271\220\301AM?\313\004\025"
  95      E8573B65 
  95      C1B990C1 
  95      414D3FCB 
  95      0415
  96 023f 5833A8D5 		.ascii	"X3\250\325\311\014\376;\231\241\345d\036\254Nf\355\030"
  96      C90CFE3B 
ARM GAS  C:\Users\Luggi\AppData\Local\Temp\ccpgurXZ.s 			page 7


  96      99A1E564 
  96      1EAC4E66 
  96      ED18
  97 0251 86155540 		.ascii	"\206\025U@QI\365?\233B'\021\337\317/\262W\222\016:\315"
  97      5149F53F 
  97      9B422711 
  97      DFCF2FB2 
  97      57920E3A 
  98 0266 92EF9603 		.ascii	"\222\357\226\003\341\362p\345\221\343\341c\245\305\025"
  98      E1F270E5 
  98      91E3E163 
  98      A5C515
  99 0275 272ACBC2 		.ascii	"'*\313\302%E\305\025\205\273J\016\356\333[\270\273t"
  99      2545C515 
  99      85BB4A0E 
  99      EEDB5BB8 
  99      BB74
 100 0287 6769D1E1 		.ascii	"gi\321\341\355e\360\007\256\031r\352"
 100      ED65F007 
 100      AE1972EA 
 101              		.text
 102              		.section	.gnu.lto_IDAC8_1_Sleep.53c7aef2,"",%progbits
 103 0000 789C8592 		.ascii	"x\234\205\222MHTQ\030\206\277\367\273?3fQ\264\022\027"
 103      4D485451 
 103      1886BFF7 
 103      BB3F3366 
 103      51B41217 
 104 0014 B38A5CD9 		.ascii	"\263\212\\\331\320\"j\323\"\024\244E \270\025\206\260"
 104      D0226AD3 
 104      2214A445 
 104      20B81586 
 104      B0
 105 0025 D926482D 		.ascii	"\331&H-'\317\235\271\375\020R\206\2330m\247M\215\251"
 105      27CF9DB9 
 105      FD105286 
 105      9B306DA7 
 105      4D8DA9
 106 0038 69BF38D0 		.ascii	"i\2778\320\255M\273B\262$\213j1\023\266\020\306F\254"
 106      AD4DBB42 
 106      B2248B6A 
 106      3113B610 
 106      C646AC
 107 004b 4BD8F49D 		.ascii	"K\330\364\235s\247\037\214\352\302\275\347\357\271\357"
 107      73A71F8C 
 107      EAC2BDE7 
 107      EFB9EF
 108 005a FB9EEF1C 		.ascii	"\373\236\357\034\213\376|\016\312\233e\242\335\322\302"
 108      8BFE7C0E 
 108      CA9B65A2 
 108      DDD2C2
 109 0069 25F0E053 		.ascii	"%\360\340S\"/\316l\025\023\244\266\330\013IR[-8\321"
 109      222FCE6C 
 109      1513A4B6 
 109      D80B4952 
 109      5B2D38D1 
 110 007d B4FDA3E3 		.ascii	"\264\375\243\343\000\272C\240~\266l\007\375\370\310"
 110      00BA43A0 
ARM GAS  C:\Users\Luggi\AppData\Local\Temp\ccpgurXZ.s 			page 8


 110      7EB66C07 
 110      FDF8C8
 111 008c AB8CC1A0 		.ascii	"\253\214\301\240p\271\261eL)U\311>h:\335\024\212r\225"
 111      70B9B165 
 111      4C2955C9 
 111      3E683ADD 
 111      148A7295 
 112 00a0 23275C43 		.ascii	"#'\\C\013\011\263\352o,6\272\2760;\2425\344\341B\332"
 112      0B09B3EA 
 112      6F2C36BA 
 112      BE303BA2 
 112      35E4E142 
 113 00b5 A99D81AA 		.ascii	"\251\235\201\252\325\252\245K\313\373\321\300\0242l"
 113      D5AAA54B 
 113      CBFBD1C0 
 113      14326C
 114 00c4 FD212A09 		.ascii	"\375!*\011\245\335\312\314\272\265\226\360x\375\374"
 114      A5DDCACC 
 114      BAB596F0 
 114      78FDFC
 115 00d3 CB9153FA 		.ascii	"\313\221S\372\307\317l\213\346\320\353\331\232\265\314"
 115      C7CF6C8B 
 115      E6D0EBD9 
 115      9AB5CC
 116 00e2 2173FEAC 		.ascii	"!s\376\254\247lm\363\256\364l>n\246H\017W\306\326\337"
 116      A76C6DF3 
 116      AEF46C3E 
 116      6EA6480F 
 116      57C6D6DF 
 117 00f6 6F1BC515 		.ascii	"o\033\305\025\317G\310\026\256\243\0317\320,\346\005"
 117      CF47C816 
 117      AEA31937 
 117      D02CE605 
 118 0106 8C829690 		.ascii	"\214\202\226\220\373rf\315\211\0049\322\034^,\257\031"
 118      FB7266CD 
 118      890439D2 
 118      1C5E2CAF 
 118      19
 119 0117 4D306142 		.ascii	"M0aB\330\027\360_\345\022uF\000o|n f\000\221\271\251"
 119      D817F05F 
 119      E5127546 
 119      006F7C6E 
 119      20660091 
 120 012d C54867B4 		.ascii	"\305Hg\264\250\230\220\210\331J\345\303\243\006M\013"
 120      A8989088 
 120      D94AE5C3 
 120      A3064D0B 
 121 013d 7AF5F985 		.ascii	"z\365\371\205I\316|U\347T<d{C\357\372\367\210\266\031"
 121      49CE7C55 
 121      E7543C64 
 121      7B43EFFA 
 121      F788B619 
 122 0151 E63D7F04 		.ascii	"\346=\177\004:\242\322\224\203Id0\245ee\355\333\304"
 122      3AA2D294 
 122      83496430 
 122      A56565ED 
 122      DBC4
ARM GAS  C:\Users\Luggi\AppData\Local\Temp\ccpgurXZ.s 			page 9


 123 0163 C519B7B5 		.ascii	"\305\031\267\265 E\013\222!\273\230\026\360\223),n\241"
 123      20450B92 
 123      21BB9816 
 123      F093292C 
 123      6EA1
 124 0175 5580F9E1 		.ascii	"U\200\371\341\361\334v\255%\245\304\214\011S\026\335"
 124      F1DC76AD 
 124      25A5C48C 
 124      095316DD 
 125 0185 85A48932 		.ascii	"\205\244\2112\275\362\237(\233\275g\377\341}\373\227"
 125      BDF29F28 
 125      9BBD67FF 
 125      E17DFB97 
 126 0195 F71DE3FD 		.ascii	"\367\035\343\375s\037\256L\335\255{;\346\250\336 \027"
 126      731FAE4C 
 126      DDAD7B3B 
 126      E6A8DE20 
 126      17
 127 01a6 CC3D61ED 		.ascii	"\314=a\355M\233\315cUS\271{\310\3101\307I\243\305\330"
 127      4D9BCD63 
 127      5553B97B 
 127      C8C831C7 
 127      49A3C5D8 
 128 01ba DF48F1C3 		.ascii	"\337H\361\303\375:\371\026^\360\260\303\220\244o\007"
 128      FD3AF916 
 128      5EF0B0C3 
 128      90A46F07 
 129 01ca B49500BB 		.ascii	"\264\225\000\273:\322\307\323}GO\244\217\245\272zO\366"
 129      3AD2C7D3 
 129      7D474FA4 
 129      8FA5BA7A 
 129      4FF6
 130 01dc F5A4BB3B 		.ascii	"\365\244\273;\273z\333\366u\037n?\324v \2657\325ydO"
 130      BB7ADBF6 
 130      751F6E3F 
 130      D47620B5 
 130      37D57964 
 131 01f1 0F7D0759 		.ascii	"\017}\007Y\377\365\004"
 131      FFF504
 132              		.text
 133              		.section	.gnu.lto_IDAC8_1_Wakeup.53c7aef2,"",%progbits
 134 0000 789C7551 		.ascii	"x\234uQMH\024a\030~\237w\276\035\307\0370:\211\007O"
 134      4D481461 
 134      187E9F77 
 134      BE1DC71F 
 134      303A8907 
 135 0015 A2682884 		.ascii	"\242h(\204\004\235\204P\010\203@\360*,a{U\220\302\323"
 135      049D8450 
 135      088340F0 
 135      2A2C617B 
 135      5590C2D3 
 136 0029 E2373A82 		.ascii	"\3427:\202t(\351\024\350z\013-\177w\203\244\333\342"
 136      7428E914 
 136      E87A0B2D 
 136      7F7783A4 
 136      DBE2
 137 003b 61834594 		.ascii	"a\203E\224E\"\221\245 \025\354\226.\251C\230\275\357"
ARM GAS  C:\Users\Luggi\AppData\Local\Temp\ccpgurXZ.s 			page 10


 137      452291A5 
 137      2015EC96 
 137      2EA94398 
 137      BDEF
 138 004d 2C24F633 		.ascii	",$\36630\363\315\274\337\363;\237C\177_\035r\177\007"
 138      30F3CDBC 
 138      DFF33B9F 
 138      437F5F1D 
 138      727F07
 139 0060 5193AC88 		.ascii	"Q\223\254\210\021xj\223\310\367\230\235\\-\331*\223"
 139      11786A93 
 139      C8F7989D 
 139      5C2DD92A 
 139      93
 140 0071 EF245BE3 		.ascii	"\357$[\343\300\224\307\006\320\027\002\215\262c0\212"
 140      C094C706 
 140      D017028D 
 140      B263308A 
 141 0081 AF7CC498 		.ascii	"\257|\304\230\312.\274\250n~i\255\375\266^\250\233\250"
 141      CA2EBCA8 
 141      6E7E69AD 
 141      FDB65EA8 
 141      9BA8
 142 0093 0B99A8C4 		.ascii	"\013\231\250\304e}\314\241\231\004s\024\234\177\254"
 142      657DCCA1 
 142      99047314 
 142      9C7FAC
 143 00a2 7603C15C 		.ascii	"v\003\301\\+\357a\036\256\370\322\312\365\254\275\270"
 143      2BEF611E 
 143      AEF8D2CA 
 143      F5ACBDB8 
 144 00b2 28E59E4F 		.ascii	"(\345\236O\266\262g(d\270\372 \332\027\224\232\0350"
 144      B6B26728 
 144      64B8FA20 
 144      DA17949A 
 144      1D30
 145 00c4 EBEA1431 		.ascii	"\353\352\0241\236M\345Yy*8\273\375t\231\223?\354\244"
 145      9E4DE559 
 145      792A38BB 
 145      FD749993 
 145      3FECA4
 146 00d7 F542E692 		.ascii	"\365B\346\2222\360\012I\341:\264\213\261\267\351\215"
 146      32F00A49 
 146      E13AB48B 
 146      B1B7E98D 
 147 00e7 2F31C59E 		.ascii	"/1\305\236\262\371\023m\3165\200L?\357o\025\274C\226"
 147      B2F9136D 
 147      CE35804C 
 147      3FEF6F15 
 147      BC4396
 148 00fa 49F439EF 		.ascii	"I\3649\357\0073Ha\332\267\212\212\3415\222X@}\264\367"
 148      07334861 
 148      DAB78A8A 
 148      E1359258 
 148      407DB4F7 
 149 010e 73F159C6 		.ascii	"s\361Y\306m\273\021\262\213E\301\034G\365\260\2046\372"
 149      6DBB11B2 
ARM GAS  C:\Users\Luggi\AppData\Local\Temp\ccpgurXZ.s 			page 11


 149      8B45C11C 
 149      47F5B084 
 149      36FA
 150 0120 806067BC 		.ascii	"\200`g\274\341\322\352}\3520cT\024 ,+\235\264\204C\271"
 150      E1D2EA7D 
 150      EA306354 
 150      14202C2B 
 150      9DB48443 
 151 0135 DAA8C35A 		.ascii	"\332\250\303Z\276\346\177\035D\024+\277;\254\237<9n"
 151      BEE67F1D 
 151      44142BBF 
 151      3BAC9F3C 
 151      396E
 152 0147 29EBBA02 		.ascii	")\353\272\002.\236\236\275c\325\255\360\327|k\256\344"
 152      2E9E9EBD 
 152      63D5ADF0 
 152      D77C6BAE 
 152      E4
 153 0158 AF88326E 		.ascii	"\257\2102n\247\367F4~\200\220=\254\242\036i\265GF\002"
 153      A7F74634 
 153      7E80903D 
 153      ACA21E69 
 153      B5474602 
 154 016c 5311E69F 		.ascii	"S\021\346\237\266\225%1#\274\021[\361\011\271*Jk\242"
 154      B6952531 
 154      23BC115B 
 154      F109B92A 
 154      4A6BA2
 155 017f 5FFE097E 		.ascii	"_\376\011~\266p/\242\221\036\010t*!\033\357&\006\023"
 155      B6702FA2 
 155      911E0874 
 155      2A211BEF 
 155      260613
 156 0192 C30F1E25 		.ascii	"\303\017\036%\036\306\373\206\036\017\017$\372{\373"
 156      1EC6FB86 
 156      1E0F0F24 
 156      FA7BFB
 157 01a1 86BA6EF5 		.ascii	"\206\272n\365\367t\337\351\272\035\277\031\357\275\337"
 157      F774DFE9 
 157      BA1DBF19 
 157      EFBDDF
 158 01b0 3E40BF00 		.ascii	">@\277\000\035\366\277U"
 158      1DF6BF55 
 159              		.text
 160              		.section	.gnu.lto_.symbol_nodes.53c7aef2,"",%progbits
 161 0000 789C55C8 		.ascii	"x\234U\310\261\021\202@\030D\341w\377\336\035\024A\257"
 161      B1118240 
 161      1844E177 
 161      FFDE1D14 
 161      41AF
 162 0012 4B600146 		.ascii	"K`\001FF\006\014}\220\021S\003P\210\243\214\006\347"
 162      46060C7D 
 162      90115303 
 162      5088A38C 
 162      06E7
 163 0024 266FBE15 		.ascii	"&o\276\025\360\344\267H\206\373\0066\217\251\247\300"
 163      F0E4B748 
ARM GAS  C:\Users\Luggi\AppData\Local\Temp\ccpgurXZ.s 			page 12


 163      86FB0636 
 163      8FA9A7C0 
 164 0034 14568453 		.ascii	"\024V\204S{\207\034\177\316V\353T\234\277f\034?\354"
 164      7B871C7F 
 164      CE56EB54 
 164      9CBF661C 
 164      3FEC
 165 0046 5C5A56D7 		.ascii	"\\ZV\327\206Ra=^I\202\363j\016\346\375j\307m\031\224"
 165      8652613D 
 165      5E4982F3 
 165      6A0EE6FD 
 165      6AC76D19 
 166 005b 2BEB32F0 		.ascii	"+\3532\360\006\3675'\253"
 166      06F73527 
 166      AB
 167              		.text
 168              		.section	.gnu.lto_.refs.53c7aef2,"",%progbits
 169 0000 789C25C7 		.ascii	"x\234%\307\261\015\000 \014\004\261\273Ohh2\000\373"
 169      B10D0020 
 169      0C04B1BB 
 169      4F686832 
 169      00FB
 170 0012 EF0912EE 		.ascii	"\357\011\022\356\\\300\341\023]\011n\234\224\366\273"
 170      5CC0E113 
 170      5D096E9C 
 170      94F6BB
 171 0021 8DE10207 		.ascii	"\215\341\002\007\361\000`"
 171      F10060
 172              		.text
 173              		.section	.gnu.lto_.decls.53c7aef2,"",%progbits
 174 0000 789C9553 		.ascii	"x\234\225SoL\023g\034\276_\337Z\3408\034\031\033.|\031"
 174      6F4C1367 
 174      1CBE5FDF 
 174      5AE0381C 
 174      191B2E7C 
 175 0015 E2423643 		.ascii	"\342B6CL\266d\011\337\206a\213.\313\0262\262\371A\022"
 175      4CB66409 
 175      DF86618B 
 175      2ECB1632 
 175      B2F94112 
 176 0029 52F1E60C 		.ascii	"R\361\346\014\004\010^M\374\366\002#2\306\014\022\214"
 176      04085E4D 
 176      FCF60223 
 176      32C60C12 
 176      8C
 177 003a C898A903 		.ascii	"\310\230\251\003\334\254X*\240\002\005\0122\024,\210"
 177      DCAC582A 
 177      A002050A 
 177      32142C88 
 178 004a 40053B48 		.ascii	"@\005;H,$3$\304\244\333\300ht\273\375\336\367\356\350"
 178      2C243324 
 178      C4A4DBC0 
 178      6874BBFD 
 178      DEF7EEE8 
 179 005e B158B75D 		.ascii	"\261X\267]\362\353{o\356y\236\337\277\247D\020\204:"
 179      F2EB7B6F 
 179      EE799EDF 
ARM GAS  C:\Users\Luggi\AppData\Local\Temp\ccpgurXZ.s 			page 13


 179      BFA74410 
 179      843A
 180 0070 1004159F 		.ascii	"\020\004\025\237\371-\202\260\023\337\361\020r\204\310"
 180      F92D82B0 
 180      13DFF110 
 180      7284C8
 181 007f 1383D18E 		.ascii	"\023\203\321\216\341\306\360`tbtc\014`\3700\220\"L\010"
 181      E1C6F060 
 181      74627463 
 181      0C60F830 
 181      90224C08 
 182 0093 9B9F769D 		.ascii	"\233\237v\235\307t\2221\2461\2460f0\3061zt\336M\375"
 182      C7749231 
 182      A631A630 
 182      6630C631 
 182      7A74DE4D 
 183 00a8 6C8FA2E3 		.ascii	"l\217\242\343\376\237:\356(:\254\356\270\177\321\231"
 183      FE9F3AEE 
 183      283AACEE 
 183      B87FD199 
 184 00b8 C5B8A0F3 		.ascii	"\305\270\240\363o`\020\235\327\375\202\372\330,\342"
 184      6F60109D 
 184      D7FD82FA 
 184      D82CE2
 185 00c7 4DBA8686 		.ascii	"M\272\206\206Y\327\310\025\300\360\232\364\255:\337"
 185      59D7C815 
 185      C0F09AF4 
 185      AD3ADF
 186 00d6 ADCF7120 		.ascii	"\255\317q J\216\337,\320\353^\233\214_\261\300V1\225"
 186      4A8EDF2C 
 186      D0EB5E9B 
 186      8C5FB1C0 
 186      563195
 187 00e9 5DFBEAC7 		.ascii	"]\373\352\307\032mx\225D+\273z\237.\007\254\333NQ|\352"
 187      1A6D7895 
 187      442BBB7A 
 187      9F2E07AC 
 187      DB4E517C 
 188 00fe 2A69A215 		.ascii	"*i\242\025r\222\341GH\201\237 \005\025/\3006\374\335"
 188      7292E147 
 188      48819F20 
 188      05152FC0 
 188      36FCDD
 189 0111 6FD5941E 		.ascii	"o\325\224\036Tu\257\306\020\013\260\367\226\306\245"
 189      5475AFC6 
 189      100BB0F7 
 189      96C6A5
 190 0120 8098E142 		.ascii	"\200\230\341BZ5\035Z\261D\322\335\255\255\257\226R\317"
 190      5A351D5A 
 190      B144D2DD 
 190      ADADAF96 
 190      52CF
 191 0132 D29027DC 		.ascii	"\322\220'\334\337\034\224\350\030\035R\325\367\270\024"
 191      DF1C94E8 
 191      181D52D5 
 191      F7B814
 192 0141 B880C045 		.ascii	"\270\200\300E\310`H\366\316)\320\016\251H\233Z\177X"
ARM GAS  C:\Users\Luggi\AppData\Local\Temp\ccpgurXZ.s 			page 14


 192      C86048F6 
 192      CE29D00E 
 192      A9489B5A 
 192      7F58
 193 0153 487673E9 		.ascii	"Hvs\351\201\351\206'1\\\301\371g'\315\372\212>SU\302"
 193      81E98627 
 193      315CC1F9 
 193      6727CDFA 
 193      8A3E5355 
 194 0168 F9974CFC 		.ascii	"\371\227L\374K\006\337\315\371M\325\017\207\343\311"
 194      4B06DFCD 
 194      F94DD50F 
 194      87E3C9
 195 0177 3E2E3055 		.ascii	">.0U\325=\304\004\234\036\347X\213M+\200\363;L\374\016"
 195      D53DC404 
 195      9C1EE758 
 195      8B4D2B80 
 195      F33B4CFC 
 196 018c 83EFE1FC 		.ascii	"\203\357\341\374\307\337\257\316JD\346|\365\326\251"
 196      C7DFAFCE 
 196      4A44E67C 
 196      F5D6A9
 197 019b 668BC6AF 		.ascii	"f\213\306\257m3\363/\233\370\227\015~'\347w\335o\360"
 197      6D33F32F 
 197      9BF8970D 
 197      7E27E777 
 197      DD6FF0
 198 01ae 11A270FE 		.ascii	"\021\242p\376\372\322\323\005\033k\200\206\277n\273"
 198      FAD2D305 
 198      1B6B8086 
 198      BF6EBB
 199 01bd 2F9DA1E7 		.ascii	"/\235\241\347*\350_\252\012\332\020\272L\"]\206H7\027"
 199      2AE85FAA 
 199      0ADA10BA 
 199      4C225D86 
 199      483717
 200 01d0 99F31D3F 		.ascii	"\231\363\035?\036KZ\200\253\224\237\367\326\306\340"
 200      1E4B5A80 
 200      AB949FF7 
 200      D6C6E0
 201 01df A292453E 		.ascii	"\242\222E>\327\023\376\246a\302\257*\373l\011\006\033"
 201      D713FEA6 
 201      61C2AF2A 
 201      FB6C0906 
 201      1B
 202 01f0 9E1010D3 		.ascii	"\236\020\020\323\253)\255\240\341zJ^\023 #\005\336J"
 202      AB29ADA0 
 202      E17A4A5E 
 202      13202305 
 202      DE4A
 203 0202 11A017D2 		.ascii	"\021\240\027\322\021\306\223\300U\334\3455\334e+n*\034"
 203      11C693C0 
 203      55DCE535 
 203      DC652B6E 
 203      2A1C
 204 0214 1C757D54 		.ascii	"\034u}TI\263\240\007D\270\262Q\006\317\240o\257\256"
 204      49B3A007 
ARM GAS  C:\Users\Luggi\AppData\Local\Temp\ccpgurXZ.s 			page 15


 204      44B8B251 
 204      06CFA06F 
 204      AFAE
 205 0226 6AB8CE6A 		.ascii	"j\270\316j\305ur\314~n\221uu\251\315\022\325\"^n\221"
 205      C57572CC 
 205      7E6E9175 
 205      75A9CD12 
 205      D5225E6E 
 206 023b 3ED03D72 		.ascii	">\320=r\321\265\322 \022\277\326B\343\330\017U\026c"
 206      D1B5D220 
 206      12BFD642 
 206      E3D80F55 
 206      1663
 207 024d 10CB7B4F 		.ascii	"\020\313{OV\326\265\322\220\252\276\316Y\320o\032D\277"
 207      56D6B5D2 
 207      90AABECE 
 207      59D06F1A 
 207      44BF
 208 025f 3188013E 		.ascii	"1\210\001>\210o{\346\233\023\310\242\246\262\350\235"
 208      886F7BE6 
 208      9B13C8A2 
 208      A6B2E89D 
 209 026f AED15442 		.ascii	"\256\321TB'F\344\353\232\037\264Y\016\232$\006\015\011"
 209      2746E4EB 
 209      9A1FB459 
 209      0E9A2406 
 209      0D09
 210 0281 1F97F02F 		.ascii	"\037\227\360/?\376C\342\266Od\"M\363\277\256\021n{\013"
 210      3FFE43E2 
 210      B64F6422 
 210      4DF3BFAE 
 210      116E7B0B 
 211 0295 1FEE83B9 		.ascii	"\037\356\203\271\2328\262\252%\360\271g\033c\011\325"
 211      9A38B2AA 
 211      25F0B967 
 211      1B6309D5 
 212 02a5 8CED6A1A 		.ascii	"\214\355j\032]x\211\324\362\213\365\273\346\276\021"
 212      5D7889D4 
 212      F28BF5BB 
 212      E6BE11
 213 02b4 1192D2D2 		.ascii	"\021\222\322\322\322O\362\366\2358<\001\206\260\371"
 213      D24FF2F6 
 213      9D383C01 
 213      86B0F9
 214 02c3 61DEFC28 		.ascii	"a\336\374($\261\3740\206\023\277\001ip\023\322x\015"
 214      24B1FC30 
 214      8613BF01 
 214      697013D2 
 214      780D
 215 02d5 4E5C4A68 		.ascii	"N\\Jh\352j\336P9\341\203\034\301:\031V_\320\233\214"
 215      EA6ADE50 
 215      39E1831C 
 215      C13A1956 
 215      5FD09B8C 
 216 02e9 BB334507 		.ascii	"\2733E\007:\357\271i\226\016\374\3719\300\014\006d\373"
 216      3AEFB969 
 216      960EFCF9 
ARM GAS  C:\Users\Luggi\AppData\Local\Temp\ccpgurXZ.s 			page 16


 216      39C00C06 
 216      64FB
 217 02fb 0B4DBE13 		.ascii	"\013M\276\023\313\276\012F\317\306\332,}\015w;\011$"
 217      CBBE0A46 
 217      CFC6DA2C 
 217      7D0D773B 
 217      0924
 218 030d 3DB74AB8 		.ascii	"=\267J\270\205\305E+\224\313\006\255\000\343\010\270"
 218      85C5452B 
 218      94CB06AD 
 218      00E308B8 
 219 031d 1EB104CB 		.ascii	"\036\261\004\313bxbp\306\373L$\247\265\361\254\374~"
 219      62786270 
 219      C6FB4C24 
 219      A7B5F1AC 
 219      FC7E
 220 032f C66BDB71 		.ascii	"\306k\333q\216Rg\270\177q\015\312\251\263\202R\366\377"
 220      8E5267B8 
 220      7F710DCA 
 220      A9B38252 
 220      F6FF
 221 0341 E00A7E4D 		.ascii	"\340\012~M\3014!\277\266\025\230\200\035\310\246\247"
 221      C13421BF 
 221      B6159880 
 221      1DC8A6A7 
 222 0351 BF698D25 		.ascii	"\277i\215%\3475\251+\217jz\023D\364o\345\177\360/6\031"
 222      E735A92B 
 222      8F6A7A13 
 222      44F46FE5 
 222      7FF02F36 
 223 0366 B85D3317 		.ascii	"\270]3\027\2479\376\237\214;Q\035_\345\223\306)\215"
 223      A739FE9F 
 223      8C3B511D 
 223      5FE593C6 
 223      298D
 224 0378 85291CEE 		.ascii	"\205)\034\356d\244\277\333\020\361|\300_\261@\244\032"
 224      64A4BFDB 
 224      10F17CC0 
 224      5FB140A4 
 224      1A
 225 0389 F63F427F 		.ascii	"\366?B\177\307\355\345\330\210\301\247A\342\035\340"
 225      C7EDE5D8 
 225      88C1A741 
 225      E21DE0
 226 0398 89E08919 		.ascii	"\211\340\211\031\317=\233\031\314\332\216\200gt\360"
 226      CF3D9B19 
 226      CCDA8E80 
 226      6774F0
 227 03a7 0C07773C 		.ascii	"\014\007w<\272\343\2127\203\231g#\340Y\220\214zf9\376"
 227      BAE38A37 
 227      83996723 
 227      E059908C 
 227      7A6639FE 
 228 03bb ACE797ED 		.ascii	"\254\347\227\355f\270w\023<\240k\263\363\345\017\337"
 228      66B87713 
 228      3CA06BB3 
 228      F3E50FDF 
ARM GAS  C:\Users\Luggi\AppData\Local\Temp\ccpgurXZ.s 			page 17


 229 03cb DF9D9D99 		.ascii	"\337\235\235\231\377v~\256\375\250\234]R\374\305\341"
 229      FF767EAE 
 229      FDA89C5D 
 229      52FCC5E1 
 230 03db 43B63D9F 		.ascii	"C\266=\237|\226\232-\274\261G.\226\313\354\212|0?\267"
 230      7C969A2D 
 230      BCB1472E 
 230      96CBEC8A 
 230      7C303FB7 
 231 03ef C4515620 		.ascii	"\304QV \347\345\344\226d\277\233g\020r>\336U \274j\334"
 231      E7E5E496 
 231      64BF9B67 
 231      10723EDE 
 231      5520BC6A 
 232 0404 3E958F28 		.ascii	">\225\217(%e\272B\302\206h\221,\227n5n\373\354\205\262"
 232      2565BA42 
 232      C2866891 
 232      2C976E35 
 232      6EFBEC85 
 233 0419 A354DAF8 		.ascii	"\243T\332\370\250\224\224n\177q\222]_\012[\034\207\213"
 233      A894946E 
 233      7F71925D 
 233      5F0A5B1C 
 233      878B
 234 042b 95CC68B8 		.ascii	"\225\314h\270\202c\312\261R\371\010\342\0227de\345s"
 234      8263CAB1 
 234      52F908E2 
 234      12376465 
 234      E573
 235 043d 7B9143DE 		.ascii	"{\221C\336H\373A\261\375@\221\374\212q=`/(t\224\346"
 235      48FB41B1 
 235      FD4091FC 
 235      8A713D60 
 235      2F287494 
 236 0452 2A658E02 		.ascii	"*e\216\002%^\346\337r\025T\026\017\332\025{\376\321"
 236      255EE6DF 
 236      72155416 
 236      0FDA157B 
 236      FED1
 237 0464 4D540D6B 		.ascii	"MT\015k-\223\017e\376\015\377\273Oz"
 237      2D930F65 
 237      FE0DFFBB 
 237      4F7A
 238              		.text
 239              		.section	.gnu.lto_.symtab.53c7aef2,"",%progbits
 240 0000 49444143 		.ascii	"IDAC8_1_SaveConfig\000\000\000\000\000\000\000\000\000"
 240      385F315F 
 240      53617665 
 240      436F6E66 
 240      69670000 
 241 001b 000000AC 		.ascii	"\000\000\000\254\000\000\000IDAC8_1_RestoreConfig\000"
 241      00000049 
 241      44414338 
 241      5F315F52 
 241      6573746F 
 242 0038 00000000 		.ascii	"\000\000\000\000\000\000\000\000\000\000\000\256\000"
 242      00000000 
ARM GAS  C:\Users\Luggi\AppData\Local\Temp\ccpgurXZ.s 			page 18


 242      000000AE 
 242      00
 243 0045 00004944 		.ascii	"\000\000IDAC8_1_Sleep\000\000\000\000\000\000\000\000"
 243      4143385F 
 243      315F536C 
 243      65657000 
 243      00000000 
 244 005c 00000000 		.ascii	"\000\000\000\000\260\000\000\000IDAC8_1_Wakeup\000\000"
 244      B0000000 
 244      49444143 
 244      385F315F 
 244      57616B65 
 245 0074 00000000 		.ascii	"\000\000\000\000\000\000\000\000\000\000\262\000\000"
 245      00000000 
 245      0000B200 
 245      00
 246 0081 00494441 		.ascii	"\000IDAC8_1_Stop\000\000\002\000\000\000\000\000\000"
 246      43385F31 
 246      5F53746F 
 246      70000002 
 246      00000000 
 247 0097 000000B4 		.ascii	"\000\000\000\264\000\000\000IDAC8_1_SetValue\000\000"
 247      00000049 
 247      44414338 
 247      5F315F53 
 247      65745661 
 248 00b0 02000000 		.ascii	"\002\000\000\000\000\000\000\000\000\000\275\000\000"
 248      00000000 
 248      0000BD00 
 248      00
 249 00bd 00494441 		.ascii	"\000IDAC8_1_Enable\000\000\002\000\000\000\000\000\000"
 249      43385F31 
 249      5F456E61 
 249      626C6500 
 249      00020000 
 250 00d5 000000BF 		.ascii	"\000\000\000\277\000\000\000"
 250      000000
 251              		.text
 252              		.section	.gnu.lto_.opts,"",%progbits
 253 0000 272D666E 		.ascii	"'-fno-trapv' '-fno-strict-overflow' '-mcpu=cortex-m"
 253      6F2D7472 
 253      61707627 
 253      20272D66 
 253      6E6F2D73 
 254 0033 33272027 		.ascii	"3' '-mthumb' '-g' '-Og' '-ffunction-sections' '-flt"
 254      2D6D7468 
 254      756D6227 
 254      20272D67 
 254      2720272D 
 255 0066 6F272027 		.ascii	"o' '-ffat-lto-objects'\000"
 255      2D666661 
 255      742D6C74 
 255      6F2D6F62 
 255      6A656374 
 256              		.text
 257              		.cfi_sections	.debug_frame
 258              		.section	.text.IDAC8_1_SaveConfig,"ax",%progbits
ARM GAS  C:\Users\Luggi\AppData\Local\Temp\ccpgurXZ.s 			page 19


 259              		.align	2
 260              		.global	IDAC8_1_SaveConfig
 261              		.thumb
 262              		.thumb_func
 263              		.type	IDAC8_1_SaveConfig, %function
 264              	IDAC8_1_SaveConfig:
 265              	.LFB0:
 266              		.file 1 "Generated_Source\\PSoC5\\IDAC8_1_PM.c"
   1:Generated_Source\PSoC5/IDAC8_1_PM.c **** /*******************************************************************************
   2:Generated_Source\PSoC5/IDAC8_1_PM.c **** * File Name: IDAC8_1.c
   3:Generated_Source\PSoC5/IDAC8_1_PM.c **** * Version 2.0
   4:Generated_Source\PSoC5/IDAC8_1_PM.c **** *
   5:Generated_Source\PSoC5/IDAC8_1_PM.c **** * Description:
   6:Generated_Source\PSoC5/IDAC8_1_PM.c **** *  This file provides the power management source code to API for the
   7:Generated_Source\PSoC5/IDAC8_1_PM.c **** *  IDAC8.
   8:Generated_Source\PSoC5/IDAC8_1_PM.c **** *
   9:Generated_Source\PSoC5/IDAC8_1_PM.c **** * Note:
  10:Generated_Source\PSoC5/IDAC8_1_PM.c **** *  None
  11:Generated_Source\PSoC5/IDAC8_1_PM.c **** *
  12:Generated_Source\PSoC5/IDAC8_1_PM.c **** ********************************************************************************
  13:Generated_Source\PSoC5/IDAC8_1_PM.c **** * Copyright 2008-2012, Cypress Semiconductor Corporation.  All rights reserved.
  14:Generated_Source\PSoC5/IDAC8_1_PM.c **** * You may use this file only in accordance with the license, terms, conditions, 
  15:Generated_Source\PSoC5/IDAC8_1_PM.c **** * disclaimers, and limitations in the end user license agreement accompanying 
  16:Generated_Source\PSoC5/IDAC8_1_PM.c **** * the software package with which this file was provided.
  17:Generated_Source\PSoC5/IDAC8_1_PM.c **** *******************************************************************************/
  18:Generated_Source\PSoC5/IDAC8_1_PM.c **** 
  19:Generated_Source\PSoC5/IDAC8_1_PM.c **** 
  20:Generated_Source\PSoC5/IDAC8_1_PM.c **** #include "IDAC8_1.h"
  21:Generated_Source\PSoC5/IDAC8_1_PM.c **** 
  22:Generated_Source\PSoC5/IDAC8_1_PM.c **** static IDAC8_1_backupStruct IDAC8_1_backup;
  23:Generated_Source\PSoC5/IDAC8_1_PM.c **** 
  24:Generated_Source\PSoC5/IDAC8_1_PM.c **** 
  25:Generated_Source\PSoC5/IDAC8_1_PM.c **** /*******************************************************************************
  26:Generated_Source\PSoC5/IDAC8_1_PM.c **** * Function Name: IDAC8_1_SaveConfig
  27:Generated_Source\PSoC5/IDAC8_1_PM.c **** ********************************************************************************
  28:Generated_Source\PSoC5/IDAC8_1_PM.c **** * Summary:
  29:Generated_Source\PSoC5/IDAC8_1_PM.c **** *  Save the current user configuration
  30:Generated_Source\PSoC5/IDAC8_1_PM.c **** *
  31:Generated_Source\PSoC5/IDAC8_1_PM.c **** * Parameters:
  32:Generated_Source\PSoC5/IDAC8_1_PM.c **** *  void
  33:Generated_Source\PSoC5/IDAC8_1_PM.c **** *
  34:Generated_Source\PSoC5/IDAC8_1_PM.c **** * Return:
  35:Generated_Source\PSoC5/IDAC8_1_PM.c **** *  void
  36:Generated_Source\PSoC5/IDAC8_1_PM.c **** *
  37:Generated_Source\PSoC5/IDAC8_1_PM.c **** *******************************************************************************/
  38:Generated_Source\PSoC5/IDAC8_1_PM.c **** void IDAC8_1_SaveConfig(void) 
  39:Generated_Source\PSoC5/IDAC8_1_PM.c **** {
 267              		.loc 1 39 0
 268              		.cfi_startproc
 269              		@ args = 0, pretend = 0, frame = 0
 270              		@ frame_needed = 0, uses_anonymous_args = 0
 271              		@ link register save eliminated.
  40:Generated_Source\PSoC5/IDAC8_1_PM.c ****     if (!((IDAC8_1_CR1 & IDAC8_1_SRC_MASK) == IDAC8_1_SRC_UDB))
 272              		.loc 1 40 0
 273 0000 044B     		ldr	r3, .L3
 274 0002 1B78     		ldrb	r3, [r3]	@ zero_extendqisi2
 275 0004 13F0200F 		tst	r3, #32
ARM GAS  C:\Users\Luggi\AppData\Local\Temp\ccpgurXZ.s 			page 20


 276 0008 03D1     		bne	.L1
  41:Generated_Source\PSoC5/IDAC8_1_PM.c ****     {
  42:Generated_Source\PSoC5/IDAC8_1_PM.c ****         IDAC8_1_backup.data_value = IDAC8_1_Data;
 277              		.loc 1 42 0
 278 000a 034B     		ldr	r3, .L3+4
 279 000c 1A78     		ldrb	r2, [r3]	@ zero_extendqisi2
 280 000e 034B     		ldr	r3, .L3+8
 281 0010 5A70     		strb	r2, [r3, #1]
 282              	.L1:
 283 0012 7047     		bx	lr
 284              	.L4:
 285              		.align	2
 286              	.L3:
 287 0014 25580040 		.word	1073764389
 288 0018 815B0040 		.word	1073765249
 289 001c 00000000 		.word	.LANCHOR0
 290              		.cfi_endproc
 291              	.LFE0:
 292              		.size	IDAC8_1_SaveConfig, .-IDAC8_1_SaveConfig
 293              		.section	.text.IDAC8_1_RestoreConfig,"ax",%progbits
 294              		.align	2
 295              		.global	IDAC8_1_RestoreConfig
 296              		.thumb
 297              		.thumb_func
 298              		.type	IDAC8_1_RestoreConfig, %function
 299              	IDAC8_1_RestoreConfig:
 300              	.LFB1:
  43:Generated_Source\PSoC5/IDAC8_1_PM.c ****     }
  44:Generated_Source\PSoC5/IDAC8_1_PM.c **** }
  45:Generated_Source\PSoC5/IDAC8_1_PM.c **** 
  46:Generated_Source\PSoC5/IDAC8_1_PM.c **** 
  47:Generated_Source\PSoC5/IDAC8_1_PM.c **** /*******************************************************************************
  48:Generated_Source\PSoC5/IDAC8_1_PM.c **** * Function Name: IDAC8_1_RestoreConfig
  49:Generated_Source\PSoC5/IDAC8_1_PM.c **** ********************************************************************************
  50:Generated_Source\PSoC5/IDAC8_1_PM.c **** *
  51:Generated_Source\PSoC5/IDAC8_1_PM.c **** * Summary:
  52:Generated_Source\PSoC5/IDAC8_1_PM.c **** *  Restores the current user configuration.
  53:Generated_Source\PSoC5/IDAC8_1_PM.c **** *
  54:Generated_Source\PSoC5/IDAC8_1_PM.c **** * Parameters:
  55:Generated_Source\PSoC5/IDAC8_1_PM.c **** *  void
  56:Generated_Source\PSoC5/IDAC8_1_PM.c **** *
  57:Generated_Source\PSoC5/IDAC8_1_PM.c **** * Return:
  58:Generated_Source\PSoC5/IDAC8_1_PM.c **** *  void
  59:Generated_Source\PSoC5/IDAC8_1_PM.c **** *
  60:Generated_Source\PSoC5/IDAC8_1_PM.c **** *******************************************************************************/
  61:Generated_Source\PSoC5/IDAC8_1_PM.c **** void IDAC8_1_RestoreConfig(void) 
  62:Generated_Source\PSoC5/IDAC8_1_PM.c **** {
 301              		.loc 1 62 0
 302              		.cfi_startproc
 303              		@ args = 0, pretend = 0, frame = 0
 304              		@ frame_needed = 0, uses_anonymous_args = 0
 305              		@ link register save eliminated.
  63:Generated_Source\PSoC5/IDAC8_1_PM.c ****     if (!((IDAC8_1_CR1 & IDAC8_1_SRC_MASK) == IDAC8_1_SRC_UDB))
 306              		.loc 1 63 0
 307 0000 0E4B     		ldr	r3, .L8
 308 0002 1B78     		ldrb	r3, [r3]	@ zero_extendqisi2
 309 0004 13F0200F 		tst	r3, #32
ARM GAS  C:\Users\Luggi\AppData\Local\Temp\ccpgurXZ.s 			page 21


 310 0008 16D1     		bne	.L5
  64:Generated_Source\PSoC5/IDAC8_1_PM.c ****     {
  65:Generated_Source\PSoC5/IDAC8_1_PM.c ****         if((IDAC8_1_Strobe & IDAC8_1_STRB_MASK) == IDAC8_1_STRB_EN)
 311              		.loc 1 65 0
 312 000a 0D4B     		ldr	r3, .L8+4
 313 000c 1B78     		ldrb	r3, [r3]	@ zero_extendqisi2
 314 000e 13F0080F 		tst	r3, #8
 315 0012 0DD0     		beq	.L7
  66:Generated_Source\PSoC5/IDAC8_1_PM.c ****         {
  67:Generated_Source\PSoC5/IDAC8_1_PM.c ****             IDAC8_1_Strobe &= (uint8)(~IDAC8_1_STRB_MASK);
 316              		.loc 1 67 0
 317 0014 0A4B     		ldr	r3, .L8+4
 318 0016 1A78     		ldrb	r2, [r3]	@ zero_extendqisi2
 319 0018 02F0F702 		and	r2, r2, #247
 320 001c 1A70     		strb	r2, [r3]
  68:Generated_Source\PSoC5/IDAC8_1_PM.c ****             IDAC8_1_Data = IDAC8_1_backup.data_value;
 321              		.loc 1 68 0
 322 001e 094A     		ldr	r2, .L8+8
 323 0020 5178     		ldrb	r1, [r2, #1]	@ zero_extendqisi2
 324 0022 094A     		ldr	r2, .L8+12
 325 0024 1170     		strb	r1, [r2]
  69:Generated_Source\PSoC5/IDAC8_1_PM.c ****             IDAC8_1_Strobe |= IDAC8_1_STRB_EN;
 326              		.loc 1 69 0
 327 0026 1A78     		ldrb	r2, [r3]	@ zero_extendqisi2
 328 0028 42F00802 		orr	r2, r2, #8
 329 002c 1A70     		strb	r2, [r3]
 330 002e 7047     		bx	lr
 331              	.L7:
  70:Generated_Source\PSoC5/IDAC8_1_PM.c ****         }
  71:Generated_Source\PSoC5/IDAC8_1_PM.c ****         else
  72:Generated_Source\PSoC5/IDAC8_1_PM.c ****         {
  73:Generated_Source\PSoC5/IDAC8_1_PM.c ****             IDAC8_1_Data = IDAC8_1_backup.data_value;
 332              		.loc 1 73 0
 333 0030 044B     		ldr	r3, .L8+8
 334 0032 5A78     		ldrb	r2, [r3, #1]	@ zero_extendqisi2
 335 0034 044B     		ldr	r3, .L8+12
 336 0036 1A70     		strb	r2, [r3]
 337              	.L5:
 338 0038 7047     		bx	lr
 339              	.L9:
 340 003a 00BF     		.align	2
 341              	.L8:
 342 003c 25580040 		.word	1073764389
 343 0040 8F5A0040 		.word	1073765007
 344 0044 00000000 		.word	.LANCHOR0
 345 0048 815B0040 		.word	1073765249
 346              		.cfi_endproc
 347              	.LFE1:
 348              		.size	IDAC8_1_RestoreConfig, .-IDAC8_1_RestoreConfig
 349              		.section	.text.IDAC8_1_Sleep,"ax",%progbits
 350              		.align	2
 351              		.global	IDAC8_1_Sleep
 352              		.thumb
 353              		.thumb_func
 354              		.type	IDAC8_1_Sleep, %function
 355              	IDAC8_1_Sleep:
 356              	.LFB2:
ARM GAS  C:\Users\Luggi\AppData\Local\Temp\ccpgurXZ.s 			page 22


  74:Generated_Source\PSoC5/IDAC8_1_PM.c ****         }
  75:Generated_Source\PSoC5/IDAC8_1_PM.c ****     }
  76:Generated_Source\PSoC5/IDAC8_1_PM.c **** }
  77:Generated_Source\PSoC5/IDAC8_1_PM.c **** 
  78:Generated_Source\PSoC5/IDAC8_1_PM.c **** 
  79:Generated_Source\PSoC5/IDAC8_1_PM.c **** /*******************************************************************************
  80:Generated_Source\PSoC5/IDAC8_1_PM.c **** * Function Name: IDAC8_1_Sleep
  81:Generated_Source\PSoC5/IDAC8_1_PM.c **** ********************************************************************************
  82:Generated_Source\PSoC5/IDAC8_1_PM.c **** * Summary:
  83:Generated_Source\PSoC5/IDAC8_1_PM.c **** *  Stop and Save the user configuration
  84:Generated_Source\PSoC5/IDAC8_1_PM.c **** *
  85:Generated_Source\PSoC5/IDAC8_1_PM.c **** * Parameters:
  86:Generated_Source\PSoC5/IDAC8_1_PM.c **** *  void:
  87:Generated_Source\PSoC5/IDAC8_1_PM.c **** *
  88:Generated_Source\PSoC5/IDAC8_1_PM.c **** * Return:
  89:Generated_Source\PSoC5/IDAC8_1_PM.c **** *  void
  90:Generated_Source\PSoC5/IDAC8_1_PM.c **** *
  91:Generated_Source\PSoC5/IDAC8_1_PM.c **** * Global variables:
  92:Generated_Source\PSoC5/IDAC8_1_PM.c **** *  IDAC8_1_backup.enableState: Is modified depending on the enable 
  93:Generated_Source\PSoC5/IDAC8_1_PM.c **** *  state of the block before entering sleep mode.
  94:Generated_Source\PSoC5/IDAC8_1_PM.c **** *
  95:Generated_Source\PSoC5/IDAC8_1_PM.c **** *******************************************************************************/
  96:Generated_Source\PSoC5/IDAC8_1_PM.c **** void IDAC8_1_Sleep(void) 
  97:Generated_Source\PSoC5/IDAC8_1_PM.c **** {
 357              		.loc 1 97 0
 358              		.cfi_startproc
 359              		@ args = 0, pretend = 0, frame = 0
 360              		@ frame_needed = 0, uses_anonymous_args = 0
 361 0000 08B5     		push	{r3, lr}
 362              		.cfi_def_cfa_offset 8
 363              		.cfi_offset 3, -8
 364              		.cfi_offset 14, -4
  98:Generated_Source\PSoC5/IDAC8_1_PM.c ****     if(IDAC8_1_ACT_PWR_EN == (IDAC8_1_PWRMGR & IDAC8_1_ACT_PWR_EN))
 365              		.loc 1 98 0
 366 0002 084B     		ldr	r3, .L14
 367 0004 1B78     		ldrb	r3, [r3]	@ zero_extendqisi2
 368 0006 13F0020F 		tst	r3, #2
 369 000a 03D0     		beq	.L11
  99:Generated_Source\PSoC5/IDAC8_1_PM.c ****     {
 100:Generated_Source\PSoC5/IDAC8_1_PM.c ****         /* IDAC8 is enabled */
 101:Generated_Source\PSoC5/IDAC8_1_PM.c ****         IDAC8_1_backup.enableState = 1u;
 370              		.loc 1 101 0
 371 000c 0122     		movs	r2, #1
 372 000e 064B     		ldr	r3, .L14+4
 373 0010 1A70     		strb	r2, [r3]
 374 0012 02E0     		b	.L12
 375              	.L11:
 102:Generated_Source\PSoC5/IDAC8_1_PM.c ****     }
 103:Generated_Source\PSoC5/IDAC8_1_PM.c ****     else
 104:Generated_Source\PSoC5/IDAC8_1_PM.c ****     {
 105:Generated_Source\PSoC5/IDAC8_1_PM.c ****         /* IDAC8 is disabled */
 106:Generated_Source\PSoC5/IDAC8_1_PM.c ****         IDAC8_1_backup.enableState = 0u;
 376              		.loc 1 106 0
 377 0014 0022     		movs	r2, #0
 378 0016 044B     		ldr	r3, .L14+4
 379 0018 1A70     		strb	r2, [r3]
 380              	.L12:
ARM GAS  C:\Users\Luggi\AppData\Local\Temp\ccpgurXZ.s 			page 23


 107:Generated_Source\PSoC5/IDAC8_1_PM.c ****     }
 108:Generated_Source\PSoC5/IDAC8_1_PM.c **** 
 109:Generated_Source\PSoC5/IDAC8_1_PM.c ****     IDAC8_1_Stop();
 381              		.loc 1 109 0
 382 001a FFF7FEFF 		bl	IDAC8_1_Stop
 383              	.LVL0:
 110:Generated_Source\PSoC5/IDAC8_1_PM.c ****     IDAC8_1_SaveConfig();
 384              		.loc 1 110 0
 385 001e FFF7FEFF 		bl	IDAC8_1_SaveConfig
 386              	.LVL1:
 387 0022 08BD     		pop	{r3, pc}
 388              	.L15:
 389              		.align	2
 390              	.L14:
 391 0024 A8430040 		.word	1073759144
 392 0028 00000000 		.word	.LANCHOR0
 393              		.cfi_endproc
 394              	.LFE2:
 395              		.size	IDAC8_1_Sleep, .-IDAC8_1_Sleep
 396              		.section	.text.IDAC8_1_Wakeup,"ax",%progbits
 397              		.align	2
 398              		.global	IDAC8_1_Wakeup
 399              		.thumb
 400              		.thumb_func
 401              		.type	IDAC8_1_Wakeup, %function
 402              	IDAC8_1_Wakeup:
 403              	.LFB3:
 111:Generated_Source\PSoC5/IDAC8_1_PM.c **** }
 112:Generated_Source\PSoC5/IDAC8_1_PM.c **** 
 113:Generated_Source\PSoC5/IDAC8_1_PM.c **** 
 114:Generated_Source\PSoC5/IDAC8_1_PM.c **** /*******************************************************************************
 115:Generated_Source\PSoC5/IDAC8_1_PM.c **** * Function Name: IDAC8_1_Wakeup
 116:Generated_Source\PSoC5/IDAC8_1_PM.c **** ********************************************************************************
 117:Generated_Source\PSoC5/IDAC8_1_PM.c **** *
 118:Generated_Source\PSoC5/IDAC8_1_PM.c **** * Summary:
 119:Generated_Source\PSoC5/IDAC8_1_PM.c **** *  Restores and enables the user configuration
 120:Generated_Source\PSoC5/IDAC8_1_PM.c **** *  
 121:Generated_Source\PSoC5/IDAC8_1_PM.c **** * Parameters:
 122:Generated_Source\PSoC5/IDAC8_1_PM.c **** *  void
 123:Generated_Source\PSoC5/IDAC8_1_PM.c **** *
 124:Generated_Source\PSoC5/IDAC8_1_PM.c **** * Return:
 125:Generated_Source\PSoC5/IDAC8_1_PM.c **** *  void
 126:Generated_Source\PSoC5/IDAC8_1_PM.c **** *
 127:Generated_Source\PSoC5/IDAC8_1_PM.c **** * Global variables:
 128:Generated_Source\PSoC5/IDAC8_1_PM.c **** *  IDAC8_1_backup.enableState: Is used to restore the enable state of 
 129:Generated_Source\PSoC5/IDAC8_1_PM.c **** *  block on wakeup from sleep mode.
 130:Generated_Source\PSoC5/IDAC8_1_PM.c **** *
 131:Generated_Source\PSoC5/IDAC8_1_PM.c **** *******************************************************************************/
 132:Generated_Source\PSoC5/IDAC8_1_PM.c **** void IDAC8_1_Wakeup(void) 
 133:Generated_Source\PSoC5/IDAC8_1_PM.c **** {
 404              		.loc 1 133 0
 405              		.cfi_startproc
 406              		@ args = 0, pretend = 0, frame = 0
 407              		@ frame_needed = 0, uses_anonymous_args = 0
 408 0000 08B5     		push	{r3, lr}
 409              		.cfi_def_cfa_offset 8
 410              		.cfi_offset 3, -8
ARM GAS  C:\Users\Luggi\AppData\Local\Temp\ccpgurXZ.s 			page 24


 411              		.cfi_offset 14, -4
 134:Generated_Source\PSoC5/IDAC8_1_PM.c ****     IDAC8_1_RestoreConfig();
 412              		.loc 1 134 0
 413 0002 FFF7FEFF 		bl	IDAC8_1_RestoreConfig
 414              	.LVL2:
 135:Generated_Source\PSoC5/IDAC8_1_PM.c ****     
 136:Generated_Source\PSoC5/IDAC8_1_PM.c ****     if(IDAC8_1_backup.enableState == 1u)
 415              		.loc 1 136 0
 416 0006 054B     		ldr	r3, .L19
 417 0008 1B78     		ldrb	r3, [r3]	@ zero_extendqisi2
 418 000a 012B     		cmp	r3, #1
 419 000c 05D1     		bne	.L16
 137:Generated_Source\PSoC5/IDAC8_1_PM.c ****     {
 138:Generated_Source\PSoC5/IDAC8_1_PM.c ****         /* Enable IDAC8's operation */
 139:Generated_Source\PSoC5/IDAC8_1_PM.c ****         IDAC8_1_Enable();
 420              		.loc 1 139 0
 421 000e FFF7FEFF 		bl	IDAC8_1_Enable
 422              	.LVL3:
 140:Generated_Source\PSoC5/IDAC8_1_PM.c ****         
 141:Generated_Source\PSoC5/IDAC8_1_PM.c ****         /* Set the data register */
 142:Generated_Source\PSoC5/IDAC8_1_PM.c ****         IDAC8_1_SetValue(IDAC8_1_Data);
 423              		.loc 1 142 0
 424 0012 034B     		ldr	r3, .L19+4
 425 0014 1878     		ldrb	r0, [r3]	@ zero_extendqisi2
 426 0016 FFF7FEFF 		bl	IDAC8_1_SetValue
 427              	.LVL4:
 428              	.L16:
 429 001a 08BD     		pop	{r3, pc}
 430              	.L20:
 431              		.align	2
 432              	.L19:
 433 001c 00000000 		.word	.LANCHOR0
 434 0020 815B0040 		.word	1073765249
 435              		.cfi_endproc
 436              	.LFE3:
 437              		.size	IDAC8_1_Wakeup, .-IDAC8_1_Wakeup
 438              		.bss
 439              		.align	2
 440              		.set	.LANCHOR0,. + 0
 441              		.type	IDAC8_1_backup, %object
 442              		.size	IDAC8_1_backup, 2
 443              	IDAC8_1_backup:
 444 0000 0000     		.space	2
 445 0002 0000     		.text
 446              	.Letext0:
 447              		.file 2 "Generated_Source\\PSoC5\\cytypes.h"
 448              		.file 3 "Generated_Source\\PSoC5\\IDAC8_1.h"