ARM GAS  C:\Users\Luggi\AppData\Local\Temp\ccxS9iG2.s 			page 1


   1              		.syntax unified
   2              		.cpu cortex-m3
   3              		.fpu softvfp
   4              		.eabi_attribute 20, 1
   5              		.eabi_attribute 21, 1
   6              		.eabi_attribute 23, 3
   7              		.eabi_attribute 24, 1
   8              		.eabi_attribute 25, 1
   9              		.eabi_attribute 26, 1
  10              		.eabi_attribute 30, 1
  11              		.eabi_attribute 34, 1
  12              		.eabi_attribute 18, 4
  13              		.thumb
  14              		.file	"isr.c"
  15              		.text
  16              	.Ltext0:
  17              		.section	.gnu.lto_.profile.304b20ac,"",%progbits
  18 0000 789C6366 		.ascii	"x\234cf```e\200\000F\206\311\214:\000\002q\000\312"
  18      60606065 
  18      80004686 
  18      C98C3A00 
  18      027100CA 
  19              		.text
  20              		.section	.gnu.lto_.inline.304b20ac,"",%progbits
  21 0000 789C858E 		.ascii	"x\234\205\216\315\015\200 \014F?\240\340\177<zt\001"
  21      CD0D8020 
  21      0C463FA0 
  21      E07F3C7A 
  21      7401
  22 0012 CF1E1DC1 		.ascii	"\317\036\035\301\331\034\301Q\034\301\221l!!jM\344\320"
  22      D91CC151 
  22      1CC1916C 
  22      21216A4D 
  22      E4D0
  23 0024 368F07FD 		.ascii	"6\217\007\375\034\276\317lR\357\000g\015,\217a\037\245"
  23      1CBECF6C 
  23      52EF0067 
  23      0D2C8F61 
  23      1FA5
  24 0036 C1C01313 		.ascii	"\301\300\023\023\332\307\214\254FN\220a\231\337\237"
  24      DAC78CAC 
  24      464E9061 
  24      99DF9F
  25 0045 7DC23C90 		.ascii	"}\302<\220\334\221\326=\3101\312\252\354C\021\030\225"
  25      DC91D63D 
  25      C831CAAA 
  25      EC431118 
  25      95
  26 0056 C79251A1 		.ascii	"\307\222Q\241\255\022\325\364\312WK\242F\202\246\032"
  26      AD12D5F4 
  26      CA574BA2 
  26      4682A61A 
  27 0066 41F5EB6D 		.ascii	"A\365\353mk$5\302\360\024o\277\264:@\247\021.\001\316"
  27      6B2435C2 
  27      F0146FBF 
  27      B43A40A7 
  27      112E01CE 
ARM GAS  C:\Users\Luggi\AppData\Local\Temp\ccxS9iG2.s 			page 2


  28 007a 15AA     		.ascii	"\025\252"
  29              		.text
  30              		.section	.gnu.lto_.jmpfuncs.304b20ac,"",%progbits
  31 0000 789C6366 		.ascii	"x\234cf\300\016&Bi^ f\004\202z&\006\006f\020\315\302"
  31      C00E2642 
  31      695E2066 
  31      04827A26 
  31      06066610 
  32 0016 C0C0CAC0 		.ascii	"\300\300\312\300\300\306\300\300\316\300\300\001\222"
  32      C0C6C0C0 
  32      CEC0C001 
  32      92
  33 0023 64FAC8C4 		.ascii	"d\372\310\304\370}\361\203\327\214/\230~2\001E\031\227"
  33      F87DF183 
  33      D78C2F98 
  33      7E320145 
  33      1997
  34 0035 334A4144 		.ascii	"3JAD\347]\356[\307T\373\273\241\243\201\343'\023\343"
  34      E75DEE5B 
  34      C754FBBB 
  34      A1A381E3 
  34      2713E3
  35 0048 672690EA 		.ascii	"g&\220\352\025\214\265\014\014\234 \023\201j J\231\313"
  35      158CB50C 
  35      0C9C2013 
  35      816A204A 
  35      99CB
  36 005a 1980525C 		.ascii	"\031\200R\\\014\33051\002\305W\2024\361@\034\003\000"
  36      0CD83531 
  36      02C55782 
  36      34F1401C 
  36      0300
  37 006c 01121DD7 		.ascii	"\001\022\035\327"
  38              		.text
  39              		.section	.gnu.lto_.pureconst.304b20ac,"",%progbits
  40 0000 789C6366 		.ascii	"x\234cf``\220f\200\000^\006\006F)&Vf)\026)V)6)v)\016"
  40      60609066 
  40      80005E06 
  40      06462926 
  40      56662916 
  41 001c 094E092E 		.ascii	"\011N\011.\011\036)^)\000\025G\001\231"
  41      091E295E 
  41      29001547 
  41      0199
  42              		.text
  43              		.section	.gnu.lto_isr_Interrupt.304b20ac,"",%progbits
  44 0000 789C6366 		.ascii	"x\234cf\300\004R@\\\002\304\362@\314\310\314\300\310"
  44      C0045240 
  44      5C02C4F2 
  44      40CCC8CC 
  44      C0C8
  45 0012 34E11C03 		.ascii	"4\341\034\003C#\007\023##\210\301\300\310P\317\304X"
  45      43230713 
  45      232388C1 
  45      C0C850CF 
  45      C458
  46 0024 CFF892E9 		.ascii	"\317\370\222\351#\023\343\204\003\253gp\253/mhh\370"
ARM GAS  C:\Users\Luggi\AppData\Local\Temp\ccxS9iG2.s 			page 3


  46      2313E384 
  46      03AB6770 
  46      AB2F6D68 
  46      68F8
  47 0036 D07493A5 		.ascii	"\320t\223\245U\342'\023\003\303g&\2101\214\313\031\325"
  47      55E22713 
  47      03C36726 
  47      88318CCB 
  47      19D5
  48 0048 19806A3E 		.ascii	"\031\200j>\266\374\275\316\315\326\002T#\000\221c\\"
  48      B6FCBDCE 
  48      CDD60254 
  48      23009163 
  48      5C
  49 0059 C1C8C608 		.ascii	"\301\310\306\010\244\327\013\035h\370\377\377\362\223"
  49      A4D70B1D 
  49      68F8FFFF 
  49      F293
  50 0067 435BB881 		.ascii	"C[\270\201\302O\200\030d\376S&&\020\315|\217\221\021"
  50      C24F8018 
  50      64FE5326 
  50      2610CD7C 
  50      8F9111
  51 007a A41064D2 		.ascii	"\244\020d\322\023&F\220\020P\201\254{j^jQbIjJ|p~iQr"
  51      13264690 
  51      105081AC 
  51      7B6A5E6A 
  51      5162496A 
  52 0095 6A4C4070 		.ascii	"jL@p\276\263iLfq\221^2\003\000^\0123\274"
  52      BEB3694C 
  52      6671915E 
  52      3203005E 
  52      0A33BC
  53              		.text
  54              		.section	.gnu.lto_isr_SetVector.304b20ac,"",%progbits
  55 0000 789C6550 		.ascii	"x\234ePMH\224Q\024\275\347\276\317Q\230a\212V2\020\011"
  55      4D489451 
  55      14BDE7BE 
  55      CF519861 
  55      8A563210 
  56 0015 221304EE 		.ascii	"\"\023\004\356j\035\264h\027\202\"\006\202L3\337\"\250"
  56      6A1DB468 
  56      17822206 
  56      824C33DF 
  56      22A8
  57 0027 06BEB1B5 		.ascii	"\006\276\261\265o\246\021\263\026\212\222\2102\201\204"
  57      6FA611B3 
  57      168A9288 
  57      328184
  58 0036 644DF933 		.ascii	"dM\3713\321B7}D\013\245\037\011\262\310E)M1\025T2\221"
  58      D142377D 
  58      440BA51F 
  58      09B2C845 
  58      294D3115 
  59 004d CC22A67B 		.ascii	"\314\"\246{\277i\023=x\274w\017\367\234{\3561\364\377"
  59      BF69133D 
  59      78BC770F 
ARM GAS  C:\Users\Luggi\AppData\Local\Temp\ccxS9iG2.s 			page 4


  59      F79C7BEE 
  59      31F4FF
  60 0060 89C9DD00 		.ascii	"\211\311\335\000\321\011ya\010<\376\202(\333\302\200"
  60      D1097961 
  60      083CFE82 
  60      28DBC280 
  61 0070 7E0834C4 		.ascii	"~\0104\304\030\302g\336c\214\373\305\351p|\336Z\373"
  61      18C267DE 
  61      638CFBC5 
  61      E9707CDE 
  61      5AFB
  62 0082 23576D1D 		.ascii	"#Wm\035n\2551Q\225\0332\270\215\270\266|};\0261m \371"
  62      6EAD3151 
  62      951B32B8 
  62      8DB8B67C 
  62      7D3B1631 
  63 0099 AF2EFE7C 		.ascii	"\257.\376|\036\256p\215\321\246\345\332\304\372tHKv"
  63      1EAE708D 
  63      D1A6E5DA 
  63      C4FA7448 
  63      4B76
  64 00ab B4FC32BA 		.ascii	"\264\3742\272\365\330t\334\2626\347o\224\354I\247\306"
  64      F5D874DC 
  64      B236E76F 
  64      94EC49A7 
  64      C6
  65 00bc 060B30A2 		.ascii	"\006\0130\242\207;\210\341.b$\020\241\210\016m\177\270"
  65      873B88E1 
  65      2E622410 
  65      A1880E6D 
  65      7FB8
  66 00ce 5B293AE6 		.ascii	"[):\346h \374\2758\267\345\264\317\011ugf\344i\304\256"
  66      6820FCBD 
  66      38B7E5B4 
  66      CF097567 
  66      66E469C4 
  67 00e3 DBFC4EBD 		.ascii	"\333\374N\275~\244\306\016\356\375\253\3208B\331\313"
  67      7EA4C60E 
  67      EEFDABD0 
  67      3842D9CB 
  68 00f3 FF7E130E 		.ascii	"\377~\023\016\345\305\372A\334G{\3036\026\021\222\315"
  68      E5C5FA41 
  68      DC477BC3 
  68      36161192 
  68      CD
  69 0104 A1C8D221 		.ascii	"\241\310\322!\337\326\353\325g\223\225\270i\022\005"
  69      DFD6EBD5 
  69      679395B8 
  69      691205
  70 0113 810C82E1 		.ascii	"\201\014\202\341T\226^\315\342#\263\276f\033\271_\327"
  70      54965ECD 
  70      E223B3BE 
  70      661BB95F 
  70      D7
  71 0124 3EADF629 		.ascii	">\255\366)}\2375\230\322\223\353#\254\2535]\335\276"
  71      7D9F3598 
  71      D293EB23 
ARM GAS  C:\Users\Luggi\AppData\Local\Temp\ccxS9iG2.s 			page 5


  71      ACAB355D 
  71      DDBE
  72 0136 62A33AF0 		.ascii	"b\243:\360}y\363eK\000\005\363_}\030\375\026)`6k\255"
  72      7D79F365 
  72      4B0005F3 
  72      5F7D18FD 
  72      16296036 
  73 014c DFA94697 		.ascii	"\337\251F\227\304\341\262:\304\012\012\240\327\310\331"
  73      C4E1B23A 
  73      C40A0AA0 
  73      D7C8D9
  74 015b B3811F19 		.ascii	"\263\201\037\031,\242$C\246V6\253\007\024\323,\013\273"
  74      2CA22443 
  74      A65636AB 
  74      0714D32C 
  74      0BBB
  75 016d F3CD2AE7 		.ascii	"\363\315*\347,\007\021\254\015\337\270\031\375\253w"
  75      2C0711AC 
  75      0DDFB819 
  75      FDAB77
  76 017c 4C72120A 		.ascii	"Lr\022\012J\201\334\003\221\333\227\340\336!\353?:\243"
  76      4A81DC03 
  76      91DB97E0 
  76      DE21EB3F 
  76      3AA3
  77 018e 748DA0CC 		.ascii	"t\215\240\314P\357\262\311\341\323\356%\327K\014\272"
  77      50EFB2C9 
  77      E1D3EE25 
  77      D74B0CBA 
  78 019e A981EEF4 		.ascii	"\251\201\356\364e/\351\366wu\247O\035\357?\237\361:"
  78      652FE9F6 
  78      7775A74F 
  78      1DEF3F9F 
  78      F13A
  79 01b0 93D49C48 		.ascii	"\223\324\234H\245<7\223\211z\211\213\275nr0\355\365"
  79      A53C3793 
  79      897A898B 
  79      BD6E7230 
  79      EDF5
  80 01c2 24CE5D70 		.ascii	"$\316]p\377\000#\244\265\240"
  80      FF0023A4 
  80      B5A0
  81              		.text
  82              		.section	.gnu.lto_isr_GetVector.304b20ac,"",%progbits
  83 0000 789C6366 		.ascii	"x\234cf\300\004R@<\205\221\201A\017H32302M8\307\300"
  83      C0045240 
  83      3C859181 
  83      410F4833 
  83      32333032 
  84 0018 D0C8C1C4 		.ascii	"\320\310\301\304\310\010b002\32431\3263\276d\372\310"
  84      C8086230 
  84      3032D433 
  84      31D633BE 
  84      64FAC8
  85 002b C4B873DD 		.ascii	"\304\270s\335\227\263\334/\230~21(0\000\271\273&\235"
  85      97B3DC2F 
  85      987E3231 
ARM GAS  C:\Users\Luggi\AppData\Local\Temp\ccxS9iG2.s 			page 6


  85      283000B9 
  85      BB269D
  86 003e 98C106E2 		.ascii	"\230\301\006\3422\262\200\270\327\257\315\270\316\251"
  86      32B280B8 
  86      D7AFCDB8 
  86      CEA9
  87 004c BEB4A1A1 		.ascii	"\276\264\241\241\351C\323\317\212\231S\026\000e\230"
  87      E943D3CF 
  87      8A995316 
  87      006598
  88 005b 183E3331 		.ascii	"\030>310.g\224b\\\301\010\262\210q%\243:H\355\326\207"
  88      302E6794 
  88      625CC108 
  88      B2887125 
  88      A33A48ED 
  89 0071 2F56B330 		.ascii	"/V\2630+0\202\330\357W/\274\312\242\274\020\250\357"
  89      2B3082D8 
  89      EF572FBC 
  89      CAA2BC10 
  89      A8EF
  90 0083 C1A9F6D3 		.ascii	"\301\251\366\323<\015'\032Z\036\374\377/\377\223\211"
  90      3C0D271A 
  90      5A1EFCFF 
  90      2FFF9389 
  91 0093 99711523 		.ascii	"\231q\025#3\252~\020\000j\371\330\362\367:7[KCC\203"
  91      33AA7E10 
  91      006AF9D8 
  91      F2F73A37 
  91      5B4B4343 
  92 00a8 00E36A46 		.ascii	"\000\343jFe\220%@\263\3270\262\001\375\301\010\022Y"
  92      65902540 
  92      B3D730B2 
  92      01FDC108 
  92      1259
  93 00ba 2F74A0E1 		.ascii	"/t\240\341\377\377\317O&\2770ff\001\232\000\024bf\000"
  93      FFFFCF4F 
  93      26BF3066 
  93      66019A00 
  93      14626600 
  94 00ce 3987E109 		.ascii	"9\207\341\011\020\203<\366\024\310\001\322\314\267\030"
  94      10833CF6 
  94      14C801D2 
  94      CCB718
  95 00dd 9BBE753D 		.ascii	"\233\276u=\333\023\001\322\375\235\011\344\313MG\272"
  95      DB1301D2 
  95      FD9D09E4 
  95      CB4D47BA 
  96 00ed DB9940DE 		.ascii	"\333\231@\336b\351\270\325\334\300\007\262\357\376\223"
  96      62E9B8D5 
  96      DCC007B2 
  96      EFFE93
  97 00fc F31739C0 		.ascii	"\363\0279\300B`\353\257<\356|\3073\227qvcC\303\001="
  97      4260EBAF 
  97      3CEE7CC7 
  97      33977176 
  97      6343C301 
  98 0111 903BD702 		.ascii	"\220;\327\002\035\270\016\344@\306\365\214s\031\031"
ARM GAS  C:\Users\Luggi\AppData\Local\Temp\ccxS9iG2.s 			page 7


  98      1DB80EE4 
  98      40C6F58C 
  98      731919
  99 0120 AE313635 		.ascii	"\256165D\202\235\003\264\027h(\003\330\222o{\270 \226"
  99      44829D03 
  99      B4176828 
  99      03D8926F 
  99      7BB82096 
 100 0134 30838272 		.ascii	"0\203\202r\356\303\245\354 \023\2317\200\003aW\353\324"
 100      EEC3A5EC 
 100      20139937 
 100      80036157 
 100      EBD4
 101 0146 797C1023 		.ascii	"y|\020#9\200\356\004jb\334\0006p#\310\300{\214\214P"
 101      3980EE04 
 101      6A62DC00 
 101      367023C8 
 101      C07B8C8C 
 102 015b AD0C201F 		.ascii	"\255\014 \0370\202\\\016\364\207\254{j^jQbIjJ|p~iQr"
 102      30825C0E 
 102      F487AC7B 
 102      6A5E6A51 
 102      62496A4A 
 103 0175 6A4C4070 		.ascii	"jL@p\276\263iLfq\221^2\003_QbnXjrI~QHbRN*\000\226\323"
 103      BEB3694C 
 103      6671915E 
 103      32035F51 
 103      626E586A 
 104 0195 A114     		.ascii	"\241\024"
 105              		.text
 106              		.section	.gnu.lto_isr_SetPriority.304b20ac,"",%progbits
 107 0000 789C6590 		.ascii	"x\234e\2201HBQ\024\206\317\177\237O\036(\021M\365 \010"
 107      31484251 
 107      1486CF7F 
 107      9F4F1E28 
 107      114DF520 
 108 0015 422C8886 		.ascii	"B,\210\206\240=hh\215\334B\210\2607\270d\274lh\362\275"
 108      A03D6868 
 108      8DDC4288 
 108      B037B864 
 108      BC6C68F2 
 109 002a 7CB566D1 		.ascii	"|\265f\321P\230KQY\226m\201\020\364\010\002\247\242"
 109      50984B51 
 109      59966D81 
 109      10F40802 
 109      A7A2
 110 003c 4990B002 		.ascii	"I\220\260\002\213\242%q\020\203\264sk\354\302\341\334"
 110      8BA22571 
 110      1083B473 
 110      6BECC2E1 
 110      DC
 111 004d 7BCE7FBE 		.ascii	"{\316\177\276\373\337\253\320\377\245s\214\200h\200"
 111      FBDFABD0 
 111      FFA5738C 
 111      806880
 112 005c 33148248 		.ascii	"3\024\202H\335\022\331\232\000\344\206@\011\201\004"
 112      DD12D99A 
ARM GAS  C:\Users\Luggi\AppData\Local\Temp\ccxS9iG2.s 			page 8


 112      00E48640 
 112      098104
 113 006b DE454D20 		.ascii	"\336EM \345\346\266}\301\003\313\262>\3676zV\273\233"
 113      E5E6B67D 
 113      C103CBB2 
 113      3EF7367A 
 113      56BB9B
 114 007e 82A82EFE 		.ascii	"\202\250.\37608B\220%\207W\317\005U\351\003\361\276"
 114      30384290 
 114      258757CF 
 114      0555E903 
 114      F1BE
 115 0090 64E79EFC 		.ascii	"d\347\236\374\201}\313Zq/\363\326\030\232\314\314B\341"
 115      817DCB5A 
 115      712FF3D6 
 115      189ACCCC 
 115      42E1
 116 00a2 090CE918 		.ascii	"\011\014\351\030\324\211\013\204c\004\244\270\346|\227"
 116      D4890B84 
 116      6304A4B8 
 116      E67C97
 117 00b1 7C5E87D9 		.ascii	"|^\207\331\235\177L\234\300\313\266\350\274\313\265"
 117      9D7F4C9C 
 117      C0CBB6E8 
 117      BCCBB5
 118 00c0 DAEDFACD 		.ascii	"\332\355\372\315V\266\337\243\002R/x\222%U\016\351\361"
 118      56B6DFA3 
 118      02522F78 
 118      9225550E 
 118      E9F1
 119 00d2 850F9C95 		.ascii	"\205\017\234\2252\222\017k\257\305i9\331\020\242\301"
 119      32920F6B 
 119      AFC56939 
 119      D910A2C1 
 120 00e2 508175E7 		.ascii	"P\201u\347\242\342}\023M\241\250\204\034t*\343z\023"
 120      A2E27D13 
 120      4DA1A884 
 120      1C742AE3 
 120      7A13
 121 00f4 52C2CDD6 		.ascii	"R\302\315\326\307W\313/\233\236\335b\322\352\220>\036"
 121      C757CB2F 
 121      9B9EDD62 
 121      D2EA903E 
 121      1E
 122 0105 AB77F7DA 		.ascii	"\253w\367\332o\211\344\261\220\312\356h\031\244m\307"
 122      6F89E4B1 
 122      90CAEE68 
 122      19A46DC7 
 123 0115 765586E0 		.ascii	"vU\206\340\024:\316\030C\310#\003\276\206*\260\335\364"
 123      143ACE18 
 123      43C82303 
 123      BE862AB0 
 123      DDF4
 124 0127 9424CA7F 		.ascii	"\224$\312\177\250\362\233\330\014[\353\2350\346\015"
 124      A8F29BD8 
 124      0C5BEB9D 
 124      30E60D
ARM GAS  C:\Users\Luggi\AppData\Local\Temp\ccxS9iG2.s 			page 9


 125 0136 73366ECC 		.ascii	"s6n\314\315\204bKf\304\010O\206b\343\243\341\350\242"
 125      CD84624B 
 125      66C4084F 
 125      8662E3A3 
 125      E1E8A2
 126 0149 391C216D 		.ascii	"9\034!m\301\214\306\314h|\371\007\023$y\033"
 126      C18CC6CC 
 126      687CF907 
 126      1324791B 
 127              		.text
 128              		.section	.gnu.lto_isr_GetPriority.304b20ac,"",%progbits
 129 0000 789C658F 		.ascii	"x\234e\217\317+\303q\030\307\237\367\363\035\255\206"
 129      CF2BC371 
 129      18C79FF7 
 129      F31DAD86 
 130 0010 E4A495A8 		.ascii	"\344\244\225\250\035F\311A\371\013\034\\\225rZI\363"
 130      1D46C941 
 130      F90B1C5C 
 130      95725A49 
 130      F3
 131 0021 3DEC62FA 		.ascii	"=\354b\372\232\203\323>\373ArrP\210\035\0340?w\336\034"
 131      9A83D33E 
 131      FB417272 
 131      50881D1C 
 131      303F77DE 
 132 0036 2C072922 		.ascii	",\007)\"V\324b\246\246\374J\326DS\366\365\371|9(O}z"
 132      56D462A6 
 132      A6FC4AD6 
 132      4453F6F5 
 132      F97C3928 
 133 004d 9E9EDEEF 		.ascii	"\236\236\336\357\367\363\372h\364\277\234\362\365\203"
 133      F7F3FA68 
 133      F4BF9CF2 
 133      F583
 134 005b A8557668 		.ascii	"\250Uvh\004\2369!\012\331\031P\003\201\202\214 \036"
 134      049E3921 
 134      0AD91950 
 134      0381828C 
 134      201E
 135 006d B8C8384E 		.ascii	"\270\3108NV2p\257\010\021~\015\317];&\032\313LTbB\273"
 135      563270AF 
 135      08117E0D 
 135      CF5D3B26 
 135      1ACB4C54 
 136 0084 136D2A07 		.ascii	"\023m*\007kp\223\024\256\356\335&\253\264\026\2509\221"
 136      6B709314 
 136      AEEEDD26 
 136      ABB416A8 
 136      3991
 137 0096 DE7DAC75 		.ascii	"\336}\254u-KS>\365p\340\020\363\"\2327\315fiE\034\332"
 137      2D4B533E 
 137      F570E010 
 137      F3229A37 
 137      CD666945 
 138 00ac 5FB72A69 		.ascii	"_\267*i(F\277.\035\325Q!D=\326\341R\007d\362\006\252"
 138      2846BF2E 
 138      1DD55121 
ARM GAS  C:\Users\Luggi\AppData\Local\Temp\ccxS9iG2.s 			page 10


 138      443DD6E1 
 138      520764F2 
 139 00c2 2524D426 		.ascii	"%$\324&\321\220\026\246Y\272\232\235\352\264\331\230"
 139      D19016A6 
 139      59BA9A9D 
 139      EAB4D998 
 140 00d2 CAACB095 		.ascii	"\312\254\260\225\222\012R\252\250\357\230U\327\262\330"
 140      920A52AA 
 140      A8EF9855 
 140      D7B2D8
 141 00e1 7F9F7E39 		.ascii	"\177\237~9\352U\356\017V_\250<}Vj\356\271\314\274t\030"
 141      EA55EE0F 
 141      565FA83C 
 141      7D566AEE 
 141      B9CCBC74 
 142 00f6 1175EADE 		.ascii	"\021u\352\336M\341\364\314n\255\254\363\311\231\370"
 142      4DE1F4CC 
 142      6EADACF3 
 142      C999F8
 143 0105 823D86C5 		.ascii	"\202=\206\305P\024e\326\260\011'\266 \361\260\215\030"
 143      501465D6 
 143      B00927B6 
 143      20F1B08D 
 143      18
 144 0116 288B486E 		.ascii	"(\213Hn\362\015?\201\332O\346sf1ee\332\252\010;R{\001"
 144      F20D3F81 
 144      DA4FE673 
 144      66316565 
 144      DAAA083B 
 145 012d B6782593 		.ascii	"\266x%\223\024Q\016\241\264y\316\277\036R\230Px\362"
 145      14510EA1 
 145      B479CEBF 
 145      1E529850 
 145      78F2
 146 013f 5E538F3E 		.ascii	"^S\217>\254\033\203\001}h\240\317?fxuOo\237\277\273"
 146      AC1B8301 
 146      7D68A0CF 
 146      3F667875 
 146      4F6F9FBF 
 147 0154 CBE31B35 		.ascii	"\313\343\0335:\274d\0371|~\303\027\030\377\006H\002"
 147      3ABC641F 
 147      317C7EC3 
 147      1718FF06 
 147      4802
 148 0166 8706     		.ascii	"\207\006"
 149              		.text
 150              		.section	.gnu.lto_isr_Enable.304b20ac,"",%progbits
 151 0000 789C6366 		.ascii	"x\234cf\300\004R@\374\000\210\345\201\230\221\231\201"
 151      C0045240 
 151      FC0088E5 
 151      81989199 
 151      81
 152 0011 9169C239 		.ascii	"\221i\3029\006\206F\016&FF\020\203\201\221\241\236\211"
 152      0686460E 
 152      26464610 
 152      838191A1 
 152      9E89
ARM GAS  C:\Users\Luggi\AppData\Local\Temp\ccxS9iG2.s 			page 11


 153 0023 B19EF125 		.ascii	"\261\236\361%\323G&\306\011\007V\317\340V_\332\320\320"
 153      D34726C6 
 153      090756CF 
 153      E0565FDA 
 153      D0D0
 154 0035 F061D35C 		.ascii	"\360a\323\\\311V\211\237L\014\014\237\231 \3060.gTg"
 154      C956899F 
 154      4C0C0C9F 
 154      9920C630 
 154      2E675467 
 155 0049 00AAF9D8 		.ascii	"\000\252\371\330\362\367:7[\013P\215\000D\216q\005#"
 155      F2F73A37 
 155      5B0B508D 
 155      00448E71 
 155      0523
 156 005b 1B23905E 		.ascii	"\033#\220^/t\240\341\377\377\315\337\246\274\260faf"
 156      2F74A0E1 
 156      FFFFCDDF 
 156      A6BCB066 
 156      6166
 157 006d 60780294 		.ascii	"`x\002\224\003Y\360\224\211\011D3\337b<\364a\303\367"
 157      0359F094 
 157      89094433 
 157      DF623CF4 
 157      61C3F7
 158 0080 27AC20E5 		.ascii	"'\254 \345@c>\275n\230\313\362\202\351'\023c\303\241"
 158      40633EBD 
 158      6E98CBF2 
 158      82E92713 
 158      63C3A1
 159 0093 E6063E90 		.ascii	"\346\006>\220\311\367\237\234\277\310\001\026b\000q"
 159      C9F79F9C 
 159      BFC80116 
 159      620071
 160 00a2 BF7C5A34 		.ascii	"\277|Z4\211w.\343\354\306\226\306\003\254?\231\230\030"
 160      89772EE3 
 160      ECC696C6 
 160      03AC3F99 
 160      9818
 161 00b4 57324A31 		.ascii	"W2J1\256b\004z\207q5\343\\F\240\212I\347\327\337\341"
 161      AE62047A 
 161      877135E3 
 161      5C46A08A 
 161      49E7D7DF 
 162 00c9 05696002 		.ascii	"\005i`\002\272\246\201\221\201q\015P\366\036c\343\201"
 162      BAA68191 
 162      81710D50 
 162      F61E63E3 
 162      81
 163 00da FBC1205B 		.ascii	"\373\301 [@\256~\0024\014h;\320-\262\356\251y\251E\211"
 163      40AE7E02 
 163      340C683B 
 163      D02DB2EE 
 163      A979A945 
 164 00ef 25A929F1 		.ascii	"%\251)\361\301\371\245E\311\2511\001\301\371\316\246"
 164      C1F9A545 
 164      C9A93101 
ARM GAS  C:\Users\Luggi\AppData\Local\Temp\ccxS9iG2.s 			page 12


 164      C1F9CEA6 
 165 00ff 3199C545 		.ascii	"1\231\305Ez\311\014\000\334\307_\034"
 165      7AC90C00 
 165      DCC75F1C 
 166              		.text
 167              		.section	.gnu.lto_isr_GetState.304b20ac,"",%progbits
 168 0000 789C6550 		.ascii	"x\234ePM(\204Q\024\275\347\276o\220\361\227\205\364"
 168      4D288451 
 168      14BDE7BE 
 168      6F90F197 
 168      85F4
 169 0012 15969312 		.ascii	"\025\226\223\022\013\331\331Y\330\252\331NIL\26215X"
 169      0BD9D959 
 169      D8AAD94E 
 169      494CB231 
 169      3558
 170 0024 CF9B1F92 		.ascii	"\317\233\037\222,\244lh6\312\370ga%\026\262S\"\031i"
 170      2CA46C68 
 170      36CAF867 
 170      612516B2 
 170      53221969 
 171 0038 A68C8519 		.ascii	"\246\214\205\031\221\215\231\021\246\374\3357c#\257"
 171      918D9911 
 171      A6FCDD37 
 171      6323AF
 172 0047 DEBDEFDD 		.ascii	"\336\275\357\335{\316\271\247\253\350\377\351\224;\014"
 172      7BCEB9A7 
 172      ABE8FFE9 
 172      943B0C
 173 0056 A216C970 		.ascii	"\242\026\311p\020x\356\214(X\301l\0356\223\256T\361"
 173      1078EE8C 
 173      2858C16C 
 173      1D3693AE 
 173      54F1
 174 0068 0ED2550A 		.ascii	"\016\322U\012V\251l\001\346A\240\000+\013\001<r\226"
 174      56A96C01 
 174      E641A000 
 174      2B0B013C 
 174      7296
 175 007a 71BAFF75 		.ascii	"q\272\377u\011\327\212\326\241\347\320\336\215s\262"
 175      09D78AD6 
 175      A1E7D0DE 
 175      8D73B2
 176 0089 B1C04479 		.ascii	"\261\300Dy&\264\331h\265\015|\025.\022`6\362y\355,\213"
 176      26B4D968 
 176      B50D7C15 
 176      2E126036 
 176      F279ED2C 
 177 009e 68ADEB4C 		.ascii	"h\255\353L_\032k(\223\341\264[\177\244\277\277\363\247"
 177      5F1A6B28 
 177      93E1B45B 
 177      7FA4BFBF 
 177      F3A7
 178 00b0 0BD32E87 		.ascii	"\013\323.\207\003$|%\001\226\011Di\201\232\261\031f"
 178      03247C25 
 178      01960944 
 178      69819AB1 
ARM GAS  C:\Users\Luggi\AppData\Local\Temp\ccxS9iG2.s 			page 13


 178      1966
 179 00c2 935512C7 		.ascii	"\223U\022\307\2573\251D\267a\277\261\022\341\334\223"
 179      AF33A944 
 179      B761BFB1 
 179      12E1DC93 
 180 00d2 8E5A0F5C 		.ascii	"\216Z\017\\`\326\307a]cf\335\246\317/*\212%2\337\227"
 180      60D6C761 
 180      5D6366DD 
 180      A6CF2F2A 
 180      8A2532DF 
 181 00e7 DCF27C75 		.ascii	"\334\362|u\024K\301\010\012\254\260\016\033\033\020"
 181      144BC108 
 181      0AACB00E 
 181      1B1B10
 182 00f6 6FD84414 		.ascii	"o\330D\024\224D\370}\352C\225\004\255\222\346I\350."
 182      9444F87D 
 182      EA439504 
 182      AD92E649 
 182      E82E
 183 0108 E3340210 		.ascii	"\3434\002\020\277\032\204-\301_!\222\0107\374\342\004"
 183      BF1A842D 
 183      C15F2192 
 183      0837FCE2 
 183      04
 184 0119 148C1DCC 		.ascii	"\024\214\035\314\226\027A\"\265m\004\311\370U\024\357"
 184      96174122 
 184      B56D04C9 
 184      F85514EF 
 185 0129 5019B68A 		.ascii	"P\031\266\212vS@\211 \230{@X\027\213\261p\255a\311\""
 185      76534089 
 185      20987B40 
 185      58178BB1 
 185      70AD61C9 
 186 013e B1039BFF 		.ascii	"\261\003\233\377\0306{\331\205\255\214\020\214\202T"
 186      18367BD9 
 186      85AD8C10 
 186      8C8254
 187 014d 9A7ABDA3 		.ascii	"\232z\275\243^\377\300\270w\250\337\355\233\360\017"
 187      5EFFC0B8 
 187      77A8DFED 
 187      9BF00F
 188 015c 7A3D7D6E 		.ascii	"z=}n_O\227gd\314\337>H?\016\325\212="
 188      5F4F9767 
 188      64CCDF3E 
 188      483F0ED5 
 188      8A3D
 189              		.text
 190              		.section	.gnu.lto_isr_Disable.304b20ac,"",%progbits
 191 0000 789C6366 		.ascii	"x\234cf\300\004R@\374\000\210\345\201\230\221\231\201"
 191      C0045240 
 191      FC0088E5 
 191      81989199 
 191      81
 192 0011 9169C239 		.ascii	"\221i\3029\006\206F\016&FF\020\203\201\221\241\236\211"
 192      0686460E 
 192      26464610 
 192      838191A1 
ARM GAS  C:\Users\Luggi\AppData\Local\Temp\ccxS9iG2.s 			page 14


 192      9E89
 193 0023 B19EF125 		.ascii	"\261\236\361%\323G&\306\011\007V\317\340V_\332\320\320"
 193      D34726C6 
 193      090756CF 
 193      E0565FDA 
 193      D0D0
 194 0035 F0E1D276 		.ascii	"\360\341\322v\311V\211\237L\014\014\237\231 \3060.g"
 194      C956899F 
 194      4C0C0C9F 
 194      9920C630 
 194      2E67
 195 0047 546700AA 		.ascii	"Tg\000\252\371\330\362\367:7[\013P\215\000D\216q\005"
 195      F9D8F2F7 
 195      3A375B0B 
 195      508D0044 
 195      8E7105
 196 005a 231B2390 		.ascii	"#\033#\220^/t\240\341\377\377\315\367\247\2560bef`x"
 196      5E2F74A0 
 196      E1FFFFCD 
 196      F7A7AE30 
 196      62656660 
 197 006f 02940359 		.ascii	"\002\224\003Y\360\224\211\011D3\337b<\364a\303\223\247"
 197      F0948909 
 197      4433DF62 
 197      3CF461C3 
 197      93A7
 198 0081 AC20E540 		.ascii	"\254 \345@c&\276o?\313\365\202\351'\023c\303\341\346"
 198      6326BE6F 
 198      3FCBF582 
 198      E9271363 
 198      C3E1E6
 199 0094 063E90C9 		.ascii	"\006>\220\311\367\237\234\277\310\001\026b\000q/\266"
 199      F79F9CBF 
 199      C8011662 
 199      00712FB6 
 200 00a4 34FC659D 		.ascii	"4\374e\235\3138\273\261\245\361\000\353O&&\306\225\214"
 200      CB38BBB1 
 200      A5F100EB 
 200      4F2626C6 
 200      958C
 201 00b6 528CAB18 		.ascii	"R\214\253\030\201\336a\\\3158\227\021\250b\322\371\365"
 201      81DE615C 
 201      CD389711 
 201      A862D2F9 
 201      F5
 202 00c7 7778411A 		.ascii	"wxA\032\230\200\256i`d`\\\003\224\275\307\330x`r8\310"
 202      9880AE69 
 202      6064605C 
 202      0394BDC7 
 202      D8786072 
 203 00dd 1690AB9F 		.ascii	"\026\220\253\237\000\015\003\332\016t\213\254{j^jQb"
 203      000D03DA 
 203      0E748BAC 
 203      7B6A5E6A 
 203      5162
 204 00ef 496A4A7C 		.ascii	"IjJ|p~iQrjL@p\276\263iLfq\221^2\003\000\203)^/"
 204      707E6951 
ARM GAS  C:\Users\Luggi\AppData\Local\Temp\ccxS9iG2.s 			page 15


 204      726A4C40 
 204      70BEB369 
 204      4C667191 
 205              		.text
 206              		.section	.gnu.lto_isr_Start.304b20ac,"",%progbits
 207 0000 789C6D8F 		.ascii	"x\234m\217=K\003A\020\206\347\2353\227@\032\261\014"
 207      3D4B0341 
 207      1086E79D 
 207      3397401A 
 207      B10C
 208 0012 88653A3B 		.ascii	"\210e:;\177\201\240\245\201\264\001\221x\205\215\201"
 208      7F81A0A5 
 208      81B40191 
 208      78858D81 
 209 0022 53CB237B 		.ascii	"S\313#{x\205\225\304F,\304F\304\217h\004\243\265kc\251"
 209      788595C4 
 209      462CC446 
 209      C48F6804 
 209      A3B56B63 
 210 0037 A0854D10 		.ascii	"\240\205M\020\013\005\305\306p\205,\"q\366\316B\360"
 210      0B05C5C6 
 210      70852C22 
 210      71F6CE42 
 210      F0
 211 0048 16965D78 		.ascii	"\026\226]x\237yf\306\241\377\247$w\006Dc\362\302!p\353"
 211      9F7966C6 
 211      A1FFA724 
 211      77064463 
 211      F2C22170 
 212 005d 86282C30 		.ascii	"\206(,0`?\004j2\232x\343>\243\245\333[\305\362\236R"
 212      603F046A 
 212      329A78E3 
 212      3EA3A5DB 
 212      5BC5F29E 
 213 0072 EAE3EE36 		.ascii	"\352\343\3566\254h\030&\2129\365`\037e\022\250\037}"
 213      AC681826 
 213      8A39F560 
 213      1F6512A8 
 213      1F7D
 214 0084 3F14DD48 		.ascii	"?\024\335H\240\3414\303\001\\\361\323\351\210V\203A"
 214      A0E134C3 
 214      015CF1D3 
 214      E9885683 
 214      41
 215 0095 F7F2EADC 		.ascii	"\367\362\352\334u\211\236%\262\015^\230\355\353\364"
 215      75899E25 
 215      B20D5E98 
 215      EDEBF4
 216 00a4 B0AA37AE 		.ascii	"\260\2527\256\331\302\326\262s\277\336\341\340K\255"
 216      D9C2D6B2 
 216      73BFDEE1 
 216      E04BAD
 217 00b3 A98261C4 		.ascii	"\251\202a\304,\002\034\" #x\017\221\336t3I'\226\234"
 217      2C021C22 
 217      2023780F 
 217      91DE7433 
 217      4927969C 
ARM GAS  C:\Users\Luggi\AppData\Local\Temp\ccxS9iG2.s 			page 16


 218 00c7 7024E49F 		.ascii	"p$\344\237(U8I\005\332\010\014\017%\222\355lI.\226\234"
 218      28553849 
 218      05DA080C 
 218      0F2592ED 
 218      6C492E96 
 219 00dc 709C4A3E 		.ascii	"p\234J>w\237\336\361\312\206\335<\341\004%\303y\262"
 219      779FDEF1 
 219      CA86DD3C 
 219      E10425C3 
 219      79B2
 220 00ee C39E6517 		.ascii	"\303\236e\027K\243\234\024w~g}D\250/\246\022\222\354"
 220      4BA39C14 
 220      777E677D 
 220      44A82FA6 
 220      1292EC
 221 0101 D2B0CBCA 		.ascii	"\322\260\313\312\210\243\323\336\242\347\317-{\363\263"
 221      88A3D3DE 
 221      A2E7CF2D 
 221      7BF3B3
 222 0110 D5C68A5F 		.ascii	"\325\306\212_\367j\225jcr\242\266\260\344\217\327\351"
 222      F76A956A 
 222      6372A2B6 
 222      B0E48FD7 
 222      E9
 223 0121 0781E681 		.ascii	"\007\201\346\201\000"
 223      00
 224              		.text
 225              		.section	.gnu.lto_isr_StartEx.304b20ac,"",%progbits
 226 0000 789C6D8F 		.ascii	"x\234m\217;H\003A\020\206\347\237\215\271h,\304*\004"
 226      3B480341 
 226      1086E79F 
 226      8DB9682C 
 226      C42A04
 227 0013 041B4967 		.ascii	"\004\033Igge#X\330\012\266\001\021s\205\215\201D\313"
 227      67652358 
 227      D80AB601 
 227      1173858D 
 227      8144CB
 228 0026 90552368 		.ascii	"\220U#h\343\013\004+\233 F\243\211\332\210\017\360\260"
 228      E30B042B 
 228      9B2046A3 
 228      89DA880F 
 228      F0B0
 229 0038 D1460B45 		.ascii	"\321F\013ET\024\261P\360U('\310!\022g\023;\263\260\314"
 229      5414B150 
 229      F0552827 
 229      C8211267 
 229      133BB3B0 
 230 004d CCEE37FF 		.ascii	"\314\3567\377\374\243\350\377\011\313\235\007QD\"\024"
 230      FCA3E8FF 
 230      09CB9D07 
 230      51442214 
 231 005d 81674E89 		.ascii	"\201gN\211F\002\014\230\204@iF\032\317\374\301\230q"
 231      46020C98 
 231      84406946 
 231      1ACFFCC1 
 231      9871
ARM GAS  C:\Users\Luggi\AppData\Local\Temp\ccxS9iG2.s 			page 17


 232 006f F20BC1C8 		.ascii	"\362\013\301\310\222\326\372}t/4\036\362\230\310\345"
 232      92D6FA7D 
 232      742F341E 
 232      F298C8E5 
 233 007f 8A0C9611 		.ascii	"\212\014\226\0211\310\353\365t\275j\006I\276S\370<\011"
 233      31C8EBF5 
 233      74BD6A06 
 233      49BE53F8 
 233      3C09
 234 0091 3EB1C768 		.ascii	">\261\307h6\345\356\334\361\202\337\224\3543\345\313"
 234      36E5EEDC 
 234      F182DF94 
 234      EC33E5CB 
 235 00a1 E4C5A16A 		.ascii	"\344\305\241j\311j=\352\034l\351\016\237\307\0129(\321"
 235      C96A3DEA 
 235      1C6CE90E 
 235      9FC70A39 
 235      28D1
 236 00b3 C30AC258 		.ascii	"\303\012\302XE\230\344\211\220G\213\301?2?\227A\177"
 236      4598E489 
 236      90478BC1 
 236      3F323F97 
 236      417F
 237 00c5 46663754 		.ascii	"Ff7Tfb\015~\261M\305FG\227J\356\333l\256\035\226B\231"
 237      66620D7E 
 237      B14DC546 
 237      47974AEE 
 237      DB6CAE1D 
 238 00dc A707218C 		.ascii	"\247\007!\214\375Gf\023\325-\306\234\355#6=Fl\361|\252"
 238      FD476613 
 238      D52DC69C 
 238      ED23363D 
 238      466CF17C 
 239 00f1 C0A96F3D 		.ascii	"\300\251o=\241\003\036\373\\\026\035\254#%\003k\350"
 239      A1031EFB 
 239      5C161DAC 
 239      2325036B 
 239      E8
 240 0102 161967DF 		.ascii	"\026\031g\337\252J\372]\221#\024\204\374b\345\261U\206"
 240      AA4AFA5D 
 240      91231484 
 240      FC62E5B1 
 240      5586
 241 0114 CFAAC301 		.ascii	"\317\252\303\001W\334\023\212\002\313\327W\366\376\025"
 241      57DC138A 
 241      02CBD757 
 241      F6FE15
 242 0123 66F95A8B 		.ascii	"f\371Z\213\260\201\260\307udL]Uo\026O>i\336\374\363"
 242      B081B0C7 
 242      75644C5D 
 242      556F164F 
 242      3E69DEFC 
 243 0138 748711E7 		.ascii	"t\207\021\347\246\253L\222Y\016f)\261\322\324e\017\332"
 243      A6AB4C92 
 243      590E6629 
 243      B1D2D465 
 243      0FDA
ARM GAS  C:\Users\Luggi\AppData\Local\Temp\ccxS9iG2.s 			page 18


 244 014a 89BE213B 		.ascii	"\211\276!;\326\333\023\037N\364\333\321\356\236xg[t"
 244      D6DB131F 
 244      4EF4DBD1 
 244      EE9E7867 
 244      5B74
 245 015c 209968ED 		.ascii	" \231h\355'\253/\026K\330\311\344/\177\266\233\330"
 245      27AB2F16 
 245      4BD8C9E4 
 245      2F7FB69B 
 245      D8
 246              		.text
 247              		.section	.gnu.lto_isr_Stop.304b20ac,"",%progbits
 248 0000 789C6366 		.ascii	"x\234cf\300\004R@\374\002\210\345\201\230\221\231\201"
 248      C0045240 
 248      FC0288E5 
 248      81989199 
 248      81
 249 0011 9169C239 		.ascii	"\221i\3029\006\206F\016&FF\020\203\201\221\241\236\211"
 249      0686460E 
 249      26464610 
 249      838191A1 
 249      9E89
 250 0023 B19EF125 		.ascii	"\261\236\361%\323G&\306\011\007V\317\340V_\332\320\320"
 250      D34726C6 
 250      090756CF 
 250      E0565FDA 
 250      D0D0
 251 0035 F0E1D145 		.ascii	"\360\341\321E\211V\211\237L\014\014\237\231 \3060.g"
 251      8956899F 
 251      4C0C0C9F 
 251      9920C630 
 251      2E67
 252 0047 546700AA 		.ascii	"Tg\000\252\371\330\362\367:7[\013P\215\000D\216q\005"
 252      F9D8F2F7 
 252      3A375B0B 
 252      508D0044 
 252      8E7105
 253 005a 231B2390 		.ascii	"#\033#\220^/t\240\341\377\377\317\307'\255Pgba`x\002"
 253      5E2F74A0 
 253      E1FFFFCF 
 253      C727AD50 
 253      67626160 
 254 0070 940359F0 		.ascii	"\224\003Y\360\224\211\011D3\337al>\260\371\024\023H"
 254      94890944 
 254      33DF616C 
 254      3EB0F914 
 254      1348
 255 0082 35C89879 		.ascii	"5\310\230y\227\373\3261\325\376n\350h\340\370\311\304"
 255      97FBD631 
 255      D5FE6EE8 
 255      68E0F8C9 
 255      C4
 256 0093 F8990968 		.ascii	"\370\231\011h\002\343J\306Z\206\237@\345w\030[\016\354"
 256      02E34AC6 
 256      5A869F40 
 256      E577185B 
 256      0EEC
ARM GAS  C:\Users\Luggi\AppData\Local\Temp\ccxS9iG2.s 			page 19


 257 00a5 E0C2AA92 		.ascii	"\340\302\252\222\3713P\236\201q\025P%\222\024\304\010"
 257      F933509E 
 257      81711550 
 257      259214C4 
 257      08
 258 00b6 66B00EC6 		.ascii	"f\260\016\306\325\214\265?\201\016\270\307\330x`\267"
 258      D58CB53F 
 258      810EB8C7 
 258      D87860B7 
 259 00c6 17588801 		.ascii	"\027X\210\001\344\032F\220+\200ze\335S\363R\213\022"
 259      E41A4690 
 259      2B807A65 
 259      DD53F352 
 259      8B12
 260 00d8 4B5253E2 		.ascii	"KRS\342\203\363K\213\222Sc\002\202\363\235Mc2\213\213"
 260      83F34B8B 
 260      92536302 
 260      82F39D4D 
 260      63328B8B 
 261 00ec F4921900 		.ascii	"\364\222\031\000\321\247]\245"
 261      D1A75DA5 
 262              		.text
 263              		.section	.gnu.lto_isr_SetPending.304b20ac,"",%progbits
 264 0000 789C6366 		.ascii	"x\234cf\300\004R@\374\000\210\345\201\230\221\231\201"
 264      C0045240 
 264      FC0088E5 
 264      81989199 
 264      81
 265 0011 9169C239 		.ascii	"\221i\3029\006\206F\016&FF\020\203\201\221\241\236\211"
 265      0686460E 
 265      26464610 
 265      838191A1 
 265      9E89
 266 0023 B19EF125 		.ascii	"\261\236\361%\323G&\306\011\007V\317\340V_\332\320\320"
 266      D34726C6 
 266      090756CF 
 266      E0565FDA 
 266      D0D0
 267 0035 F0A169BF 		.ascii	"\360\241i\277d\253\304O&\006\206\317L\020c\030\2273"
 267      64ABC44F 
 267      260686CF 
 267      4C106318 
 267      9733
 268 0047 AA3300D5 		.ascii	"\2523\000\325|l\371{\235\233\255\005\250F\000\"\307"
 268      7C6CF97B 
 268      9D9BAD05 
 268      A8460022 
 268      C7
 269 0058 B882918D 		.ascii	"\270\202\221\215\021H\257\027:\320\360\377\377\347?"
 269      1148AF17 
 269      3AD0F0FF 
 269      FFE73F
 270 0067 535FD8B1 		.ascii	"S_\330\261230<\001\312\201,x\312\304\004\242\231o1\036"
 270      3233303C 
 270      01CA812C 
 270      78CAC404 
 270      A2996F31 
ARM GAS  C:\Users\Luggi\AppData\Local\Temp\ccxS9iG2.s 			page 20


 271 007c FAB0E1EF 		.ascii	"\372\260\341\357SV\220r\2401[n\255}\310\361\202\351"
 271      53569072 
 271      A0315B6E 
 271      AD7DC8F1 
 271      82E9
 272 008e 271363C3 		.ascii	"'\023c\303\221\346\006>\220\311\367\237\234\277\010"
 272      91E6063E 
 272      90C9F79F 
 272      9CBF08
 273 009d 11620071 		.ascii	"\021b\000q\2476\317\372\3101\227qvcK\343\001\326\237"
 273      A736CFFA 
 273      C8319771 
 273      76634BE3 
 273      01D69F
 274 00b0 4C4C8C2B 		.ascii	"LL\214+\031\245\030W1\002\275\303\270\232q.#P\305\244"
 274      19A51857 
 274      3102BDC3 
 274      B89A712E 
 274      2350C5A4 
 275 00c4 F3EBEFF0 		.ascii	"\363\353\357\360\20240\001]\323\300\310\300\270\006"
 275      82343001 
 275      5DD3C0C8 
 275      C0B806
 276 00d3 287B8FB1 		.ascii	"({\217\261\361\300\367p\220- W?\001\032\006\264\035"
 276      F1C0F770 
 276      902D2057 
 276      3F011A06 
 276      B41D
 277 00e5 E81659F7 		.ascii	"\350\026Y\367\324\274\324\242\304\222\324\224\370\340"
 277      D4BCD4A2 
 277      C492D494 
 277      F8E0
 278 00f3 FCD2A2E4 		.ascii	"\374\322\242\344\324\230\200\340|g\323\230\314\342\""
 278      D49880E0 
 278      7C67D398 
 278      CCE222
 279 0102 BD640600 		.ascii	"\275d\006\000\356\200_("
 279      EE805F28 
 280              		.text
 281              		.section	.gnu.lto_isr_ClearPending.304b20ac,"",%progbits
 282 0000 789C6366 		.ascii	"x\234cf\300\004R@\374\000\210\345\201\230\221\231\201"
 282      C0045240 
 282      FC0088E5 
 282      81989199 
 282      81
 283 0011 9169C239 		.ascii	"\221i\3029\006\206F\016&FF\020\203\201\221\241\236\211"
 283      0686460E 
 283      26464610 
 283      838191A1 
 283      9E89
 284 0023 B19EF125 		.ascii	"\261\236\361%\323G&\306\011\007V\317\340V_\332\320\320"
 284      D34726C6 
 284      090756CF 
 284      E0565FDA 
 284      D0D0
 285 0035 F061D255 		.ascii	"\360a\322U\311V\211\237L\014\014\237\231 \3060.gTg\000"
 285      C956899F 
ARM GAS  C:\Users\Luggi\AppData\Local\Temp\ccxS9iG2.s 			page 21


 285      4C0C0C9F 
 285      9920C630 
 285      2E675467 
 286 004a AAF9D8F2 		.ascii	"\252\371\330\362\367:7[\013P\215\000D\216q\005#\033"
 286      F73A375B 
 286      0B508D00 
 286      448E7105 
 286      231B
 287 005c 23905E2F 		.ascii	"#\220^/t\240\341\377\377\315W\247uh\263130<\001\312"
 287      74A0E1FF 
 287      FFCD57A7 
 287      7568B331 
 287      33303C01 
 288 0071 812C78CA 		.ascii	"\201,x\312\304\004\242\231o1\036\372\360\341\3523V\220"
 288      C404A299 
 288      6F311EFA 
 288      F0E1EA33 
 288      5690
 289 0083 72A0317D 		.ascii	"r\2401}\223\346\266\362\276`\372\311\304\330p\264\271"
 289      93E6B6F2 
 289      BE60FAC9 
 289      C4D870B4 
 289      B9
 290 0094 810F64F2 		.ascii	"\201\017d\362\375'\347/r\200\205\030@\3349\0353v\263"
 290      FD27E72F 
 290      72808518 
 290      40DC391D 
 290      3376B3
 291 00a7 CF659CDD 		.ascii	"\317e\234\335\330\322x\200\365'\023\023\343JF)\306U"
 291      D8D27880 
 291      F5271313 
 291      E34A4629 
 291      C655
 292 00b9 8C40EF30 		.ascii	"\214@\3570\256f\234\313\010T1\351\374\372;`3\230\200"
 292      AE669CCB 
 292      085431E9 
 292      FCFA3B60 
 292      339880
 293 00cc AE696064 		.ascii	"\256i`d`\\\003\224\275\307\330x\340f\024\310\026\220"
 293      605C0394 
 293      BDC7D878 
 293      E06614C8 
 293      1690
 294 00de AB9F000D 		.ascii	"\253\237\000\015\003\332\016t\213\254{j^jQbIjJ|p~iQ"
 294      03DA0E74 
 294      8BAC7B6A 
 294      5E6A5162 
 294      496A4A7C 
 295 00f6 726A4C40 		.ascii	"rjL@p\276\263iLfq\221^2\003\000\373M]s"
 295      70BEB369 
 295      4C667191 
 295      5E320300 
 295      FB4D5D73 
 296              		.text
 297              		.section	.gnu.lto_.symbol_nodes.304b20ac,"",%progbits
 298 0000 789C55CA 		.ascii	"x\234U\312\301\015\3020\014\205\341\347\270i\342\264"
 298      C10DC230 
ARM GAS  C:\Users\Luggi\AppData\Local\Temp\ccxS9iG2.s 			page 22


 298      0C85E1E7 
 298      B869E2B4 
 299 0010 1D86095F 		.ascii	"\035\206\011_\305\211#'\316\210\023s0\0003\000\203 "
 299      C5892327 
 299      CE881373 
 299      30003300 
 299      8320
 300 0022 A22642B5 		.ascii	"\242&B\265/O\237~+\200\203\240]P\002\347'@\342r\317"
 300      2F4F9F7E 
 300      2B8083A0 
 300      5D5002E7 
 300      2740E272 
 301 0037 0803C3DF 		.ascii	"\010\003\303\337\327\352Hu\03698'F\347\314\321\331\230"
 301      D7EA4875 
 301      1E393827 
 301      46E7CCD1 
 301      D998
 302 0049 9C0BB333 		.ascii	"\234\013\2633h\316\302\342\0348\355-\013\245\031\353"
 302      68CEC2E2 
 302      1C38ED2D 
 302      0BA519EB 
 303 0059 A9E689B3 		.ascii	"\251\346\211\263{\237\271\354\2559\341\366\372\212f"
 303      7B9FB9EC 
 303      AD39E1F6 
 303      FA8A66
 304 0068 C1635BC5 		.ascii	"\301c[\305g\333\210\343\273\256\365n\275[\357\326{\351"
 304      67DB88E3 
 304      BBAEF56E 
 304      BD5BEFD6 
 304      7BE9
 305 007a BDB48E1F 		.ascii	"\275\264\216\037\257\376T\012"
 305      AFFE540A 
 306              		.text
 307              		.section	.gnu.lto_.refs.304b20ac,"",%progbits
 308 0000 789C6366 		.ascii	"x\234cf``\340f\200\000F\016&\006&F.&n&\006\000\002\015"
 308      6060E066 
 308      8000460E 
 308      26062646 
 308      2E266E26 
 309 0018 0036     		.ascii	"\0006"
 310              		.text
 311              		.section	.gnu.lto_.decls.304b20ac,"",%progbits
 312 0000 789C8D96 		.ascii	"x\234\215\226mLSW\030\307\357\351ik\337,\356\013.&K"
 312      6D4C5357 
 312      18C7EFE9 
 312      696BDF2C 
 312      EE0B2E26 
 313 0015 E00BC912 		.ascii	"\340\013\311\022\342\022\215\211\337f\246\006\247\311"
 313      E2128D89 
 313      DF66A606 
 313      A7C9
 314 0023 4242B62F 		.ascii	"BB\266/\232\270\016\356\034\011)\246\224e|\273\003\214"
 314      9AB80EEE 
 314      1C0929A6 
 314      94657CBB 
 314      038C
 315 0035 0C0D2308 		.ascii	"\014\015#\010\021\305(*8y\257(\310\213h\013\"\305\372"
ARM GAS  C:\Users\Luggi\AppData\Local\Temp\ccxS9iG2.s 			page 23


 315      11C5282A 
 315      3879AF28 
 315      C88B680B 
 315      22C5FA
 316 0048 0202455E 		.ascii	"\002\002E^6y\221\202!*\232I40\272\347\274\\{\252E\275"
 316      36799182 
 316      212A9A49 
 316      3430BAE7 
 316      BC5C7BAA 
 317 005e C943EFB9 		.ascii	"\311C\357\271}\236\337\3779\377s\316-X\222\244\037\261"
 317      7D9EDFFF 
 317      39FF73CE 
 317      2D5892A4 
 317      1FB1
 318 0070 2405E16A 		.ascii	"$\005\341j1HR<\222$+<K\204\320@DC\324H\354\"\317\353"
 318      3148523C 
 318      92242B3C 
 318      4B84D040 
 318      4443D448 
 319 0088 201A209A 		.ascii	" \032 \232!Z!:!\272!z z!|\020w!\356C\364C\014@\014I"
 319      215A213A 
 319      21BA217A 
 319      207A217C 
 319      107721EE 
 320 00a3 EF5F8483 		.ascii	"\357_\204\203\270\216\304\357\353\"\344\021\035=\317"
 320      B88EC4EF 
 320      EB22E411 
 320      1D3DCF
 321 00b2 23FA1688 		.ascii	"#\372\026\210F\010?\304\260P\333\034\241\226\364\247"
 321      46083FC4 
 321      B050DB1C 
 321      A196F4A7 
 322 00c2 FB485D6B 		.ascii	"\373H]k\204\272N^G4;\270\007\243\020\343B]g\204\272"
 322      84BA4E5E 
 322      47343BB8 
 322      07A310E3 
 322      425D6784 
 323 00d7 6E5EA7D6 		.ascii	"n^\247\326\214\363\272\335B]w\204:\342\035\346z\001"
 323      8CF3BADD 
 323      425D7784 
 323      3AE21DE6 
 323      7A01
 324 00e9 881921BF 		.ascii	"\210\031!\277'B>\361Y\313ub#\324\364F\250\361}@\303"
 324      27423EF1 
 324      59CB7562 
 324      23D4F446 
 324      A8F17D40 
 325 00fe 17219FAC 		.ascii	"\027!\237\254\241\201\347\223\365\257\202\230\205\270"
 325      A181E793 
 325      F5AF8298 
 325      85B8
 326 010c 0231C7E7 		.ascii	"\0021\307\347\347\346\271z\236O8d\035\310:v\256\322"
 326      E7E6B97A 
 326      9E4F3864 
 326      1DC83A76 
 326      AED2
 327 011e 3BD91766 		.ascii	";\331\027f\351\375\365\374\230\206\216\327\252\032\253"
ARM GAS  C:\Users\Luggi\AppData\Local\Temp\ccxS9iG2.s 			page 24


 327      E9FDF5FC 
 327      98868ED7 
 327      AA1AAB
 328 012d F1FBA5D0 		.ascii	"\361\373\245\320\332\275\313$\227\226\347\250\234\206"
 328      DABDCB24 
 328      9796E7A8 
 328      9C86
 329 013b 080CB267 		.ascii	"\010\014\262gW\363j B\376\320\007\362#\355\375\027\032"
 329      57F36A20 
 329      42FED007 
 329      F223EDFD 
 329      171A
 330 014d D45AFFEF 		.ascii	"\324Z\377\357]\363\234\006YM1d\330V\344-\325\303\320"
 330      5DF39C06 
 330      594D3164 
 330      D856E42D 
 330      D5C3D0
 331 0160 62D29261 		.ascii	"b\322\222a\373\322\324\240v}\211\002Wa\216\262N\213"
 331      FBD2D4A0 
 331      767D8902 
 331      57618EB2 
 331      4E8B
 332 0172 12A3D15F 		.ascii	"\022\243\321_h\003\272\2106\000\265\012\255\207\277"
 332      6803BA88 
 332      3600B50A 
 332      AD87BF
 333 0181 7BB58C74 		.ascii	"{\265\214t\276tr\320\024_\015\251y\212{]H\241a\261\257"
 333      BE7472D0 
 333      145F0DA9 
 333      798A7B5D 
 333      48A161B1 
 334 0196 DA6CC957 		.ascii	"\332l\311W\224l\3020\356\"e\002\244\006YP5\212\227\330"
 334      946CC230 
 334      EE226502 
 334      A4065950 
 334      358A97D8 
 335 01aa 2DE48FE5 		.ascii	"-\344\217\345.\357\306FDJ;\224\312#\306\230\323\312"
 335      2EEFC646 
 335      444A3B94 
 335      CA23C698 
 335      D3CA
 336 01bc 826BA1A1 		.ascii	"\202k\241\241p\317\011\245<[Y\011\006\021UF\265\010"
 336      70CF09A5 
 336      3C5B5909 
 336      06115546 
 336      B508
 337 01ce F34289DC 		.ascii	"\363B\211\334\263\211\326\241\030\250\033:\326\356\305"
 337      B389D6A1 
 337      18A81B3A 
 337      D6EEC5
 338 01dd 780B658C 		.ascii	"x\013e\214)\035^+0&\224\362\221F\345\233\\e9\030\304"
 338      291D5E2B 
 338      302694F2 
 338      9146E59B 
 338      5C653918 
 339 01f2 14502F00 		.ascii	"\024P/\000\352U@\003\005\264z\233\246\020N \000\215"
 339      EA554003 
ARM GAS  C:\Users\Luggi\AppData\Local\Temp\ccxS9iG2.s 			page 25


 339      05B47A9B 
 339      A6104E20 
 339      008D
 340 0204 F2ACAFCC 		.ascii	"\362\254\257\314\200\342,\0250\263\205\332\256YK\235"
 340      80E22C15 
 340      30B385DA 
 340      AE594B9D 
 341 0214 A2185023 		.ascii	"\242\030P#\264\355z\013 \255\263\011\2572Ot\011\305"
 341      B4ED7A0B 
 341      20ADB309 
 341      AF324F74 
 341      09C5
 342 0226 09530589 		.ascii	"\011S\005\211\332\371\271*\235\026\336l\024\265\227"
 342      DAF9B92A 
 342      9D16DE6C 
 342      14B597
 343 0235 DA3D3BDD 		.ascii	"\332=;\335\366\\\267\252\335W\250\335\227\021\367\273"
 343      F65CB7AA 
 343      DD57A8DD 
 343      9711F7BB 
 344 0245 37F07AC5 		.ascii	"7\360z\305\212\177\245\223,9V\237I\346\010>\271\012"
 344      8A7FA593 
 344      2C39569F 
 344      49E6083E 
 344      B90A
 345 0257 B06014D4 		.ascii	"\260`\024\324\240&a\236M\352<\233\351<\247r\2241\263"
 345      A026619E 
 345      4DEA3C9B 
 345      E93CA772 
 345      9431B3
 346 026a 28487A09 		.ascii	"(Hz\011)^\015[\340\340\255\2633\030\347\"\252\010J\331"
 346      295E0D5B 
 346      E0E0ADB3 
 346      3318E722 
 346      AA084AD9 
 347 027e 6B41B2DC 		.ascii	"kA\262\3345\341\355\351\261(^\305\035\014~m %\250E\020"
 347      35E1EDE9 
 347      B1285EC5 
 347      1D0C7E6D 
 347      2025A845 
 348 0293 6C51055B 		.ascii	"lQ\005[\251\240\377\306\341\303\006\\\304\030\277_h"
 348      A9A0FFC6 
 348      E1C3065C 
 348      C418BF5F 
 348      68
 349 02a4 3FBA0636 		.ascii	"?\272\0066[\264\211\362\013|'=\230\016\203\324\370\221"
 349      5BB489F2 
 349      0B7C273D 
 349      980E83D4 
 349      F891
 350 02b6 91E23718 		.ascii	"\221\3427\030\231\342\362\210\245\013E\012\376\\B\361"
 350      99E2F288 
 350      A50B450A 
 350      FE5C42F1 
 351 02c6 1BD097E0 		.ascii	"\033\320\227\340\346up3\332DEP;\264{\015\332\345\353"
 351      E6757033 
 351      DA444550 
ARM GAS  C:\Users\Luggi\AppData\Local\Temp\ccxS9iG2.s 			page 26


 351      3BB47B0D 
 351      DAE5EB
 352 02d9 53BD2747 		.ascii	"S\275'G\331\206:\220\011\265\205\226\207(\360\355Xx"
 352      D9863A90 
 352      09B58596 
 352      8728F0ED 
 352      5878
 353 02eb C853A8A5 		.ascii	"\310S\250\245\276\223\034\346\373\253\340d\245fU\337"
 353      BE931CE6 
 353      FBABE064 
 353      A56655DF 
 354 02fb DDD4851B 		.ascii	"\335\324\205\033\252\357M/jr\364\270\224M\241x\241\262"
 354      AAEF4D2F 
 354      6A72F4B8 
 354      944DA178 
 354      A1B2
 355 030d 4ACF9D2F 		.ascii	"J\317\235/.\022\235\207*\344\021\214\360\250FtR#\376"
 355      2E129D87 
 355      2AE4118C 
 355      F0A84674 
 355      5223FE
 356 0320 C8756151 		.ascii	"\310uaQ\2214\023\222\354\0123\376\224\277 \337\214/"
 356      91341392 
 356      EC0A33FE 
 356      94BF20DF 
 356      8C2F
 357 0332 32C59127 		.ascii	"2\305\221'\256 f\306\267<\221\335l?\323\012tS\220\273"
 357      AE2066C6 
 357      B73C91DD 
 357      6C3FD30A 
 357      745390BB 
 358 0346 A9CA7553 		.ascii	"\251\312uS\271\343%\271\031\270\205\021\316?\273\274"
 358      B9E325B9 
 358      19B88511 
 358      CE3FBBBC 
 359 0356 ACA13D4F 		.ascii	"\254\241=O\314\367\206\010d\273\336\022\010\267TB\017"
 359      CCF78608 
 359      64BBDE12 
 359      08B75442 
 359      0F
 360 0367 25543F6E 		.ascii	"%T?n:\241\307]\014QY{\244[\307\232(\235\017o\302+ \274"
 360      3AA1C75D 
 360      0C51597B 
 360      A45BC79A 
 360      289D0F6F 
 361 037f 2AA29722 		.ascii	"*\242\227\"\316^\353\256\261\342>\206\350>s\324ca]t"
 361      CE5EEBAE 
 361      B1E23E86 
 361      E83E73D4 
 361      63615D74 
 362 0393 F8C2BBB8 		.ascii	"\370\302\273\270- n\253\010\037E\254\004N\336\324\340"
 362      2D206EAB 
 362      081F45AC 
 362      044EDED4 
 362      E0
 363 03a4 7186F0B7 		.ascii	"q\206\360\267\315x\230\025\345\3775*\333\204\243}G "
 363      CD789815 
ARM GAS  C:\Users\Luggi\AppData\Local\Temp\ccxS9iG2.s 			page 27


 363      E5FF352A 
 363      DB84A37D 
 363      4720
 364 03b6 DC510977 		.ascii	"\334Q\011w)\341\352bC\273\025\007\030\341\325\271\027"
 364      29E1EA62 
 364      43BB1507 
 364      18E1D5B9 
 364      17
 365 03c7 D3264678 		.ascii	"\323&Fxx^\317\3660=3\367\004\300=\025p\237\002\012\336"
 365      785ECFF6 
 365      303D33F7 
 365      04C03D15 
 365      709F020A 
 366 03dc CC0E58F1 		.ascii	"\314\016X\361K\0068\224{\352i\024\003\024T\252\000\322"
 366      4B063894 
 366      7BEA6914 
 366      031454AA 
 366      00D2
 367 03ee 419F00E8 		.ascii	"A\237\000\350S\001\375\024P\372\262\270\336\200\227"
 367      5301FD14 
 367      50FAB2B8 
 367      DE8097
 368 03fd 18E0CE85 		.ascii	"\030\340\316\205\022\017\357\340u\215\010x \000\036"
 368      120FEFE0 
 368      758D0878 
 368      20001E
 369 040c A880010A 		.ascii	"\250\200\001\012\360\016M\237\323\342|\015\005\004|"
 369      F00E4D9F 
 369      D3E27C0D 
 369      05047C
 370 041b F3ED4606 		.ascii	"\363\355F\006\250\252\023\001\203\002`P\005\014Q\300"
 370      A8AA1301 
 370      83026050 
 370      050C51C0 
 371 042b FDC363CB 		.ascii	"\375\303c\313\032\361\225\034~\354\375\354eF>!\271\313"
 371      1AF1951C 
 371      7EECFDEC 
 371      65463E21 
 371      B9CB
 372 043d F7FC9051 		.ascii	"\367\374\220QL\366\207%\017\363\344a\232\254\034?Ra"
 372      4CF68725 
 372      0FF3E461 
 372      9AAC1C3F 
 372      5261
 373 044f C065ACB5 		.ascii	"\300e\254\265\246\305\374\326\265&8\2769\237p|\341\300"
 373      A6C5FCD6 
 373      B52638BE 
 373      399F707C 
 373      E1C0
 374 0461 0FDECBF7 		.ascii	"\017\336\313\367\033\331\201\177\267bl\325\003\237s"
 374      1BD9817F 
 374      B7626CD5 
 374      039F73
 375 0470 C3D24B5E 		.ascii	"\303\322K^\310\243p\200\036\206N\374\010\342G\236|\001"
 375      C8A37080 
 375      1E864EFC 
 375      08E2479E 
ARM GAS  C:\Users\Luggi\AppData\Local\Temp\ccxS9iG2.s 			page 28


 375      7C01
 376 0482 BD0CFAB2 		.ascii	"\275\014\372\262\307\2608\213\321\260\0037\316g1Ng\221"
 376      C7B0388B 
 376      D1B00337 
 376      CE67314E 
 376      6791
 377 0494 57D43CAF 		.ascii	"W\324<\257\303\345\232\260\267T,{K=*{Sa\244C\362\237"
 377      C3E59AB0 
 377      B7542C7B 
 377      4B3D2A7B 
 377      5361A443 
 378 04aa 6A147934 		.ascii	"j\024y4\371p\370\332\032|\201\246k\236\026g\007\315"
 378      F970F8DA 
 378      1A7C81A6 
 378      6B9E1667 
 378      07CD
 379 04bc 28CE44BA 		.ascii	"(\316D\272\233\250\255\263*\010M\201\324D\250\265X\336"
 379      9BA8ADB3 
 379      2A084D81 
 379      D444A8B5 
 379      58DE
 380 04ce 59DEDB66 		.ascii	"Y\336\333f\244\320\357\304$L4\226O\364\037x\370\210"
 380      A4D0EFC4 
 380      244C3496 
 380      4FF41F78 
 380      F888
 381 04e0 5A835A4B 		.ascii	"Z\203ZK\372{L\314\312O\253\320\270/\027.Y\324>V.Uh\024"
 381      FA7B4CCC 
 381      CA4FABD0 
 381      B82F172E 
 381      59D43E56 
 382 04f8 458B66A0 		.ascii	"E\213f\240\223\277C\235L\243P+\357\203\037Gne\346\361"
 382      93BF439D 
 382      4CA3502B 
 382      EF831F47 
 382      6E65E6F1 
 383 050c 9925BDE8 		.ascii	"\231%\275\350\344L\230\223\001\356d\200:\271X\366\347"
 383      E44C9893 
 383      01EE6480 
 383      3AB958F6 
 383      E7
 384 051d B330DBAF 		.ascii	"\2630\333\257\204\375\370\317\362\344Y\232|\3325\032"
 384      84FDF8CF 
 384      F2E4599A 
 384      7CDA351A 
 385 052d 2BE6BAC3 		.ascii	"+\346\272\303r\347x.\371\324'|\367}\314vimj\206c\377"
 385      72E7782E 
 385      F9D4277C 
 385      F77DCC76 
 385      696D6A86 
 386 0543 B776A7EC 		.ascii	"\267v\247\354pd\036t~\221 \333e\207\315)\247\354OJ\317"
 386      70641E74 
 386      7E9120DB 
 386      6587CD29 
 386      A7EC4F4A 
 387 0558 7424CBFB 		.ascii	"t$\313\373\022\223\322\267o\331\007I\033\223\245\317"
 387      1293D2B7 
ARM GAS  C:\Users\Luggi\AppData\Local\Temp\ccxS9iG2.s 			page 29


 387      6FD90749 
 387      1B93A5CF 
 388 0568 206F87FC 		.ascii	" o\207\374\263-3\315\271\313fOI\223\035\226\344,\370"
 388      B32D33CD 
 388      B9CB664F 
 388      49931D96 
 388      E42CF8
 389 057b CA9692E2 		.ascii	"\312\226\222\342\22032b#\027\177\225\234\345\314:(g"
 389      90333262 
 389      23177F95 
 389      9CE5CC3A 
 389      2867
 390 058d 6CFC8589 		.ascii	"l\374\205\211%\311\316\037\344dg\272\203\216\022\324"
 390      25C9CE1F 
 390      E46467BA 
 390      838E12D4 
 391 059d 912E33D5 		.ascii	"\221.3\325\356\334\032\3053\022\035\251\351\216TgV\024"
 391      EEDC1AC5 
 391      33121DA9 
 391      E98E5467 
 391      5614
 392 05af CF51C726 		.ascii	"\317Q\307&2\336i\267\375\224&[\370WIN\2204\223\301\216"
 392      32DE69B7 
 392      FD94265B 
 392      F857494E 
 392      903493C1 
 393 05c4 D40CF285 		.ascii	"\324\014\362\205\2212\2346\207\323\374\366n\347o\006"
 393      91329C36 
 393      87D3FCF6 
 393      6EE76F06 
 394 05d4 769F7ED0 		.ascii	"v\237~\320\252J\310\366\224T\373\201ud\270=M\2669\370"
 394      AA4AC8F6 
 394      9454FB81 
 394      7564B83D 
 394      4DB639F8 
 395 05e8 03AD433E 		.ascii	"\003\255C>\260U\007\1776o\322\223\2366o\372\037\307"
 395      B055077F 
 395      366FD293 
 395      9E366FFA 
 395      1FC7
 396 05fa 9E684E   		.ascii	"\236hN"
 397              		.text
 398              		.section	.gnu.lto_.symtab.304b20ac,"",%progbits
 399 0000 6973725F 		.ascii	"isr_Interrupt\000\000\000\000\000\000\000\000\000\000"
 399      496E7465 
 399      72727570 
 399      74000000 
 399      00000000 
 400 0017 0000AD00 		.ascii	"\000\000\255\000\000\000isr_SetVector\000\000\000\000"
 400      00006973 
 400      725F5365 
 400      74566563 
 400      746F7200 
 401 002e 00000000 		.ascii	"\000\000\000\000\000\000\000\000\266\000\000\000isr"
 401      00000000 
 401      B6000000 
 401      697372
ARM GAS  C:\Users\Luggi\AppData\Local\Temp\ccxS9iG2.s 			page 30


 402 003d 5F476574 		.ascii	"_GetVector\000\000\000\000\000\000\000\000\000\000\000"
 402      56656374 
 402      6F720000 
 402      00000000 
 402      00000000 
 403 0052 00B90000 		.ascii	"\000\271\000\000\000isr_SetPriority\000\000\000\000"
 403      00697372 
 403      5F536574 
 403      5072696F 
 403      72697479 
 404 006a 00000000 		.ascii	"\000\000\000\000\000\000\000\000\302\000\000\000isr"
 404      00000000 
 404      C2000000 
 404      697372
 405 0079 5F476574 		.ascii	"_GetPriority\000\000\000\000\000\000\000\000\000\000"
 405      5072696F 
 405      72697479 
 405      00000000 
 405      00000000 
 406 008f 0000C500 		.ascii	"\000\000\305\000\000\000isr_Enable\000\000\000\000\000"
 406      00006973 
 406      725F456E 
 406      61626C65 
 406      00000000 
 407 00a4 00000000 		.ascii	"\000\000\000\000\000\000\000\307\000\000\000isr_Get"
 407      000000C7 
 407      00000069 
 407      73725F47 
 407      6574
 408 00b6 53746174 		.ascii	"State\000\000\000\000\000\000\000\000\000\000\000\000"
 408      65000000 
 408      00000000 
 408      00000000 
 408      00
 409 00c7 C9000000 		.ascii	"\311\000\000\000isr_Disable\000\000\000\000\000\000"
 409      6973725F 
 409      44697361 
 409      626C6500 
 409      00000000 
 410 00dc 00000000 		.ascii	"\000\000\000\000\000\000\313\000\000\000isr_Start\000"
 410      0000CB00 
 410      00006973 
 410      725F5374 
 410      61727400 
 411 00f0 00000000 		.ascii	"\000\000\000\000\000\000\000\000\000\000\000\315\000"
 411      00000000 
 411      000000CD 
 411      00
 412 00fd 00006973 		.ascii	"\000\000isr_StartEx\000\000\000\000\000\000\000\000"
 412      725F5374 
 412      61727445 
 412      78000000 
 412      00000000 
 413 0112 00000000 		.ascii	"\000\000\000\000\317\000\000\000isr_Stop\000\000\000"
 413      CF000000 
 413      6973725F 
 413      53746F70 
ARM GAS  C:\Users\Luggi\AppData\Local\Temp\ccxS9iG2.s 			page 31


 413      000000
 414 0125 00000000 		.ascii	"\000\000\000\000\000\000\000\000\000\321\000\000\000"
 414      00000000 
 414      00D10000 
 414      00
 415 0132 6973725F 		.ascii	"isr_SetPending\000\000\000\000\000\000\000\000\000\000"
 415      53657450 
 415      656E6469 
 415      6E670000 
 415      00000000 
 416 014a 0000D300 		.ascii	"\000\000\323\000\000\000isr_ClearPending\000\000\000"
 416      00006973 
 416      725F436C 
 416      65617250 
 416      656E6469 
 417 0163 00000000 		.ascii	"\000\000\000\000\000\000\000\000\000\325\000\000\000"
 417      00000000 
 417      00D50000 
 417      00
 418 0170 496E7444 		.ascii	"IntDefaultHandler\000\000\002\000\000\000\000\000\000"
 418      65666175 
 418      6C744861 
 418      6E646C65 
 418      72000002 
 419 018a 000000AF 		.ascii	"\000\000\000\257\000\000\000"
 419      000000
 420              		.text
 421              		.section	.gnu.lto_.opts,"",%progbits
 422 0000 272D666E 		.ascii	"'-fno-trapv' '-fno-strict-overflow' '-mcpu=cortex-m"
 422      6F2D7472 
 422      61707627 
 422      20272D66 
 422      6E6F2D73 
 423 0033 33272027 		.ascii	"3' '-mthumb' '-g' '-Og' '-ffunction-sections' '-flt"
 423      2D6D7468 
 423      756D6227 
 423      20272D67 
 423      2720272D 
 424 0066 6F272027 		.ascii	"o' '-ffat-lto-objects'\000"
 424      2D666661 
 424      742D6C74 
 424      6F2D6F62 
 424      6A656374 
 425              		.text
 426              		.cfi_sections	.debug_frame
 427              		.section	.text.isr_Interrupt,"ax",%progbits
 428              		.align	2
 429              		.global	isr_Interrupt
 430              		.thumb
 431              		.thumb_func
 432              		.type	isr_Interrupt, %function
 433              	isr_Interrupt:
 434              	.LFB3:
 435              		.file 1 "Generated_Source\\PSoC5\\isr.c"
   1:Generated_Source\PSoC5/isr.c **** /*******************************************************************************
   2:Generated_Source\PSoC5/isr.c **** * File Name: isr.c  
   3:Generated_Source\PSoC5/isr.c **** * Version 1.70
ARM GAS  C:\Users\Luggi\AppData\Local\Temp\ccxS9iG2.s 			page 32


   4:Generated_Source\PSoC5/isr.c **** *
   5:Generated_Source\PSoC5/isr.c **** *  Description:
   6:Generated_Source\PSoC5/isr.c **** *   API for controlling the state of an interrupt.
   7:Generated_Source\PSoC5/isr.c **** *
   8:Generated_Source\PSoC5/isr.c **** *
   9:Generated_Source\PSoC5/isr.c **** *  Note:
  10:Generated_Source\PSoC5/isr.c **** *
  11:Generated_Source\PSoC5/isr.c **** ********************************************************************************
  12:Generated_Source\PSoC5/isr.c **** * Copyright 2008-2015, Cypress Semiconductor Corporation.  All rights reserved.
  13:Generated_Source\PSoC5/isr.c **** * You may use this file only in accordance with the license, terms, conditions, 
  14:Generated_Source\PSoC5/isr.c **** * disclaimers, and limitations in the end user license agreement accompanying 
  15:Generated_Source\PSoC5/isr.c **** * the software package with which this file was provided.
  16:Generated_Source\PSoC5/isr.c **** *******************************************************************************/
  17:Generated_Source\PSoC5/isr.c **** 
  18:Generated_Source\PSoC5/isr.c **** 
  19:Generated_Source\PSoC5/isr.c **** #include <cydevice_trm.h>
  20:Generated_Source\PSoC5/isr.c **** #include <CyLib.h>
  21:Generated_Source\PSoC5/isr.c **** #include <isr.h>
  22:Generated_Source\PSoC5/isr.c **** 
  23:Generated_Source\PSoC5/isr.c **** 
  24:Generated_Source\PSoC5/isr.c **** #if !defined(isr__REMOVED) /* Check for removal by optimization */
  25:Generated_Source\PSoC5/isr.c **** 
  26:Generated_Source\PSoC5/isr.c **** /*******************************************************************************
  27:Generated_Source\PSoC5/isr.c **** *  Place your includes, defines and code here 
  28:Generated_Source\PSoC5/isr.c **** ********************************************************************************/
  29:Generated_Source\PSoC5/isr.c **** /* `#START isr_intc` */
  30:Generated_Source\PSoC5/isr.c **** 
  31:Generated_Source\PSoC5/isr.c **** /* `#END` */
  32:Generated_Source\PSoC5/isr.c **** 
  33:Generated_Source\PSoC5/isr.c **** #ifndef CYINT_IRQ_BASE
  34:Generated_Source\PSoC5/isr.c **** #define CYINT_IRQ_BASE      16
  35:Generated_Source\PSoC5/isr.c **** #endif /* CYINT_IRQ_BASE */
  36:Generated_Source\PSoC5/isr.c **** #ifndef CYINT_VECT_TABLE
  37:Generated_Source\PSoC5/isr.c **** #define CYINT_VECT_TABLE    ((cyisraddress **) CYREG_NVIC_VECT_OFFSET)
  38:Generated_Source\PSoC5/isr.c **** #endif /* CYINT_VECT_TABLE */
  39:Generated_Source\PSoC5/isr.c **** 
  40:Generated_Source\PSoC5/isr.c **** /* Declared in startup, used to set unused interrupts to. */
  41:Generated_Source\PSoC5/isr.c **** CY_ISR_PROTO(IntDefaultHandler);
  42:Generated_Source\PSoC5/isr.c **** 
  43:Generated_Source\PSoC5/isr.c **** 
  44:Generated_Source\PSoC5/isr.c **** /*******************************************************************************
  45:Generated_Source\PSoC5/isr.c **** * Function Name: isr_Start
  46:Generated_Source\PSoC5/isr.c **** ********************************************************************************
  47:Generated_Source\PSoC5/isr.c **** *
  48:Generated_Source\PSoC5/isr.c **** * Summary:
  49:Generated_Source\PSoC5/isr.c **** *  Set up the interrupt and enable it. This function disables the interrupt, 
  50:Generated_Source\PSoC5/isr.c **** *  sets the default interrupt vector, sets the priority from the value in the
  51:Generated_Source\PSoC5/isr.c **** *  Design Wide Resources Interrupt Editor, then enables the interrupt to the 
  52:Generated_Source\PSoC5/isr.c **** *  interrupt controller.
  53:Generated_Source\PSoC5/isr.c **** *
  54:Generated_Source\PSoC5/isr.c **** * Parameters:  
  55:Generated_Source\PSoC5/isr.c **** *   None
  56:Generated_Source\PSoC5/isr.c **** *
  57:Generated_Source\PSoC5/isr.c **** * Return:
  58:Generated_Source\PSoC5/isr.c **** *   None
  59:Generated_Source\PSoC5/isr.c **** *
  60:Generated_Source\PSoC5/isr.c **** *******************************************************************************/
ARM GAS  C:\Users\Luggi\AppData\Local\Temp\ccxS9iG2.s 			page 33


  61:Generated_Source\PSoC5/isr.c **** void isr_Start(void)
  62:Generated_Source\PSoC5/isr.c **** {
  63:Generated_Source\PSoC5/isr.c ****     /* For all we know the interrupt is active. */
  64:Generated_Source\PSoC5/isr.c ****     isr_Disable();
  65:Generated_Source\PSoC5/isr.c **** 
  66:Generated_Source\PSoC5/isr.c ****     /* Set the ISR to point to the isr Interrupt. */
  67:Generated_Source\PSoC5/isr.c ****     isr_SetVector(&isr_Interrupt);
  68:Generated_Source\PSoC5/isr.c **** 
  69:Generated_Source\PSoC5/isr.c ****     /* Set the priority. */
  70:Generated_Source\PSoC5/isr.c ****     isr_SetPriority((uint8)isr_INTC_PRIOR_NUMBER);
  71:Generated_Source\PSoC5/isr.c **** 
  72:Generated_Source\PSoC5/isr.c ****     /* Enable it. */
  73:Generated_Source\PSoC5/isr.c ****     isr_Enable();
  74:Generated_Source\PSoC5/isr.c **** }
  75:Generated_Source\PSoC5/isr.c **** 
  76:Generated_Source\PSoC5/isr.c **** 
  77:Generated_Source\PSoC5/isr.c **** /*******************************************************************************
  78:Generated_Source\PSoC5/isr.c **** * Function Name: isr_StartEx
  79:Generated_Source\PSoC5/isr.c **** ********************************************************************************
  80:Generated_Source\PSoC5/isr.c **** *
  81:Generated_Source\PSoC5/isr.c **** * Summary:
  82:Generated_Source\PSoC5/isr.c **** *  Sets up the interrupt and enables it. This function disables the interrupt,
  83:Generated_Source\PSoC5/isr.c **** *  sets the interrupt vector based on the address passed in, sets the priority 
  84:Generated_Source\PSoC5/isr.c **** *  from the value in the Design Wide Resources Interrupt Editor, then enables 
  85:Generated_Source\PSoC5/isr.c **** *  the interrupt to the interrupt controller.
  86:Generated_Source\PSoC5/isr.c **** *  
  87:Generated_Source\PSoC5/isr.c **** *  When defining ISR functions, the CY_ISR and CY_ISR_PROTO macros should be 
  88:Generated_Source\PSoC5/isr.c **** *  used to provide consistent definition across compilers:
  89:Generated_Source\PSoC5/isr.c **** *  
  90:Generated_Source\PSoC5/isr.c **** *  Function definition example:
  91:Generated_Source\PSoC5/isr.c **** *   CY_ISR(MyISR)
  92:Generated_Source\PSoC5/isr.c **** *   {
  93:Generated_Source\PSoC5/isr.c **** *   }
  94:Generated_Source\PSoC5/isr.c **** *   Function prototype example:
  95:Generated_Source\PSoC5/isr.c **** *   CY_ISR_PROTO(MyISR);
  96:Generated_Source\PSoC5/isr.c **** *
  97:Generated_Source\PSoC5/isr.c **** * Parameters:  
  98:Generated_Source\PSoC5/isr.c **** *   address: Address of the ISR to set in the interrupt vector table.
  99:Generated_Source\PSoC5/isr.c **** *
 100:Generated_Source\PSoC5/isr.c **** * Return:
 101:Generated_Source\PSoC5/isr.c **** *   None
 102:Generated_Source\PSoC5/isr.c **** *
 103:Generated_Source\PSoC5/isr.c **** *******************************************************************************/
 104:Generated_Source\PSoC5/isr.c **** void isr_StartEx(cyisraddress address)
 105:Generated_Source\PSoC5/isr.c **** {
 106:Generated_Source\PSoC5/isr.c ****     /* For all we know the interrupt is active. */
 107:Generated_Source\PSoC5/isr.c ****     isr_Disable();
 108:Generated_Source\PSoC5/isr.c **** 
 109:Generated_Source\PSoC5/isr.c ****     /* Set the ISR to point to the isr Interrupt. */
 110:Generated_Source\PSoC5/isr.c ****     isr_SetVector(address);
 111:Generated_Source\PSoC5/isr.c **** 
 112:Generated_Source\PSoC5/isr.c ****     /* Set the priority. */
 113:Generated_Source\PSoC5/isr.c ****     isr_SetPriority((uint8)isr_INTC_PRIOR_NUMBER);
 114:Generated_Source\PSoC5/isr.c **** 
 115:Generated_Source\PSoC5/isr.c ****     /* Enable it. */
 116:Generated_Source\PSoC5/isr.c ****     isr_Enable();
 117:Generated_Source\PSoC5/isr.c **** }
ARM GAS  C:\Users\Luggi\AppData\Local\Temp\ccxS9iG2.s 			page 34


 118:Generated_Source\PSoC5/isr.c **** 
 119:Generated_Source\PSoC5/isr.c **** 
 120:Generated_Source\PSoC5/isr.c **** /*******************************************************************************
 121:Generated_Source\PSoC5/isr.c **** * Function Name: isr_Stop
 122:Generated_Source\PSoC5/isr.c **** ********************************************************************************
 123:Generated_Source\PSoC5/isr.c **** *
 124:Generated_Source\PSoC5/isr.c **** * Summary:
 125:Generated_Source\PSoC5/isr.c **** *   Disables and removes the interrupt.
 126:Generated_Source\PSoC5/isr.c **** *
 127:Generated_Source\PSoC5/isr.c **** * Parameters:  
 128:Generated_Source\PSoC5/isr.c **** *   None
 129:Generated_Source\PSoC5/isr.c **** *
 130:Generated_Source\PSoC5/isr.c **** * Return:
 131:Generated_Source\PSoC5/isr.c **** *   None
 132:Generated_Source\PSoC5/isr.c **** *
 133:Generated_Source\PSoC5/isr.c **** *******************************************************************************/
 134:Generated_Source\PSoC5/isr.c **** void isr_Stop(void)
 135:Generated_Source\PSoC5/isr.c **** {
 136:Generated_Source\PSoC5/isr.c ****     /* Disable this interrupt. */
 137:Generated_Source\PSoC5/isr.c ****     isr_Disable();
 138:Generated_Source\PSoC5/isr.c **** 
 139:Generated_Source\PSoC5/isr.c ****     /* Set the ISR to point to the passive one. */
 140:Generated_Source\PSoC5/isr.c ****     isr_SetVector(&IntDefaultHandler);
 141:Generated_Source\PSoC5/isr.c **** }
 142:Generated_Source\PSoC5/isr.c **** 
 143:Generated_Source\PSoC5/isr.c **** 
 144:Generated_Source\PSoC5/isr.c **** /*******************************************************************************
 145:Generated_Source\PSoC5/isr.c **** * Function Name: isr_Interrupt
 146:Generated_Source\PSoC5/isr.c **** ********************************************************************************
 147:Generated_Source\PSoC5/isr.c **** *
 148:Generated_Source\PSoC5/isr.c **** * Summary:
 149:Generated_Source\PSoC5/isr.c **** *   The default Interrupt Service Routine for isr.
 150:Generated_Source\PSoC5/isr.c **** *
 151:Generated_Source\PSoC5/isr.c **** *   Add custom code between the coments to keep the next version of this file
 152:Generated_Source\PSoC5/isr.c **** *   from over writting your code.
 153:Generated_Source\PSoC5/isr.c **** *
 154:Generated_Source\PSoC5/isr.c **** * Parameters:  
 155:Generated_Source\PSoC5/isr.c **** *
 156:Generated_Source\PSoC5/isr.c **** * Return:
 157:Generated_Source\PSoC5/isr.c **** *   None
 158:Generated_Source\PSoC5/isr.c **** *
 159:Generated_Source\PSoC5/isr.c **** *******************************************************************************/
 160:Generated_Source\PSoC5/isr.c **** CY_ISR(isr_Interrupt)
 161:Generated_Source\PSoC5/isr.c **** {
 436              		.loc 1 161 0
 437              		.cfi_startproc
 438              		@ args = 0, pretend = 0, frame = 0
 439              		@ frame_needed = 0, uses_anonymous_args = 0
 440              		@ link register save eliminated.
 441 0000 7047     		bx	lr
 442              		.cfi_endproc
 443              	.LFE3:
 444              		.size	isr_Interrupt, .-isr_Interrupt
 445 0002 00BF     		.section	.text.isr_SetVector,"ax",%progbits
 446              		.align	2
 447              		.global	isr_SetVector
 448              		.thumb
ARM GAS  C:\Users\Luggi\AppData\Local\Temp\ccxS9iG2.s 			page 35


 449              		.thumb_func
 450              		.type	isr_SetVector, %function
 451              	isr_SetVector:
 452              	.LFB4:
 162:Generated_Source\PSoC5/isr.c ****     #ifdef isr_INTERRUPT_INTERRUPT_CALLBACK
 163:Generated_Source\PSoC5/isr.c ****         isr_Interrupt_InterruptCallback();
 164:Generated_Source\PSoC5/isr.c ****     #endif /* isr_INTERRUPT_INTERRUPT_CALLBACK */ 
 165:Generated_Source\PSoC5/isr.c **** 
 166:Generated_Source\PSoC5/isr.c ****     /*  Place your Interrupt code here. */
 167:Generated_Source\PSoC5/isr.c ****     /* `#START isr_Interrupt` */
 168:Generated_Source\PSoC5/isr.c **** 
 169:Generated_Source\PSoC5/isr.c ****     /* `#END` */
 170:Generated_Source\PSoC5/isr.c **** }
 171:Generated_Source\PSoC5/isr.c **** 
 172:Generated_Source\PSoC5/isr.c **** 
 173:Generated_Source\PSoC5/isr.c **** /*******************************************************************************
 174:Generated_Source\PSoC5/isr.c **** * Function Name: isr_SetVector
 175:Generated_Source\PSoC5/isr.c **** ********************************************************************************
 176:Generated_Source\PSoC5/isr.c **** *
 177:Generated_Source\PSoC5/isr.c **** * Summary:
 178:Generated_Source\PSoC5/isr.c **** *   Change the ISR vector for the Interrupt. Note calling isr_Start
 179:Generated_Source\PSoC5/isr.c **** *   will override any effect this method would have had. To set the vector 
 180:Generated_Source\PSoC5/isr.c **** *   before the component has been started use isr_StartEx instead.
 181:Generated_Source\PSoC5/isr.c **** * 
 182:Generated_Source\PSoC5/isr.c **** *   When defining ISR functions, the CY_ISR and CY_ISR_PROTO macros should be 
 183:Generated_Source\PSoC5/isr.c **** *   used to provide consistent definition across compilers:
 184:Generated_Source\PSoC5/isr.c **** *
 185:Generated_Source\PSoC5/isr.c **** *   Function definition example:
 186:Generated_Source\PSoC5/isr.c **** *   CY_ISR(MyISR)
 187:Generated_Source\PSoC5/isr.c **** *   {
 188:Generated_Source\PSoC5/isr.c **** *   }
 189:Generated_Source\PSoC5/isr.c **** *
 190:Generated_Source\PSoC5/isr.c **** *   Function prototype example:
 191:Generated_Source\PSoC5/isr.c **** *     CY_ISR_PROTO(MyISR);
 192:Generated_Source\PSoC5/isr.c **** *
 193:Generated_Source\PSoC5/isr.c **** * Parameters:
 194:Generated_Source\PSoC5/isr.c **** *   address: Address of the ISR to set in the interrupt vector table.
 195:Generated_Source\PSoC5/isr.c **** *
 196:Generated_Source\PSoC5/isr.c **** * Return:
 197:Generated_Source\PSoC5/isr.c **** *   None
 198:Generated_Source\PSoC5/isr.c **** *
 199:Generated_Source\PSoC5/isr.c **** *******************************************************************************/
 200:Generated_Source\PSoC5/isr.c **** void isr_SetVector(cyisraddress address)
 201:Generated_Source\PSoC5/isr.c **** {
 453              		.loc 1 201 0
 454              		.cfi_startproc
 455              		@ args = 0, pretend = 0, frame = 0
 456              		@ frame_needed = 0, uses_anonymous_args = 0
 457              		@ link register save eliminated.
 458              	.LVL0:
 202:Generated_Source\PSoC5/isr.c ****     cyisraddress * ramVectorTable;
 203:Generated_Source\PSoC5/isr.c **** 
 204:Generated_Source\PSoC5/isr.c ****     ramVectorTable = (cyisraddress *) *CYINT_VECT_TABLE;
 459              		.loc 1 204 0
 460 0000 024B     		ldr	r3, .L3
 461 0002 1B68     		ldr	r3, [r3]
 462              	.LVL1:
ARM GAS  C:\Users\Luggi\AppData\Local\Temp\ccxS9iG2.s 			page 36


 205:Generated_Source\PSoC5/isr.c **** 
 206:Generated_Source\PSoC5/isr.c ****     ramVectorTable[CYINT_IRQ_BASE + (uint32)isr__INTC_NUMBER] = address;
 463              		.loc 1 206 0
 464 0004 C3F8B000 		str	r0, [r3, #176]
 465 0008 7047     		bx	lr
 466              	.L4:
 467 000a 00BF     		.align	2
 468              	.L3:
 469 000c 08ED00E0 		.word	-536810232
 470              		.cfi_endproc
 471              	.LFE4:
 472              		.size	isr_SetVector, .-isr_SetVector
 473              		.section	.text.isr_GetVector,"ax",%progbits
 474              		.align	2
 475              		.global	isr_GetVector
 476              		.thumb
 477              		.thumb_func
 478              		.type	isr_GetVector, %function
 479              	isr_GetVector:
 480              	.LFB5:
 207:Generated_Source\PSoC5/isr.c **** }
 208:Generated_Source\PSoC5/isr.c **** 
 209:Generated_Source\PSoC5/isr.c **** 
 210:Generated_Source\PSoC5/isr.c **** /*******************************************************************************
 211:Generated_Source\PSoC5/isr.c **** * Function Name: isr_GetVector
 212:Generated_Source\PSoC5/isr.c **** ********************************************************************************
 213:Generated_Source\PSoC5/isr.c **** *
 214:Generated_Source\PSoC5/isr.c **** * Summary:
 215:Generated_Source\PSoC5/isr.c **** *   Gets the "address" of the current ISR vector for the Interrupt.
 216:Generated_Source\PSoC5/isr.c **** *
 217:Generated_Source\PSoC5/isr.c **** * Parameters:
 218:Generated_Source\PSoC5/isr.c **** *   None
 219:Generated_Source\PSoC5/isr.c **** *
 220:Generated_Source\PSoC5/isr.c **** * Return:
 221:Generated_Source\PSoC5/isr.c **** *   Address of the ISR in the interrupt vector table.
 222:Generated_Source\PSoC5/isr.c **** *
 223:Generated_Source\PSoC5/isr.c **** *******************************************************************************/
 224:Generated_Source\PSoC5/isr.c **** cyisraddress isr_GetVector(void)
 225:Generated_Source\PSoC5/isr.c **** {
 481              		.loc 1 225 0
 482              		.cfi_startproc
 483              		@ args = 0, pretend = 0, frame = 0
 484              		@ frame_needed = 0, uses_anonymous_args = 0
 485              		@ link register save eliminated.
 226:Generated_Source\PSoC5/isr.c ****     cyisraddress * ramVectorTable;
 227:Generated_Source\PSoC5/isr.c **** 
 228:Generated_Source\PSoC5/isr.c ****     ramVectorTable = (cyisraddress *) *CYINT_VECT_TABLE;
 486              		.loc 1 228 0
 487 0000 024B     		ldr	r3, .L6
 488 0002 1B68     		ldr	r3, [r3]
 489              	.LVL2:
 229:Generated_Source\PSoC5/isr.c **** 
 230:Generated_Source\PSoC5/isr.c ****     return ramVectorTable[CYINT_IRQ_BASE + (uint32)isr__INTC_NUMBER];
 231:Generated_Source\PSoC5/isr.c **** }
 490              		.loc 1 231 0
 491 0004 D3F8B000 		ldr	r0, [r3, #176]
 492 0008 7047     		bx	lr
ARM GAS  C:\Users\Luggi\AppData\Local\Temp\ccxS9iG2.s 			page 37


 493              	.L7:
 494 000a 00BF     		.align	2
 495              	.L6:
 496 000c 08ED00E0 		.word	-536810232
 497              		.cfi_endproc
 498              	.LFE5:
 499              		.size	isr_GetVector, .-isr_GetVector
 500              		.section	.text.isr_SetPriority,"ax",%progbits
 501              		.align	2
 502              		.global	isr_SetPriority
 503              		.thumb
 504              		.thumb_func
 505              		.type	isr_SetPriority, %function
 506              	isr_SetPriority:
 507              	.LFB6:
 232:Generated_Source\PSoC5/isr.c **** 
 233:Generated_Source\PSoC5/isr.c **** 
 234:Generated_Source\PSoC5/isr.c **** /*******************************************************************************
 235:Generated_Source\PSoC5/isr.c **** * Function Name: isr_SetPriority
 236:Generated_Source\PSoC5/isr.c **** ********************************************************************************
 237:Generated_Source\PSoC5/isr.c **** *
 238:Generated_Source\PSoC5/isr.c **** * Summary:
 239:Generated_Source\PSoC5/isr.c **** *   Sets the Priority of the Interrupt. 
 240:Generated_Source\PSoC5/isr.c **** *
 241:Generated_Source\PSoC5/isr.c **** *   Note calling isr_Start or isr_StartEx will 
 242:Generated_Source\PSoC5/isr.c **** *   override any effect this API would have had. This API should only be called
 243:Generated_Source\PSoC5/isr.c **** *   after isr_Start or isr_StartEx has been called. 
 244:Generated_Source\PSoC5/isr.c **** *   To set the initial priority for the component, use the Design-Wide Resources
 245:Generated_Source\PSoC5/isr.c **** *   Interrupt Editor.
 246:Generated_Source\PSoC5/isr.c **** *
 247:Generated_Source\PSoC5/isr.c **** *   Note This API has no effect on Non-maskable interrupt NMI).
 248:Generated_Source\PSoC5/isr.c **** *
 249:Generated_Source\PSoC5/isr.c **** * Parameters:
 250:Generated_Source\PSoC5/isr.c **** *   priority: Priority of the interrupt, 0 being the highest priority
 251:Generated_Source\PSoC5/isr.c **** *             PSoC 3 and PSoC 5LP: Priority is from 0 to 7.
 252:Generated_Source\PSoC5/isr.c **** *             PSoC 4: Priority is from 0 to 3.
 253:Generated_Source\PSoC5/isr.c **** *
 254:Generated_Source\PSoC5/isr.c **** * Return:
 255:Generated_Source\PSoC5/isr.c **** *   None
 256:Generated_Source\PSoC5/isr.c **** *
 257:Generated_Source\PSoC5/isr.c **** *******************************************************************************/
 258:Generated_Source\PSoC5/isr.c **** void isr_SetPriority(uint8 priority)
 259:Generated_Source\PSoC5/isr.c **** {
 508              		.loc 1 259 0
 509              		.cfi_startproc
 510              		@ args = 0, pretend = 0, frame = 0
 511              		@ frame_needed = 0, uses_anonymous_args = 0
 512              		@ link register save eliminated.
 513              	.LVL3:
 260:Generated_Source\PSoC5/isr.c ****     *isr_INTC_PRIOR = priority << 5;
 514              		.loc 1 260 0
 515 0000 4001     		lsls	r0, r0, #5
 516              	.LVL4:
 517 0002 C0B2     		uxtb	r0, r0
 518 0004 014B     		ldr	r3, .L9
 519 0006 1870     		strb	r0, [r3]
 520 0008 7047     		bx	lr
ARM GAS  C:\Users\Luggi\AppData\Local\Temp\ccxS9iG2.s 			page 38


 521              	.L10:
 522 000a 00BF     		.align	2
 523              	.L9:
 524 000c 1CE400E0 		.word	-536812516
 525              		.cfi_endproc
 526              	.LFE6:
 527              		.size	isr_SetPriority, .-isr_SetPriority
 528              		.section	.text.isr_GetPriority,"ax",%progbits
 529              		.align	2
 530              		.global	isr_GetPriority
 531              		.thumb
 532              		.thumb_func
 533              		.type	isr_GetPriority, %function
 534              	isr_GetPriority:
 535              	.LFB7:
 261:Generated_Source\PSoC5/isr.c **** }
 262:Generated_Source\PSoC5/isr.c **** 
 263:Generated_Source\PSoC5/isr.c **** 
 264:Generated_Source\PSoC5/isr.c **** /*******************************************************************************
 265:Generated_Source\PSoC5/isr.c **** * Function Name: isr_GetPriority
 266:Generated_Source\PSoC5/isr.c **** ********************************************************************************
 267:Generated_Source\PSoC5/isr.c **** *
 268:Generated_Source\PSoC5/isr.c **** * Summary:
 269:Generated_Source\PSoC5/isr.c **** *   Gets the Priority of the Interrupt.
 270:Generated_Source\PSoC5/isr.c **** *
 271:Generated_Source\PSoC5/isr.c **** * Parameters:
 272:Generated_Source\PSoC5/isr.c **** *   None
 273:Generated_Source\PSoC5/isr.c **** *
 274:Generated_Source\PSoC5/isr.c **** * Return:
 275:Generated_Source\PSoC5/isr.c **** *   Priority of the interrupt, 0 being the highest priority
 276:Generated_Source\PSoC5/isr.c **** *    PSoC 3 and PSoC 5LP: Priority is from 0 to 7.
 277:Generated_Source\PSoC5/isr.c **** *    PSoC 4: Priority is from 0 to 3.
 278:Generated_Source\PSoC5/isr.c **** *
 279:Generated_Source\PSoC5/isr.c **** *******************************************************************************/
 280:Generated_Source\PSoC5/isr.c **** uint8 isr_GetPriority(void)
 281:Generated_Source\PSoC5/isr.c **** {
 536              		.loc 1 281 0
 537              		.cfi_startproc
 538              		@ args = 0, pretend = 0, frame = 0
 539              		@ frame_needed = 0, uses_anonymous_args = 0
 540              		@ link register save eliminated.
 282:Generated_Source\PSoC5/isr.c ****     uint8 priority;
 283:Generated_Source\PSoC5/isr.c **** 
 284:Generated_Source\PSoC5/isr.c **** 
 285:Generated_Source\PSoC5/isr.c ****     priority = *isr_INTC_PRIOR >> 5;
 541              		.loc 1 285 0
 542 0000 014B     		ldr	r3, .L12
 543 0002 1878     		ldrb	r0, [r3]	@ zero_extendqisi2
 544              	.LVL5:
 286:Generated_Source\PSoC5/isr.c **** 
 287:Generated_Source\PSoC5/isr.c ****     return priority;
 288:Generated_Source\PSoC5/isr.c **** }
 545              		.loc 1 288 0
 546 0004 4009     		lsrs	r0, r0, #5
 547              	.LVL6:
 548 0006 7047     		bx	lr
 549              	.L13:
ARM GAS  C:\Users\Luggi\AppData\Local\Temp\ccxS9iG2.s 			page 39


 550              		.align	2
 551              	.L12:
 552 0008 1CE400E0 		.word	-536812516
 553              		.cfi_endproc
 554              	.LFE7:
 555              		.size	isr_GetPriority, .-isr_GetPriority
 556              		.section	.text.isr_Enable,"ax",%progbits
 557              		.align	2
 558              		.global	isr_Enable
 559              		.thumb
 560              		.thumb_func
 561              		.type	isr_Enable, %function
 562              	isr_Enable:
 563              	.LFB8:
 289:Generated_Source\PSoC5/isr.c **** 
 290:Generated_Source\PSoC5/isr.c **** 
 291:Generated_Source\PSoC5/isr.c **** /*******************************************************************************
 292:Generated_Source\PSoC5/isr.c **** * Function Name: isr_Enable
 293:Generated_Source\PSoC5/isr.c **** ********************************************************************************
 294:Generated_Source\PSoC5/isr.c **** *
 295:Generated_Source\PSoC5/isr.c **** * Summary:
 296:Generated_Source\PSoC5/isr.c **** *   Enables the interrupt to the interrupt controller. Do not call this function
 297:Generated_Source\PSoC5/isr.c **** *   unless ISR_Start() has been called or the functionality of the ISR_Start() 
 298:Generated_Source\PSoC5/isr.c **** *   function, which sets the vector and the priority, has been called.
 299:Generated_Source\PSoC5/isr.c **** *
 300:Generated_Source\PSoC5/isr.c **** * Parameters:
 301:Generated_Source\PSoC5/isr.c **** *   None
 302:Generated_Source\PSoC5/isr.c **** *
 303:Generated_Source\PSoC5/isr.c **** * Return:
 304:Generated_Source\PSoC5/isr.c **** *   None
 305:Generated_Source\PSoC5/isr.c **** *
 306:Generated_Source\PSoC5/isr.c **** *******************************************************************************/
 307:Generated_Source\PSoC5/isr.c **** void isr_Enable(void)
 308:Generated_Source\PSoC5/isr.c **** {
 564              		.loc 1 308 0
 565              		.cfi_startproc
 566              		@ args = 0, pretend = 0, frame = 0
 567              		@ frame_needed = 0, uses_anonymous_args = 0
 568              		@ link register save eliminated.
 309:Generated_Source\PSoC5/isr.c ****     /* Enable the general interrupt. */
 310:Generated_Source\PSoC5/isr.c ****     *isr_INTC_SET_EN = isr__INTC_MASK;
 569              		.loc 1 310 0
 570 0000 4FF08052 		mov	r2, #268435456
 571 0004 014B     		ldr	r3, .L15
 572 0006 1A60     		str	r2, [r3]
 573 0008 7047     		bx	lr
 574              	.L16:
 575 000a 00BF     		.align	2
 576              	.L15:
 577 000c 00E100E0 		.word	-536813312
 578              		.cfi_endproc
 579              	.LFE8:
 580              		.size	isr_Enable, .-isr_Enable
 581              		.section	.text.isr_GetState,"ax",%progbits
 582              		.align	2
 583              		.global	isr_GetState
 584              		.thumb
ARM GAS  C:\Users\Luggi\AppData\Local\Temp\ccxS9iG2.s 			page 40


 585              		.thumb_func
 586              		.type	isr_GetState, %function
 587              	isr_GetState:
 588              	.LFB9:
 311:Generated_Source\PSoC5/isr.c **** }
 312:Generated_Source\PSoC5/isr.c **** 
 313:Generated_Source\PSoC5/isr.c **** 
 314:Generated_Source\PSoC5/isr.c **** /*******************************************************************************
 315:Generated_Source\PSoC5/isr.c **** * Function Name: isr_GetState
 316:Generated_Source\PSoC5/isr.c **** ********************************************************************************
 317:Generated_Source\PSoC5/isr.c **** *
 318:Generated_Source\PSoC5/isr.c **** * Summary:
 319:Generated_Source\PSoC5/isr.c **** *   Gets the state (enabled, disabled) of the Interrupt.
 320:Generated_Source\PSoC5/isr.c **** *
 321:Generated_Source\PSoC5/isr.c **** * Parameters:
 322:Generated_Source\PSoC5/isr.c **** *   None
 323:Generated_Source\PSoC5/isr.c **** *
 324:Generated_Source\PSoC5/isr.c **** * Return:
 325:Generated_Source\PSoC5/isr.c **** *   1 if enabled, 0 if disabled.
 326:Generated_Source\PSoC5/isr.c **** *
 327:Generated_Source\PSoC5/isr.c **** *******************************************************************************/
 328:Generated_Source\PSoC5/isr.c **** uint8 isr_GetState(void)
 329:Generated_Source\PSoC5/isr.c **** {
 589              		.loc 1 329 0
 590              		.cfi_startproc
 591              		@ args = 0, pretend = 0, frame = 0
 592              		@ frame_needed = 0, uses_anonymous_args = 0
 593              		@ link register save eliminated.
 330:Generated_Source\PSoC5/isr.c ****     /* Get the state of the general interrupt. */
 331:Generated_Source\PSoC5/isr.c ****     return ((*isr_INTC_SET_EN & (uint32)isr__INTC_MASK) != 0u) ? 1u:0u;
 594              		.loc 1 331 0
 595 0000 044B     		ldr	r3, .L20
 596 0002 1B68     		ldr	r3, [r3]
 597 0004 13F0805F 		tst	r3, #268435456
 598 0008 01D0     		beq	.L19
 599 000a 0120     		movs	r0, #1
 600 000c 7047     		bx	lr
 601              	.L19:
 602 000e 0020     		movs	r0, #0
 332:Generated_Source\PSoC5/isr.c **** }
 603              		.loc 1 332 0
 604 0010 7047     		bx	lr
 605              	.L21:
 606 0012 00BF     		.align	2
 607              	.L20:
 608 0014 00E100E0 		.word	-536813312
 609              		.cfi_endproc
 610              	.LFE9:
 611              		.size	isr_GetState, .-isr_GetState
 612              		.section	.text.isr_Disable,"ax",%progbits
 613              		.align	2
 614              		.global	isr_Disable
 615              		.thumb
 616              		.thumb_func
 617              		.type	isr_Disable, %function
 618              	isr_Disable:
 619              	.LFB10:
ARM GAS  C:\Users\Luggi\AppData\Local\Temp\ccxS9iG2.s 			page 41


 333:Generated_Source\PSoC5/isr.c **** 
 334:Generated_Source\PSoC5/isr.c **** 
 335:Generated_Source\PSoC5/isr.c **** /*******************************************************************************
 336:Generated_Source\PSoC5/isr.c **** * Function Name: isr_Disable
 337:Generated_Source\PSoC5/isr.c **** ********************************************************************************
 338:Generated_Source\PSoC5/isr.c **** *
 339:Generated_Source\PSoC5/isr.c **** * Summary:
 340:Generated_Source\PSoC5/isr.c **** *   Disables the Interrupt in the interrupt controller.
 341:Generated_Source\PSoC5/isr.c **** *
 342:Generated_Source\PSoC5/isr.c **** * Parameters:
 343:Generated_Source\PSoC5/isr.c **** *   None
 344:Generated_Source\PSoC5/isr.c **** *
 345:Generated_Source\PSoC5/isr.c **** * Return:
 346:Generated_Source\PSoC5/isr.c **** *   None
 347:Generated_Source\PSoC5/isr.c **** *
 348:Generated_Source\PSoC5/isr.c **** *******************************************************************************/
 349:Generated_Source\PSoC5/isr.c **** void isr_Disable(void)
 350:Generated_Source\PSoC5/isr.c **** {
 620              		.loc 1 350 0
 621              		.cfi_startproc
 622              		@ args = 0, pretend = 0, frame = 0
 623              		@ frame_needed = 0, uses_anonymous_args = 0
 624              		@ link register save eliminated.
 351:Generated_Source\PSoC5/isr.c ****     /* Disable the general interrupt. */
 352:Generated_Source\PSoC5/isr.c ****     *isr_INTC_CLR_EN = isr__INTC_MASK;
 625              		.loc 1 352 0
 626 0000 4FF08052 		mov	r2, #268435456
 627 0004 014B     		ldr	r3, .L23
 628 0006 1A60     		str	r2, [r3]
 629 0008 7047     		bx	lr
 630              	.L24:
 631 000a 00BF     		.align	2
 632              	.L23:
 633 000c 80E100E0 		.word	-536813184
 634              		.cfi_endproc
 635              	.LFE10:
 636              		.size	isr_Disable, .-isr_Disable
 637              		.section	.text.isr_Start,"ax",%progbits
 638              		.align	2
 639              		.global	isr_Start
 640              		.thumb
 641              		.thumb_func
 642              		.type	isr_Start, %function
 643              	isr_Start:
 644              	.LFB0:
  62:Generated_Source\PSoC5/isr.c ****     /* For all we know the interrupt is active. */
 645              		.loc 1 62 0
 646              		.cfi_startproc
 647              		@ args = 0, pretend = 0, frame = 0
 648              		@ frame_needed = 0, uses_anonymous_args = 0
 649 0000 08B5     		push	{r3, lr}
 650              		.cfi_def_cfa_offset 8
 651              		.cfi_offset 3, -8
 652              		.cfi_offset 14, -4
  64:Generated_Source\PSoC5/isr.c **** 
 653              		.loc 1 64 0
 654 0002 FFF7FEFF 		bl	isr_Disable
ARM GAS  C:\Users\Luggi\AppData\Local\Temp\ccxS9iG2.s 			page 42


 655              	.LVL7:
  67:Generated_Source\PSoC5/isr.c **** 
 656              		.loc 1 67 0
 657 0006 0448     		ldr	r0, .L27
 658 0008 FFF7FEFF 		bl	isr_SetVector
 659              	.LVL8:
  70:Generated_Source\PSoC5/isr.c **** 
 660              		.loc 1 70 0
 661 000c 0720     		movs	r0, #7
 662 000e FFF7FEFF 		bl	isr_SetPriority
 663              	.LVL9:
  73:Generated_Source\PSoC5/isr.c **** }
 664              		.loc 1 73 0
 665 0012 FFF7FEFF 		bl	isr_Enable
 666              	.LVL10:
 667 0016 08BD     		pop	{r3, pc}
 668              	.L28:
 669              		.align	2
 670              	.L27:
 671 0018 00000000 		.word	isr_Interrupt
 672              		.cfi_endproc
 673              	.LFE0:
 674              		.size	isr_Start, .-isr_Start
 675              		.section	.text.isr_StartEx,"ax",%progbits
 676              		.align	2
 677              		.global	isr_StartEx
 678              		.thumb
 679              		.thumb_func
 680              		.type	isr_StartEx, %function
 681              	isr_StartEx:
 682              	.LFB1:
 105:Generated_Source\PSoC5/isr.c ****     /* For all we know the interrupt is active. */
 683              		.loc 1 105 0
 684              		.cfi_startproc
 685              		@ args = 0, pretend = 0, frame = 0
 686              		@ frame_needed = 0, uses_anonymous_args = 0
 687              	.LVL11:
 688 0000 10B5     		push	{r4, lr}
 689              		.cfi_def_cfa_offset 8
 690              		.cfi_offset 4, -8
 691              		.cfi_offset 14, -4
 692 0002 0446     		mov	r4, r0
 107:Generated_Source\PSoC5/isr.c **** 
 693              		.loc 1 107 0
 694 0004 FFF7FEFF 		bl	isr_Disable
 695              	.LVL12:
 110:Generated_Source\PSoC5/isr.c **** 
 696              		.loc 1 110 0
 697 0008 2046     		mov	r0, r4
 698 000a FFF7FEFF 		bl	isr_SetVector
 699              	.LVL13:
 113:Generated_Source\PSoC5/isr.c **** 
 700              		.loc 1 113 0
 701 000e 0720     		movs	r0, #7
 702 0010 FFF7FEFF 		bl	isr_SetPriority
 703              	.LVL14:
 116:Generated_Source\PSoC5/isr.c **** }
ARM GAS  C:\Users\Luggi\AppData\Local\Temp\ccxS9iG2.s 			page 43


 704              		.loc 1 116 0
 705 0014 FFF7FEFF 		bl	isr_Enable
 706              	.LVL15:
 707 0018 10BD     		pop	{r4, pc}
 708              		.cfi_endproc
 709              	.LFE1:
 710              		.size	isr_StartEx, .-isr_StartEx
 711 001a 00BF     		.section	.text.isr_Stop,"ax",%progbits
 712              		.align	2
 713              		.global	isr_Stop
 714              		.thumb
 715              		.thumb_func
 716              		.type	isr_Stop, %function
 717              	isr_Stop:
 718              	.LFB2:
 135:Generated_Source\PSoC5/isr.c ****     /* Disable this interrupt. */
 719              		.loc 1 135 0
 720              		.cfi_startproc
 721              		@ args = 0, pretend = 0, frame = 0
 722              		@ frame_needed = 0, uses_anonymous_args = 0
 723 0000 08B5     		push	{r3, lr}
 724              		.cfi_def_cfa_offset 8
 725              		.cfi_offset 3, -8
 726              		.cfi_offset 14, -4
 137:Generated_Source\PSoC5/isr.c **** 
 727              		.loc 1 137 0
 728 0002 FFF7FEFF 		bl	isr_Disable
 729              	.LVL16:
 140:Generated_Source\PSoC5/isr.c **** }
 730              		.loc 1 140 0
 731 0006 0248     		ldr	r0, .L33
 732 0008 FFF7FEFF 		bl	isr_SetVector
 733              	.LVL17:
 734 000c 08BD     		pop	{r3, pc}
 735              	.L34:
 736 000e 00BF     		.align	2
 737              	.L33:
 738 0010 00000000 		.word	IntDefaultHandler
 739              		.cfi_endproc
 740              	.LFE2:
 741              		.size	isr_Stop, .-isr_Stop
 742              		.section	.text.isr_SetPending,"ax",%progbits
 743              		.align	2
 744              		.global	isr_SetPending
 745              		.thumb
 746              		.thumb_func
 747              		.type	isr_SetPending, %function
 748              	isr_SetPending:
 749              	.LFB11:
 353:Generated_Source\PSoC5/isr.c **** }
 354:Generated_Source\PSoC5/isr.c **** 
 355:Generated_Source\PSoC5/isr.c **** 
 356:Generated_Source\PSoC5/isr.c **** /*******************************************************************************
 357:Generated_Source\PSoC5/isr.c **** * Function Name: isr_SetPending
 358:Generated_Source\PSoC5/isr.c **** ********************************************************************************
 359:Generated_Source\PSoC5/isr.c **** *
 360:Generated_Source\PSoC5/isr.c **** * Summary:
ARM GAS  C:\Users\Luggi\AppData\Local\Temp\ccxS9iG2.s 			page 44


 361:Generated_Source\PSoC5/isr.c **** *   Causes the Interrupt to enter the pending state, a software method of
 362:Generated_Source\PSoC5/isr.c **** *   generating the interrupt.
 363:Generated_Source\PSoC5/isr.c **** *
 364:Generated_Source\PSoC5/isr.c **** * Parameters:
 365:Generated_Source\PSoC5/isr.c **** *   None
 366:Generated_Source\PSoC5/isr.c **** *
 367:Generated_Source\PSoC5/isr.c **** * Return:
 368:Generated_Source\PSoC5/isr.c **** *   None
 369:Generated_Source\PSoC5/isr.c **** *
 370:Generated_Source\PSoC5/isr.c **** * Side Effects:
 371:Generated_Source\PSoC5/isr.c **** *   If interrupts are enabled and the interrupt is set up properly, the ISR is
 372:Generated_Source\PSoC5/isr.c **** *   entered (depending on the priority of this interrupt and other pending 
 373:Generated_Source\PSoC5/isr.c **** *   interrupts).
 374:Generated_Source\PSoC5/isr.c **** *
 375:Generated_Source\PSoC5/isr.c **** *******************************************************************************/
 376:Generated_Source\PSoC5/isr.c **** void isr_SetPending(void)
 377:Generated_Source\PSoC5/isr.c **** {
 750              		.loc 1 377 0
 751              		.cfi_startproc
 752              		@ args = 0, pretend = 0, frame = 0
 753              		@ frame_needed = 0, uses_anonymous_args = 0
 754              		@ link register save eliminated.
 378:Generated_Source\PSoC5/isr.c ****     *isr_INTC_SET_PD = isr__INTC_MASK;
 755              		.loc 1 378 0
 756 0000 4FF08052 		mov	r2, #268435456
 757 0004 014B     		ldr	r3, .L36
 758 0006 1A60     		str	r2, [r3]
 759 0008 7047     		bx	lr
 760              	.L37:
 761 000a 00BF     		.align	2
 762              	.L36:
 763 000c 00E200E0 		.word	-536813056
 764              		.cfi_endproc
 765              	.LFE11:
 766              		.size	isr_SetPending, .-isr_SetPending
 767              		.section	.text.isr_ClearPending,"ax",%progbits
 768              		.align	2
 769              		.global	isr_ClearPending
 770              		.thumb
 771              		.thumb_func
 772              		.type	isr_ClearPending, %function
 773              	isr_ClearPending:
 774              	.LFB12:
 379:Generated_Source\PSoC5/isr.c **** }
 380:Generated_Source\PSoC5/isr.c **** 
 381:Generated_Source\PSoC5/isr.c **** 
 382:Generated_Source\PSoC5/isr.c **** /*******************************************************************************
 383:Generated_Source\PSoC5/isr.c **** * Function Name: isr_ClearPending
 384:Generated_Source\PSoC5/isr.c **** ********************************************************************************
 385:Generated_Source\PSoC5/isr.c **** *
 386:Generated_Source\PSoC5/isr.c **** * Summary:
 387:Generated_Source\PSoC5/isr.c **** *   Clears a pending interrupt in the interrupt controller.
 388:Generated_Source\PSoC5/isr.c **** *
 389:Generated_Source\PSoC5/isr.c **** *   Note Some interrupt sources are clear-on-read and require the block 
 390:Generated_Source\PSoC5/isr.c **** *   interrupt/status register to be read/cleared with the appropriate block API 
 391:Generated_Source\PSoC5/isr.c **** *   (GPIO, UART, and so on). Otherwise the ISR will continue to remain in 
 392:Generated_Source\PSoC5/isr.c **** *   pending state even though the interrupt itself is cleared using this API.
ARM GAS  C:\Users\Luggi\AppData\Local\Temp\ccxS9iG2.s 			page 45


 393:Generated_Source\PSoC5/isr.c **** *
 394:Generated_Source\PSoC5/isr.c **** * Parameters:
 395:Generated_Source\PSoC5/isr.c **** *   None
 396:Generated_Source\PSoC5/isr.c **** *
 397:Generated_Source\PSoC5/isr.c **** * Return:
 398:Generated_Source\PSoC5/isr.c **** *   None
 399:Generated_Source\PSoC5/isr.c **** *
 400:Generated_Source\PSoC5/isr.c **** *******************************************************************************/
 401:Generated_Source\PSoC5/isr.c **** void isr_ClearPending(void)
 402:Generated_Source\PSoC5/isr.c **** {
 775              		.loc 1 402 0
 776              		.cfi_startproc
 777              		@ args = 0, pretend = 0, frame = 0
 778              		@ frame_needed = 0, uses_anonymous_args = 0
 779              		@ link register save eliminated.
 403:Generated_Source\PSoC5/isr.c ****     *isr_INTC_CLR_PD = isr__INTC_MASK;
 780              		.loc 1 403 0
 781 0000 4FF08052 		mov	r2, #268435456
 782 0004 014B     		ldr	r3, .L39
 783 0006 1A60     		str	r2, [r3]
 784 0008 7047     		bx	lr
 785              	.L40:
 786 000a 00BF     		.align	2
 787              	.L39:
 788 000c 80E200E0 		.word	-536812928
 789              		.cfi_endproc
 790              	.LFE12:
 791              		.size	isr_ClearPending, .-isr_ClearPending
 792              		.text
 793              	.Letext0:
 794              		.file 2 "Generated_Source\\PSoC5/cytypes.h"