ARM GAS  C:\Users\Luggi\AppData\Local\Temp\ccteuDre.s 			page 1


   1              		.syntax unified
   2              		.cpu cortex-m3
   3              		.fpu softvfp
   4              		.eabi_attribute 20, 1
   5              		.eabi_attribute 21, 1
   6              		.eabi_attribute 23, 3
   7              		.eabi_attribute 24, 1
   8              		.eabi_attribute 25, 1
   9              		.eabi_attribute 26, 1
  10              		.eabi_attribute 30, 1
  11              		.eabi_attribute 34, 1
  12              		.eabi_attribute 18, 4
  13              		.thumb
  14              		.file	"LCD_PM.c"
  15              		.text
  16              	.Ltext0:
  17              		.section	.gnu.lto_.profile.d235519,"",%progbits
  18 0000 789C6366 		.ascii	"x\234cf```a\200\000F\006En\000\000\301\0005"
  18      60606061 
  18      80004606 
  18      456E0000 
  18      C10035
  19              		.text
  20              		.section	.gnu.lto_.inline.d235519,"",%progbits
  21 0000 789C6366 		.ascii	"x\234cf\300\016\302\2404\013\003\0033\023#\003\023\220"
  21      C00EC2A0 
  21      340B0303 
  21      33132303 
  21      1390
  22 0012 C9B6401E 		.ascii	"\311\266@\036D10b\21001\260\361\001EX\026\310#\024q"
  22      44313062 
  22      883031B0 
  22      F1014558 
  22      16C82314 
  23 0027 01095606 		.ascii	"\001\011V\006vv\2408\333\007=Tq\006\000\355Q\005\267"
  23      7676A038 
  23      DB073D54 
  23      710600ED 
  23      5105B7
  24              		.text
  25              		.section	.gnu.lto_.jmpfuncs.d235519,"",%progbits
  26 0000 789C6366 		.ascii	"x\234cf\300\016\004\2404\013\0203200\001)V\020\037\000"
  26      C00E04A0 
  26      340B1033 
  26      32303001 
  26      2956101F 
  27 0015 02B70020 		.ascii	"\002\267\000 "
  28              		.text
  29              		.section	.gnu.lto_.pureconst.d235519,"",%progbits
  30 0000 789C6366 		.ascii	"x\234cf``\340d\200\000\026\006\006F\006&\011V\011\000"
  30      6060E064 
  30      80001606 
  30      06460626 
  30      09560900 
  31 0014 01890049 		.ascii	"\001\211\000I"
  32              		.text
  33              		.section	.gnu.lto_LCD_SaveConfig.d235519,"",%progbits
ARM GAS  C:\Users\Luggi\AppData\Local\Temp\ccteuDre.s 			page 2


  34 0000 789C6366 		.ascii	"x\234cf\300\004R@\\\012\304J@\314\310\314\300\3104\341"
  34      C0045240 
  34      5C0AC44A 
  34      40CCC8CC 
  34      C0C834E1 
  35 0014 1C034323 		.ascii	"\034\003C#\007\023##\210\301\300\310P\317\304X\317\370"
  35      07132323 
  35      88C1C0C8 
  35      50CFC458 
  35      CFF8
  36 0026 92E92313 		.ascii	"\222\351#\023\343\204\003\253gp\253/mhh\370p\351dc\300"
  36      E38403AB 
  36      6770AB2F 
  36      6D6868F8 
  36      70E96463 
  37 003b 01C69F4C 		.ascii	"\001\306\237L\014\014\237\231 \3460.gTg\000*\372\330"
  37      0C0C9F99 
  37      20E6302E 
  37      67546700 
  37      2AFAD8
  38 004e F2F73A37 		.ascii	"\362\367:7[\013P\221\000D\216q\005#\033#\220^/t\240"
  38      5B0B5091 
  38      00448E71 
  38      05231B23 
  38      905E2F74 
  39 0063 E1FFFFCD 		.ascii	"\341\377\377\315\313\017\316c\004\012?\001b\220\005"
  39      CB0FCE63 
  39      040A3F01 
  39      629005
  40 0072 4F999840 		.ascii	"O\231\230@4\363=FF\220B\220IO\230\030AB@\005\012\356"
  40      34F33D46 
  40      46904290 
  40      494F9818 
  40      41424005 
  41 0088 A979A945 		.ascii	"\251y\251E\211%\251)\361\301\371\245E\311\2511\001\301"
  41      8925A929 
  41      F1C1F9A5 
  41      45C9A931 
  41      01C1
  42 009a F9CEA631 		.ascii	"\371\316\2461>\316.\361\001\276z\311\014\000\202\361"
  42      3ECE2EF1 
  42      01BE7AC9 
  42      0C0082F1 
  43 00aa 34F7     		.ascii	"4\367"
  44              		.text
  45              		.section	.gnu.lto_LCD_RestoreConfig.d235519,"",%progbits
  46 0000 789C6366 		.ascii	"x\234cf\300\004R@\\\012\304J@\314\310\314\300\3104\341"
  46      C0045240 
  46      5C0AC44A 
  46      40CCC8CC 
  46      C0C834E1 
  47 0014 1C034323 		.ascii	"\034\003C#\007\023##\210\301\300\310P\317\304X\317\370"
  47      07132323 
  47      88C1C0C8 
  47      50CFC458 
  47      CFF8
  48 0026 92E92313 		.ascii	"\222\351#\023\343\204\003\253gp\253/mhh\370\320t\276"
ARM GAS  C:\Users\Luggi\AppData\Local\Temp\ccteuDre.s 			page 3


  48      E38403AB 
  48      6770AB2F 
  48      6D6868F8 
  48      D074BE
  49 0039 31E000E3 		.ascii	"1\340\000\343O&\006\206\317L\020s\030\2273\2523\000"
  49      4F260686 
  49      CF4C1073 
  49      189733AA 
  49      3300
  50 004b 157D6CF9 		.ascii	"\025}l\371{\235\233\255\005\250H\000\"\307\270\202\221"
  50      7B9D9BAD 
  50      05A84800 
  50      22C7B882 
  50      91
  51 005c 8D1148AF 		.ascii	"\215\021H\257\027:\320\360\377\377\347=\007\2770\002"
  51      173AD0F0 
  51      FFFFE73D 
  51      07BF3002 
  52 006c 859F0031 		.ascii	"\205\237\0001\310\202\247LL \232\371\036##H!\310\244"
  52      C882A74C 
  52      4C209AF9 
  52      1E232348 
  52      21C8A4
  53 007f 274C8C20 		.ascii	"'L\214 !\240\002\005\367\324\274\324\242\304\222\324"
  53      21A00205 
  53      F7D4BCD4 
  53      A2C492D4 
  54 008f 94F8E0FC 		.ascii	"\224\370\340\374\322\242\344\324\230\200\340|g\323\030"
  54      D2A2E4D4 
  54      9880E07C 
  54      67D318
  55 009e 1F6797F8 		.ascii	"\037g\227\370\000_\275d\006\000\216\3505X"
  55      005FBD64 
  55      06008EE8 
  55      3558
  56              		.text
  57              		.section	.gnu.lto_LCD_Sleep.d235519,"",%progbits
  58 0000 789C6D90 		.ascii	"x\234m\220MKBQ\020\206\347\235\353\027\270\211V\322"
  58      4D4B4251 
  58      1086E79D 
  58      EB17B889 
  58      56D2
  59 0012 A6682304 		.ascii	"\246h#\004\266\353\027\030\265)\020\334\006\022v\227"
  59      B6EB1718 
  59      B52910DC 
  59      06127697 
  60 0022 25482DC5 		.ascii	"%H-\305{\313\240UY\253\240\217]di\332\307\037\270mZ"
  60      7BCBA055 
  60      59ABA08F 
  60      5D6469DA 
  60      C71FB86D 
  61 0037 26512144 		.ascii	"&Q!D\024\204\201\3552\027!a6\243\233\260\016\034\346"
  61      148481ED 
  61      32172161 
  61      36A39BB0 
  61      0E1CE6
  62 004a 9C99F73C 		.ascii	"\234\231\367<\357\2311\350\357\032\220=\017\242a\211"
ARM GAS  C:\Users\Luggi\AppData\Local\Temp\ccteuDre.s 			page 4


  62      EF9931E8 
  62      EF1A903D 
  62      0FA26189 
  63 005a 30089CBD 		.ascii	"0\010\234\275&\262}\014\350\201@iF\032o\\gd\235\374"
  63      26B27D0C 
  63      E8814069 
  63      461A6F5C 
  63      67649DFC 
  64 006e B63F7860 		.ascii	"\266?x`Y\326\373\313E`5\320d\242\006w18D\220DS\317\264"
  64      59D6FBCB 
  64      456035D0 
  64      64A20677 
  64      31384490 
  65 0086 2A7E4F46 		.ascii	"*~OF4}\335\032r\360\010\236J\375\216\325n7\312\233\265"
  65      347DDD1A 
  65      72F0089E 
  65      4AFD8ED5 
  65      6E37CA9B 
  66 009b 11B8999A 		.ascii	"\021\270\231\232,\311\252\010\324\345\225Y\243\361\200"
  66      2CC9AA08 
  66      D4E59559 
  66      A3F180
  67 00aa E5ADB3BB 		.ascii	"\345\255\263\273K\257\276\371d\265\334\277]/r\352\313"
  67      4BAFBEF9 
  67      64B5DCBF 
  67      5D2F72EA 
  67      CB
  68 00bb 5AB37C4D 		.ascii	"Z\263|M\346\226\002%\373\\-\337\370j,\231\3165ggv\261"
  68      E6960225 
  68      FB5C2DDF 
  68      F86A2C99 
  68      CE356767 
  69 00d1 871DDB52 		.ascii	"\207\035\333R\225\201#\244p\014i\014yI\223R\241\310"
  69      958123A4 
  69      700C690C 
  69      79499352 
  69      A1C8
  70 00e3 5E9EABA5 		.ascii	"^\236\253\245\237\370\315s\375\303s\243 \274\023\345"
  70      9FF8CD73 
  70      FDC373A3 
  70      20BC13E5 
  71 00f3 49EDBBB0 		.ascii	"I\355\273\260q\356\011\345\245?gP\275\212\"\374\350"
  71      71EE09E5 
  71      A53F6750 
  71      BD8A22FC 
  71      E8
  72 0104 CC002584 		.ascii	"\314\000%\204\344\323\364\210\025\347\376\212\325\220"
  72      E4D3F488 
  72      15E7FE8A 
  72      D590
  73 0112 7A1D3D0D 		.ascii	"z\035=\015u\304)R2\000/=\301v*\023\035%\3514\240S\020"
  73      75C42952 
  73      32002F3D 
  73      C1762A13 
  73      1D25E934 
  74 0129 D8D0A4B9 		.ascii	"\330\320\244\271`&g\027\315\271X4\261\224\214\2333\221"
  74      60266717 
ARM GAS  C:\Users\Luggi\AppData\Local\Temp\ccteuDre.s 			page 5


  74      CDB95834 
  74      B1948C9B 
  74      3391
  75 013b 68223C36 		.ascii	"h\"<63\025\036\217E\246G\343\364\003(?\215\035"
  75      33151E8F 
  75      45A647E3 
  75      F403283F 
  75      8D1D
  76              		.text
  77              		.section	.gnu.lto_LCD_Wakeup.d235519,"",%progbits
  78 0000 789C654F 		.ascii	"x\234eO=H\202Q\024\275\347\276O\221\024\214&i\210hq"
  78      3D488251 
  78      14BDE7BE 
  78      4F91148C 
  78      26698868 
  79 0015 085BA2A5 		.ascii	"\010[\242\245\241\305\300\241\002\301U\2200\327\004"
  79      A1C5C0A1 
  79      02C15590 
  79      30D704
  80 0024 A9517CA6 		.ascii	"\251Q|\246AS\331\026\364\003\015\221\245\031\030\264"
  80      4153D916 
  80      F4030D91 
  80      A51918B4 
  81 0034 B4382934 		.ascii	"\2648)4\024!aD\324b`Ke\016!a\366\336\347\020\324\203"
  81      14216144 
  81      D462604B 
  81      650E2161 
  81      F6DEE710 
  82 004a C77DEFDC 		.ascii	"\307}\357\334s\316\275G\320\3773\256\356\014\210FT\205"
  82      73CEBD47 
  82      D0FF33AE 
  82      EE0C8846 
  82      5485
  83 005c 85C0992B 		.ascii	"\205\300\231+\242\244\215Y\224\235$\373\214\313)\222"
  83      A2A48D59 
  83      949D24FB 
  83      8CCB2992 
  84 006c 0E01A307 		.ascii	"\016\001\243\007\033\200~\020(\301\302@\002/\334ddJ"
  84      1B807E10 
  84      28C1C240 
  84      022FDC64 
  84      644A
  85 007e B92DBBFB 		.ascii	"\271-\273\373@J\371^\274p\255\272\332L\324\342\236?"
  85      404AF95E 
  85      BC70ADBA 
  85      DA4CD4E2 
  85      9E3F
  86 0090 0EE126C5 		.ascii	"\016\341&\305i\246;5\2735\2558\375\275\036\262\260\252"
  86      69A63B35 
  86      BB35AD38 
  86      FDBD1EB2 
  86      B0AA
  87 00a2 B9743A50 		.ascii	"\271t:P\222\335\356\331\353fc\022\026AmV`]\021\364\234"
  87      92DDEED9 
  87      EB666312 
  87      16416D56 
  87      605D11F4 
ARM GAS  C:\Users\Luggi\AppData\Local\Temp\ccteuDre.s 			page 6


  88 00b7 67665DC5 		.ascii	"gf]\305=V\316\233o\373\026\255\371d\241\354\366\252"
  88      3D56CE9B 
  88      6FFB16AD 
  88      F964A1EC 
  88      F6AA
  89 00c9 EB058E7F 		.ascii	"\353\005\216\177\3115ik3w\264\241B\237\352\3277\266"
  89      C935696B 
  89      3377B4A1 
  89      429FEAD7 
  89      37B6
  90 00db 062BC4FC 		.ascii	"\006+\304\374f\223\351\035\354b;)5K\340\010q\034c\320"
  90      6693E91D 
  90      EC623B29 
  90      354BE008 
  90      711C63D0 
  91 00ef EC7DE737 		.ascii	"\354}\3477\212V\317h\233\015\344\024\347\303\\\027y"
  91      8A56CF68 
  91      9B0DE414 
  91      E7C35C17 
  91      79
  92 0100 78E816E9 		.ascii	"x\350\026\351\273\324\320\357\250\312n\243hhS\200p\242"
  92      BBD4D0EF 
  92      A8CA6EA3 
  92      68685380 
  92      70A2
  93 0112 E5A43713 		.ascii	"\345\2447\023Tv\212\007\244J\325\212C\223\351\357V\226"
  93      54768A07 
  93      A44AD58A 
  93      4393E9EF 
  93      5696
  94 0124 968E8202 		.ascii	"\226\216\202\002\342*\224\325\324\030f\232G$K5\237\251"
  94      E22A94D5 
  94      D418669A 
  94      47244B35 
  94      9FA9
  95 0136 219D151A 		.ascii	"!\235\025\032U\363\207}\221\305Hl~)\262\020\012D\227"
  95      55F3877D 
  95      91C5486C 
  95      7E29B210 
  95      0A4497
  96 0149 63E148D0 		.ascii	"c\341H\320\037\210z'\202\263\336\351\220\177n,L?[\216"
  96      1F887A27 
  96      82B3DEE9 
  96      907F6E2C 
  96      4C3F5B8E 
  97 015d 81BB     		.ascii	"\201\273"
  98              		.text
  99              		.section	.gnu.lto_.symbol_nodes.d235519,"",%progbits
 100 0000 789C55C9 		.ascii	"x\234U\311\301\015@P\020\006\341\331]\3539*@\251\222"
 100      C10D4050 
 100      1006E1D9 
 100      5DEB392A 
 100      40A992
 101 0013 5F094ECE 		.ascii	"_\011N\316\012Q\203\032\034\324!$\034\236\271}\231\000"
 101      0A51831A 
 101      1CD42124 
 101      1C9EB97D 
ARM GAS  C:\Users\Luggi\AppData\Local\Temp\ccteuDre.s 			page 7


 101      9900
 102 0025 46BEDC04 		.ascii	"F\276\334\004\363\016\022\313\332\341.\3739\344\265"
 102      F30E12CB 
 102      DAE12EFB 
 102      39E4B5
 103 0034 33E94562 		.ascii	"3\351Eb\253+\274Q\324\323Z5\257\231\246\207EY1\274\345"
 103      AB2BBC51 
 103      D4D35A35 
 103      AF99A687 
 103      455931BC 
 104 0049 3C2E8B2C 		.ascii	"<.\213,\234\333\300\015W\227\0368"
 104      9CDBC00D 
 104      57971E38 
 105              		.text
 106              		.section	.gnu.lto_.refs.d235519,"",%progbits
 107 0000 789C6366 		.ascii	"x\234cf``\340c\200\000&&\006fFF\026&FV\006\026F\006"
 107      6060E063 
 107      80002626 
 107      06664646 
 107      16264656 
 108 0018 00026100 		.ascii	"\000\002a\000,"
 108      2C
 109              		.text
 110              		.section	.gnu.lto_.decls.d235519,"",%progbits
 111 0000 789C7593 		.ascii	"x\234u\223\177lSU\024\307\357\351-\245k\237\014\263"
 111      7F6C5355 
 111      14C7EFE9 
 111      2DA56B9F 
 111      0CB3
 112 0012 649825C6 		.ascii	"d\230%\306\012\311\242f\341\017\243\211\376\005R\015"
 112      0AC9A266 
 112      E10FA389 
 112      FE05520D 
 113 0022 2653D350 		.ascii	"&S\323P\026\377pq\224\371D\002Y\233\321\231\360\337"
 113      16FF7071 
 113      94F94402 
 113      599BD199 
 113      F0DF
 114 0034 5D21191A 		.ascii	"]!\031\032\262\214\005\343$:\037\231qlB\327\2251G'\256"
 114      B28C05E3 
 114      243A1F99 
 114      716C42D7 
 114      95314727 
 115 0049 73EB2834 		.ascii	"s\353(4D'c\254H\306\374\361G\325\030\037N\215f#\365"
 115      442763AC 
 115      48C6FCF1 
 115      47D5181F 
 115      4E8D6623 
 116 005e DCF3DEA3 		.ascii	"\334\363\336\243\017\334nr\332{\337\373~?\347\334s\357"
 116      0FDC6E72 
 116      DA7BDFFB 
 116      7E3FE7DC 
 116      73EF
 117 0070 E38CB1A7 		.ascii	"\343\214\261\247\200\261\"\216f'c\177\340z\015F\200"
 117      80B1228E 
 117      6627637F 
 117      E07A0D46 
ARM GAS  C:\Users\Luggi\AppData\Local\Temp\ccteuDre.s 			page 8


 117      80
 118 0081 95860BE3 		.ascii	"\225\206\013\3434F\034#\201\221\304\030\302\030\306"
 118      34461C23 
 118      8191C418 
 118      C218C6
 119 0090 70605CC0 		.ascii	"p`\\\300\230b\367\016\251\007\033\007\314g\367\217\370"
 119      9862F70E 
 119      A9071B07 
 119      CC67F78F 
 119      F8
 120 00a1 0ABAF80A 		.ascii	"\012\272\370\012:\231\327m\352*1.b\2440\262\030\223"
 120      3A99D76D 
 120      EA2A312E 
 120      62A430B2 
 120      1893
 121 00b3 189730FA 		.ascii	"\030\2270\372L\177\332\254+a\326\271Z\215r\037kmL\213"
 121      4C7FDAAC 
 121      2B61D6B9 
 121      5A8D721F 
 121      6B6D4C8B 
 122 00c7 955A8597 		.ascii	"\225Z\205\2274\367\014+\260n;\340|\374\317+\336\202"
 122      34F70C2B 
 122      B06E3BE0 
 122      7CFCCF2B 
 122      DE82
 123 00d9 03D6797C 		.ascii	"\003\326y|r\231\352\314v\271p\251x\234r9\272\364\303"
 123      7299EACC 
 123      76B970A9 
 123      789C7239 
 123      BAF4C3
 124 00ec 8C73C37B 		.ascii	"\214s\303{\002G\307!\261\336\011\201J\350\205*8\005"
 124      0247C721 
 124      B1DE0981 
 124      4AE8852A 
 124      3805
 125 00fe 5548EC83 		.ascii	"UH\354\203\015\370\373\232\323 \215\317eb\345\334\001"
 125      0DF8FB9A 
 125      D3208DCF 
 125      6562E5DC 
 125      01
 126 010f 72DED3F5 		.ascii	"r\336\323\365\375\214\247\246\037mGD:\353(\245\373i"
 126      FD8CA7A6 
 126      1F6D4744 
 126      3AEB28A5 
 126      FB69
 127 0121 62E223A7 		.ascii	"b\342#\247\257[\350\011}\344D^\021Y\221.\026\267\020"
 127      AF5BE809 
 127      7DE4445E 
 127      1159912E 
 127      16B710
 128 0134 0AFA81C3 		.ascii	"\012\372\201\303gPC\015\305\271\321\331\323\340C\333"
 128      6750430D 
 128      C5B9D1D9 
 128      D3E043DB 
 129 0144 F563A95E 		.ascii	"\365c\251^\007\177\226\330\323\277\315\316)\204\320"
 129      077F96D8 
 129      D3BFCDCE 
ARM GAS  C:\Users\Luggi\AppData\Local\Temp\ccteuDre.s 			page 9


 129      2984D0
 130 0153 FE498AAD 		.ascii	"\376I\212\255\207\305r\261\310\011p\306\0068c\001\342"
 130      87C572B1 
 130      C80970C6 
 130      06386301 
 130      E2
 131 0164 04F8FADA 		.ascii	"\004\370\372\332\325i7\257%\300_\213\213\037\226!@K"
 131      D56937AF 
 131      25C05F8B 
 131      8B1F9621 
 131      404B
 132 0176 68DD3D2E 		.ascii	"h\335=.\243\002\362\017\330\374\003\226?A~14Up\362:"
 132      A302F20F 
 132      D8FC0396 
 132      3F417E31 
 132      345570F2 
 133 018b F2FF3A3B 		.ascii	"\362\377:;\223}\300\360\177w\217\177\320\346\037\264"
 133      937DC0F0 
 133      7F778F7F 
 133      D0E61FB4 
 134 019b FC49F29F 		.ascii	"\374I\362\237z\347\370\222\227\357\"\377\340|\337\217"
 134      7AE7F892 
 134      97EF22FF 
 134      E07CDF8F 
 135 01ab B2070B22 		.ascii	"\262\007\013\"\221\357\231W4{\017\316\332\020g-\304"
 135      91EF9957 
 135      347B0FCE 
 135      DA10672D 
 135      C4
 136 01bc 102162CB 		.ascii	"\020!b\313\355\303.\336\006\304H\344\356,{\211\241\375"
 136      EDC32EDE 
 136      06C448E4 
 136      EE2C7B89 
 136      A1FD
 137 01ce 9E14DB6C 		.ascii	"\236\024\333lM8g#\234\263\010\303D\230\035kks\363N\203"
 137      4D386723 
 137      9CB308C3 
 137      44981D6B 
 137      6B73F34E 
 138 01e3 D0FAE9E8 		.ascii	"\320\372\351\350\321\265x\322\225\036:\230\366\334\211"
 138      D1B578D2 
 138      951E3A98 
 138      F6DC89
 139 01f2 714ECBA2 		.ascii	"qN\313\242|\355\310\347\217\377\313\301S}D\210\230\320"
 139      7CEDC8E7 
 139      8FFFCBC1 
 139      537D4488 
 139      98D0
 140 0204 3B057F88 		.ascii	";\005\177\210AM\025<^\305`\024\252QFI`\004/\303y\274"
 140      414D153C 
 140      5EC56014 
 140      AA514649 
 140      60042FC3 
 141 021a 0C9FE051 		.ascii	"\014\237\340Q\353#\231\376\332Cb+\244\300\003\237\337"
 141      EB2399FE 
 141      DA43622B 
 141      A4C0039F 
ARM GAS  C:\Users\Luggi\AppData\Local\Temp\ccteuDre.s 			page 10


 141      DF
 142 022b 2D833298 		.ascii	"-\2032\230\307\177x\362\344\274\223\247\214\012>\270"
 142      C77F78F2 
 142      E4BC93A7 
 142      8C0A3EB8 
 143 023b 3694F06C 		.ascii	"6\224\360l:)\264\230\236\237X\212\334\216u\034\325\204"
 143      3A29B498 
 143      9E9F588A 
 143      DC8E751C 
 143      D584
 144 024d 5EDCF208 		.ascii	"^\334\362\010\001\2760\000fR&\327\264\225\013\260\011"
 144      01BE3000 
 144      665226D7 
 144      B4950BB0 
 144      09
 145 025e BD1FB70E 		.ascii	"\275\037\267\016\334\342\374\262\001\032\213_\355r\363"
 145      DCE2FCB2 
 145      011A8B5F 
 145      ED72F3
 146 026d 9BB4E0ED 		.ascii	"\233\264\340\355\213\255\231r\330XQ\255a\345\013\363"
 146      8BAD9972 
 146      D85851AD 
 146      61E50BF3 
 147 027d C3F5E956 		.ascii	"\303\365\351VN\3001\004\216C\205\265\213\307$\364\011"
 147      4EC03104 
 147      8E4385B5 
 147      8BC724F4 
 147      09
 148 028e FC61C7E4 		.ascii	"\374a\307\344\365\326cX8\273\233M\012e\366\257p\257"
 148      F5D66358 
 148      38BB9B4D 
 148      0A65F6AF 
 148      70AF
 149 02a0 69D848F5 		.ascii	"i\330H\365\313=.\334|\322-_2\253\307\326\326\034\271"
 149      CB3D2EDC 
 149      7CD22D5F 
 149      32ABC7D6 
 149      D61CB9
 150 02b3 1BBD3905 		.ascii	"\033\2759\005\252+Hu\313\0050\211\210/K]\220&\032\377"
 150      AA2B4875 
 150      CB053089 
 150      882F4B5D 
 150      90261AFF 
 151 02c7 4F071398 		.ascii	"O\007\023\230e\245\214\270\267o;~\271\343\345\005c\243"
 151      65A58CB8 
 151      B76F3B7E 
 151      B9E3E505 
 151      63A3
 152 02d9 3F67AF17 		.ascii	"?g\257\027\312\260cB\323G\346\012\360>\266N\010y\373"
 152      CAB06342 
 152      D347E60A 
 152      F03EB64E 
 152      0879FB
 153 02ec 2859E6BE 		.ascii	"(Y\346\276\216e\314\216MQ\307\246\365\342\353\312\273"
 153      8E65CC8E 
 153      4D51C7A6 
 153      F5E2EBCA 
ARM GAS  C:\Users\Luggi\AppData\Local\Temp\ccteuDre.s 			page 11


 153      BB
 154 02fd F234F14B 		.ascii	"\3624\361K.{\221ZR\372\224/\202BZ\374Gm\367\215\\\237"
 154      2E7B915A 
 154      52FA942F 
 154      82425AFC 
 154      476DF78D 
 155 0313 62174B7C 		.ascii	"b\027K|I\2345\305Y\022\017\374\375M\277\327.\226\267"
 155      499C35C5 
 155      59120FFC 
 155      FD4DBFD7 
 155      2E96B7
 156 0326 B024BE04 		.ascii	"\260$\276\004\212\325\002\234\262u/\371\237o\010\206"
 156      8AD5029C 
 156      B2752FF9 
 156      9F6F0886 
 157 0336 DE56FDE1 		.ascii	"\336V\375\341\2467\367\356qm\177\245\316\347g\276\355"
 157      A637F7EE 
 157      716D7FA5 
 157      CEE767BE 
 157      ED
 158 0347 6A93DA1C 		.ascii	"j\223\332\034\212\252o4\004\303-\315\215j} \030\366"
 158      8AAA6F34 
 158      04C32DCD 
 158      8D6A7D20 
 158      18F6
 159 0359 3F5D2FC5 		.ascii	"?]/\305\201\22777\262\007\345l\207z \032n6\235e\004"
 159      81973737 
 159      B207E56C 
 159      877A201A 
 159      6E369D65 
 160 036e DAAFAA11 		.ascii	"\332\257\252\021\217\234\275\032\332\247\266D\334\364"
 160      8F9CBD1A 
 160      DAA7B644 
 160      DCF4
 161 037c 301A8E3C 		.ascii	"0\032\216<\274:p\363[\214\034/4\205v\357W\327\264\354"
 161      BC3A70F3 
 161      5B8C1C2F 
 161      348576EF 
 161      57D7B4EC 
 162 0390 6D8A3EF3 		.ascii	"m\212>\363\350*\362\306\203\321\203\021\365\000Z\312"
 162      E82AF2C6 
 162      83D18311 
 162      F5005ACA 
 163 03a0 A545254B 		.ascii	"\245E%K0\212B*h\333s\376\332\272@Cp\347\216:\377N\257"
 163      308A422A 
 163      68DB73FE 
 163      DABA4043 
 163      70E78E3A 
 164 03b7 ED2D25D8 		.ascii	"\355-%\330\035j\334\327\022\371\017IN\314\356"
 164      1D6ADCD7 
 164      12F90F49 
 164      4ECCEE
 165              		.text
 166              		.section	.gnu.lto_.symtab.d235519,"",%progbits
 167 0000 4C43445F 		.ascii	"LCD_SaveConfig\000\000\000\000\000\000\000\000\000\000"
 167      53617665 
 167      436F6E66 
ARM GAS  C:\Users\Luggi\AppData\Local\Temp\ccteuDre.s 			page 12


 167      69670000 
 167      00000000 
 168 0018 0000AC00 		.ascii	"\000\000\254\000\000\000LCD_RestoreConfig\000\000\000"
 168      00004C43 
 168      445F5265 
 168      73746F72 
 168      65436F6E 
 169 0032 00000000 		.ascii	"\000\000\000\000\000\000\000\000\000\256\000\000\000"
 169      00000000 
 169      00AE0000 
 169      00
 170 003f 4C43445F 		.ascii	"LCD_Sleep\000\000\000\000\000\000\000\000\000\000\000"
 170      536C6565 
 170      70000000 
 170      00000000 
 170      00000000 
 171 0053 00B00000 		.ascii	"\000\260\000\000\000LCD_Wakeup\000\000\000\000\000\000"
 171      004C4344 
 171      5F57616B 
 171      65757000 
 171      00000000 
 172 0068 00000000 		.ascii	"\000\000\000\000\000\000\262\000\000\000LCD_enableS"
 172      0000B200 
 172      00004C43 
 172      445F656E 
 172      61626C65 
 173 007d 74617465 		.ascii	"tate\000\000\002\000\000\000\000\000\000\000\000\000"
 173      00000200 
 173      00000000 
 173      00000000 
 174 008d BD000000 		.ascii	"\275\000\000\000LCD_Stop\000\000\002\000\000\000\000"
 174      4C43445F 
 174      53746F70 
 174      00000200 
 174      000000
 175 00a0 00000000 		.ascii	"\000\000\000\000\000\264\000\000\000LCD_Enable\000\000"
 175      00B40000 
 175      004C4344 
 175      5F456E61 
 175      626C6500 
 176 00b5 02000000 		.ascii	"\002\000\000\000\000\000\000\000\000\000\266\000\000"
 176      00000000 
 176      0000B600 
 176      00
 177 00c2 00       		.ascii	"\000"
 178              		.text
 179              		.section	.gnu.lto_.opts,"",%progbits
 180 0000 272D666E 		.ascii	"'-fno-trapv' '-fno-strict-overflow' '-mcpu=cortex-m"
 180      6F2D7472 
 180      61707627 
 180      20272D66 
 180      6E6F2D73 
 181 0033 33272027 		.ascii	"3' '-mthumb' '-g' '-Og' '-ffunction-sections' '-flt"
 181      2D6D7468 
 181      756D6227 
 181      20272D67 
 181      2720272D 
ARM GAS  C:\Users\Luggi\AppData\Local\Temp\ccteuDre.s 			page 13


 182 0066 6F272027 		.ascii	"o' '-ffat-lto-objects'\000"
 182      2D666661 
 182      742D6C74 
 182      6F2D6F62 
 182      6A656374 
 183              		.text
 184              		.cfi_sections	.debug_frame
 185              		.section	.text.LCD_SaveConfig,"ax",%progbits
 186              		.align	2
 187              		.global	LCD_SaveConfig
 188              		.thumb
 189              		.thumb_func
 190              		.type	LCD_SaveConfig, %function
 191              	LCD_SaveConfig:
 192              	.LFB0:
 193              		.file 1 "Generated_Source\\PSoC5\\LCD_PM.c"
   1:Generated_Source\PSoC5/LCD_PM.c **** /*******************************************************************************
   2:Generated_Source\PSoC5/LCD_PM.c **** * File Name: LCD_PM.c
   3:Generated_Source\PSoC5/LCD_PM.c **** * Version 2.20
   4:Generated_Source\PSoC5/LCD_PM.c **** *
   5:Generated_Source\PSoC5/LCD_PM.c **** * Description:
   6:Generated_Source\PSoC5/LCD_PM.c **** *  This file provides the API source code for the Static Segment LCD component.
   7:Generated_Source\PSoC5/LCD_PM.c **** *
   8:Generated_Source\PSoC5/LCD_PM.c **** * Note:
   9:Generated_Source\PSoC5/LCD_PM.c **** *
  10:Generated_Source\PSoC5/LCD_PM.c **** ********************************************************************************
  11:Generated_Source\PSoC5/LCD_PM.c **** * Copyright 2008-2014, Cypress Semiconductor Corporation.  All rights reserved.
  12:Generated_Source\PSoC5/LCD_PM.c **** * You may use this file only in accordance with the license, terms, conditions,
  13:Generated_Source\PSoC5/LCD_PM.c **** * disclaimers, and limitations in the end user license agreement accompanying
  14:Generated_Source\PSoC5/LCD_PM.c **** * the software package with which this file was provided.
  15:Generated_Source\PSoC5/LCD_PM.c **** *******************************************************************************/
  16:Generated_Source\PSoC5/LCD_PM.c **** 
  17:Generated_Source\PSoC5/LCD_PM.c **** #include "LCD.h"
  18:Generated_Source\PSoC5/LCD_PM.c **** 
  19:Generated_Source\PSoC5/LCD_PM.c **** 
  20:Generated_Source\PSoC5/LCD_PM.c **** static LCD_BACKUP_STRUCT LCD_backup;
  21:Generated_Source\PSoC5/LCD_PM.c **** 
  22:Generated_Source\PSoC5/LCD_PM.c **** 
  23:Generated_Source\PSoC5/LCD_PM.c **** /*******************************************************************************
  24:Generated_Source\PSoC5/LCD_PM.c **** * Function Name: LCD_SaveConfig
  25:Generated_Source\PSoC5/LCD_PM.c **** ********************************************************************************
  26:Generated_Source\PSoC5/LCD_PM.c **** *
  27:Generated_Source\PSoC5/LCD_PM.c **** * Summary:
  28:Generated_Source\PSoC5/LCD_PM.c **** *  Does nothing, provided for consistency.
  29:Generated_Source\PSoC5/LCD_PM.c **** *
  30:Generated_Source\PSoC5/LCD_PM.c **** * Parameters:
  31:Generated_Source\PSoC5/LCD_PM.c **** *  None.
  32:Generated_Source\PSoC5/LCD_PM.c **** *
  33:Generated_Source\PSoC5/LCD_PM.c **** * Return:
  34:Generated_Source\PSoC5/LCD_PM.c **** *  None.
  35:Generated_Source\PSoC5/LCD_PM.c **** *
  36:Generated_Source\PSoC5/LCD_PM.c **** *******************************************************************************/
  37:Generated_Source\PSoC5/LCD_PM.c **** void LCD_SaveConfig(void) 
  38:Generated_Source\PSoC5/LCD_PM.c **** {
 194              		.loc 1 38 0
 195              		.cfi_startproc
 196              		@ args = 0, pretend = 0, frame = 0
ARM GAS  C:\Users\Luggi\AppData\Local\Temp\ccteuDre.s 			page 14


 197              		@ frame_needed = 0, uses_anonymous_args = 0
 198              		@ link register save eliminated.
 199 0000 7047     		bx	lr
 200              		.cfi_endproc
 201              	.LFE0:
 202              		.size	LCD_SaveConfig, .-LCD_SaveConfig
 203 0002 00BF     		.section	.text.LCD_RestoreConfig,"ax",%progbits
 204              		.align	2
 205              		.global	LCD_RestoreConfig
 206              		.thumb
 207              		.thumb_func
 208              		.type	LCD_RestoreConfig, %function
 209              	LCD_RestoreConfig:
 210              	.LFB1:
  39:Generated_Source\PSoC5/LCD_PM.c **** }
  40:Generated_Source\PSoC5/LCD_PM.c **** 
  41:Generated_Source\PSoC5/LCD_PM.c **** 
  42:Generated_Source\PSoC5/LCD_PM.c **** /*******************************************************************************
  43:Generated_Source\PSoC5/LCD_PM.c **** * Function Name: LCD_RestoreConfig
  44:Generated_Source\PSoC5/LCD_PM.c **** ********************************************************************************
  45:Generated_Source\PSoC5/LCD_PM.c **** *
  46:Generated_Source\PSoC5/LCD_PM.c **** * Summary:
  47:Generated_Source\PSoC5/LCD_PM.c **** *  Does nothing, provided for consistency.
  48:Generated_Source\PSoC5/LCD_PM.c **** *
  49:Generated_Source\PSoC5/LCD_PM.c **** * Parameters:
  50:Generated_Source\PSoC5/LCD_PM.c **** *  None.
  51:Generated_Source\PSoC5/LCD_PM.c **** *
  52:Generated_Source\PSoC5/LCD_PM.c **** * Return:
  53:Generated_Source\PSoC5/LCD_PM.c **** *  None.
  54:Generated_Source\PSoC5/LCD_PM.c **** *
  55:Generated_Source\PSoC5/LCD_PM.c **** *******************************************************************************/
  56:Generated_Source\PSoC5/LCD_PM.c **** void LCD_RestoreConfig(void) 
  57:Generated_Source\PSoC5/LCD_PM.c **** {
 211              		.loc 1 57 0
 212              		.cfi_startproc
 213              		@ args = 0, pretend = 0, frame = 0
 214              		@ frame_needed = 0, uses_anonymous_args = 0
 215              		@ link register save eliminated.
 216 0000 7047     		bx	lr
 217              		.cfi_endproc
 218              	.LFE1:
 219              		.size	LCD_RestoreConfig, .-LCD_RestoreConfig
 220 0002 00BF     		.section	.text.LCD_Sleep,"ax",%progbits
 221              		.align	2
 222              		.global	LCD_Sleep
 223              		.thumb
 224              		.thumb_func
 225              		.type	LCD_Sleep, %function
 226              	LCD_Sleep:
 227              	.LFB2:
  58:Generated_Source\PSoC5/LCD_PM.c **** }
  59:Generated_Source\PSoC5/LCD_PM.c **** 
  60:Generated_Source\PSoC5/LCD_PM.c **** 
  61:Generated_Source\PSoC5/LCD_PM.c **** /*******************************************************************************
  62:Generated_Source\PSoC5/LCD_PM.c **** * Function Name: LCD_Sleep
  63:Generated_Source\PSoC5/LCD_PM.c **** ********************************************************************************
  64:Generated_Source\PSoC5/LCD_PM.c **** *
ARM GAS  C:\Users\Luggi\AppData\Local\Temp\ccteuDre.s 			page 15


  65:Generated_Source\PSoC5/LCD_PM.c **** * Summary:
  66:Generated_Source\PSoC5/LCD_PM.c **** *  Prepares the component for entering the sleep mode.
  67:Generated_Source\PSoC5/LCD_PM.c **** *
  68:Generated_Source\PSoC5/LCD_PM.c **** * Parameters:
  69:Generated_Source\PSoC5/LCD_PM.c **** *  None.
  70:Generated_Source\PSoC5/LCD_PM.c **** *
  71:Generated_Source\PSoC5/LCD_PM.c **** * Return:
  72:Generated_Source\PSoC5/LCD_PM.c **** *  None.
  73:Generated_Source\PSoC5/LCD_PM.c **** *
  74:Generated_Source\PSoC5/LCD_PM.c **** * Reentrant:
  75:Generated_Source\PSoC5/LCD_PM.c **** *  No.
  76:Generated_Source\PSoC5/LCD_PM.c **** *
  77:Generated_Source\PSoC5/LCD_PM.c **** *******************************************************************************/
  78:Generated_Source\PSoC5/LCD_PM.c **** void LCD_Sleep(void) 
  79:Generated_Source\PSoC5/LCD_PM.c **** {
 228              		.loc 1 79 0
 229              		.cfi_startproc
 230              		@ args = 0, pretend = 0, frame = 0
 231              		@ frame_needed = 0, uses_anonymous_args = 0
 232              		.loc 1 79 0
 233 0000 08B5     		push	{r3, lr}
 234              		.cfi_def_cfa_offset 8
 235              		.cfi_offset 3, -8
 236              		.cfi_offset 14, -4
  80:Generated_Source\PSoC5/LCD_PM.c ****     LCD_backup.enableState = LCD_enableState;
 237              		.loc 1 80 0
 238 0002 034B     		ldr	r3, .L5
 239 0004 1A78     		ldrb	r2, [r3]	@ zero_extendqisi2
 240 0006 034B     		ldr	r3, .L5+4
 241 0008 1A70     		strb	r2, [r3]
  81:Generated_Source\PSoC5/LCD_PM.c ****     LCD_SaveConfig();
  82:Generated_Source\PSoC5/LCD_PM.c ****     LCD_Stop();
 242              		.loc 1 82 0
 243 000a FFF7FEFF 		bl	LCD_Stop
 244              	.LVL0:
 245 000e 08BD     		pop	{r3, pc}
 246              	.L6:
 247              		.align	2
 248              	.L5:
 249 0010 00000000 		.word	LCD_enableState
 250 0014 00000000 		.word	.LANCHOR0
 251              		.cfi_endproc
 252              	.LFE2:
 253              		.size	LCD_Sleep, .-LCD_Sleep
 254              		.section	.text.LCD_Wakeup,"ax",%progbits
 255              		.align	2
 256              		.global	LCD_Wakeup
 257              		.thumb
 258              		.thumb_func
 259              		.type	LCD_Wakeup, %function
 260              	LCD_Wakeup:
 261              	.LFB3:
  83:Generated_Source\PSoC5/LCD_PM.c **** }
  84:Generated_Source\PSoC5/LCD_PM.c **** 
  85:Generated_Source\PSoC5/LCD_PM.c **** 
  86:Generated_Source\PSoC5/LCD_PM.c **** /*******************************************************************************
  87:Generated_Source\PSoC5/LCD_PM.c **** * Function Name: LCD_Wakeup
ARM GAS  C:\Users\Luggi\AppData\Local\Temp\ccteuDre.s 			page 16


  88:Generated_Source\PSoC5/LCD_PM.c **** ********************************************************************************
  89:Generated_Source\PSoC5/LCD_PM.c **** *
  90:Generated_Source\PSoC5/LCD_PM.c **** * Summary:
  91:Generated_Source\PSoC5/LCD_PM.c **** *  Wakes the component from sleep mode. Configures DMA and enables the component
  92:Generated_Source\PSoC5/LCD_PM.c **** *  for normal operation.
  93:Generated_Source\PSoC5/LCD_PM.c **** *
  94:Generated_Source\PSoC5/LCD_PM.c **** * Parameters:
  95:Generated_Source\PSoC5/LCD_PM.c **** *  LCD_enableState - Global variable.
  96:Generated_Source\PSoC5/LCD_PM.c **** *
  97:Generated_Source\PSoC5/LCD_PM.c **** * Return:
  98:Generated_Source\PSoC5/LCD_PM.c **** *  Status one of standard status for PSoC3 Component
  99:Generated_Source\PSoC5/LCD_PM.c **** *       CYRET_SUCCESS - Function completed successfully.
 100:Generated_Source\PSoC5/LCD_PM.c **** *       CYRET_LOCKED - The object was locked, already in use. Some of TDs or
 101:Generated_Source\PSoC5/LCD_PM.c **** *                      a channel already in use.
 102:Generated_Source\PSoC5/LCD_PM.c **** *
 103:Generated_Source\PSoC5/LCD_PM.c **** * Reentrant:
 104:Generated_Source\PSoC5/LCD_PM.c **** *  No.
 105:Generated_Source\PSoC5/LCD_PM.c **** *
 106:Generated_Source\PSoC5/LCD_PM.c **** *******************************************************************************/
 107:Generated_Source\PSoC5/LCD_PM.c **** void LCD_Wakeup(void) 
 108:Generated_Source\PSoC5/LCD_PM.c **** {
 262              		.loc 1 108 0
 263              		.cfi_startproc
 264              		@ args = 0, pretend = 0, frame = 0
 265              		@ frame_needed = 0, uses_anonymous_args = 0
 266 0000 08B5     		push	{r3, lr}
 267              		.cfi_def_cfa_offset 8
 268              		.cfi_offset 3, -8
 269              		.cfi_offset 14, -4
 109:Generated_Source\PSoC5/LCD_PM.c ****     LCD_RestoreConfig();
 110:Generated_Source\PSoC5/LCD_PM.c **** 
 111:Generated_Source\PSoC5/LCD_PM.c ****     if(LCD_backup.enableState == 1u)
 270              		.loc 1 111 0
 271 0002 034B     		ldr	r3, .L10
 272 0004 1B78     		ldrb	r3, [r3]	@ zero_extendqisi2
 273 0006 012B     		cmp	r3, #1
 274 0008 01D1     		bne	.L7
 112:Generated_Source\PSoC5/LCD_PM.c ****     {
 113:Generated_Source\PSoC5/LCD_PM.c ****         LCD_Enable();
 275              		.loc 1 113 0
 276 000a FFF7FEFF 		bl	LCD_Enable
 277              	.LVL1:
 278              	.L7:
 279 000e 08BD     		pop	{r3, pc}
 280              	.L11:
 281              		.align	2
 282              	.L10:
 283 0010 00000000 		.word	.LANCHOR0
 284              		.cfi_endproc
 285              	.LFE3:
 286              		.size	LCD_Wakeup, .-LCD_Wakeup
 287              		.bss
 288              		.align	2
 289              		.set	.LANCHOR0,. + 0
 290              		.type	LCD_backup, %object
 291              		.size	LCD_backup, 1
 292              	LCD_backup:
ARM GAS  C:\Users\Luggi\AppData\Local\Temp\ccteuDre.s 			page 17


 293 0000 00       		.space	1
 294 0001 000000   		.text
 295              	.Letext0:
 296              		.file 2 "Generated_Source\\PSoC5\\cytypes.h"
 297              		.file 3 "Generated_Source\\PSoC5\\LCD.h"