ARM GAS  C:\Users\Luggi\AppData\Local\Temp\ccvHKl2T.s 			page 1


   1              		.syntax unified
   2              		.cpu cortex-m3
   3              		.fpu softvfp
   4              		.eabi_attribute 20, 1
   5              		.eabi_attribute 21, 1
   6              		.eabi_attribute 23, 3
   7              		.eabi_attribute 24, 1
   8              		.eabi_attribute 25, 1
   9              		.eabi_attribute 26, 1
  10              		.eabi_attribute 30, 1
  11              		.eabi_attribute 34, 1
  12              		.eabi_attribute 18, 4
  13              		.thumb
  14              		.file	"PGA_2.c"
  15              		.text
  16              	.Ltext0:
  17              		.section	.gnu.lto_.profile.53c7b733,"",%progbits
  18 0000 789C6366 		.ascii	"x\234cf```a\200\000F\206\012?\000\001\262\000\317"
  18      60606061 
  18      80004686 
  18      0A3F0001 
  18      B200CF
  19              		.text
  20              		.section	.gnu.lto_.inline.53c7b733,"",%progbits
  21 0000 789C6366 		.ascii	"x\234cf\300\016\016Ai6\006\006\036nF\006&\241\013=\214"
  21      C00E0E41 
  21      69360606 
  21      1E6E4606 
  21      26A10B3D 
  22 0015 0C6C0BE4 		.ascii	"\014l\013\344\231@\202\214\014\234\034@1\236\007\261"
  22      9940828C 
  22      0C9C1C40 
  22      319E07B1 
  23 0025 70212606 		.ascii	"p!&\006\016vFF\240\014\0033\307\001;\2100\323\005~\026"
  23      0E764646 
  23      A00C0333 
  23      C7013B88 
  23      30D3057E 
  24 003a 901CB390 		.ascii	"\220\034\263\220\206\002#3C\352G&\306%S\247\255a}\301"
  24      86022333 
  24      43EA4726 
  24      C62553A7 
  24      AD617DC1 
  25 004e F413A89C 		.ascii	"\364\023\250\234\201q9\243\024\003C\032\204\002jdQh"
  25      817139A3 
  25      1403431A 
  25      84026A64 
  25      5168
  26 0060 F805B583 		.ascii	"\370\005\265\203e\201\274\000\203Z\317VF\220~\001\240"
  26      6581BC00 
  26      835ACF56 
  26      46907E01 
  26      A0
  27 0071 23786481 		.ascii	"#xd\201\366qM\360C\330\307\015\322\003!\331\0318\205"
  27      F6714DF0 
  27      43D8C70D 
  27      D20321D9 
ARM GAS  C:\Users\Luggi\AppData\Local\Temp\ccvHKl2T.s 			page 2


  27      193885
  28 0084 816C8E5F 		.ascii	"\201l\216_&\010\027r\301\010\006\000\2379\031\011"
  28      26081772 
  28      C1080600 
  28      9F391909 
  29              		.text
  30              		.section	.gnu.lto_.jmpfuncs.53c7b733,"",%progbits
  31 0000 789C6366 		.ascii	"x\234cf\300\016\334\2404\033\0203200122\3263\203\010"
  31      C00EDCA0 
  31      341B1033 
  31      32303031 
  31      3232D633 
  32 0016 A00023D3 		.ascii	"\240\000#\323G&\306\213\263\2265\363\277`\372\011\224"
  32      4726C68B 
  32      B39635F3 
  32      BF60FA09 
  32      94
  33 0027 61605CCE 		.ascii	"a`\\\316(\005\021\275\377\344\374E\016\260(P\331\012"
  33      280511BD 
  33      FFE4FC45 
  33      0EB02850 
  33      D90A
  34 0039 A0283BD8 		.ascii	"\240(;\330\024\000\342\260\016\267"
  34      1400E2B0 
  34      0EB7
  35              		.text
  36              		.section	.gnu.lto_.pureconst.53c7b733,"",%progbits
  37 0000 789C6366 		.ascii	"x\234cf``\340e\200\0006\006)F)&)f)6)v\011\000\005\273"
  37      6060E065 
  37      80003606 
  37      29462926 
  37      29662936 
  38 001a 00C4     		.ascii	"\000\304"
  39              		.text
  40              		.section	.gnu.lto_PGA_2_Enable.53c7b733,"",%progbits
  41 0000 789C7D92 		.ascii	"x\234}\222=H\002q\024\300\337{\247\207\207\024\321\024"
  41      3D480271 
  41      14C0DF7B 
  41      A7878714 
  41      D114
  42 0012 2ED1E4D6 		.ascii	".\321\344\326\020\264\264E\203\253\340*D\224k\206X\253"
  42      10B4B445 
  42      83ABE02A 
  42      44946B86 
  42      58AB
  43 0024 27594953 		.ascii	"'YIS\012\202`\215\321\247i\351\220}\20049\025NJAAX\324"
  43      0A82608D 
  43      D1A769E9 
  43      907D8034 
  43      39154E4A 
  44 003c 96198543 		.ascii	"\226\031\205C\331{we`\324\301\275w\037\357\375\336\357"
  44      D97B7765 
  44      60D4C1BD 
  44      771FEFFD 
  44      DEEF
  45 004e EEFF57E0 		.ascii	"\356\377W\340\367\341\340\323M\000\003\234Q\001\244"
  45      F7E1E0D3 
ARM GAS  C:\Users\Luggi\AppData\Local\Temp\ccvHKl2T.s 			page 3


  45      4D00039C 
  45      5101A4
  46 005d 957380B0 		.ascii	"\225s\200\260\215\020\345\002\020B\204!|\244:\341Jq"
  46      8D10E502 
  46      10428421 
  46      7CA43AE1 
  46      4A71
  47 006f 276977AE 		.ascii	"'iw\256\353\272\376t\233\353[\350kr[\203L\014n\240\023"
  47      EBBAFE74 
  47      9BEB5BE8 
  47      6B725B83 
  47      4C0C6EA0 
  48 0084 B8A61E79 		.ascii	"\270\246\036y\257\330\325\010\327\364\230\357p\023U"
  48      AFD8D508 
  48      D7F498EF 
  48      701355
  49 0093 E49CE92D 		.ascii	"\344\234\351-\352\255V\343\"\3660\202v\202&\3610\016"
  49      EAAD56E3 
  49      22F63082 
  49      768226F1 
  49      300E
  50 00a5 5609AA04 		.ascii	"V\011\252\004\233\004M\002@\215;e\374\035\221d\345\022"
  50      9B044D02 
  50      408D3B65 
  50      FC1D9164 
  50      E512
  51 00b7 CF5E97EF 		.ascii	"\317^\227\357SA\201\275\221\270\\\245\217K\335\017\324"
  51      534181BD 
  51      91B85CA5 
  51      8F4BDD0F 
  51      D4
  52 00c8 24DA5A0A 		.ascii	"$\332Z\012\353\026\031}S\273(\333\214G \267\311\362"
  52      EB16197D 
  52      53BB28DB 
  52      8C4720B7 
  52      C9F2
  53 00da 61B46B0D 		.ascii	"a\264k\015S\341\0106I\301-t\3406\362\327\342\016\256"
  53      53E10836 
  53      49C12D74 
  53      E036F2D7 
  53      E20EAE
  54 00ed 215CE2FC 		.ascii	"!\\\342\374\213j\342\024\223x\024/%UiG\013\340.W\362"
  54      8B6AE214 
  54      9378142F 
  54      25556947 
  54      0BE02E57 
  55 0102 D0384AC9 		.ascii	"\3208J\311\177\2604\303\030\001\206\341Gj\316DZ\271"
  55      7FB034C3 
  55      180186E1 
  55      476ACE44 
  55      5AB9
  56 0114 2511AB3E 		.ascii	"%\021\253>\243\241S\3706L\324\027\013\226\037\312^\233"
  56      A3A153F8 
  56      364CD417 
  56      0B961FCA 
  56      5E9B
  57 0126 92E95012 		.ascii	"\222\351P\022\304/\207?\273\263\206\203j:\234\257\316"
ARM GAS  C:\Users\Luggi\AppData\Local\Temp\ccvHKl2T.s 			page 4


  57      C42F873F 
  57      BBB38683 
  57      6A3A9CAF 
  57      CE
  58 0137 980C1BB7 		.ascii	"\230\014\033\267\344\243\325'\273\341\360\226\375rh"
  58      E4A3D527 
  58      BBE1F096 
  58      FD7268
  59 0146 9DA617B5 		.ascii	"\235\246\027\265\037\312~\233r\320\341\240\231\210\304"
  59      1FCA7E9B 
  59      72D0E1A0 
  59      9988C4
  60 0155 C96A5C33 		.ascii	"\311j\\3~\213\216\200\271\016\247?iy\303I\203k\014\027"
  60      7E8B8E80 
  60      B90EA73F 
  60      6979C349 
  60      836B0C17 
  61 0169 2B2EA996 		.ascii	"+.\251\226]R\343\305\345\365\344\005\352w\371\246}\201"
  61      5D52E3C5 
  61      E5F5E405 
  61      EA77F9A6 
  61      7D81
  62 017b 89A06F6A 		.ascii	"\211\240oj\334\343\237\015L\372\274n\217\177l\330\353"
  62      DCE39F0D 
  62      4CFABC6E 
  62      8F7F6CD8 
  62      EB
  63 018c 768D8E0F 		.ascii	"v\215\216\017\015N\302'L\016\323\325"
  63      0D4EC227 
  63      4C0ED3D5 
  64              		.text
  65              		.section	.gnu.lto_PGA_2_Stop.53c7b733,"",%progbits
  66 0000 789C7D91 		.ascii	"x\234}\221\313K\002Q\024\306\3179W\007A\214h%n\2426"
  66      CB4B0251 
  66      14C6CF39 
  66      5707418C 
  66      68256EA2 
  67 0015 EE5A04FD 		.ascii	"\356Z\004\375\001\321\302]\010n\005\011\233m\202X[g"
  67      01D1C25D 
  67      086E0509 
  67      9B6D8258 
  67      5B67
  68 0027 C81EB432 		.ascii	"\310\036\2642C\020\302e\250\371\012\332$mL\010Z\025"
  68      4310C265 
  68      A8F90ADA 
  68      246D4C08 
  68      5A15
  69 0039 6E7A18D4 		.ascii	"nz\030\324\306^\273L\250\206(;w\206\012\222\272p\317"
  69      C65EBB4C 
  69      A886283B 
  69      77860A92 
  69      BA70CF
  70 004c 7DCC777E 		.ascii	"}\314w~\347\273g\004\364\017\017\317]\004\030\341\025"
  70      E7BB6704 
  70      F40F0FCF 
  70      5D0418E1 
  70      15
ARM GAS  C:\Users\Luggi\AppData\Local\Temp\ccvHKl2T.s 			page 5


  71 005d 0520258F 		.ascii	"\005 %\217\001t\007!\312\015 \304\011\343\370@\035\302"
  71      01740721 
  71      CA0D20C4 
  71      09E3F840 
  71      1DC2
  72 006f 64BD9871 		.ascii	"d\275\230qz\2674M{l\\\270\227\334\006\001t\311\302`"
  72      7AB7344D 
  72      7B6C5CB8 
  72      97DC0601 
  72      74C9C260 
  73 0083 0EBDC09A 		.ascii	"\016\275\300\232N\342\375\314\251$X3h}\303<*\214\207"
  73      4EE2FDCC 
  73      A9245833 
  73      687DC33C 
  73      2A8C87
  74 0096 EA505DEB 		.ascii	"\352P]\353\365\272\267\251\374\250p\020\030\304\305"
  74      F5BAB7A9 
  74      FCA87010 
  74      18C4C5
  75 00a5 38D86550 		.ascii	"8\330ePd\000h\263^\026\275!\222\253ha\343y\355\243\024"
  75      640068B3 
  75      5E16BD21 
  75      92AB6861 
  75      E379EDA3 
  76 00ba 93881792 		.ascii	"\223\210\027\222\016.\313\373G\003\367d\020\025Vt\315"
  76      0E2ECBFB 
  76      4703F764 
  76      10155674 
  76      CD
  77 00cb 260B5EB7 		.ascii	"&\013^\267O\232\016\363\012\3441\323\334[ueqSO\240A"
  77      4F9A0EF3 
  77      0AE431D3 
  77      DC5B7565 
  77      71534FA0 
  78 00e0 020BE8C1 		.ascii	"\002\013\350\301m\3447b\021\263\010-\\|U,\234\260\210"
  78      6DE43762 
  78      11B3082D 
  78      5C7C552C 
  78      9CB088
  79 00f3 B9C3BB03 		.ascii	"\271\303\273\003\227L\027o\010Xb)WM\241\324\374G+3\215"
  79      974C176F 
  79      08586229 
  79      574DA1D4 
  79      FC472B33 
  80 0108 19605A3C 		.ascii	"\031`Z<-/XL;\247\244\327\317\237\320\364S\373\262\230"
  80      2D2F584C 
  80      3BA7A4D7 
  80      CF9FD0F4 
  80      53FBB298 
  81 011c EE2CD76C 		.ascii	"\356,\327l?\224\3127\245\372\313\223D\364y\3703{\307"
  81      3F94CA37 
  81      A5FACB93 
  81      44F479F8 
  81      337BC7
  82 012f F4A0C015 		.ascii	"\364\240\300\025\352\365\215i\251\226?\242\315\235\344"
  82      EAF58D69 
  82      A9963FA2 
ARM GAS  C:\Users\Luggi\AppData\Local\Temp\ccvHKl2T.s 			page 6


  82      CD9DE4
  83 013e E6713786 		.ascii	"\346q7\206}\352\234\032\235\211\251\263\241@d>\032V"
  83      7DEA9C1A 
  83      9D89A9B3 
  83      A140643E 
  83      1A56
  84 0150 83FE4064 		.ascii	"\203\376@dj\"\350\367M\206\306\307\302\360\011TY\240"
  84      6A22E8F7 
  84      4D86C6C7 
  84      C2F00954 
  84      59A0
  85 0162 3F       		.ascii	"?"
  86              		.text
  87              		.section	.gnu.lto_PGA_2_SetPower.53c7b733,"",%progbits
  88 0000 789C6551 		.ascii	"x\234eQMHTQ\024\276\337\271\363\236\303\314\242\237"
  88      4D485451 
  88      14BEDFB9 
  88      F39EC3CC 
  88      A29F
  89 0012 95CC4648 		.ascii	"\225\314FH\006\025\322\205\320\246U\341\302\235Hn\005"
  89      0615D285 
  89      D0A655E1 
  89      C29D486E 
  89      05
  90 0023 097DCB1C 		.ascii	"\011}\313\034\031\214\226\336\227\243`\020H\021\010"
  90      198C96DE 
  90      97A36010 
  90      481108
  91 0032 2AA2116A 		.ascii	"*\242\021j3:j\253\022\364%\344F0ZT$\232?LY;eR\033\261"
  91      333A6AAB 
  91      12F425E4 
  91      46305A54 
  91      249A3F4C 
  92 004c C673DE6B 		.ascii	"\306s\336k\341\320\205\313\271||\337w\276s\256V\377"
  92      E1D085CB 
  92      B97C7CDF 
  92      77BE73AE 
  92      56FF
  93 005e 9F18DF2B 		.ascii	"\237\030\337+\244T-Wh\005\032\\W\312\015\023 \017\005"
  93      A4542D57 
  93      68051A5C 
  93      57CA0D13 
  93      200F05
  94 0071 D543E8C1 		.ascii	"\325C\350\301O:$\014z\351\241h\325\013c\314\301\304"
  94      4F3A240C 
  94      7AE9A168 
  94      D50B63CC 
  94      C1C4
  95 0083 51795F79 		.ascii	"Qy_y\201ey\012l0\211*\246L?{\273uI_\203\342\367\350"
  95      8165790A 
  95      6C30892A 
  95      A64C3F7B 
  95      BB75495F 
  96 009b F6F7558A 		.ascii	"\366\367U\212?7\346\241\2678kn\241\300\236S\320\254"
  96      3F37E6A1 
  96      B7386B6E 
  96      A1C09E53 
ARM GAS  C:\Users\Luggi\AppData\Local\Temp\ccvHKl2T.s 			page 7


  96      D0AC
  97 00ad C0F5186A 		.ascii	"\300\365\030jb\212\001\205i\304\205\274\27362\\\246"
  97      628A0185 
  97      69C485BC 
  97      BB36325C 
  97      A6
  98 00be AB7DE1CC 		.ascii	"\253}\341\314\353]\023\251\034g\341Nf\1775j\206Lj\247"
  98      EB5D13A9 
  98      1C67E14E 
  98      667F356A 
  98      864C6AA7 
  99 00d2 58AC10FD 		.ascii	"X\254\020\375\313\213\372\340\260\3400\365\347s\324"
  99      CB8BFAE0 
  99      B0E030F5 
  99      E773D4
 100 00e1 4E71B0CB 		.ascii	"Nq\260\313H\2432\010\205\014lp\021${\3253\305b\376\343"
 100      48A33208 
 100      850C6C70 
 100      11247BD5 
 100      33C562FE 
 101 00f6 D3A93A1D 		.ascii	"\323\251:\035&nL<)\343!H\177K\000\333\007\224\312\261"
 101      266E4C3C 
 101      29E32148 
 101      7F4B00DB 
 101      0794CAB1 
 102 010a 5626FF46 		.ascii	"V&\377F$Uo`\345\370\321\361\233\233bwB\262\006\357K"
 102      24556F60 
 102      E5F8D1F1 
 102      9B9B6277 
 102      42B206EF 
 103 011f FF63FCA0 		.ascii	"\377c\374\240\002\351\2019\327\204$\300v\356\375\207"
 103      02E98139 
 103      D78424C0 
 103      76EEFD87 
 104 012f B00FF979 		.ascii	"\260\017\371y&\327\227\3660\212a7\305C\2070\203\030"
 104      26D797F6 
 104      308A6137 
 104      C5438730 
 104      8318
 105 0141 66C17991 		.ascii	"f\301y\221eTm\240\367w\377&\002C\035x\276[Z\336\213"
 105      65546DA0 
 105      F777FF26 
 105      02431D78 
 105      BE5B5ADE 
 106 0156 8801CE78 		.ascii	"\210\001\316x'sL\376\004\362'\340P\314\012D\247\377"
 106      27734CFE 
 106      04F227E0 
 106      50CC0A44 
 106      A7FF
 107 0168 52582714 		.ascii	"RX'\024bQv\354\350\257\037D\376m\2365L\372e\007\224"
 107      625176EC 
 107      E8AF1F44 
 107      FE6D9E35 
 107      4CFA6507 
 108 017d 80A54B6D 		.ascii	"\200\245Kmlf\254<\231\337|e\011V\022\324\365\254\322"
 108      6C66AC3C 
 108      99DF7C65 
ARM GAS  C:\Users\Luggi\AppData\Local\Temp\ccvHKl2T.s 			page 8


 108      095612D4 
 108      F5ACD2
 109 0190 A80B8C8B 		.ascii	"\250\013\214\213\342+\\/\337$|Yv\216\277\214\267\302"
 109      E22B5C2F 
 109      DF247C59 
 109      768EBF8C 
 109      B7C2
 110 01a2 3BAA6874 		.ascii	";\252ht:\235\344\335n\247\243\255%q?\331\356\2646\267"
 110      3A9DE4DD 
 110      6EA7A3AD 
 110      25713FD9 
 110      EEB436B7 
 111 01b6 241A6EB4 		.ascii	"$\032n\26467\336n\253\257kWVW\342\201\223\264\272\357"
 111      3637DE6E 
 111      ABAF6B57 
 111      5657E281 
 111      93B4BAEF 
 112 01ca 7535DC39 		.ascii	"u5\3349\007M\211\301\250"
 112      074D89C1 
 112      A8
 113              		.text
 114              		.section	.gnu.lto_PGA_2_SetGain.53c7b733,"",%progbits
 115 0000 789C8D54 		.ascii	"x\234\215T[HTQ\024=\373\334{\347\251\343\240\244\203"
 115      5B485451 
 115      143DFBDC 
 115      7BE7A9E3 
 115      A0A483
 116 0013 44421212 		.ascii	"DB\022\022=\204\242\372-\"\254\276\242~#\221\222\350"
 116      3D84A2FA 
 116      2D22ACBE 
 116      A27E2391 
 116      92E8
 117 0025 A30CA98F 		.ascii	"\243\014\251\217>\242cNcE\217\301\312\244(\222\036j"
 117      3EA2634E 
 117      63458FC1 
 117      CAA42892 
 117      1E6A
 118 0037 5A939669 		.ascii	"Z\223\226if5Z\232\0172\2021+|QJ\326GeJ6\231M{\2373>"
 118      66355A9A 
 118      0F328231 
 118      2B7C514A 
 118      D647654A 
 119 0052 2A950666 		.ascii	"*\225\006f\335\263\317]{\335\265\367\276\347j\354\337"
 119      DDB3CF5D 
 119      7BDDB5F7 
 119      BEE76AEC 
 119      DF
 120 0063 DF52FC7F 		.ascii	"\337R\374\1773\030[\203W0\030po+cY\026\316\265@2\023"
 120      33185B83 
 120      57301870 
 120      6F2B6359 
 120      16CEB540 
 121 0079 36BD660E 		.ascii	"6\275f\016\023\021\032\350j[\007\240\005\003v\200k:"
 121      13111AE8 
 121      6A5B07A0 
 121      05037680 
 121      6B3A
ARM GAS  C:\Users\Luggi\AppData\Local\Temp\ccvHKl2T.s 			page 9


 122 008b 1C800F7C 		.ascii	"\034\200\017|\200\203\327_\222oO\272*\204\370R>\342"
 122      8083D75F 
 122      926F4FBA 
 122      2A84F852 
 122      3EE2
 123 009d 3AE40A72 		.ascii	":\344\012r\306\006\271\322\207BHB\312\245\013E\225\221"
 123      C606B9D2 
 123      87424842 
 123      CAA50B45 
 123      9591
 124 00af DA5C60B8 		.ascii	"\332\\`\270\016\265\3447\350\363.\013q\320_}S\254\204"
 124      0EB5E437 
 124      E8F32E0B 
 124      71D05F7D 
 124      53AC84
 125 00c2 20072802 		.ascii	" \007(\002\0153`a<\314\217g\270\301\240\030\346\021"
 125      0D336061 
 125      3CCC8F67 
 125      B8C1A018 
 125      E611
 126 00d4 D95373ED 		.ascii	"\331Ss\355\275CK\222\211\367\312\274AG?\017r\276\226"
 126      BD434B92 
 126      89F7CABC 
 126      41473F0F 
 126      72BE96
 127 00e7 C2578D67 		.ascii	"\302W\215g\227Q\244Y)\252\353\314\361\332\023\013\204"
 127      9751A459 
 127      29AAEBCC 
 127      F1DA130B 
 127      84
 128 00f8 57F47415 		.ascii	"W\364t\025\256\027\371\302\335\023\012%\004\271\016"
 128      AE17F9C2 
 128      DD130A25 
 128      04B90E
 129 0107 D7957609 		.ascii	"\327\225v\011\304C)\304\207\353\306\214\222>w\217M["
 129      C44329C4 
 129      87EBC68C 
 129      923E778F 
 129      4D5B
 130 0119 21A53B46 		.ascii	"!\245;F\352Km2\373\322H\322\244\334\233\323\344\016"
 130      EA4B6D32 
 130      FBD248D2 
 130      A4DC9BD3 
 130      E40E
 131 012b B847DBED 		.ascii	"\270G\333\355&7\226\354\204\033\220\010>HT%\303-0\001"
 131      263796EC 
 131      841B9008 
 131      3E485425 
 131      C32D3001 
 132 013f 637C6CD7 		.ascii	"c|l\327\027\355\027\241\320\355O\247\372\027\350\263"
 132      17ED17A1 
 132      D0ED4FA7 
 132      FA17E8B3 
 133 014f 0DA0B24C 		.ascii	"\015\240\262LX\240a&\260\022\330\020LvZE\020D\0228\010"
 133      58A06126 
 133      B012D810 
 133      4C765A45 
ARM GAS  C:\Users\Luggi\AppData\Local\Temp\ccvHKl2T.s 			page 10


 133      10441238 
 134 0164 A2089C04 		.ascii	"\242\010\234\004\321\0041\004\263\010b\011\342\010\\"
 134      D1043104 
 134      B3086209 
 134      E2085C
 135 0173 048CF5E2 		.ascii	"\004\214\365\342\223i.}\234\323U{\003\007s\313>\237"
 135      93692E7D 
 135      9CD3557B 
 135      030773CB 
 135      3E9F
 136 0185 32A41934 		.ascii	"2\244\0314\202\206\363N\006\252\264\375#\330\027K\220"
 136      8286F34E 
 136      06AAB4FD 
 136      23D8174B 
 136      90
 137 0196 9B47B92A 		.ascii	"\233G\271*\243\273\367\371\013\013\365\320,\303\342"
 137      A3BBF7F9 
 137      0B0BF5D0 
 137      2CC3E2
 138 01a5 93A7ABE0 		.ascii	"\223\247\253\340\002\234\317\362\022K\2072\330\017\345"
 138      029CCFF2 
 138      124B8732 
 138      D80FE5
 139 01b4 5436DCC6 		.ascii	"T6\334\306mF\262/F5\251\352\233R\025\246\224\2713.S"
 139      6D46B22F 
 139      4635A9EA 
 139      9B5215A6 
 139      94B9332E 
 140 01c9 41326DE0 		.ascii	"A2m\340~\226\375\356\212\231t\206\271\201\011W\316\344"
 140      7E96FDEE 
 140      8A997486 
 140      B9810957 
 140      CEE4
 141 01db 951A64C3 		.ascii	"\225\032d\303\2600\270\033\356s\037\327X \031k\251\373"
 141      B030B81B 
 141      EE731FD7 
 141      5820196B 
 141      A9FB
 142 01ed 76B4AB69 		.ascii	"v\264\253i\213b\233\220\235\343\371z\"\222\330\226\243"
 142      8B629B90 
 142      9DE3F97A 
 142      2292D896 
 142      A3
 143 01fe B7B284FE 		.ascii	"\267\262\204\376G\035\026i\240\275\270\274\320L\006"
 143      471D1669 
 143      A0BDB8BC 
 143      D04C06
 144 020d DCF87259 		.ascii	"\334\370rY\241\022\247W%\237\177O\225\221\375\335\244"
 144      A112A757 
 144      259F7F4F 
 144      9591FDDD 
 144      A4
 145 021e E4CC4A71 		.ascii	"\344\314Jq\260\273`\011e[\005\276x\325\310\304\207\346"
 145      B0BB6009 
 145      655B05BE 
 145      78D5C8C4 
 145      87E6
ARM GAS  C:\Users\Luggi\AppData\Local\Temp\ccvHKl2T.s 			page 11


 146 0230 02516612 		.ascii	"\002Qf\022\273\217b(\301\244\303\037\353\224\242u\246"
 146      BB8F6228 
 146      C1A4C31F 
 146      EB94A275 
 146      A6
 147 0241 8C9A7017 		.ascii	"\214\232p\027\273r\002\206\242\333\260\001\264S\015"
 147      BB720286 
 147      A2DBB001 
 147      B4530D
 148 0250 2AB663FA 		.ascii	"*\266c\372\313\266\202w\326\344\033\302\031\3446\232"
 148      CBB68277 
 148      D6E41BC2 
 148      19E4369A 
 149 0260 1EB2E449 		.ascii	"\036\262\344Iz\000\311\222Z\026pG)v\004\262/\3266\266"
 149      7A00C992 
 149      5A167047 
 149      297604B2 
 149      2FD636B6 
 150 0274 39C6D8BE 		.ascii	"9\306\330\276\011\366C\311\316\356\360\004tE\216T\374"
 150      09F643C9 
 150      CEEEF004 
 150      74458E54 
 150      FC
 151 0285 73ED7D43 		.ascii	"s\355}C\232\3545\276\327\217d\255\331\337=\277\306\032"
 151      9AEC35BE 
 151      D78F64AD 
 151      D9DF3DBF 
 151      C61A
 152 0297 EC4022B2 		.ascii	"\354@\"\262\212:[\033dC\255\021\014\374\2125\024nZ\024"
 152      8A3A5B1B 
 152      6443AD11 
 152      0CFC8A35 
 152      146E5A14 
 153 02ab DA44E2E4 		.ascii	"\332D\342\344-'\026\2167\376\257o\265\262oN\325\267"
 153      2D27168E 
 153      37FEAF6F 
 153      B5B26F4E 
 153      D5B7
 154 02bd 37EB9542 		.ascii	"7\353\225B4f\370_{\216\203\234\342\221\261\301\026\266"
 154      3466F85F 
 154      7B8E839C 
 154      E291B1C1 
 154      16B6
 155 02cf 3E7C0B13 		.ascii	">|\013\023\"u\343\"\217\377\232d\214\222\310=\326\\"
 155      2275E322 
 155      8FFF9A64 
 155      8C92C83D 
 155      D65C
 156 02e1 6195BE07 		.ascii	"a\225\276\007q\224O\376\032\345\264j\365\322R\214\262"
 156      71944FFE 
 156      1AE5B46A 
 156      F5D2528C 
 156      B2
 157 02f2 F4316C69 		.ascii	"\3641li\326L\031\015\341QV\027,R\354\330\031f\361T\315"
 157      D64C190D 
 157      E1515617 
 157      2C52ECD8 
ARM GAS  C:\Users\Luggi\AppData\Local\Temp\ccvHKl2T.s 			page 12


 157      1966F154 
 158 0307 62C8F393 		.ascii	"b\310\363\223+r\034\252c\312\344\026\272p\027%\206\017"
 158      2B721CAA 
 158      63CAE416 
 158      BA701725 
 158      860F
 159 0319 7D396293 		.ascii	"}9b\223\343\301\3067\376\257\377&\351\337%O\215\036"
 159      E3C1C637 
 159      FEAFFF26 
 159      E9DF254F 
 159      8D1E
 160 032b FE04D4BD 		.ascii	"\376\004\324\275\232|\376E\355\353a\323\362;\3420f\352"
 160      9A7CFE45 
 160      EDEB61D3 
 160      F23BE230 
 160      66EA
 161 033d 0C9A6139 		.ascii	"\014\232a9\233\240\370\246\242\264 \245\013\262\374"
 161      9BA0F8A6 
 161      A2B420A5 
 161      0BB2FC
 162 034c DD1B8943 		.ascii	"\335\033\211Cu\364\342\371Fm\374v$\244\244\357J\317"
 162      75F4E2F9 
 162      466DFC76 
 162      24A4A4EF 
 162      4ACF
 163 035e 4CDB93BE 		.ascii	"L\333\223\276-uS\306\336\314\255\351\2337l\312X\275"
 163      2D7553C6 
 163      DECCADE9 
 163      9B376CCA 
 163      58BD
 164 0370 6CF38694 		.ascii	"l\363\206\224U\251K\026oe\372\366\264\035\273\242d\224"
 164      55A94B16 
 164      6F65FAF6 
 164      B41DBBA2 
 164      6494
 165 0382 9A82CB55 		.ascii	"\232\202\313U\231\231i\373\034\023\361\352\214\235\273"
 165      999969FB 
 165      1C13F1EA 
 165      8C9DBB
 166 0391 7F03953B 		.ascii	"\177\003\225;\034\302"
 166      1CC2
 167              		.text
 168              		.section	.gnu.lto_PGA_2_Init.53c7b733,"",%progbits
 169 0000 789C7552 		.ascii	"x\234uR?H\033a\024\177\277w\2274%--\035\263h'\207\202"
 169      3F481B61 
 169      147FBF77 
 169      9734252D 
 169      2D1DB368 
 170 0017 43C0AD8B 		.ascii	"C\300\255\213Hq\015d\015\210hV\005\321Q\274\303\020"
 170      48710D64 
 170      0D886856 
 170      05D151BC 
 170      C310
 171 0029 ADA0844C 		.ascii	"\255\240\204LE\233B\2076\211\326\030\377\245\270\310"
 171      459B4287 
 171      3689D618 
 171      FFA5B8C8 
ARM GAS  C:\Users\Luggi\AppData\Local\Temp\ccvHKl2T.s 			page 13


 172 0039 B5433753 		.ascii	"\265C7S\304A\224V\261Dh\267h\202\365*\022\337\367]\024"
 172      C4419456 
 172      B14468B7 
 172      6882F52A 
 172      12DFF75D 
 173 004e 8B7870F7 		.ascii	"\213xp\367\356\336\373\375y\357}g\320\335+$\367+&z."
 173      EEDEFBFD 
 173      79EF7D67 
 173      D0DD2B24 
 173      F72B267A 
 174 0063 11068153 		.ascii	"\021\006\201Se\";\300\200z!\320\030c\014\177\370\204"
 174      65223BC0 
 174      807A21D0 
 174      18630C7F 
 174      F884
 175 0075 917216DE 		.ascii	"\221r\026\336\004\333>X\226UMo\331\021\007\256\360j"
 175      04DB3E58 
 175      96554D6F 
 175      D91107AE 
 175      F06A
 176 0087 ECE9208B 		.ascii	"\354\351 \2136\022\320I\342r7\350O\010\350\251WC\016"
 176      3612D049 
 176      E27237E8 
 176      4F08E8A9 
 176      57430E
 177 009a 7E485C7A 		.ascii	"~H\\z\346X\215\306\352\372\227\177xh\220\3130\325\203"
 177      E6588DC6 
 177      EAFA977F 
 177      786890CB 
 177      30D583
 178 00ad A8222065 		.ascii	"\250\" eu\314\254\242\261\217\257\325b\351\205\242\211"
 178      75CCACA2 
 178      B18FAFD5 
 178      62E985A2 
 178      89
 179 00be DC69C33E 		.ascii	"\334i\303>z\362\233]\346\311\242m\231\312\341\260\362"
 179      7AF29B5D 
 179      E6C9A26D 
 179      99CAE1B0 
 179      F2
 180 00cf 7D3BA053 		.ascii	"};\240S\244>\217\227\363o\315\014\346\354\204\355\370"
 180      A43E8F97 
 180      F36FCD0C 
 180      E6EC84ED 
 180      F8
 181 00e0 5C369047 		.ascii	"\\6\220G\010\363\220\271\260\200\014\004\221\373Y\376"
 181      08F390B9 
 181      B0800C04 
 181      91FB59FE 
 182 00f0 A609C623 		.ascii	"\246\011\306#\302'\251\210\305\331\324Y\311\247<\376"
 182      C227A988 
 182      C5D9D459 
 182      C9A73CFE 
 183 0100 B2211067 		.ascii	"\262!\020g/9\015\255\371\372\332&[\336\374\005\255\013"
 183      2F390DAD 
 183      F9FADA26 
 183      5BDEFC05 
ARM GAS  C:\Users\Luggi\AppData\Local\Temp\ccvHKl2T.s 			page 14


 183      AD0B
 184 0112 A5BA78A3 		.ascii	"\245\272x\243Z\220\254H\214\327\375\036\337\364$6\012"
 184      5A90AC48 
 184      8CD7FD1E 
 184      DFF42436 
 184      0A
 185 0123 F5ADA092 		.ascii	"\365\255\240\222@+a\311sI\2439\306\275bE\311\212\204"
 185      402B61C9 
 185      7349A339 
 185      C6BD6245 
 185      C98A84
 186 0136 0257532F 		.ascii	"\002WS/\233\350\211\344\351\314c\335\315\324u7\273\371"
 186      9BE889E4 
 186      E9CC63DD 
 186      CDD47537 
 186      BBF9
 187 0148 95EC83DB 		.ascii	"\225\354\203\333S.\337H\254xS\326\016\337\207\365\220"
 187      532EDF48 
 187      AC7853D6 
 187      0EDF87F5 
 187      90
 188 0159 1608AB52 		.ascii	"\026\010\253R\371\201\204S\327\015(\201w;3\005\036\275"
 188      F9818453 
 188      D70D2881 
 188      773B3305 
 188      1EBD
 189 016b B026AD80 		.ascii	"\260&\255\200\313fMm\036k\030\375o\241>\311\255#\344"
 189      CB664D6D 
 189      1E6B18FD 
 189      6FA13EC9 
 189      AD23E4
 190 017e B25F93CF 		.ascii	"\262_\223\317\357%\313\346Q\362\310\333\263\037\307"
 190      EF25CBE6 
 190      51F2C8DB 
 190      B31FC7
 191 018d F501F9C4 		.ascii	"\365\001\371\304\366\263G>\200\355\\\350\355\252?\243"
 191      F6B3473E 
 191      80ED5CE8 
 191      EDAA3FA3 
 192 019d 225E72B0 		.ascii	"\"^r\260\302i\351\216\017\304\207z\207\343\375=\321"
 192      C269E98E 
 192      0FC4877A 
 192      87E3FD3D 
 192      D1
 193 01ae C191A1BE 		.ascii	"\301\221\241\276x,\022\035\354\352\210E\272;{\302\355"
 193      782C121D 
 193      ECEA8845 
 193      BA3B7BC2 
 193      ED
 194 01bf 7D740505 		.ascii	"}t\005\005\246\3312"
 194      A6D932
 195              		.text
 196              		.section	.gnu.lto_PGA_2_Start.53c7b733,"",%progbits
 197 0000 789C7590 		.ascii	"x\234u\220\277KBQ\024\307\3179\367\231\222B\321$\015"
 197      BF4B4251 
 197      14C7CF39 
 197      F7999242 
ARM GAS  C:\Users\Luggi\AppData\Local\Temp\ccvHKl2T.s 			page 15


 197      D1240D
 198 0013 4693D050 		.ascii	"F\223\320PP\364\007D\203\320$\264\012\022\346\232 5"
 198      50F40744 
 198      83D024B4 
 198      0A12E69A 
 198      2035
 199 0025 8AF7A541 		.ascii	"\212\367\245AC\2048E\277\266\312\2624\227\006#p\013"
 199      43843845 
 199      BFB6CAB2 
 199      34970623 
 199      700B
 200 0037 1C140933 		.ascii	"\034\024\0113\"\012\244\3006\315!$\304\316}F\201\341"
 200      220AA4C0 
 200      36CD2124 
 200      C4CE7D46 
 200      81E1
 201 0049 85C7BDEF 		.ascii	"\205\307\275\357{\277\347\373\375p\005\374_3\374]!\300"
 201      7BBFE7FB 
 201      FD7005FC 
 201      5F33FC5D 
 201      21C0
 202 005b 38EF6802 		.ascii	"8\357h\002\244X\001@\267\020\211\254\003\344\240v?\005"
 202      A4580140 
 202      B71089AC 
 202      03E4A076 
 202      3F05
 203 006d D22650EB 		.ascii	"\322&P\353\312\032\242:\000B\230\204\206a|\247\006a"
 203      CA1AA23A 
 203      00429884 
 203      86617CA7 
 203      0661
 204 007f 2C97DCB1 		.ascii	",\227\334\261:\217\244\224\365j\311\276ao\021@\223\272"
 204      3A8FA494 
 204      F56AC9BE 
 204      616F1140 
 204      93BA
 205 0091 F978824E 		.ascii	"\371x\202N`O#\332\256X\007\242\354\031\356\336a\002"
 205      604F23DA 
 205      AE5807A2 
 205      EC19EEDE 
 205      6102
 206 00a3 07B817D2 		.ascii	"\007\270\027\322#9\331\3514o\343\265\0112\013h\021\213"
 206      2339D9E9 
 206      346FE3B5 
 206      09320B68 
 206      118B
 207 00b5 AF6C503D 		.ascii	"\257lP=oDj\027\217\270\036\317\024\252&5\363I\202\343"
 207      6F446A17 
 207      8FB81ECF 
 207      14AA2635 
 207      F34982E3 
 208 00c9 0EEFB653 		.ascii	"\016\357\266S\024\372\222\233\322\322\"j\253@V_^\213"
 208      14FA929B 
 208      D2D2226A 
 208      AB40565F 
 208      5E8B
 209 00db 254B8D58 		.ascii	"%K\215X1~\023zt\037\017pO\227\312%\360\024Cx\206\243"
ARM GAS  C:\Users\Luggi\AppData\Local\Temp\ccvHKl2T.s 			page 16


 209      317E137A 
 209      741F0F70 
 209      4F97CA25 
 209      F0144378 
 210 00f1 DC9D6419 		.ascii	"\334\235d\031\312\030}\2108\3762\365\343\353-\263\232"
 210      CA187D88 
 210      38FE32F5 
 210      E3EB2DB3 
 210      9A
 211 0102 66023C57 		.ascii	"f\002<W>P\010\002\262\016\361\204\221\334M\336\246\314"
 211      3E500802 
 211      B20EF184 
 211      91DC4DDE 
 211      A6CC
 212 0114 D05BAF35 		.ascii	"\320[\2575\215\211\013\0141\275\011\030\266^/~\030\260"
 212      8D890B0C 
 212      31BD0918 
 212      B65E2F7E 
 212      18B0
 213 0126 7D497BD1 		.ascii	"}I{\321R\277hi\226\331P\332=\216\014)\030\201\200\227"
 213      52BF6869 
 213      96D950DA 
 213      3D8E0C29 
 213      18818097 
 214 013a 06CC1B69 		.ascii	"\006\314\033i\306k(\226r\236\372\261p\003f~X\236Q\317"
 214      C66B2896 
 214      729EFAB1 
 214      7003667E 
 214      589E51CF 
 215 014e 55160C27 		.ascii	"U\026\014'\250gE\025\300\2061\227\177\305\037\\Z\365"
 215      A8674515 
 215      C0863197 
 215      7FC51F5C 
 215      5AF5
 216 0160 2F7B1703 		.ascii	"/{\027\003kA\237\337\343^\014\314\317z\334\2569\357"
 216      6B419FDF 
 216      E35E0CCC 
 216      CF7ADCAE 
 216      39EF
 217 0172 F4A40FBE 		.ascii	"\364\244\017\276\001\221Y\250K"
 217      019159A8 
 217      4B
 218              		.text
 219              		.section	.gnu.lto_.symbol_nodes.53c7b733,"",%progbits
 220 0000 789C558D 		.ascii	"x\234U\215\273\015\2000\024\304\234\367\362a \366\273"
 220      BB0D8030 
 220      14C49CF7 
 220      F26120F6 
 220      BB
 221 0011 15A8A881 		.ascii	"\025\250\250\201\031\230\200\001\330\001\006A$\022\005"
 221      19988001 
 221      D8010641 
 221      241205
 222 0020 B9C6B264 		.ascii	"\271\306\262d\351\034\230\371f&\230N\220\230\227\001"
 222      E91C98F9 
 222      6626984E 
 222      90989701 
ARM GAS  C:\Users\Luggi\AppData\Local\Temp\ccvHKl2T.s 			page 17


 223 0030 8B0A9D27 		.ascii	"\213\012\235'Y\347Y\376\367TXL\236\206\320`A\261\253"
 223      59E759FE 
 223      F754584C 
 223      9E86D060 
 223      41B1AB
 224 0043 5DA9ABB1 		.ascii	"]\251\253\261\265\036zv\216\353\011\236\215\273\261"
 224      B51E7A76 
 224      8EEB099E 
 224      8DBBB1
 225 0052 64EE7DF4 		.ascii	"d\356}\364\002[U^,\027&\314"
 225      025B555E 
 225      2C1726CC 
 226              		.text
 227              		.section	.gnu.lto_.refs.53c7b733,"",%progbits
 228 0000 789C6366 		.ascii	"x\234cf``\020d\200\000&f\006\026F\006V&&v\006\016FF"
 228      60601064 
 228      80002666 
 228      06164606 
 228      56262676 
 229 0018 0E160600 		.ascii	"\016\026\006\000\003\242\000E"
 229      03A20045 
 230              		.text
 231              		.section	.gnu.lto_.decls.53c7b733,"",%progbits
 232 0000 789C8D55 		.ascii	"x\234\215UkLSg\030>o\277\226K)esI]\232%bH\334\346\234"
 232      6B4C5367 
 232      183E6FBF 
 232      964B2965 
 232      73495D9A 
 233 001a 994B34EE 		.ascii	"\231K4\356\3274d\301\231e!!\333\237\031M\307\232\215"
 233      D73464C1 
 233      99652121 
 233      DB9F194D 
 233      C79A8D
 234 002d 6403536B 		.ascii	"d\003Sk6\377\035\021\224\240Sd:P\247\253P\004\001\241"
 234      36FF1D11 
 234      94A05364 
 234      3A50A7AB 
 234      500401A1 
 235 0041 DC045A2E 		.ascii	"\334\004Z.\325\241\342\360.\343>Vpx\031^\0122\006j\350"
 235      D5A1E2F0 
 235      2EE33E56 
 235      7078195E 
 235      0A32066A 
 236 0056 DEEF72E8 		.ascii	"\336\357r\350\241\221\271\223<\355y\317\367<\357\367"
 236      A191B993 
 236      3CED79CF 
 236      F73CEFF7 
 237 0066 7ECFFB7D 		.ascii	"~\317\373}\347\020I\222z@\222\002x\355\216\220\244>"
 237      E7104992 
 237      7A409202 
 237      78ED8E90 
 237      A43E
 238 0078 8CC31189 		.ascii	"\214\303\021\211\010\015\302\204(\223\370\025\206\250"
 238      080DC284 
 238      2893F815 
 238      86A8
 239 0086 42D420EA 		.ascii	"B\324 \352\021\215\010\017\242\031Ah\036\304m\304=i"
ARM GAS  C:\Users\Luggi\AppData\Local\Temp\ccvHKl2T.s 			page 18


 239      118D080F 
 239      A2194168 
 239      1EC46DC4 
 239      3D69
 240 0098 EE45355A 		.ascii	"\356E5Z\221\223\346{\210\270/\306@\214\207^5/\320\324"
 240      9193E67B 
 240      88B82FC6 
 240      408C875E 
 240      352FD0D4 
 241 00ac 3C47436B 		.ascii	"<GCk\322\011M\331<\272\372\347\350\350:\242T:#\302\200"
 241      D2094DD9 
 241      3CBAFAE7 
 241      E8E83AA2 
 241      543A23C2 
 242 00c1 681339D6 		.ascii	"h\0239\326#\036\251r\265\250\362Q\255F\265v\365E\275"
 242      231EA972 
 242      B5A8F251 
 242      AD46B576 
 242      F545BD
 243 00d4 51BC54D7 		.ascii	"Q\274T\327\342\027\363\324\011\036\021\334\306y\352"
 243      E217F3D4 
 243      091E11DC 
 243      C679EA
 244 00e3 A3FE86A9 		.ascii	"\243\376\206\251\362\214\011\3758\242R\225\243Y\344"
 244      F28C09FD 
 244      38A25295 
 244      A359E4
 245 00f2 A912B585 		.ascii	"\251\022\265\205\366aL\003]\255\273vE\020\015\320\373"
 245      F6614C03 
 245      5DADBB76 
 245      45100DD0 
 245      FB
 246 0103 C2FCA14E 		.ascii	"\302\374\241N\375\262RY\226\263d\257\027\202\244\355"
 246      FDB25259 
 246      96B364AF 
 246      1782A4ED 
 247 0113 273C7BC2 		.ascii	"'<{\302\357j\300\244g\341\336\216\303g\010\013\003T"
 247      EF6AC0A4 
 247      67E1DE8E 
 247      C367080B 
 247      0354
 248 0125 A7E9ED3D 		.ascii	"\247\351\355=0M@\277$K\226\323e\177\256L^\225`\231\031"
 248      304D40BF 
 248      244B96D3 
 248      657FAE4C 
 248      5E956099 
 249 013a DE344B50 		.ascii	"\3364KP\016K\220\006%\260L\202\223`\206R0KN\234\300"
 249      0E4B9006 
 249      25B04C82 
 249      93608652 
 249      304B4E9C 
 250 014f FF7367DF 		.ascii	"\377sg\337k\262\254\2052\320C1\020\306\300\"\351\014"
 250      6BB2AC85 
 250      32D04331 
 250      10C6C022 
 250      E90C
 251 0161 CC497C8E 		.ascii	"\314I|\21635VL\\\216\302\231\214\372X:\261;\267=?\014"
ARM GAS  C:\Users\Luggi\AppData\Local\Temp\ccvHKl2T.s 			page 19


 251      3335564C 
 251      5C8EC299 
 251      8CFA583A 
 251      B13BB73D 
 252 0177 43835E4B 		.ascii	"C\203^KC\317\323\341N\355\302\203\230N\316\331!\277"
 252      43CFD3E1 
 252      4EEDC283 
 252      984ECED9 
 252      21BF
 253 0189 A4854413 		.ascii	"\244\205D\023\234\302I*p\022\011*a!\376~\246\025K\250"
 253      9CC2492A 
 253      7012092A 
 253      6121FE7E 
 253      A6154BA8 
 254 019d ADBA1D4D 		.ascii	"\255\272\035MV\260u\246\237:~)\"\366\230\354s\371g\232"
 254      56B075A6 
 254      9F3A7E29 
 254      22F698EC 
 254      73F9679A 
 255 01b1 769243B2 		.ascii	"v\222C\262#]\236\011\340Z\250\006\\\263\325H\364\236"
 255      235D9E09 
 255      E05AA806 
 255      5CB3D548 
 255      F49E
 256 01c3 975305B1 		.ascii	"\227S\005\261(\314)h\313#d#Krh\340\324\351hL\342p9."
 256      28CC2968 
 256      CB236423 
 256      4B7268E0 
 256      D4E9684C 
 257 01db 1585B5CB 		.ascii	"\025\205\265\313\336@\340}\246\257V\351\253\025}\015"
 257      DE40E07D 
 257      A6AF56E9 
 257      AB157D0D 
 258 01eb D7679EC9 		.ascii	"\327g\236\311\321j5|y\2644|\366w`\250H3\357\"\352\330"
 258      D16A357C 
 258      79B4347C 
 258      F67760A8 
 258      4833EF22 
 259 0201 226A41AC 		.ascii	"\"jA\254\2429\263\240OCRX\0017&O\2347\260U8J\213\225"
 259      A239B3A0 
 259      4F435258 
 259      0137264F 
 259      9C37B055 
 260 0219 02900FA7 		.ascii	"\002\220\017\247U\005\234V\012\250g\005\024{\352\236"
 260      55059C56 
 260      0AA86705 
 260      147BEA9E 
 261 0229 10F21DD3 		.ascii	"\020\362\035\323\037.:9\031\311\365\375s\364\015*}\203"
 261      1F2E3A39 
 261      19C9F5FD 
 261      73F40D2A 
 261      7D83
 262 023b A26F64FA 		.ascii	"\242od\372\222\011\367{d'0\375\366\263\003\231z\256"
 262      9209F77B 
 262      642730FD 
 262      F6B30399 
 262      7AAE
ARM GAS  C:\Users\Luggi\AppData\Local\Temp\ccvHKl2T.s 			page 20


 263 024d BF572DAF 		.ascii	"\277W-\257\311\220\237\005\002\2049\340V%p+\011<,\301"
 263      C9909F05 
 263      028439E0 
 263      5625702B 
 263      093C2CC1 
 264 0261 C8B39F46 		.ascii	"\310\263\237F\243\311~\236a\274z\337+\334\301\275s\034"
 264      A3C97E9E 
 264      61BC7ADF 
 264      2BDCC1BD 
 264      731C
 265 0273 6C52E99B 		.ascii	"lR\351\233\024}3\323_9\2345\241\327\213\215\226\365"
 265      147D33D3 
 265      5F399C35 
 265      A1D78B8D 
 265      96F5
 266 0285 828D4637 		.ascii	"\202\215F7PU\316\264\221m\240u4\354i\317[\311\366O$"
 266      5055CEB4 
 266      916DA075 
 266      34EC69CF 
 266      5BC9F64F 
 267 029a 8D9C077F 		.ascii	"\215\234\007\177,\327\2610\202\206C\331\356<\003\315"
 267      2CD7B130 
 267      828643D9 
 267      EE3C03CD 
 268 02aa CD3A11B9 		.ascii	"\315:\021\271\016\237\253:q\026pk\302\033f8\3033\327"
 268      0E9FAB3A 
 268      7116706B 
 268      C21B6638 
 268      C333D7
 269 02bd DE6C6986 		.ascii	"\336li\206\0059\214-\313\261\300Z\332\212t/\243\377"
 269      05398C2D 
 269      CBB1C05A 
 269      DA8A742F 
 269      A3FF
 270 02cf 020B1411 		.ascii	"\002\013\024\021e\027t\373Z\265jv\313\177\261\277\037"
 270      651774FB 
 270      5AB56A76 
 270      CB7FB1BF 
 270      1F
 271 02e0 F4F4C490 		.ascii	"\364\364\304\220\243\334\245\235M'\356\030I!\017\212"
 271      A3DCA59D 
 271      4D27EE18 
 271      49210F8A 
 272 02f0 8BF6B962 		.ascii	"\213\366\271b\342\216c\022\337`\361z9_\316\360\005\002"
 272      E28E6312 
 272      DF60F17A 
 272      395FCEF0 
 272      0502
 273 0302 8BA00D16 		.ascii	"\213\240\015\026\300yt\015\273\024\314\252\234\336\013"
 273      C079740D 
 273      BB14CCAA 
 273      9CDE0B
 274 0311 47EF566B 		.ascii	"G\357Vk\331qe)\246\206\307/\363\323\3732\333\006\335"
 274      D9716529 
 274      A686C72F 
 274      F3D3FB32 
 274      DB06DD
ARM GAS  C:\Users\Luggi\AppData\Local\Temp\ccvHKl2T.s 			page 21


 275 0324 23138439 		.ascii	"#\023\2049\244a\273\352\361\201\222(6\272\230\035\365"
 275      A461BBEA 
 275      F1819228 
 275      36BA981D 
 275      F5
 276 0335 0AE7E318 		.ascii	"\012\347\343\0306Jhx\244\302\323\022\303FW\250\317\243"
 276      364A6878 
 276      A4C2D312 
 276      C34657A8 
 276      CFA3
 277 0347 919F47E7 		.ascii	"\221\237G\347cgy$\033]K\303\3737\217\270\015lTG\303"
 277      63677924 
 277      1B5D4BC3 
 277      FB378FB8 
 277      0D6C5447 
 278 035c DE96E9AB 		.ascii	"\336\226\351\253\021l\324B\303\334\314\206\006\336\231"
 278      116CD442 
 278      C3DCCC86 
 278      06DE99
 279 036b 30169678 		.ascii	"0\026\226x'5l4\211\206\377\024\372F\201\215\206\323"
 279      27356C34 
 279      8986FF14 
 279      FA46818D 
 279      86D3
 280 037d 30AFADCB 		.ascii	"0\257\255\313\013l4\231\206\273r\037\034\345En\241a"
 280      0B6C3499 
 280      86BB721F 
 280      1CE5456E 
 280      A161
 281 038f C7C0F0DB 		.ascii	"\307\300\360\333\253j\345,G;0'\226\232\241\035Mx\313"
 281      AB6AE52C 
 281      473B3027 
 281      969AA11D 
 281      4D78CB
 282 03a2 0C17F1EF 		.ascii	"\014\027\361\357WD\007\342\022\3422\342\012\342*\342"
 282      574407E2 
 282      12E232E2 
 282      0AE22AE2 
 283 03b2 1AE23AE2 		.ascii	"\032\342:\342\006\342&\242\023\361\033\0027T\027o\361"
 283      06E226A2 
 283      13F11B02 
 283      3754176F 
 283      F1
 284 03c3 A8CF57A1 		.ascii	"\250\317W\241E\263\2579\362\275\351N\360N\005\002\341"
 284      45B3AF39 
 284      F2BDE94E 
 284      F04E0502 
 284      E1
 285 03d4 6C8273B8 		.ascii	"l\202s\270)g}\206\013\020\307\236H\320\015\253$\350"
 285      29677D86 
 285      0B10C79E 
 285      48D00DAB 
 285      24E8
 286 03e6 8138D4EE 		.ascii	"\2018\324\356v\234\033 \244\206w\255l$\303\247'\215"
 286      769C1B20 
 286      A48677AD 
 286      6C24C3A7 
ARM GAS  C:\Users\Luggi\AppData\Local\Temp\ccvHKl2T.s 			page 22


 286      278D
 287 03f8 3CD85BE8 		.ascii	"<\330[\350.\321\262\026:\236\276\256n`\337|\015T\366"
 287      2ED1B216 
 287      3A9EBEAE 
 287      6E60DF7C 
 287      0D54F6
 288 040b A989EF53 		.ascii	"\251\211\357S\261\211M|\023\207t7$Tz`\342=Pl5q[CB\245"
 288      B1894D7C 
 288      13877437 
 288      24547A60 
 288      E23D506C 
 289 0425 9D26DECE 		.ascii	"\235&\336\316\220\260\267`jP\027b\363\000\267\371wa"
 289      90B0B760 
 289      6A501762 
 289      F300B7F9 
 289      7761
 290 0437 F3A0B0F9 		.ascii	"\363\240\260\371\017a\263O\330<$l\036\0266\337\3426"
 290      0F61B34F 
 290      D83C246C 
 290      1E1636DF 
 290      E236
 291 0449 FFC96DEE 		.ascii	"\377\311m\356\236\376!\356y.\367\316q\271\037]\356e"
 291      9EFE21EE 
 291      792EF7CE 
 291      71B91F5D 
 291      EE65
 292 045b 2E8F5097 		.ascii	".\217P\227o3\227\363\232\367/%\355\334\327\231~W=-\267"
 292      6F3397F3 
 292      9AF72F25 
 292      EDDCD799 
 292      7E573D2D 
 293 0470 0CF8576A 		.ascii	"\014\370Wj\354\351\223=\032\314\353(\360\265<\324\345"
 293      ECE9933D 
 293      1ACCEB28 
 293      F0B53CD4 
 293      E5
 294 0481 CB32339A 		.ascii	"\31323\232\236\322;\374\375\"^\035\022\215\361\367."
 294      9ED23BFC 
 294      FD225E1D 
 294      128DF1F7 
 294      2E
 295 0492 9DE51E4B 		.ascii	"\235\345\036K+\347\355vF\220.\236\267n2\2731\232\276"
 295      2BE7ED76 
 295      46902E9E 
 295      B76E32BB 
 295      319ABE
 296 04a5 1676FC8F 		.ascii	"\026v\374\217o\033~\015;\257dwE\362\257a\250\342\301"
 296      6F1B7E0D 
 296      3BAF6477 
 296      45F2AF61 
 296      A8E2C1
 297 04b8 BC5FC3A9 		.ascii	"\274_\303\251[\3532\3445p\037\253\373+\3705\034\005"
 297      5BEB32E4 
 297      35701FAB 
 297      FB2BF835 
 297      1C05
 298 04ca FDEC26E8 		.ascii	"\375\354&\350\354H\357'\206l\372\346\343o'\312\015\276"
ARM GAS  C:\Users\Luggi\AppData\Local\Temp\ccvHKl2T.s 			page 23


 298      EC48EF27 
 298      866CFAE6 
 298      E36F27CA 
 298      0DBE
 299 04dc 9E1E8281 		.ascii	"\236\036\202\201\275&\361\037\311g\017\271.\202\232"
 299      BD26F11F 
 299      C9670FB9 
 299      2E829A
 300 04eb 4CFD0C92 		.ascii	"L\375\014\222\037\011\362#F>\346\352[\254\346\322o@"
 300      1F09F223 
 300      463EE6EA 
 300      5BACE6D2 
 300      6F40
 301 04fd 90EB175C 		.ascii	"\220\353\027\\?\343^\367\0076\252\271es\212\030\023"
 301      3FE35EF7 
 301      0736AAB9 
 301      65738A18 
 301      13
 302 050e DC31C6AD 		.ascii	"\3341\306\255\234\274V\032\245&W\316I<\016\006e\235"
 302      9CBC561A 
 302      A52657CE 
 302      493C0E06 
 302      659D
 303 0520 782BE9B6 		.ascii	"x+\351\266\246\244\332W\207%|\374Il\274\2648\301\232"
 303      A6A4DA57 
 303      87257CFC 
 303      496CBCB4 
 303      38C19A
 304 0533 6AB559EC 		.ascii	"j\265Y\354\326/6%\245m\265%[7$&\245\305\257\334\220"
 304      D62F3625 
 304      A56DB525 
 304      5B372426 
 304      A5C5AFDC 
 305 0548 BCCDBE6D 		.ascii	"\274\315\276m\263u\313\362\257$Cb\302\332M\357n\372"
 305      B375CBF2 
 305      AF244362 
 305      C2DA4DEF 
 305      6EFA
 306 055a 20D5F2F9 		.ascii	" \325\362\371\327\326E\363\320\031gy\262\244\347\344"
 306      D7D645F3 
 306      D0196779 
 306      B2A4E7E4 
 307 056a 247BDA66 		.ascii	"${\332f\243\270\265\332\023\323\276\265\332\242g\303"
 307      A3B8B5DA 
 307      13D3BEB5 
 307      DAA267C3 
 308 057a 044B4AAA 		.ascii	"\004KJ\252\340}\230\232b\217R$\026\233]\267t\371G\361"
 308      E07D989A 
 308      628F5224 
 308      169B5DB7 
 308      74F947F1 
 309 058e EFC4F027 		.ascii	"\357\304\360'\224\267\326f\263lcOW\030\203O\343\323"
 309      94B7D666 
 309      B36C634F 
 309      5718834F 
 309      E3D3
 310 05a0 BED92CF2 		.ascii	"\276\331,\362\245`\206O-6\255\315\372\345\352\177\001"
ARM GAS  C:\Users\Luggi\AppData\Local\Temp\ccvHKl2T.s 			page 24


 310      A560864F 
 310      2D36ADCD 
 310      FAE5EA7F 
 310      01
 311 05b1 EE2416F0 		.ascii	"\356$\026\360"
 312              		.text
 313              		.section	.gnu.lto_.symtab.53c7b733,"",%progbits
 314 0000 5047415F 		.ascii	"PGA_2_Enable\000\000\000\000\000\000\000\000\000\000"
 314      325F456E 
 314      61626C65 
 314      00000000 
 314      00000000 
 315 0016 0000B100 		.ascii	"\000\000\261\000\000\000PGA_2_Stop\000\000\000\000\000"
 315      00005047 
 315      415F325F 
 315      53746F70 
 315      00000000 
 316 002b 00000000 		.ascii	"\000\000\000\000\000\000\000\263\000\000\000PGA_2_S"
 316      000000B3 
 316      00000050 
 316      47415F32 
 316      5F53
 317 003d 6574506F 		.ascii	"etPower\000\000\000\000\000\000\000\000\000\000\000"
 317      77657200 
 317      00000000 
 317      00000000 
 317      0000
 318 004f 00B70000 		.ascii	"\000\267\000\000\000PGA_2_SetGain\000\000\000\000\000"
 318      00504741 
 318      5F325F53 
 318      65744761 
 318      696E0000 
 319 0066 00000000 		.ascii	"\000\000\000\000\000\000\000\271\000\000\000PGA_2_I"
 319      000000B9 
 319      00000050 
 319      47415F32 
 319      5F49
 320 0078 6E697400 		.ascii	"nit\000\000\000\000\000\000\000\000\000\000\000\000"
 320      00000000 
 320      00000000 
 320      000000
 321 0087 BB000000 		.ascii	"\273\000\000\000PGA_2_Start\000\000\000\000\000\000"
 321      5047415F 
 321      325F5374 
 321      61727400 
 321      00000000 
 322 009c 00000000 		.ascii	"\000\000\000\000\000\000\275\000\000\000PGA_2_initV"
 322      0000BD00 
 322      00005047 
 322      415F325F 
 322      696E6974 
 323 00b1 61720000 		.ascii	"ar\000\000\000\000\000\000\000\000\000\000\000\000\351"
 323      00000000 
 323      00000000 
 323      0000E9
 324 00c0 000000   		.ascii	"\000\000\000"
 325              		.text
ARM GAS  C:\Users\Luggi\AppData\Local\Temp\ccvHKl2T.s 			page 25


 326              		.section	.gnu.lto_.opts,"",%progbits
 327 0000 272D666E 		.ascii	"'-fno-trapv' '-fno-strict-overflow' '-mcpu=cortex-m"
 327      6F2D7472 
 327      61707627 
 327      20272D66 
 327      6E6F2D73 
 328 0033 33272027 		.ascii	"3' '-mthumb' '-g' '-Og' '-ffunction-sections' '-flt"
 328      2D6D7468 
 328      756D6227 
 328      20272D67 
 328      2720272D 
 329 0066 6F272027 		.ascii	"o' '-ffat-lto-objects'\000"
 329      2D666661 
 329      742D6C74 
 329      6F2D6F62 
 329      6A656374 
 330              		.text
 331              		.cfi_sections	.debug_frame
 332              		.section	.text.PGA_2_Enable,"ax",%progbits
 333              		.align	2
 334              		.global	PGA_2_Enable
 335              		.thumb
 336              		.thumb_func
 337              		.type	PGA_2_Enable, %function
 338              	PGA_2_Enable:
 339              	.LFB1:
 340              		.file 1 "Generated_Source\\PSoC5\\PGA_2.c"
   1:Generated_Source\PSoC5/PGA_2.c **** /*******************************************************************************
   2:Generated_Source\PSoC5/PGA_2.c **** * File Name: PGA_2.c  
   3:Generated_Source\PSoC5/PGA_2.c **** * Version 2.0
   4:Generated_Source\PSoC5/PGA_2.c **** *
   5:Generated_Source\PSoC5/PGA_2.c **** * Description:
   6:Generated_Source\PSoC5/PGA_2.c **** *  This file provides the source code to the API for the PGA 
   7:Generated_Source\PSoC5/PGA_2.c **** *  User Module.
   8:Generated_Source\PSoC5/PGA_2.c **** *
   9:Generated_Source\PSoC5/PGA_2.c **** * Note:
  10:Generated_Source\PSoC5/PGA_2.c **** *
  11:Generated_Source\PSoC5/PGA_2.c **** ********************************************************************************
  12:Generated_Source\PSoC5/PGA_2.c **** * Copyright 2008-2012, Cypress Semiconductor Corporation.  All rights reserved.
  13:Generated_Source\PSoC5/PGA_2.c **** * You may use this file only in accordance with the license, terms, conditions, 
  14:Generated_Source\PSoC5/PGA_2.c **** * disclaimers, and limitations in the end user license agreement accompanying 
  15:Generated_Source\PSoC5/PGA_2.c **** * the software package with which this file was provided.
  16:Generated_Source\PSoC5/PGA_2.c **** *******************************************************************************/
  17:Generated_Source\PSoC5/PGA_2.c **** 
  18:Generated_Source\PSoC5/PGA_2.c **** #include "PGA_2.h"
  19:Generated_Source\PSoC5/PGA_2.c **** 
  20:Generated_Source\PSoC5/PGA_2.c **** #if (!CY_PSOC5A)
  21:Generated_Source\PSoC5/PGA_2.c ****     #if (CYDEV_VARIABLE_VDDA == 1u)
  22:Generated_Source\PSoC5/PGA_2.c ****         #include "CyScBoostClk.h"
  23:Generated_Source\PSoC5/PGA_2.c ****     #endif /* (CYDEV_VARIABLE_VDDA == 1u) */
  24:Generated_Source\PSoC5/PGA_2.c **** #endif /* (!CY_PSOC5A) */
  25:Generated_Source\PSoC5/PGA_2.c **** 
  26:Generated_Source\PSoC5/PGA_2.c **** #if (CY_PSOC5A)
  27:Generated_Source\PSoC5/PGA_2.c ****     static PGA_2_BACKUP_STRUCT  PGA_2_P5backup;
  28:Generated_Source\PSoC5/PGA_2.c **** #endif /* (CY_ PSOC5A) */
  29:Generated_Source\PSoC5/PGA_2.c **** 
  30:Generated_Source\PSoC5/PGA_2.c **** uint8 PGA_2_initVar = 0u;
ARM GAS  C:\Users\Luggi\AppData\Local\Temp\ccvHKl2T.s 			page 26


  31:Generated_Source\PSoC5/PGA_2.c **** 
  32:Generated_Source\PSoC5/PGA_2.c **** 
  33:Generated_Source\PSoC5/PGA_2.c **** /*******************************************************************************   
  34:Generated_Source\PSoC5/PGA_2.c **** * Function Name: PGA_2_Init
  35:Generated_Source\PSoC5/PGA_2.c **** ********************************************************************************
  36:Generated_Source\PSoC5/PGA_2.c **** *
  37:Generated_Source\PSoC5/PGA_2.c **** * Summary:
  38:Generated_Source\PSoC5/PGA_2.c **** *  Initialize component's parameters to the parameters set by user in the 
  39:Generated_Source\PSoC5/PGA_2.c **** *  customizer of the component placed onto schematic. Usually called in 
  40:Generated_Source\PSoC5/PGA_2.c **** *  PGA_2_Start().
  41:Generated_Source\PSoC5/PGA_2.c **** *
  42:Generated_Source\PSoC5/PGA_2.c **** * Parameters:
  43:Generated_Source\PSoC5/PGA_2.c **** *  void
  44:Generated_Source\PSoC5/PGA_2.c **** *
  45:Generated_Source\PSoC5/PGA_2.c **** * Return:
  46:Generated_Source\PSoC5/PGA_2.c **** *  void
  47:Generated_Source\PSoC5/PGA_2.c **** *
  48:Generated_Source\PSoC5/PGA_2.c **** *******************************************************************************/
  49:Generated_Source\PSoC5/PGA_2.c **** void PGA_2_Init(void) 
  50:Generated_Source\PSoC5/PGA_2.c **** {
  51:Generated_Source\PSoC5/PGA_2.c ****     /* Set PGA mode */
  52:Generated_Source\PSoC5/PGA_2.c ****     PGA_2_CR0_REG = PGA_2_MODE_PGA;      
  53:Generated_Source\PSoC5/PGA_2.c ****     /* Set non-inverting PGA mode and reference mode */
  54:Generated_Source\PSoC5/PGA_2.c ****     PGA_2_CR1_REG |= PGA_2_PGA_NINV;  
  55:Generated_Source\PSoC5/PGA_2.c ****     /* Set default gain and ref mode */
  56:Generated_Source\PSoC5/PGA_2.c ****     PGA_2_CR2_REG = PGA_2_VREF_MODE;
  57:Generated_Source\PSoC5/PGA_2.c ****     /* Set gain and compensation */
  58:Generated_Source\PSoC5/PGA_2.c ****     PGA_2_SetGain(PGA_2_DEFAULT_GAIN);
  59:Generated_Source\PSoC5/PGA_2.c ****     /* Set power */
  60:Generated_Source\PSoC5/PGA_2.c ****     PGA_2_SetPower(PGA_2_DEFAULT_POWER);
  61:Generated_Source\PSoC5/PGA_2.c **** }
  62:Generated_Source\PSoC5/PGA_2.c **** 
  63:Generated_Source\PSoC5/PGA_2.c **** 
  64:Generated_Source\PSoC5/PGA_2.c **** /*******************************************************************************   
  65:Generated_Source\PSoC5/PGA_2.c **** * Function Name: PGA_2_Enable
  66:Generated_Source\PSoC5/PGA_2.c **** ********************************************************************************
  67:Generated_Source\PSoC5/PGA_2.c **** *
  68:Generated_Source\PSoC5/PGA_2.c **** * Summary:
  69:Generated_Source\PSoC5/PGA_2.c **** *  Enables the PGA block operation.
  70:Generated_Source\PSoC5/PGA_2.c **** *
  71:Generated_Source\PSoC5/PGA_2.c **** * Parameters:
  72:Generated_Source\PSoC5/PGA_2.c **** *  void
  73:Generated_Source\PSoC5/PGA_2.c **** *
  74:Generated_Source\PSoC5/PGA_2.c **** * Return:
  75:Generated_Source\PSoC5/PGA_2.c **** *  void
  76:Generated_Source\PSoC5/PGA_2.c **** *
  77:Generated_Source\PSoC5/PGA_2.c **** *******************************************************************************/
  78:Generated_Source\PSoC5/PGA_2.c **** void PGA_2_Enable(void) 
  79:Generated_Source\PSoC5/PGA_2.c **** {
 341              		.loc 1 79 0
 342              		.cfi_startproc
 343              		@ args = 0, pretend = 0, frame = 0
 344              		@ frame_needed = 0, uses_anonymous_args = 0
 345              		@ link register save eliminated.
  80:Generated_Source\PSoC5/PGA_2.c ****     /* This is to restore the value of register CR1 and CR2 which is saved 
  81:Generated_Source\PSoC5/PGA_2.c ****       in prior to the modifications in stop() API */
  82:Generated_Source\PSoC5/PGA_2.c ****     #if (CY_PSOC5A)
ARM GAS  C:\Users\Luggi\AppData\Local\Temp\ccvHKl2T.s 			page 27


  83:Generated_Source\PSoC5/PGA_2.c ****         if(PGA_2_P5backup.enableState == 1u)
  84:Generated_Source\PSoC5/PGA_2.c ****         {
  85:Generated_Source\PSoC5/PGA_2.c ****             PGA_2_CR1_REG = PGA_2_P5backup.scCR1Reg;
  86:Generated_Source\PSoC5/PGA_2.c ****             PGA_2_CR2_REG = PGA_2_P5backup.scCR2Reg;
  87:Generated_Source\PSoC5/PGA_2.c ****             PGA_2_P5backup.enableState = 0u;
  88:Generated_Source\PSoC5/PGA_2.c ****         }
  89:Generated_Source\PSoC5/PGA_2.c ****     #endif /* CY_PSOC5A */   
  90:Generated_Source\PSoC5/PGA_2.c **** 
  91:Generated_Source\PSoC5/PGA_2.c ****     /* Enable power to the Amp in Active mode*/
  92:Generated_Source\PSoC5/PGA_2.c ****     PGA_2_PM_ACT_CFG_REG |= PGA_2_ACT_PWR_EN;
 346              		.loc 1 92 0
 347 0000 084A     		ldr	r2, .L2
 348 0002 1378     		ldrb	r3, [r2]	@ zero_extendqisi2
 349 0004 43F00403 		orr	r3, r3, #4
 350 0008 1370     		strb	r3, [r2]
  93:Generated_Source\PSoC5/PGA_2.c **** 
  94:Generated_Source\PSoC5/PGA_2.c ****     /* Enable power to the Amp in Alternative Active mode*/
  95:Generated_Source\PSoC5/PGA_2.c ****     PGA_2_PM_STBY_CFG_REG |= PGA_2_STBY_PWR_EN;
 351              		.loc 1 95 0
 352 000a 1032     		adds	r2, r2, #16
 353 000c 1378     		ldrb	r3, [r2]	@ zero_extendqisi2
 354 000e 43F00403 		orr	r3, r3, #4
 355 0012 1370     		strb	r3, [r2]
  96:Generated_Source\PSoC5/PGA_2.c ****     
  97:Generated_Source\PSoC5/PGA_2.c ****     PGA_2_PUMP_CR1_REG |= PGA_2_PUMP_CR1_SC_CLKSEL;
 356              		.loc 1 97 0
 357 0014 02F5A552 		add	r2, r2, #5280
 358 0018 1E32     		adds	r2, r2, #30
 359 001a 1378     		ldrb	r3, [r2]	@ zero_extendqisi2
 360 001c 43F08003 		orr	r3, r3, #128
 361 0020 1370     		strb	r3, [r2]
 362 0022 7047     		bx	lr
 363              	.L3:
 364              		.align	2
 365              	.L2:
 366 0024 A9430040 		.word	1073759145
 367              		.cfi_endproc
 368              	.LFE1:
 369              		.size	PGA_2_Enable, .-PGA_2_Enable
 370              		.section	.text.PGA_2_Stop,"ax",%progbits
 371              		.align	2
 372              		.global	PGA_2_Stop
 373              		.thumb
 374              		.thumb_func
 375              		.type	PGA_2_Stop, %function
 376              	PGA_2_Stop:
 377              	.LFB3:
  98:Generated_Source\PSoC5/PGA_2.c ****     
  99:Generated_Source\PSoC5/PGA_2.c ****     #if (!CY_PSOC5A)
 100:Generated_Source\PSoC5/PGA_2.c ****         #if (CYDEV_VARIABLE_VDDA == 1u)
 101:Generated_Source\PSoC5/PGA_2.c ****             if(CyScPumpEnabled == 1u)
 102:Generated_Source\PSoC5/PGA_2.c ****             {
 103:Generated_Source\PSoC5/PGA_2.c ****                 PGA_2_BSTCLK_REG &= (uint8)(~PGA_2_BST_CLK_INDEX_MASK);
 104:Generated_Source\PSoC5/PGA_2.c ****                 PGA_2_BSTCLK_REG |= PGA_2_BST_CLK_EN | CyScBoostClk__INDEX;
 105:Generated_Source\PSoC5/PGA_2.c ****                 PGA_2_SC_MISC_REG |= PGA_2_PUMP_FORCE;
 106:Generated_Source\PSoC5/PGA_2.c ****                 CyScBoostClk_Start();
 107:Generated_Source\PSoC5/PGA_2.c ****             }
ARM GAS  C:\Users\Luggi\AppData\Local\Temp\ccvHKl2T.s 			page 28


 108:Generated_Source\PSoC5/PGA_2.c ****             else
 109:Generated_Source\PSoC5/PGA_2.c ****             {
 110:Generated_Source\PSoC5/PGA_2.c ****                 PGA_2_BSTCLK_REG &= (uint8)(~PGA_2_BST_CLK_EN);
 111:Generated_Source\PSoC5/PGA_2.c ****                 PGA_2_SC_MISC_REG &= (uint8)(~PGA_2_PUMP_FORCE);
 112:Generated_Source\PSoC5/PGA_2.c ****             }
 113:Generated_Source\PSoC5/PGA_2.c ****         #endif /* (CYDEV_VARIABLE_VDDA == 1u) */
 114:Generated_Source\PSoC5/PGA_2.c ****     #endif /* (!CY_PSOC5A) */
 115:Generated_Source\PSoC5/PGA_2.c **** }
 116:Generated_Source\PSoC5/PGA_2.c **** 
 117:Generated_Source\PSoC5/PGA_2.c **** 
 118:Generated_Source\PSoC5/PGA_2.c **** /*******************************************************************************
 119:Generated_Source\PSoC5/PGA_2.c **** * Function Name: PGA_2_Start
 120:Generated_Source\PSoC5/PGA_2.c **** ********************************************************************************
 121:Generated_Source\PSoC5/PGA_2.c **** *
 122:Generated_Source\PSoC5/PGA_2.c **** * Summary:
 123:Generated_Source\PSoC5/PGA_2.c **** *  The start function initializes the PGA with the default values and sets
 124:Generated_Source\PSoC5/PGA_2.c **** *  the power to the given level. A power level of 0, is same as executing
 125:Generated_Source\PSoC5/PGA_2.c **** *  the stop function.
 126:Generated_Source\PSoC5/PGA_2.c **** *
 127:Generated_Source\PSoC5/PGA_2.c **** * Parameters:
 128:Generated_Source\PSoC5/PGA_2.c **** *  void
 129:Generated_Source\PSoC5/PGA_2.c **** *
 130:Generated_Source\PSoC5/PGA_2.c **** * Return:
 131:Generated_Source\PSoC5/PGA_2.c **** *  void
 132:Generated_Source\PSoC5/PGA_2.c **** *
 133:Generated_Source\PSoC5/PGA_2.c **** *******************************************************************************/
 134:Generated_Source\PSoC5/PGA_2.c **** void PGA_2_Start(void) 
 135:Generated_Source\PSoC5/PGA_2.c **** {
 136:Generated_Source\PSoC5/PGA_2.c **** 
 137:Generated_Source\PSoC5/PGA_2.c ****     /* This is to restore the value of register CR1 and CR2 which is saved 
 138:Generated_Source\PSoC5/PGA_2.c ****       in prior to the modification in stop() API */
 139:Generated_Source\PSoC5/PGA_2.c **** 
 140:Generated_Source\PSoC5/PGA_2.c ****     if(PGA_2_initVar == 0u)
 141:Generated_Source\PSoC5/PGA_2.c ****     {
 142:Generated_Source\PSoC5/PGA_2.c ****         PGA_2_Init();
 143:Generated_Source\PSoC5/PGA_2.c ****         PGA_2_initVar = 1u;
 144:Generated_Source\PSoC5/PGA_2.c ****     }
 145:Generated_Source\PSoC5/PGA_2.c **** 
 146:Generated_Source\PSoC5/PGA_2.c ****     PGA_2_Enable();
 147:Generated_Source\PSoC5/PGA_2.c **** }
 148:Generated_Source\PSoC5/PGA_2.c **** 
 149:Generated_Source\PSoC5/PGA_2.c **** 
 150:Generated_Source\PSoC5/PGA_2.c **** /*******************************************************************************
 151:Generated_Source\PSoC5/PGA_2.c **** * Function Name: PGA_2_Stop
 152:Generated_Source\PSoC5/PGA_2.c **** ********************************************************************************
 153:Generated_Source\PSoC5/PGA_2.c **** *
 154:Generated_Source\PSoC5/PGA_2.c **** * Summary:
 155:Generated_Source\PSoC5/PGA_2.c **** *  Powers down amplifier to lowest power state.
 156:Generated_Source\PSoC5/PGA_2.c **** *
 157:Generated_Source\PSoC5/PGA_2.c **** * Parameters:
 158:Generated_Source\PSoC5/PGA_2.c **** *  void
 159:Generated_Source\PSoC5/PGA_2.c **** *
 160:Generated_Source\PSoC5/PGA_2.c **** * Return:
 161:Generated_Source\PSoC5/PGA_2.c **** *  void
 162:Generated_Source\PSoC5/PGA_2.c **** *
 163:Generated_Source\PSoC5/PGA_2.c **** *******************************************************************************/
 164:Generated_Source\PSoC5/PGA_2.c **** void PGA_2_Stop(void) 
ARM GAS  C:\Users\Luggi\AppData\Local\Temp\ccvHKl2T.s 			page 29


 165:Generated_Source\PSoC5/PGA_2.c **** { 
 378              		.loc 1 165 0
 379              		.cfi_startproc
 380              		@ args = 0, pretend = 0, frame = 0
 381              		@ frame_needed = 0, uses_anonymous_args = 0
 382              		@ link register save eliminated.
 166:Generated_Source\PSoC5/PGA_2.c ****     /* Disble power to the Amp in Active mode template */
 167:Generated_Source\PSoC5/PGA_2.c ****     PGA_2_PM_ACT_CFG_REG &= (uint8)(~PGA_2_ACT_PWR_EN);
 383              		.loc 1 167 0
 384 0000 054A     		ldr	r2, .L5
 385 0002 1378     		ldrb	r3, [r2]	@ zero_extendqisi2
 386 0004 03F0FB03 		and	r3, r3, #251
 387 0008 1370     		strb	r3, [r2]
 168:Generated_Source\PSoC5/PGA_2.c **** 
 169:Generated_Source\PSoC5/PGA_2.c ****     /* Disble power to the Amp in Alternative Active mode template */
 170:Generated_Source\PSoC5/PGA_2.c ****     PGA_2_PM_STBY_CFG_REG &= (uint8)(~PGA_2_STBY_PWR_EN);
 388              		.loc 1 170 0
 389 000a 1032     		adds	r2, r2, #16
 390 000c 1378     		ldrb	r3, [r2]	@ zero_extendqisi2
 391 000e 03F0FB03 		and	r3, r3, #251
 392 0012 1370     		strb	r3, [r2]
 393 0014 7047     		bx	lr
 394              	.L6:
 395 0016 00BF     		.align	2
 396              	.L5:
 397 0018 A9430040 		.word	1073759145
 398              		.cfi_endproc
 399              	.LFE3:
 400              		.size	PGA_2_Stop, .-PGA_2_Stop
 401              		.section	.text.PGA_2_SetPower,"ax",%progbits
 402              		.align	2
 403              		.global	PGA_2_SetPower
 404              		.thumb
 405              		.thumb_func
 406              		.type	PGA_2_SetPower, %function
 407              	PGA_2_SetPower:
 408              	.LFB4:
 171:Generated_Source\PSoC5/PGA_2.c **** 
 172:Generated_Source\PSoC5/PGA_2.c ****     #if (!CY_PSOC5A)
 173:Generated_Source\PSoC5/PGA_2.c ****         #if (CYDEV_VARIABLE_VDDA == 1u)
 174:Generated_Source\PSoC5/PGA_2.c ****             PGA_2_BSTCLK_REG &= (uint8)(~PGA_2_BST_CLK_EN);
 175:Generated_Source\PSoC5/PGA_2.c ****             /* Disable pumps only if there aren't any SC block in use */
 176:Generated_Source\PSoC5/PGA_2.c ****             if ((PGA_2_PM_ACT_CFG_REG & PGA_2_PM_ACT_CFG_MASK) == 0u)
 177:Generated_Source\PSoC5/PGA_2.c ****             {
 178:Generated_Source\PSoC5/PGA_2.c ****                 PGA_2_SC_MISC_REG &= (uint8)(~PGA_2_PUMP_FORCE);
 179:Generated_Source\PSoC5/PGA_2.c ****                 PGA_2_PUMP_CR1_REG &= (uint8)(~PGA_2_PUMP_CR1_SC_CLKSEL);
 180:Generated_Source\PSoC5/PGA_2.c ****                 CyScBoostClk_Stop();
 181:Generated_Source\PSoC5/PGA_2.c ****             }
 182:Generated_Source\PSoC5/PGA_2.c ****         #endif /* CYDEV_VARIABLE_VDDA == 1u */
 183:Generated_Source\PSoC5/PGA_2.c ****     #endif /* (CY_PSOC3 || CY_PSOC5LP) */
 184:Generated_Source\PSoC5/PGA_2.c **** 
 185:Generated_Source\PSoC5/PGA_2.c ****     /* This sets PGA in zero current mode and output routes are valid */
 186:Generated_Source\PSoC5/PGA_2.c ****     #if (CY_PSOC5A)
 187:Generated_Source\PSoC5/PGA_2.c ****         PGA_2_P5backup.scCR1Reg = PGA_2_CR1_REG;
 188:Generated_Source\PSoC5/PGA_2.c ****         PGA_2_P5backup.scCR2Reg = PGA_2_CR2_REG;
 189:Generated_Source\PSoC5/PGA_2.c ****         PGA_2_CR1_REG = 0x00u;
 190:Generated_Source\PSoC5/PGA_2.c ****         PGA_2_CR2_REG = 0x00u;
ARM GAS  C:\Users\Luggi\AppData\Local\Temp\ccvHKl2T.s 			page 30


 191:Generated_Source\PSoC5/PGA_2.c ****         PGA_2_P5backup.enableState = 1u;
 192:Generated_Source\PSoC5/PGA_2.c ****     #endif /* CY_PSOC5A */
 193:Generated_Source\PSoC5/PGA_2.c **** }
 194:Generated_Source\PSoC5/PGA_2.c **** 
 195:Generated_Source\PSoC5/PGA_2.c **** 
 196:Generated_Source\PSoC5/PGA_2.c **** /*******************************************************************************
 197:Generated_Source\PSoC5/PGA_2.c **** * Function Name: PGA_2_SetPower
 198:Generated_Source\PSoC5/PGA_2.c **** ********************************************************************************
 199:Generated_Source\PSoC5/PGA_2.c **** *
 200:Generated_Source\PSoC5/PGA_2.c **** * Summary:
 201:Generated_Source\PSoC5/PGA_2.c **** *  Set the power of the PGA.
 202:Generated_Source\PSoC5/PGA_2.c **** *
 203:Generated_Source\PSoC5/PGA_2.c **** * Parameters:
 204:Generated_Source\PSoC5/PGA_2.c **** *  power: Sets power level between (0) and (3) high power
 205:Generated_Source\PSoC5/PGA_2.c **** *
 206:Generated_Source\PSoC5/PGA_2.c **** * Return:
 207:Generated_Source\PSoC5/PGA_2.c **** *  void
 208:Generated_Source\PSoC5/PGA_2.c **** *
 209:Generated_Source\PSoC5/PGA_2.c **** *******************************************************************************/
 210:Generated_Source\PSoC5/PGA_2.c **** void PGA_2_SetPower(uint8 power) 
 211:Generated_Source\PSoC5/PGA_2.c **** {
 409              		.loc 1 211 0
 410              		.cfi_startproc
 411              		@ args = 0, pretend = 0, frame = 0
 412              		@ frame_needed = 0, uses_anonymous_args = 0
 413              		@ link register save eliminated.
 414              	.LVL0:
 212:Generated_Source\PSoC5/PGA_2.c ****     uint8 tmpCR;
 213:Generated_Source\PSoC5/PGA_2.c **** 
 214:Generated_Source\PSoC5/PGA_2.c ****     tmpCR = PGA_2_CR1_REG & (uint8)(~PGA_2_DRIVE_MASK);
 415              		.loc 1 214 0
 416 0000 044A     		ldr	r2, .L8
 417 0002 1378     		ldrb	r3, [r2]	@ zero_extendqisi2
 418 0004 03F0FC03 		and	r3, r3, #252
 419              	.LVL1:
 215:Generated_Source\PSoC5/PGA_2.c ****     tmpCR |= (power & PGA_2_DRIVE_MASK);
 420              		.loc 1 215 0
 421 0008 00F00300 		and	r0, r0, #3
 422              	.LVL2:
 423 000c 1843     		orrs	r0, r0, r3
 424              	.LVL3:
 216:Generated_Source\PSoC5/PGA_2.c ****     PGA_2_CR1_REG = tmpCR;  
 425              		.loc 1 216 0
 426 000e 1070     		strb	r0, [r2]
 427 0010 7047     		bx	lr
 428              	.L9:
 429 0012 00BF     		.align	2
 430              	.L8:
 431 0014 09580040 		.word	1073764361
 432              		.cfi_endproc
 433              	.LFE4:
 434              		.size	PGA_2_SetPower, .-PGA_2_SetPower
 435              		.section	.text.PGA_2_SetGain,"ax",%progbits
 436              		.align	2
 437              		.global	PGA_2_SetGain
 438              		.thumb
 439              		.thumb_func
ARM GAS  C:\Users\Luggi\AppData\Local\Temp\ccvHKl2T.s 			page 31


 440              		.type	PGA_2_SetGain, %function
 441              	PGA_2_SetGain:
 442              	.LFB5:
 217:Generated_Source\PSoC5/PGA_2.c **** }
 218:Generated_Source\PSoC5/PGA_2.c **** 
 219:Generated_Source\PSoC5/PGA_2.c **** 
 220:Generated_Source\PSoC5/PGA_2.c **** /*******************************************************************************
 221:Generated_Source\PSoC5/PGA_2.c **** * Function Name: PGA_2_SetGain
 222:Generated_Source\PSoC5/PGA_2.c **** ********************************************************************************
 223:Generated_Source\PSoC5/PGA_2.c **** *
 224:Generated_Source\PSoC5/PGA_2.c **** * Summary:
 225:Generated_Source\PSoC5/PGA_2.c **** *  This function sets values of the input and feedback resistors to set a 
 226:Generated_Source\PSoC5/PGA_2.c **** *  specific gain of the amplifier.
 227:Generated_Source\PSoC5/PGA_2.c **** *
 228:Generated_Source\PSoC5/PGA_2.c **** * Parameters:
 229:Generated_Source\PSoC5/PGA_2.c **** *  gain: Gain value of PGA (See header file for gain values.)
 230:Generated_Source\PSoC5/PGA_2.c **** *
 231:Generated_Source\PSoC5/PGA_2.c **** * Return:
 232:Generated_Source\PSoC5/PGA_2.c **** *  void 
 233:Generated_Source\PSoC5/PGA_2.c **** *
 234:Generated_Source\PSoC5/PGA_2.c **** *******************************************************************************/
 235:Generated_Source\PSoC5/PGA_2.c **** void PGA_2_SetGain(uint8 gain) 
 236:Generated_Source\PSoC5/PGA_2.c **** {
 443              		.loc 1 236 0
 444              		.cfi_startproc
 445              		@ args = 0, pretend = 0, frame = 24
 446              		@ frame_needed = 0, uses_anonymous_args = 0
 447              		@ link register save eliminated.
 448              	.LVL4:
 449 0000 10B4     		push	{r4}
 450              		.cfi_def_cfa_offset 4
 451              		.cfi_offset 4, -4
 452 0002 87B0     		sub	sp, sp, #28
 453              		.cfi_def_cfa_offset 32
 454 0004 0446     		mov	r4, r0
 237:Generated_Source\PSoC5/PGA_2.c ****     /* Constant array for gain settings */
 238:Generated_Source\PSoC5/PGA_2.c ****     const uint8 PGA_2_GainArray[9] = { 
 455              		.loc 1 238 0
 456 0006 194B     		ldr	r3, .L13
 457 0008 03AA     		add	r2, sp, #12
 458 000a 1868     		ldr	r0, [r3]	@ unaligned
 459              	.LVL5:
 460 000c 5968     		ldr	r1, [r3, #4]	@ unaligned
 461 000e 03C2     		stmia	r2!, {r0, r1}
 462 0010 197A     		ldrb	r1, [r3, #8]	@ zero_extendqisi2
 463 0012 1170     		strb	r1, [r2]
 239:Generated_Source\PSoC5/PGA_2.c ****         (PGA_2_RVAL_0K   | PGA_2_R20_40B_40K | PGA_2_BIAS_LOW), /* G=1  */
 240:Generated_Source\PSoC5/PGA_2.c ****         (PGA_2_RVAL_40K  | PGA_2_R20_40B_40K | PGA_2_BIAS_LOW), /* G=2  */
 241:Generated_Source\PSoC5/PGA_2.c ****         (PGA_2_RVAL_120K | PGA_2_R20_40B_40K | PGA_2_BIAS_LOW), /* G=4  */
 242:Generated_Source\PSoC5/PGA_2.c ****         (PGA_2_RVAL_280K | PGA_2_R20_40B_40K | PGA_2_BIAS_LOW), /* G=8  */
 243:Generated_Source\PSoC5/PGA_2.c ****         (PGA_2_RVAL_600K | PGA_2_R20_40B_40K | PGA_2_BIAS_LOW), /* G=16 */
 244:Generated_Source\PSoC5/PGA_2.c ****         (PGA_2_RVAL_460K | PGA_2_R20_40B_40K | PGA_2_BIAS_LOW), /* G=24, Sets Rin as 20k */
 245:Generated_Source\PSoC5/PGA_2.c ****         (PGA_2_RVAL_620K | PGA_2_R20_40B_20K | PGA_2_BIAS_LOW), /* G=32 */
 246:Generated_Source\PSoC5/PGA_2.c ****         (PGA_2_RVAL_470K | PGA_2_R20_40B_20K | PGA_2_BIAS_LOW), /* G=48, Sets Rin as 10k */
 247:Generated_Source\PSoC5/PGA_2.c ****         (PGA_2_RVAL_490K | PGA_2_R20_40B_20K | PGA_2_BIAS_LOW)  /* G=50, Sets Rin as 10k */
 248:Generated_Source\PSoC5/PGA_2.c ****     };
 249:Generated_Source\PSoC5/PGA_2.c ****     
ARM GAS  C:\Users\Luggi\AppData\Local\Temp\ccvHKl2T.s 			page 32


 250:Generated_Source\PSoC5/PGA_2.c ****     /* Constant array for gain compenstion settings */
 251:Generated_Source\PSoC5/PGA_2.c ****     const uint8 PGA_2_GainComp[9] = { 
 464              		.loc 1 251 0
 465 0014 6A46     		mov	r2, sp
 466 0016 53F80C0F 		ldr	r0, [r3, #12]!	@ unaligned
 467 001a 5968     		ldr	r1, [r3, #4]	@ unaligned
 468 001c 03C2     		stmia	r2!, {r0, r1}
 469 001e 1B7A     		ldrb	r3, [r3, #8]	@ zero_extendqisi2
 470 0020 1370     		strb	r3, [r2]
 252:Generated_Source\PSoC5/PGA_2.c ****         ( PGA_2_COMP_4P35PF  | (uint8)( PGA_2_REDC_00 >> 2 )), /* G=1  */
 253:Generated_Source\PSoC5/PGA_2.c ****         ( PGA_2_COMP_4P35PF  | (uint8)( PGA_2_REDC_01 >> 2 )), /* G=2  */
 254:Generated_Source\PSoC5/PGA_2.c ****         ( PGA_2_COMP_3P0PF   | (uint8)( PGA_2_REDC_01 >> 2 )), /* G=4  */
 255:Generated_Source\PSoC5/PGA_2.c ****         ( PGA_2_COMP_3P0PF   | (uint8)( PGA_2_REDC_01 >> 2 )), /* G=8  */
 256:Generated_Source\PSoC5/PGA_2.c ****         ( PGA_2_COMP_3P6PF   | (uint8)( PGA_2_REDC_01 >> 2 )), /* G=16 */
 257:Generated_Source\PSoC5/PGA_2.c ****         ( PGA_2_COMP_3P6PF   | (uint8)( PGA_2_REDC_11 >> 2 )), /* G=24 */
 258:Generated_Source\PSoC5/PGA_2.c ****         ( PGA_2_COMP_3P6PF   | (uint8)( PGA_2_REDC_11 >> 2 )), /* G=32 */
 259:Generated_Source\PSoC5/PGA_2.c ****         ( PGA_2_COMP_3P6PF   | (uint8)( PGA_2_REDC_00 >> 2 )), /* G=48 */
 260:Generated_Source\PSoC5/PGA_2.c ****         ( PGA_2_COMP_3P6PF   | (uint8)( PGA_2_REDC_00 >> 2 ))  /* G=50 */
 261:Generated_Source\PSoC5/PGA_2.c ****     };
 262:Generated_Source\PSoC5/PGA_2.c ****     
 263:Generated_Source\PSoC5/PGA_2.c ****     /* Only set new gain if it is a valid gain */
 264:Generated_Source\PSoC5/PGA_2.c ****     if( gain <= PGA_2_GAIN_MAX)
 471              		.loc 1 264 0
 472 0022 082C     		cmp	r4, #8
 473 0024 1ED8     		bhi	.L10
 265:Generated_Source\PSoC5/PGA_2.c ****     {
 266:Generated_Source\PSoC5/PGA_2.c ****         /* Clear resistors, redc, and bias */
 267:Generated_Source\PSoC5/PGA_2.c ****         PGA_2_CR2_REG &= (uint8)(~(PGA_2_RVAL_MASK | PGA_2_R20_40B_MASK | 
 474              		.loc 1 267 0
 475 0026 1249     		ldr	r1, .L13+4
 476 0028 0B78     		ldrb	r3, [r1]	@ zero_extendqisi2
 477 002a 03F08003 		and	r3, r3, #128
 478 002e DBB2     		uxtb	r3, r3
 479 0030 0B70     		strb	r3, [r1]
 268:Generated_Source\PSoC5/PGA_2.c ****                                 PGA_2_REDC_MASK | PGA_2_BIAS_MASK ));
 269:Generated_Source\PSoC5/PGA_2.c **** 
 270:Generated_Source\PSoC5/PGA_2.c ****         /* Set gain value resistors, redc comp, and bias */
 271:Generated_Source\PSoC5/PGA_2.c ****         PGA_2_CR2_REG |= (PGA_2_GainArray[gain] |
 480              		.loc 1 271 0
 481 0032 0878     		ldrb	r0, [r1]	@ zero_extendqisi2
 482 0034 06AB     		add	r3, sp, #24
 483 0036 1C44     		add	r4, r4, r3
 484 0038 14F80C3C 		ldrb	r3, [r4, #-12]	@ zero_extendqisi2
 272:Generated_Source\PSoC5/PGA_2.c ****                                 ((uint8)(PGA_2_GainComp[gain] << 2 ) & PGA_2_REDC_MASK));
 485              		.loc 1 272 0
 486 003c 14F8182C 		ldrb	r2, [r4, #-24]	@ zero_extendqisi2
 487 0040 9200     		lsls	r2, r2, #2
 271:Generated_Source\PSoC5/PGA_2.c ****                                 ((uint8)(PGA_2_GainComp[gain] << 2 ) & PGA_2_REDC_MASK));
 488              		.loc 1 271 0
 489 0042 02F00C02 		and	r2, r2, #12
 490 0046 1343     		orrs	r3, r3, r2
 491 0048 0343     		orrs	r3, r3, r0
 492 004a 0B70     		strb	r3, [r1]
 273:Generated_Source\PSoC5/PGA_2.c **** 
 274:Generated_Source\PSoC5/PGA_2.c ****         /* Clear sc_comp  */
 275:Generated_Source\PSoC5/PGA_2.c ****         PGA_2_CR1_REG &= (uint8)(~PGA_2_COMP_MASK);
 493              		.loc 1 275 0
ARM GAS  C:\Users\Luggi\AppData\Local\Temp\ccvHKl2T.s 			page 33


 494 004c 094A     		ldr	r2, .L13+8
 495 004e 1378     		ldrb	r3, [r2]	@ zero_extendqisi2
 496 0050 03F0F303 		and	r3, r3, #243
 497 0054 1370     		strb	r3, [r2]
 276:Generated_Source\PSoC5/PGA_2.c ****         /* Set sc_comp  */
 277:Generated_Source\PSoC5/PGA_2.c ****         PGA_2_CR1_REG |= ( PGA_2_GainComp[gain] | PGA_2_COMP_MASK );
 498              		.loc 1 277 0
 499 0056 1178     		ldrb	r1, [r2]	@ zero_extendqisi2
 500 0058 14F8183C 		ldrb	r3, [r4, #-24]	@ zero_extendqisi2
 501 005c 0B43     		orrs	r3, r3, r1
 502 005e 43F00C03 		orr	r3, r3, #12
 503 0062 1370     		strb	r3, [r2]
 504              	.L10:
 278:Generated_Source\PSoC5/PGA_2.c ****     }
 279:Generated_Source\PSoC5/PGA_2.c **** }
 505              		.loc 1 279 0
 506 0064 07B0     		add	sp, sp, #28
 507              		.cfi_def_cfa_offset 4
 508              		@ sp needed
 509 0066 5DF8044B 		ldr	r4, [sp], #4
 510              		.cfi_restore 4
 511              		.cfi_def_cfa_offset 0
 512 006a 7047     		bx	lr
 513              	.L14:
 514              		.align	2
 515              	.L13:
 516 006c 00000000 		.word	.LANCHOR0
 517 0070 0A580040 		.word	1073764362
 518 0074 09580040 		.word	1073764361
 519              		.cfi_endproc
 520              	.LFE5:
 521              		.size	PGA_2_SetGain, .-PGA_2_SetGain
 522              		.section	.text.PGA_2_Init,"ax",%progbits
 523              		.align	2
 524              		.global	PGA_2_Init
 525              		.thumb
 526              		.thumb_func
 527              		.type	PGA_2_Init, %function
 528              	PGA_2_Init:
 529              	.LFB0:
  50:Generated_Source\PSoC5/PGA_2.c ****     /* Set PGA mode */
 530              		.loc 1 50 0
 531              		.cfi_startproc
 532              		@ args = 0, pretend = 0, frame = 0
 533              		@ frame_needed = 0, uses_anonymous_args = 0
 534 0000 08B5     		push	{r3, lr}
 535              		.cfi_def_cfa_offset 8
 536              		.cfi_offset 3, -8
 537              		.cfi_offset 14, -4
  52:Generated_Source\PSoC5/PGA_2.c ****     /* Set non-inverting PGA mode and reference mode */
 538              		.loc 1 52 0
 539 0002 0C22     		movs	r2, #12
 540 0004 084B     		ldr	r3, .L17
 541 0006 1A70     		strb	r2, [r3]
  54:Generated_Source\PSoC5/PGA_2.c ****     /* Set default gain and ref mode */
 542              		.loc 1 54 0
 543 0008 084A     		ldr	r2, .L17+4
ARM GAS  C:\Users\Luggi\AppData\Local\Temp\ccvHKl2T.s 			page 34


 544 000a 1378     		ldrb	r3, [r2]	@ zero_extendqisi2
 545 000c 43F02003 		orr	r3, r3, #32
 546 0010 1370     		strb	r3, [r2]
  56:Generated_Source\PSoC5/PGA_2.c ****     /* Set gain and compensation */
 547              		.loc 1 56 0
 548 0012 8022     		movs	r2, #128
 549 0014 064B     		ldr	r3, .L17+8
 550 0016 1A70     		strb	r2, [r3]
  58:Generated_Source\PSoC5/PGA_2.c ****     /* Set power */
 551              		.loc 1 58 0
 552 0018 0020     		movs	r0, #0
 553 001a FFF7FEFF 		bl	PGA_2_SetGain
 554              	.LVL6:
  60:Generated_Source\PSoC5/PGA_2.c **** }
 555              		.loc 1 60 0
 556 001e 0120     		movs	r0, #1
 557 0020 FFF7FEFF 		bl	PGA_2_SetPower
 558              	.LVL7:
 559 0024 08BD     		pop	{r3, pc}
 560              	.L18:
 561 0026 00BF     		.align	2
 562              	.L17:
 563 0028 08580040 		.word	1073764360
 564 002c 09580040 		.word	1073764361
 565 0030 0A580040 		.word	1073764362
 566              		.cfi_endproc
 567              	.LFE0:
 568              		.size	PGA_2_Init, .-PGA_2_Init
 569              		.section	.text.PGA_2_Start,"ax",%progbits
 570              		.align	2
 571              		.global	PGA_2_Start
 572              		.thumb
 573              		.thumb_func
 574              		.type	PGA_2_Start, %function
 575              	PGA_2_Start:
 576              	.LFB2:
 135:Generated_Source\PSoC5/PGA_2.c **** 
 577              		.loc 1 135 0
 578              		.cfi_startproc
 579              		@ args = 0, pretend = 0, frame = 0
 580              		@ frame_needed = 0, uses_anonymous_args = 0
 581 0000 08B5     		push	{r3, lr}
 582              		.cfi_def_cfa_offset 8
 583              		.cfi_offset 3, -8
 584              		.cfi_offset 14, -4
 140:Generated_Source\PSoC5/PGA_2.c ****     {
 585              		.loc 1 140 0
 586 0002 054B     		ldr	r3, .L22
 587 0004 1B78     		ldrb	r3, [r3]	@ zero_extendqisi2
 588 0006 23B9     		cbnz	r3, .L20
 142:Generated_Source\PSoC5/PGA_2.c ****         PGA_2_initVar = 1u;
 589              		.loc 1 142 0
 590 0008 FFF7FEFF 		bl	PGA_2_Init
 591              	.LVL8:
 143:Generated_Source\PSoC5/PGA_2.c ****     }
 592              		.loc 1 143 0
 593 000c 0122     		movs	r2, #1
ARM GAS  C:\Users\Luggi\AppData\Local\Temp\ccvHKl2T.s 			page 35


 594 000e 024B     		ldr	r3, .L22
 595 0010 1A70     		strb	r2, [r3]
 596              	.L20:
 146:Generated_Source\PSoC5/PGA_2.c **** }
 597              		.loc 1 146 0
 598 0012 FFF7FEFF 		bl	PGA_2_Enable
 599              	.LVL9:
 600 0016 08BD     		pop	{r3, pc}
 601              	.L23:
 602              		.align	2
 603              	.L22:
 604 0018 00000000 		.word	.LANCHOR1
 605              		.cfi_endproc
 606              	.LFE2:
 607              		.size	PGA_2_Start, .-PGA_2_Start
 608              		.global	PGA_2_initVar
 609              		.section	.rodata
 610              		.align	2
 611              		.set	.LANCHOR0,. + 0
 612              	.LC0:
 613 0000 01       		.byte	1
 614 0001 11       		.byte	17
 615 0002 21       		.byte	33
 616 0003 31       		.byte	49
 617 0004 41       		.byte	65
 618 0005 61       		.byte	97
 619 0006 53       		.byte	83
 620 0007 63       		.byte	99
 621 0008 73       		.byte	115
 622 0009 000000   		.space	3
 623              	.LC1:
 624 000c 08       		.byte	8
 625 000d 09       		.byte	9
 626 000e 01       		.byte	1
 627 000f 01       		.byte	1
 628 0010 05       		.byte	5
 629 0011 07       		.byte	7
 630 0012 07       		.byte	7
 631 0013 04       		.byte	4
 632 0014 04       		.byte	4
 633 0015 000000   		.bss
 634              		.set	.LANCHOR1,. + 0
 635              		.type	PGA_2_initVar, %object
 636              		.size	PGA_2_initVar, 1
 637              	PGA_2_initVar:
 638 0000 00       		.space	1
 639              		.text
 640              	.Letext0:
 641              		.file 2 "Generated_Source\\PSoC5\\cytypes.h"