ARM GAS  C:\Users\Luggi\AppData\Local\Temp\ccqfLYdG.s 			page 1


   1              		.syntax unified
   2              		.cpu cortex-m3
   3              		.fpu softvfp
   4              		.eabi_attribute 20, 1
   5              		.eabi_attribute 21, 1
   6              		.eabi_attribute 23, 3
   7              		.eabi_attribute 24, 1
   8              		.eabi_attribute 25, 1
   9              		.eabi_attribute 26, 1
  10              		.eabi_attribute 30, 1
  11              		.eabi_attribute 34, 1
  12              		.eabi_attribute 18, 4
  13              		.thumb
  14              		.file	"PGA_1.c"
  15              		.text
  16              	.Ltext0:
  17              		.section	.gnu.lto_.profile.304b4be1,"",%progbits
  18 0000 789C6366 		.ascii	"x\234cf```a\200\000F\206\012?\000\001\262\000\317"
  18      60606061 
  18      80004686 
  18      0A3F0001 
  18      B200CF
  19              		.text
  20              		.section	.gnu.lto_.inline.304b4be1,"",%progbits
  21 0000 789C6366 		.ascii	"x\234cf\300\016\016Ai6\006\006\036nF\006&\241\013=\214"
  21      C00E0E41 
  21      69360606 
  21      1E6E4606 
  21      26A10B3D 
  22 0015 0C6C0BE4 		.ascii	"\014l\013\344\231@\202\214\014\234\034@1\236\007\261"
  22      9940828C 
  22      0C9C1C40 
  22      319E07B1 
  23 0025 70212606 		.ascii	"p!&\006\016vFF\240\014\0033\307\001;\2100\323\005~\026"
  23      0E764646 
  23      A00C0333 
  23      C7013B88 
  23      30D3057E 
  24 003a 901CB390 		.ascii	"\220\034\263\220\206\002#3C\352G&\306%S\247\255a}\301"
  24      86022333 
  24      43EA4726 
  24      C62553A7 
  24      AD617DC1 
  25 004e F413A89C 		.ascii	"\364\023\250\234\201q9\243\024\003C\032\204\002jdQh"
  25      817139A3 
  25      1403431A 
  25      84026A64 
  25      5168
  26 0060 F805B583 		.ascii	"\370\005\265\203e\201\274\000\203Z\317VF\220~\001\240"
  26      6581BC00 
  26      835ACF56 
  26      46907E01 
  26      A0
  27 0071 23786481 		.ascii	"#xd\201\366qM\360C\330\307\015\322\003!\331\0318\205"
  27      F6714DF0 
  27      43D8C70D 
  27      D20321D9 
ARM GAS  C:\Users\Luggi\AppData\Local\Temp\ccqfLYdG.s 			page 2


  27      193885
  28 0084 816C8E5F 		.ascii	"\201l\216_&\010\027r\301\010\006\000\2379\031\011"
  28      26081772 
  28      C1080600 
  28      9F391909 
  29              		.text
  30              		.section	.gnu.lto_.jmpfuncs.304b4be1,"",%progbits
  31 0000 789C6366 		.ascii	"x\234cf\300\016\334\2404\033\0203200122\3263\203\010"
  31      C00EDCA0 
  31      341B1033 
  31      32303031 
  31      3232D633 
  32 0016 A00023D3 		.ascii	"\240\000#\323G&\306\365\363\277\376c|\301\364\223\211"
  32      4726C6F5 
  32      F3BFFE63 
  32      7CC1F493 
  32      89
  33 0027 91998171 		.ascii	"\221\231\201q9\243\024D\364\376\223\363\0279\300\242"
  33      39A31444 
  33      F4FE93F3 
  33      1739C0A2 
  34 0037 40652B80 		.ascii	"@e+\200\242\354`S\000\375\015\017X"
  34      A2EC6053 
  34      00FD0D0F 
  34      58
  35              		.text
  36              		.section	.gnu.lto_.pureconst.304b4be1,"",%progbits
  37 0000 789C6366 		.ascii	"x\234cf``\340e\200\0006\006)F)&)f)6)v\011\000\005\273"
  37      6060E065 
  37      80003606 
  37      29462926 
  37      29662936 
  38 001a 00C4     		.ascii	"\000\304"
  39              		.text
  40              		.section	.gnu.lto_PGA_1_Enable.304b4be1,"",%progbits
  41 0000 789C7D92 		.ascii	"x\234}\222=H\002q\024\300\337{\247\207\207\024\321\024"
  41      3D480271 
  41      14C0DF7B 
  41      A7878714 
  41      D114
  42 0012 2ED1E416 		.ascii	".\321\344\0264\264\264E\203\253\340\032D\330\255\031"
  42      34B4B445 
  42      83ABE01A 
  42      44D8AD19 
  43 0022 52AD9E64 		.ascii	"R\255\236d&M\025\030\202\265\025eeZ:\024\025HS\223\342"
  43      264D1518 
  43      82B51565 
  43      655A3A14 
  43      15485393 
  44 0037 64141484 		.ascii	"d\024\024\204Em\231Q8\224\275w\327\007\030up\357\335"
  44      456D9951 
  44      3894BD77 
  44      D7071875 
  44      70EFDD
  45 004a C77BBFF7 		.ascii	"\307{\277\367\273\373\377\025\370}\270\370\364\022@"
  45      BBFBFF15 
  45      F87DB8F8 
ARM GAS  C:\Users\Luggi\AppData\Local\Temp\ccqfLYdG.s 			page 3


  45      F41240
  46 0059 0F675400 		.ascii	"\017gT\000i\241\010\020v\020\242\\\000B\2100\204\017"
  46      69A10810 
  46      7610A25C 
  46      00428830 
  46      840F
  47 006b 54235C28 		.ascii	"T#\\(l'\234\356u\3030\036or]\263]\015n\253\223\205\301"
  47      6C279CEE 
  47      75C3301E 
  47      6F725DB3 
  47      5D0D6EAB 
  48 0082 0D7403D7 		.ascii	"\015t\003\327\324\"o\025\247\032\341\232\016\353\035"
  48      D4226F15 
  48      A71AE19A 
  48      0EEB1D
  49 0091 6EA28A9C 		.ascii	"n\242\212\2343\235\005\243\331\254\227\026\357\007\320"
  49      339D05A3 
  49      D9AC9716 
  49      EF07D0
  50 00a0 49D0201E 		.ascii	"I\320 \036\306\301.A\225\340\220\240I\000\250r\247\214"
  50      C6C12E41 
  50      95E090A0 
  50      4900A872 
  50      A78C
  51 00b2 BF2592AC 		.ascii	"\277%\222\254\\\340\351\313\374]rR`\257$.\227\351\243"
  51      5CE0E9CB 
  51      FC5D7252 
  51      60AF242E 
  51      97E9A3
  52 00c5 B3F67B6A 		.ascii	"\263\366{j\020\245\346\302\206MF_WKe\207\371\010\344"
  52      10A5E6C2 
  52      864D465F 
  52      574B6587 
  52      F908E4
  53 00d8 36513E88 		.ascii	"6Q>\210\265\255b2\034\301\006)\230B\027n!\177-n\343"
  53      B5AD6232 
  53      1CC10629 
  53      9842176E 
  53      217F2D6E 
  54 00ed 2AC205CE 		.ascii	"*\302\005\316<\253\026N\261\210k\361\345\035\273\264"
  54      3CAB164E 
  54      B1886BF1 
  54      E51DBBB4 
  55 00fd B309EE70 		.ascii	"\263\011\356p%\017]B)\371\017\226f\030#\3004|ON[H;\267"
  55      250F5D42 
  55      29F90F96 
  55      661823C0 
  55      347C4F4E 
  56 0115 C417CF9F 		.ascii	"\304\027\317\237\320\3249\3742\214\327\242\207\266\037"
  56      D0D439FC 
  56      328CD7A2 
  56      87B61F
  57 0124 CAEE3725 		.ascii	"\312\3567%\323\242$\210_\016\177vgM\007\325r(\256LX"
  57      D3A22488 
  57      5F0E7F76 
  57      674D07D5 
  57      7228AE4C 
ARM GAS  C:\Users\Luggi\AppData\Local\Temp\ccqfLYdG.s 			page 4


  58 0139 0C07B7E4 		.ascii	"\014\007\267\344c\347\217N\323\3415\373\351\320<IG\265"
  58      63E78F4E 
  58      D3E135FB 
  58      E9D03C49 
  58      47B5
  59 014b 1FCADE37 		.ascii	"\037\312\3367e\277\305A\263\020\361\343\225%\315\374"
  59      65BFC541 
  59      B310F1E3 
  59      9525CDFC 
  60 015b 2D0602E6 		.ascii	"-\006\002\346Z\234\376\244\345M'\015\2560\\\250x\244"
  60      5A9CFEA4 
  60      E54D270D 
  60      AE305CA8 
  60      78A4
  61 016d 5A764995 		.ascii	"ZvI\225\027\227\327\223\027\250\333\243\217\353\301"
  61      1797D793 
  61      17A8DBA3 
  61      8FEBC1
  62 017c D1497D6C 		.ascii	"\321I}l\304\027\230\012\372\365a\257/0\324?\354\365"
  62      C417980A 
  62      FAF561AF 
  62      2F30D43F 
  62      ECF5
  63 018e 0C8EF4F5 		.ascii	"\014\216\364\365\372\341\003\004\207\323\246"
  63      FAE10304 
  63      87D3A6
  64              		.text
  65              		.section	.gnu.lto_PGA_1_Stop.304b4be1,"",%progbits
  66 0000 789C7D91 		.ascii	"x\234}\221\275KBa\024\306\3179W/\202\024\321$.Q\213"
  66      BD4B4261 
  66      14C6CF39 
  66      572F8214 
  66      D1242E51 
  67 0015 5BD0D01F 		.ascii	"[\320\320\037\020\015n!\270\012\022v\327\004\261V\357"
  67      100D6E21 
  67      B80A1276 
  67      D704B156 
  67      EF
  68 0026 25FBA0C9 		.ascii	"%\373\240\311\014A\010\307HS3hIZD\032\232\012\227>\014"
  68      0C4108C7 
  68      48533368 
  68      495A441A 
  68      9A0A973E 
  69 003b 6AB1A82D 		.ascii	"j\261\250-\025\262;\224\235s/\025$\365\302{\336\217"
  69      15B23B94 
  69      9D732F15 
  69      24F5C27B 
  69      DE8F
  70 004d FB9CDF79 		.ascii	"\373\234\337y\336s\025\030\034^\236G\0100\316+*\200"
  70      DE731518 
  70      1C5E9E47 
  70      0830CE2B 
  70      2A80
  71 005f 943A0730 		.ascii	"\224:\0070\\\204(\033@H\020&\360\231\332\204\251Z1\353"
  71      5C84281B 
  71      40481026 
  71      F099DA84 
ARM GAS  C:\Users\Luggi\AppData\Local\Temp\ccqfLYdG.s 			page 5


  71      A95A31EB 
  72 0073 F6EDEABA 		.ascii	"\366\355\352\272\376R\277\361\254zL\002\350\222\215"
  72      FE52BFF1 
  72      AC7A4C02 
  72      E8928D
  73 0082 C13DF401 		.ascii	"\301=\364\001k\332\311\367+\267\232d\315\210\375\015"
  73      6BDAC9F7 
  73      2BB79A64 
  73      CD88FD0D 
  74 0092 F3A8321E 		.ascii	"\363\2502\036*\2435\275\337\357>\246\363\023\212\213"
  74      2AA335BD 
  74      DFEF3EA6 
  74      F3138A8B 
  75 00a2 C0242EC6 		.ascii	"\300$.\306\301)A\225\000\320b\275\024} \222Uib\375u"
  75      C1294195 
  75      00D062BD 
  75      147D2092 
  75      556962FD 
  76 00b7 F3A31417 		.ascii	"\363\243\024\027D\217\304\301m\371\344l\370\211L\242"
  76      448FC4C1 
  76      6DF9E46C 
  76      F8894CA2 
  77 00c7 C2BAA13B 		.ascii	"\302\272\241;\244\340}\353\242\341\262\256@\216\331"
  77      A4E07DEB 
  77      A2E1B2AE 
  77      408ED9
  78 00d6 C6F1C650 		.ascii	"\306\361\306P\016w\214$\232\244`\001\275\270\217\374"
  78      0E778C24 
  78      9AA46001 
  78      BDB88FFC 
  79 00e6 462C620E 		.ascii	"F,b\016\241\211+o\252\215Slb\245S:U%]\351!`\211\245"
  79      A1892B6F 
  79      AA8D536C 
  79      62A5533A 
  79      55255DE9 
  80 00fe 5C358DA2 		.ascii	"\\5\215\242\371\217Vf\0323\300\262xY^\266\231NN\311"
  80      F98F5666 
  80      1A33C0B2 
  80      78595EB6 
  80      994E4EC9 
  81 0112 6C5D77D0 		.ascii	"l]w\320\362S\375\262\230i\257U\035?\224\203oJ\345\227"
  81      F253FDB2 
  81      9869AF55 
  81      1D3F9483 
  81      6F4AE597 
  82 0126 27410C78 		.ascii	"'A\014x\3703\373\320\362\240\302\035\032\265\3559Q\313"
  82      F833FBD0 
  82      F2A0C21D 
  82      1AB5ED39 
  82      51CB
  83 0138 8F687127 		.ascii	"\217hq'\271y\334\2151\277\266\250\305\346\343\332B8"
  83      B979DC8D 
  83      31BFB6A8 
  83      C5E6E3DA 
  83      4238
  84 014a 185D8A45 		.ascii	"\030]\212E\264P \030\235\235\016\005\3743\341\251\311"
  84      B4502018 
ARM GAS  C:\Users\Luggi\AppData\Local\Temp\ccqfLYdG.s 			page 6


  84      9D9D0E05 
  84      FC33E1A9 
  84      C9
  85 015b 087C0247 		.ascii	"\010|\002G\037\2400"
  85      1FA030
  86              		.text
  87              		.section	.gnu.lto_PGA_1_SetPower.304b4be1,"",%progbits
  88 0000 789C6591 		.ascii	"x\234e\221;H\034Q\024\206\357\177\356\316\270\270Eb"
  88      3B481C51 
  88      1486EF7F 
  88      EECEB8B8 
  88      4562
  89 0012 2AD94650 		.ascii	"*\331FP\304\004\022\301\302\306*ba'\242\255 \242S&+"
  89      C40412C1 
  89      C2C62A62 
  89      6127A2AD 
  89      20A25326 
  90 0027 8B21A577 		.ascii	"\213!\245wtT\010\004D\021\004]DE|\273\232\024b\002\311"
  90      74540804 
  90      4411045D 
  90      44457CBB 
  90      9A146202 
  91 003c C4109B40 		.ascii	"\304\020\233@B\212\030\"\276Y_\235\262\361\261\242\256"
  91      428A1822 
  91      BE595F9D 
  91      B2F1B1A2 
  91      AE
  92 004d E7CE5864 		.ascii	"\347\316Xd\361\302p.\207\377\373\357\177\316Hq\377\204"
  92      F1C2702E 
  92      87FFFBEF 
  92      7FCE4871 
  92      FF84
  93 005f F9CB2121 		.ascii	"\371\313!!\236q\205\024\240\356\037B\330A\002\364E@"
  93      9E718514 
  93      A0EE1F42 
  93      D84102F4 
  93      4540
  94 0071 B4125A71 		.ascii	"\264\022ZqD'\204nw\272?T4\246\224:\0369\315\355\310"
  94      4427846E 
  94      77BA3F54 
  94      34A6943A 
  94      1E39CDED 
  95 0086 4D319624 		.ascii	"M1\226$\337\006\343(b\311d\337\227\215\0072\037\202"
  95      DF06E328 
  95      62C964DF 
  95      978D0732 
  95      1F82
  96 0098 EFB1ADFD 		.ascii	"\357\261\255\375\025*\034U\252\315\3758\247\236#\305"
  96      152A1C55 
  96      AACDFD38 
  96      A79E23C5 
  97 00a8 9E13904C 		.ascii	"\236\023\220L\340i\030O\302\202\033\002\223(\324\342"
  97      E069184F 
  97      C2821B02 
  97      9328D4E2 
  98 00b8 9DEF8303 		.ascii	"\235\357\203\003Y\362\261\007\316.\355\250\354\202a"
  98      59F2B107 
ARM GAS  C:\Users\Luggi\AppData\Local\Temp\ccqfLYdG.s 			page 7


  98      CE2EEDA8 
  98      EC8261
  99 00c7 06B7670E 		.ascii	"\006\267g\016VB\252_9\333\351t\236\346\247\376\347\375"
  99      5642AA5F 
  99      39DBE974 
  99      9EE6A7FE 
  99      E7FD
 100 00d9 C3C08973 		.ascii	"\303\300\211s\375'd:\034\354!\246Q\340\207\302\014L"
 100      FD27643A 
 100      1CEC21A6 
 100      51E087C2 
 100      0C4C
 101 00eb 70D19DF8 		.ascii	"p\321\235\370#W\245\323\311\337\275\023\3052H\3740\361"
 101      2357A5D3 
 101      C9DFBD13 
 101      C53248FC 
 101      30F1
 102 00fd A4DC0F40 		.ascii	"\244\334\017@\277o\350\206\3515\204H0\253'\337#\322"
 102      BF6FE886 
 102      E9358448 
 102      30AB27DF 
 102      23D2
 103 010f 55AE61F9 		.ascii	"U\256a\371\354\315\331\2072mwNz\015\177{\016\333\314"
 103      ECCDD987 
 103      326D774E 
 103      7A0D7F7B 
 103      0EDBCC
 104 0122 434A917C 		.ascii	"CJ\221|;o\253\200\016\260\225\370\371+\350\265\274<"
 104      3B6FAB80 
 104      0EB095F8 
 104      F92BE8B5 
 104      BC3C
 105 0134 CEE2D7AE 		.ascii	"\316\342\327\256`\014\003\266\303C\0070\2130\346\300"
 105      600C03B6 
 105      C3430730 
 105      8B30E6C0 
 106 0144 7911470C 		.ascii	"y\021G\014b\015\355\027\235\353\360\015\245\357\371"
 106      620DED17 
 106      9DEBF00D 
 106      A5EFF9
 107 0153 EDD3E7DD 		.ascii	"\355\323\347\335lm\200+\336\311<\213WA\336\004\034\212"
 107      6C6D802B 
 107      DEC93C8B 
 107      5741DE04 
 107      1C8A
 108 0165 553E7479 		.ascii	"U>ty\227\3028\247\000C\361\241\323\033x\020O\263\300"
 108      97C238A7 
 108      0043F1A1 
 108      D31B7810 
 108      4FB3C0
 109 0178 0C8BFE99 		.ascii	"\014\213\376\231\276\304W\311L\033\223\025\313=\013"
 109      BEC457C9 
 109      4C1B9315 
 109      CB3D0B
 110 0187 EBEF0DDD 		.ascii	"\353\357\015\335\313\010j\273Ff\324w\034U\023\233\260"
 110      CB086ABB 
 110      4666D477 
ARM GAS  C:\Users\Luggi\AppData\Local\Temp\ccqfLYdG.s 			page 8


 110      1C55139B 
 110      B0
 111 0198 DD6495D6 		.ascii	"\335d\225\326\353e'\370\227\361VxGy\225\326K+\332\320"
 111      EB6527F8 
 111      97F15678 
 111      477995D6 
 111      4B2BDAD0 
 112 01ac 6235D5D7 		.ascii	"b5\325\327F^E\033\255\272\352\332HEi]uey}Iq\2430\232"
 112      465E451B 
 112      ADBAEADA 
 112      4845695D 
 112      7565797D 
 113 01c5 23AFADA8 		.ascii	"#\257\255\250\321\362\242\271\242\346\026\301\353\300"
 113      D1F2A2B9 
 113      A2E616C1 
 113      EBC0
 114 01d3 C7       		.ascii	"\307"
 115              		.text
 116              		.section	.gnu.lto_PGA_1_SetGain.304b4be1,"",%progbits
 117 0000 789C8D54 		.ascii	"x\234\215T[HTQ\024=\373\334{g\356\314\370\030\224r\220"
 117      5B485451 
 117      143DFBDC 
 117      7B67EECC 
 117      F8189472 
 118 0015 284842A2 		.ascii	"(HB\242\207TT\277\211\204\325W\324o$R\022}\224!\365"
 118      875454BF 
 118      8984D557 
 118      D46F2452 
 118      127D9421 
 119 002a D18778D4 		.ascii	"\321\207x\324Q+2\207\261\207\024QR\241=G{i\223\325d"
 119      512B3287 
 119      B1871451 
 119      52A13D47 
 119      7B6993D5 
 120 003f 65E9903D 		.ascii	"e\351\220=\230\250\244F!\005\353\243\022%\233\314\246"
 120      98A8A446 
 120      2105EBA3 
 120      12259BCC 
 120      A6
 121 0050 BDCF19D3 		.ascii	"\275\317\031\323\312\244\201Y\367\354s\327^w\355\275"
 121      CAA48159 
 121      F7EC73D7 
 121      5E77EDBD 
 122 0060 EFB91AFB 		.ascii	"\357\271\032\373\373\267\004\377_\014\306V\342\025\014"
 122      FBB704FF 
 122      5F0CC656 
 122      E2150C
 123 006f 06DCD3C9 		.ascii	"\006\334\323\311X\261\311\271\026\312`\302\256\267\314"
 123      58B1C9B9 
 123      16CA60C2 
 123      AEB7CC
 124 007e 64224E03 		.ascii	"d\"N\003]m\353\000\264`\300\212\270\246C\021\274\347"
 124      5D6DEB00 
 124      B460C08A 
 124      B8A64311 
 124      BCE7
 125 0090 031C3C81 		.ascii	"\003\034<\201\3635\216\3643B\210\317\227G\\e\256\010"
ARM GAS  C:\Users\Luggi\AppData\Local\Temp\ccqfLYdG.s 			page 9


 125      F3358EF4 
 125      334288CF 
 125      97475C65 
 125      AE08
 126 00a2 676C902B 		.ascii	"gl\220+}\250\203t\244\234<^\337\024\257\315\006\206"
 126      7DA88374 
 126      A49C3C5E 
 126      DF14AFCD 
 126      0686
 127 00b4 EB68B0A6 		.ascii	"\353h\260\246M\237sJ\210\222\200\377\222X\001\021\016"
 127      4D9F734A 
 127      889280FF 
 127      92580111 
 127      0E
 128 00c5 500F1A66 		.ascii	"P\017\032f\300\374T\230\233\312p\203\301Y\230C\344`"
 128      C0FC5498 
 128      9BCA7083 
 128      C1599843 
 128      E460
 129 00d7 6DB0C5D4 		.ascii	"m\260\305\324\322e\342\215FO$\241\237G8_E\341\253GG"
 129      D265E28D 
 129      464F24A1 
 129      9F47385F 
 129      45E1AB47 
 130 00ec 9652A4D9 		.ascii	"\226R\244\331(\362>\255\352s\244\325\012\217\350\011"
 130      28F23EAD 
 130      EA73A4D5 
 130      0A8FE809 
 131 00fc D7AD1135 		.ascii	"\327\255\0215\302\335\023\215\316\212p\035\316)\355"
 131      C2DD138D 
 131      CE8A701D 
 131      CE29ED
 132 010b F3900A17 		.ascii	"\363\220\012\027 5V7f\354\015w\324\331\265\345R\372"
 132      20355637 
 132      66EC0D77 
 132      D4D9B5E5 
 132      52FA
 133 011d 5645C373 		.ascii	"VE\303s\220\331'G\322'\344^\372G\356\200{\364\245\303"
 133      90D92747 
 133      D227E45E 
 133      FA47EE80 
 133      7BF4A5C3 
 134 0131 E2C6929D 		.ascii	"\342\306\222\235p\021\322\300\007i\252dh\000\0130\306"
 134      7011D2C0 
 134      0769AA64 
 134      68000B30 
 134      C6
 135 0142 C7767D49 		.ascii	"\307v}I\001\021\215^\371X\335?O\237a\000\225e\301\002"
 135      01118D5E 
 135      F958DD3F 
 135      4F9F6100 
 135      9565C102 
 136 0156 0D2B818D 		.ascii	"\015+\201\215\300\216`q\320*\216 \236 \201 \221\300"
 136      C08E6071 
 136      D02A8E20 
 136      9E208120 
 136      91C0
ARM GAS  C:\Users\Luggi\AppData\Local\Temp\ccqfLYdG.s 			page 10


 137 0168 49904490 		.ascii	"I\220D\220L0\215`:A\012\201\213\200\261^|2\315\245\217"
 137      4C308D60 
 137      3A410A81 
 137      8B80B15E 
 137      7C32CDA5 
 138 017d 73BA6A5D 		.ascii	"s\272j]P\342m\374TmH3h\004\015\037\256\0125k\205#\330"
 138      50E26DFC 
 138      546D4833 
 138      68040D1F 
 138      AE0A356B 
 139 0194 1733C2AD 		.ascii	"\0273\302\255\243\\\225\321\335\373\344\231I=\264\312"
 139      A35C95D1 
 139      DDFBE499 
 139      493DB4CA 
 140 01a4 F06CD5C1 		.ascii	"\360l\325\301f8\016\307\212=\304\322\241\021\012\341"
 140      66380EC7 
 140      8A3DC4D2 
 140      A1110AE1 
 141 01b4 32950D57 		.ascii	"2\225\015Wp\233\221\354\263QM\252\372&U\205Ie\256\376"
 141      709B91EC 
 141      B3514DAA 
 141      FA265585 
 141      4965AEFE 
 142 01c8 92B94632 		.ascii	"\222\271F2/\300\375\270\364\335i+\351\014s\003\023N"
 142      2FC0FDB8 
 142      F4DD692B 
 142      E90C7303 
 142      134E
 143 01da 1F3A7CC1 		.ascii	"\037:|\301 \033\206\311\340z\254\317}\\c\241\014\254"
 143      201B86C9 
 143      E07AACCF 
 143      7D5C63A1 
 143      0CAC
 144 01ec A5F5CBBE 		.ascii	"\245\365\313\276p\373F\305\266 {\304\037*\347\3046\017"
 144      70FB46C5 
 144      B6207BC4 
 144      1F2AE7C4 
 144      360F
 145 01fe 34140BFD 		.ascii	"4\024\013\375\267:Li\300\337\025\254\344d\300\215/\227"
 145      B73A4C69 
 145      C0DF15AC 
 145      E464C08D 
 145      2F97
 146 0210 0D9A707A 		.ascii	"\015\232pz\315\362\3717T\031\245_-J\316\252\024\007"
 146      CDF2F937 
 146      5419A55F 
 146      2D4ACEAA 
 146      1407
 147 0222 BB6B1753 		.ascii	"\273k\027S\266M\340\213\347G&>\324\013D\231J\354&\212"
 147      B64DE08B 
 147      E747263E 
 147      D40B4499 
 147      4AEC268A 
 148 0236 A104930E 		.ascii	"\241\004\223\016\277\255V\212\266\2512Zb]\014W\204\014"
 148      BFAD568A 
 148      B6A9325A 
 148      625D0C57 
ARM GAS  C:\Users\Luggi\AppData\Local\Temp\ccqfLYdG.s 			page 11


 148      840C
 149 0248 45B76303 		.ascii	"E\267c\003h\307\017*v`\372\375\023\003\225f\306E\341"
 149      68C70F2A 
 149      7660FAFD 
 149      13039566 
 149      C645E1
 150 025b 8C703B4D 		.ascii	"\214p;M\017Y\362$\335\202\014Im\014\271\023\025;\016"
 150      0F59F224 
 150      DD820C49 
 150      6D0CB913 
 150      153B0E
 151 026e D9AD7EEF 		.ascii	"\331\255~\357~\030c\373\306\331\267%\273\364MyHW\344"
 151      7E1863FB 
 151      C6D9B725 
 151      BBF44D79 
 151      4857E4
 152 0281 78C53FFA 		.ascii	"x\305?\372\262oH\223\275\306\367\372\216\254\265\364"
 152      B26F4893 
 152      BDC6F7FA 
 152      8EACB5F4 
 153 0291 6BF98FB1 		.ascii	"k\371\217\261\006' \021Y\365o;\333dCmq\014\002\2125"
 153      06272011 
 153      59F56F3B 
 153      DB64436D 
 153      710C028A 
 154 02a6 146B5A22 		.ascii	"\024kZ\"\332D\342\304-'\026\2167\376\257owe\337\234"
 154      DA44E2C4 
 154      2D27168E 
 154      37FEAF6F 
 154      7765DF9C 
 155 02ba AA6F5D6B 		.ascii	"\252o]k\224B\022f\274\366\366\227X\344\024+\307\006"
 155      94421266 
 155      BCF6F697 
 155      58E4142B 
 155      C706
 156 02cc EB6EBA57 		.ascii	"\353n\272Wa\216\213\264\376\022\271\367\307$\223\225"
 156      618E8BB4 
 156      FE12B9F7 
 156      C7249395 
 157 02dc 84777FC7 		.ascii	"\204w\177\3075\233\364=\210\243\274\377\307(\377\251"
 157      359BF43D 
 157      88A3BCFF 
 157      C728FFA9 
 158 02ec F6405A4A 		.ascii	"\366@ZJV\226>\304,M\233*\243-6J\177\355\002\305\236"
 158      56963EC4 
 158      2C4D9B2A 
 158      A32D364A 
 158      7FED02C5 
 159 0301 3EC52C1E 		.ascii	">\305,\036\252Y\014\225\177\347\212\234\202\352\230"
 159      AA590C95 
 159      7FE78A9C 
 159      82EA98
 160 0310 32B1852E 		.ascii	"2\261\205.\334E\211\341\262\317{\355r<\330\370G\377"
 160      DC4589E1 
 160      B2CF7BED 
 160      723CD8F8 
 160      47FF
ARM GAS  C:\Users\Luggi\AppData\Local\Temp\ccqfLYdG.s 			page 12


 161 0322 EBBF5DFA 		.ascii	"\353\277]\372w\311S\243\307>\001\255\257&\236\177q\367"
 161      77C953A3 
 161      C73E01AD 
 161      AF269E7F 
 161      71F7
 162 0334 F5B065D9 		.ascii	"\365\260e\331U\261\0073u\006\035\260\214\215S|\223Q"
 162      55B10733 
 162      75061DB0 
 162      8C8D537C 
 162      9351
 163 0346 82480943 		.ascii	"\202H\011Cq\240{\035q\250\216^<\337\250\215\337\216"
 163      71A07B1D 
 163      71A88E5E 
 163      3CDFA88D 
 163      DF8E
 164 0358 59D979DB 		.ascii	"Y\331y\333\363\012rw\346m\316Y\237\277\253`S\336\206"
 164      F30A7277 
 164      E66DCE59 
 164      9FBFAB60 
 164      53DE86
 165 036b B5EBF3B3 		.ascii	"\265\353\363\263\226nX\233\235\231\263h\341&\246o\311"
 165      966E589B 
 165      9D99B368 
 165      E126A66F 
 165      C9
 166 037c DDBA3D51 		.ascii	"\335\272=QF9\331\270\314,(\310\335\2350\036g\345o\333"
 166      4639D9B8 
 166      CC2C28C8 
 166      DD9D301E 
 166      67E56FDB 
 167 0390 F113BEB9 		.ascii	"\361\023\276\271\031\352"
 167      19EA
 168              		.text
 169              		.section	.gnu.lto_PGA_1_Init.304b4be1,"",%progbits
 170 0000 789C7592 		.ascii	"x\234u\222OH\033A\024\306\337\3676Y\"\351Az\314\245"
 170      4F481B41 
 170      14C6DFF7 
 170      365922E9 
 170      417ACCA5 
 171 0014 F5E44110 		.ascii	"\365\344A\020\024z\363\"-\010=\005\274\006Dl\256\012"
 171      147AF322 
 171      2D083D05 
 171      BC06446C 
 171      AE0A
 172 0026 628FE2AE 		.ascii	"b\217\342\256]\252\224\032BN\205\242\305\203h\325&i"
 172      5DAA941A 
 172      424E85A2 
 172      C58368D5 
 172      2669
 173 0038 D5889EB6 		.ascii	"\325\210\236\266\026z\021\025\261P\252m\275\244`\017"
 173      167A1115 
 173      B150AA6D 
 173      BDA4600F 
 174 0048 8568E29F 		.ascii	"\205h\342\237m\250\372fF\245\".\354\316\356\314\367"
 174      6DA8FA66 
 174      46A5222E 
 174      ECCEEECC 
ARM GAS  C:\Users\Luggi\AppData\Local\Temp\ccqfLYdG.s 			page 13


 174      F7
 175 0059 FDBE796F 		.ascii	"\375\276yo\307\242\233WL\356GLT'#,\002\247\327\211\334"
 175      C7A29B57 
 175      4CEE474C 
 175      5427232C 
 175      02A7D789 
 176 006e 0803EA85 		.ascii	"\010\003\352\205@\003\214\001\374\346}F\332\237y\025"
 176      40038C01 
 176      FCE67D46 
 176      DA9F7915 
 177 007e AD9F701C 		.ascii	"\255\237p\034\247\224Ys\343>\002\361\225\331p0\211z"
 177      A7945973 
 177      E33E02F1 
 177      95D97030 
 177      897A
 178 0090 12D1BEF7 		.ascii	"\022\321\276\367\357k\324\366DTk\3260\005\0332\346\356"
 178      EF6BD4F6 
 178      44546BD6 
 178      30051B32 
 178      E6EE
 179 00a2 FACED9D9 		.ascii	"\372\316\331\331\334\302\307\277\250\261(`\204\324\203"
 179      DCC2C7BF 
 179      A8B12860 
 179      84D483
 180 00b1 A8282215 		.ascii	"\250(\"\025\365\213Y\215\3266VJ\371B\203\262\011.\265"
 180      F58B598D 
 180      D636564A 
 180      F94283B2 
 180      092EB5
 181 00c4 54D8E13D 		.ascii	"T\330\341=\016\230_\346]'\244\022v\213\033\233\021="
 181      0E985FE6 
 181      5D27A412 
 181      768B1B9B 
 181      113D
 182 00d6 45EAF3F4 		.ascii	"E\352\363\364\317\301\343Q\274v=\327\017\007l\341-b"
 182      CFC1E351 
 182      BC763DD7 
 182      0F076CE1 
 182      2D62
 183 00e8 98869485 		.ascii	"\230\206\224\205\031\214B\004S?\326?k\275u\2070++\222"
 183      198C4204 
 183      533FD63F 
 183      6BBD7587 
 183      302B2B92 
 184 00fc 70F4E2A8 		.ascii	"p\364\342\250\020V\021\307l\211\344[fo\320\326\310\221"
 184      105611C7 
 184      6C89E45B 
 184      666FD0D6 
 184      C891
 185 010e CB146FF1 		.ascii	"\313\024o\361\323PDs\241\250\357\256\250Y\241\012\342"
 185      D3504473 
 185      A1A8EFAE 
 185      A859A10A 
 185      E2
 186 011f 59C536FE 		.ascii	"Y\3056\376\220A,e+kQ\205\300}B\316\244dpQ\305\255\260"
 186      90412C65 
 186      2B6B5185 
ARM GAS  C:\Users\Luggi\AppData\Local\Temp\ccqfLYdG.s 			page 14


 186      C07D42CE 
 186      A4647051 
 187 0136 BCC004A1 		.ascii	"\274\300\004\241\304\245t\313\205\272\272\374\345\271"
 187      C4A574CB 
 187      85BABAFC 
 187      E5B9
 188 0144 A93975B9 		.ascii	"\2519u\271\233\345\355\325\021\376\277\312\367W\210"
 188      9BE5EDD5 
 188      11FEBFCA 
 188      F75788
 189 0153 0FA6CAF2 		.ascii	"\017\246\312\362\356x\263.\322\001aNV\276\303\363+z"
 189      EE78B32E 
 189      D201614E 
 189      56BEC3F3 
 189      2B7A
 190 0165 030A30B6 		.ascii	"\003\0120\266\225\312r\177\325\031v\"\001\207\312\252"
 190      95CA727F 
 190      D5197622 
 190      0187CAAA 
 191 0175 F19847FF 		.ascii	"\361\230G\377\265~\206en\001\261\200mm>\271\325,\215"
 191      B57E8665 
 191      6E01B180 
 191      6D6D3EB9 
 191      D52C8D
 192 0188 47C19873 		.ascii	"G\301\230so\016O\241\315rv\026\215\371'\\\277\252\273"
 192      6F0E4FA1 
 192      CD727616 
 192      8DF9275C 
 192      BFAABB
 193 019b AB0E4651 		.ascii	"\253\016FQ\262\344\277\212\347^[\262;\331\333\331\227"
 193      B2E4BF8A 
 193      E75E5BB2 
 193      3BD9DBD9 
 193      97
 194 01ac 7CD2D1DE 		.ascii	"|\322\321\336\363\264\267+\231\210\267\367<|\220\210"
 194      F3B4B72B 
 194      9988B7F7 
 194      3C7C9088 
 195 01bc B7B57634 		.ascii	"\267\265v45v\3219\342N\331>"
 195      3576D139 
 195      E24ED93E 
 196              		.text
 197              		.section	.gnu.lto_PGA_1_Start.304b4be1,"",%progbits
 198 0000 789C7590 		.ascii	"x\234u\220\277KBQ\024\307\3179\367\231\222B\321$\015"
 198      BF4B4251 
 198      14C7CF39 
 198      F7999242 
 198      D1240D
 199 0013 4693D050 		.ascii	"F\223\320PD\364\007D\203\320$\264\012\022\346\232 5"
 199      44F40744 
 199      83D024B4 
 199      0A12E69A 
 199      2035
 200 0025 8AF7A541 		.ascii	"\212\367\245AC\2048E\277\266\312\2624\227\006#p\013"
 200      43843845 
 200      BFB6CAB2 
 200      34970623 
ARM GAS  C:\Users\Luggi\AppData\Local\Temp\ccqfLYdG.s 			page 15


 200      700B
 201 0037 1C140933 		.ascii	"\034\024\0113\"\012\244\3006\315!$\304\316}F\201\341"
 201      220AA4C0 
 201      36CD2124 
 201      C4CE7D46 
 201      81E1
 202 0049 85C7BDEF 		.ascii	"\205\307\275\357{\277\347\373\375p\005\374_3\374]!\300"
 202      7BBFE7FB 
 202      FD7005FC 
 202      5F33FC5D 
 202      21C0
 203 005b 38EF6802 		.ascii	"8\357h\002\244X\001@\267\020\211\254\003\344\240v?\005"
 203      A4580140 
 203      B71089AC 
 203      03E4A076 
 203      3F05
 204 006d D22650EB 		.ascii	"\322&P\353\312\032\242:\000B\230\204\206a|\247\006a"
 204      CA1AA23A 
 204      00429884 
 204      86617CA7 
 204      0661
 205 007f 2C97DCB1 		.ascii	",\227\334\261:\217\244\224\365j\311\276ao\021@\223\272"
 205      3A8FA494 
 205      F56AC9BE 
 205      616F1140 
 205      93BA
 206 0091 F978824E 		.ascii	"\371x\202N`O#\332\256X\007\242\354\031\356\336a\002"
 206      604F23DA 
 206      AE5807A2 
 206      EC19EEDE 
 206      6102
 207 00a3 07B817D2 		.ascii	"\007\270\027\322#9\331\3514o\343\265\0112\013h\021\213"
 207      2339D9E9 
 207      346FE3B5 
 207      09320B68 
 207      118B
 208 00b5 AF6C503D 		.ascii	"\257lP=oDj\027\217\270\036\317\024\252&5\363I\202\343"
 208      6F446A17 
 208      8FB81ECF 
 208      14AA2635 
 208      F34982E3 
 209 00c9 0EEFB653 		.ascii	"\016\357\266S\024\372\222\233\322\322\"j\253@V_^\213"
 209      14FA929B 
 209      D2D2226A 
 209      AB40565F 
 209      5E8B
 210 00db 254B8D58 		.ascii	"%K\215X1~\023zt\037\017pO\227\312%\360\024Cx\206\243"
 210      317E137A 
 210      741F0F70 
 210      4F97CA25 
 210      F0144378 
 211 00f1 DC9D6419 		.ascii	"\334\235d\031\312\030}\2108\3762\365\343\353-\263\232"
 211      CA187D88 
 211      38FE32F5 
 211      E3EB2DB3 
 211      9A
 212 0102 66023C57 		.ascii	"f\002<W>P\010\002\262\016\361\204\221\334M\336\246\314"
ARM GAS  C:\Users\Luggi\AppData\Local\Temp\ccqfLYdG.s 			page 16


 212      3E500802 
 212      B20EF184 
 212      91DC4DDE 
 212      A6CC
 213 0114 D05BAF35 		.ascii	"\320[\2575\215\211\013\0141\275\011\030\266^/~\030\260"
 213      8D890B0C 
 213      31BD0918 
 213      B65E2F7E 
 213      18B0
 214 0126 7D497BD1 		.ascii	"}I{\321R\277hi\226\331P\332=\216\014)\030\201\200\227"
 214      52BF6869 
 214      96D950DA 
 214      3D8E0C29 
 214      18818097 
 215 013a 06CC1B69 		.ascii	"\006\314\033i\306k(\226r\236\372\261p\003f~X\236Q\317"
 215      C66B2896 
 215      729EFAB1 
 215      7003667E 
 215      589E51CF 
 216 014e 55160C27 		.ascii	"U\026\014'\250gE\025\300\2061\227\177\305\037\\Z\365"
 216      A8674515 
 216      C0863197 
 216      7FC51F5C 
 216      5AF5
 217 0160 2F7B1703 		.ascii	"/{\027\003kA\237\337\343^\014\314\317z\334\2569\357"
 217      6B419FDF 
 217      E35E0CCC 
 217      CF7ADCAE 
 217      39EF
 218 0172 F4A40FBE 		.ascii	"\364\244\017\276\001\221U\250J"
 218      019155A8 
 218      4A
 219              		.text
 220              		.section	.gnu.lto_.symbol_nodes.304b4be1,"",%progbits
 221 0000 789C558D 		.ascii	"x\234U\215\273\015\2000\024\304\234\367\362a \366\273"
 221      BB0D8030 
 221      14C49CF7 
 221      F26120F6 
 221      BB
 222 0011 15A8A881 		.ascii	"\025\250\250\201\031\230\200\001\330\001\006A$\022\005"
 222      19988001 
 222      D8010641 
 222      241205
 223 0020 B9C6B264 		.ascii	"\271\306\262d\351\034\230\371f&\230N\220\230\227\001"
 223      E91C98F9 
 223      6626984E 
 223      90989701 
 224 0030 8B0A9D27 		.ascii	"\213\012\235'Y\347Y\376\367TXL\236\206\320`A\261\253"
 224      59E759FE 
 224      F754584C 
 224      9E86D060 
 224      41B1AB
 225 0043 5DA9ABB1 		.ascii	"]\251\253\261\265\036zv\216\353\011\236\215\273\261"
 225      B51E7A76 
 225      8EEB099E 
 225      8DBBB1
 226 0052 64EE7DF4 		.ascii	"d\356}\364\002[U^,\027&\314"
ARM GAS  C:\Users\Luggi\AppData\Local\Temp\ccqfLYdG.s 			page 17


 226      025B555E 
 226      2C1726CC 
 227              		.text
 228              		.section	.gnu.lto_.refs.304b4be1,"",%progbits
 229 0000 789C6366 		.ascii	"x\234cf``\020d\200\000&f\006\026F\006V&&v\006\016FF"
 229      60601064 
 229      80002666 
 229      06164606 
 229      56262676 
 230 0018 0E160600 		.ascii	"\016\026\006\000\003\242\000E"
 230      03A20045 
 231              		.text
 232              		.section	.gnu.lto_.decls.304b4be1,"",%progbits
 233 0000 789C8D55 		.ascii	"x\234\215UmLSW\030\276oo\277(\0256\177\324\245Y\"\306"
 233      6D4C5357 
 233      18BE6F6F 
 233      BF281536 
 233      7FD4A559 
 234 0016 C46D8E99 		.ascii	"\304m\216\231\361C\343\277i\310\2023\313BB\266?3\232"
 234      F143E3BF 
 234      69C88233 
 234      CB4242B6 
 234      3F339A
 235 0029 8E351BC9 		.ascii	"\2165\033\311\006\246\326l\376;\"*\342f\030\321\201"
 235      06A6D66C 
 235      FE3B222A 
 235      E26618D1 
 235      81
 236 003a 38B44205 		.ascii	"8\264B\005\004\3067\224o\353\327D\361\233\012\224:V"
 236      04C63794 
 236      6FEBD744 
 236      F19B0A94 
 236      3A56
 237 004c 703A9D88 		.ascii	"p:\235\210\005\221\201\032\356\336s\316\275\364\322"
 237      0591811A 
 237      EEDE73CE 
 237      BDF4D2
 238 005b C8DC4D9E 		.ascii	"\310\334M\236\366\276\367<\357s\336\363\274\347\334"
 238      F6BEF73C 
 238      EF73DEF3 
 238      BCE7DC
 239 006a 2B0A8230 		.ascii	"+\012\2020\000\202 \341u\300(\010\203\030\033\020\311"
 239      008220E1 
 239      75C02808 
 239      83181B10 
 239      C9
 240 007b 080DC282 		.ascii	"\010\015\302\202\250\024\370\245G\324!\032\020\036D"
 240      A814F8A5 
 240      47D4211A 
 240      101E44
 241 008a 2BA21DD1 		.ascii	"+\242\035\321\211\020\251\016\342\036\342\2010\377\242"
 241      8910A90E 
 241      E21EE281 
 241      30FFA2
 242 0099 395A5993 		.ascii	"9ZY\223\352\215!F\3451\220\307#\257\206W\3444\274$\207"
 242      EA8D2146 
 242      E53190C7 
ARM GAS  C:\Users\Luggi\AppData\Local\Temp\ccqfLYdG.s 			page 18


 242      23AF8657 
 242      E434BC24 
 243 00ae D6A49373 		.ascii	"\326\244\223s*\027\310\363\274$\217\256#Z\225\027\203"
 243      2A17C8F3 
 243      BC248FAE 
 243      235A9517 
 243      83
 244 00bf 3023CEC9 		.ascii	"0#\316\311\032\033\021\217UZ]*=\232\253Q\255]}Qo\024"
 244      1A1B118F 
 244      555A5D2A 
 244      3D9AAB51 
 244      AD5D7D51 
 245 00d5 2FD5B584 		.ascii	"/\325\265\204\344y\232d\236(s[\027\250\217\372\253W"
 245      E4799A64 
 245      9E28735B 
 245      17A88FFA 
 245      AB57
 246 00e7 E98CCBF9 		.ascii	"\351\214\313\371\023\210\032\225F\247\254S'\327\026"
 246      13881A95 
 246      46A7AC53 
 246      27D716
 247 00f6 D987710D 		.ascii	"\331\207q\015\364\235\332\273\327(j\200\336\227\024"
 247      F49DDABB 
 247      D7286A80 
 247      DE9714
 248 0105 0CFB4CF1 		.ascii	"\014\373L\361\025\204\220l\342\365B\230\264\263\264"
 248      1584906C 
 248      E2F54298 
 248      B4B3B4
 249 0114 FD07C37D 		.ascii	"\375\007\303}\015XL,<\320SxZd\241D\3634~\377\301\031"
 249      0D584C2C 
 249      3CD05378 
 249      5A64A144 
 249      F3347EFF 
 250 012a 114C2BB2 		.ascii	"\021L+\262\011\311$\241<\"\276!@\274\025\336\261\012"
 250      09C924A1 
 250      3C22BE21 
 250      40BC15DE 
 250      B10A
 251 013c 50052B90 		.ascii	"P\005+\220\006\345\020/\300I\260B\005X\0057N\020:\346"
 251      06E5102F 
 251      C049B042 
 251      05580537 
 251      4E103AE6 
 252 0150 1B7C9310 		.ascii	"\033|\223\020-T\202\011\312@d\014,\222\316\300\234\304"
 252      2D548209 
 252      CA40640C 
 252      2C92CEC0 
 252      9CC4
 253 0162 E738536B 		.ascii	"\3478Sk\365\344\225h\234)\306\024G'n\313\353.\320ch"
 253      F5E49568 
 253      9C29C614 
 253      47276ECB 
 253      EB2ED063 
 254 0177 366969D8 		.ascii	"6ii\330\376|\304\247]r\010\345H\356.\362\232\026\222"
 254      FE7CC4A7 
 254      5D7208E5 
ARM GAS  C:\Users\Luggi\AppData\Local\Temp\ccqfLYdG.s 			page 19


 254      48EE2EF2 
 254      9A1692
 255 018a 2DF02B4E 		.ascii	"-\360+NR\215\223\010P\003K\360\367s-_\3023O\251?VL`"
 255      528D9308 
 255      50034BF0 
 255      F7732D5F 
 255      C2334FA9 
 256 01a2 EB3C7BD3 		.ascii	"\353<{\3237f\214;J\202\265\241\331\216=\342a\342\312"
 256      37668C3B 
 256      4A82B5A1 
 256      D98E3DE2 
 256      61E2CA
 257 01b5 24B312AE 		.ascii	"$\263\022\256\205\346@\355\\5\002\275\347\345\324A\034"
 257      85E640ED 
 257      5C3502BD 
 257      E7E5D441 
 257      1C
 258 01c6 2606F6F5 		.ascii	"&\006\366\365\365\232\304\315L\244\341Z\321\254\011"
 258      F59AC4CD 
 258      4CA4E15A 
 258      D1AC09
 259 01d5 455CB5AE 		.ascii	"E\\\265\256\313'\364\335\304+I\037\260\374zU~\275\222"
 259      CB27F4DD 
 259      C42B491F 
 259      B0FC7A55 
 259      7EBD92
 260 01e8 DFC0F273 		.ascii	"\337\300\362sw\237\316\325j5|y\2644|\366T\032>\241Y"
 260      779FCED5 
 260      6A357C79 
 260      B4347CF6 
 260      541A3EA1 
 261 01fd 70114D6C 		.ascii	"p\021Ml\021\215 \257\342\227\231c\245z1\215\025 \365"
 261      118D20AF 
 261      E2979963 
 261      A57A318D 
 261      1520F5
 262 0210 148C1AD8 		.ascii	"\024\214\032\330*\\\025eJ\001\310\207fU\001\315J\001"
 262      2A5C1565 
 262      4A01C887 
 262      665501CD 
 262      4A01
 263 0222 1E564061 		.ascii	"\036V@a\333T\277A\374\236\345?*\275\025\317\323\003"
 263      DB54BF41 
 263      FC9EE53F 
 263      2ABD15CF 
 263      D303
 264 0234 F3D25B54 		.ascii	"\363\322[T\351-Jz+K\357\360\034.6\210{\200\345\007\212"
 264      E92D4A7A 
 264      2B4BEFF0 
 264      1C2E3688 
 264      7B80E507 
 265 0249 2FD67117 		.ascii	"/\326q\027]\017\352\311\272,\362B\222D\346@\233J\241"
 265      5D0FEAC9 
 265      BA2CF242 
 265      9244E640 
 265      9B4AA1
 266 025c 4D516867 		.ascii	"MQhg\012\345O_\224h\305\237\270\202\277\271j\247\236"
ARM GAS  C:\Users\Luggi\AppData\Local\Temp\ccqfLYdG.s 			page 20


 266      0AE54F5F 
 266      9468C59F 
 266      B882BFB9 
 266      6AA79E
 267 026f 5B78609E 		.ascii	"[x`\236\205\035*\201\016E\240\223\011\\-\314\2364\231"
 267      851D2A81 
 267      0E45A093 
 267      095C2DCC 
 267      9E3499
 268 0282 E49D96FD 		.ascii	"\344\235\226\375\212\235FwP]\356L\014\333A\033h8\320"
 268      8A9D4677 
 268      505DEE4C 
 268      0CDB411B 
 268      6838D0
 269 0295 9DBF9A6D 		.ascii	"\235\277\232m\240(\032\271\017\375\\\245c\241\221\206"
 269      A0281AB9 
 269      0FFD5CA5 
 269      63A19186 
 270 02a5 C3396DF9 		.ascii	"\3039m\371f\252\315Z\021\265\001\237\253Zq\006po\302"
 270      66AACD5A 
 270      11B5019F 
 270      AB5A7106 
 270      706FC2
 271 02b8 DB5638CD 		.ascii	"\333V8\315\225\033{\273:aq.c\023\022\007\254\247\247"
 271      951B7BBB 
 271      3A61712E 
 271      63131207 
 271      ACA7A7
 272 02cb 90EE65F4 		.ascii	"\220\356e\364\263\260XI\242\354\342\376\340)\255\232"
 272      B3B05849 
 272      A2ECE2FE 
 272      E029AD9A 
 273 02db DDF55FEC 		.ascii	"\335\365_\354\037\207\332\007b\305\"nS\317\361\236\016"
 273      1F87DA07 
 273      62C5226E 
 273      53CFF19E 
 273      0E
 274 02ec A358C283 		.ascii	"\243X\302\203\023/\2164\307.?\216\"\301\241\262\215"
 274      132F8E34 
 274      C72E3F8E 
 274      22C1A1B2 
 274      8D
 275 02fd A4806405 		.ascii	"\244\200d\005%i)\234\203\305\360\033\272\206}\012\253"
 275      2569299C 
 275      83C5F01B 
 275      BA867D0A 
 275      AB
 276 030e 2AC7F742 		.ascii	"*\307\367B\321\375z-;\257Lbzd\342\012?\276\257\323\260"
 276      D1FD7A2D 
 276      3BAF4C62 
 276      7A64E20A 
 276      3FBEAFD3 
 277 0323 B0FFEEA4 		.ascii	"\260\377\356\244\310\034\322\320\360\346\223\203\345"
 277      C81CD2D0 
 277      F0E69383 
 277      E5
 278 0330 D16C7419 		.ascii	"\321lt\031;\353\325\356'\261lT\244\341\221\352\366\256"
ARM GAS  C:\Users\Luggi\AppData\Local\Temp\ccqfLYdG.s 			page 21


 278      3BEBD5EE 
 278      27B16C54 
 278      A4E191EA 
 278      F6AE
 279 0342 58369AA0 		.ascii	"X6\232\240>\2201\374@\272\237\270\253\242\330\350z\032"
 279      3E9031FC 
 279      40BA9FB8 
 279      ABA2D8E8 
 279      7A1A
 280 0354 8EF61E69 		.ascii	"\216\366\036i3\263Q\035kw\327\3145#\033\265\3210owK"
 280      33B3511D 
 280      6B77D7CC 
 280      35231BB5 
 280      D1306F77 
 281 0369 0BEF8C9E 		.ascii	"\013\357\214\236\205\345\336)\015\033M\241\341?%\301"
 281      85E5DE29 
 281      0D1B4DA1 
 281      E13F25C1 
 282 0379 87C0460D 		.ascii	"\207\300F\0154\314?\327\347\0056\232J\303\275y\217\212"
 282      34CC3FD7 
 282      E705369A 
 282      4AC3BD79 
 282      8F8A
 283 038b 7891DB98 		.ascii	"x\221\333\230C\267G\336[\323H\262]\335\300\234Xi\205"
 283      43B747DE 
 283      5BD348B2 
 283      5DDDC09C 
 283      586985
 284 039e 6E34E15D 		.ascii	"n4\341]+\\\304\277K\210\036\304e\304\025\304U\3045\304"
 284      2B5CC4BF 
 284      4B881EC4 
 284      65C415C4 
 284      55C435C4 
 285 03b2 75C40DC4 		.ascii	"u\304\015\304MD/\302\207\270\205\300\015\325\307[\354"
 285      4D442FC2 
 285      87B885C0 
 285      0DD5C75B 
 285      EC
 286 03c3 C91AEC5C 		.ascii	"\311\032\354\\\204f_w\025x3\335\340\235\226$\003\233"
 286      84665F77 
 286      157833DD 
 286      E09D9624 
 286      039B
 287 03d5 E03C6ECA 		.ascii	"\340<n\3129\237\341\002,gO\004\350\2075\002\014\300"
 287      399FE102 
 287      2C674F04 
 287      E8873502 
 287      0CC0
 288 03e7 72CCDDEF 		.ascii	"r\314\335\357:\177[\024\033x\327\366\015]*3\211\255"
 288      3A7F5B14 
 288      1B78D7F6 
 288      0D5D2A33 
 288      89AD
 289 03f9 3C385933 		.ascii	"<8Y38\015\254\205\256\347o\251\0338\270P\003\225}j\341"
 289      380DAC85 
 289      AEE76FA9 
 289      1B38B850 
ARM GAS  C:\Users\Luggi\AppData\Local\Temp\ccqfLYdG.s 			page 22


 289      03957D6A 
 290 040e FB54DEC4 		.ascii	"\373T\336\304\026\276\211#\272\033\021*=\260\360\036"
 290      16BE8923 
 290      BA1B112A 
 290      3DB0F01E 
 291 041e 28B65AB8 		.ascii	"(\266Z\270\255\021\241\322N\013ogD\350/\236\036\322"
 291      AD11A1D2 
 291      4E0B6F67 
 291      44E82F9E 
 291      1ED2
 292 0430 45D87C9B 		.ascii	"E\330|\233\333\374\273l\363\220l\363\037\262\315A\331"
 292      DBFCBB6C 
 292      F3906CF3 
 292      1FB2CD41 
 292      D9
 293 0441 E661D9E6 		.ascii	"\346a\331\346\021\331\346;\334\346?\271\315\201\226"
 293      11D9E63B 
 293      DCE63FB9 
 293      CD8196
 294 0450 CBDE97DA 		.ascii	"\313\336\227\332\354\237gs\000m\3663\233\357R\233\357"
 294      EC9F6773 
 294      006DF633 
 294      9BEF529B 
 294      EF
 295 0461 319BCB9F 		.ascii	"1\233\313\237uN\232\304n\356\354l\240\326C\013\256\004"
 295      754E9AC4 
 295      6EEEEC6C 
 295      A0D6430B 
 295      AE04
 296 0473 FEA16A9A 		.ascii	"\376\241j\23289cDaWq\260kLW@\010\263\232\236\323\277"
 296      38396344 
 296      615771B0 
 296      6B4C5740 
 296      08B39A9E 
 297 0489 F81B467E 		.ascii	"\370\033F~y\0104\306\337\373t\232\007L\227\344\357w"
 297      790834C6 
 297      DFFB749A 
 297      074C97E4 
 297      EF77
 298 049b 1BC53EAE 		.ascii	"\033\305>\256\3334\225\323\272\210\276\030v\375\217"
 298      DB3495D3 
 298      BA88BE18 
 298      76FD8F
 299 04aa CF1B7E10 		.ascii	"\317\033~\020}Ws\372\242\370\00712\343\321\202\037\304"
 299      7D5773FA 
 299      A2F80731 
 299      32E3D182 
 299      1FC4
 300 04bc E93B1BB2 		.ascii	"\351;\033\262\310:\030\305\352\376\016\177\020\037\202"
 300      C83A18C5 
 300      EAFE0E7F 
 300      101F82
 301 04cb 696E1BF8 		.ascii	"in\033\370z2\003\2429\207\276\373\370\373\211r\303/"
 301      7A3203A2 
 301      3987BEFB 
 301      F8FB8972 
 301      C32F
ARM GAS  C:\Users\Luggi\AppData\Local\Temp\ccqfLYdG.s 			page 23


 302 04dd A83130B3 		.ascii	"\25010\263\027%\376#\371\314\341\332\213\240&SC\303"
 302      1725FE23 
 302      F9CCE1DA 
 302      8BA02653 
 302      43C3
 303 04ef E4C732F9 		.ascii	"\344\3072\3711#\037\255\035\\\246\346\322\357@\230\033"
 303      31231FAD 
 303      1D5CA6E6 
 303      D2EF4098 
 303      1B
 304 0500 92B921C6 		.ascii	"\222\271!\306\275\021\2226\253\271\225\363\212\030\227"
 304      BD119236 
 304      ABB995F3 
 304      8A1897
 305 050f B9E38C5B 		.ascii	"\271\343\214[3u\275\"ZM\256\231'<\001fe\235x+\350\266"
 305      3375BD22 
 305      5A4DAE99 
 305      273C0166 
 305      659D782B 
 306 0525 A7A53BD7 		.ascii	"\247\245;\327\352\223>\3714.QX\226dO\267;lN\373\227"
 306      EA933EF9 
 306      342E5158 
 306      96644FB7 
 306      3B6C4EFB 
 307 053a 5B5232B6 		.ascii	"[R2\266;R\355\233\222S2\022WoJ\335\341\334\261\325\276"
 307      3B52ED9B 
 307      92533212 
 307      576F4ADD 
 307      E1DCB1D5 
 308 054f 6DD5D782 		.ascii	"m\325\327\20299i\375\226\204-\037\246\333\276\370\306"
 308      393969FD 
 308      96842D1F 
 308      A6DBBEF8 
 308      C6
 309 0560 BE74013A 		.ascii	"\276t\001:\343\254J\025L\234\234\342\314\330\032#\337"
 309      E3AC4A15 
 309      4C9C9CE2 
 309      CCD81A23 
 309      DF
 310 0571 DA9DC919 		.ascii	"\332\235\311\031\337\331\035\213\346\302$[Z\272\314"
 310      DFD91D8B 
 310      E6C2245B 
 310      5ABACC
 311 0580 FB283DCD 		.ascii	"\373(=\315\031\255\244\330\034N\335\312U\037'\276\037"
 311      19ADA4D8 
 311      1C4EDDCA 
 311      551F27BE 
 311      1F
 312 0591 CB9F50DE 		.ascii	"\313\237P\336z\207\303\266\203=M\210\011?M\314\370v"
 312      7A87C3B6 
 312      833D4D88 
 312      093F4DCC 
 312      F876
 313 05a3 ABAC9786 		.ascii	"\253\254\227\206\012\237\331\034Z\207\375\253\265\377"
 313      0A9FD91C 
 313      5A87FDAB 
 313      B5FF
ARM GAS  C:\Users\Luggi\AppData\Local\Temp\ccqfLYdG.s 			page 24


 314 05b1 0247341B 		.ascii	"\002G4\033\327"
 314      D7
 315              		.text
 316              		.section	.gnu.lto_.symtab.304b4be1,"",%progbits
 317 0000 5047415F 		.ascii	"PGA_1_Enable\000\000\000\000\000\000\000\000\000\000"
 317      315F456E 
 317      61626C65 
 317      00000000 
 317      00000000 
 318 0016 0000B100 		.ascii	"\000\000\261\000\000\000PGA_1_Stop\000\000\000\000\000"
 318      00005047 
 318      415F315F 
 318      53746F70 
 318      00000000 
 319 002b 00000000 		.ascii	"\000\000\000\000\000\000\000\263\000\000\000PGA_1_S"
 319      000000B3 
 319      00000050 
 319      47415F31 
 319      5F53
 320 003d 6574506F 		.ascii	"etPower\000\000\000\000\000\000\000\000\000\000\000"
 320      77657200 
 320      00000000 
 320      00000000 
 320      0000
 321 004f 00B70000 		.ascii	"\000\267\000\000\000PGA_1_SetGain\000\000\000\000\000"
 321      00504741 
 321      5F315F53 
 321      65744761 
 321      696E0000 
 322 0066 00000000 		.ascii	"\000\000\000\000\000\000\000\271\000\000\000PGA_1_I"
 322      000000B9 
 322      00000050 
 322      47415F31 
 322      5F49
 323 0078 6E697400 		.ascii	"nit\000\000\000\000\000\000\000\000\000\000\000\000"
 323      00000000 
 323      00000000 
 323      000000
 324 0087 BB000000 		.ascii	"\273\000\000\000PGA_1_Start\000\000\000\000\000\000"
 324      5047415F 
 324      315F5374 
 324      61727400 
 324      00000000 
 325 009c 00000000 		.ascii	"\000\000\000\000\000\000\275\000\000\000PGA_1_initV"
 325      0000BD00 
 325      00005047 
 325      415F315F 
 325      696E6974 
 326 00b1 61720000 		.ascii	"ar\000\000\000\000\000\000\000\000\000\000\000\000\351"
 326      00000000 
 326      00000000 
 326      0000E9
 327 00c0 000000   		.ascii	"\000\000\000"
 328              		.text
 329              		.section	.gnu.lto_.opts,"",%progbits
 330 0000 272D666E 		.ascii	"'-fno-trapv' '-fno-strict-overflow' '-mcpu=cortex-m"
 330      6F2D7472 
ARM GAS  C:\Users\Luggi\AppData\Local\Temp\ccqfLYdG.s 			page 25


 330      61707627 
 330      20272D66 
 330      6E6F2D73 
 331 0033 33272027 		.ascii	"3' '-mthumb' '-g' '-Og' '-ffunction-sections' '-flt"
 331      2D6D7468 
 331      756D6227 
 331      20272D67 
 331      2720272D 
 332 0066 6F272027 		.ascii	"o' '-ffat-lto-objects'\000"
 332      2D666661 
 332      742D6C74 
 332      6F2D6F62 
 332      6A656374 
 333              		.text
 334              		.cfi_sections	.debug_frame
 335              		.section	.text.PGA_1_Enable,"ax",%progbits
 336              		.align	2
 337              		.global	PGA_1_Enable
 338              		.thumb
 339              		.thumb_func
 340              		.type	PGA_1_Enable, %function
 341              	PGA_1_Enable:
 342              	.LFB1:
 343              		.file 1 "Generated_Source\\PSoC5\\PGA_1.c"
   1:Generated_Source\PSoC5/PGA_1.c **** /*******************************************************************************
   2:Generated_Source\PSoC5/PGA_1.c **** * File Name: PGA_1.c  
   3:Generated_Source\PSoC5/PGA_1.c **** * Version 2.0
   4:Generated_Source\PSoC5/PGA_1.c **** *
   5:Generated_Source\PSoC5/PGA_1.c **** * Description:
   6:Generated_Source\PSoC5/PGA_1.c **** *  This file provides the source code to the API for the PGA 
   7:Generated_Source\PSoC5/PGA_1.c **** *  User Module.
   8:Generated_Source\PSoC5/PGA_1.c **** *
   9:Generated_Source\PSoC5/PGA_1.c **** * Note:
  10:Generated_Source\PSoC5/PGA_1.c **** *
  11:Generated_Source\PSoC5/PGA_1.c **** ********************************************************************************
  12:Generated_Source\PSoC5/PGA_1.c **** * Copyright 2008-2012, Cypress Semiconductor Corporation.  All rights reserved.
  13:Generated_Source\PSoC5/PGA_1.c **** * You may use this file only in accordance with the license, terms, conditions, 
  14:Generated_Source\PSoC5/PGA_1.c **** * disclaimers, and limitations in the end user license agreement accompanying 
  15:Generated_Source\PSoC5/PGA_1.c **** * the software package with which this file was provided.
  16:Generated_Source\PSoC5/PGA_1.c **** *******************************************************************************/
  17:Generated_Source\PSoC5/PGA_1.c **** 
  18:Generated_Source\PSoC5/PGA_1.c **** #include "PGA_1.h"
  19:Generated_Source\PSoC5/PGA_1.c **** 
  20:Generated_Source\PSoC5/PGA_1.c **** #if (!CY_PSOC5A)
  21:Generated_Source\PSoC5/PGA_1.c ****     #if (CYDEV_VARIABLE_VDDA == 1u)
  22:Generated_Source\PSoC5/PGA_1.c ****         #include "CyScBoostClk.h"
  23:Generated_Source\PSoC5/PGA_1.c ****     #endif /* (CYDEV_VARIABLE_VDDA == 1u) */
  24:Generated_Source\PSoC5/PGA_1.c **** #endif /* (!CY_PSOC5A) */
  25:Generated_Source\PSoC5/PGA_1.c **** 
  26:Generated_Source\PSoC5/PGA_1.c **** #if (CY_PSOC5A)
  27:Generated_Source\PSoC5/PGA_1.c ****     static PGA_1_BACKUP_STRUCT  PGA_1_P5backup;
  28:Generated_Source\PSoC5/PGA_1.c **** #endif /* (CY_ PSOC5A) */
  29:Generated_Source\PSoC5/PGA_1.c **** 
  30:Generated_Source\PSoC5/PGA_1.c **** uint8 PGA_1_initVar = 0u;
  31:Generated_Source\PSoC5/PGA_1.c **** 
  32:Generated_Source\PSoC5/PGA_1.c **** 
  33:Generated_Source\PSoC5/PGA_1.c **** /*******************************************************************************   
ARM GAS  C:\Users\Luggi\AppData\Local\Temp\ccqfLYdG.s 			page 26


  34:Generated_Source\PSoC5/PGA_1.c **** * Function Name: PGA_1_Init
  35:Generated_Source\PSoC5/PGA_1.c **** ********************************************************************************
  36:Generated_Source\PSoC5/PGA_1.c **** *
  37:Generated_Source\PSoC5/PGA_1.c **** * Summary:
  38:Generated_Source\PSoC5/PGA_1.c **** *  Initialize component's parameters to the parameters set by user in the 
  39:Generated_Source\PSoC5/PGA_1.c **** *  customizer of the component placed onto schematic. Usually called in 
  40:Generated_Source\PSoC5/PGA_1.c **** *  PGA_1_Start().
  41:Generated_Source\PSoC5/PGA_1.c **** *
  42:Generated_Source\PSoC5/PGA_1.c **** * Parameters:
  43:Generated_Source\PSoC5/PGA_1.c **** *  void
  44:Generated_Source\PSoC5/PGA_1.c **** *
  45:Generated_Source\PSoC5/PGA_1.c **** * Return:
  46:Generated_Source\PSoC5/PGA_1.c **** *  void
  47:Generated_Source\PSoC5/PGA_1.c **** *
  48:Generated_Source\PSoC5/PGA_1.c **** *******************************************************************************/
  49:Generated_Source\PSoC5/PGA_1.c **** void PGA_1_Init(void) 
  50:Generated_Source\PSoC5/PGA_1.c **** {
  51:Generated_Source\PSoC5/PGA_1.c ****     /* Set PGA mode */
  52:Generated_Source\PSoC5/PGA_1.c ****     PGA_1_CR0_REG = PGA_1_MODE_PGA;      
  53:Generated_Source\PSoC5/PGA_1.c ****     /* Set non-inverting PGA mode and reference mode */
  54:Generated_Source\PSoC5/PGA_1.c ****     PGA_1_CR1_REG |= PGA_1_PGA_NINV;  
  55:Generated_Source\PSoC5/PGA_1.c ****     /* Set default gain and ref mode */
  56:Generated_Source\PSoC5/PGA_1.c ****     PGA_1_CR2_REG = PGA_1_VREF_MODE;
  57:Generated_Source\PSoC5/PGA_1.c ****     /* Set gain and compensation */
  58:Generated_Source\PSoC5/PGA_1.c ****     PGA_1_SetGain(PGA_1_DEFAULT_GAIN);
  59:Generated_Source\PSoC5/PGA_1.c ****     /* Set power */
  60:Generated_Source\PSoC5/PGA_1.c ****     PGA_1_SetPower(PGA_1_DEFAULT_POWER);
  61:Generated_Source\PSoC5/PGA_1.c **** }
  62:Generated_Source\PSoC5/PGA_1.c **** 
  63:Generated_Source\PSoC5/PGA_1.c **** 
  64:Generated_Source\PSoC5/PGA_1.c **** /*******************************************************************************   
  65:Generated_Source\PSoC5/PGA_1.c **** * Function Name: PGA_1_Enable
  66:Generated_Source\PSoC5/PGA_1.c **** ********************************************************************************
  67:Generated_Source\PSoC5/PGA_1.c **** *
  68:Generated_Source\PSoC5/PGA_1.c **** * Summary:
  69:Generated_Source\PSoC5/PGA_1.c **** *  Enables the PGA block operation.
  70:Generated_Source\PSoC5/PGA_1.c **** *
  71:Generated_Source\PSoC5/PGA_1.c **** * Parameters:
  72:Generated_Source\PSoC5/PGA_1.c **** *  void
  73:Generated_Source\PSoC5/PGA_1.c **** *
  74:Generated_Source\PSoC5/PGA_1.c **** * Return:
  75:Generated_Source\PSoC5/PGA_1.c **** *  void
  76:Generated_Source\PSoC5/PGA_1.c **** *
  77:Generated_Source\PSoC5/PGA_1.c **** *******************************************************************************/
  78:Generated_Source\PSoC5/PGA_1.c **** void PGA_1_Enable(void) 
  79:Generated_Source\PSoC5/PGA_1.c **** {
 344              		.loc 1 79 0
 345              		.cfi_startproc
 346              		@ args = 0, pretend = 0, frame = 0
 347              		@ frame_needed = 0, uses_anonymous_args = 0
 348              		@ link register save eliminated.
  80:Generated_Source\PSoC5/PGA_1.c ****     /* This is to restore the value of register CR1 and CR2 which is saved 
  81:Generated_Source\PSoC5/PGA_1.c ****       in prior to the modifications in stop() API */
  82:Generated_Source\PSoC5/PGA_1.c ****     #if (CY_PSOC5A)
  83:Generated_Source\PSoC5/PGA_1.c ****         if(PGA_1_P5backup.enableState == 1u)
  84:Generated_Source\PSoC5/PGA_1.c ****         {
  85:Generated_Source\PSoC5/PGA_1.c ****             PGA_1_CR1_REG = PGA_1_P5backup.scCR1Reg;
ARM GAS  C:\Users\Luggi\AppData\Local\Temp\ccqfLYdG.s 			page 27


  86:Generated_Source\PSoC5/PGA_1.c ****             PGA_1_CR2_REG = PGA_1_P5backup.scCR2Reg;
  87:Generated_Source\PSoC5/PGA_1.c ****             PGA_1_P5backup.enableState = 0u;
  88:Generated_Source\PSoC5/PGA_1.c ****         }
  89:Generated_Source\PSoC5/PGA_1.c ****     #endif /* CY_PSOC5A */   
  90:Generated_Source\PSoC5/PGA_1.c **** 
  91:Generated_Source\PSoC5/PGA_1.c ****     /* Enable power to the Amp in Active mode*/
  92:Generated_Source\PSoC5/PGA_1.c ****     PGA_1_PM_ACT_CFG_REG |= PGA_1_ACT_PWR_EN;
 349              		.loc 1 92 0
 350 0000 084A     		ldr	r2, .L2
 351 0002 1378     		ldrb	r3, [r2]	@ zero_extendqisi2
 352 0004 43F00803 		orr	r3, r3, #8
 353 0008 1370     		strb	r3, [r2]
  93:Generated_Source\PSoC5/PGA_1.c **** 
  94:Generated_Source\PSoC5/PGA_1.c ****     /* Enable power to the Amp in Alternative Active mode*/
  95:Generated_Source\PSoC5/PGA_1.c ****     PGA_1_PM_STBY_CFG_REG |= PGA_1_STBY_PWR_EN;
 354              		.loc 1 95 0
 355 000a 1032     		adds	r2, r2, #16
 356 000c 1378     		ldrb	r3, [r2]	@ zero_extendqisi2
 357 000e 43F00803 		orr	r3, r3, #8
 358 0012 1370     		strb	r3, [r2]
  96:Generated_Source\PSoC5/PGA_1.c ****     
  97:Generated_Source\PSoC5/PGA_1.c ****     PGA_1_PUMP_CR1_REG |= PGA_1_PUMP_CR1_SC_CLKSEL;
 359              		.loc 1 97 0
 360 0014 02F5A552 		add	r2, r2, #5280
 361 0018 1E32     		adds	r2, r2, #30
 362 001a 1378     		ldrb	r3, [r2]	@ zero_extendqisi2
 363 001c 43F08003 		orr	r3, r3, #128
 364 0020 1370     		strb	r3, [r2]
 365 0022 7047     		bx	lr
 366              	.L3:
 367              		.align	2
 368              	.L2:
 369 0024 A9430040 		.word	1073759145
 370              		.cfi_endproc
 371              	.LFE1:
 372              		.size	PGA_1_Enable, .-PGA_1_Enable
 373              		.section	.text.PGA_1_Stop,"ax",%progbits
 374              		.align	2
 375              		.global	PGA_1_Stop
 376              		.thumb
 377              		.thumb_func
 378              		.type	PGA_1_Stop, %function
 379              	PGA_1_Stop:
 380              	.LFB3:
  98:Generated_Source\PSoC5/PGA_1.c ****     
  99:Generated_Source\PSoC5/PGA_1.c ****     #if (!CY_PSOC5A)
 100:Generated_Source\PSoC5/PGA_1.c ****         #if (CYDEV_VARIABLE_VDDA == 1u)
 101:Generated_Source\PSoC5/PGA_1.c ****             if(CyScPumpEnabled == 1u)
 102:Generated_Source\PSoC5/PGA_1.c ****             {
 103:Generated_Source\PSoC5/PGA_1.c ****                 PGA_1_BSTCLK_REG &= (uint8)(~PGA_1_BST_CLK_INDEX_MASK);
 104:Generated_Source\PSoC5/PGA_1.c ****                 PGA_1_BSTCLK_REG |= PGA_1_BST_CLK_EN | CyScBoostClk__INDEX;
 105:Generated_Source\PSoC5/PGA_1.c ****                 PGA_1_SC_MISC_REG |= PGA_1_PUMP_FORCE;
 106:Generated_Source\PSoC5/PGA_1.c ****                 CyScBoostClk_Start();
 107:Generated_Source\PSoC5/PGA_1.c ****             }
 108:Generated_Source\PSoC5/PGA_1.c ****             else
 109:Generated_Source\PSoC5/PGA_1.c ****             {
 110:Generated_Source\PSoC5/PGA_1.c ****                 PGA_1_BSTCLK_REG &= (uint8)(~PGA_1_BST_CLK_EN);
ARM GAS  C:\Users\Luggi\AppData\Local\Temp\ccqfLYdG.s 			page 28


 111:Generated_Source\PSoC5/PGA_1.c ****                 PGA_1_SC_MISC_REG &= (uint8)(~PGA_1_PUMP_FORCE);
 112:Generated_Source\PSoC5/PGA_1.c ****             }
 113:Generated_Source\PSoC5/PGA_1.c ****         #endif /* (CYDEV_VARIABLE_VDDA == 1u) */
 114:Generated_Source\PSoC5/PGA_1.c ****     #endif /* (!CY_PSOC5A) */
 115:Generated_Source\PSoC5/PGA_1.c **** }
 116:Generated_Source\PSoC5/PGA_1.c **** 
 117:Generated_Source\PSoC5/PGA_1.c **** 
 118:Generated_Source\PSoC5/PGA_1.c **** /*******************************************************************************
 119:Generated_Source\PSoC5/PGA_1.c **** * Function Name: PGA_1_Start
 120:Generated_Source\PSoC5/PGA_1.c **** ********************************************************************************
 121:Generated_Source\PSoC5/PGA_1.c **** *
 122:Generated_Source\PSoC5/PGA_1.c **** * Summary:
 123:Generated_Source\PSoC5/PGA_1.c **** *  The start function initializes the PGA with the default values and sets
 124:Generated_Source\PSoC5/PGA_1.c **** *  the power to the given level. A power level of 0, is same as executing
 125:Generated_Source\PSoC5/PGA_1.c **** *  the stop function.
 126:Generated_Source\PSoC5/PGA_1.c **** *
 127:Generated_Source\PSoC5/PGA_1.c **** * Parameters:
 128:Generated_Source\PSoC5/PGA_1.c **** *  void
 129:Generated_Source\PSoC5/PGA_1.c **** *
 130:Generated_Source\PSoC5/PGA_1.c **** * Return:
 131:Generated_Source\PSoC5/PGA_1.c **** *  void
 132:Generated_Source\PSoC5/PGA_1.c **** *
 133:Generated_Source\PSoC5/PGA_1.c **** *******************************************************************************/
 134:Generated_Source\PSoC5/PGA_1.c **** void PGA_1_Start(void) 
 135:Generated_Source\PSoC5/PGA_1.c **** {
 136:Generated_Source\PSoC5/PGA_1.c **** 
 137:Generated_Source\PSoC5/PGA_1.c ****     /* This is to restore the value of register CR1 and CR2 which is saved 
 138:Generated_Source\PSoC5/PGA_1.c ****       in prior to the modification in stop() API */
 139:Generated_Source\PSoC5/PGA_1.c **** 
 140:Generated_Source\PSoC5/PGA_1.c ****     if(PGA_1_initVar == 0u)
 141:Generated_Source\PSoC5/PGA_1.c ****     {
 142:Generated_Source\PSoC5/PGA_1.c ****         PGA_1_Init();
 143:Generated_Source\PSoC5/PGA_1.c ****         PGA_1_initVar = 1u;
 144:Generated_Source\PSoC5/PGA_1.c ****     }
 145:Generated_Source\PSoC5/PGA_1.c **** 
 146:Generated_Source\PSoC5/PGA_1.c ****     PGA_1_Enable();
 147:Generated_Source\PSoC5/PGA_1.c **** }
 148:Generated_Source\PSoC5/PGA_1.c **** 
 149:Generated_Source\PSoC5/PGA_1.c **** 
 150:Generated_Source\PSoC5/PGA_1.c **** /*******************************************************************************
 151:Generated_Source\PSoC5/PGA_1.c **** * Function Name: PGA_1_Stop
 152:Generated_Source\PSoC5/PGA_1.c **** ********************************************************************************
 153:Generated_Source\PSoC5/PGA_1.c **** *
 154:Generated_Source\PSoC5/PGA_1.c **** * Summary:
 155:Generated_Source\PSoC5/PGA_1.c **** *  Powers down amplifier to lowest power state.
 156:Generated_Source\PSoC5/PGA_1.c **** *
 157:Generated_Source\PSoC5/PGA_1.c **** * Parameters:
 158:Generated_Source\PSoC5/PGA_1.c **** *  void
 159:Generated_Source\PSoC5/PGA_1.c **** *
 160:Generated_Source\PSoC5/PGA_1.c **** * Return:
 161:Generated_Source\PSoC5/PGA_1.c **** *  void
 162:Generated_Source\PSoC5/PGA_1.c **** *
 163:Generated_Source\PSoC5/PGA_1.c **** *******************************************************************************/
 164:Generated_Source\PSoC5/PGA_1.c **** void PGA_1_Stop(void) 
 165:Generated_Source\PSoC5/PGA_1.c **** { 
 381              		.loc 1 165 0
 382              		.cfi_startproc
ARM GAS  C:\Users\Luggi\AppData\Local\Temp\ccqfLYdG.s 			page 29


 383              		@ args = 0, pretend = 0, frame = 0
 384              		@ frame_needed = 0, uses_anonymous_args = 0
 385              		@ link register save eliminated.
 166:Generated_Source\PSoC5/PGA_1.c ****     /* Disble power to the Amp in Active mode template */
 167:Generated_Source\PSoC5/PGA_1.c ****     PGA_1_PM_ACT_CFG_REG &= (uint8)(~PGA_1_ACT_PWR_EN);
 386              		.loc 1 167 0
 387 0000 054A     		ldr	r2, .L5
 388 0002 1378     		ldrb	r3, [r2]	@ zero_extendqisi2
 389 0004 03F0F703 		and	r3, r3, #247
 390 0008 1370     		strb	r3, [r2]
 168:Generated_Source\PSoC5/PGA_1.c **** 
 169:Generated_Source\PSoC5/PGA_1.c ****     /* Disble power to the Amp in Alternative Active mode template */
 170:Generated_Source\PSoC5/PGA_1.c ****     PGA_1_PM_STBY_CFG_REG &= (uint8)(~PGA_1_STBY_PWR_EN);
 391              		.loc 1 170 0
 392 000a 1032     		adds	r2, r2, #16
 393 000c 1378     		ldrb	r3, [r2]	@ zero_extendqisi2
 394 000e 03F0F703 		and	r3, r3, #247
 395 0012 1370     		strb	r3, [r2]
 396 0014 7047     		bx	lr
 397              	.L6:
 398 0016 00BF     		.align	2
 399              	.L5:
 400 0018 A9430040 		.word	1073759145
 401              		.cfi_endproc
 402              	.LFE3:
 403              		.size	PGA_1_Stop, .-PGA_1_Stop
 404              		.section	.text.PGA_1_SetPower,"ax",%progbits
 405              		.align	2
 406              		.global	PGA_1_SetPower
 407              		.thumb
 408              		.thumb_func
 409              		.type	PGA_1_SetPower, %function
 410              	PGA_1_SetPower:
 411              	.LFB4:
 171:Generated_Source\PSoC5/PGA_1.c **** 
 172:Generated_Source\PSoC5/PGA_1.c ****     #if (!CY_PSOC5A)
 173:Generated_Source\PSoC5/PGA_1.c ****         #if (CYDEV_VARIABLE_VDDA == 1u)
 174:Generated_Source\PSoC5/PGA_1.c ****             PGA_1_BSTCLK_REG &= (uint8)(~PGA_1_BST_CLK_EN);
 175:Generated_Source\PSoC5/PGA_1.c ****             /* Disable pumps only if there aren't any SC block in use */
 176:Generated_Source\PSoC5/PGA_1.c ****             if ((PGA_1_PM_ACT_CFG_REG & PGA_1_PM_ACT_CFG_MASK) == 0u)
 177:Generated_Source\PSoC5/PGA_1.c ****             {
 178:Generated_Source\PSoC5/PGA_1.c ****                 PGA_1_SC_MISC_REG &= (uint8)(~PGA_1_PUMP_FORCE);
 179:Generated_Source\PSoC5/PGA_1.c ****                 PGA_1_PUMP_CR1_REG &= (uint8)(~PGA_1_PUMP_CR1_SC_CLKSEL);
 180:Generated_Source\PSoC5/PGA_1.c ****                 CyScBoostClk_Stop();
 181:Generated_Source\PSoC5/PGA_1.c ****             }
 182:Generated_Source\PSoC5/PGA_1.c ****         #endif /* CYDEV_VARIABLE_VDDA == 1u */
 183:Generated_Source\PSoC5/PGA_1.c ****     #endif /* (CY_PSOC3 || CY_PSOC5LP) */
 184:Generated_Source\PSoC5/PGA_1.c **** 
 185:Generated_Source\PSoC5/PGA_1.c ****     /* This sets PGA in zero current mode and output routes are valid */
 186:Generated_Source\PSoC5/PGA_1.c ****     #if (CY_PSOC5A)
 187:Generated_Source\PSoC5/PGA_1.c ****         PGA_1_P5backup.scCR1Reg = PGA_1_CR1_REG;
 188:Generated_Source\PSoC5/PGA_1.c ****         PGA_1_P5backup.scCR2Reg = PGA_1_CR2_REG;
 189:Generated_Source\PSoC5/PGA_1.c ****         PGA_1_CR1_REG = 0x00u;
 190:Generated_Source\PSoC5/PGA_1.c ****         PGA_1_CR2_REG = 0x00u;
 191:Generated_Source\PSoC5/PGA_1.c ****         PGA_1_P5backup.enableState = 1u;
 192:Generated_Source\PSoC5/PGA_1.c ****     #endif /* CY_PSOC5A */
 193:Generated_Source\PSoC5/PGA_1.c **** }
ARM GAS  C:\Users\Luggi\AppData\Local\Temp\ccqfLYdG.s 			page 30


 194:Generated_Source\PSoC5/PGA_1.c **** 
 195:Generated_Source\PSoC5/PGA_1.c **** 
 196:Generated_Source\PSoC5/PGA_1.c **** /*******************************************************************************
 197:Generated_Source\PSoC5/PGA_1.c **** * Function Name: PGA_1_SetPower
 198:Generated_Source\PSoC5/PGA_1.c **** ********************************************************************************
 199:Generated_Source\PSoC5/PGA_1.c **** *
 200:Generated_Source\PSoC5/PGA_1.c **** * Summary:
 201:Generated_Source\PSoC5/PGA_1.c **** *  Set the power of the PGA.
 202:Generated_Source\PSoC5/PGA_1.c **** *
 203:Generated_Source\PSoC5/PGA_1.c **** * Parameters:
 204:Generated_Source\PSoC5/PGA_1.c **** *  power: Sets power level between (0) and (3) high power
 205:Generated_Source\PSoC5/PGA_1.c **** *
 206:Generated_Source\PSoC5/PGA_1.c **** * Return:
 207:Generated_Source\PSoC5/PGA_1.c **** *  void
 208:Generated_Source\PSoC5/PGA_1.c **** *
 209:Generated_Source\PSoC5/PGA_1.c **** *******************************************************************************/
 210:Generated_Source\PSoC5/PGA_1.c **** void PGA_1_SetPower(uint8 power) 
 211:Generated_Source\PSoC5/PGA_1.c **** {
 412              		.loc 1 211 0
 413              		.cfi_startproc
 414              		@ args = 0, pretend = 0, frame = 0
 415              		@ frame_needed = 0, uses_anonymous_args = 0
 416              		@ link register save eliminated.
 417              	.LVL0:
 212:Generated_Source\PSoC5/PGA_1.c ****     uint8 tmpCR;
 213:Generated_Source\PSoC5/PGA_1.c **** 
 214:Generated_Source\PSoC5/PGA_1.c ****     tmpCR = PGA_1_CR1_REG & (uint8)(~PGA_1_DRIVE_MASK);
 418              		.loc 1 214 0
 419 0000 044A     		ldr	r2, .L8
 420 0002 1378     		ldrb	r3, [r2]	@ zero_extendqisi2
 421 0004 03F0FC03 		and	r3, r3, #252
 422              	.LVL1:
 215:Generated_Source\PSoC5/PGA_1.c ****     tmpCR |= (power & PGA_1_DRIVE_MASK);
 423              		.loc 1 215 0
 424 0008 00F00300 		and	r0, r0, #3
 425              	.LVL2:
 426 000c 1843     		orrs	r0, r0, r3
 427              	.LVL3:
 216:Generated_Source\PSoC5/PGA_1.c ****     PGA_1_CR1_REG = tmpCR;  
 428              		.loc 1 216 0
 429 000e 1070     		strb	r0, [r2]
 430 0010 7047     		bx	lr
 431              	.L9:
 432 0012 00BF     		.align	2
 433              	.L8:
 434 0014 0D580040 		.word	1073764365
 435              		.cfi_endproc
 436              	.LFE4:
 437              		.size	PGA_1_SetPower, .-PGA_1_SetPower
 438              		.section	.text.PGA_1_SetGain,"ax",%progbits
 439              		.align	2
 440              		.global	PGA_1_SetGain
 441              		.thumb
 442              		.thumb_func
 443              		.type	PGA_1_SetGain, %function
 444              	PGA_1_SetGain:
 445              	.LFB5:
ARM GAS  C:\Users\Luggi\AppData\Local\Temp\ccqfLYdG.s 			page 31


 217:Generated_Source\PSoC5/PGA_1.c **** }
 218:Generated_Source\PSoC5/PGA_1.c **** 
 219:Generated_Source\PSoC5/PGA_1.c **** 
 220:Generated_Source\PSoC5/PGA_1.c **** /*******************************************************************************
 221:Generated_Source\PSoC5/PGA_1.c **** * Function Name: PGA_1_SetGain
 222:Generated_Source\PSoC5/PGA_1.c **** ********************************************************************************
 223:Generated_Source\PSoC5/PGA_1.c **** *
 224:Generated_Source\PSoC5/PGA_1.c **** * Summary:
 225:Generated_Source\PSoC5/PGA_1.c **** *  This function sets values of the input and feedback resistors to set a 
 226:Generated_Source\PSoC5/PGA_1.c **** *  specific gain of the amplifier.
 227:Generated_Source\PSoC5/PGA_1.c **** *
 228:Generated_Source\PSoC5/PGA_1.c **** * Parameters:
 229:Generated_Source\PSoC5/PGA_1.c **** *  gain: Gain value of PGA (See header file for gain values.)
 230:Generated_Source\PSoC5/PGA_1.c **** *
 231:Generated_Source\PSoC5/PGA_1.c **** * Return:
 232:Generated_Source\PSoC5/PGA_1.c **** *  void 
 233:Generated_Source\PSoC5/PGA_1.c **** *
 234:Generated_Source\PSoC5/PGA_1.c **** *******************************************************************************/
 235:Generated_Source\PSoC5/PGA_1.c **** void PGA_1_SetGain(uint8 gain) 
 236:Generated_Source\PSoC5/PGA_1.c **** {
 446              		.loc 1 236 0
 447              		.cfi_startproc
 448              		@ args = 0, pretend = 0, frame = 24
 449              		@ frame_needed = 0, uses_anonymous_args = 0
 450              		@ link register save eliminated.
 451              	.LVL4:
 452 0000 10B4     		push	{r4}
 453              		.cfi_def_cfa_offset 4
 454              		.cfi_offset 4, -4
 455 0002 87B0     		sub	sp, sp, #28
 456              		.cfi_def_cfa_offset 32
 457 0004 0446     		mov	r4, r0
 237:Generated_Source\PSoC5/PGA_1.c ****     /* Constant array for gain settings */
 238:Generated_Source\PSoC5/PGA_1.c ****     const uint8 PGA_1_GainArray[9] = { 
 458              		.loc 1 238 0
 459 0006 194B     		ldr	r3, .L13
 460 0008 03AA     		add	r2, sp, #12
 461 000a 1868     		ldr	r0, [r3]	@ unaligned
 462              	.LVL5:
 463 000c 5968     		ldr	r1, [r3, #4]	@ unaligned
 464 000e 03C2     		stmia	r2!, {r0, r1}
 465 0010 197A     		ldrb	r1, [r3, #8]	@ zero_extendqisi2
 466 0012 1170     		strb	r1, [r2]
 239:Generated_Source\PSoC5/PGA_1.c ****         (PGA_1_RVAL_0K   | PGA_1_R20_40B_40K | PGA_1_BIAS_LOW), /* G=1  */
 240:Generated_Source\PSoC5/PGA_1.c ****         (PGA_1_RVAL_40K  | PGA_1_R20_40B_40K | PGA_1_BIAS_LOW), /* G=2  */
 241:Generated_Source\PSoC5/PGA_1.c ****         (PGA_1_RVAL_120K | PGA_1_R20_40B_40K | PGA_1_BIAS_LOW), /* G=4  */
 242:Generated_Source\PSoC5/PGA_1.c ****         (PGA_1_RVAL_280K | PGA_1_R20_40B_40K | PGA_1_BIAS_LOW), /* G=8  */
 243:Generated_Source\PSoC5/PGA_1.c ****         (PGA_1_RVAL_600K | PGA_1_R20_40B_40K | PGA_1_BIAS_LOW), /* G=16 */
 244:Generated_Source\PSoC5/PGA_1.c ****         (PGA_1_RVAL_460K | PGA_1_R20_40B_40K | PGA_1_BIAS_LOW), /* G=24, Sets Rin as 20k */
 245:Generated_Source\PSoC5/PGA_1.c ****         (PGA_1_RVAL_620K | PGA_1_R20_40B_20K | PGA_1_BIAS_LOW), /* G=32 */
 246:Generated_Source\PSoC5/PGA_1.c ****         (PGA_1_RVAL_470K | PGA_1_R20_40B_20K | PGA_1_BIAS_LOW), /* G=48, Sets Rin as 10k */
 247:Generated_Source\PSoC5/PGA_1.c ****         (PGA_1_RVAL_490K | PGA_1_R20_40B_20K | PGA_1_BIAS_LOW)  /* G=50, Sets Rin as 10k */
 248:Generated_Source\PSoC5/PGA_1.c ****     };
 249:Generated_Source\PSoC5/PGA_1.c ****     
 250:Generated_Source\PSoC5/PGA_1.c ****     /* Constant array for gain compenstion settings */
 251:Generated_Source\PSoC5/PGA_1.c ****     const uint8 PGA_1_GainComp[9] = { 
 467              		.loc 1 251 0
ARM GAS  C:\Users\Luggi\AppData\Local\Temp\ccqfLYdG.s 			page 32


 468 0014 6A46     		mov	r2, sp
 469 0016 53F80C0F 		ldr	r0, [r3, #12]!	@ unaligned
 470 001a 5968     		ldr	r1, [r3, #4]	@ unaligned
 471 001c 03C2     		stmia	r2!, {r0, r1}
 472 001e 1B7A     		ldrb	r3, [r3, #8]	@ zero_extendqisi2
 473 0020 1370     		strb	r3, [r2]
 252:Generated_Source\PSoC5/PGA_1.c ****         ( PGA_1_COMP_4P35PF  | (uint8)( PGA_1_REDC_00 >> 2 )), /* G=1  */
 253:Generated_Source\PSoC5/PGA_1.c ****         ( PGA_1_COMP_4P35PF  | (uint8)( PGA_1_REDC_01 >> 2 )), /* G=2  */
 254:Generated_Source\PSoC5/PGA_1.c ****         ( PGA_1_COMP_3P0PF   | (uint8)( PGA_1_REDC_01 >> 2 )), /* G=4  */
 255:Generated_Source\PSoC5/PGA_1.c ****         ( PGA_1_COMP_3P0PF   | (uint8)( PGA_1_REDC_01 >> 2 )), /* G=8  */
 256:Generated_Source\PSoC5/PGA_1.c ****         ( PGA_1_COMP_3P6PF   | (uint8)( PGA_1_REDC_01 >> 2 )), /* G=16 */
 257:Generated_Source\PSoC5/PGA_1.c ****         ( PGA_1_COMP_3P6PF   | (uint8)( PGA_1_REDC_11 >> 2 )), /* G=24 */
 258:Generated_Source\PSoC5/PGA_1.c ****         ( PGA_1_COMP_3P6PF   | (uint8)( PGA_1_REDC_11 >> 2 )), /* G=32 */
 259:Generated_Source\PSoC5/PGA_1.c ****         ( PGA_1_COMP_3P6PF   | (uint8)( PGA_1_REDC_00 >> 2 )), /* G=48 */
 260:Generated_Source\PSoC5/PGA_1.c ****         ( PGA_1_COMP_3P6PF   | (uint8)( PGA_1_REDC_00 >> 2 ))  /* G=50 */
 261:Generated_Source\PSoC5/PGA_1.c ****     };
 262:Generated_Source\PSoC5/PGA_1.c ****     
 263:Generated_Source\PSoC5/PGA_1.c ****     /* Only set new gain if it is a valid gain */
 264:Generated_Source\PSoC5/PGA_1.c ****     if( gain <= PGA_1_GAIN_MAX)
 474              		.loc 1 264 0
 475 0022 082C     		cmp	r4, #8
 476 0024 1ED8     		bhi	.L10
 265:Generated_Source\PSoC5/PGA_1.c ****     {
 266:Generated_Source\PSoC5/PGA_1.c ****         /* Clear resistors, redc, and bias */
 267:Generated_Source\PSoC5/PGA_1.c ****         PGA_1_CR2_REG &= (uint8)(~(PGA_1_RVAL_MASK | PGA_1_R20_40B_MASK | 
 477              		.loc 1 267 0
 478 0026 1249     		ldr	r1, .L13+4
 479 0028 0B78     		ldrb	r3, [r1]	@ zero_extendqisi2
 480 002a 03F08003 		and	r3, r3, #128
 481 002e DBB2     		uxtb	r3, r3
 482 0030 0B70     		strb	r3, [r1]
 268:Generated_Source\PSoC5/PGA_1.c ****                                 PGA_1_REDC_MASK | PGA_1_BIAS_MASK ));
 269:Generated_Source\PSoC5/PGA_1.c **** 
 270:Generated_Source\PSoC5/PGA_1.c ****         /* Set gain value resistors, redc comp, and bias */
 271:Generated_Source\PSoC5/PGA_1.c ****         PGA_1_CR2_REG |= (PGA_1_GainArray[gain] |
 483              		.loc 1 271 0
 484 0032 0878     		ldrb	r0, [r1]	@ zero_extendqisi2
 485 0034 06AB     		add	r3, sp, #24
 486 0036 1C44     		add	r4, r4, r3
 487 0038 14F80C3C 		ldrb	r3, [r4, #-12]	@ zero_extendqisi2
 272:Generated_Source\PSoC5/PGA_1.c ****                                 ((uint8)(PGA_1_GainComp[gain] << 2 ) & PGA_1_REDC_MASK));
 488              		.loc 1 272 0
 489 003c 14F8182C 		ldrb	r2, [r4, #-24]	@ zero_extendqisi2
 490 0040 9200     		lsls	r2, r2, #2
 271:Generated_Source\PSoC5/PGA_1.c ****                                 ((uint8)(PGA_1_GainComp[gain] << 2 ) & PGA_1_REDC_MASK));
 491              		.loc 1 271 0
 492 0042 02F00C02 		and	r2, r2, #12
 493 0046 1343     		orrs	r3, r3, r2
 494 0048 0343     		orrs	r3, r3, r0
 495 004a 0B70     		strb	r3, [r1]
 273:Generated_Source\PSoC5/PGA_1.c **** 
 274:Generated_Source\PSoC5/PGA_1.c ****         /* Clear sc_comp  */
 275:Generated_Source\PSoC5/PGA_1.c ****         PGA_1_CR1_REG &= (uint8)(~PGA_1_COMP_MASK);
 496              		.loc 1 275 0
 497 004c 094A     		ldr	r2, .L13+8
 498 004e 1378     		ldrb	r3, [r2]	@ zero_extendqisi2
 499 0050 03F0F303 		and	r3, r3, #243
ARM GAS  C:\Users\Luggi\AppData\Local\Temp\ccqfLYdG.s 			page 33


 500 0054 1370     		strb	r3, [r2]
 276:Generated_Source\PSoC5/PGA_1.c ****         /* Set sc_comp  */
 277:Generated_Source\PSoC5/PGA_1.c ****         PGA_1_CR1_REG |= ( PGA_1_GainComp[gain] | PGA_1_COMP_MASK );
 501              		.loc 1 277 0
 502 0056 1178     		ldrb	r1, [r2]	@ zero_extendqisi2
 503 0058 14F8183C 		ldrb	r3, [r4, #-24]	@ zero_extendqisi2
 504 005c 0B43     		orrs	r3, r3, r1
 505 005e 43F00C03 		orr	r3, r3, #12
 506 0062 1370     		strb	r3, [r2]
 507              	.L10:
 278:Generated_Source\PSoC5/PGA_1.c ****     }
 279:Generated_Source\PSoC5/PGA_1.c **** }
 508              		.loc 1 279 0
 509 0064 07B0     		add	sp, sp, #28
 510              		.cfi_def_cfa_offset 4
 511              		@ sp needed
 512 0066 5DF8044B 		ldr	r4, [sp], #4
 513              		.cfi_restore 4
 514              		.cfi_def_cfa_offset 0
 515 006a 7047     		bx	lr
 516              	.L14:
 517              		.align	2
 518              	.L13:
 519 006c 00000000 		.word	.LANCHOR0
 520 0070 0E580040 		.word	1073764366
 521 0074 0D580040 		.word	1073764365
 522              		.cfi_endproc
 523              	.LFE5:
 524              		.size	PGA_1_SetGain, .-PGA_1_SetGain
 525              		.section	.text.PGA_1_Init,"ax",%progbits
 526              		.align	2
 527              		.global	PGA_1_Init
 528              		.thumb
 529              		.thumb_func
 530              		.type	PGA_1_Init, %function
 531              	PGA_1_Init:
 532              	.LFB0:
  50:Generated_Source\PSoC5/PGA_1.c ****     /* Set PGA mode */
 533              		.loc 1 50 0
 534              		.cfi_startproc
 535              		@ args = 0, pretend = 0, frame = 0
 536              		@ frame_needed = 0, uses_anonymous_args = 0
 537 0000 08B5     		push	{r3, lr}
 538              		.cfi_def_cfa_offset 8
 539              		.cfi_offset 3, -8
 540              		.cfi_offset 14, -4
  52:Generated_Source\PSoC5/PGA_1.c ****     /* Set non-inverting PGA mode and reference mode */
 541              		.loc 1 52 0
 542 0002 0C22     		movs	r2, #12
 543 0004 084B     		ldr	r3, .L17
 544 0006 1A70     		strb	r2, [r3]
  54:Generated_Source\PSoC5/PGA_1.c ****     /* Set default gain and ref mode */
 545              		.loc 1 54 0
 546 0008 084A     		ldr	r2, .L17+4
 547 000a 1378     		ldrb	r3, [r2]	@ zero_extendqisi2
 548 000c 43F02003 		orr	r3, r3, #32
 549 0010 1370     		strb	r3, [r2]
ARM GAS  C:\Users\Luggi\AppData\Local\Temp\ccqfLYdG.s 			page 34


  56:Generated_Source\PSoC5/PGA_1.c ****     /* Set gain and compensation */
 550              		.loc 1 56 0
 551 0012 8022     		movs	r2, #128
 552 0014 064B     		ldr	r3, .L17+8
 553 0016 1A70     		strb	r2, [r3]
  58:Generated_Source\PSoC5/PGA_1.c ****     /* Set power */
 554              		.loc 1 58 0
 555 0018 0020     		movs	r0, #0
 556 001a FFF7FEFF 		bl	PGA_1_SetGain
 557              	.LVL6:
  60:Generated_Source\PSoC5/PGA_1.c **** }
 558              		.loc 1 60 0
 559 001e 0320     		movs	r0, #3
 560 0020 FFF7FEFF 		bl	PGA_1_SetPower
 561              	.LVL7:
 562 0024 08BD     		pop	{r3, pc}
 563              	.L18:
 564 0026 00BF     		.align	2
 565              	.L17:
 566 0028 0C580040 		.word	1073764364
 567 002c 0D580040 		.word	1073764365
 568 0030 0E580040 		.word	1073764366
 569              		.cfi_endproc
 570              	.LFE0:
 571              		.size	PGA_1_Init, .-PGA_1_Init
 572              		.section	.text.PGA_1_Start,"ax",%progbits
 573              		.align	2
 574              		.global	PGA_1_Start
 575              		.thumb
 576              		.thumb_func
 577              		.type	PGA_1_Start, %function
 578              	PGA_1_Start:
 579              	.LFB2:
 135:Generated_Source\PSoC5/PGA_1.c **** 
 580              		.loc 1 135 0
 581              		.cfi_startproc
 582              		@ args = 0, pretend = 0, frame = 0
 583              		@ frame_needed = 0, uses_anonymous_args = 0
 584 0000 08B5     		push	{r3, lr}
 585              		.cfi_def_cfa_offset 8
 586              		.cfi_offset 3, -8
 587              		.cfi_offset 14, -4
 140:Generated_Source\PSoC5/PGA_1.c ****     {
 588              		.loc 1 140 0
 589 0002 054B     		ldr	r3, .L22
 590 0004 1B78     		ldrb	r3, [r3]	@ zero_extendqisi2
 591 0006 23B9     		cbnz	r3, .L20
 142:Generated_Source\PSoC5/PGA_1.c ****         PGA_1_initVar = 1u;
 592              		.loc 1 142 0
 593 0008 FFF7FEFF 		bl	PGA_1_Init
 594              	.LVL8:
 143:Generated_Source\PSoC5/PGA_1.c ****     }
 595              		.loc 1 143 0
 596 000c 0122     		movs	r2, #1
 597 000e 024B     		ldr	r3, .L22
 598 0010 1A70     		strb	r2, [r3]
 599              	.L20:
ARM GAS  C:\Users\Luggi\AppData\Local\Temp\ccqfLYdG.s 			page 35


 146:Generated_Source\PSoC5/PGA_1.c **** }
 600              		.loc 1 146 0
 601 0012 FFF7FEFF 		bl	PGA_1_Enable
 602              	.LVL9:
 603 0016 08BD     		pop	{r3, pc}
 604              	.L23:
 605              		.align	2
 606              	.L22:
 607 0018 00000000 		.word	.LANCHOR1
 608              		.cfi_endproc
 609              	.LFE2:
 610              		.size	PGA_1_Start, .-PGA_1_Start
 611              		.global	PGA_1_initVar
 612              		.section	.rodata
 613              		.align	2
 614              		.set	.LANCHOR0,. + 0
 615              	.LC0:
 616 0000 01       		.byte	1
 617 0001 11       		.byte	17
 618 0002 21       		.byte	33
 619 0003 31       		.byte	49
 620 0004 41       		.byte	65
 621 0005 61       		.byte	97
 622 0006 53       		.byte	83
 623 0007 63       		.byte	99
 624 0008 73       		.byte	115
 625 0009 000000   		.space	3
 626              	.LC1:
 627 000c 08       		.byte	8
 628 000d 09       		.byte	9
 629 000e 01       		.byte	1
 630 000f 01       		.byte	1
 631 0010 05       		.byte	5
 632 0011 07       		.byte	7
 633 0012 07       		.byte	7
 634 0013 04       		.byte	4
 635 0014 04       		.byte	4
 636 0015 000000   		.bss
 637              		.set	.LANCHOR1,. + 0
 638              		.type	PGA_1_initVar, %object
 639              		.size	PGA_1_initVar, 1
 640              	PGA_1_initVar:
 641 0000 00       		.space	1
 642              		.text
 643              	.Letext0:
 644              		.file 2 "Generated_Source\\PSoC5\\cytypes.h"