ARM GAS  C:\Users\Luggi\AppData\Local\Temp\ccP12E85.s 			page 1


   1              		.syntax unified
   2              		.cpu cortex-m3
   3              		.fpu softvfp
   4              		.eabi_attribute 20, 1
   5              		.eabi_attribute 21, 1
   6              		.eabi_attribute 23, 3
   7              		.eabi_attribute 24, 1
   8              		.eabi_attribute 25, 1
   9              		.eabi_attribute 26, 1
  10              		.eabi_attribute 30, 1
  11              		.eabi_attribute 34, 1
  12              		.eabi_attribute 18, 4
  13              		.thumb
  14              		.file	"PGA_2_PM.c"
  15              		.text
  16              	.Ltext0:
  17              		.section	.gnu.lto_.profile.d236ee3,"",%progbits
  18 0000 789C6366 		.ascii	"x\234cf```a\200\000F\006U~\000\000\315\000="
  18      60606061 
  18      80004606 
  18      557E0000 
  18      CD003D
  19              		.text
  20              		.section	.gnu.lto_.inline.d236ee3,"",%progbits
  21 0000 789C6366 		.ascii	"x\234cf\300\016\302\2404\013\003\0033\023#\003\023\220"
  21      C00EC2A0 
  21      340B0303 
  21      33132303 
  21      1390
  22 0012 C9B6401E 		.ascii	"\311\266@\036D10b\21001pq\002Ex\372\374\020\212\270"
  22      44313062 
  22      88303170 
  22      71024578 
  22      FAFC108A 
  23 0027 C09AD9D9 		.ascii	"\300\232\331\331\201\342l\037\364P\305\031\000\362\324"
  23      81E26C1F 
  23      F450C519 
  23      00F2D4
  24 0036 05DA     		.ascii	"\005\332"
  25              		.text
  26              		.section	.gnu.lto_.jmpfuncs.d236ee3,"",%progbits
  27 0000 789C6366 		.ascii	"x\234cf\300\016\004\2404\013\0203200A\231\014\000\002"
  27      C00E04A0 
  27      340B1033 
  27      32303041 
  27      990C0002 
  28 0014 B2001F   		.ascii	"\262\000\037"
  29              		.text
  30              		.section	.gnu.lto_.pureconst.d236ee3,"",%progbits
  31 0000 789C6366 		.ascii	"x\234cf``\340d\200\000\026\006\006F\006&)\026\011\000"
  31      6060E064 
  31      80001606 
  31      06460626 
  31      29160900 
  32 0014 018D004A 		.ascii	"\001\215\000J"
  33              		.text
  34              		.section	.gnu.lto_PGA_2_SaveConfig.d236ee3,"",%progbits
ARM GAS  C:\Users\Luggi\AppData\Local\Temp\ccP12E85.s 			page 2


  35 0000 789C6366 		.ascii	"x\234cf\300\004R@\\\012\304*@\314\310\314\300\3104\341"
  35      C0045240 
  35      5C0AC42A 
  35      40CCC8CC 
  35      C0C834E1 
  36 0014 1C034323 		.ascii	"\034\003C#\007\023##\210\301\300\310P\317\304X\317\370"
  36      07132323 
  36      88C1C0C8 
  36      50CFC458 
  36      CFF8
  37 0026 92E92313 		.ascii	"\222\351#\023\343\204\003\253gp\253/mhh\370p\351dc\300"
  37      E38403AB 
  37      6770AB2F 
  37      6D6868F8 
  37      70E96463 
  38 003b 01C69F4C 		.ascii	"\001\306\237L\014\014\237\231 \3460.gTg\000*\372\330"
  38      0C0C9F99 
  38      20E6302E 
  38      67546700 
  38      2AFAD8
  39 004e F2F73A37 		.ascii	"\362\367:7[\013P\221\000D\216q\005#\033#\220^/t\240"
  39      5B0B5091 
  39      00448E71 
  39      05231B23 
  39      905E2F74 
  40 0063 E1FFFFCD 		.ascii	"\341\377\377\315\313\017n`\004\012?\001b\220\005O\231"
  40      CB0F6E60 
  40      040A3F01 
  40      6290054F 
  40      99
  41 0074 984034F3 		.ascii	"\230@4\363=FF\220B\220IO\230\030AB@\005J\356\251y\251"
  41      3D464690 
  41      4290494F 
  41      98184142 
  41      40054AEE 
  42 008b 458925A9 		.ascii	"E\211%\251)\361\301\371\245E\311\2511\001\301\371\316"
  42      29F1C1F9 
  42      A545C9A9 
  42      3101C1F9 
  42      CE
  43 009c A63101EE 		.ascii	"\2461\001\356\216\361F\361\001\276z\311\014\000\365"
  43      8EF146F1 
  43      01BE7AC9 
  43      0C00F5
  44 00ab 7235A3   		.ascii	"r5\243"
  45              		.text
  46              		.section	.gnu.lto_PGA_2_RestoreConfig.d236ee3,"",%progbits
  47 0000 789C6366 		.ascii	"x\234cf\300\004R@\\\012\304*@\314\310\314\300\3104\341"
  47      C0045240 
  47      5C0AC42A 
  47      40CCC8CC 
  47      C0C834E1 
  48 0014 1C034323 		.ascii	"\034\003C#\007\023##\210\301\300\310P\317\304X\317\370"
  48      07132323 
  48      88C1C0C8 
  48      50CFC458 
  48      CFF8
ARM GAS  C:\Users\Luggi\AppData\Local\Temp\ccP12E85.s 			page 3


  49 0026 92E92313 		.ascii	"\222\351#\023\343\204\003\253gp\253/mhh\3700\351|c\300"
  49      E38403AB 
  49      6770AB2F 
  49      6D6868F8 
  49      30E97C63 
  50 003b 01C69F4C 		.ascii	"\001\306\237L\014\014\237\231 \3460.gTg\000*\372\330"
  50      0C0C9F99 
  50      20E6302E 
  50      67546700 
  50      2AFAD8
  51 004e F2F73A37 		.ascii	"\362\367:7[\013P\221\000D\216q\005#\033#\220^/t\240"
  51      5B0B5091 
  51      00448E71 
  51      05231B23 
  51      905E2F74 
  52 0063 E1FFFFCD 		.ascii	"\341\377\377\315{\017\376`\004\012?\001b\220\005O\231"
  52      7B0FFE60 
  52      040A3F01 
  52      6290054F 
  52      99
  53 0074 984034F3 		.ascii	"\230@4\363=FF\220B\220IO\230\030AB@\005J\356\251y\251"
  53      3D464690 
  53      4290494F 
  53      98184142 
  53      40054AEE 
  54 008b 458925A9 		.ascii	"E\211%\251)\361\301\371\245E\311\2511\001\301\371\316"
  54      29F1C1F9 
  54      A545C9A9 
  54      3101C1F9 
  54      CE
  55 009c A63101EE 		.ascii	"\2461\001\356\216\361F\361\001\276z\311\014\000\362"
  55      8EF146F1 
  55      01BE7AC9 
  55      0C00F2
  56 00ab D435C7   		.ascii	"\3245\307"
  57              		.text
  58              		.section	.gnu.lto_PGA_2_Sleep.d236ee3,"",%progbits
  59 0000 789C8591 		.ascii	"x\234\205\221MHTQ\024\307\317\377\274\017_i9\264\022"
  59      4D485451 
  59      14C7CFFF 
  59      BC0F5F69 
  59      39B412
  60 0013 172D2270 		.ascii	"\027-\"p5-\006Z\316\"Z\314*\030p\323B\030\302f\233 "
  60      352D065A 
  60      CE225ACC 
  60      2A1870D3 
  60      4218C266 
  61 0029 B51CBCAF 		.ascii	"\265\034\274\257y\225D\224\256F\324\011\0122m\374j\312"
  61      79954494 
  61      AE46D409 
  61      0A326DFC 
  61      6ACA
  62 003b 0ADC3C5A 		.ascii	"\012\334<ZT\253b\010\211Lr\2430mdt\372z\204\331\271"
  62      54AB6208 
  62      894C72A3 
  62      306D6474 
  62      FA7A84D9 
ARM GAS  C:\Users\Luggi\AppData\Local\Temp\ccP12E85.s 			page 4


  63 0050 F7558641 		.ascii	"\367U\206A=\270\357\336{\356\377\374\317\357\236k\321"
  63      3DB8EFDE 
  63      7BEEFFFC 
  63      CFEF9E6B 
  63      D1
  64 0061 DF5F5AC6 		.ascii	"\337_Z\306i&:*3\\\002\017\275$\362=f\253\224 \265\337"
  64      69263A2A 
  64      335C020F 
  64      BD24F23D 
  64      66AB9420 
  65 0077 8ED2A4DA 		.ascii	"\216\322\244\332,8q\330\376\265p\000\275 \320\000[\266"
  65      2C3871D8 
  65      FEB57000 
  65      BD20D000 
  65      5BB6
  66 0089 83017CE0 		.ascii	"\203\001|\340M\306PX\031i\355\272\243\224j\334^\350"
  66      4DC65058 
  66      1969EDBA 
  66      A3946ADC 
  66      5EE8
  67 009b B8D41189 		.ascii	"\270\324\021\211s\223\343J\270\213.\022\315f\260\375"
  67      7393E34A 
  67      B88B2E12 
  67      CD66B0FD 
  68 00ab A6D50D44 		.ascii	"\246\325\015D\223\210\3170\011\0272\317\035\012\325"
  68      9388CF30 
  68      091732CF 
  68      1D0AD5
  69 00ba CE4E7369 		.ascii	"\316Nsi\270\236\202\307\0241l\375#Z\023\225\256\266"
  69      B89E82C7 
  69      14316CFD 
  69      235A1395 
  69      AEB6
  70 00cc CEAC676B 		.ascii	"\316\254gk\031O?_\335\030M\351\304/l\213\347\273\231"
  70      194F3F5F 
  70      DD184DE9 
  70      C42F6C8B 
  70      E7BB99
  71 00df C51707EB 		.ascii	"\305\027\007\353\0341O]\361\225\255\313\254\256\275"
  71      1C314F5D 
  71      F195ADCB 
  71      ACAEBD
  72 00ee AA792644 		.ascii	"\252y&Dz;R{2x\240\2141?@\304\026\246\320\211{\350\224"
  72      7A3B527B 
  72      3278A08C 
  72      313F40C4 
  72      16A6D089 
  73 0105 E2159441 		.ascii	"\342\025\224A\313(~\275\374\321\212\0159\366|^\256W"
  73      CB287EBD 
  73      FCD18A0D 
  73      39F67C5E 
  73      AE57
  74 0117 6D6D0010 		.ascii	"mm\000\020\246E\273\204\340m\361\360O\215\010\374\211"
  74      A645BB84 
  74      E06DF1F0 
  74      4F8D08FC 
  74      89
ARM GAS  C:\Users\Luggi\AppData\Local\Temp\ccP12E85.s 			page 5


  75 0128 C56B2D46 		.ascii	"\305k-F 63\332\2144\243E\245\204 ^l\314\257\334\332"
  75      203633DA 
  75      8C34A345 
  75      A584205E 
  75      6CCCAFDC 
  76 013d A7D522BD 		.ascii	"\247\325\"\275\371\372\372,\027\276\251A\345Elo\353"
  76      F9FAFA2C 
  76      17BEA941 
  76      E5456C6F 
  76      EB
  77 014e 5BFF8968 		.ascii	"[\377\211h\233\355\244\037\214C#*\255r0\213\002\346"
  77      9BEDA41F 
  77      8C43232A 
  77      AD72308B 
  77      02E6
  78 0160 B4AD9C7D 		.ascii	"\264\255\234}\237\276Qu\223\025iZ\230\214\330\305\274"
  78      9FBE5175 
  78      9315695A 
  78      988CD8C5 
  78      BC
  79 0171 08B74C63 		.ascii	"\010\267Lcq\037I\021\324F'\212\355\332KZ\211\252d\255"
  79      711F4911 
  79      D446278A 
  79      EDDA4B5A 
  79      89AA64AD 
  80 0185 A0187E7A 		.ascii	"\240\030~z\326\246\001h/AK\3230?@A\032\354\031jiu\332"
  80      D6A60168 
  80      2F414BD3 
  80      303F4041 
  80      1AEC196A 
  81 019c 503756FF 		.ascii	"P7V\377C\275\027\363\341?0\027v1\037\031\314\337Wv%"
  81      43BD17F3 
  81      E13F3017 
  81      76311F19 
  81      CCDF5776 
  82 01b1 F4D8F46C 		.ascii	"\364\330\364l\235\035\363\252\357\341\207\245\214\341"
  82      9D1DF3AA 
  82      EFE187A5 
  82      8CE1
  83 01bf 25FDE6D0 		.ascii	"%\375\346\320Q\311=\222\311\237\313\367\2379\237?\233"
  83      51C93D92 
  83      C99FCBF7 
  83      9F399F3F 
  83      9B
  84 01d0 EBEEBBD0 		.ascii	"\353\356\273\320\337\233\357\311v\367\235<\336\223\315"
  84      DF9BEFC9 
  84      76F79D3C 
  84      DE93CD
  85 01df 9CC8A572 		.ascii	"\234\310\245r\331S\307z\351\007\352*\344o"
  85      D953C77A 
  85      E907EA2A 
  85      E46F
  86              		.text
  87              		.section	.gnu.lto_PGA_2_Wakeup.d236ee3,"",%progbits
  88 0000 789C654F 		.ascii	"x\234eO1HBQ\024\275\347\276\257H\012F\22344H\340\020"
  88      31484251 
  88      14BDE7BE 
ARM GAS  C:\Users\Luggi\AppData\Local\Temp\ccP12E85.s 			page 6


  88      AF480A46 
  88      93343448 
  89 0016 3614AD41 		.ascii	"6\024\255A4\010E \270\012\022\346\232 5\212\3172h*\015"
  89      34084520 
  89      B80A12E6 
  89      9A20358A 
  89      CF32682A 
  90 002b 82A06C8B 		.ascii	"\202\240l\213,\315\310\2405[,\034\212\210(\"j1\260-"
  90      2CCDC8A0 
  90      355B2C1C 
  90      8A882822 
  90      6A31B02D 
  91 003f 6B0809B3 		.ascii	"k\010\011\263\367\276CP\017\036\367\275s\3179\367\036"
  91      F7BE4350 
  91      0F1EF7BD 
  91      73CF39F7 
  91      1E
  92 0050 41FFCFB0 		.ascii	"A\377\317\260\272\223 \352W\025\026\002\247/\211\222"
  92      BA9320EA 
  92      57151602 
  92      A72F8992 
  93 0060 36665171 		.ascii	"6fQq\222\3542\252\243$\035\002F\0076\000\375 P\202\205"
  93      92EC32AA 
  93      A3241D02 
  93      46073600 
  93      FD205082 
  94 0075 81045EB9 		.ascii	"\201\004^\271\301H\227\363\033v\317\216\224\362m\355"
  94      C14897F3 
  94      1B76CF8E 
  94      94F26DED 
  95 0085 D4B5E46A 		.ascii	"\324\265\344j2\321\007w\374\261\013\017)N#\325\272\263"
  95      32D10777 
  95      FCB10B0F 
  95      294E23D5 
  95      BAB3
  96 0097 5B538AD3 		.ascii	"[S\212\323\335\351!\007\253\232K\207=e\331n\037\267"
  96      DDE92107 
  96      AB9A4B87 
  96      3D65D96E 
  96      1FB7
  97 00a9 32176EB6 		.ascii	"2\027n\266\010j\262\002k\212\240\347\2740\353*\036\260"
  97      086AB202 
  97      6B8AA0E7 
  97      BC30EB2A 
  97      1EB0
  98 00bb 7072D43E 		.ascii	"pr\324>\263h\315'\013e\267}\263R\344\370\227\\\226\266"
  98      B368CD27 
  98      0B65B77D 
  98      B352E4F8 
  98      975C96B6 
  99 00cf 26734B1B 		.ascii	"&sK\033*\364\271vum\253\263B\314o.\231\332B\026\233"
  99      2AF4B976 
  99      756DABB3 
  99      42CC6F2E 
  99      99DA4216 
 100 00e4 49A95902 		.ascii	"I\251Y\002{\210c\037\275f\357\273\260Z\262z\007\232"
 100      7B88631F 
ARM GAS  C:\Users\Luggi\AppData\Local\Temp\ccP12E85.s 			page 7


 100      BD66EFBB 
 100      B05AB27A 
 100      079A
 101 00f6 6C20AF38 		.ascii	"l \2578\357\346\272(\300K\267H\335/\366\375\216:\317"
 101      EFE6BA28 
 101      C04BB748 
 101      DD2FF6FD 
 101      8E3ACF
 102 0109 D64B8636 		.ascii	"\326K\2066\005\010\007ZNz3A\025\247x\304b9Suh2\375\335"
 102      0508075A 
 102      4E7A3341 
 102      15A778C4 
 102      62395375 
 103 0121 CAF2A1A3 		.ascii	"\312\362\241\243\240\210\270\012e55\206\231\346\011"
 103      A088B80A 
 103      65353586 
 103      99E609
 104 0130 C9F2FA84 		.ascii	"\311\362\372\204\251!\235\025\032U\363\335\276\310l"
 104      A9219D15 
 104      1A55F3DD 
 104      BEC86C
 105 013f 24363D17 		.ascii	"$6=\027\231\011\005\242\363\261p$\350\017D\307G\202"
 105      990905A2 
 105      F3B17024 
 105      E80F44C7 
 105      4782
 106 0151 7EDF5868 		.ascii	"~\337Xh(\344\237\032\014\323\017\327t\201\203"
 106      28E49F1A 
 106      0CD30FD7 
 106      748183
 107              		.text
 108              		.section	.gnu.lto_.symbol_nodes.d236ee3,"",%progbits
 109 0000 789C55C8 		.ascii	"x\234U\310\261\015\2000\014\005\321\213\035G\014\221"
 109      B10D8030 
 109      0C05D18B 
 109      1D470C91 
 110 0010 35A97F46 		.ascii	"5\251\177F\240\242N\301\030\314\300\024\254\201\004"
 110      A0A24EC1 
 110      18CCC014 
 110      AC8104
 111 001f 1214E1BA 		.ascii	"\022\024\341\272w\016\314|Y\022,\007H\254}\302L\351"
 111      770ECC7C 
 111      59122C07 
 111      48AC7DC2 
 111      4CE9
 112 0031 67978D0E 		.ascii	"g\227\215\016\350&\267,\037w\012\345\327\264\366\260"
 112      E826B72C 
 112      1F770AE5 
 112      D7B4F6B0 
 113 0041 2806BA05 		.ascii	"(\006\272\005\333U=\027\316\275r\003\266N\034\214"
 113      DB553D17 
 113      CEBD7203 
 113      B64E1C8C 
 114              		.text
 115              		.section	.gnu.lto_.refs.d236ee3,"",%progbits
 116 0000 789C6366 		.ascii	"x\234cf``\340c\200\000&&Ff\026Ff6F\026\006fF\006\000"
 116      6060E063 
ARM GAS  C:\Users\Luggi\AppData\Local\Temp\ccP12E85.s 			page 8


 116      80002626 
 116      46661646 
 116      66364616 
 117 0019 02970031 		.ascii	"\002\227\0001"
 118              		.text
 119              		.section	.gnu.lto_.decls.d236ee3,"",%progbits
 120 0000 789C8D54 		.ascii	"x\234\215ToL[U\024\177\247\267\224\362Z:\022\022\266"
 120      6F4C5B55 
 120      147FA7B7 
 120      94F25A3A 
 120      1212B6
 121 0013 F48BD825 		.ascii	"\364\213\330%D\015Y\024c\262/Ffc0Y4\025F\374\340\014"
 121      440D5914 
 121      63B22F46 
 121      66633059 
 121      341546FC 
 122 0029 E9EA13E7 		.ascii	"\351\352\023\347\026\332@1\331\267\013\335\306D\324"
 122      16DA4031 
 122      D9B70BDD 
 122      C644D4
 123 0038 895B60FB 		.ascii	"\211[`\373\260<\306\324\321A)\177\225V\245\014\330\200"
 123      B03CC6D4 
 123      D141297F 
 123      9556A50C 
 123      D880
 124 004a B28D0199 		.ascii	"\262\215\001\231\260?\01611\210\301\3250\347\210%\365"
 124      B03F0E31 
 124      3188C1D5 
 124      30E78825 
 124      F5
 125 005b BCFBDE5B 		.ascii	"\274\373\336[\337\226\262y\223\323w\316\273\277\337"
 125      DF96B279 
 125      93D377CE 
 125      BBBFDF
 126 006a EF9C73EF 		.ascii	"\357\234s\357y%\034\307=\017\034\227\300\365U\032\307"
 126      79251CC7 
 126      3D0F1C97 
 126      C0F5551A 
 126      C7
 127 007b E5A08F0F 		.ascii	"\345\240\217\017\316\301%\227\001\255\035-\200\026D"
 127      CEC12597 
 127      01AD1D2D 
 127      801644
 128 008a EB46EB45 		.ascii	"\353F\353E\353GC87\311=\274\332\225\367\252\006(\357"
 128      EB474338 
 128      37C93DBC 
 128      DA95F7AA 
 128      0628EF
 129 009d 1E5D8114 		.ascii	"\036]\201\024\270@\012\234\2243C\301\345\240]E\273\202"
 129      B8400A9C 
 129      943343C1 
 129      E5A05D45 
 129      BB82
 130 00af 368D3681 		.ascii	"6\2156\201\026F\233AkS4F\321t\012\257w\203\032\245\036"
 130      16469B41 
 130      6B533446 
 130      D1740AAF 
ARM GAS  C:\Users\Luggi\AppData\Local\Temp\ccP12E85.s 			page 9


 130      77831AA5 
 131 00c4 D2359A4F 		.ascii	"\3225\232O\322\352~L\277\177\351` p\367\222iI\007\026"
 131      D2EA7E4C 
 131      BF7FE960 
 131      2070F792 
 131      69490716 
 132 00d8 3E570A43 		.ascii	">W\012C\215c\315\006\014\315\274^\012\303\377.\316\352"
 132      8D63CD06 
 132      0CCDBC5E 
 132      0AC3FF2E 
 132      CEEA
 133 00ea 371FA7B8 		.ascii	"7\037\247\270\216\372h\226\036\0349\360\015X\341,XQ"
 133      8EFA6896 
 133      1E1C39F0 
 133      0D58E12C 
 133      5851
 134 00fc B10D36E3 		.ascii	"\261\0156\343\357;zY)\3360p\323Bt \371\255\315\277\314"
 134      EF3B7A59 
 134      29DE3070 
 134      D3427420 
 134      F9ADCDBF 
 135 0111 F2F97EA4 		.ascii	"\362\371~\244\035\241\2219]2]\313\304H?\344\236\242"
 135      1DA19139 
 135      5D325DCB 
 135      C4483FE4 
 135      9EA2
 136 0123 B1602C74 		.ascii	"\261`,tr\336L\307h$\221x\205I\201\037\010\234\203|v"
 136      72DE4CC7 
 136      68249178 
 136      8549811F 
 136      089C837C 
 137 0138 A0E8CB27 		.ascii	"\240\350\313'\333\016\271H\373\370F\344\030O^f\332\361"
 137      DB0EB948 
 137      FBF846E4 
 137      184F5E66 
 137      DAF1
 138 014a C0F09F26 		.ascii	"\300\360\237&&!\256u\323\302\2034\236H\020&\320\241"
 138      2621AE75 
 138      D3C28334 
 138      9E481026 
 138      D0A1
 139 015c 11E85005 		.ascii	"\021\350P\005\002L\240'\330\262N\310[L`x\261\353\254"
 139      024CA027 
 139      D8B24EC8 
 139      5B4C6078 
 139      B1EBAC
 140 016f 1905C4A0 		.ascii	"\031\005\304\240\350o5\310\0250~\247\206\337\251\362"
 140      E86F35C8 
 140      15307EA7 
 140      86DFA9F2 
 141 017f 838C1FBE 		.ascii	"\203\214\037\276\357k\263\220w\031\277\363\346\271\203"
 141      EF6BB390 
 141      7719BFF3 
 141      E6B983
 142 018e 9B64FEDA 		.ascii	"\233d\376\332C\374.\015\277K\345w3\376\321\323#M\204"
 142      43FC2E0D 
 142      BF4BE577 
ARM GAS  C:\Users\Luggi\AppData\Local\Temp\ccP12E85.s 			page 10


 142      33FED1D3 
 142      234D84
 143 01a1 7CC8F8EB 		.ascii	"|\310\370\353\267\376\216K\015,\320\340\312\257\267"
 143      B7FE8E4B 
 143      0D2CD0E0 
 143      CAAFB7
 144 01b0 CDA2F60C 		.ascii	"\315\242\366\014z4\022=\252D/\223\250\351\355\372-\223"
 144      7A34123D 
 144      AA442F93 
 144      A8E9EDFA 
 144      2D93
 145 01c2 1C07A6D1 		.ascii	"\034\007\246\321u\376\313\006\003\323\020?o=\234\253"
 145      75FECB06 
 145      03D3103F 
 145      6F3D9CAB 
 146 01d2 29A24FA3 		.ascii	")\242O\243\320\247*\3643\205\241\303w~J'\247e\205k\203"
 146      D0A72AF4 
 146      3385A1C3 
 146      777E4A27 
 146      A765856B 
 147 01e7 757546D2 		.ascii	"uuF\322/\0075_\207\033\322\361\332sxvK\237EO\016\021"
 147      2F07355F 
 147      871BD2F1 
 147      DA737876 
 147      4B9F454F 
 148 01fd 1626A46D 		.ascii	"\026&\244m\335\374\374\2615\002|\336\021Jki\254\221"
 148      DDFCFCB1 
 148      35027CDE 
 148      114A6B69 
 148      AC91
 149 020f 922D1CE4 		.ascii	"\222-\034\344[\341Y+\007\337C\036\302XF\030\300\311"
 149      5BE1592B 
 149      07DF431E 
 149      C2584618 
 149      C0C9
 150 0221 08E1649C 		.ascii	"\010\341d\234\301{\217\305G\375;}\264\020\302\300\303"
 150      C17B8FC5 
 150      47FD3B7D 
 150      B410C2C0 
 150      C3
 151 0232 770F6A62 		.ascii	"w\017jb\031\224Y\030\014\3144\033\311\317r\005\253\211"
 151      19945918 
 151      0CCC341B 
 151      C9CF7205 
 151      AB89
 152 0244 5353842C 		.ascii	"SS\204,\313\301R\307\\(\223\254\312At\361\376\252\231"
 152      CBC152C7 
 152      5C2893AC 
 152      CA4174F1 
 152      FEAA99
 153 0257 4D689614 		.ascii	"Mh\226\024\326\366\213\355i$.\357\235\370g\362\302&"
 153      D6F68BED 
 153      69242EEF 
 153      9DF867F2 
 153      C226
 154 0269 B6B70543 		.ascii	"\266\267\005C\303R\323\204\337\000\266l\233\315\226"
 154      C352D384 
ARM GAS  C:\Users\Luggi\AppData\Local\Temp\ccP12E85.s 			page 11


 154      DF00B66C 
 154      9BCD96
 155 0278 2762ADB1 		.ascii	"'b\255\261\025\337uK\023]\210\000+\343G,c\004\262\325"
 155      15DF754B 
 155      135D8800 
 155      2BE3472C 
 155      6304B2D5 
 156 028c D29F9166 		.ascii	"\322\237\221f8\037\177\270/\330\200\213X-\247\031o\011"
 156      381F7FB8 
 156      2FD8808B 
 156      582DA719 
 156      6F09
 157 029e 8A55C318 		.ascii	"\212U\303\030\2668\0126\030F\273\200v\021l\254\005)"
 157      B6380A36 
 157      1846BB80 
 157      76116CAC 
 157      0529
 158 02b0 83783B40 		.ascii	"\203x;@\013k\010\223\377!\205\374sV\025\370{\0228\230"
 158      0B6B0893 
 158      FF2185FC 
 158      735615F8 
 158      7B123898 
 159 02c4 02188107 		.ascii	"\002\030\201\007\310\345$r(\005\362<CJg\274p\253\300"
 159      C8E52472 
 159      2805F23C 
 159      434A67BC 
 159      70ABC0
 160 02d7 286D73EA 		.ascii	"(ms\352\205\253G\253\253\353\033\2372A^6C\375\301\003"
 160      85AB47AB 
 160      ABEB1B9F 
 160      32415E36 
 160      43FDC103 
 161 02eb 4CA0C8B7 		.ascii	"L\240\310\267\311[\220Hl\245\352\034\306\261\341'5\217"
 161      C95B9048 
 161      6CA5EA1C 
 161      C6B1E127 
 161      358F
 162 02fd 87BF72FD 		.ascii	"\207\277r\375\316\252\205\034\222\277\370\213\237\256"
 162      CEAA851C 
 162      92BFF88B 
 162      9FAE
 163 030b 37F35B5B 		.ascii	"7\363[[(\025c\241\271\273PC\305ZJ\245\231d\251\243r"
 163      281563A1 
 163      B9BB5043 
 163      C55A4AA5 
 163      9964A9A3 
 164 0320 6ACDE146 		.ascii	"j\315\341F\345\321\204I\330\212l\332\364\311\031#i\224"
 164      E5D18449 
 164      D88A6CDA 
 164      F4C91923 
 164      6994
 165 0332 A5FAEED5 		.ascii	"\245\372\356\325\017d\3628k\276\3771k\330\354\354\345"
 165      0F64F238 
 165      6BBEFF31 
 165      6BD8ECEC 
 165      E5
 166 0343 FA6B19F2 		.ascii	"\372k\031\362t>\312\230\332p:\017\015\232\307)5\302"
ARM GAS  C:\Users\Luggi\AppData\Local\Temp\ccP12E85.s 			page 12


 166      743ECA98 
 166      DA703A0F 
 166      0D9AC729 
 166      35C2
 167 0355 153CE54B 		.ascii	"\025<\345K\311\203\271\014\311\371\234\215\326\336 "
 167      C983B90C 
 167      C9F99C8D 
 167      D6DE20
 168 0364 E67A69E6 		.ascii	"\346zi\346\361\317/\343u\206Mvp\025\314\254\003|\"x"
 168      F1CF2FE3 
 168      75864D76 
 168      7015CCAC 
 168      037C2278 
 169 0378 391039A1 		.ascii	"9\0209\241\323\202\245\266\223\340i\005<\315\300\235"
 169      D382A5B6 
 169      93E06905 
 169      3CCDC09D 
 170 0388 F7A6FC26 		.ascii	"\367\246\374&-X\372p\223\340\0310\253\365\240\313e9"
 170      2D58FA70 
 170      93E01930 
 170      ABF5A0CB 
 170      6539
 171 039a 8A769415 		.ascii	"\212v\224\025\224\2258?\022\354\356\212\367\367\226"
 171      9495383F 
 171      12ECEE8A 
 171      F7F796
 172 03a9 1B8ADE2C 		.ascii	"\033\212\336,\315\265s\266\"\241B\250tz\205\367\312"
 172      CDB573B6 
 172      22A142A8 
 172      747A85F7 
 172      CA
 173 03ba 4ADCD595 		.ascii	"J\334\325\225.a\267\243\304m\177i\267\014w\274\261\315"
 173      2E61B7A3 
 173      C46D7F69 
 173      B70C77BC 
 173      B1CD
 174 03cc C565CB7E 		.ascii	"\305e\313~\261P\345uW*l\223\"\267_\020<f\331\177\333"
 174      B150E575 
 174      572A6C93 
 174      22B75F10 
 174      3C66D97F 
 175 03e1 B94FA8F6 		.ascii	"\271O\250\366\360\312\206\327\355y\352q\322\333>\340"
 175      F0CA86D7 
 175      ED79EA71 
 175      D2DB3EE0 
 176 03f1 14DE6B15 		.ascii	"\024\336k\025\316=\373\005%\311\253;\354;K\035e%\273"
 176      CE3DFB05 
 176      25C9AB3B 
 176      EC3B4B1D 
 176      6525BB
 177 0404 8A4BEDBB 		.ascii	"\212K\355\273\322\252\367Vx\267?\275\201\214\353\200"
 177      D2AAF756 
 177      78B73FBD 
 177      818CEB80 
 178 0414 F78047A8 		.ascii	"\367\200G\250B!\223\300$J\274\0102V\271\354\305/\024"
 178      422193C0 
 178      244ABC08 
ARM GAS  C:\Users\Luggi\AppData\Local\Temp\ccP12E85.s 			page 13


 178      3256B9EC 
 178      C52F14
 179 0427 0BE5CC29 		.ascii	"\013\345\314)P\235\027\321Q\362\355q\272\366U{\364\225"
 179      509D17D1 
 179      51F2ED71 
 179      BAF6557B 
 179      F495
 180 0439 42F9F6FF 		.ascii	"B\371\366\377\000&\221$\247"
 180      00269124 
 180      A7
 181              		.text
 182              		.section	.gnu.lto_.symtab.d236ee3,"",%progbits
 183 0000 5047415F 		.ascii	"PGA_2_SaveConfig\000\000\000\000\000\000\000\000\000"
 183      325F5361 
 183      7665436F 
 183      6E666967 
 183      00000000 
 184 0019 000000AC 		.ascii	"\000\000\000\254\000\000\000PGA_2_RestoreConfig\000"
 184      00000050 
 184      47415F32 
 184      5F526573 
 184      746F7265 
 185 0034 00000000 		.ascii	"\000\000\000\000\000\000\000\000\000\000\000\256\000"
 185      00000000 
 185      000000AE 
 185      00
 186 0041 00005047 		.ascii	"\000\000PGA_2_Sleep\000\000\000\000\000\000\000\000"
 186      415F325F 
 186      536C6565 
 186      70000000 
 186      00000000 
 187 0056 00000000 		.ascii	"\000\000\000\000\260\000\000\000PGA_2_Wakeup\000\000"
 187      B0000000 
 187      5047415F 
 187      325F5761 
 187      6B657570 
 188 006c 00000000 		.ascii	"\000\000\000\000\000\000\000\000\000\000\262\000\000"
 188      00000000 
 188      0000B200 
 188      00
 189 0079 00504741 		.ascii	"\000PGA_2_Stop\000\000\002\000\000\000\000\000\000\000"
 189      5F325F53 
 189      746F7000 
 189      00020000 
 189      00000000 
 190 008e 0000B400 		.ascii	"\000\000\264\000\000\000PGA_2_Enable\000\000\002\000"
 190      00005047 
 190      415F325F 
 190      456E6162 
 190      6C650000 
 191 00a4 00000000 		.ascii	"\000\000\000\000\000\000\000\000\266\000\000\000"
 191      00000000 
 191      B6000000 
 192              		.text
 193              		.section	.gnu.lto_.opts,"",%progbits
 194 0000 272D666E 		.ascii	"'-fno-trapv' '-fno-strict-overflow' '-mcpu=cortex-m"
 194      6F2D7472 
ARM GAS  C:\Users\Luggi\AppData\Local\Temp\ccP12E85.s 			page 14


 194      61707627 
 194      20272D66 
 194      6E6F2D73 
 195 0033 33272027 		.ascii	"3' '-mthumb' '-g' '-Og' '-ffunction-sections' '-flt"
 195      2D6D7468 
 195      756D6227 
 195      20272D67 
 195      2720272D 
 196 0066 6F272027 		.ascii	"o' '-ffat-lto-objects'\000"
 196      2D666661 
 196      742D6C74 
 196      6F2D6F62 
 196      6A656374 
 197              		.text
 198              		.cfi_sections	.debug_frame
 199              		.section	.text.PGA_2_SaveConfig,"ax",%progbits
 200              		.align	2
 201              		.global	PGA_2_SaveConfig
 202              		.thumb
 203              		.thumb_func
 204              		.type	PGA_2_SaveConfig, %function
 205              	PGA_2_SaveConfig:
 206              	.LFB0:
 207              		.file 1 "Generated_Source\\PSoC5\\PGA_2_PM.c"
   1:Generated_Source\PSoC5/PGA_2_PM.c **** /*******************************************************************************
   2:Generated_Source\PSoC5/PGA_2_PM.c **** * File Name: PGA_2_PM.c  
   3:Generated_Source\PSoC5/PGA_2_PM.c **** * Version 2.0
   4:Generated_Source\PSoC5/PGA_2_PM.c **** *
   5:Generated_Source\PSoC5/PGA_2_PM.c **** * Description:
   6:Generated_Source\PSoC5/PGA_2_PM.c **** *  This file provides the power manager source code to the API for PGA 
   7:Generated_Source\PSoC5/PGA_2_PM.c **** *  Component.
   8:Generated_Source\PSoC5/PGA_2_PM.c **** *
   9:Generated_Source\PSoC5/PGA_2_PM.c **** * Note:
  10:Generated_Source\PSoC5/PGA_2_PM.c **** *
  11:Generated_Source\PSoC5/PGA_2_PM.c **** ********************************************************************************
  12:Generated_Source\PSoC5/PGA_2_PM.c **** * Copyright 2008-2012, Cypress Semiconductor Corporation.  All rights reserved.
  13:Generated_Source\PSoC5/PGA_2_PM.c **** * You may use this file only in accordance with the license, terms, conditions, 
  14:Generated_Source\PSoC5/PGA_2_PM.c **** * disclaimers, and limitations in the end user license agreement accompanying 
  15:Generated_Source\PSoC5/PGA_2_PM.c **** * the software package with which this file was provided.
  16:Generated_Source\PSoC5/PGA_2_PM.c **** *******************************************************************************/
  17:Generated_Source\PSoC5/PGA_2_PM.c **** 
  18:Generated_Source\PSoC5/PGA_2_PM.c **** #include "PGA_2.h"
  19:Generated_Source\PSoC5/PGA_2_PM.c **** 
  20:Generated_Source\PSoC5/PGA_2_PM.c **** static PGA_2_BACKUP_STRUCT  PGA_2_backup;
  21:Generated_Source\PSoC5/PGA_2_PM.c **** 
  22:Generated_Source\PSoC5/PGA_2_PM.c **** 
  23:Generated_Source\PSoC5/PGA_2_PM.c **** /*******************************************************************************
  24:Generated_Source\PSoC5/PGA_2_PM.c **** * Function Name: PGA_2_SaveConfig
  25:Generated_Source\PSoC5/PGA_2_PM.c **** ********************************************************************************
  26:Generated_Source\PSoC5/PGA_2_PM.c **** *
  27:Generated_Source\PSoC5/PGA_2_PM.c **** * Summary:
  28:Generated_Source\PSoC5/PGA_2_PM.c **** *  Save the current user register configuration.
  29:Generated_Source\PSoC5/PGA_2_PM.c **** *
  30:Generated_Source\PSoC5/PGA_2_PM.c **** * Parameters:
  31:Generated_Source\PSoC5/PGA_2_PM.c **** *  void
  32:Generated_Source\PSoC5/PGA_2_PM.c **** *
  33:Generated_Source\PSoC5/PGA_2_PM.c **** * Return:
ARM GAS  C:\Users\Luggi\AppData\Local\Temp\ccP12E85.s 			page 15


  34:Generated_Source\PSoC5/PGA_2_PM.c **** *  void
  35:Generated_Source\PSoC5/PGA_2_PM.c **** *
  36:Generated_Source\PSoC5/PGA_2_PM.c **** *******************************************************************************/
  37:Generated_Source\PSoC5/PGA_2_PM.c **** void PGA_2_SaveConfig(void) 
  38:Generated_Source\PSoC5/PGA_2_PM.c **** {
 208              		.loc 1 38 0
 209              		.cfi_startproc
 210              		@ args = 0, pretend = 0, frame = 0
 211              		@ frame_needed = 0, uses_anonymous_args = 0
 212              		@ link register save eliminated.
 213 0000 7047     		bx	lr
 214              		.cfi_endproc
 215              	.LFE0:
 216              		.size	PGA_2_SaveConfig, .-PGA_2_SaveConfig
 217 0002 00BF     		.section	.text.PGA_2_RestoreConfig,"ax",%progbits
 218              		.align	2
 219              		.global	PGA_2_RestoreConfig
 220              		.thumb
 221              		.thumb_func
 222              		.type	PGA_2_RestoreConfig, %function
 223              	PGA_2_RestoreConfig:
 224              	.LFB1:
  39:Generated_Source\PSoC5/PGA_2_PM.c ****     /* Nothing to save as registers are System reset on retention flops */
  40:Generated_Source\PSoC5/PGA_2_PM.c **** }
  41:Generated_Source\PSoC5/PGA_2_PM.c **** 
  42:Generated_Source\PSoC5/PGA_2_PM.c **** 
  43:Generated_Source\PSoC5/PGA_2_PM.c **** /*******************************************************************************  
  44:Generated_Source\PSoC5/PGA_2_PM.c **** * Function Name: PGA_2_RestoreConfig
  45:Generated_Source\PSoC5/PGA_2_PM.c **** ********************************************************************************
  46:Generated_Source\PSoC5/PGA_2_PM.c **** *
  47:Generated_Source\PSoC5/PGA_2_PM.c **** * Summary:
  48:Generated_Source\PSoC5/PGA_2_PM.c **** *  Restore the register configurations.
  49:Generated_Source\PSoC5/PGA_2_PM.c **** *
  50:Generated_Source\PSoC5/PGA_2_PM.c **** * Parameters:
  51:Generated_Source\PSoC5/PGA_2_PM.c **** *  void
  52:Generated_Source\PSoC5/PGA_2_PM.c **** *
  53:Generated_Source\PSoC5/PGA_2_PM.c **** * Return:
  54:Generated_Source\PSoC5/PGA_2_PM.c **** *  void
  55:Generated_Source\PSoC5/PGA_2_PM.c **** *
  56:Generated_Source\PSoC5/PGA_2_PM.c **** *******************************************************************************/
  57:Generated_Source\PSoC5/PGA_2_PM.c **** void PGA_2_RestoreConfig(void) 
  58:Generated_Source\PSoC5/PGA_2_PM.c **** {
 225              		.loc 1 58 0
 226              		.cfi_startproc
 227              		@ args = 0, pretend = 0, frame = 0
 228              		@ frame_needed = 0, uses_anonymous_args = 0
 229              		@ link register save eliminated.
 230 0000 7047     		bx	lr
 231              		.cfi_endproc
 232              	.LFE1:
 233              		.size	PGA_2_RestoreConfig, .-PGA_2_RestoreConfig
 234 0002 00BF     		.section	.text.PGA_2_Sleep,"ax",%progbits
 235              		.align	2
 236              		.global	PGA_2_Sleep
 237              		.thumb
 238              		.thumb_func
 239              		.type	PGA_2_Sleep, %function
ARM GAS  C:\Users\Luggi\AppData\Local\Temp\ccP12E85.s 			page 16


 240              	PGA_2_Sleep:
 241              	.LFB2:
  59:Generated_Source\PSoC5/PGA_2_PM.c ****     /* Nothing to restore */
  60:Generated_Source\PSoC5/PGA_2_PM.c **** }
  61:Generated_Source\PSoC5/PGA_2_PM.c **** 
  62:Generated_Source\PSoC5/PGA_2_PM.c **** 
  63:Generated_Source\PSoC5/PGA_2_PM.c **** /*******************************************************************************   
  64:Generated_Source\PSoC5/PGA_2_PM.c **** * Function Name: PGA_2_Sleep
  65:Generated_Source\PSoC5/PGA_2_PM.c **** ********************************************************************************
  66:Generated_Source\PSoC5/PGA_2_PM.c **** *
  67:Generated_Source\PSoC5/PGA_2_PM.c **** * Summary:
  68:Generated_Source\PSoC5/PGA_2_PM.c **** *  Disables block's operation and saves its configuration. Should be called 
  69:Generated_Source\PSoC5/PGA_2_PM.c **** *  just prior to entering sleep.
  70:Generated_Source\PSoC5/PGA_2_PM.c **** *
  71:Generated_Source\PSoC5/PGA_2_PM.c **** * Parameters:
  72:Generated_Source\PSoC5/PGA_2_PM.c **** *  None
  73:Generated_Source\PSoC5/PGA_2_PM.c **** *
  74:Generated_Source\PSoC5/PGA_2_PM.c **** * Return:
  75:Generated_Source\PSoC5/PGA_2_PM.c **** *  None
  76:Generated_Source\PSoC5/PGA_2_PM.c **** *
  77:Generated_Source\PSoC5/PGA_2_PM.c **** * Global variables:
  78:Generated_Source\PSoC5/PGA_2_PM.c **** *  PGA_2_backup: The structure field 'enableState' is modified 
  79:Generated_Source\PSoC5/PGA_2_PM.c **** *  depending on the enable state of the block before entering to sleep mode.
  80:Generated_Source\PSoC5/PGA_2_PM.c **** *
  81:Generated_Source\PSoC5/PGA_2_PM.c **** *******************************************************************************/
  82:Generated_Source\PSoC5/PGA_2_PM.c **** void PGA_2_Sleep(void) 
  83:Generated_Source\PSoC5/PGA_2_PM.c **** {
 242              		.loc 1 83 0
 243              		.cfi_startproc
 244              		@ args = 0, pretend = 0, frame = 0
 245              		@ frame_needed = 0, uses_anonymous_args = 0
 246              		.loc 1 83 0
 247 0000 08B5     		push	{r3, lr}
 248              		.cfi_def_cfa_offset 8
 249              		.cfi_offset 3, -8
 250              		.cfi_offset 14, -4
  84:Generated_Source\PSoC5/PGA_2_PM.c ****     /* Save PGA enable state */
  85:Generated_Source\PSoC5/PGA_2_PM.c ****     if((PGA_2_PM_ACT_CFG_REG & PGA_2_ACT_PWR_EN) != 0u)
 251              		.loc 1 85 0
 252 0002 074B     		ldr	r3, .L7
 253 0004 1B78     		ldrb	r3, [r3]	@ zero_extendqisi2
 254 0006 13F0010F 		tst	r3, #1
 255 000a 05D0     		beq	.L4
  86:Generated_Source\PSoC5/PGA_2_PM.c ****     {
  87:Generated_Source\PSoC5/PGA_2_PM.c ****         /* Component is enabled */
  88:Generated_Source\PSoC5/PGA_2_PM.c ****         PGA_2_backup.enableState = 1u;
 256              		.loc 1 88 0
 257 000c 0122     		movs	r2, #1
 258 000e 054B     		ldr	r3, .L7+4
 259 0010 1A70     		strb	r2, [r3]
  89:Generated_Source\PSoC5/PGA_2_PM.c ****         /* Stop the configuration */
  90:Generated_Source\PSoC5/PGA_2_PM.c ****         PGA_2_Stop();
 260              		.loc 1 90 0
 261 0012 FFF7FEFF 		bl	PGA_2_Stop
 262              	.LVL0:
 263 0016 08BD     		pop	{r3, pc}
 264              	.L4:
ARM GAS  C:\Users\Luggi\AppData\Local\Temp\ccP12E85.s 			page 17


  91:Generated_Source\PSoC5/PGA_2_PM.c ****     }
  92:Generated_Source\PSoC5/PGA_2_PM.c ****     else
  93:Generated_Source\PSoC5/PGA_2_PM.c ****     {
  94:Generated_Source\PSoC5/PGA_2_PM.c ****         /* Component is disabled */
  95:Generated_Source\PSoC5/PGA_2_PM.c ****         PGA_2_backup.enableState = 0u;
 265              		.loc 1 95 0
 266 0018 0022     		movs	r2, #0
 267 001a 024B     		ldr	r3, .L7+4
 268 001c 1A70     		strb	r2, [r3]
 269 001e 08BD     		pop	{r3, pc}
 270              	.L8:
 271              		.align	2
 272              	.L7:
 273 0020 A9430040 		.word	1073759145
 274 0024 00000000 		.word	.LANCHOR0
 275              		.cfi_endproc
 276              	.LFE2:
 277              		.size	PGA_2_Sleep, .-PGA_2_Sleep
 278              		.section	.text.PGA_2_Wakeup,"ax",%progbits
 279              		.align	2
 280              		.global	PGA_2_Wakeup
 281              		.thumb
 282              		.thumb_func
 283              		.type	PGA_2_Wakeup, %function
 284              	PGA_2_Wakeup:
 285              	.LFB3:
  96:Generated_Source\PSoC5/PGA_2_PM.c ****     }
  97:Generated_Source\PSoC5/PGA_2_PM.c ****     /* Save the configuration */
  98:Generated_Source\PSoC5/PGA_2_PM.c ****     PGA_2_SaveConfig();
  99:Generated_Source\PSoC5/PGA_2_PM.c **** }
 100:Generated_Source\PSoC5/PGA_2_PM.c **** 
 101:Generated_Source\PSoC5/PGA_2_PM.c **** 
 102:Generated_Source\PSoC5/PGA_2_PM.c **** /*******************************************************************************
 103:Generated_Source\PSoC5/PGA_2_PM.c **** * Function Name: PGA_2_Wakeup
 104:Generated_Source\PSoC5/PGA_2_PM.c **** ********************************************************************************
 105:Generated_Source\PSoC5/PGA_2_PM.c **** *
 106:Generated_Source\PSoC5/PGA_2_PM.c **** * Summary:
 107:Generated_Source\PSoC5/PGA_2_PM.c **** *  Enables block's operation and restores its configuration. Should be called
 108:Generated_Source\PSoC5/PGA_2_PM.c **** *  just after awaking from sleep.
 109:Generated_Source\PSoC5/PGA_2_PM.c **** *
 110:Generated_Source\PSoC5/PGA_2_PM.c **** * Parameters:
 111:Generated_Source\PSoC5/PGA_2_PM.c **** *  None
 112:Generated_Source\PSoC5/PGA_2_PM.c **** *
 113:Generated_Source\PSoC5/PGA_2_PM.c **** * Return:
 114:Generated_Source\PSoC5/PGA_2_PM.c **** *  void
 115:Generated_Source\PSoC5/PGA_2_PM.c **** *
 116:Generated_Source\PSoC5/PGA_2_PM.c **** * Global variables:
 117:Generated_Source\PSoC5/PGA_2_PM.c **** *  PGA_2_backup: The structure field 'enableState' is used to 
 118:Generated_Source\PSoC5/PGA_2_PM.c **** *  restore the enable state of block after wakeup from sleep mode.
 119:Generated_Source\PSoC5/PGA_2_PM.c **** * 
 120:Generated_Source\PSoC5/PGA_2_PM.c **** *******************************************************************************/
 121:Generated_Source\PSoC5/PGA_2_PM.c **** void PGA_2_Wakeup(void) 
 122:Generated_Source\PSoC5/PGA_2_PM.c **** {
 286              		.loc 1 122 0
 287              		.cfi_startproc
 288              		@ args = 0, pretend = 0, frame = 0
 289              		@ frame_needed = 0, uses_anonymous_args = 0
ARM GAS  C:\Users\Luggi\AppData\Local\Temp\ccP12E85.s 			page 18


 290 0000 08B5     		push	{r3, lr}
 291              		.cfi_def_cfa_offset 8
 292              		.cfi_offset 3, -8
 293              		.cfi_offset 14, -4
 123:Generated_Source\PSoC5/PGA_2_PM.c ****     /* Restore the configurations */
 124:Generated_Source\PSoC5/PGA_2_PM.c ****     PGA_2_RestoreConfig();
 125:Generated_Source\PSoC5/PGA_2_PM.c ****      /* Enables the component operation */
 126:Generated_Source\PSoC5/PGA_2_PM.c ****     if(PGA_2_backup.enableState == 1u)
 294              		.loc 1 126 0
 295 0002 034B     		ldr	r3, .L12
 296 0004 1B78     		ldrb	r3, [r3]	@ zero_extendqisi2
 297 0006 012B     		cmp	r3, #1
 298 0008 01D1     		bne	.L9
 127:Generated_Source\PSoC5/PGA_2_PM.c ****     {
 128:Generated_Source\PSoC5/PGA_2_PM.c ****         PGA_2_Enable();
 299              		.loc 1 128 0
 300 000a FFF7FEFF 		bl	PGA_2_Enable
 301              	.LVL1:
 302              	.L9:
 303 000e 08BD     		pop	{r3, pc}
 304              	.L13:
 305              		.align	2
 306              	.L12:
 307 0010 00000000 		.word	.LANCHOR0
 308              		.cfi_endproc
 309              	.LFE3:
 310              		.size	PGA_2_Wakeup, .-PGA_2_Wakeup
 311              		.bss
 312              		.align	2
 313              		.set	.LANCHOR0,. + 0
 314              		.type	PGA_2_backup, %object
 315              		.size	PGA_2_backup, 4
 316              	PGA_2_backup:
 317 0000 00000000 		.space	4
 318              		.text
 319              	.Letext0:
 320              		.file 2 "Generated_Source\\PSoC5\\cytypes.h"
 321              		.file 3 "Generated_Source\\PSoC5\\PGA_2.h"