ARM GAS  C:\Users\Luggi\AppData\Local\Temp\ccLAgZ30.s 			page 1


   1              		.syntax unified
   2              		.cpu cortex-m3
   3              		.fpu softvfp
   4              		.eabi_attribute 20, 1
   5              		.eabi_attribute 21, 1
   6              		.eabi_attribute 23, 3
   7              		.eabi_attribute 24, 1
   8              		.eabi_attribute 25, 1
   9              		.eabi_attribute 26, 1
  10              		.eabi_attribute 30, 1
  11              		.eabi_attribute 34, 1
  12              		.eabi_attribute 18, 4
  13              		.thumb
  14              		.file	"pid.c"
  15              		.text
  16              	.Ltext0:
  17              		.section	.gnu.lto_.profile.fc9f464d,"",%progbits
  18 0000 789C6366 		.ascii	"x\234cf```a\200\000F\006\037m\000\0017\000\200"
  18      60606061 
  18      80004606 
  18      1F6D0001 
  18      370080
  19              		.text
  20              		.section	.gnu.lto_.inline.fc9f464d,"",%progbits
  21 0000 789C6D50 		.ascii	"x\234mP1\016\3020\014<;i+\240*\025 ul\007Ff&\206\276"
  21      310EC230 
  21      0C3C3B69 
  21      2BA02A15 
  21      20756C07 
  22 0019 A01B3B4F 		.ascii	"\240\033;O\351\230\201\241\017`\3103\030\341\007\214"
  22      E99881A1 
  22      0F60C833 
  22      18E1078C 
  23 0029 3C812730 		.ascii	"<\201'0\022\333\035I\244\273\363\345\024;q\370\2776"
  23      12DB1D49 
  23      A4BBF3E5 
  23      143B71F8 
  23      BF36
  24 003b 64EC803C 		.ascii	"d\354\200<#\260\2737X\274\217,\036\241\310\310qJ\020"
  24      23B0BB37 
  24      58BC8F2C 
  24      1EA1C8C8 
  24      714A10
  25 004e 69099F28 		.ascii	"i\011\237(\217-\303\307\266\204\017\333\235\344\030"
  25      8F2DC3C7 
  25      B6840FDB 
  25      9DE418
  26 005d FB276829 		.ascii	"\373'h)!\266\240\273\010t\002\221\004\325\034U\366n"
  26      21B6A0BB 
  26      08740291 
  26      04D51C55 
  26      F66E
  27 006f CE3CA859 		.ascii	"\316<\250Y}\317\326\215_\353\022\364)jV\024\350Tvrt"
  27      7DCFD68D 
  27      5FEB12F4 
  27      296A5614 
  27      E8547672 
ARM GAS  C:\Users\Luggi\AppData\Local\Temp\ccLAgZ30.s 			page 2


  28 0084 103849D9 		.ascii	"\0208I\3313\322\204\275\310\221\330H\206\271\222j6K"
  28      33D284BD 
  28      C891D848 
  28      86B9926A 
  28      364B
  29 0096 EF0BA6FD 		.ascii	"\357\013\246\375L\222\01298\336(TjY\257\261\226'dU\372"
  29      4C920A39 
  29      38DE2854 
  29      6A59AFB1 
  29      96276455 
  30 00ab 826990ED 		.ascii	"\202i\220\355\223A\323\200\037a\360)r"
  30      9341D380 
  30      1F61F029 
  30      72
  31              		.text
  32              		.section	.gnu.lto_.jmpfuncs.fc9f464d,"",%progbits
  33 0000 789C6366 		.ascii	"x\234cf\300\016\264\24143\003\023##s}=#3###{}}=\023"
  33      C00EB4A1 
  33      34330313 
  33      2323737D 
  33      3D233323 
  34 001b 0B90C1C8 		.ascii	"\013\220\301\310\017d\3253C\2240\002\361\001F.\006\000"
  34      0F64D533 
  34      43943002 
  34      F101462E 
  34      0600
  35 002d 831305A6 		.ascii	"\203\023\005\246"
  36              		.text
  37              		.section	.gnu.lto_.pureconst.fc9f464d,"",%progbits
  38 0000 789C6366 		.ascii	"x\234cf```g\200\000f\006)F\006&)\000\001n\000E"
  38      60606067 
  38      80006606 
  38      29460626 
  38      2900016E 
  39              		.text
  40              		.section	.gnu.lto_pid_init.fc9f464d,"",%progbits
  41 0000 789C9590 		.ascii	"x\234\225\220\273J\003A\024\206\347?\273Y\023\202D\355"
  41      BB4A0341 
  41      1486E73F 
  41      BB591382 
  41      44ED
  42 0012 4C651382 		.ascii	"Le\023\202J|\206\024>@^A\264\2612H\254\235H\036@\024"
  42      4A7C8614 
  42      3E405E41 
  42      B4B13248 
  42      AC9D481E 
  43 0028 34A8C142 		.ascii	"4\250\301B\304[\314\315\033\332\270\012\202x%6\242\205"
  43      C45BCCCD 
  43      1BDAB80A 
  43      82782536 
  43      A285
  44 003a 2244D042 		.ascii	"\"D\320BH\214\020\267\320xfWA\264\321\205\341\314\231"
  44      488C10B7 
  44      D0786657 
  44      41B4D185 
  44      E1CC99
  45 004d FDFFEF5C 		.ascii	"\375\377\357\\4\361\373\363\363q\223\023\241\011\320"
ARM GAS  C:\Users\Luggi\AppData\Local\Temp\ccLAgZ30.s 			page 3


  45      34F1FBF3 
  45      F3719313 
  45      A109D0
  46 005c E8991071 		.ascii	"\350\231\020q7\001\352\" \206\011\303x\244\012a\324"
  46      3701EA22 
  46      208609C3 
  46      78A40A61 
  46      D4
  47 006d 5C497A83 		.ascii	"\\Iz\203\363R\312\362\376A<b\302b_\225\034\016\026\020"
  47      F352CAF2 
  47      FE413C62 
  47      C2625F95 
  47      1C0E1610 
  48 0081 64CDC9D4 		.ascii	"d\315\311\324E\263\346\201\340\353v\346\345\324\373"
  48      45B3E681 
  48      E0EB76E6 
  48      E5D4FB
  49 0090 4016A14D 		.ascii	"@\026\241M\245;c\207IC\245\244\253\364h7\275\325\030"
  49      A53B6387 
  49      4943A5A4 
  49      ABF46837 
  49      BDD518
  50 00a3 989372C4 		.ascii	"\230\223r\304L\027dX\267H\303\"4\306a\011~,\303/\370"
  50      4C176458 
  50      B748C322 
  50      34C66109 
  50      7E2CC32F 
  51 00b8 49600501 		.ascii	"I`\005\001V\337\275/\205\265f\033[,\245\217}\216\361"
  51      56DFBD2F 
  51      85B5661B 
  51      5B2CA58F 
  51      7D8EF1
  52 00cb D631EA48 		.ascii	"\3261\352H\3774\352\002\253\010(y%\361v\3515\022\334"
  52      FF34EA02 
  52      AB082879 
  52      25F176E9 
  52      3512DC
  53 00de 7493D32B 		.ascii	"t\223\323+20\3001\333b\312z\275:\2617\330\300\303r\031"
  53      3230C031 
  53      DB62CA7A 
  53      BD3AB137 
  53      D8C0C372 
  54 00f3 176C8F28 		.ascii	"\027l\217(\261J\315~O\244\242v\215\221rn\262]\371\230"
  54      B14ACD7E 
  54      4FA4A276 
  54      8D91726E 
  54      B25DF998 
  55 0107 775B3A2F 		.ascii	"w[:/\272\325\030\232P\370\215\327\331\247\306\024\246"
  55      BAD5189A 
  55      50F88DD7 
  55      D9A7C614 
  55      A6
  56 0118 E3529AAD 		.ascii	"\343R\232\255\026\271jD\310r\013\352\337\314\313\370"
  56      16B96A44 
  56      C8720BEA 
  56      DFCCCBF8 
  57 0128 952FD469 		.ascii	"\225/\324i\221\201\034Rx\2667\205<B\3371\006?\025\330"
ARM GAS  C:\Users\Luggi\AppData\Local\Temp\ccLAgZ30.s 			page 4


  57      91811C52 
  57      78B63785 
  57      3C42DF31 
  57      063F15D8 
  58 013c A0AA9427 		.ascii	"\240\252\224';>\253\374\021\273fc\3254XG\350\2133\221"
  58      3B3EABFC 
  58      11BB6663 
  58      D5345847 
  58      E88B3391 
  59 0150 9F69FF0F 		.ascii	"\237i\377\017G\307\206\315\261\267\263\211P\215\\\342"
  59      47C786CD 
  59      B1B7B389 
  59      508D5CE2 
  60 0160 0671B3AA 		.ascii	"\006q\263\252+\212j\272\3045x\025,0\242\375}]\275\242"
  60      2B8A6ABA 
  60      C4357815 
  60      2C30A2FD 
  60      7D5DBDA2 
  61 0174 8143774F 		.ascii	"\201CwO\254\30730\024\213\016\305\"\261\301\017G\246"
  61      ACC73330 
  61      148B0EC5 
  61      22B1C10F 
  61      47A6
  62 0186 BCF7     		.ascii	"\274\367"
  63              		.text
  64              		.section	.gnu.lto_constrain.fc9f464d,"",%progbits
  65 0000 789C6D91 		.ascii	"x\234m\221\315+Da\024\306\317s\336\367\336\206\031\302"
  65      CD2B4461 
  65      14C6CF73 
  65      DEF7DE86 
  65      19C2
  66 0012 C24291D4 		.ascii	"\302B\221\324d\307\277 +\377\206\260P\310\206\354\\"
  66      64C7BF20 
  66      2BFF86B0 
  66      50C886EC 
  66      5C
  67 0023 8C85B290 		.ascii	"\214\205\262\220$\311N\3621\014\331\371X\014\013)\037"
  67      24C94EF2 
  67      310CD9F9 
  67      580C0B29 
  67      1F
  68 0034 0B8D8F12 		.ascii	"\013\215\217\022\245\214P\212\206\244\241q\316\275H"
  68      A58C508A 
  68      86A4A171 
  68      CEBD48
  69 0043 71EBDEF3 		.ascii	"q\353\336\363\236\367<\277\347\234\367\275\206\376>"
  69      9EF73CBF 
  69      E79CF7BD 
  69      86FE3E
  70 0052 F5F25E80 		.ascii	"\365\362^\200\250T\"\\\002\217\034\022\365\205\230\235"
  70      A854225C 
  70      028F1C12 
  70      F585989D 
  71 0062 CD0AF2F2 		.ascii	"\315\012\362\362M\252\226\274\210a\2531\337\337\213"
  71      4DAA96BC 
  71      8861AB31 
  71      DFDF8B
ARM GAS  C:\Users\Luggi\AppData\Local\Temp\ccLAgZ30.s 			page 5


  72 0071 583881C8 		.ascii	"X8\201\310\001tA\240^6\326A/\356\370\211\261\226x>\010"
  72      017441A0 
  72      5E36D641 
  72      2FEEF889 
  72      B196783E 
  73 0086 DFF21B53 		.ascii	"\337\362\033S%I\272>\272;\341j\012\253\351\371H\356"
  73      2549BA3E 
  73      BA3BE16A 
  73      0AABE9F9 
  73      48EE
  74 0098 BEB07AC6 		.ascii	"\276\260z\306\363\274\307\355\370Nd\260\341\215\231"
  74      F3BCC7ED 
  74      F84E64B0 
  74      E18D99
  75 00a7 324C9845 		.ascii	"2L\230E\031\346P\246~\363\250\026e\366\352!\0266yPj"
  75      19E650A6 
  75      7EF3A816 
  75      65F6EA21 
  75      16367950 
  76 00bc FB686D3C 		.ascii	"\373hm<\034\235\026*\271\261\352\325Y\201\260\000\363"
  76      1C9D162A 
  76      B9B1EAD5 
  76      5981B000 
  76      F3
  77 00cd 9B531FC4 		.ascii	"\233S\037\304\021\025\365\360\324m*d\012|2;79\352\004"
  77      1115F5F0 
  77      D46D2A64 
  77      0A7C323B 
  77      3739EA04 
  78 00e1 E4D937B9 		.ascii	"\344\3317\271\370\017\271\344\223\231\2707fLq@\316d"
  78      F80FB9E4 
  78      9399B837 
  78      664C7140 
  78      CE64
  79 00f3 5E4201F9 		.ascii	"^B\001\371\360M&\376!\227\021U\371S\354\3434\354\306"
  79      F04D26FE 
  79      21971155 
  79      F953ECE3 
  79      34ECC6
  80 0106 445EA4E7 		.ascii	"D^\244\347\221c\254\300\225\233\245\345\222\244\227"
  80      9163ACC0 
  80      959BA5E5 
  80      92A497
  81 0115 CB65125B 		.ascii	"\313e\022[g\232\253\234\241_\003mj\241C\023]\013\242"
  81      679AAB9C 
  81      A15F036D 
  81      6AA14313 
  81      5D0BA2
  82 0128 B799164B 		.ascii	"\267\231\026K\211\346\030\261\303\201l\225\232\2742"
  82      89E618B1 
  82      C3816C95 
  82      9ABC32
  83 0137 BFB2F17F 		.ascii	"\277\262\361\177WZb\252V\213\373\003\323{\370\251\332"
  83      575A62AA 
  83      568BFB03 
  83      D37BF8A9 
  83      DA
ARM GAS  C:\Users\Luggi\AppData\Local\Temp\ccLAgZ30.s 			page 6


  84 0148 AFAAA5A1 		.ascii	"\257\252\245\241rs\202\376\344\221_\3236A1\315\216o"
  84      727382FE 
  84      E4915FD3 
  84      364131CD 
  84      8E6F
  85 015a 2BB5220A 		.ascii	"+\265\"\012\266A\227\350K\236\346\005&2\351\015 }\370"
  85      B64197E8 
  85      4B9EE605 
  85      2632E90D 
  85      207DF8
  86 016d 3DAE9E46 		.ascii	"=\256\236F\326\326\216\025\310`PR\306s;[\233k\232\310"
  86      D6D68E15 
  86      C8605052 
  86      C6733B5B 
  86      9B6B9AC8 
  87 0181 B4B77698 		.ascii	"\264\267v\230\366\306\036\247\273\261\255\253\345\023"
  87      F6C61EA7 
  87      BBB1ADAB 
  87      E513
  88 018f 4484A9F1 		.ascii	"D\204\251\361"
  89              		.text
  90              		.section	.gnu.lto_pid_calc.fc9f464d,"",%progbits
  91 0000 789C9554 		.ascii	"x\234\225T[O\023A\024\2363\333\335\026J\271V\356A\022"
  91      5B4F1341 
  91      149E33DB 
  91      DD164AB9 
  91      56EE4112 
  92 0014 8278017F 		.ascii	"\202x\001\177\201\017>\370j\342\203\177\200\010\017"
  92      810F3EF8 
  92      6AE2837F 
  92      80080F
  93 0023 261A0982 		.ascii	"&\032\011\202o\306--\215\211\321`5\006\025\220\213X"
  93      6FC62D2D 
  93      8D89D160 
  93      35061590 
  93      8B58
  94 0035 15E426E0 		.ascii	"\025\344&\340\035\026\357`\201\010D#!\012\211$\232`"
  94      1D16EF60 
  94      81084423 
  94      210A8924 
  94      9A60
  95 0047 02822915 		.ascii	"\002\202)\025\020\317\231iEQc\335d\317\316\234\235\357"
  95      10CF9969 
  95      455163DD 
  95      64CFCE9C 
  95      9DEF
  96 0059 9BEF3B73 		.ascii	"\233\357;sv\025\366\373\225\212\367\027\215\261\\|\202"
  96      7615F6FB 
  96      958AF717 
  96      8DB15C7C 
  96      82
  97 006a C280570C 		.ascii	"\302\200W\0141\346\260p\000\0320`\3078\034\203\217|"
  97      31E6B070 
  97      001A3060 
  97      C7381C83 
  97      8F7C
  98 007c 8E4385D1 		.ascii	"\216C\205\321Ti\315i\324u}\266\343\231c\217\001\001"
ARM GAS  C:\Users\Luggi\AppData\Local\Temp\ccLAgZ30.s 			page 7


  98      5469CD69 
  98      D4757DB6 
  98      E399638F 
  98      0101
  99 008e CED83C97 		.ascii	"\316\330<\227<\340\205\034\\\343\2730\022\247D\000\303"
  99      3CE0851C 
  99      5CE3BB30 
  99      12A74400 
  99      C3
 100 009f E19D9685 		.ascii	"\341\235\226\205A\353\007\036\340\220I\323\273\236\347"
 100      41EB071E 
 100      E09049D3 
 100      BB9EE7
 101 00ae 951A4DB9 		.ascii	"\225\032M\271\211\246\003\275\315\267l\331\015\272^"
 101      89A603BD 
 101      CDB76CD9 
 101      0DBA5E
 102 00bd 663477E8 		.ascii	"f4w\350;M\001\256\300UP\220\016\256A*\\\207T\206)\006"
 102      3B4D01AE 
 102      C0555090 
 102      0EAE412A 
 102      5C875486 
 103 00d3 4D908DAB 		.ascii	"M\220\215\253\353\333\252\313#\2258\301\353\230<?\035"
 103      EBDBAACB 
 103      239538C1 
 103      EB983C3F 
 103      1D
 104 00e4 4548DD18 		.ascii	"EH\335\030\224H\0234\257G\232\030\334\020\310\223\213"
 104      94481334 
 104      AF479A18 
 104      DC10C893 
 104      8B
 105 00f5 A33DD18A 		.ascii	"\243=\321\212] \037{O\224+\022\3711\204l\371\003\262"
 105      5D201F7B 
 105      4F942B12 
 105      F931846C 
 105      F903B2
 106 0108 5520FDAD 		.ascii	"U \375\255\037\316G*I\002\271\342\355^\266I\344J\010"
 106      1FCE472A 
 106      4902B9E2 
 106      ED5EB649 
 106      E44A08
 107 011b D9F60764 		.ascii	"\331\366\007d;d\323\362~}i8J\311\024\320\206\226\236"
 107      3B64D3F2 
 107      7E7D6938 
 107      4AC914D0 
 107      86969E
 108 012e 7A73561D 		.ascii	"zsV\035B'\037t\026\030\256Z\375\333\352*\020A\307\257"
 108      42271F74 
 108      1618AE5A 
 108      FDDBEA2A 
 108      1041C7AF 
 109 0142 04F24284 		.ascii	"\004\362B\204\267\246\275IU6\011\264\3139=b\022h\343"
 109      B7A6BD49 
 109      553609B4 
 109      CB393D62 
 109      1268E3
ARM GAS  C:\Users\Luggi\AppData\Local\Temp\ccLAgZ30.s 			page 8


 110 0155 1A6EFC13 		.ascii	"\032n\374\023\272\363/\3509\327\312k\253\346BD,\334"
 110      BAF32FE8 
 110      39D7CA6B 
 110      ABE64244 
 110      2CDC
 111 0167 842CE882 		.ascii	"\204,\350\202,yH\320\015\0320\306C\331\326xC_]\275Y"
 111      2C7948D0 
 111      0D1A30C6 
 111      43D9D678 
 111      435F5DBD 
 112 017c D3D70999 		.ascii	"\323\327\011\231\000T.<t\264\216E\307\025*P\3515\264"
 112      00542E3C 
 112      74B48E45 
 112      C7152A50 
 112      E935B4
 113 018f A59A2958 		.ascii	"\245\232)X(DP\260R\210\242`\243\020C!\226B\034\205x"
 113      284450B0 
 113      5288A260 
 113      A3104321 
 113      96421C85 
 114 01a4 A02224D0 		.ascii	"\240\"$\320\320Na\003\205D\012I\024\222)\244P\240\212"
 114      D04E6103 
 114      85440A49 
 114      149229A4 
 114      50A08A
 115 01b7 A96914D2 		.ascii	"\251i\024\322\031\311\311\300!\366\341{\224J\2357\315"
 115      19C9C9C0 
 115      21F6E17B 
 115      944A9D37 
 115      CD
 116 01c8 393D9571 		.ascii	"9=\225qp\236u\177s*\244\336\317\025?\236\013\276y\005"
 116      709E757F 
 116      732AA4DE 
 116      CF153F9E 
 116      0BBE7905 
 117 01dc 5CD841A1 		.ascii	"\\\330A\241\230d\343P\326=wy\213\\\243a\021\336\275"
 117      9864E350 
 117      D63D7779 
 117      8B5CA361 
 117      11DEBD
 118 01ef 1F7E69A1 		.ascii	"\037~i\241fSDM\272\026/}\262U\303E,\234\331\317U\270"
 118      6653444D 
 118      BA162F7D 
 118      B255C345 
 118      2C9CD9CF 
 119 0205 4505C37C 		.ascii	"E\005\303|\325\302\23171yMX+\013\225\3646T\303g\321"
 119      D5C29937 
 119      31794D58 
 119      2B0B95F4 
 119      3654C367 
 120 021a CF7007F2 		.ascii	"\317p\007\362\004\353T\266$5\377\223e\0331\334\025\014"
 120      04EB54B6 
 120      2435FF93 
 120      651B31DC 
 120      150C
 121 022c 400CF704 		.ascii	"@\014\367\004\203\363\234{,\250\335\342'\030\211uz\334"
 121      83F39C7B 
ARM GAS  C:\Users\Luggi\AppData\Local\Temp\ccLAgZ30.s 			page 9


 121      2CA8DDE2 
 121      27188975 
 121      7ADC
 122 023e 3E2E9311 		.ascii	">.\223\021\250\027_\321^\036\240T\370j\357\257\251}"
 122      A8175FD1 
 122      5E1EA054 
 122      F86AEFAF 
 122      A97D
 123 0250 00794825 		.ascii	"\000yH%\004\2677\356\226\314\326\360\024\367\010\026"
 123      04B737EE 
 123      96CCD6F0 
 123      14F70816 
 124 0260 D11FBDD2 		.ascii	"\321\037\275\322\363\230{\"(.\012Y\330\004\226Y\314"
 124      F3987B22 
 124      282E0A59 
 124      D8049659 
 124      CC
 125 0271 6C08AC19 		.ascii	"l\010\254\031=\325\302\217.\351\307I\202e\236\234\202"
 125      3DD5C28F 
 125      2EE9C749 
 125      82659E9C 
 125      82
 126 0282 0147995C 		.ascii	"\001G\231\\\213\032\002R\206g\312\276\316\214\003;8"
 126      8B1A0252 
 126      8667CABE 
 126      CE8C033B 
 126      38
 127 0293 E5EF32FA 		.ascii	"\345\3572\372\326\314<$36i\346\312\016\271wLxf\036\011"
 127      D6CC3C24 
 127      333669E6 
 127      CA0EB977 
 127      4C78661E 
 128 02a8 1685581E 		.ascii	"\026\205X\036\207\312\0372\023\213,\301\362W\271}&\231"
 128      87CA1F32 
 128      138B2CC1 
 128      F257B97D 
 128      2699
 129 02ba 8CC33CFD 		.ascii	"\214\303<\375$\276\316\015FS\273\250\221\014\236 \257"
 129      24BECE0D 
 129      4653BBA8 
 129      910C9E20 
 129      AF
 130 02cb 3C38B35C 		.ascii	"<8\263\\\224\200r\374<^\"\027\222e\322\216yD\326\352"
 130      948072FC 
 130      3C5E2217 
 130      9265D28E 
 130      7944D6EA 
 131 02df B3811881 		.ascii	"\263\201\030\201\254=\2511x*\261\036\367rp\203\015b"
 131      AC3DA931 
 131      782AB11E 
 131      F7727083 
 131      0D62
 132 02f1 0FBB7053 		.ascii	"\017\273pS7\0032\231\030\236\233g\302\215\211\334<\227"
 132      37033299 
 132      189E9B67 
 132      C28D89DC 
 132      3C97
ARM GAS  C:\Users\Luggi\AppData\Local\Temp\ccLAgZ30.s 			page 10


 133 0303 6ECEBA97 		.ascii	"n\316\272\227\323$E\022~\005H${t%\310\233\034\036o\277"
 133      D3244512 
 133      7E054824 
 133      7B7425C8 
 133      9B1C1E6F 
 134 0318 E0558977 		.ascii	"\340U\211w\340G\223fH\212\024A\235,\223\313\033e2\025"
 134      E0479366 
 134      488A1441 
 134      9D2C93CB 
 134      1B653215 
 135 032c F3A1B254 		.ascii	"\363\241\262T\271g6\313l\232x\021/u\371\202\022\322"
 135      B96736CB 
 135      6C9A7811 
 135      2F75F982 
 135      12D2
 136 033e 85E5B41F 		.ascii	"\205\345\264\037\037h\027}\240\351$\363\\\273w\353\377"
 136      1F68177D 
 136      A0E924F3 
 136      5CBB77EB 
 136      FF
 137 034f F5C48B35 		.ascii	"\365\304\2135\377>\352\011.\334\236\316\225;e\204c6"
 137      FF3EEA09 
 137      2EDC9ECE 
 137      953B6584 
 137      6336
 138 0361 12060589 		.ascii	"\022\006\005\211F$Chv\002\\\272J\004\330\262\031x\247"
 138      46244368 
 138      76025CBA 
 138      4A04D8B2 
 138      1978A7
 139 0374 07B0C5DF 		.ascii	"\007\260\305\337\202\303\350\222YF\177 \240?\0176\243"
 139      82C3E892 
 139      59467F20 
 139      A03F0F36 
 139      A3
 140 0385 56B4BF60 		.ascii	"V\264\277`\373>f\306\307\256\374\222|~\270\210\027\035"
 140      FB3E66C6 
 140      C7AEFC92 
 140      7C7EB888 
 140      171D
 141 0397 B114141E 		.ascii	"\261\024\024\036(\311\337{\360\260ZX\\|\250X;TZRTZ\362"
 141      28C9DF7B 
 141      F0B05A58 
 141      5C7CA858 
 141      3B545A52 
 142 03ae 1DB82957 		.ascii	"\035\270)W\207"
 142      87
 143              		.text
 144              		.section	.gnu.lto_.symbol_nodes.fc9f464d,"",%progbits
 145 0000 789C6366 		.ascii	"x\234cf``pb\200\002&\206z\006\206\011\347\030\030\352"
 145      60607062 
 145      80022686 
 145      7A068609 
 145      E71818EA 
 146 0014 EB19A62D 		.ascii	"\353\031\246-\340``b\252gD\3413\3263!\363\231\231\030"
 146      E0606062 
 146      AA6744E1 
ARM GAS  C:\Users\Luggi\AppData\Local\Temp\ccLAgZ30.s 			page 11


 146      33D63321 
 146      F3999918 
 147 0028 190EB5BD 		.ascii	"\031\016\265\275\221gab\230\322\377F\236\201\001\000"
 147      91676162 
 147      98D2FF46 
 147      9E810100 
 148 0038 3242112A 		.ascii	"2B\021*"
 149              		.text
 150              		.section	.gnu.lto_.refs.fc9f464d,"",%progbits
 151 0000 789C6366 		.ascii	"x\234cf```d\200\002\000\000=\000\005"
 151      60606064 
 151      80020000 
 151      3D0005
 152              		.text
 153              		.section	.gnu.lto_.decls.fc9f464d,"",%progbits
 154 0000 789CB555 		.ascii	"x\234\265U_L[U\030\277_O{K\273\302fp\316,>4<4\306ld"
 154      5F4C5B55 
 154      18BF5F4F 
 154      7B4BBBC2 
 154      6670CE2C 
 155 001b 71BEE88B 		.ascii	"q\276\350\213K4\352^\014/>\331\244\351\332n\273\021"
 155      4B34EA5E 
 155      0C2F3ED9 
 155      A4E9DA6E 
 155      BB11
 156 002d DAA6BD95 		.ascii	"\332\246\275\225,>xEe\014D\347\310\310\230\321\325\214"
 156      2C3E7845 
 156      650C44E7 
 156      C8C898D1 
 156      D58C
 157 003f 0883021B 		.ascii	"\010\203\002\033c\177\200\215uC\376\263\201\003dP\330"
 157      637F808D 
 157      7543FEB3 
 157      81036450 
 157      D8
 158 0050 4A1B8509 		.ascii	"J\033\205\011\331\230\272\214\031\005\277s\356moWK\242"
 158      D998BA8C 
 158      1905BF73 
 158      EE6D6F57 
 158      4BA2
 159 0062 0F9EE46B 		.ascii	"\017\236\344k\317\367\235\337w\316\357\373}\347\264"
 159      CFF79DDF 
 159      77CEEFFB 
 159      7DE7B4
 160 0071 84E33833 		.ascii	"\204\34383p\334\032\016\213\236\343\366\340\\\213\261"
 160      70DC1A0E 
 160      8B9EE3F6 
 160      E05C8BB1 
 161 0081 024E1D04 		.ascii	"\002N\035\004m\002-\202\026\343\3769\350\232^\311\311"
 161      6D022D82 
 161      16E3FE39 
 161      E89A5EC9 
 161      C9
 162 0092 4133A18D 		.ascii	"A3\241\215\242]E\033AkS\366\350E\353A\033F\003%/}D\024"
 162      A25D451B 
 162      416B53F6 
 162      E845EB41 
ARM GAS  C:\Users\Luggi\AppData\Local\Temp\ccLAgZ30.s 			page 12


 162      1B460325 
 163 00aa 6C629F36 		.ascii	"lb\2376%\016\312Z\372\210)\270\364\263i\036\217\026"
 163      250ECA5A 
 163      FA8829B8 
 163      F4B3691E 
 163      8F16
 164 00bc 5638C4D1 		.ascii	"V8\304\321\246\024N]\012_\312\247\017\255\037mH\341"
 164      A6144E5D 
 164      0A5FCAA7 
 164      0FAD1F6D 
 164      48E1
 165 00ce 36A8F0D3 		.ascii	"6\250\360\323({g:\363\201\006\332\233\177\277\276aA"
 165      287B673A 
 165      F38106DA 
 165      9B7FBFBE 
 165      6141
 166 00e0 03394633 		.ascii	"\0039F3u;\216\364\037\343\3215\031\265\324\355\\9_\227"
 166      753B8EF4 
 166      1FE3D135 
 166      19B5D4ED 
 166      5C395F97 
 167 00f4 C356A340 		.ascii	"\303V\243@\375\326K\013\0177\262\345\347\250[u\262;"
 167      FDD64B0B 
 167      0F37B2E5 
 167      E7A85B75 
 167      B23B
 168 0106 B48168D8 		.ascii	"\264\201h\330\322\311cs\343\306m\015\222$\225I\341\035"
 168      D2C96373 
 168      E3C66D0D 
 168      92249549 
 168      E11D
 169 0118 EA019DF3 		.ascii	"\352\001\235\363%Sz\222\3150+\277\314/\001\331\314\346"
 169      25537A92 
 169      CD302BBF 
 169      CC2F01D9 
 169      CCE6
 170 012a CDB3DDC5 		.ascii	"\315\263\335\305\270\023o\304\014i\205v\015>\304\360"
 170      B8136FC4 
 170      0C698576 
 170      0D3EC4F0 
 171 013a C0D8C8A8 		.ascii	"\300\330\310\250\216\305iH\217HM\365\334\027\2175`\264"
 171      8EC56948 
 171      8F484DF5 
 171      DC178F35 
 171      60B4
 172 014c 9451E4E1 		.ascii	"\224Q\344\341\217%\303[\034\324\301V\250\207\255\034"
 172      8F25C35B 
 172      1CD4C156 
 172      A887AD1C 
 173 015c B48205B1 		.ascii	"\264\202\005\261\020\202m\034\264`\3604\006k\021\267"
 173      10826D1C 
 173      B460F034 
 173      066B11B7 
 174 016c 7C65750E 		.ascii	"|eu\016$I\013g\300\010\315@\030\002\325\347\215\011"
 174      24490B67 
 174      C008CD40 
 174      1802D5E7 
ARM GAS  C:\Users\Luggi\AppData\Local\Temp\ccLAgZ30.s 			page 13


 174      8D09
 175 017e 669A606F 		.ascii	"f\232`oM;\200\305\310\340\235\237Nn\246\3606\2047\251"
 175      4D3B80C5 
 175      C8E09D9F 
 175      4E6EA6F0 
 175      368437A9 
 176 0192 70CC96F1 		.ascii	"p\314\226\361\031\017?\233\341p\254\341LG}\223\236\034"
 176      190F3F9B 
 176      E170ACE1 
 176      4C477D93 
 176      9E1C
 177 01a4 9475B977 		.ascii	"\224u\271w\356\304q#9$;g\233k\332M\244Bvj\217V\207t"
 177      EEC47123 
 177      39243B67 
 177      9B6BDA4D 
 177      A442766A 
 178 01bc 4CCC2CEA 		.ascii	"L\314,\352\206\036\226/\352H\245\274\026\237\250\215"
 178      861E962F 
 178      EA48A5BC 
 178      169FA88D 
 179 01cc 994895EC 		.ascii	"\231H\225\354\014\305V~31\340&\352\336\016N\016\347"
 179      0CC5567E 
 179      3331E026 
 179      EADE0E4E 
 179      0EE7
 180 01de 90E3F2DA 		.ascii	"\220\343\362\332\330\317q\311\244\305&3\346\357\262"
 180      D8CF71C9 
 180      A4C52633 
 180      E6EFB2
 181 01ed AE7DF6EB 		.ascii	"\256}\366\353\243E\375\226\243\012\343MZ(x&\311\231"
 181      A345FD96 
 181      A30AE34D 
 181      5A287826 
 181      C999
 182 01ff 832ED882 		.ascii	"\203.\330\202\237\227A+\367'\370U\305\020O\276\225w"
 182      9F97412B 
 182      F727F855 
 182      C5104FBE 
 182      9577
 183 0211 ABEE8949 		.ascii	"\253\356\211IzS\271$\225\310\265RpJj\030L\2120(_\303"
 183      7A53B924 
 183      95C8B552 
 183      704A6A18 
 183      4C8A3028 
 184 0227 C2D8901E 		.ascii	"\302\330\220\036L\226u\320p\015\305Q\023\230\310\213"
 184      4C9675D0 
 184      700DC551 
 184      1398C88B 
 185 0237 037D4F53 		.ascii	"\003}OS\221\257b\370\212*2\242\222\327e\374\346}\211"
 185      91AF62F8 
 185      8A2A32A2 
 185      92D765FC 
 185      E67D89
 186 024a 900E994E 		.ascii	"\220\016\231N\315\243\341^\371\272=\213\256\241\262"
 186      CDA3E15E 
 186      F9BA3D8B 
 186      AEA1B2
ARM GAS  C:\Users\Luggi\AppData\Local\Temp\ccLAgZ30.s 			page 14


 187 0259 E5EB8811 		.ascii	"\345\353\210\021\362p\344\242Y\202\270e\264\271\315"
 187      F270E4A2 
 187      5982B865 
 187      B4B9CD
 188 0268 19FE84B0 		.ascii	"\031\376\204\260\342;p\307\001\310U\031t2\322/\340\007"
 188      E23B70C7 
 188      01C85519 
 188      7432D22F 
 188      E007
 189 027a 47B1C1A6 		.ascii	"G\261\301\246Vi\227\202mO\307^d\330:H\202\033U\360\371"
 189      56699782 
 189      6D4FC75E 
 189      64D83A48 
 189      821B55F0 
 190 028f 74F0F369 		.ascii	"t\360\363i\330\026\025{)3\011\031\374%k\211$\355\322"
 190      D816157B 
 190      29330919 
 190      FC256B89 
 190      24EDD2
 191 02a2 72700A01 		.ascii	"rp\012\001\015\024\320\250d\240\030p\0355\033\202<\350"
 191      0D14D0A8 
 191      64A01870 
 191      1D351B82 
 191      3CE8
 192 02b4 431B44EB 		.ascii	"C\033D\353E\353A\353G\033\206<&\022;1\244\236x!s)\311"
 192      45EB41EB 
 192      471B863C 
 192      26123B31 
 192      A49E7821 
 193 02cb B2A30D1D 		.ascii	"\262\243\015\035I\211\316e\254$\001-\211^\274\305\240"
 193      4989CE65 
 193      AC24012D 
 193      895EBCC5 
 193      A0
 194 02dc B43FDDE9 		.ascii	"\264?\335\351\320\357\325mi3\243\365\005Y\024\300)]"
 194      D0EFD56D 
 194      6933A3F5 
 194      055914C0 
 194      295D
 195 02ee 4CBE784D 		.ascii	"L\276xM]\365\275\210\036,\271\014\325\316\003\214\340"
 195      5DF5BD88 
 195      1E2CB90C 
 195      D5CE038C 
 195      E0
 196 02ff 368D6ABB 		.ascii	"6\215j\273i\022\033\031\345\270\201\022\374\0279\360"
 196      69121B19 
 196      E5B88112 
 196      FC1739F0 
 197 030f 9A74C5C7 		.ascii	"\232t\305\307/kRo\355H\012o\016F\345\353\205\300\203"
 197      2F6B526F 
 197      ED480A6F 
 197      0E46E5EB 
 197      85C083
 198 0322 4BF3B16C 		.ascii	"K\363\261l\366Xh\205\362c\371\256t\365\206\206\305\020"
 198      F6586885 
 198      F263F9AE 
 198      74F58686 
ARM GAS  C:\Users\Luggi\AppData\Local\Temp\ccLAgZ30.s 			page 15


 198      C510
 199 0334 073F000B 		.ascii	"\007?\000\013\006O\0349d\\\367\005\215\261\027t3\361"
 199      064F1C39 
 199      645CF705 
 199      8DB11774 
 199      33F1
 200 0346 82061E74 		.ascii	"\202\006\036tO\351HX\271\262\177=\376(\313\374\215\024"
 200      4FE94858 
 200      B9B27F3D 
 200      FE28CBFC 
 200      8D14
 201 0358 3CBD5C53 		.ascii	"<\275\\SQAj\244`\211\264\212\277m,\013\306\223*pt.\377"
 201      51416AA4 
 201      6089B48A 
 201      BF6D2C0B 
 201      C6932A70 
 202 036f 214C8079 		.ascii	"!L\200y\235\207\334u\270\364'>\031\373Q\341\266\324"
 202      9D87DC75 
 202      B8F4273E 
 202      19FB51E1 
 202      B6D4
 203 0381 5A4D92C1 		.ascii	"ZM\222\301I9XU\031\214\230R\011\3235\225\361\024c|+"
 203      49395855 
 203      198C9852 
 203      09D33595 
 203      F114637C 
 204 0396 C1B8A57C 		.ascii	"\301\270\245|\346\232\216\214\312\214?\277\323\375\207"
 204      E69A8E8C 
 204      CA8C3FBF 
 204      D3FD87
 205 03a5 01192F9F 		.ascii	"\001\031/\237\216\316\264b\373\245?\327\326\010K\201"
 205      8ECEB462 
 205      FBA53FD7 
 205      D6084B81 
 206 03b5 E914BAD3 		.ascii	"\351\024\272\323\011\272\221\177Iw&\023\335Y9\270\274"
 206      09BA917F 
 206      49772613 
 206      DD5939B8 
 206      BC
 207 03c6 DA78D794 		.ascii	"\332x\327\224\024\375\266\034,\275P\326\260q]\321\243"
 207      14FDB61C 
 207      2CBD50D6 
 207      B0715DD1 
 207      A3
 208 03d7 AC843B89 		.ascii	"\254\204;\211\022b\361S]\331dZ.!4{\277\324\300D\217"
 208      1262F153 
 208      5DD9645A 
 208      2E21347B 
 208      BFD4C044 
 209 03ec 7686F87E 		.ascii	"v\206\370~)\274\266\366*M\200\271\224\002\346\022\005"
 209      29BCB6F6 
 209      2A4D80B9 
 209      9402E612 
 209      05
 210 03fd C4580183 		.ascii	"\304X\001\203wgZ\263S/\315\324\023?uq\371\322\260o\342"
 210      77675AB3 
 210      532FCDD4 
ARM GAS  C:\Users\Luggi\AppData\Local\Temp\ccLAgZ30.s 			page 16


 210      133F7571 
 210      F9D2B06F 
 211 0412 159CFC9B 		.ascii	"\025\234\374\233o\277c~\215\323\013nq\347\2136\321`"
 211      6FBF637E 
 211      8DD30B6E 
 211      71E78B36 
 211      D160
 212 0424 B329B30F 		.ascii	"\263)\263\017\034\257X\275>\317>\237\275\310\274W(t"
 212      1CAF58BD 
 212      3ECF3E9F 
 212      BDC8BC57 
 212      2874
 213 0436 F9AD8E03 		.ascii	"\371\255\216\003^\237\313\357\267z\375\036\207\331\341"
 213      5E9FCBEF 
 213      B77AFD1E 
 213      87D9E1
 214 0445 73D9458F 		.ascii	"s\331E\217\317\372R\376\216'\003B\221\327\343\023\255"
 214      CFFA52FE 
 214      8E270342 
 214      91D7E313 
 214      AD
 215 0456 FBDC01AB 		.ascii	"\373\334\001\253\335W\204\353/\347\357\244\263\355n"
 215      DD5784EB 
 215      2FE7EFA4 
 215      B3ED6E
 216 0465 8FDBB5DD 		.ascii	"\217\333\265\335e\337#X\005\267\2430\340tY\213\354\216"
 216      65DF2358 
 216      05B7A330 
 216      E074598B 
 216      EC8E
 217 0477 FD82DB65 		.ascii	"\375\202\333e\2659]{\355\201B\321&\036\360\272\374\371"
 217      B5395D7B 
 217      ED8142D1 
 217      261EF0BA 
 217      FCF9
 218 0489 FBB9F7FE 		.ascii	"\373\271\367\376\377\263\375\242\023\013\305\263\240"
 218      FFB3FDA2 
 218      130BC5B3 
 218      A0
 219 0496 0076C3EB 		.ascii	"\000v\303\353\272\335\242\313W\304{\012\2356\357\373"
 219      BADDA2CB 
 219      57C47B0A 
 219      9D36EFFB 
 220 04a6 7CB1E076 		.ascii	"|\261\340v\006\274Oy\002\2427 \276\021p;D\301\343.\020"
 220      06BC4F79 
 220      02A23720 
 220      BE11703B 
 220      44C1E32E 
 221 04bb 7D3C0A86 		.ascii	"}<\012\206)\272b\237 \272\262\320A\261\004\221E\035"
 221      29BA629F 
 221      20BAB2D0 
 221      41B10491 
 221      451D
 222 04cd 9CC1E171 		.ascii	"\234\301\341q\373E\237]p\263\025\207\275\320\3617\312"
 222      FB459F5D 
 222      70B31587 
 222      BDD0F137 
ARM GAS  C:\Users\Luggi\AppData\Local\Temp\ccLAgZ30.s 			page 17


 222      CA
 223 04de D7AB6C   		.ascii	"\327\253l"
 224              		.text
 225              		.section	.gnu.lto_.symtab.fc9f464d,"",%progbits
 226 0000 7069645F 		.ascii	"pid_init\000\000\000\000\000\000\000\000\000\000\000"
 226      696E6974 
 226      00000000 
 226      00000000 
 226      000000
 227 0013 00D50000 		.ascii	"\000\325\000\000\000constrain\000\000\000\000\000\000"
 227      00636F6E 
 227      73747261 
 227      696E0000 
 227      00000000 
 228 0027 00000000 		.ascii	"\000\000\000\000\000\000\333\000\000\000pid_calc\000"
 228      0000DB00 
 228      00007069 
 228      645F6361 
 228      6C6300
 229 003a 00000000 		.ascii	"\000\000\000\000\000\000\000\000\000\000\000\342\000"
 229      00000000 
 229      000000E2 
 229      00
 230 0047 0000     		.ascii	"\000\000"
 231              		.text
 232              		.section	.gnu.lto_.opts,"",%progbits
 233 0000 272D666E 		.ascii	"'-fno-trapv' '-fno-strict-overflow' '-mcpu=cortex-m"
 233      6F2D7472 
 233      61707627 
 233      20272D66 
 233      6E6F2D73 
 234 0033 33272027 		.ascii	"3' '-mthumb' '-g' '-Og' '-ffunction-sections' '-flt"
 234      2D6D7468 
 234      756D6227 
 234      20272D67 
 234      2720272D 
 235 0066 6F272027 		.ascii	"o' '-ffat-lto-objects'\000"
 235      2D666661 
 235      742D6C74 
 235      6F2D6F62 
 235      6A656374 
 236              		.text
 237              		.cfi_sections	.debug_frame
 238              		.section	.text.pid_init,"ax",%progbits
 239              		.align	2
 240              		.global	pid_init
 241              		.thumb
 242              		.thumb_func
 243              		.type	pid_init, %function
 244              	pid_init:
 245              	.LFB0:
 246              		.file 1 "pid.c"
   1:pid.c         **** /* ========================================
   2:pid.c         ****  *
   3:pid.c         ****  * Copyright YOUR COMPANY, THE YEAR
   4:pid.c         ****  * All Rights Reserved
   5:pid.c         ****  * UNPUBLISHED, LICENSED SOFTWARE.
ARM GAS  C:\Users\Luggi\AppData\Local\Temp\ccLAgZ30.s 			page 18


   6:pid.c         ****  *
   7:pid.c         ****  * CONFIDENTIAL AND PROPRIETARY INFORMATION
   8:pid.c         ****  * WHICH IS THE PROPERTY OF your company.
   9:pid.c         ****  *
  10:pid.c         ****  * ========================================
  11:pid.c         **** */
  12:pid.c         **** #include "pid.h"
  13:pid.c         **** 
  14:pid.c         **** /* 
  15:pid.c         **** Pid initialisation 
  16:pid.c         **** P = P/10
  17:pid.c         **** I = I/100
  18:pid.c         **** D = D/100
  19:pid.c         **** */
  20:pid.c         **** void pid_init(pid *pidData, outputFunctionPtr outputPtr)
  21:pid.c         **** {
 247              		.loc 1 21 0
 248              		.cfi_startproc
 249              		@ args = 0, pretend = 0, frame = 0
 250              		@ frame_needed = 0, uses_anonymous_args = 0
 251              		@ link register save eliminated.
 252              	.LVL0:
  22:pid.c         **** 	pidData->Iterm = 0;
 253              		.loc 1 22 0
 254 0000 0023     		movs	r3, #0
 255 0002 C360     		str	r3, [r0, #12]
  23:pid.c         **** 	pidData->old_pv = 0;	
 256              		.loc 1 23 0
 257 0004 0361     		str	r3, [r0, #16]
  24:pid.c         **** 	pidData->write = outputPtr;
 258              		.loc 1 24 0
 259 0006 8161     		str	r1, [r0, #24]
 260 0008 7047     		bx	lr
 261              		.cfi_endproc
 262              	.LFE0:
 263              		.size	pid_init, .-pid_init
 264 000a 00BF     		.section	.text.constrain,"ax",%progbits
 265              		.align	2
 266              		.global	constrain
 267              		.thumb
 268              		.thumb_func
 269              		.type	constrain, %function
 270              	constrain:
 271              	.LFB2:
  25:pid.c         **** }
  26:pid.c         **** 
  27:pid.c         **** void pid_calc(pid *pidData, int32_t sp, int32_t pv, int32_t deltaTms)
  28:pid.c         **** {
  29:pid.c         **** 	int32_t error, output;
  30:pid.c         **** 	
  31:pid.c         **** 	error = sp - pv;
  32:pid.c         ****     
  33:pid.c         **** 	pidData->Iterm += error * pidData->I;
  34:pid.c         **** 	pidData->Iterm = constrain(-pidData->windup, pidData->windup, pidData->Iterm);
  35:pid.c         **** 	
  36:pid.c         **** 	output = ((error * pidData->P) / 10) + ((pidData->Iterm * deltaTms) / (1000 * 100))  - (((pv - pid
  37:pid.c         **** 	
ARM GAS  C:\Users\Luggi\AppData\Local\Temp\ccLAgZ30.s 			page 19


  38:pid.c         **** 	pidData->old_pv = pv;
  39:pid.c         **** 	
  40:pid.c         **** 	pidData->write(output);
  41:pid.c         ****     //pidData->write(0);
  42:pid.c         **** }
  43:pid.c         **** 
  44:pid.c         **** int32_t constrain(int32_t min, int32_t max, int32_t value)
  45:pid.c         **** {
 272              		.loc 1 45 0
 273              		.cfi_startproc
 274              		@ args = 0, pretend = 0, frame = 0
 275              		@ frame_needed = 0, uses_anonymous_args = 0
 276              		@ link register save eliminated.
 277              	.LVL1:
  46:pid.c         **** 	if(value > max)
 278              		.loc 1 46 0
 279 0000 8A42     		cmp	r2, r1
 280 0002 02DC     		bgt	.L4
  47:pid.c         **** 		value = max;
  48:pid.c         **** 	else if(value < min)
 281              		.loc 1 48 0
 282 0004 8242     		cmp	r2, r0
 283 0006 02DB     		blt	.L5
 284 0008 02E0     		b	.L3
 285              	.L4:
  47:pid.c         **** 		value = max;
 286              		.loc 1 47 0
 287 000a 0A46     		mov	r2, r1
 288              	.LVL2:
 289 000c 00E0     		b	.L3
 290              	.LVL3:
 291              	.L5:
  49:pid.c         **** 		value = min;
 292              		.loc 1 49 0
 293 000e 0246     		mov	r2, r0
 294              	.LVL4:
 295              	.L3:
  50:pid.c         **** 	
  51:pid.c         **** 	return value;
  52:pid.c         **** }
 296              		.loc 1 52 0
 297 0010 1046     		mov	r0, r2
 298              	.LVL5:
 299 0012 7047     		bx	lr
 300              		.cfi_endproc
 301              	.LFE2:
 302              		.size	constrain, .-constrain
 303              		.section	.text.pid_calc,"ax",%progbits
 304              		.align	2
 305              		.global	pid_calc
 306              		.thumb
 307              		.thumb_func
 308              		.type	pid_calc, %function
 309              	pid_calc:
 310              	.LFB1:
  28:pid.c         **** 	int32_t error, output;
 311              		.loc 1 28 0
ARM GAS  C:\Users\Luggi\AppData\Local\Temp\ccLAgZ30.s 			page 20


 312              		.cfi_startproc
 313              		@ args = 0, pretend = 0, frame = 0
 314              		@ frame_needed = 0, uses_anonymous_args = 0
 315              	.LVL6:
 316 0000 F8B5     		push	{r3, r4, r5, r6, r7, lr}
 317              		.cfi_def_cfa_offset 24
 318              		.cfi_offset 3, -24
 319              		.cfi_offset 4, -20
 320              		.cfi_offset 5, -16
 321              		.cfi_offset 6, -12
 322              		.cfi_offset 7, -8
 323              		.cfi_offset 14, -4
 324 0002 0446     		mov	r4, r0
 325 0004 1546     		mov	r5, r2
 326 0006 1E46     		mov	r6, r3
  31:pid.c         ****     
 327              		.loc 1 31 0
 328 0008 8F1A     		subs	r7, r1, r2
 329              	.LVL7:
  33:pid.c         **** 	pidData->Iterm = constrain(-pidData->windup, pidData->windup, pidData->Iterm);
 330              		.loc 1 33 0
 331 000a 4368     		ldr	r3, [r0, #4]
 332              	.LVL8:
 333 000c C268     		ldr	r2, [r0, #12]
 334              	.LVL9:
 335 000e 07FB0322 		mla	r2, r7, r3, r2
 336 0012 C260     		str	r2, [r0, #12]
  34:pid.c         **** 	
 337              		.loc 1 34 0
 338 0014 4169     		ldr	r1, [r0, #20]
 339              	.LVL10:
 340 0016 4842     		negs	r0, r1
 341              	.LVL11:
 342 0018 FFF7FEFF 		bl	constrain
 343              	.LVL12:
 344 001c E060     		str	r0, [r4, #12]
  36:pid.c         **** 	
 345              		.loc 1 36 0
 346 001e 2268     		ldr	r2, [r4]
 347 0020 07FB02F7 		mul	r7, r7, r2
 348              	.LVL13:
 349 0024 0E4A     		ldr	r2, .L8
 350 0026 82FB0732 		smull	r3, r2, r2, r7
 351 002a FF17     		asrs	r7, r7, #31
 352 002c C7EBA207 		rsb	r7, r7, r2, asr #2
 353 0030 06FB00F0 		mul	r0, r6, r0
 354 0034 0B4A     		ldr	r2, .L8+4
 355 0036 82FB0032 		smull	r3, r2, r2, r0
 356 003a C017     		asrs	r0, r0, #31
 357 003c C0EB6230 		rsb	r0, r0, r2, asr #13
 358 0040 3A18     		adds	r2, r7, r0
 359 0042 2069     		ldr	r0, [r4, #16]
 360 0044 281A     		subs	r0, r5, r0
 361 0046 A368     		ldr	r3, [r4, #8]
 362 0048 03FB00F0 		mul	r0, r3, r0
 363 004c 00EB8000 		add	r0, r0, r0, lsl #2
 364 0050 4000     		lsls	r0, r0, #1
ARM GAS  C:\Users\Luggi\AppData\Local\Temp\ccLAgZ30.s 			page 21


 365 0052 90FBF6F0 		sdiv	r0, r0, r6
 366              	.LVL14:
  38:pid.c         **** 	
 367              		.loc 1 38 0
 368 0056 2561     		str	r5, [r4, #16]
  40:pid.c         ****     //pidData->write(0);
 369              		.loc 1 40 0
 370 0058 A369     		ldr	r3, [r4, #24]
 371 005a 101A     		subs	r0, r2, r0
 372              	.LVL15:
 373 005c 9847     		blx	r3
 374              	.LVL16:
 375 005e F8BD     		pop	{r3, r4, r5, r6, r7, pc}
 376              	.LVL17:
 377              	.L9:
 378              		.align	2
 379              	.L8:
 380 0060 67666666 		.word	1717986919
 381 0064 89B5F814 		.word	351843721
 382              		.cfi_endproc
 383              	.LFE1:
 384              		.size	pid_calc, .-pid_calc
 385              		.text
 386              	.Letext0:
 387              		.file 2 "c:\\program files\\cypress\\psoc creator\\4.0\\psoc creator\\import\\gnu\\arm\\4.9.3\\arm
 388              		.file 3 "c:\\program files\\cypress\\psoc creator\\4.0\\psoc creator\\import\\gnu\\arm\\4.9.3\\arm
 389              		.file 4 "pid.h"