ARM GAS  C:\Users\Luggi\AppData\Local\Temp\ccRDrgqk.s 			page 1


   1              		.syntax unified
   2              		.cpu cortex-m3
   3              		.fpu softvfp
   4              		.eabi_attribute 20, 1
   5              		.eabi_attribute 21, 1
   6              		.eabi_attribute 23, 3
   7              		.eabi_attribute 24, 1
   8              		.eabi_attribute 25, 1
   9              		.eabi_attribute 26, 1
  10              		.eabi_attribute 30, 1
  11              		.eabi_attribute 34, 1
  12              		.eabi_attribute 18, 4
  13              		.thumb
  14              		.file	"Seed_ref.c"
  15              		.text
  16              	.Ltext0:
  17              		.section	.gnu.lto_.profile.53c7930e,"",%progbits
  18 0000 789C6366 		.ascii	"x\234cf```a\200\000F\006IQ\000\000\273\0007"
  18      60606061 
  18      80004606 
  18      49510000 
  18      BB0037
  19              		.text
  20              		.section	.gnu.lto_.inline.53c7930e,"",%progbits
  21 0000 789C6366 		.ascii	"x\234cf\300\016\022\2404\013\003\003'\007##\003#\003"
  21      C00E12A0 
  21      340B0303 
  21      27072323 
  21      032303
  22 0013 0333C701 		.ascii	"\0033\307\001;\006\266\005\362L\014,\013\344Y@\222\214"
  22      3B06B605 
  22      F24C0C2C 
  22      0BE45940 
  22      928C
  23 0025 0C1CECE8 		.ascii	"\014\034\354\350rL\027\370\301rL\014l\254\214\014Ll"
  23      724C17F8 
  23      C1724C0C 
  23      6CAC8C0C 
  23      4C6C
  24 0037 1FF420E2 		.ascii	"\037\364 \342@\300\214)\304\000\000\333l\011\322"
  24      40C08C29 
  24      C40000DB 
  24      6C09D2
  25              		.text
  26              		.section	.gnu.lto_.jmpfuncs.53c7930e,"",%progbits
  27 0000 789C6366 		.ascii	"x\234cf\300\016\204\2404\013\003##c=#\210`b``\006\212"
  27      C00E84A0 
  27      340B0323 
  27      23633D23 
  27      88606260 
  28 0017 00000DC0 		.ascii	"\000\000\015\300\001$"
  28      0124
  29              		.text
  30              		.section	.gnu.lto_.pureconst.53c7930e,"",%progbits
  31 0000 789C6366 		.ascii	"x\234cf``\340d\200\000\026\006)F)&)f)\000\002\305\000"
  31      6060E064 
  31      80001606 
ARM GAS  C:\Users\Luggi\AppData\Local\Temp\ccRDrgqk.s 			page 2


  31      29462926 
  31      29662900 
  32 0017 7F       		.ascii	"\177"
  33              		.text
  34              		.section	.gnu.lto_Seed_ref_Write.53c7930e,"",%progbits
  35 0000 789C6591 		.ascii	"x\234e\221MHTQ\030\206\277\367\234{g\2344\210\226\263"
  35      4D485451 
  35      1886BFF7 
  35      9C7B679C 
  35      348896B3 
  36 0014 4C060BA5 		.ascii	"L\006\013\245\235\373\250E[a\266\0031LW\020\"a\034\335"
  36      9DFBA845 
  36      5B61B603 
  36      314C5710 
  36      22611CDD 
  37 0028 7A6E0D06 		.ascii	"zn\015\006A V\214\030B\366\203\325\344O\012\266\210"
  37      4120568C 
  37      1842F683 
  37      D5E44F0A 
  37      B688
  38 003a E02AB6EA 		.ascii	"\340*\266\352Gfa\202\230&\214\375\354\022%\263!\247"
  38      47666182 
  38      98268CFD 
  38      EC1225B3 
  38      21A7
  39 004c EF3B67A3 		.ascii	"\357;g\243x\341\374\334\217\347}\317{\276\243\351\370"
  39      78E1FCDC 
  39      8FE77DCF 
  39      7BBEA3E9 
  39      F8
  40 005d 97E47156 		.ascii	"\227\344qV\021\265\363\012MP\203\237\210\302\006\005"
  40      11B5F30A 
  40      4D50839F 
  40      88C20605 
  41 006d C88640FD 		.ascii	"\310\206@\375\012\375\370\251\266\025\006\243\362pc"
  41      0AFDF8A9 
  41      B61506A3 
  41      F27063
  42 007c CB5363CC 		.ascii	"\313Sc\314\257\241\245\260#\302>\353v\224\363\3018Z"
  42      AFA1A5B0 
  42      23C23EEB 
  42      7694F3C1 
  42      385A
  43 008e 98D9299B 		.ascii	"\230\331)\233{Z\247@\274\237\256|<\210\247\036\033s"
  43      7B5AA740 
  43      BC9FAE7C 
  43      3C88A71E 
  43      1B73
  44 00a0 237A3369 		.ascii	"#z3i.0\016<\203f\005\332\2228\227$.\020\236#%\360\314"
  44      2E300E3C 
  44      836605DA 
  44      92389724 
  44      2E109E23 
  45 00b7 9DC539A5 		.ascii	"\235\3059\245[\255p\354\375\346bS\363\030\013\277\326"
  45      5BAD70EC 
  45      FDE66253 
  45      F3180BBF 
ARM GAS  C:\Users\Luggi\AppData\Local\Temp\ccRDrgqk.s 			page 3


  45      D6
  46 00c8 E63251F8 		.ascii	"\3462Q\370\320\034\324\353V\376\342\260\334}\314o\027"
  46      D01CD4EB 
  46      56FEE2B0 
  46      DC7DCC6F 
  46      17
  47 00d9 FFAD34C6 		.ascii	"\377\2554\306\212\034\354\024\312hv\231\360\0221\360"
  47      8A1CEC14 
  47      CA687699 
  47      F01231F0 
  48 00e9 2295A9D3 		.ascii	"\"\225\251\323\221\251\327g\337\316\377EB\361\261\212"
  48      91A9D767 
  48      DFCEFF45 
  48      42F1B18A 
  49 00f9 2FCA650F 		.ascii	"/\312e\017r\272/\205\230Lq\231\210\252<\344\362[\374"
  49      72BA2F85 
  49      984C7199 
  49      88AA3CE4 
  49      F25BFC
  50 010c C3AB5EC5 		.ascii	"\303\253^\305\302\357\333\353\245\2708\356)\351\304"
  50      C2EFDBEB 
  50      A5B838EE 
  50      29E9C4
  51 011b 72E9F5FD 		.ascii	"r\351\365\375\246\037j_\351\350Qh<\311\260Q]\2524\330"
  51      A61F6A5F 
  51      E9E85168 
  51      3CC9B051 
  51      5DAA34D8 
  52 012f 928DB4F9 		.ascii	"\222\215\264\371\345\326\335\304(\036\204E\316\355a"
  52      E5D6DDC4 
  52      281E8445 
  52      CEED61
  53 013e 02494C82 		.ascii	"\002IL\202#c\012\243\240U\334\3743\260\006g\250\235"
  53      23630AA3 
  53      A055DCFC 
  53      33B00667 
  53      A89D
  54 0150 E7F8BBEF 		.ascii	"\347\370\273\357\363'\305\0005\356\3124\303\237\241"
  54      F327C500 
  54      35EECA34 
  54      C39FA1
  55 015f EC253829 		.ascii	"\354%8)S\"Z\033\370VJ8\225\277\247<V\215\254l\355jQ"
  55      53225A1B 
  55      F8564A38 
  55      95BFA73C 
  55      568DAC6C 
  56 0176 7156BC62 		.ascii	"qV\274b\221\265\376\240\034$\034CO*\033\025\013y\036"
  56      91B5FEA0 
  56      1C241C43 
  56      4F2A1B15 
  56      0B791E
  57 0189 61C641BB 		.ascii	"a\306A\2731\207\304-%\356\013C6\320\221\360a\344\037"
  57      3187C42D 
  57      25EE0B43 
  57      36D091F0 
  57      61E41F
  58 019c 8D3FCBF1 		.ascii	"\215?\313\361YD\353\010\243\232/\274\274A\225\037\222"
ARM GAS  C:\Users\Luggi\AppData\Local\Temp\ccRDrgqk.s 			page 4


  58      5944EB08 
  58      A39A2FBC 
  58      BC41951F 
  58      92
  59 01ad 3BC57D3B 		.ascii	";\305};s9\270\036\344\263\205\340\352\225two>\027d:"
  59      7339B81E 
  59      E4B385E0 
  59      EA957477 
  59      6F3E1764 
  60 01c2 D2DD97DA 		.ascii	"\322\335\227\3323\351\200+\371\240\363|\216\374\276"
  60      33E9802B 
  60      F9A0F37C 
  60      8EFCBE
  61 01d1 ECB5DEE0 		.ascii	"\354\265\336\340DO![\350\312]\354*\364\374\007\305-"
  61      444F215B 
  61      E8CA5DEC 
  61      2AF4FC07 
  61      C52D
  62 01e3 CE6C     		.ascii	"\316l"
  63              		.text
  64              		.section	.gnu.lto_Seed_ref_SetDriveMode.53c7930e,"",%progbits
  65 0000 789C7D51 		.ascii	"x\234}QM(DQ\030\375\316\275o\346\215&\222\225f\251&"
  65      4D284451 
  65      18FDCEBD 
  65      6FE68D26 
  65      929566A9 
  66 0015 29B1B257 		.ascii	")\261\262W\212\255\232\255\222xvLM\254\275al\254\206"
  66      8AAD9AAD 
  66      9278764C 
  66      4DACBD61 
  66      6CAC86
  67 0028 959288E4 		.ascii	"\225\222\210\344\177FI,'\254(b#\012\233\361[d\"L\322"
  67      7F46492C 
  67      27AC2862 
  67      230A9BF1 
  67      5B64224C 
  68 003d 38F78DC5 		.ascii	"8\367\215\305\224r{\367\273\337\371:\347\274\357~W\313"
  68      94727BF7 
  68      BBDFF93A 
  68      E7BCEF7E 
  68      57CB
  69 004f DF15E27E 		.ascii	"\337\025\342~\204H\035Oh\201J\036\211\304\003\0120\211"
  69      84481D4F 
  69      68814A1E 
  69      89C4030A 
  69      3089
  70 0061 40861486 		.ascii	"@\206\024\206\360\240r\012\311\314\352d\260v\301u\335"
  70      F0A0720A 
  70      C9CCEA64 
  70      B076C175 
  70      DD
  71 0072 97B9EDEA 		.ascii	"\227\271\355\352\321\352\274\022yUE\033,\242\226\224"
  71      D1EABC12 
  71      7955451B 
  71      2CA29694 
  72 0082 BBFCC362 		.ascii	"\273\374\303b\271\016C\230\177\217\237\235\252\360\274"
  72      B90E4398 
ARM GAS  C:\Users\Luggi\AppData\Local\Temp\ccRDrgqk.s 			page 5


  72      7F8F9F9D 
  72      AAF0BC
  73 0091 EB0E670E 		.ascii	"\353\016g\016Rn3\362\364\\\202\246\002\365!\324\205"
  73      526E33F2 
  73      F45C82A6 
  73      02F521D4 
  73      85
  74 00a2 8405C132 		.ascii	"\204\005\3012\302\206\234K|\237\005\375\011zW\026=\261"
  74      C2869C4B 
  74      7C9F05FD 
  74      097A5716 
  74      3DB1
  75 00b4 023FDB92 		.ascii	"\002?\333\222tU\306-\024^/\307\227\032\021T\324(\315"
  75      7455C62D 
  75      145E2FC7 
  75      971A1154 
  75      D428CD
  76 00c7 A02D137C 		.ascii	"\240-\023|0r\277Im\023\002&\224\031\216H\226\333\334"
  76      3072BF49 
  76      6D130226 
  76      94198E48 
  76      96DBDC
  77 00da E08680A7 		.ascii	"\340\206\200\247\276\300\356\373\330\355\224e|?\224"
  77      BEC0EEFB 
  77      D8ED9465 
  77      7C3F94
  78 00e9 B9CE4EF6 		.ascii	"\271\316N\366s\006\367*\257\254\271\331\270k\231.\256"
  78      7306F72A 
  78      AFACB9D9 
  78      B86B992E 
  78      AE
  79 00fa B3C72701 		.ascii	"\263\307'\001\257$\006&\267\012{\3664\246\342\0116\357"
  79      AF240626 
  79      B70A7BF6 
  79      34A6E209 
  79      36EF
  80 010c C32A4258 		.ascii	"\303*BX\003\007\206uLC.0|e\027\3554\035\211G>\375El"
  80      03078675 
  80      4C432E30 
  80      7C6517ED 
  80      341D8947 
  81 0124 B144FDF9 		.ascii	"\261D\375\371\363\313\241g\247s\205\337\305Y\246hQ\242"
  81      F3CBA167 
  81      A77385DF 
  81      C559A668 
  81      51A2
  82 0136 E5E72BD5 		.ascii	"\345\347+\325\332,Q{\262\371\264\357\363\264\025\202"
  82      DA2C517B 
  82      B2F9B4EF 
  82      F3B41582 
  83 0146 B4271979 		.ascii	"\264'\031y\373\245\004\274?\330\245.e\254\022\357N\300"
  83      FBA504BC 
  83      3FD8A52E 
  83      65AC12EF 
  83      4EC0
  84 0158 E0FF7ADF 		.ascii	"\340\377z\337`\357\344\313\025\342\231\257V\3036\357"
  84      60EFE4CB 
ARM GAS  C:\Users\Luggi\AppData\Local\Temp\ccRDrgqk.s 			page 6


  84      15E299AF 
  84      56C336EF 
  85 0168 97E55B70 		.ascii	"\227\345[pL\034ZM\233\323\357\304\272\006\234\236\316"
  85      4C1C5A4D 
  85      9BD3EFC4 
  85      BA069C9E 
  85      CE
  86 0179 487430D6 		.ascii	"Ht0\326\355t\264G\242-M\035\021\207\225\230\323\333"
  86      ED74B447 
  86      A22D4D1D 
  86      11879598 
  86      D3DB
  87 018b D02D565F 		.ascii	"\320-V_\264\307\371\001\373\001\270\316"
  87      B4C7F901 
  87      FB01B8CE 
  88              		.text
  89              		.section	.gnu.lto_Seed_ref_Read.53c7930e,"",%progbits
  90 0000 789C6550 		.ascii	"x\234eP=HBQ\024>\337y?\012BDS8F \201\264\265\324\330"
  90      3D484251 
  90      143EDF79 
  90      3F0A4244 
  90      53384620 
  91 0019 D01AB90A 		.ascii	"\320\032\271\012\021\366\032\023\244f\237\246\026Me"
  91      11F61A13 
  91      A4669FA6 
  91      164D65
  92 0028 4B143604 		.ascii	"K\0246\004a\277\0244\025\010\325\324 F\024\030\022\257"
  92      61BF1434 
  92      1508D5D4 
  92      20461418 
  92      12AF
  93 003a 45A1B6EC 		.ascii	"E\241\266\354\377\015e\347\372\332\272p\317\271\347"
  93      FF0D65E7 
  93      FADABA70 
  93      CFB9E7
  94 0049 9CEF7CDF 		.ascii	"\234\357|\3379W\243\377'(w\014D\275\342\241\021x\251"
  94      3957A3FF 
  94      2728770C 
  94      44BDE2A1 
  94      1178A9
  95 005c 4294F233 		.ascii	"B\224\3623\240\036\004J2\222x\342&\243|\362s\203\320"
  95      A01E044A 
  95      329278E2 
  95      26A37CF2 
  95      7383D0
  96 006f 966DA79F 		.ascii	"\226m\247\237\363\245\373@\266\333e\242W&\204\203\350"
  96      F3A5FB40 
  96      B6DB65A2 
  96      57268483 
  96      E8
  97 0080 533C2822 		.ascii	"S<(\"D\002lf\276\253\0013c\333v\247\252Ka\033\246h\320"
  97      44026C66 
  97      BEAB0133 
  97      63DB76A7 
  97      AA4B611B 
  98 0097 61D799DD 		.ascii	"a\327\231\335j\035\277//\014\301\007rY\024\305\350b"
  98      6A1DBF2F 
ARM GAS  C:\Users\Luggi\AppData\Local\Temp\ccRDrgqk.s 			page 7


  98      2F0CC107 
  98      725914C5 
  98      E862
  99 00a9 D850C624 		.ascii	"\330P\306$\305Iu1J\276\301\254\274V\303\305\307\242"
  99      C5497531 
  99      4ABEC1AC 
  99      BC56C3C5 
  99      C7A2
 100 00bb B331A878 		.ascii	"\2631\250x>Y\023\211\227ReE{d\227\265\363\315\224\255"
 100      3E591389 
 100      97526545 
 100      7B6497B5 
 100      F3CD94AD 
 101 00cf 2BD587FA 		.ascii	"+\325\207\372\325\265\277\235\"\0256\216\262\271\216"
 101      D5B5BF9D 
 101      2215368E 
 101      B2B98E
 102 00de 02D65319 		.ascii	"\002\326S\031\270\254c\007A\354B\246\304\036\012\240"
 102      B8AC6307 
 102      41EC42A6 
 102      C41E0AA0 
 103 00ee 1AE6BE72 		.ascii	"\032\346\276re\315#\204\307y\232\277\\5\025\201\014"
 103      65CD2384 
 103      C7799ABF 
 103      5C351581 
 103      0C
 104 00ff 847DC1D6 		.ascii	"\204}\301\326\220v|\036D\027\224jrr\267\206\2271$)M"
 104      90767C1E 
 104      4417946A 
 104      7272B786 
 104      97312429 
 105 0114 6BD5C65B 		.ascii	"k\325\306[{\020C>\342\300k\272\233\017{\030\005#\007"
 105      7B10433E 
 105      E2C06BBA 
 105      9B0F7B18 
 105      052307
 106 0127 F88BDA9B 		.ascii	"\370\213\332\233Am$\373\365\214X\323Vbb\306\232\034"
 106      416D24FB 
 106      F58C58D3 
 106      566262C6 
 106      9A1C
 107 0139 8FC46713 		.ascii	"\217\304g\0231+:\032\211\017\017D#\226d\022\326T\177"
 107      312B3A1A 
 107      890F0F44 
 107      23966412 
 107      D6547F
 108 014c 8C7E01E2 		.ascii	"\214~\001\342\021\200\220"
 108      118090
 109              		.text
 110              		.section	.gnu.lto_Seed_ref_ReadDataReg.53c7930e,"",%progbits
 111 0000 789C6550 		.ascii	"x\234eP=H\202a\020\276\347\276\037\015\033\242)\034"
 111      3D488261 
 111      10BEE7BE 
 111      1F0D1BA2 
 111      291C
 112 0012 239042DA 		.ascii	"#\220B\332ZZ\033Z#\327 \302\276\306\004\251\331O3\215"
 112      5A5A1B5A 
ARM GAS  C:\Users\Luggi\AppData\Local\Temp\ccRDrgqk.s 			page 8


 112      23D720C2 
 112      BEC604A9 
 112      D94F338D 
 113 0026 A630A228 		.ascii	"\2460\242(\\\202(\373\241\241!j\222\246\006I\312\302"
 113      5C8228FB 
 113      A1A1216A 
 113      92A60649 
 113      CAC2
 114 0038 90320285 		.ascii	"\2202\002\205\332\222\242\372\206\264{\375\332z\341"
 114      DA92A2FA 
 114      86B47BFD 
 114      DA7AE1
 115 0047 BD7BEFEE 		.ascii	"\275{\357\356\271\347\271{5\372\177\374r\307A\324'\036"
 115      B9E7B97B 
 115      35FA7FFC 
 115      72C741D4 
 115      271E
 116 0059 1A8157AE 		.ascii	"\032\201W\256\210\342^\006\324\203@1F\014\257\334`\024"
 116      88E25E06 
 116      D4834031 
 116      460CAFDC 
 116      6014
 117 006b CE9A2504 		.ascii	"\316\232%\004vl;\361vSz\360-\3668L\364\316\204\240\037"
 117      766C3BF1 
 117      76537AF0 
 117      2DF6384C 
 117      F4CE84A0 
 118 0080 FD8A07BB 		.ascii	"\375\212\007\273\010\220\000\033\311\237\262\317L\332"
 118      0890001B 
 118      C99FB2CF 
 118      4CDA
 119 008e B6DDA5EA 		.ascii	"\266\335\245\352R\330\203)\032t\334\235\267[\255\223"
 119      52D88329 
 119      1A74DC9D 
 119      B75BAD93 
 120 009e 62666980 		.ascii	"bfi\200= \207EQ\214.\206\015eLR\234T\023\243\344\353"
 120      3D208745 
 120      518C2E86 
 120      0D654C52 
 120      9C5413A3 
 121 00b4 CCCA6B15 		.ascii	"\314\312k\025\\|.7s\303\212\347\2135\221\270[?]\353"
 121      5C7C2E37 
 121      73C38AE7 
 121      8B3591B8 
 121      5B3F5DEB 
 122 00c8 7C6187B5 		.ascii	"|a\207\265\374v\334\326\225\352S\255x\355m\247H\205"
 122      FC76DCD6 
 122      95EA53AD 
 122      78ED6DA7 
 122      4885
 123 00da CF8FE9D5 		.ascii	"\317\217\351\325\216,\266\342I8\254#\007?\366!S\342"
 123      8E2CB6E2 
 123      4938AC23 
 123      073FF621 
 123      53E2
 124 00ec 00595005 		.ascii	"\000YP\005\013\337\251\202\346\022\302\345<\317\\n\230"
 124      0BDFA982 
ARM GAS  C:\Users\Luggi\AppData\Local\Temp\ccRDrgqk.s 			page 9


 124      E612C2E5 
 124      3CCF5C6E 
 124      98
 125 00fd 8A4006C2 		.ascii	"\212@\006\302\241`+HT=.D\027\224j\252\246n\0157cHR\232"
 125      A1602B48 
 125      543D2E44 
 125      17946AAA 
 125      A66E0D37 
 126 0115 36CBF50F 		.ascii	"6\313\365\017M5\031\362\021Gn\323}:\350b\024\214\252"
 126      4D3519F2 
 126      11476ED3 
 126      7D3AE862 
 126      148CAA
 127 0128 C05FD4DE 		.ascii	"\300_\324\336\014j#\331\257w\324\232\265\242Ss\326\364"
 127      0C6A23D9 
 127      AF77D49A 
 127      B5A25373 
 127      D6F4
 128 013a 6428321F 		.ascii	"d(2\037\015[\023c\241\310\310\320D\310\222L\324\232"
 128      0D5B1363 
 128      A1C8C8D0 
 128      44C8924C 
 128      D49A
 129 014c 190CD32F 		.ascii	"\031\014\323/%\010\200\277"
 129      250880BF 
 130              		.text
 131              		.section	.gnu.lto_.symbol_nodes.53c7930e,"",%progbits
 132 0000 789C6366 		.ascii	"x\234cf``pb\200\002&\206z\006\206\011\347\030\030\352"
 132      60607062 
 132      80022686 
 132      7A068609 
 132      E71818EA 
 133 0014 EB19A62D 		.ascii	"\353\031\246-\340``b\254gD\3413\3253\241\360\231\353"
 133      E0606062 
 133      AC6744E1 
 133      33D533A1 
 133      F099EB
 134 0027 9991F90C 		.ascii	"\231\221\371\014\0000N\020\276"
 134      00304E10 
 134      BE
 135              		.text
 136              		.section	.gnu.lto_.refs.53c7930e,"",%progbits
 137 0000 789C6366 		.ascii	"x\234cf```d\200\002\000\000=\000\005"
 137      60606064 
 137      80020000 
 137      3D0005
 138              		.text
 139              		.section	.gnu.lto_.decls.53c7930e,"",%progbits
 140 0000 789C8D92 		.ascii	"x\234\215\222_H\323Q\024\307\357\371\335\237S\177\271"
 140      5F48D351 
 140      14C7EFF9 
 140      DD9F537F 
 140      B9
 141 0011 D943698C 		.ascii	"\331Ci\214\240\325\203\020\210\320C\340[\221\202\022"
 141      A0D58310 
 141      88D043E0 
 141      5B918212 
ARM GAS  C:\Users\Luggi\AppData\Local\Temp\ccRDrgqk.s 			page 10


 142 0021 14E2881E 		.ascii	"\024\342\210\036\024d\314\233\371\342b\315\300\247\256"
 142      1464CC9B 
 142      F9E262CD 
 142      C0A7AE
 143 0030 D370AD48 		.ascii	"\323p\255H\221\"\023\263\201\332\037\313?\371o\316\277"
 143      912213B3 
 143      81DA1FCB 
 143      3FF96FCE 
 143      BF
 144 0041 DB538215 		.ascii	"\333S\202\025\375\231\202F\222\370b\320\303\204\012"
 144      FD998246 
 144      92F862D0 
 144      C3840A
 145 0050 23E9D7F9 		.ascii	"#\351\327\371\335m\356\227M\360\302\331\356\271\277"
 145      DD6DEE97 
 145      4DF0C2D9 
 145      EEB9BF
 146 005f F3F99E73 		.ascii	"\363\371\236s\317=\224\020b\001BT\\g(!>\364S\320JHb"
 146      CF3D9410 
 146      62014254 
 146      5C672821 
 146      3EF453D0 
 147 0076 C9684368 		.ascii	"\311hCh#h~\264\000\371\177\015\351\270>\264,\264\031"
 147      23687EB4 
 147      00F97F0D 
 147      E9B83EB4 
 147      2CB419
 148 0089 B4A9D877 		.ascii	"\264\251\330w\210\305\354\\\232\246a\007\027J\302\216"
 148      88C5EC5C 
 148      9AA66107 
 148      174AC28E 
 149 0099 2461FD31 		.ascii	"$a\37516\316\025\353\270\263:\326\237\204\015\354\221"
 149      36CE15EB 
 149      B8B33AD6 
 149      9F840DEC 
 149      91
 150 00aa 4D76D70D 		.ascii	"Mv\327\015\011\002\375\337\337\354[\227\300\244X4w\242"
 150      0902FDDF 
 150      DFEC5B97 
 150      C0A45834 
 150      77A2
 151 00bc 75AECD80 		.ascii	"u\256\315\200n\206\"k\356\342lSS\032\225@\333w\265\255"
 151      6E86226B 
 151      EEE26C53 
 151      531A9540 
 151      DB77B5AD 
 152 00d0 8695DC5E 		.ascii	"\206\225\334^\316\271\207\007\203\220\220\250\177<y"
 152      CEB98707 
 152      839090A8 
 152      7F3C79
 153 00df 3B15992C 		.ascii	";\025\231,E\270w\346\333CT\270\252\306IKKw\177QPr<\234"
 153      45B877E6 
 153      DB4354B8 
 153      AAC6494B 
 153      4B777F51 
 154 00f7 BB79A495 		.ascii	"\273y\244\225\323C\004r\315p\334L\240\037r0\014z!\227"
 154      D3430472 
ARM GAS  C:\Users\Luggi\AppData\Local\Temp\ccRDrgqk.s 			page 11


 154      CD70DC4C 
 154      A01F7230 
 154      0C7A2197 
 155 010b C07330C3 		.ascii	"\300s0\303\0130\223nL\020y\024^>\314\271\014}\240\300"
 155      0B30936E 
 155      4C107914 
 155      5E3ECCB9 
 155      0C7DA0C0 
 156 011f 33A02202 		.ascii	"3\240\"\002\257\241e\210%m\271\021j\221e\011\017\265"
 156      AFA16588 
 156      256DB911 
 156      6A916509 
 156      0FB5
 157 0131 983251ED 		.ascii	"\2302Q\355\017u\265G\312\276\207\002\274\245\201\357"
 157      0F75B547 
 157      CABE8702 
 157      BCA581EF 
 158 0141 97A1240B 		.ascii	"\227\241$\013\236\240\354S\224%0\010\331\370;\000r\254"
 158      9EA0EC53 
 158      94253008 
 158      D9F83B00 
 158      72AC
 159 0153 EA95E601 		.ascii	"\352\225\346\001#=!\2566\376j\3715X:\271o0\342\351\352"
 159      233D21AE 
 159      36FE6AF9 
 159      35583AB9 
 159      6F30E2E9 
 160 0168 A40FB8CF 		.ascii	"\244\017\270\317\315\377\250X\276\006\301\313\355\002"
 160      CDFFA858 
 160      BE06C1CB 
 160      ED02
 161 0176 88B68F76 		.ascii	"\210\266\217vt\010,\010.lu\177\226\251=\332\237\366"
 161      74082C08 
 161      2E6C757F 
 161      96A93DDA 
 161      9FF6
 162 0188 707BA610 		.ascii	"p{\246\020\361Mt\031\346xPUO\011~X\307\017\307\371\021"
 162      F14D7419 
 162      E6785055 
 162      4F097E58 
 162      C70FC7F9 
 163 019d C1DF6C1C 		.ascii	"\301\337l\034\244\372\202\265\273$*\036\025\025\227"
 163      A4FA82B5 
 163      BB242A1E 
 163      151597
 164 01ac C50AEEF8 		.ascii	"\305\012\356\3706\365!\223\326\211\\\336\337\013+F\221"
 164      36F52193 
 164      D6895CDE 
 164      DF0B2B46 
 164      91
 165 01bd EBCBD735 		.ascii	"\353\313\3275\026l\344[\252J\005\000c\272lc\361l~\221"
 165      166CE45B 
 165      AA4A0500 
 165      63BA6C63 
 165      F16C7E91 
 166 01d1 6DD2FBEE 		.ascii	"m\322\373\356\243\2116\201\220\010\215\325O\233\242"
 166      A3893681 
ARM GAS  C:\Users\Luggi\AppData\Local\Temp\ccRDrgqk.s 			page 12


 166      90088DD5 
 166      4F9BA2
 167 01e0 E53EEC89 		.ascii	"\345>\354\211\227\253\011\214\353\004\306\343\002\001"
 167      97AB098C 
 167      EB04C6E3 
 167      0201
 168 01ee 21C0EFDF 		.ascii	"!\300\357\337\352N\243\035Q\201\321\237\336\200Q\301"
 168      EA4EA31D 
 168      5181D19F 
 168      DE8051C1 
 169 01fe 576DD8C3 		.ascii	"Wm\330\303\253\342\034\204\337z\027\323\243s\260\223"
 169      ABE21C84 
 169      DF7A17D3 
 169      A373B093 
 170 020e 98DE750E 		.ascii	"\230\336u\0166\327\212\033\371i\230\302\276L$\346`\022"
 170      36D78A1B 
 170      F96998C2 
 170      BE4C24E6 
 170      6012
 171 0220 1283109E 		.ascii	"\022\203\020\236w\177\242\031^m\270\260\207\351\305"
 171      777FA219 
 171      5E6DB8B0 
 171      87E9C5
 172 022f 2236D1C3 		.ascii	"\"6\321\303\031\310\020\027\300\377\015\211\366\277"
 172      19C81017 
 172      C0FF0D89 
 172      F6BF
 173 023d 9FED94C0 		.ascii	"\237\355\224\300lV\332p\2107\217@\010\205\264mp]U\257"
 173      6C56DA70 
 173      88378F40 
 173      0885B46D 
 173      705D55AF 
 174 0251 ABD1D59C 		.ascii	"\253\321\325\234*\216=\332\253D\334\2722\2118'\020D"
 174      2A8E3DDA 
 174      AB44DCBA 
 174      32893827 
 174      1044
 175 0263 F1591417 		.ascii	"\361Y\024\027nJmu\215+\337Pt\376\202\245\200\034-b5"
 175      6E4A6D75 
 175      8D2BDF50 
 175      74FE82A5 
 175      801C2D62 
 176 0278 CC6973B1 		.ascii	"\314is\261\312\012\253\243\326ig\345%VG\301\311r{\235"
 176      CA0AABA3 
 176      D66967E5 
 176      255647C1 
 176      C9727B9D 
 177 028c ABEE0ABB 		.ascii	"\253\356\012\273\232w\231\230\254\014?:\331\245\212"
 177      9A779998 
 177      AC0C3F3A 
 177      D9A58A
 178 029b 8BCE6A17 		.ascii	"\213\316j\027;\266\013\020\217\312\263\223\203\333\204"
 178      3BB60B10 
 178      8FCAB393 
 178      83DB84
 179 02aa 95B90A9D 		.ascii	"\225\271\012\235\325\327\3309G%3n\237\2262[\345\201"
 179      D5D7D839 
ARM GAS  C:\Users\Luggi\AppData\Local\Temp\ccRDrgqk.s 			page 13


 179      4725336E 
 179      9F96325B 
 179      E581
 180 02bc 7FBC429B 		.ascii	"\177\274B\233\313V\312\252d'\253\312\377\013lbN\035"
 180      CB56CAAA 
 180      6427ABCA 
 180      FF0B6C62 
 180      4E1D
 181              		.text
 182              		.section	.gnu.lto_.symtab.53c7930e,"",%progbits
 183 0000 53656564 		.ascii	"Seed_ref_Write\000\000\000\000\000\000\000\000\000\000"
 183      5F726566 
 183      5F577269 
 183      74650000 
 183      00000000 
 184 0018 0000B200 		.ascii	"\000\000\262\000\000\000Seed_ref_SetDriveMode\000\000"
 184      00005365 
 184      65645F72 
 184      65665F53 
 184      65744472 
 185 0035 00000000 		.ascii	"\000\000\000\000\000\000\000\000\000\000\264\000\000"
 185      00000000 
 185      0000B400 
 185      00
 186 0042 00536565 		.ascii	"\000Seed_ref_Read\000\000\000\000\000\000\000\000\000"
 186      645F7265 
 186      665F5265 
 186      61640000 
 186      00000000 
 187 0059 000000B7 		.ascii	"\000\000\000\267\000\000\000Seed_ref_ReadDataReg\000"
 187      00000053 
 187      6565645F 
 187      7265665F 
 187      52656164 
 188 0075 00000000 		.ascii	"\000\000\000\000\000\000\000\000\000\000\000\271\000"
 188      00000000 
 188      000000B9 
 188      00
 189 0082 0000     		.ascii	"\000\000"
 190              		.text
 191              		.section	.gnu.lto_.opts,"",%progbits
 192 0000 272D666E 		.ascii	"'-fno-trapv' '-fno-strict-overflow' '-mcpu=cortex-m"
 192      6F2D7472 
 192      61707627 
 192      20272D66 
 192      6E6F2D73 
 193 0033 33272027 		.ascii	"3' '-mthumb' '-g' '-Og' '-ffunction-sections' '-flt"
 193      2D6D7468 
 193      756D6227 
 193      20272D67 
 193      2720272D 
 194 0066 6F272027 		.ascii	"o' '-ffat-lto-objects'\000"
 194      2D666661 
 194      742D6C74 
 194      6F2D6F62 
 194      6A656374 
 195              		.text
ARM GAS  C:\Users\Luggi\AppData\Local\Temp\ccRDrgqk.s 			page 14


 196              		.cfi_sections	.debug_frame
 197              		.section	.text.Seed_ref_Write,"ax",%progbits
 198              		.align	2
 199              		.global	Seed_ref_Write
 200              		.thumb
 201              		.thumb_func
 202              		.type	Seed_ref_Write, %function
 203              	Seed_ref_Write:
 204              	.LFB0:
 205              		.file 1 "Generated_Source\\PSoC5\\Seed_ref.c"
   1:Generated_Source\PSoC5/Seed_ref.c **** /*******************************************************************************
   2:Generated_Source\PSoC5/Seed_ref.c **** * File Name: Seed_ref.c  
   3:Generated_Source\PSoC5/Seed_ref.c **** * Version 2.20
   4:Generated_Source\PSoC5/Seed_ref.c **** *
   5:Generated_Source\PSoC5/Seed_ref.c **** * Description:
   6:Generated_Source\PSoC5/Seed_ref.c **** *  This file contains API to enable firmware control of a Pins component.
   7:Generated_Source\PSoC5/Seed_ref.c **** *
   8:Generated_Source\PSoC5/Seed_ref.c **** * Note:
   9:Generated_Source\PSoC5/Seed_ref.c **** *
  10:Generated_Source\PSoC5/Seed_ref.c **** ********************************************************************************
  11:Generated_Source\PSoC5/Seed_ref.c **** * Copyright 2008-2015, Cypress Semiconductor Corporation.  All rights reserved.
  12:Generated_Source\PSoC5/Seed_ref.c **** * You may use this file only in accordance with the license, terms, conditions, 
  13:Generated_Source\PSoC5/Seed_ref.c **** * disclaimers, and limitations in the end user license agreement accompanying 
  14:Generated_Source\PSoC5/Seed_ref.c **** * the software package with which this file was provided.
  15:Generated_Source\PSoC5/Seed_ref.c **** *******************************************************************************/
  16:Generated_Source\PSoC5/Seed_ref.c **** 
  17:Generated_Source\PSoC5/Seed_ref.c **** #include "cytypes.h"
  18:Generated_Source\PSoC5/Seed_ref.c **** #include "Seed_ref.h"
  19:Generated_Source\PSoC5/Seed_ref.c **** 
  20:Generated_Source\PSoC5/Seed_ref.c **** /* APIs are not generated for P15[7:6] on PSoC 5 */
  21:Generated_Source\PSoC5/Seed_ref.c **** #if !(CY_PSOC5A &&\
  22:Generated_Source\PSoC5/Seed_ref.c **** 	 Seed_ref__PORT == 15 && ((Seed_ref__MASK & 0xC0) != 0))
  23:Generated_Source\PSoC5/Seed_ref.c **** 
  24:Generated_Source\PSoC5/Seed_ref.c **** 
  25:Generated_Source\PSoC5/Seed_ref.c **** /*******************************************************************************
  26:Generated_Source\PSoC5/Seed_ref.c **** * Function Name: Seed_ref_Write
  27:Generated_Source\PSoC5/Seed_ref.c **** ****************************************************************************//**
  28:Generated_Source\PSoC5/Seed_ref.c **** *
  29:Generated_Source\PSoC5/Seed_ref.c **** * \brief Writes the value to the physical port (data output register), masking
  30:Generated_Source\PSoC5/Seed_ref.c **** *  and shifting the bits appropriately. 
  31:Generated_Source\PSoC5/Seed_ref.c **** *
  32:Generated_Source\PSoC5/Seed_ref.c **** * The data output register controls the signal applied to the physical pin in 
  33:Generated_Source\PSoC5/Seed_ref.c **** * conjunction with the drive mode parameter. This function avoids changing 
  34:Generated_Source\PSoC5/Seed_ref.c **** * other bits in the port by using the appropriate method (read-modify-write or
  35:Generated_Source\PSoC5/Seed_ref.c **** * bit banding).
  36:Generated_Source\PSoC5/Seed_ref.c **** *
  37:Generated_Source\PSoC5/Seed_ref.c **** * <b>Note</b> This function should not be used on a hardware digital output pin 
  38:Generated_Source\PSoC5/Seed_ref.c **** * as it is driven by the hardware signal attached to it.
  39:Generated_Source\PSoC5/Seed_ref.c **** *
  40:Generated_Source\PSoC5/Seed_ref.c **** * \param value
  41:Generated_Source\PSoC5/Seed_ref.c **** *  Value to write to the component instance.
  42:Generated_Source\PSoC5/Seed_ref.c **** *
  43:Generated_Source\PSoC5/Seed_ref.c **** * \return 
  44:Generated_Source\PSoC5/Seed_ref.c **** *  None 
  45:Generated_Source\PSoC5/Seed_ref.c **** *
  46:Generated_Source\PSoC5/Seed_ref.c **** * \sideeffect
  47:Generated_Source\PSoC5/Seed_ref.c **** *  If you use read-modify-write operations that are not atomic; the Interrupt 
ARM GAS  C:\Users\Luggi\AppData\Local\Temp\ccRDrgqk.s 			page 15


  48:Generated_Source\PSoC5/Seed_ref.c **** *  Service Routines (ISR) can cause corruption of this function. An ISR that 
  49:Generated_Source\PSoC5/Seed_ref.c **** *  interrupts this function and performs writes to the Pins component data 
  50:Generated_Source\PSoC5/Seed_ref.c **** *  register can cause corrupted port data. To avoid this issue, you should 
  51:Generated_Source\PSoC5/Seed_ref.c **** *  either use the Per-Pin APIs (primary method) or disable interrupts around 
  52:Generated_Source\PSoC5/Seed_ref.c **** *  this function.
  53:Generated_Source\PSoC5/Seed_ref.c **** *
  54:Generated_Source\PSoC5/Seed_ref.c **** * \funcusage
  55:Generated_Source\PSoC5/Seed_ref.c **** *  \snippet Seed_ref_SUT.c usage_Seed_ref_Write
  56:Generated_Source\PSoC5/Seed_ref.c **** *******************************************************************************/
  57:Generated_Source\PSoC5/Seed_ref.c **** void Seed_ref_Write(uint8 value)
  58:Generated_Source\PSoC5/Seed_ref.c **** {
 206              		.loc 1 58 0
 207              		.cfi_startproc
 208              		@ args = 0, pretend = 0, frame = 0
 209              		@ frame_needed = 0, uses_anonymous_args = 0
 210              		@ link register save eliminated.
 211              	.LVL0:
  59:Generated_Source\PSoC5/Seed_ref.c ****     uint8 staticBits = (Seed_ref_DR & (uint8)(~Seed_ref_MASK));
 212              		.loc 1 59 0
 213 0000 044A     		ldr	r2, .L2
 214 0002 1378     		ldrb	r3, [r2]	@ zero_extendqisi2
 215 0004 03F0FB03 		and	r3, r3, #251
 216              	.LVL1:
  60:Generated_Source\PSoC5/Seed_ref.c ****     Seed_ref_DR = staticBits | ((uint8)(value << Seed_ref_SHIFT) & Seed_ref_MASK);
 217              		.loc 1 60 0
 218 0008 8000     		lsls	r0, r0, #2
 219              	.LVL2:
 220 000a 00F00400 		and	r0, r0, #4
 221 000e 1843     		orrs	r0, r0, r3
 222 0010 1070     		strb	r0, [r2]
 223 0012 7047     		bx	lr
 224              	.L3:
 225              		.align	2
 226              	.L2:
 227 0014 40510040 		.word	1073762624
 228              		.cfi_endproc
 229              	.LFE0:
 230              		.size	Seed_ref_Write, .-Seed_ref_Write
 231              		.section	.text.Seed_ref_SetDriveMode,"ax",%progbits
 232              		.align	2
 233              		.global	Seed_ref_SetDriveMode
 234              		.thumb
 235              		.thumb_func
 236              		.type	Seed_ref_SetDriveMode, %function
 237              	Seed_ref_SetDriveMode:
 238              	.LFB1:
  61:Generated_Source\PSoC5/Seed_ref.c **** }
  62:Generated_Source\PSoC5/Seed_ref.c **** 
  63:Generated_Source\PSoC5/Seed_ref.c **** 
  64:Generated_Source\PSoC5/Seed_ref.c **** /*******************************************************************************
  65:Generated_Source\PSoC5/Seed_ref.c **** * Function Name: Seed_ref_SetDriveMode
  66:Generated_Source\PSoC5/Seed_ref.c **** ****************************************************************************//**
  67:Generated_Source\PSoC5/Seed_ref.c **** *
  68:Generated_Source\PSoC5/Seed_ref.c **** * \brief Sets the drive mode for each of the Pins component's pins.
  69:Generated_Source\PSoC5/Seed_ref.c **** * 
  70:Generated_Source\PSoC5/Seed_ref.c **** * <b>Note</b> This affects all pins in the Pins component instance. Use the
  71:Generated_Source\PSoC5/Seed_ref.c **** * Per-Pin APIs if you wish to control individual pin's drive modes.
ARM GAS  C:\Users\Luggi\AppData\Local\Temp\ccRDrgqk.s 			page 16


  72:Generated_Source\PSoC5/Seed_ref.c **** *
  73:Generated_Source\PSoC5/Seed_ref.c **** * \param mode
  74:Generated_Source\PSoC5/Seed_ref.c **** *  Mode for the selected signals. Valid options are documented in 
  75:Generated_Source\PSoC5/Seed_ref.c **** *  \ref driveMode.
  76:Generated_Source\PSoC5/Seed_ref.c **** *
  77:Generated_Source\PSoC5/Seed_ref.c **** * \return
  78:Generated_Source\PSoC5/Seed_ref.c **** *  None
  79:Generated_Source\PSoC5/Seed_ref.c **** *
  80:Generated_Source\PSoC5/Seed_ref.c **** * \sideeffect
  81:Generated_Source\PSoC5/Seed_ref.c **** *  If you use read-modify-write operations that are not atomic, the ISR can
  82:Generated_Source\PSoC5/Seed_ref.c **** *  cause corruption of this function. An ISR that interrupts this function 
  83:Generated_Source\PSoC5/Seed_ref.c **** *  and performs writes to the Pins component Drive Mode registers can cause 
  84:Generated_Source\PSoC5/Seed_ref.c **** *  corrupted port data. To avoid this issue, you should either use the Per-Pin
  85:Generated_Source\PSoC5/Seed_ref.c **** *  APIs (primary method) or disable interrupts around this function.
  86:Generated_Source\PSoC5/Seed_ref.c **** *
  87:Generated_Source\PSoC5/Seed_ref.c **** * \funcusage
  88:Generated_Source\PSoC5/Seed_ref.c **** *  \snippet Seed_ref_SUT.c usage_Seed_ref_SetDriveMode
  89:Generated_Source\PSoC5/Seed_ref.c **** *******************************************************************************/
  90:Generated_Source\PSoC5/Seed_ref.c **** void Seed_ref_SetDriveMode(uint8 mode)
  91:Generated_Source\PSoC5/Seed_ref.c **** {
 239              		.loc 1 91 0
 240              		.cfi_startproc
 241              		@ args = 0, pretend = 0, frame = 0
 242              		@ frame_needed = 0, uses_anonymous_args = 0
 243              		@ link register save eliminated.
 244              	.LVL3:
  92:Generated_Source\PSoC5/Seed_ref.c **** 	CyPins_SetPinDriveMode(Seed_ref_0, mode);
 245              		.loc 1 92 0
 246 0000 044A     		ldr	r2, .L5
 247 0002 1378     		ldrb	r3, [r2]	@ zero_extendqisi2
 248 0004 03F0F103 		and	r3, r3, #241
 249 0008 00F00E00 		and	r0, r0, #14
 250              	.LVL4:
 251 000c 1843     		orrs	r0, r0, r3
 252 000e 1070     		strb	r0, [r2]
 253 0010 7047     		bx	lr
 254              	.L6:
 255 0012 00BF     		.align	2
 256              	.L5:
 257 0014 22500040 		.word	1073762338
 258              		.cfi_endproc
 259              	.LFE1:
 260              		.size	Seed_ref_SetDriveMode, .-Seed_ref_SetDriveMode
 261              		.section	.text.Seed_ref_Read,"ax",%progbits
 262              		.align	2
 263              		.global	Seed_ref_Read
 264              		.thumb
 265              		.thumb_func
 266              		.type	Seed_ref_Read, %function
 267              	Seed_ref_Read:
 268              	.LFB2:
  93:Generated_Source\PSoC5/Seed_ref.c **** }
  94:Generated_Source\PSoC5/Seed_ref.c **** 
  95:Generated_Source\PSoC5/Seed_ref.c **** 
  96:Generated_Source\PSoC5/Seed_ref.c **** /*******************************************************************************
  97:Generated_Source\PSoC5/Seed_ref.c **** * Function Name: Seed_ref_Read
  98:Generated_Source\PSoC5/Seed_ref.c **** ****************************************************************************//**
ARM GAS  C:\Users\Luggi\AppData\Local\Temp\ccRDrgqk.s 			page 17


  99:Generated_Source\PSoC5/Seed_ref.c **** *
 100:Generated_Source\PSoC5/Seed_ref.c **** * \brief Reads the associated physical port (pin status register) and masks 
 101:Generated_Source\PSoC5/Seed_ref.c **** *  the required bits according to the width and bit position of the component
 102:Generated_Source\PSoC5/Seed_ref.c **** *  instance. 
 103:Generated_Source\PSoC5/Seed_ref.c **** *
 104:Generated_Source\PSoC5/Seed_ref.c **** * The pin's status register returns the current logic level present on the 
 105:Generated_Source\PSoC5/Seed_ref.c **** * physical pin.
 106:Generated_Source\PSoC5/Seed_ref.c **** *
 107:Generated_Source\PSoC5/Seed_ref.c **** * \return 
 108:Generated_Source\PSoC5/Seed_ref.c **** *  The current value for the pins in the component as a right justified number.
 109:Generated_Source\PSoC5/Seed_ref.c **** *
 110:Generated_Source\PSoC5/Seed_ref.c **** * \funcusage
 111:Generated_Source\PSoC5/Seed_ref.c **** *  \snippet Seed_ref_SUT.c usage_Seed_ref_Read  
 112:Generated_Source\PSoC5/Seed_ref.c **** *******************************************************************************/
 113:Generated_Source\PSoC5/Seed_ref.c **** uint8 Seed_ref_Read(void)
 114:Generated_Source\PSoC5/Seed_ref.c **** {
 269              		.loc 1 114 0
 270              		.cfi_startproc
 271              		@ args = 0, pretend = 0, frame = 0
 272              		@ frame_needed = 0, uses_anonymous_args = 0
 273              		@ link register save eliminated.
 115:Generated_Source\PSoC5/Seed_ref.c ****     return (Seed_ref_PS & Seed_ref_MASK) >> Seed_ref_SHIFT;
 274              		.loc 1 115 0
 275 0000 024B     		ldr	r3, .L8
 276 0002 1878     		ldrb	r0, [r3]	@ zero_extendqisi2
 116:Generated_Source\PSoC5/Seed_ref.c **** }
 277              		.loc 1 116 0
 278 0004 C0F38000 		ubfx	r0, r0, #2, #1
 279 0008 7047     		bx	lr
 280              	.L9:
 281 000a 00BF     		.align	2
 282              	.L8:
 283 000c 41510040 		.word	1073762625
 284              		.cfi_endproc
 285              	.LFE2:
 286              		.size	Seed_ref_Read, .-Seed_ref_Read
 287              		.section	.text.Seed_ref_ReadDataReg,"ax",%progbits
 288              		.align	2
 289              		.global	Seed_ref_ReadDataReg
 290              		.thumb
 291              		.thumb_func
 292              		.type	Seed_ref_ReadDataReg, %function
 293              	Seed_ref_ReadDataReg:
 294              	.LFB3:
 117:Generated_Source\PSoC5/Seed_ref.c **** 
 118:Generated_Source\PSoC5/Seed_ref.c **** 
 119:Generated_Source\PSoC5/Seed_ref.c **** /*******************************************************************************
 120:Generated_Source\PSoC5/Seed_ref.c **** * Function Name: Seed_ref_ReadDataReg
 121:Generated_Source\PSoC5/Seed_ref.c **** ****************************************************************************//**
 122:Generated_Source\PSoC5/Seed_ref.c **** *
 123:Generated_Source\PSoC5/Seed_ref.c **** * \brief Reads the associated physical port's data output register and masks 
 124:Generated_Source\PSoC5/Seed_ref.c **** *  the correct bits according to the width and bit position of the component 
 125:Generated_Source\PSoC5/Seed_ref.c **** *  instance. 
 126:Generated_Source\PSoC5/Seed_ref.c **** *
 127:Generated_Source\PSoC5/Seed_ref.c **** * The data output register controls the signal applied to the physical pin in 
 128:Generated_Source\PSoC5/Seed_ref.c **** * conjunction with the drive mode parameter. This is not the same as the 
 129:Generated_Source\PSoC5/Seed_ref.c **** * preferred Seed_ref_Read() API because the 
ARM GAS  C:\Users\Luggi\AppData\Local\Temp\ccRDrgqk.s 			page 18


 130:Generated_Source\PSoC5/Seed_ref.c **** * Seed_ref_ReadDataReg() reads the data register instead of the status 
 131:Generated_Source\PSoC5/Seed_ref.c **** * register. For output pins this is a useful function to determine the value 
 132:Generated_Source\PSoC5/Seed_ref.c **** * just written to the pin.
 133:Generated_Source\PSoC5/Seed_ref.c **** *
 134:Generated_Source\PSoC5/Seed_ref.c **** * \return 
 135:Generated_Source\PSoC5/Seed_ref.c **** *  The current value of the data register masked and shifted into a right 
 136:Generated_Source\PSoC5/Seed_ref.c **** *  justified number for the component instance.
 137:Generated_Source\PSoC5/Seed_ref.c **** *
 138:Generated_Source\PSoC5/Seed_ref.c **** * \funcusage
 139:Generated_Source\PSoC5/Seed_ref.c **** *  \snippet Seed_ref_SUT.c usage_Seed_ref_ReadDataReg 
 140:Generated_Source\PSoC5/Seed_ref.c **** *******************************************************************************/
 141:Generated_Source\PSoC5/Seed_ref.c **** uint8 Seed_ref_ReadDataReg(void)
 142:Generated_Source\PSoC5/Seed_ref.c **** {
 295              		.loc 1 142 0
 296              		.cfi_startproc
 297              		@ args = 0, pretend = 0, frame = 0
 298              		@ frame_needed = 0, uses_anonymous_args = 0
 299              		@ link register save eliminated.
 143:Generated_Source\PSoC5/Seed_ref.c ****     return (Seed_ref_DR & Seed_ref_MASK) >> Seed_ref_SHIFT;
 300              		.loc 1 143 0
 301 0000 024B     		ldr	r3, .L11
 302 0002 1878     		ldrb	r0, [r3]	@ zero_extendqisi2
 144:Generated_Source\PSoC5/Seed_ref.c **** }
 303              		.loc 1 144 0
 304 0004 C0F38000 		ubfx	r0, r0, #2, #1
 305 0008 7047     		bx	lr
 306              	.L12:
 307 000a 00BF     		.align	2
 308              	.L11:
 309 000c 40510040 		.word	1073762624
 310              		.cfi_endproc
 311              	.LFE3:
 312              		.size	Seed_ref_ReadDataReg, .-Seed_ref_ReadDataReg
 313              		.text
 314              	.Letext0:
 315              		.file 2 "Generated_Source\\PSoC5\\cytypes.h"