ARM GAS  C:\Users\Luggi\AppData\Local\Temp\cckCEzld.s 			page 1


   1              		.syntax unified
   2              		.cpu cortex-m3
   3              		.fpu softvfp
   4              		.eabi_attribute 20, 1
   5              		.eabi_attribute 21, 1
   6              		.eabi_attribute 23, 3
   7              		.eabi_attribute 24, 1
   8              		.eabi_attribute 25, 1
   9              		.eabi_attribute 26, 1
  10              		.eabi_attribute 30, 1
  11              		.eabi_attribute 34, 1
  12              		.eabi_attribute 18, 4
  13              		.thumb
  14              		.file	"seed_diode.c"
  15              		.text
  16              	.Ltext0:
  17              		.section	.gnu.lto_.profile.304b625c,"",%progbits
  18 0000 789C6366 		.ascii	"x\234cf```a\200\000F\0061!\000\000\262\0001"
  18      60606061 
  18      80004606 
  18      31210000 
  18      B20031
  19              		.text
  20              		.section	.gnu.lto_.inline.304b625c,"",%progbits
  21 0000 789C6366 		.ascii	"x\234cf\300\016\022\2404\013\003\003\007;##\003#\003"
  21      C00E12A0 
  21      340B0303 
  21      073B2323 
  21      032303
  22 0013 0333C701 		.ascii	"\0033\307\001;\006\266\005\362L\014L\027\370Y@\222\214"
  22      3B06B605 
  22      F24C0C4C 
  22      17F85940 
  22      928C
  23 0025 78E49818 		.ascii	"x\344\230\030XY\030\031\230X\026\310C\304\201\200\031"
  23      58591819 
  23      985816C8 
  23      43C48180 
  23      19
  24 0036 53880100 		.ascii	"S\210\001\000\322\320\011("
  24      D2D00928 
  25              		.text
  26              		.section	.gnu.lto_.jmpfuncs.304b625c,"",%progbits
  27 0000 789C6366 		.ascii	"x\234cf\300\016\204\2404\013\003##c=#\210`b``\006\212"
  27      C00E84A0 
  27      340B0323 
  27      23633D23 
  27      88606260 
  28 0017 00000DC0 		.ascii	"\000\000\015\300\001$"
  28      0124
  29              		.text
  30              		.section	.gnu.lto_.pureconst.304b625c,"",%progbits
  31 0000 789C6366 		.ascii	"x\234cf``\340d\200\000\026\006)F)&)f)\000\002\305\000"
  31      6060E064 
  31      80001606 
  31      29462926 
  31      29662900 
ARM GAS  C:\Users\Luggi\AppData\Local\Temp\cckCEzld.s 			page 2


  32 0017 7F       		.ascii	"\177"
  33              		.text
  34              		.section	.gnu.lto_seed_diode_Write.304b625c,"",%progbits
  35 0000 789C6591 		.ascii	"x\234e\221Mh\023Q\024\205\357\271o&\211\326\205\270"
  35      4D681351 
  35      1485EFB9 
  35      6F2689D6 
  35      85B8
  36 0012 9C6D2D41 		.ascii	"\234m-A\320\356\304\255\350\302m\241\333@\011\311,\002"
  36      D0EEC4AD 
  36      E8C26DA1 
  36      DB4009C9 
  36      2C02
  37 0024 62A049DD 		.ascii	"b\240I\335\346\215\015Y\024\012\245\010\012\"\232\226"
  37      E68D0D59 
  37      140AA508 
  37      0A229A96 
  38 0034 FE68B4AD 		.ascii	"\376h\264\255\025\352\2520\226\356\212\306l\024J\350"
  38      15EAAA30 
  38      96EE8AC6 
  38      6C144AE8 
  39 0044 0F444970 		.ascii	"\017DIp\323\320b\372\243\211\367\315l,\016\274yo\016"
  39      D3D062FA 
  39      A389F7CD 
  39      6C2C0EBC 
  39      796F0E
  40 0057 E7BBF7BC 		.ascii	"\347\273\367\274;\212\376\177\034Y]\020\335\222\035"
  40      3B8AFE7F 
  40      1C595D10 
  40      DD921D
  41 0066 8AC0539F 		.ascii	"\212\300S\237\211\274\030\003\346@\240\002\243\200\026"
  41      89BC1803 
  41      E640A002 
  41      A38016
  42 0075 B719537E 		.ascii	"\267\031S~\345i_|Nk}0]\365\206|\2340\321!\207u\260\200"
  42      E5695F7C 
  42      4E6B7D30 
  42      5DF5867C 
  42      9C30D121 
  43 008d B8780E2B 		.ascii	"\270x\016+\372\261Rq\220\234Wj\237\272\321\201Y\255"
  43      FAB15271 
  43      909C576A 
  43      9FBAD181 
  43      59AD
  44 009f 1FF9EB4B 		.ascii	"\037\371\353K\372\266\330\201E(!p\335\3015\207D \274"
  44      FAB6D881 
  44      45282170 
  44      DDC13587 
  44      4420BC
  45 00b2 C28031AF 		.ascii	"\302\2001\257Nn\256\261\272\021\200\345\255\375\315"
  45      4E6EAEB1 
  45      BA1180E5 
  45      ADFDCD
  46 00c1 4BFD6501 		.ascii	"K\375e\001\367\316\326\022\276\367Rw{\275\000\177\375"
  46      F7CED612 
  46      BEF75277 
  46      7BBD007F 
ARM GAS  C:\Users\Luggi\AppData\Local\Temp\cckCEzld.s 			page 3


  46      FD
  47 00d2 2F1E3EE2 		.ascii	"/\036>\342o\027\377|\353\213\024%\330eT\320\037f\302"
  47      6F17FF7C 
  47      EB8B1425 
  47      D86554D0 
  47      1F66C2
  48 00e5 1B44E45E 		.ascii	"\033D\344^0\312\362\025_\367z\357\327?\236\"\306\322"
  48      30CAF215 
  48      5FF77AEF 
  48      D73F9E22 
  48      C6D2
  49 00f7 96E5A222 		.ascii	"\226\345\242\"[0\335m#D\314\213\250!\313\334\373\273"
  49      5B30DD6D 
  49      2344CC8B 
  49      A821CBDC 
  49      FBBB
  50 0109 7CC8AEB6 		.ascii	"|\310\256\266\261\361kb\347I\324\024\353\260\031\302"
  50      B1F16B62 
  50      E749D414 
  50      EBB019C2 
  51 0119 56FBB7D3 		.ascii	"V\373\267\323\344\023V_f<m\231\356\273\215j-\026HA\230"
  51      E413565F 
  51      663C6D99 
  51      EEBB8D6A 
  51      2D164841 
  52 012e F27CA583 		.ascii	"\362|\245\203\347x\346\025%\261\205\267p\260\004\011"
  52      E778E615 
  52      25B185B7 
  52      70B00409 
  53 013e 8B655169 		.ascii	"\213eQi\033\343\307\245:\302z*,\371\242\325mZ\246\000"
  53      1BE3C7A5 
  53      3AC27A2A 
  53      2CF9A2D5 
  53      6D5AA600 
  54 0152 0A8415F1 		.ascii	"\012\204\025\361~\005\007\351%\242\230\014S/\375\370"
  54      7E0507E9 
  54      25A2980C 
  54      532FFDF8 
  55 0162 702184EC 		.ascii	"p!\204\354\016[\002uf\367~\302@\034%\274\023H\\G\245"
  55      0E5B0275 
  55      66F77EC2 
  55      401C25BC 
  55      13485C47 
  56 0177 3A87A6D0 		.ascii	":\207\246\320g\320\215\351\240\331\271`\236o\237\217"
  56      67D08DE9 
  56      A0D9B960 
  56      9E6F9F8F 
  57 0187 B62ABA40 		.ascii	"\266*\272@\264\003\317?\263\215\337L\266!\277G\206 "
  57      B403CF3F 
  57      B38DDF4C 
  57      B621BF47 
  57      8620
  58 0199 23B97ACF 		.ascii	"#\271z\317}\340\216&\363nzd8;6\232r\023C\303\331\273"
  58      7DE08E26 
  58      F36E7A64 
  58      383B369A 
  58      721343C3 
ARM GAS  C:\Users\Luggi\AppData\Local\Temp\cckCEzld.s 			page 4


  59 01af 37133957 		.ascii	"7\0239W\224t&\233v\007Sd?L\336\037s/\346\362\311|&u"
  59      9474269B 
  59      76075364 
  59      3F4CDE1F 
  59      732FE6F2 
  60 01c7 2793CFFD 		.ascii	"'\223\317\375\005\361\316\303\230"
  60      05F1CEC3 
  60      98
  61              		.text
  62              		.section	.gnu.lto_seed_diode_SetDriveMode.304b625c,"",%progbits
  63 0000 789C7D51 		.ascii	"x\234}QM(DQ\030\375\316\275o~4HV\2325M\"V\366J\261U"
  63      4D284451 
  63      18FDCEBD 
  63      6F7E3448 
  63      569A354D 
  64 001a B64A326F 		.ascii	"\266J2oa\301\224\237\2657\214\215\025V$%\222\177\243"
  64      61C1949F 
  64      B5378C8D 
  64      15562425 
  64      927FA3
  65 002d 2C948526 		.ascii	",\224\205&\331\371\267\021\205\315\370\015\231\010\223"
  65      D9F9B711 
  65      85CDF80D 
  65      990893
  66 003c 34CE7D63 		.ascii	"4\316}c1\245\334\336\375\276{\276\276s\336\271\337\325"
  66      31A5DCDE 
  66      FDBE7BBE 
  66      BE73DEB9 
  66      DFD5
  67 004e F27705B9 		.ascii	"\362w\005\271\037 R\301\014-P\303\007\"Q\277\002\314"
  67      1F2052C1 
  67      0C2D50C3 
  67      072251BF 
  67      02CC
  68 0060 41207D0A 		.ascii	"A }\012}\270W)\205\341\304\322X 4\3538\316\313\364F"
  68      7DB85729 
  68      85E1C4D2 
  68      582034EB 
  68      38CECBF4 
  69 0075 C960495A 		.ascii	"\311`IZ\211\274\252\254\014\346\020b\313m\372~\256@"
  69      89BCAAAC 
  69      0CE61062 
  69      CB6DFA7E 
  69      AE40
  70 0087 87203C7F 		.ascii	"\207 <\177\217\234\236\250\262\031\307\351O\354\255"
  70      8F9C9EA8 
  70      B219C7E9 
  70      4FECAD
  71 0096 3AB54853 		.ascii	":\265HSs\036\232\014T\006Q\036\024\026\004\013(3\315"
  71      731E9A0C 
  71      5406511E 
  71      1416040B 
  71      2833CD
  72 00a9 A9D8F769 		.ascii	"\251\330\367i\300\033\243vQV\023\213\360\322\226\304"
  72      C01BA376 
  72      5156138B 
  72      F0D296C4 
ARM GAS  C:\Users\Luggi\AppData\Local\Temp\cckCEzld.s 			page 5


  73 00b9 8B134E26 		.ascii	"\213\023N&\363z12_\215\200\"Gi\006m\231\340\201\241"
  73      F37A3132 
  73      5F8D8022 
  73      4769066D 
  73      99E081A1 
  74 00cd 7BCDD167 		.ascii	"{\315\321g\202\337\204<\323#\222\34467\270&`\326\347"
  74      82DF843C 
  74      D32392E4 
  74      3637B826 
  74      60D6E7
  75 00e0 D87E1FBA 		.ascii	"\330~\037\272\231\260\214\356\2072\327y\274\332?\362"
  75      99B08CEE 
  75      8732D779 
  75      BCDA3FF2 
  76 00f0 DCA9B4B2 		.ascii	"\334\251\264\262\342SQ\3072.\256\222\207\307~\267$\006"
  76      E25351C7 
  76      322EAE92 
  76      87C77EB7 
  76      2406
  77 0102 8E6FDE6D 		.ascii	"\216o\336m\345Ob\"\032\243y\017\226\020\304280\254`"
  77      E54F6222 
  77      1AA3790F 
  77      9610C432 
  77      3830AC60 
  78 0116 12728EFE 		.ascii	"\022r\216\376K_VNS\221x\340\323\233\305\026K\344\237"
  78      4B5F564E 
  78      539178E0 
  78      D39BC516 
  78      4BE49F
  79 0129 3DBFECBA 		.ascii	"=\277\354\272r:\225\371]\234\345*%r\270\374<\271\\\037"
  79      723A95F9 
  79      5D9CE52A 
  79      2572B8FC 
  79      3CB95C1F 
  80 013d 4BE41EAF 		.ascii	"K\344\036\257?\355\270\356t\241 \356R\006\336~[\374"
  80      3FEDB8EE 
  80      74A120EE 
  80      5206DE7E 
  80      5BFC
  81 014f EE1F7CB9 		.ascii	"\356\037|\271*y\254\022o\217\302\340\377\274\257\321"
  81      2A79AC12 
  81      6F8FC2E0 
  81      FFBCAFD1 
  82 015f 3BFBE512 		.ascii	";\373\345\022\321\304W\275\3516\357\227\344[pL\034Z"
  82      D1C457BD 
  82      E936EF97 
  82      E45B704C 
  82      1C5A
  83 0171 6983DD69 		.ascii	"i\203\335iw\265\366\330\341\226\246HoW\233\335\334\330"
  83      77B5F6D8 
  83      E196A648 
  83      6F579BDD 
  83      DCD8
  84 0183 14A9AB69 		.ascii	"\024\251\253i\356\266Y\011\267G\302vU\233X\035\314?"
  84      EEB65909 
  84      B747C276 
  84      559B581D 
ARM GAS  C:\Users\Luggi\AppData\Local\Temp\cckCEzld.s 			page 6


  84      CC3F
  85 0195 C7BFB9F2 		.ascii	"\307\277\271\362"
  86              		.text
  87              		.section	.gnu.lto_seed_diode_Read.304b625c,"",%progbits
  88 0000 789C6366 		.ascii	"x\234cf\300\004R@\374\007\210\325\200\230\221\231\201"
  88      C0045240 
  88      FC0788D5 
  88      80989199 
  88      81
  89 0011 9169C239 		.ascii	"\221i\3029\006\206F\016&FF\020\203\201\221\241\236\211"
  89      0686460E 
  89      26464610 
  89      838191A1 
  89      9E89
  90 0023 B19EF125 		.ascii	"\261\236\361%\323G&\3063;\377]fT_\332\320\320\364a\322"
  90      D34726C6 
  90      333BFF5D 
  90      66545FDA 
  90      D0D0F461 
  91 0038 DE3BDCAD 		.ascii	"\336;\334\255\022?\231\030\030>310\352H1j\202\314a\\"
  91      123F9918 
  91      183E3331 
  91      30EA4831 
  91      6A82CC61 
  92 004d CEA8CE00 		.ascii	"\316\250\316\000T\370\261\345\357un\266\226\206\206"
  92      54F8B1E5 
  92      EF756EB6 
  92      968686
  93 005c 0601903C 		.ascii	"\006\001\220<Pb\005#\033#\220^/t\240\341\377\377\315"
  93      50620523 
  93      1B23905E 
  93      2F74A0E1 
  93      FFFFCD
  94 006f 5F277658 		.ascii	"_'vX3\26201\374d\002\332\0102\204\341\011\220\000\331"
  94      33B23031 
  94      FC6402DA 
  94      083284E1 
  94      099000D9 
  95 0083 F7948909 		.ascii	"\367\224\211\011D3\337b<\364\255\353\336<+\220\306\357"
  95      4433DF62 
  95      3CF4ADEB 
  95      DE3C2B90 
  95      C6EF
  96 0095 4C20CB4F 		.ascii	"L \313O\315\351}\312\372\202\351'\023\323\305E\215\015"
  96      CDE97DCA 
  96      FA82E927 
  96      13D3C545 
  96      8D0D
  97 00a7 2C206BEE 		.ascii	", k\356?9\177\221\003,\304\000\342\236\376\267\376?"
  97      3F397F91 
  97      032CC400 
  97      E29EFEB7 
  97      FE3F
  98 00b9 CF5CC6D9 		.ascii	"\317\\\306\331\215-\214?\231\230\031W2J1\256b\004:\213"
  98      8D2D8C3F 
  98      99981957 
  98      324A31AE 
ARM GAS  C:\Users\Luggi\AppData\Local\Temp\cckCEzld.s 			page 7


  98      62043A8B 
  99 00cd 7135E35C 		.ascii	"q5\343\\F\206[\214\315\367\332t \3461C\214\374\276\370"
  99      46865B8C 
  99      CDF7DA74 
  99      20E63143 
  99      8CFCBEF8 
 100 00e1 C16B4690 		.ascii	"\301kF\220~\026v\006\3065@\245\367\030\031\241\012\300"
 100      7E167606 
 100      C63540A5 
 100      F71819A1 
 100      0AC0
 101 00f3 4E620439 		.ascii	"Nb\0049\005h\266\212{j^jQbIjJ|p~iQrjL@p\276\263iLq*"
 101      0568B68A 
 101      7B6A5E6A 
 101      5162496A 
 101      4A7C707E 
 102 0114 50242533 		.ascii	"P$%3?%U/\231\001\000*%h\012"
 102      3F25552F 
 102      9901002A 
 102      25680A
 103              		.text
 104              		.section	.gnu.lto_seed_diode_ReadDataReg.304b625c,"",%progbits
 105 0000 789C654E 		.ascii	"x\234eN;H\003Q\020\334\331;b \215X\311\325bP\202\235"
 105      3B480351 
 105      10DCD93B 
 105      62208D58 
 105      C9D56250 
 106 0016 8DAD85AD 		.ascii	"\215\255\205\255\2206 \222\\a\343A\324:\357\364\024"
 106      90362092 
 106      5C61E341 
 106      D43AEFF4 
 106      14
 107 0027 B1125BB1 		.ascii	"\261\022[\261P\361\023#XX\331\211\255b\324\024B\220"
 107      50F11323 
 107      5858D989 
 107      AD62D414 
 107      4290
 108 0039 681141B1 		.ascii	"h\021A\261\361\020<\0165q7\261\363\301\274}owvf,\372"
 108      F1103C0E 
 108      357137B1 
 108      F3C1BC7D 
 108      6F777666 
 109 004f 7F1CC197 		.ascii	"\177\034\301\227`P\000\213\300\353\327D~\222\001}\020"
 109      6050008B 
 109      C0EBD744 
 109      7E92017D 
 109      10
 110 0060 A8C428E1 		.ascii	"\250\304(\341\225C\306\325Y\253\206\364\2361\213\357"
 110      9543C6D5 
 110      59AB86F4 
 110      9E318BEF 
 111 0070 77B587D4 		.ascii	"w\265\207\324r\177\314D\037L\3108\030R\035\034 MB\014"
 111      727FCC44 
 111      1F4CC838 
 111      18521D1C 
 111      204D420C 
 112 0084 839FFB54 		.ascii	"\203\237\373T\"0\306\364\352\\\006\207H@\352I\337\271"
ARM GAS  C:\Users\Luggi\AppData\Local\Temp\cckCEzld.s 			page 8


 112      2230C6F4 
 112      EA5C0687 
 112      4840EA49 
 112      DFB9
 113 0096 69B74FAB 		.ascii	"i\267O\253\033\253\303l3\305,\216*BM\271\324\357\231"
 113      1BABC36C 
 113      33C52C8E 
 113      2A424DB9 
 113      D4EF99
 114 00a9 59AB55C7 		.ascii	"Y\253U\307\305\347Z\253<\246\213\021\253\371e\370\355"
 114      C5E75AAB 
 114      3CA68B11 
 114      ABF965F8 
 114      ED
 115 00ba BC70CC7C 		.ascii	"\274p\314|\263\343\033[]\036\233\325\333d\247E\372\335"
 115      B3E31B5B 
 115      5D1E9BD5 
 115      DB64A745 
 115      FADD
 116 00cc DEAF44D8 		.ascii	"\336\257D\330\302\246\037 f\013e88\202\244BE\272T\307"
 116      C2A61F20 
 116      660B6538 
 116      3882A442 
 116      45BA54C7 
 117 00e0 526325D3 		.ascii	"Rc%\323\225\263\272\212\321\356\323\033t\337\356!\034"
 117      95B3BA8A 
 117      D1EED31B 
 117      74DFEE21 
 117      1C
 118 00f1 0BB501FC 		.ascii	"\013\265\001\374\021:\211\240ID{`\302\235u\213\323\363"
 118      113A89A0 
 118      49447B60 
 118      C29D758B 
 118      D3F3
 119 0103 6E612AEB 		.ascii	"na*\353-\024\363nn2\353\215\217\346\346\\\351\024f\274"
 119      2D14F36E 
 119      6E32EB8D 
 119      8FE6E65C 
 119      E91466BC 
 120 0117 823B92A7 		.ascii	"\202;\222\247_\360\362g\260"
 120      5FF0F267 
 120      B0
 121              		.text
 122              		.section	.gnu.lto_.symbol_nodes.304b625c,"",%progbits
 123 0000 789C6366 		.ascii	"x\234cf``pb\200\002&\206z\006\206\011\347\030\030\352"
 123      60607062 
 123      80022686 
 123      7A068609 
 123      E71818EA 
 124 0014 EB19A62D 		.ascii	"\353\031\246-\340``b\254gD\3413\3253\241\360\231\353"
 124      E0606062 
 124      AC6744E1 
 124      33D533A1 
 124      F099EB
 125 0027 9991F90C 		.ascii	"\231\221\371\014\0000N\020\276"
 125      00304E10 
 125      BE
ARM GAS  C:\Users\Luggi\AppData\Local\Temp\cckCEzld.s 			page 9


 126              		.text
 127              		.section	.gnu.lto_.refs.304b625c,"",%progbits
 128 0000 789C6366 		.ascii	"x\234cf```d\200\002\000\000=\000\005"
 128      60606064 
 128      80020000 
 128      3D0005
 129              		.text
 130              		.section	.gnu.lto_.decls.304b625c,"",%progbits
 131 0000 789C8D52 		.ascii	"x\234\215R_HSQ\030?\337=\327\251WK\237\246\214\240\005"
 131      5F485351 
 131      183FDF3D 
 131      D7A9574B 
 131      9FA68CA0 
 132 0015 210422F4 		.ascii	"!\004\"\364\020\370V\244\240\004\205(\321\203\202\014"
 132      10F856A4 
 132      A0048528 
 132      D183820C 
 133 0025 77B1BD68 		.ascii	"w\261\275h\314\031\370\344i\032\352*\025)\322\240%\370"
 133      CC19F8E4 
 133      691AEA2A 
 133      1529D2A0 
 133      25F8
 134 0037 A75AB9CC 		.ascii	"\247Z\271\314\177sj\272\275)\2430\\\202\326C\"\204="
 134      7F736ABA 
 134      BD29A330 
 134      5C82D643 
 134      22843D
 135 004a 84932C0C 		.ascii	"\204\223,\014\242\333w\317\335\272\2275\301\017\276"
 135      A2DB77CF 
 135      DDBA9735 
 135      C10FBE
 136 0059 ED7CE77E 		.ascii	"\355|\347~\277?\347\234\217\022B\362\201\020\005\343"
 136      BF3FE79C 
 136      8F1242F2 
 136      811005E3 
 137 0069 2225C487 		.ascii	"\"%\304\207u\032f\005\321C\304\234\300\234\302\014`"
 137      751A6605 
 137      D143C49C 
 137      C09CC20C 
 137      60
 138 007a 06C9FF31 		.ascii	"\006\311\3771a\300\215a\2321\0271\027\342\337!\336\223"
 138      61C08D61 
 138      9A311731 
 138      17E2DF21 
 138      DE93
 139 008c 1C2AA729 		.ascii	"\034*\247)\011\027N\201\235J\201\015\3045\223\365.\031"
 139      09174E81 
 139      9D4A810D 
 139      C43593F5 
 139      2E19
 140 009e 708114B8 		.ascii	"p\201\024\270\340\021p\251\316\270'@\320\277\3776kG"
 140      E01170A9 
 140      CEB82740 
 140      D0BFFF36 
 140      6B47
 141 00b0 80E39255 		.ascii	"\200\343\222U-\347\372\226\373MXfK\242Z\256/utdP\001"
 141      2DE7FA96 
ARM GAS  C:\Users\Luggi\AppData\Local\Temp\cckCEzld.s 			page 10


 141      FB4D5866 
 141      4BA25AAE 
 141      2F757464 
 142 00c6 D4F550FF 		.ascii	"\324\365P\377VT*\3641\306:Y(\004:\305\255\321\371\273"
 142      56542AF4 
 142      31C63A59 
 142      28043AC5 
 142      ADD1F9BB 
 143 00da E988314B 		.ascii	"\351\2101K\274\354\216<\012S^**N\330\330\270\377\213"
 143      BCEC8E3C 
 143      0A535E2A 
 143      2A4ED8D8 
 143      B8FF8B
 144 00ed 8254D0C9 		.ascii	"\202T\320\311\230\233\305\372\030\315'Ph\2013\026\002"
 144      989BC5FA 
 144      18CD2750 
 144      68813316 
 144      02
 145 00fe 7E28C036 		.ascii	"~(\3006\360A!\201\027`\201\227`!\303(\020{\022\335<"
 145      F0412181 
 145      17608197 
 145      6021C328 
 145      107B12DD 
 146 0113 C1980863 		.ascii	"\301\230\010c \301s\240\274\003\217\241*\304E{o\207"
 146      20C173A0 
 146      BC038FA1 
 146      2AC4457B 
 146      6F87
 147 0125 7B4551C0 		.ascii	"{EQ\300M\265\247\232\273\375\241l\215\010y\017\220\200"
 147      4DB5A79A 
 147      BBFDA16C 
 147      8D08790F 
 147      9080
 148 0137 F5B6B15C 		.ascii	"\365\266\261\\\021*\314\360\024i\237!-\201q\310\303"
 148      112ACCF0 
 148      14699F21 
 148      2D8171C8 
 148      C3
 149 0148 DF57206A 		.ascii	"\337W j\004\253\035k\253@\317\362\243\015\260\017]\324"
 149      04AB1D6B 
 149      AB40CFF2 
 149      A30DB00F 
 149      5DD4
 150 015a EA6583E3 		.ascii	"\352e\203\3431\317\220\227\016\260A7\373\243\240}\025"
 150      31CF9097 
 150      0EB04137 
 150      FBA3A07D 
 150      15
 151 016b 04AFFF19 		.ascii	"\004\257\377\031 \352Z\273\321\011\260\"\260\317\267"
 151      20EA5ABB 
 151      D109B022 
 151      B0CFB7
 152 017a B69243EB 		.ascii	"\266\222C\3539\211\377`eC#\031\234\0332-\263\220\242"
 152      3989FF60 
 152      65432319 
 152      9C1B322D 
 152      B390A2
ARM GAS  C:\Users\Luggi\AppData\Local\Temp\cckCEzld.s 			page 11


 153 018d 9CE7F849 		.ascii	"\234\347\370I\003~2\201\237\342\370\256\366qj4\254\236"
 153      037E3281 
 153      9FE2F8AE 
 153      F6716A34 
 153      AC9E
 154 019f 45773CCD 		.ascii	"Ew<\315\035W\307\015\017l\356z3h+\327\372\036\371\264"
 154      1D57C70D 
 154      0F6CEE7A 
 154      33682BD7 
 154      FA1EF9B4 
 155 01b3 9BC5B53E 		.ascii	"\233\305\265>\177\335\226C\355\354\267\242P\016\200"
 155      7FDD9643 
 155      EDECB7A2 
 155      500E80
 156 01c2 1983DA4C 		.ascii	"\031\203\332LB-\300\325\276\335\233\3352\321\036\340"
 156      422DC0D5 
 156      BEDD9BDD 
 156      32D11EE0 
 157 01d2 14EE2FDD 		.ascii	"\024\356/\335\3739\232\335\307#\011\273*\301\254\201"
 157      FB399ADD 
 157      C72309BB 
 157      2AC1AC81 
 158 01e2 60364110 		.ascii	"`6A\020\344\004\354\341\235\341\014:\252\021L\377\364"
 158      E404ECE1 
 158      9DE10C3A 
 158      AA114CFF 
 158      F4
 159 01f3 048F49F8 		.ascii	"\004\217I\370\252mGxU\234\203\350;\317z\2466\007\311"
 159      AA6D4778 
 159      559C83E8 
 159      3BCF7AA6 
 159      3607C9
 160 0206 883787CE 		.ascii	"\2107\207\316\301\301vy;\273\000\013x/s\372\034\314"
 160      C1C17679 
 160      3BBB000B 
 160      782F73FA 
 160      1CCC
 161 0218 833E08D1 		.ascii	"\203>\010\321\210\373#\315\366\250\303\205w\230Y\316"
 161      88FB23CD 
 161      F6A8C385 
 161      779859CE 
 162 0228 7BF53B5C 		.ascii	"{\365;\\\204l~\000\374\337\023\250\377\375\222W\000"
 162      846C7E00 
 162      FCDF13A8 
 162      FFFD9257 
 162      00
 163 0239 8B45EAC7 		.ascii	"\213E\352\307!>8\011a$R\227\241\035EiU\264\350I\347"
 163      213E3809 
 163      61245297 
 163      A11D4569 
 163      55B4E849 
 164 024e DB9DEAAB 		.ascii	"\333\235\352\253\304\334\006\233\204\357\023\010!\371"
 164      C4DC069B 
 164      84EF1308 
 164      21F9
 165 025c 1292F332 		.ascii	"\022\222\3632\255\331\321\340*6\225]\271j-!\247\312"
 165      ADD9D1E0 
ARM GAS  C:\Users\Luggi\AppData\Local\Temp\cckCEzld.s 			page 12


 165      2A36955D 
 165      B96A2D21 
 165      A7CA
 166 026e E406D969 		.ascii	"\344\006\331is\311\366\332\252\306fg\235\\SQ\325Xr\256"
 166      73C9F6DA 
 166      AAC66667 
 166      9D5C5351 
 166      D55872AE 
 167 0282 A6AEC5D5 		.ascii	"\246\256\305\325rCn*\272Nr\233d\374hw4\332\345\332k"
 167      72436E2A 
 167      BA4E729B 
 167      64FC6877 
 167      34DAE5DA 
 168 0297 4E874B3E 		.ascii	"N\207K>}\010D\357+\252#y\006T\225\354*u:n\312\227\261"
 168      7D0844EF 
 168      2BAA2379 
 168      065495EC 
 168      2A753A6E 
 169 02ae C831EC57 		.ascii	"\3101\354W\3126\2739\251.\265\271l\225r\275\350\224"
 169      CA36BB39 
 169      A92EB5B9 
 169      6C9572BD 
 169      E894
 170 02c0 EB8BFF02 		.ascii	"\353\213\377\002vdR\217"
 170      7664528F 
 171              		.text
 172              		.section	.gnu.lto_.symtab.304b625c,"",%progbits
 173 0000 73656564 		.ascii	"seed_diode_Write\000\000\000\000\000\000\000\000\000"
 173      5F64696F 
 173      64655F57 
 173      72697465 
 173      00000000 
 174 0019 000000B2 		.ascii	"\000\000\000\262\000\000\000seed_diode_SetDriveMode"
 174      00000073 
 174      6565645F 
 174      64696F64 
 174      655F5365 
 175 0037 00000000 		.ascii	"\000\000\000\000\000\000\000\000\000\000\000\000\264"
 175      00000000 
 175      00000000 
 175      B4
 176 0044 00000073 		.ascii	"\000\000\000seed_diode_Read\000\000\000\000\000\000"
 176      6565645F 
 176      64696F64 
 176      655F5265 
 176      61640000 
 177 005c 00000000 		.ascii	"\000\000\000\000\000\000\267\000\000\000seed_diode_"
 177      0000B700 
 177      00007365 
 177      65645F64 
 177      696F6465 
 178 0071 52656164 		.ascii	"ReadDataReg\000\000\000\000\000\000\000\000\000\000"
 178      44617461 
 178      52656700 
 178      00000000 
 178      00000000 
 179 0086 0000B900 		.ascii	"\000\000\271\000\000\000"
ARM GAS  C:\Users\Luggi\AppData\Local\Temp\cckCEzld.s 			page 13


 179      0000
 180              		.text
 181              		.section	.gnu.lto_.opts,"",%progbits
 182 0000 272D666E 		.ascii	"'-fno-trapv' '-fno-strict-overflow' '-mcpu=cortex-m"
 182      6F2D7472 
 182      61707627 
 182      20272D66 
 182      6E6F2D73 
 183 0033 33272027 		.ascii	"3' '-mthumb' '-g' '-Og' '-ffunction-sections' '-flt"
 183      2D6D7468 
 183      756D6227 
 183      20272D67 
 183      2720272D 
 184 0066 6F272027 		.ascii	"o' '-ffat-lto-objects'\000"
 184      2D666661 
 184      742D6C74 
 184      6F2D6F62 
 184      6A656374 
 185              		.text
 186              		.cfi_sections	.debug_frame
 187              		.section	.text.seed_diode_Write,"ax",%progbits
 188              		.align	2
 189              		.global	seed_diode_Write
 190              		.thumb
 191              		.thumb_func
 192              		.type	seed_diode_Write, %function
 193              	seed_diode_Write:
 194              	.LFB0:
 195              		.file 1 "Generated_Source\\PSoC5\\seed_diode.c"
   1:Generated_Source\PSoC5/seed_diode.c **** /*******************************************************************************
   2:Generated_Source\PSoC5/seed_diode.c **** * File Name: seed_diode.c  
   3:Generated_Source\PSoC5/seed_diode.c **** * Version 2.20
   4:Generated_Source\PSoC5/seed_diode.c **** *
   5:Generated_Source\PSoC5/seed_diode.c **** * Description:
   6:Generated_Source\PSoC5/seed_diode.c **** *  This file contains API to enable firmware control of a Pins component.
   7:Generated_Source\PSoC5/seed_diode.c **** *
   8:Generated_Source\PSoC5/seed_diode.c **** * Note:
   9:Generated_Source\PSoC5/seed_diode.c **** *
  10:Generated_Source\PSoC5/seed_diode.c **** ********************************************************************************
  11:Generated_Source\PSoC5/seed_diode.c **** * Copyright 2008-2015, Cypress Semiconductor Corporation.  All rights reserved.
  12:Generated_Source\PSoC5/seed_diode.c **** * You may use this file only in accordance with the license, terms, conditions, 
  13:Generated_Source\PSoC5/seed_diode.c **** * disclaimers, and limitations in the end user license agreement accompanying 
  14:Generated_Source\PSoC5/seed_diode.c **** * the software package with which this file was provided.
  15:Generated_Source\PSoC5/seed_diode.c **** *******************************************************************************/
  16:Generated_Source\PSoC5/seed_diode.c **** 
  17:Generated_Source\PSoC5/seed_diode.c **** #include "cytypes.h"
  18:Generated_Source\PSoC5/seed_diode.c **** #include "seed_diode.h"
  19:Generated_Source\PSoC5/seed_diode.c **** 
  20:Generated_Source\PSoC5/seed_diode.c **** /* APIs are not generated for P15[7:6] on PSoC 5 */
  21:Generated_Source\PSoC5/seed_diode.c **** #if !(CY_PSOC5A &&\
  22:Generated_Source\PSoC5/seed_diode.c **** 	 seed_diode__PORT == 15 && ((seed_diode__MASK & 0xC0) != 0))
  23:Generated_Source\PSoC5/seed_diode.c **** 
  24:Generated_Source\PSoC5/seed_diode.c **** 
  25:Generated_Source\PSoC5/seed_diode.c **** /*******************************************************************************
  26:Generated_Source\PSoC5/seed_diode.c **** * Function Name: seed_diode_Write
  27:Generated_Source\PSoC5/seed_diode.c **** ****************************************************************************//**
  28:Generated_Source\PSoC5/seed_diode.c **** *
ARM GAS  C:\Users\Luggi\AppData\Local\Temp\cckCEzld.s 			page 14


  29:Generated_Source\PSoC5/seed_diode.c **** * \brief Writes the value to the physical port (data output register), masking
  30:Generated_Source\PSoC5/seed_diode.c **** *  and shifting the bits appropriately. 
  31:Generated_Source\PSoC5/seed_diode.c **** *
  32:Generated_Source\PSoC5/seed_diode.c **** * The data output register controls the signal applied to the physical pin in 
  33:Generated_Source\PSoC5/seed_diode.c **** * conjunction with the drive mode parameter. This function avoids changing 
  34:Generated_Source\PSoC5/seed_diode.c **** * other bits in the port by using the appropriate method (read-modify-write or
  35:Generated_Source\PSoC5/seed_diode.c **** * bit banding).
  36:Generated_Source\PSoC5/seed_diode.c **** *
  37:Generated_Source\PSoC5/seed_diode.c **** * <b>Note</b> This function should not be used on a hardware digital output pin 
  38:Generated_Source\PSoC5/seed_diode.c **** * as it is driven by the hardware signal attached to it.
  39:Generated_Source\PSoC5/seed_diode.c **** *
  40:Generated_Source\PSoC5/seed_diode.c **** * \param value
  41:Generated_Source\PSoC5/seed_diode.c **** *  Value to write to the component instance.
  42:Generated_Source\PSoC5/seed_diode.c **** *
  43:Generated_Source\PSoC5/seed_diode.c **** * \return 
  44:Generated_Source\PSoC5/seed_diode.c **** *  None 
  45:Generated_Source\PSoC5/seed_diode.c **** *
  46:Generated_Source\PSoC5/seed_diode.c **** * \sideeffect
  47:Generated_Source\PSoC5/seed_diode.c **** *  If you use read-modify-write operations that are not atomic; the Interrupt 
  48:Generated_Source\PSoC5/seed_diode.c **** *  Service Routines (ISR) can cause corruption of this function. An ISR that 
  49:Generated_Source\PSoC5/seed_diode.c **** *  interrupts this function and performs writes to the Pins component data 
  50:Generated_Source\PSoC5/seed_diode.c **** *  register can cause corrupted port data. To avoid this issue, you should 
  51:Generated_Source\PSoC5/seed_diode.c **** *  either use the Per-Pin APIs (primary method) or disable interrupts around 
  52:Generated_Source\PSoC5/seed_diode.c **** *  this function.
  53:Generated_Source\PSoC5/seed_diode.c **** *
  54:Generated_Source\PSoC5/seed_diode.c **** * \funcusage
  55:Generated_Source\PSoC5/seed_diode.c **** *  \snippet seed_diode_SUT.c usage_seed_diode_Write
  56:Generated_Source\PSoC5/seed_diode.c **** *******************************************************************************/
  57:Generated_Source\PSoC5/seed_diode.c **** void seed_diode_Write(uint8 value)
  58:Generated_Source\PSoC5/seed_diode.c **** {
 196              		.loc 1 58 0
 197              		.cfi_startproc
 198              		@ args = 0, pretend = 0, frame = 0
 199              		@ frame_needed = 0, uses_anonymous_args = 0
 200              		@ link register save eliminated.
 201              	.LVL0:
  59:Generated_Source\PSoC5/seed_diode.c ****     uint8 staticBits = (seed_diode_DR & (uint8)(~seed_diode_MASK));
 202              		.loc 1 59 0
 203 0000 044A     		ldr	r2, .L2
 204 0002 1378     		ldrb	r3, [r2]	@ zero_extendqisi2
 205 0004 03F07F03 		and	r3, r3, #127
 206              	.LVL1:
  60:Generated_Source\PSoC5/seed_diode.c ****     seed_diode_DR = staticBits | ((uint8)(value << seed_diode_SHIFT) & seed_diode_MASK);
 207              		.loc 1 60 0
 208 0008 C001     		lsls	r0, r0, #7
 209              	.LVL2:
 210 000a C0B2     		uxtb	r0, r0
 211 000c 0343     		orrs	r3, r3, r0
 212              	.LVL3:
 213 000e 1370     		strb	r3, [r2]
 214 0010 7047     		bx	lr
 215              	.L3:
 216 0012 00BF     		.align	2
 217              	.L2:
 218 0014 50510040 		.word	1073762640
 219              		.cfi_endproc
 220              	.LFE0:
ARM GAS  C:\Users\Luggi\AppData\Local\Temp\cckCEzld.s 			page 15


 221              		.size	seed_diode_Write, .-seed_diode_Write
 222              		.section	.text.seed_diode_SetDriveMode,"ax",%progbits
 223              		.align	2
 224              		.global	seed_diode_SetDriveMode
 225              		.thumb
 226              		.thumb_func
 227              		.type	seed_diode_SetDriveMode, %function
 228              	seed_diode_SetDriveMode:
 229              	.LFB1:
  61:Generated_Source\PSoC5/seed_diode.c **** }
  62:Generated_Source\PSoC5/seed_diode.c **** 
  63:Generated_Source\PSoC5/seed_diode.c **** 
  64:Generated_Source\PSoC5/seed_diode.c **** /*******************************************************************************
  65:Generated_Source\PSoC5/seed_diode.c **** * Function Name: seed_diode_SetDriveMode
  66:Generated_Source\PSoC5/seed_diode.c **** ****************************************************************************//**
  67:Generated_Source\PSoC5/seed_diode.c **** *
  68:Generated_Source\PSoC5/seed_diode.c **** * \brief Sets the drive mode for each of the Pins component's pins.
  69:Generated_Source\PSoC5/seed_diode.c **** * 
  70:Generated_Source\PSoC5/seed_diode.c **** * <b>Note</b> This affects all pins in the Pins component instance. Use the
  71:Generated_Source\PSoC5/seed_diode.c **** * Per-Pin APIs if you wish to control individual pin's drive modes.
  72:Generated_Source\PSoC5/seed_diode.c **** *
  73:Generated_Source\PSoC5/seed_diode.c **** * \param mode
  74:Generated_Source\PSoC5/seed_diode.c **** *  Mode for the selected signals. Valid options are documented in 
  75:Generated_Source\PSoC5/seed_diode.c **** *  \ref driveMode.
  76:Generated_Source\PSoC5/seed_diode.c **** *
  77:Generated_Source\PSoC5/seed_diode.c **** * \return
  78:Generated_Source\PSoC5/seed_diode.c **** *  None
  79:Generated_Source\PSoC5/seed_diode.c **** *
  80:Generated_Source\PSoC5/seed_diode.c **** * \sideeffect
  81:Generated_Source\PSoC5/seed_diode.c **** *  If you use read-modify-write operations that are not atomic, the ISR can
  82:Generated_Source\PSoC5/seed_diode.c **** *  cause corruption of this function. An ISR that interrupts this function 
  83:Generated_Source\PSoC5/seed_diode.c **** *  and performs writes to the Pins component Drive Mode registers can cause 
  84:Generated_Source\PSoC5/seed_diode.c **** *  corrupted port data. To avoid this issue, you should either use the Per-Pin
  85:Generated_Source\PSoC5/seed_diode.c **** *  APIs (primary method) or disable interrupts around this function.
  86:Generated_Source\PSoC5/seed_diode.c **** *
  87:Generated_Source\PSoC5/seed_diode.c **** * \funcusage
  88:Generated_Source\PSoC5/seed_diode.c **** *  \snippet seed_diode_SUT.c usage_seed_diode_SetDriveMode
  89:Generated_Source\PSoC5/seed_diode.c **** *******************************************************************************/
  90:Generated_Source\PSoC5/seed_diode.c **** void seed_diode_SetDriveMode(uint8 mode)
  91:Generated_Source\PSoC5/seed_diode.c **** {
 230              		.loc 1 91 0
 231              		.cfi_startproc
 232              		@ args = 0, pretend = 0, frame = 0
 233              		@ frame_needed = 0, uses_anonymous_args = 0
 234              		@ link register save eliminated.
 235              	.LVL4:
  92:Generated_Source\PSoC5/seed_diode.c **** 	CyPins_SetPinDriveMode(seed_diode_0, mode);
 236              		.loc 1 92 0
 237 0000 044A     		ldr	r2, .L5
 238 0002 1378     		ldrb	r3, [r2]	@ zero_extendqisi2
 239 0004 03F0F103 		and	r3, r3, #241
 240 0008 00F00E00 		and	r0, r0, #14
 241              	.LVL5:
 242 000c 1843     		orrs	r0, r0, r3
 243 000e 1070     		strb	r0, [r2]
 244 0010 7047     		bx	lr
 245              	.L6:
ARM GAS  C:\Users\Luggi\AppData\Local\Temp\cckCEzld.s 			page 16


 246 0012 00BF     		.align	2
 247              	.L5:
 248 0014 2F500040 		.word	1073762351
 249              		.cfi_endproc
 250              	.LFE1:
 251              		.size	seed_diode_SetDriveMode, .-seed_diode_SetDriveMode
 252              		.section	.text.seed_diode_Read,"ax",%progbits
 253              		.align	2
 254              		.global	seed_diode_Read
 255              		.thumb
 256              		.thumb_func
 257              		.type	seed_diode_Read, %function
 258              	seed_diode_Read:
 259              	.LFB2:
  93:Generated_Source\PSoC5/seed_diode.c **** }
  94:Generated_Source\PSoC5/seed_diode.c **** 
  95:Generated_Source\PSoC5/seed_diode.c **** 
  96:Generated_Source\PSoC5/seed_diode.c **** /*******************************************************************************
  97:Generated_Source\PSoC5/seed_diode.c **** * Function Name: seed_diode_Read
  98:Generated_Source\PSoC5/seed_diode.c **** ****************************************************************************//**
  99:Generated_Source\PSoC5/seed_diode.c **** *
 100:Generated_Source\PSoC5/seed_diode.c **** * \brief Reads the associated physical port (pin status register) and masks 
 101:Generated_Source\PSoC5/seed_diode.c **** *  the required bits according to the width and bit position of the component
 102:Generated_Source\PSoC5/seed_diode.c **** *  instance. 
 103:Generated_Source\PSoC5/seed_diode.c **** *
 104:Generated_Source\PSoC5/seed_diode.c **** * The pin's status register returns the current logic level present on the 
 105:Generated_Source\PSoC5/seed_diode.c **** * physical pin.
 106:Generated_Source\PSoC5/seed_diode.c **** *
 107:Generated_Source\PSoC5/seed_diode.c **** * \return 
 108:Generated_Source\PSoC5/seed_diode.c **** *  The current value for the pins in the component as a right justified number.
 109:Generated_Source\PSoC5/seed_diode.c **** *
 110:Generated_Source\PSoC5/seed_diode.c **** * \funcusage
 111:Generated_Source\PSoC5/seed_diode.c **** *  \snippet seed_diode_SUT.c usage_seed_diode_Read  
 112:Generated_Source\PSoC5/seed_diode.c **** *******************************************************************************/
 113:Generated_Source\PSoC5/seed_diode.c **** uint8 seed_diode_Read(void)
 114:Generated_Source\PSoC5/seed_diode.c **** {
 260              		.loc 1 114 0
 261              		.cfi_startproc
 262              		@ args = 0, pretend = 0, frame = 0
 263              		@ frame_needed = 0, uses_anonymous_args = 0
 264              		@ link register save eliminated.
 115:Generated_Source\PSoC5/seed_diode.c ****     return (seed_diode_PS & seed_diode_MASK) >> seed_diode_SHIFT;
 265              		.loc 1 115 0
 266 0000 014B     		ldr	r3, .L8
 267 0002 1878     		ldrb	r0, [r3]	@ zero_extendqisi2
 116:Generated_Source\PSoC5/seed_diode.c **** }
 268              		.loc 1 116 0
 269 0004 C009     		lsrs	r0, r0, #7
 270 0006 7047     		bx	lr
 271              	.L9:
 272              		.align	2
 273              	.L8:
 274 0008 51510040 		.word	1073762641
 275              		.cfi_endproc
 276              	.LFE2:
 277              		.size	seed_diode_Read, .-seed_diode_Read
 278              		.section	.text.seed_diode_ReadDataReg,"ax",%progbits
ARM GAS  C:\Users\Luggi\AppData\Local\Temp\cckCEzld.s 			page 17


 279              		.align	2
 280              		.global	seed_diode_ReadDataReg
 281              		.thumb
 282              		.thumb_func
 283              		.type	seed_diode_ReadDataReg, %function
 284              	seed_diode_ReadDataReg:
 285              	.LFB3:
 117:Generated_Source\PSoC5/seed_diode.c **** 
 118:Generated_Source\PSoC5/seed_diode.c **** 
 119:Generated_Source\PSoC5/seed_diode.c **** /*******************************************************************************
 120:Generated_Source\PSoC5/seed_diode.c **** * Function Name: seed_diode_ReadDataReg
 121:Generated_Source\PSoC5/seed_diode.c **** ****************************************************************************//**
 122:Generated_Source\PSoC5/seed_diode.c **** *
 123:Generated_Source\PSoC5/seed_diode.c **** * \brief Reads the associated physical port's data output register and masks 
 124:Generated_Source\PSoC5/seed_diode.c **** *  the correct bits according to the width and bit position of the component 
 125:Generated_Source\PSoC5/seed_diode.c **** *  instance. 
 126:Generated_Source\PSoC5/seed_diode.c **** *
 127:Generated_Source\PSoC5/seed_diode.c **** * The data output register controls the signal applied to the physical pin in 
 128:Generated_Source\PSoC5/seed_diode.c **** * conjunction with the drive mode parameter. This is not the same as the 
 129:Generated_Source\PSoC5/seed_diode.c **** * preferred seed_diode_Read() API because the 
 130:Generated_Source\PSoC5/seed_diode.c **** * seed_diode_ReadDataReg() reads the data register instead of the status 
 131:Generated_Source\PSoC5/seed_diode.c **** * register. For output pins this is a useful function to determine the value 
 132:Generated_Source\PSoC5/seed_diode.c **** * just written to the pin.
 133:Generated_Source\PSoC5/seed_diode.c **** *
 134:Generated_Source\PSoC5/seed_diode.c **** * \return 
 135:Generated_Source\PSoC5/seed_diode.c **** *  The current value of the data register masked and shifted into a right 
 136:Generated_Source\PSoC5/seed_diode.c **** *  justified number for the component instance.
 137:Generated_Source\PSoC5/seed_diode.c **** *
 138:Generated_Source\PSoC5/seed_diode.c **** * \funcusage
 139:Generated_Source\PSoC5/seed_diode.c **** *  \snippet seed_diode_SUT.c usage_seed_diode_ReadDataReg 
 140:Generated_Source\PSoC5/seed_diode.c **** *******************************************************************************/
 141:Generated_Source\PSoC5/seed_diode.c **** uint8 seed_diode_ReadDataReg(void)
 142:Generated_Source\PSoC5/seed_diode.c **** {
 286              		.loc 1 142 0
 287              		.cfi_startproc
 288              		@ args = 0, pretend = 0, frame = 0
 289              		@ frame_needed = 0, uses_anonymous_args = 0
 290              		@ link register save eliminated.
 143:Generated_Source\PSoC5/seed_diode.c ****     return (seed_diode_DR & seed_diode_MASK) >> seed_diode_SHIFT;
 291              		.loc 1 143 0
 292 0000 014B     		ldr	r3, .L11
 293 0002 1878     		ldrb	r0, [r3]	@ zero_extendqisi2
 144:Generated_Source\PSoC5/seed_diode.c **** }
 294              		.loc 1 144 0
 295 0004 C009     		lsrs	r0, r0, #7
 296 0006 7047     		bx	lr
 297              	.L12:
 298              		.align	2
 299              	.L11:
 300 0008 50510040 		.word	1073762640
 301              		.cfi_endproc
 302              	.LFE3:
 303              		.size	seed_diode_ReadDataReg, .-seed_diode_ReadDataReg
 304              		.text
 305              	.Letext0:
 306              		.file 2 "Generated_Source\\PSoC5\\cytypes.h"