ARM GAS  C:\Users\Luggi\AppData\Local\Temp\ccLirwVy.s 			page 1


   1              		.syntax unified
   2              		.cpu cortex-m3
   3              		.fpu softvfp
   4              		.eabi_attribute 20, 1
   5              		.eabi_attribute 21, 1
   6              		.eabi_attribute 23, 3
   7              		.eabi_attribute 24, 1
   8              		.eabi_attribute 25, 1
   9              		.eabi_attribute 26, 1
  10              		.eabi_attribute 30, 1
  11              		.eabi_attribute 34, 1
  12              		.eabi_attribute 18, 4
  13              		.thumb
  14              		.file	"USBUART_1_pm.c"
  15              		.text
  16              	.Ltext0:
  17              		.section	.gnu.lto_.profile.d237f54,"",%progbits
  18 0000 789C6366 		.ascii	"x\234cf```e\200\000F\206\026\2464\000\002\200\000\366"
  18      60606065 
  18      80004686 
  18      16A63400 
  18      028000F6 
  19              		.text
  20              		.section	.gnu.lto_.inline.d237f54,"",%progbits
  21 0000 789C6366 		.ascii	"x\234cf\300\016\016AiV\006\006\026\036F\006& \223m\201"
  21      C00E0E41 
  21      69560606 
  21      161E4606 
  21      2620936D 
  22 0015 3C886260 		.ascii	"<\210b`\344\002\021\014\314L\250\302L\014\034\274@\021"
  22      E402110C 
  22      CC4CA8C2 
  22      4C0C1CBC 
  22      4011
  23 0027 B60F7A68 		.ascii	"\266\017zh*A\004\013\203\221\036P\322\345]\023#\252"
  23      2A41040B 
  23      83911E50 
  23      D2E55D13 
  23      23AA
  24 0039 2C133790 		.ascii	",\0237\2201\301\017L1`'\031\330\030\364\255\201L\273"
  24      31C10F4C 
  24      31602719 
  24      D818F4AD 
  24      814CBB
  25 004c 8E9B08CD 		.ascii	"\216\233\010\315P}\0103pif\000\000i\023\014\320"
  25      507D0833 
  25      70696600 
  25      0069130C 
  25      D0
  26              		.text
  27              		.section	.gnu.lto_.jmpfuncs.d237f54,"",%progbits
  28 0000 789C6366 		.ascii	"x\234cf\300\016\026BiV\020\301\310\300\300\004\242Y"
  28      C00E1642 
  28      695610C1 
  28      C8C0C004 
  28      A259
  29 0012 206C46A6 		.ascii	" lF\246\217L\214\027g-k\346\177\301\364\223\011(\302"
ARM GAS  C:\Users\Luggi\AppData\Local\Temp\ccLirwVy.s 			page 2


  29      8F4C8C17 
  29      672D6BE6 
  29      7FC1F493 
  29      0928C2
  30 0025 B89C510A 		.ascii	"\270\234Q\012(\012\245\200\222\367\237\234\277\310\001"
  30      280AA580 
  30      92F79F9C 
  30      BFC801
  31 0034 9604AA5E 		.ascii	"\226\004\252^\001\221\004Q\014l`\003\320L`\004\232\260"
  31      01910451 
  31      0C6C6003 
  31      D04C6004 
  31      9AB0
  32 0046 12A6F5FC 		.ascii	"\022\246\365\374\203\303\375<`\255@\223W!\264\202%\367"
  32      83C3FD3C 
  32      60AD4093 
  32      5721B482 
  32      25F7
  33 0058 DEBFFD90 		.ascii	"\336\277\375\220\031,\251\301\300\270\032d \003\000"
  33      192CA9C1 
  33      C0B81A64 
  33      200300
  34 0067 7A5C2478 		.ascii	"z\\$x"
  35              		.text
  36              		.section	.gnu.lto_.pureconst.d237f54,"",%progbits
  37 0000 789C6366 		.ascii	"x\234cf``\340f\200\000V\006\011F\006&)\026)6)\000\003"
  37      6060E066 
  37      80005606 
  37      09460626 
  37      29162936 
  38 0017 560087   		.ascii	"V\000\207"
  39              		.text
  40              		.section	.gnu.lto_USBUART_1_DP_ISR.d237f54,"",%progbits
  41 0000 789C6366 		.ascii	"x\234cf\300\004R@\274\020\2105\200\230\221\231\201\221"
  41      C0045240 
  41      BC108835 
  41      80989199 
  41      8191
  42 0012 69C23906 		.ascii	"i\3029\006\206F\016&FF\020\203\201\221\241\236\211\261"
  42      86460E26 
  42      46461083 
  42      8191A19E 
  42      89B1
  43 0024 9EF125D3 		.ascii	"\236\361%\323G&\306\011\007V\317\340V_\332\320\320\360"
  43      4726C609 
  43      0756CFE0 
  43      565FDAD0 
  43      D0F0
  44 0036 61D3EAC6 		.ascii	"a\323\352\306\200\003\214?\231\030\030>3A\314a\\\316"
  44      80038C3F 
  44      9918183E 
  44      3341CC61 
  44      5CCE
  45 0048 A8CE0054 		.ascii	"\250\316\000T\364\261\345\357un\266\026\240\"\001\210"
  45      F4B1E5EF 
  45      756EB616 
  45      A0220188 
ARM GAS  C:\Users\Luggi\AppData\Local\Temp\ccLirwVy.s 			page 3


  46 0058 1CE30A46 		.ascii	"\034\343\012F6F \275^\350@\303\377\377\223\327-\341"
  46      364620BD 
  46      5EE840C3 
  46      FFFF93D7 
  46      2DE1
  47 006a 67666078 		.ascii	"gf`x\002\224\001\231\377\224\211\011D3\337al>p;\025"
  47      02940199 
  47      FF948909 
  47      4433DF61 
  47      6C3E703B 
  48 007f A41464C6 		.ascii	"\244\024d\306\274\313}\353\230j\1777t4p\374db\374\314"
  48      BCCB7DEB 
  48      986A7F37 
  48      743470FC 
  48      6462FCCC 
  49 0093 04D4CEB8 		.ascii	"\004\324\316\270\222\261\226\341'P\365=\306\306\003"
  49      92B196E1 
  49      2750F53D 
  49      C6C603
  50 00a2 5F45C12A 		.ascii	"_E\301*\031@\3460\202\364\003MSsO\315K-J,IM\211\017"
  50      1940E630 
  50      82F4034D 
  50      53734FCD 
  50      4B2D4A2C 
  51 00ba CE2F2D4A 		.ascii	"\316/-JN\215\011\010\316w6\215\011\015v\012u\014\012"
  51      4E8D0908 
  51      CE77368D 
  51      090D760A 
  51      750C0A
  52 00cd 89378C2F 		.ascii	"\2117\214/\310\325Kf\000\000\226\312Gk"
  52      C8D54B66 
  52      000096CA 
  52      476B
  53              		.text
  54              		.section	.gnu.lto_USBUART_1_SaveConfig.d237f54,"",%progbits
  55 0000 789C6366 		.ascii	"x\234cf\300\004R@\\\012\304\032@\314\310\314\300\310"
  55      C0045240 
  55      5C0AC41A 
  55      40CCC8CC 
  55      C0C8
  56 0012 34E11C03 		.ascii	"4\341\034\003C#\007\023##\210\301\300\310P\317\304X"
  56      43230713 
  56      232388C1 
  56      C0C850CF 
  56      C458
  57 0024 CFF892E9 		.ascii	"\317\370\222\351#\023\343\204\003\253gp\253/mhh\370"
  57      2313E384 
  57      03AB6770 
  57      AB2F6D68 
  57      68F8
  58 0036 D0B459A2 		.ascii	"\320\264Y\242U\342'\023\003\303g&\2101\214\313\031\325"
  58      55E22713 
  58      03C36726 
  58      88318CCB 
  58      19D5
  59 0048 19806A3E 		.ascii	"\031\200j>\266\374\275\316\315\326\002T#\000\221c\\"
  59      B6FCBDCE 
ARM GAS  C:\Users\Luggi\AppData\Local\Temp\ccLirwVy.s 			page 4


  59      CDD60254 
  59      23009163 
  59      5C
  60 0059 C1C8C608 		.ascii	"\301\310\306\010\244\327\013\035h\370\377\377\363\231"
  60      A4D70B1D 
  60      68F8FFFF 
  60      F399
  61 0067 892FD418 		.ascii	"\211/\324\030\201\342O\200\030d\301S&&\020\315|\217"
  61      81E24F80 
  61      1864C153 
  61      262610CD 
  61      7C8F
  62 0079 9111A412 		.ascii	"\221\021\244\022d\324\023&F\220\020P\201\232{j^jQbI"
  62      64D41326 
  62      46901050 
  62      819A7B6A 
  62      5E6A5162 
  63 008e 6A4A7C70 		.ascii	"jJ|p~iQrjL@p\276\263iLh\260S\250cPH\274a|A\256^2\003"
  63      7E695172 
  63      6A4C4070 
  63      BEB3694C 
  63      68B053A8 
  64 00ad 00688836 		.ascii	"\000h\2106\210"
  64      88
  65              		.text
  66              		.section	.gnu.lto_USBUART_1_RestoreConfig.d237f54,"",%progbits
  67 0000 789C758F 		.ascii	"x\234u\217\277KBQ\024\307\3179\367\371\264t\210&ip\314"
  67      BF4B4251 
  67      14C7CF39 
  67      F7F9B474 
  67      88266970 
  68 0015 A624A23F 		.ascii	"\246$\242?\240\202Z#s\223\244\314\261\014\251Q\274/"
  68      A0825A23 
  68      7393A4CC 
  68      B10CA951 
  68      BC2F
  69 0027 0D1A22B2 		.ascii	"\015\032\"\262)\010\333\262\037\226\321\024\330\"\015"
  69      2908DBB2 
  69      1F96D114 
  69      D8220D
  70 0036 8D454445 		.ascii	"\215EDEa\005a`[\342\020\257\020;\367\031\004E\027.\367"
  70      61056160 
  70      5BE210AF 
  70      103BF719 
  70      0445172E 
  71 004b DEEFFD7C 		.ascii	"\336\357\375|\277\347\034\001\177W/\357q\004\350\342"
  71      BFE71C01 
  71      7F572FEF 
  71      7104E8E2 
  72 005b 136D80B4 		.ascii	"\023m\200\264z\016`8\210D\301\003\262U\273\361\201t"
  72      7A0E6038 
  72      8844C103 
  72      B255BBF1 
  72      8174
  73 006d 09D49AB2 		.ascii	"\011\324\232\262\206\250.\200\220 \241a\002_\251J\270"
  73      86A82E80 
  73      9020A161 
ARM GAS  C:\Users\Luggi\AppData\Local\Temp\ccLirwVy.s 			page 5


  73      025FA94A 
  73      B8
  74 007e 5ACCAD3B 		.ascii	"Z\314\255;\275[R\312\267\205c\367\242\333$\200\0325"
  74      BD5B52CA 
  74      B78563F7 
  74      A2DB2480 
  74      1A35
  75 0090 F3711BBD 		.ascii	"\363q\033\275\300L5U\277u\352)f\332\232\177\270\203"
  75      C04C3555 
  75      BF75EA29 
  75      66DA9A7F 
  75      B883
  76 00a2 3AD785C3 		.ascii	":\327\205\303\366\242l4j\245t\305\207\272\000\223X,"
  76      F6A26C34 
  76      6AA574C5 
  76      87BA0093 
  76      582C
  77 00b4 33A0EABC 		.ascii	"3\240\352\274\020\251S\334\343\351\332\321C\272Ey\336"
  77      10A953DC 
  77      E3E9DAD1 
  77      43BA4579 
  77      DE
  78 00c5 4970DCE6 		.ascii	"Ip\334\346\325J\236\342\237rI:L\242\272\012d\365\251"
  78      D54A9EE2 
  78      9F72493A 
  78      4CA2BA0A 
  78      64F5A9
  79 00d8 7C71E9A8 		.ascii	"|q\351\250\020+\326\363YfM{\0067\014i0%p\027\343\270"
  79      102BD6F3 
  79      59664D7B 
  79      06370C69 
  79      30257017 
  80 00ee 871D5C3B 		.ascii	"\207\035\\;\207\031\204kL\335%'\1772\215\354\311\262"
  80      8719846B 
  80      4CDD2527 
  80      7F328DEC 
  80      C9B2
  81 0100 5DB9B903 		.ascii	"]\271\271\003\334W\034\250\026\004\024<\242\204\311"
  81      DC571CA8 
  81      1604143C 
  81      A284C9
  82 010f A279E652 		.ascii	"\242y\346R0\374.\257\325,\307\001\306\271{\033(\364"
  82      30FC2EAF 
  82      D52CC701 
  82      C6B97B1B 
  82      28F4
  83 0121 43FF8FE4 		.ascii	"C\377\217\344\3160\377M\252t\315\032\360\021\215bc\310"
  83      CE30FF4D 
  83      AA74CD1A 
  83      F0118D62 
  83      63C8
  84 0133 F2801A1F 		.ascii	"\362\200\032\037\225\312h\347pd&\022\233\230\213L\205"
  84      95CA68E7 
  84      70642612 
  84      9B988B4C 
  84      85
  85 0144 FCD1F958 		.ascii	"\374\321\371X8\022\034\361G\007\373\202\001\377@\240"
ARM GAS  C:\Users\Luggi\AppData\Local\Temp\ccLirwVy.s 			page 6


  85      38121CF1 
  85      4707FB82 
  85      01FF40A0 
  86 0154 7F742CD4 		.ascii	"\177t,\324\023\232\235\356\016\303\027\252\342\213\377"
  86      139A9DEE 
  86      0EC317AA 
  86      E28BFF
  87              		.text
  88              		.section	.gnu.lto_USBUART_1_Suspend.d237f54,"",%progbits
  89 0000 789C8556 		.ascii	"x\234\205V_LSg\024\377\316\275\267\245\265-\355\246"
  89      5F4C5367 
  89      14FFCEBD 
  89      B7A5B52D 
  89      EDA6
  90 0012 11532262 		.ascii	"\021S\"b 3&b\262\207=\370\262d\333\303\262\227\305\214"
  90      20332662 
  90      B2873DF8 
  90      B264DBC3 
  90      B297C58C 
  91 0026 F96642D4 		.ascii	"\371fB\324\365mC\303pO#\334B\035h\026\007\214\0316E"
  91      F56D43C3 
  91      704F23DC 
  91      421D6816 
  91      078C1936 
  92 003b C632268E 		.ascii	"\3062&\216\362g\2108u\323\216\361\307\361O\220\011C"
  92      F2678838 
  92      75D38EF1 
  92      C7F14F90 
  92      0943
  93 004d 19A21683 		.ascii	"\031\242\026\203\316-\205\022g\243\320\235\363}\267"
  93      CE2D8512 
  93      67A3D09D 
  93      F37DB7
  94 005c B778B15D 		.ascii	"\267x\261]\223\236{\357\327s~\347w~\337\371\356\251"
  94      939E7BEF 
  94      D7737EE7 
  94      777EDFF9 
  94      EEA9
  95 006e CC567F5E 		.ascii	"\314V\177^\305o\267\225\261\035x\0053\003\251b\2301"
  95      C56FB795 
  95      B11D7805 
  95      3303A962 
  95      9831
  96 0080 AF4592E4 		.ascii	"\257E\222\344y3S\327(u}\214\251v\031Lb]\211\335\230"
  96      793353D7 
  96      28757D8C 
  96      A976194C 
  96      625D89DD 
  97 0095 00E88601 		.ascii	"\000\350\206\001+\226d\305\004\305p_\232\227\240\"\320"
  97      2B9664C5 
  97      04C5705F 
  97      9A97A022 
  97      D0
  98 00a6 5463DBD2 		.ascii	"Tc\333\322\240\252j\250\375\362\206C\033\"\022caI\244"
  98      A0AA6AA8 
  98      FDF28643 
  98      1B221263 
ARM GAS  C:\Users\Luggi\AppData\Local\Temp\ccLirwVy.s 			page 7


  98      6149A4
  99 00b9 8253B085 		.ascii	"\202S\260\205\241O\303\203h\275]\336\012t??\021\376"
  99      A14FC383 
  99      68BD5DDE 
  99      0A743F3F 
  99      11FE
 100 00cb D49A55AF 		.ascii	"\324\232U\257\252%3Kw{mj\215\352\233\211F7E$\200F\220"
 100      AA25334B 
 100      777B6D6A 
 100      8DEA9B89 
 100      46374524 
 101 00e2 3112B6B9 		.ascii	"1\022\266\271a\253[#K\001\276\245\011\233\331\207\011"
 101      61AB5B23 
 101      4B01BEA5 
 101      099BD987 
 101      09
 102 00f3 5C701AB2 		.ascii	"\\p\032\262\0048|\017f\300\013\255\264\276\030P\243"
 102      04387C0F 
 102      66C00BAD 
 102      B4BE1850 
 102      A3
 103 0104 D133CB95 		.ascii	"\3213\313\225\215Y\3626\205\321\222\211E$\311\214F\266"
 103      8D59F236 
 103      85D19289 
 103      4524C98C 
 103      46B6
 104 0116 D09D958C 		.ascii	"\320\235\225\214\235\214\203\214\223\214\213\314Z2\353"
 104      9D8C838C 
 104      938C8BCC 
 104      5A32EB
 105 0125 C8AC2793 		.ascii	"\310\254'\223F\306M&\235\314F2\031d2\311l&\223E&\233"
 105      46C64D26 
 105      9DCC4632 
 105      196432C9 
 105      6C269345 
 106 013b 0C6341FC 		.ascii	"\014cA\374\222$\263\370\200Wy\012J\003\321\2624\342"
 106      9224B3F8 
 106      8057790A 
 106      4A03D1B2 
 106      34E2
 107 014d F6AFA420 		.ascii	"\366\257\244 \365\223cG[\244\242'j\271j\211HJX\"\306"
 107      F5936347 
 107      5BA4A227 
 107      6AB96A89 
 107      484A5822 
 108 0162 4D5084D1 		.ascii	"MP\204\321&6\016\022/\002\331\2423\273\001]\217\216"
 108      26360E12 
 108      2F02D9A2 
 108      33BB015D 
 108      8F8E
 109 0174 0C37EE14 		.ascii	"\0147\356\024\301&\014\236>]\376-\314I\021\311\\\036"
 109      C1260C9E 
 109      3E5DFE2D 
 109      CC4911C9 
 109      5C1E
 110 0186 F0AA0A49 		.ascii	"\360\252\012Iq+xu\324\302\227\2702W\316\005\333Sk\341"
 110      712B7875 
ARM GAS  C:\Users\Luggi\AppData\Local\Temp\ccLirwVy.s 			page 8


 110      D4C297B8 
 110      3257CE05 
 110      DB536BE1 
 111 019a B8D70711 		.ascii	"\270\327\007\021)\005\374\340\206f@\345\240\005j\001"
 111      2905FCE0 
 111      866640E5 
 111      A0056A01 
 112 01aa 114BA6CB 		.ascii	"\021K\246\313\202 \000\011\223]\007\337`\351^ma%\234"
 112      82200009 
 112      935D07DF 
 112      60E95E6D 
 112      61259C
 113 01bd 8C31AD20 		.ascii	"\2141\255 4\237\305\247y\263\214\321\241\266\336;V\362"
 113      349FC5A7 
 113      79B38CD1 
 113      A1B6DE3B 
 113      56F2
 114 01cf 36566259 		.ascii	"6VbY\222\304\326\350\000\026\376\330\350\365\235\000"
 114      92C4D6E8 
 114      0016FED8 
 114      E8F59D00 
 115 01df E2A39297 		.ascii	"\342\243\222\227\025\332\240\010~ X\374m\331\377Y\273"
 115      15DAA008 
 115      7E2058FC 
 115      6DD9FF59 
 115      BB
 116 01f0 39A70977 		.ascii	"9\247\011w1\260\203\366\272\035\035\027x\233\300\031"
 116      31B083F6 
 116      BA1D1D17 
 116      789BC019 
 117 0200 C84187D1 		.ascii	"\310A\207\321\257\276+u\022\026\000\203\016\214\342"
 117      AFBE2B75 
 117      12160083 
 117      0E8CE2
 118 020f 8AF43655 		.ascii	"\212\3646Ui\025X\320\347\341\302`\233\235\327_\021\223"
 118      691558D0 
 118      E7E1C260 
 118      9B9DD75F 
 118      1193
 119 0221 A4F5E9E7 		.ascii	"\244\365\351\347K\316\270\006gu\015:\205\006\245\217"
 119      4BCEB806 
 119      67750D3A 
 119      8506A58F 
 120 0231 CD22DE2A 		.ascii	"\315\"\336* \352\356/\317)\004\221R\314\340\234H#R$"
 120      20EAEE2F 
 120      CF290491 
 120      52CCE09C 
 120      48235224 
 121 0245 03FB11C1 		.ascii	"\003\373\021\301\020\202M\201/\020\356\267\223;3\252"
 121      10824D81 
 121      2F10EEB7 
 121      933B33AA 
 122 0255 B2264C3D 		.ascii	"\262&L=\001\347q\177WJc\303\265\013\340\216`\377\361"
 122      01E7717F 
 122      574A63C3 
 122      B50BE08E 
 122      60FFF1
ARM GAS  C:\Users\Luggi\AppData\Local\Temp\ccLirwVy.s 			page 9


 123 0268 8AEE3555 		.ascii	"\212\3565Uk\025\331\321\355\353'\025\243V^Qu\231VQu"
 123      6B15D9D1 
 123      EDEB2715 
 123      A3565E51 
 123      75995651 
 124 027d EFA94939 		.ascii	"\357\251I9N\342\242N\342'CE\016\001q\270\241\334\317"
 124      4EE2A24E 
 124      E2274345 
 124      0E0171B8 
 124      A1DCCF
 125 0290 215222A8 		.ascii	"!R\"\250\334\317\206\222\022\242]\342%94\231\375\037"
 125      DCCF8692 
 125      12A25DE2 
 125      25393499 
 125      FD1F
 126 02a2 094C67B2 		.ascii	"\011Lg\262\266\272l \340B\377U\032&\214\016\360\204"
 126      B6BA6C20 
 126      E042FF55 
 126      1A268C0E 
 126      F084
 127 02b4 2EAEE117 		.ascii	".\256\341\027\003I5\374\0055|V4\177\207&\332Z\014\251"
 127      034935FC 
 127      05357C56 
 127      347F8726 
 127      DA5A0CA9 
 128 02c8 1CFBBBDF 		.ascii	"\034\373\273\337\314E;\034k\203`u}MJ<k\227\236\365\327"
 128      CC453B1C 
 128      6B836075 
 128      7D4D4A3C 
 128      6B979EF5 
 129 02dd 18E74F06 		.ascii	"\030\347O\006\025\201\260N\200\364\325\316\265\363F"
 129      1581B04E 
 129      80F4D5CE 
 129      B5F346
 130 02ec C05309DD 		.ascii	"\300S\011\335\274\210\222\252\333\233\222\366\273\261"
 130      BC8892AA 
 130      DB9B92F6 
 130      BBB1
 131 02fa C17B9234 		.ascii	"\301{\2224x/op\240\006\357\203\034L+*\371\307\377\261"
 131      782F6F70 
 131      A006EF83 
 131      1C4C2B2A 
 131      F9C7FFB1 
 132 030e A0B13E19 		.ascii	"\240\261>\031\353+\006\245\323\204\177ee\307\311T\276"
 132      EB2B06A5 
 132      D3847F65 
 132      65C7C954 
 132      BE
 133 031f D5CB48FA 		.ascii	"\325\313H\3727\203\362\011\321\372\271\362i\\\371\272"
 133      3783F209 
 133      D1FAB9F2 
 133      695CF9BA 
 134 032f E4CA0F88 		.ascii	"\344\312\017\210\356\325\017\243\015\363\014\256\330"
 134      EED50FA3 
 134      0DF30CAE 
 134      D8
 135 033c 88F1E658 		.ascii	"\210\361\346X\367\272\2235\327\220\201\177:\372\257"
ARM GAS  C:\Users\Luggi\AppData\Local\Temp\ccLirwVy.s 			page 10


 135      F7BA9335 
 135      D790817F 
 135      3AFAAF
 136 034b E29B307A 		.ascii	"\342\2330z\230\363M\327\004k\216\275\0016bLM\337\362"
 136      98F34DD7 
 136      046B8EBD 
 136      0136624C 
 136      4DDFF2
 137 035e 63996F7D 		.ascii	"c\231o}Ul\353':\217e\307Q\256\352(#\032\207E\215C\206"
 137      556CEB27 
 137      3A8F65C7 
 137      51AEEA28 
 137      231A8745 
 138 0375 4038DFB2 		.ascii	"@8\337\2628d\343\373\236\311`\324@)\021\3265\316(C{"
 138      3864E3FB 
 138      9EC960D4 
 138      402911D6 
 138      35CE2843 
 139 038a 4BB71CD3 		.ascii	"K\267\034\323\030eb\310\227\017\353;E36\304N\360\221"
 139      186562C8 
 139      970FEB3B 
 139      453336C4 
 139      4EF091
 140 039d 4B8F02D6 		.ascii	"K\217\002\3268\314\230\016\363\273A\226\315\010\261"
 140      38CC980E 
 140      F3BB4196 
 140      CD08B1
 141 03ac 4A9684D1 		.ascii	"J\226\204\321\3279\211\315\202\304\265\355\002\"\013"
 141      D73989CD 
 141      82C4B5ED 
 141      02220B
 142 03bb 236E5686 		.ascii	"#nV\206\206\304X8\033\24303\341m\263\307A\306u\220\011"
 142      86C45838 
 142      1BA33033 
 142      E16DB3C7 
 142      41C67590 
 143 03d0 03856C84 		.ascii	"\003\205l\204XE!a\364\037\234B6\357\244\311\344\235"
 143      58452161 
 143      F41F9C42 
 143      36EFA4C9 
 143      E49D
 144 03e2 34496758 		.ascii	"4IgXk\035\232*\012\303?\026|\254\204\236\376\317X1\036"
 144      6B1D9A2A 
 144      0AC33F16 
 144      7CAC849E 
 144      FECF5831 
 145 03f7 B31B498E 		.ascii	"\263\033I\216\331\315\370\034\231\342sD\177\361\322"
 145      D9CDF81C 
 145      99E27344 
 145      7FF1D2
 146 0406 B0FD930F 		.ascii	"\260\375\223\017\265Y\234}b>\373\002\221\001\351\271"
 146      B5599C7D 
 146      623EFB02 
 146      9101E9B9 
 147 0416 AC1D613E 		.ascii	"\254\035a>\005\247\2215\216\343\210\224\312h\232W\244"
 147      05A79135 
 147      8EE38894 
ARM GAS  C:\Users\Luggi\AppData\Local\Temp\ccLirwVy.s 			page 11


 147      CA689A57 
 147      A4
 148 0427 3ED71947 		.ascii	">\327\031G\271\202\316\267\264Q\216\322\205F\272e\255"
 148      B982CEB7 
 148      B4518ED2 
 148      8546BA65 
 148      AD
 149 0438 A6A355B5 		.ascii	"\246\243U\265\207\034D\300\251\366\224\252\251\317\014"
 149      871C44C0 
 149      A9F694AA 
 149      A9CF0C
 150 0447 0327AFE1 		.ascii	"\003'\257\341Dy\315E\375\240\272`\006\345\275\315\345"
 150      4479CD45 
 150      FDA0BA60 
 150      06E5BDCD 
 150      E5
 151 0458 BD83C5E0 		.ascii	"\275\203\305\340\357\343C\017\356q\367\027T\354\321"
 151      EFE3430F 
 151      EE71F717 
 151      54ECD1
 152 0467 BB627342 		.ascii	"\273bsB#=\261\014\013\177\251\265\212\310\320\245eX"
 152      233DB10C 
 152      0B7FA9B5 
 152      8AC8D0A5 
 152      6558
 153 0479 5CF8A6CA 		.ascii	"\\\370\246\312\021\207\014\352\220\263\010\311!\246"
 153      11870CEA 
 153      90B308C9 
 153      21A6
 154 0487 C11B38FE 		.ascii	"\301\0338\3766/\207\321_\027 IP\270\227\336\364\344"
 154      362F87D1 
 154      5F172049 
 154      50B897DE 
 154      F4E4
 155 0499 7B0AF614 		.ascii	"{\012\366\024z\336\313\313\335\177\260`\237g\367\316"
 155      7ADECBCB 
 155      DD7FB060 
 155      9F67F7CE 
 156 04a9 DCFD6FBC 		.ascii	"\334\375o\274\262{W\356\353\273^{\347\335\274\227\363"
 156      B27B57EE 
 156      EBBB5E7B 
 156      E7DDBC97 
 156      F3
 157 04ba 0E7CB07D 		.ascii	"\016|\260}\037sy\362\367\354}\337\363V~\241\247\240"
 157      1F7379F2 
 157      F7EC7DDF 
 157      F3567EA1 
 157      A7A0
 158 04cc E0E081C2 		.ascii	"\340\340\201\302\017\377\003\300\345ym"
 158      0FFF03C0 
 158      E5796D
 159              		.text
 160              		.section	.gnu.lto_USBUART_1_Resume.d237f54,"",%progbits
 161 0000 789C8D95 		.ascii	"x\234\215\225_L\323W\024\307\357\271\277\376\243-\025"
 161      5F4CD357 
 161      14C7EFB9 
 161      BFFEA32D 
ARM GAS  C:\Users\Luggi\AppData\Local\Temp\ccLirwVy.s 			page 12


 161      15
 162 0011 1C326922 		.ascii	"\0342i\"\233h\374\223\315\231e\331\303\036\267=,\313"
 162      9B68FC93 
 162      CD9965D9 
 162      C31EB73D 
 162      2CCB
 163 0023 5E9631F7 		.ascii	"^\2261\367dB\324\365m\242a\2707\342\257P'3d  \251N\346"
 163      6442D4F5 
 163      6DA261B8 
 163      37E2AF50 
 163      27336420 
 164 003b 4886E274 		.ascii	"H\206\342t\202E\253\303?\253\300\000\221\312\220\331"
 164      8245ABC3 
 164      3FABC000 
 164      91CA90D9 
 165 004b 8E3F2B98 		.ascii	"\216?+\230\200sF\030X\347\326\030`\347\334\333_\013"
 165      80734618 
 165      58E7D618 
 165      60E7DCDB 
 165      5F0B
 166 005d 85129BF4 		.ascii	"\205\022\233\364\374\332\373;\347{>\367\334{\356U\330"
 166      FCDAFB3B 
 166      E77B3EF7 
 166      DC7BEE55 
 166      D8
 167 006e E2CF1BF8 		.ascii	"\342\317\033\370\23541\366\026>A\317\200W\334f\314i"
 167      9D3431F6 
 167      163E41CF 
 167      8057DC66 
 167      CC69
 168 0080 E25C69C9 		.ascii	"\342\\i\311f\252Y\027\330\312T\253\002:9\254\003\240"
 168      66AA5917 
 168      D8CA54AB 
 168      023A39AC 
 168      03A0
 169 0092 1F0CD87E 		.ascii	"\037\014\330~\256\350`?\374\305\2479T\370\316\270-\033"
 169      AEE8603F 
 169      FCC5A739 
 169      54F8CEB8 
 169      2D1B
 170 00a4 EB55559D 		.ascii	"\353UU\235\362DV\037X\035\341\214\205\271\324\207S\260"
 170      F244561F 
 170      581DE18C 
 170      85B9D487 
 170      53B0
 171 00b6 91A14FFD 		.ascii	"\221\241O\375\303\271:\253\262\031\350\367t0\\\226\262"
 171      C3B93AAB 
 171      B219E8F7 
 171      74305C96 
 171      B2
 172 00c7 AE4E558B 		.ascii	"\256NU\213G\375\177vXT\267\352\032\235\233{)\302\001"
 172      47FD7F76 
 172      5854B7EA 
 172      1A9D9B7B 
 172      29C201
 173 00da 1A40C148 		.ascii	"\032@\301Hx\325\016\233\355QB\012p\315\004-\006\027"
 173      78D50E9B 
ARM GAS  C:\Users\Luggi\AppData\Local\Temp\ccLirwVy.s 			page 13


 173      ED51420A 
 173      70CD042D 
 173      0617
 174 00ec 264883D3 		.ascii	"&H\203\323\260N\212\303\017`\000|\320H\343J\237:7\327"
 174      B04E8AC3 
 174      0F60007C 
 174      D048E34A 
 174      9F3A37D7 
 175 0100 7CBFAA61 		.ascii	"|\277\252a\203~\223\216\321\220\236E87\2221\2211\223"
 175      837E938E 
 175      D1909E45 
 175      38379231 
 175      913193
 176 0113 B1904925 		.ascii	"\261\220I%c#\223F&\235L\006\231Ud2\311d\221\261\223"
 176      63239346 
 176      269D4C06 
 176      99556432 
 176      C96491B1 
 177 0128 5943269B 		.ascii	"YC&\233\314Z29d\030\033\303/\325a\034\377\340S\031\206"
 177      CC5A3239 
 177      64181BC3 
 177      2FD5611C 
 177      FFE05319 
 178 013d 12DF89F2 		.ascii	"\022\337\211\362\027\211\350_\256C\340o\373\277>\307"
 178      1789E85F 
 178      AE43E06F 
 178      FBBF3EC7 
 179 014d 8B9EA9A5 		.ascii	"\213\236\251\245\252)\302qF\304y\006\2120Z\307\002\300"
 179      AA29C271 
 179      46C47906 
 179      8A305AC7 
 179      02C0
 180 015f 053A32A2 		.ascii	"\005:2\2423\033\204b\357\364\243\260Q\006\353\023\203"
 180      331B8462 
 180      EFF4A3B0 
 180      5106EB13 
 180      83
 181 0170 F5335CD6 		.ascii	"\3653\\\326`d\254\267\317\364\200\343\210\370\333\340"
 181      6064ACB7 
 181      CFF480E3 
 181      88F8DBE0 
 182 0180 741D875A 		.ascii	"t\035\207Z\370\306\251\222\227\001\316B\021\374\010"
 182      F8C6A992 
 182      9701CE42 
 182      11FC08
 183 018f 76F16EF6 		.ascii	"v\361n\366l\271\307\260\345\025\252\3479\364y,\226\002"
 183      6CB9C7B0 
 183      E515AAE7 
 183      39F4792C 
 183      9602
 184 01a1 1A610BBB 		.ascii	"\032a\013\273\013\256\201\222\235\361T\316\223W\312"
 184      0BAE8192 
 184      9DF154CE 
 184      9357CA
 185 01b0 8C248A2E 		.ascii	"\214$\212.\320\004\262\344\343\\a-\331\312 \264N5MV"
 185      D004B2E4 
 185      E35C612D 
ARM GAS  C:\Users\Luggi\AppData\Local\Temp\ccLirwVy.s 			page 14


 185      D9CA20B4 
 185      4E354D56 
 186 01c4 29E48DAE 		.ascii	")\344\215\256\207\377>\3507\223\253Qm+Qm\013\220\214"
 186      87FF3EE8 
 186      3793AB51 
 186      6D2B516D 
 186      0B908C
 187 01d7 226D9F4B 		.ascii	"\"m\237K\235\321\023\222\013\"\334\004\347\301\016\036"
 187      9DD11392 
 187      0B22DC04 
 187      E7C10E1E 
 188 01e7 92846684 		.ascii	"\222\204f\204\300\367\001\377\303\373\302=E}\231\301"
 188      C0F701FF 
 188      C3FBC23D 
 188      457D99C1 
 189 01f7 057C8529 		.ascii	"\005|\205)\236\036\232\355\256\001IdD\247\243\217\352"
 189      9E1E9AED 
 189      AE014964 
 189      44A7A38F 
 189      EA
 190 0208 BC067232 		.ascii	"\274\006r2\327\037t\252\272\005i\314\"\315\241\353O"
 190      D71F74AA 
 190      BA0569CC 
 190      22CDA1EB 
 190      4F
 191 0219 7D295A1A 		.ascii	"})Z\032\013\\\3044^\221\346\022\246A\311\222'\006)g"
 191      0B5CC434 
 191      5E91E612 
 191      A641C992 
 191      27062967 
 192 022d 928A9DB5 		.ascii	"\222\212\235\265\017<:1G`pYf\255\204\350\254\222\212"
 192      0F3C3A31 
 192      47607059 
 192      66AD84E8 
 192      AC928A
 193 0240 FD846228 		.ascii	"\375\204b(!\021[?\220\212f\214\030:<\345\2274\0275\300"
 193      21115B3F 
 193      908A668C 
 193      183A3CE5 
 193      97341735 
 194 0255 D1A0B3C9 		.ascii	"\321\240\263\311\032\027i\211\211\\I \262\240\304\""
 194      1A176989 
 194      895C4920 
 194      B2A0C422 
 195 0265 84A4D157 		.ascii	"\204\244\321W\005\202E\"\204nUG\253\224\2121\027&&\332"
 195      05824522 
 195      846E5547 
 195      AB948A31 
 195      172626DA 
 196 0279 2D02A2F6 		.ascii	"-\002\242\366F\024\302\025<0d\211\313\\\213\311\\O\200"
 196      4614C215 
 196      3C306489 
 196      CB5C8BC9 
 196      5C4F80
 197 028c B0A1C422 		.ascii	"\260\241\304\"\210\244\321?\013\010\233\204x\034\255"
 197      88A4D13F 
 197      0B089B84 
ARM GAS  C:\Users\Luggi\AppData\Local\Temp\ccLirwVy.s 			page 15


 197      781CAD
 198 029b 431A467C 		.ascii	"C\032F|\367\254\242/E Tku\250\35685\240\304E|1\221\033"
 198      F7ACA22F 
 198      4520546B 
 198      75A8EE38 
 198      35A0C445 
 199 02b3 0908E928 		.ascii	"\011\010\351(\261\010!it\253@Hg\303\340\362U\365[\311"
 199      B1082169 
 199      74AB4048 
 199      67C3E0F2 
 199      55F55BC9 
 200 02c7 9D25B689 		.ascii	"\235%\266\2115,\266p\033\366\030\276\27262tO!\266\324"
 200      352CB670 
 200      1BF618BE 
 200      BA363274 
 200      4F21B6D4 
 201 02db 4D0CDAC1 		.ascii	"M\014\332\301\036\321&\020\352\371B\022d\320\216\356"
 201      1ED12610 
 201      EAF94212 
 201      64D08EEE 
 202 02eb 9FE8965B 		.ascii	"\237\350\226[\355+_t\006c\325unc\234\341\227\030C\207"
 202      ED2B5F74 
 202      0663D575 
 202      6E639CE1 
 202      97184387 
 203 02ff 9C41B1B7 		.ascii	"\234A\261\267n\253\024X\225\264Q\023;\263s\351\316\354"
 203      6EAB1458 
 203      95B45113 
 203      3BB373E9 
 203      CEEC
 204 0311 129D09D4 		.ascii	"\022\235\011\324\2317\2613\251:_\016+R<\023\0011\305"
 204      9937B133 
 204      A93A5F0E 
 204      2B523C13 
 204      0131C5
 205 0324 82F22445 		.ascii	"\202\362$E\353\026\345\311\024\3459\272|yn\311\362\304"
 205      EB16E5C9 
 205      14E539BA 
 205      7C796EC9 
 205      F2C4
 206 0336 1A2A15C7 		.ascii	"\032*\025\307z\346\225g\266G\333dY\313-\210?a9\355\322"
 206      7AE69567 
 206      B647DB64 
 206      59CB2D88 
 206      3F6139ED 
 207 034b FF5870FC 		.ascii	"\377Xp\374\211\250:\346\202\333\317\273\272\275\002"
 207      89A83AE6 
 207      82DBCFBB 
 207      BABD02
 208 035a DF2EF0CF 		.ascii	"\337.\360\317/\217\377\253\304\357\035m+\267\012|\314"
 208      2F8FFFAB 
 208      C4EF1D6D 
 208      2BB70A7C 
 208      CC
 209 036b D3370F3F 		.ascii	"\3237\017?\340\327\360\327,\227\361N\002~\266\364o\251"
 209      E0D7F0D7 
 209      2C97F14E 
ARM GAS  C:\Users\Luggi\AppData\Local\Temp\ccLirwVy.s 			page 16


 209      027EB6F4 
 209      6FA9
 210 037d EC728BED 		.ascii	"\354r\213\355\200\2072\364?/\376o\002?\233\211\323r"
 210      808732F4 
 210      3F2FFE6F 
 210      023F9B89 
 210      D372
 211 038f 66CCA89D 		.ascii	"f\314\250\235+e\0157\365bo5h{\253\334]sG\036\217N_\026"
 211      2B650D37 
 211      F5626F35 
 211      687BABDC 
 211      5D73471E 
 212 03a7 89DC8D89 		.ascii	"\211\334\215\211\004\344\001\331x\342\237Y\240 \213"
 212      04E401D9 
 212      78E29F59 
 212      A0208B
 213 03b6 C220A89D 		.ascii	"\302 \250\235\217\223\275\321=\273\026]B\247K\277\027"
 213      8F93BDD1 
 213      3DBB165D 
 213      42A74BBF 
 213      17
 214 03c7 2EE6524D 		.ascii	".\346RM\267\353\322\230\307\026G\373=\246:\2200\317"
 214      B7EBD298 
 214      C71647FB 
 214      3DA63A90 
 214      30CF
 215 03d9 1C2971E4 		.ascii	"\034)q\344\352\361J\321\270\\\305\003q0a\242I\325\206"
 215      EAF14AD1 
 215      B85CC503 
 215      713061A2 
 215      49D586
 216 03ec C44473C4 		.ascii	"\304Ds\304:\315$Y\247\025a\274:\030\014\313u\352;v\262"
 216      3ACD2459 
 216      A71561BC 
 216      3A180CCB 
 216      75EA3B76 
 217 0401 6405254A 		.ascii	"d\005%J\303<\177\320:\245\2132M\265\037I\211fsw\316"
 217      C33C7FD0 
 217      3AA58B32 
 217      4DB51F49 
 217      89667377 
 218 0416 FE27B68C 		.ascii	"\376'\266\214\271R\233N\320[\263~~\225B1\202\021$\020"
 218      B9529B4E 
 218      D05BB37E 
 218      7E954231 
 218      82112410 
 219 042a 0B43D7AD 		.ascii	"\013C\327\255;sI\202\225a\\=\006\243\342\256}A\\f\272"
 219      3B734982 
 219      95615C3D 
 219      06A3E2AE 
 219      7D415C66 
 220 043f E8158DDB 		.ascii	"\350\025\215\333+\300\227\014\312\010\323\245\012\367"
 220      2BC0970C 
 220      CA08D3A5 
 220      0AF7
 221 044d 30086FE4 		.ascii	"0\010o\344\0106^\010\234\276\346O\2043\243\353\036H"
 221      08365E08 
ARM GAS  C:\Users\Luggi\AppData\Local\Temp\ccLirwVy.s 			page 17


 221      9CBEE64F 
 221      8433A3EB 
 221      1E48
 222 045f 03B7E086 		.ascii	"\003\267\340\206\367\034\371\216\202\035\205\216O\363"
 222      F71CF98E 
 222      821D858E 
 222      4FF3
 223 046d 72F7EC2B 		.ascii	"r\367\354+\330\345\330\376a\356\236w\337\334\276-\367"
 223      D8E5D8FE 
 223      61EE9E77 
 223      DFDCBE2D 
 223      F7
 224 047e 9D6D6F7F 		.ascii	"\235mo\177\364q\336\353y{w\277\266\213\2459\362w\354"
 224      F471DEEB 
 224      797B77BF 
 224      B68BA539 
 224      F277EC
 225 0491 FCCCF17E 		.ascii	"\374\314\361~~\241\243\240`\337\336\302\317\377\007"
 225      7EA1A3A0 
 225      60DFDEC2 
 225      CFFF07
 226 04a0 4E6F2C5F 		.ascii	"No,_"
 227              		.text
 228              		.section	.gnu.lto_.symbol_nodes.d237f54,"",%progbits
 229 0000 789C55CB 		.ascii	"x\234U\3131\016\202@\020\205\341\2673\313\002\013$\336"
 229      310E8240 
 229      1085E1B7 
 229      33CB020B 
 229      24DE
 230 0012 C04B700E 		.ascii	"\300Kp\016\2574\024\304\302\302\230\220P\023\303\021"
 230      AF3414C4 
 230      C2C29890 
 230      5013C311 
 231 0022 F406C442 		.ascii	"\364\006\304B\023\012m-,(=\203\221u)\326i\376|/\031"
 231      130A6D2D 
 231      2C283D83 
 231      917529D6 
 231      69FE7C2F 
 232 0037 06B051F0 		.ascii	"\006\260Q\360GJ\200\303\010\210\240\355\022\020\211"
 232      474A80C3 
 232      0888A0ED 
 232      121089
 233 0046 FA330B85 		.ascii	"\3723\013\205\216b\254\004\244\205\377V\250\216\204"
 233      8E62AC04 
 233      A485FF56 
 233      A88E84
 234 0055 29121DCE 		.ascii	")\022\035\316\312H\344\215\252\232\231\212\011\231H"
 234      CA48E48D 
 234      AA9A998A 
 234      099948
 235 0064 1C329724 		.ascii	"\0342\227$d&iH+6d!Y@F\214\376\365QL)\246S\311\224\240"
 235      64266948 
 235      2B366421 
 235      5940468C 
 235      FEF5514C 
 236 007e 3E97AC73 		.ascii	">\227\254s\277\352\014\303\366\371k\277\363\255\367"
 236      BFEA0CC3 
ARM GAS  C:\Users\Luggi\AppData\Local\Temp\ccLirwVy.s 			page 18


 236      F6F96BBF 
 236      F3ADF7
 237 008d 8B1B578B 		.ascii	"\213\033W\213\251y\257Y\307\250\333\271f\3713\363\337"
 237      A979AF59 
 237      C7A8DBB9 
 237      66F933F3 
 237      DF
 238 009e F5625CA7 		.ascii	"\365b\\\247\333\322\321\265\300tw%\034\037\256\026\303"
 238      DBD2D1B5 
 238      C0747725 
 238      1C1FAE16 
 238      C3
 239 00af FC8F2F56 		.ascii	"\374\217/VOV2"
 239      4F5632
 240              		.text
 241              		.section	.gnu.lto_.refs.d237f54,"",%progbits
 242 0000 789C6366 		.ascii	"x\234cf``\220d\200\000F&\006fFf\026FV6FV\021FV5&6\006"
 242      60609064 
 242      80004626 
 242      06664666 
 242      16465636 
 243 001d 56660656 		.ascii	"Vf\006V\021\006\000\011z\000\246"
 243      11060009 
 243      7A00A6
 244              		.text
 245              		.section	.gnu.lto_.decls.d237f54,"",%progbits
 246 0000 789C8D56 		.ascii	"x\234\215VmPS\331\031\276''\011p\011jk\305\035\332\031"
 246      6D5053D9 
 246      19BE2727 
 246      0970096A 
 246      6BC51DDA 
 247 0015 4177A8ED 		.ascii	"Aw\250\3550;U\247\235\355\257]7\356l\235v:\014\310/"
 247      303B55A7 
 247      9DEDAF5D 
 247      37EE6C9D 
 247      763A0CC8 
 248 002a 9D6130DE 		.ascii	"\235a0\336Z\246\010)\204\235\362k/\340\007b\253\224"
 248      5AA60829 
 248      849DF26B 
 248      2FE00762 
 248      AB94
 249 003c 6A05AC1A 		.ascii	"j\005\254\032VPW\335\230\255\202\006A\002\256\222\005"
 249      565057DD 
 249      98AD8206 
 249      4102AE92 
 249      05
 250 004d 05540808 		.ascii	"\005T\010\010\273\013\250\010\202\037\021\001\201\254"
 250      BB0BA808 
 250      821F1101 
 250      81AC
 251 005b A6EF39F7 		.ascii	"\246\3579\367\\\356\211\302\3303\363&\367\234<\357s"
 251      5CEE89C2 
 251      D833F326 
 251      F79C3CEF 
 251      73
 252 006c 9EF7391F 		.ascii	"\236\3679\0377X\020\2048\235 \004\240M\212\202\260\026"
 252      37581084 
ARM GAS  C:\Users\Luggi\AppData\Local\Temp\ccLirwVy.s 			page 19


 252      389D2004 
 252      A04D8A82 
 252      B016
 253 007e 9E8D3016 		.ascii	"\236\2150\026\017\001\217\202\003\242JP\232\011\342"
 253      0F018F82 
 253      03A24A50 
 253      9A09E2
 254 008d 22440D44 		.ascii	"\"D\015D-\304e\0107\204\007\242\031\342:D;D\007\204"
 254      2DC46508 
 254      378407A2 
 254      19E23A44 
 254      3B440784 
 255 00a1 17A28771 		.ascii	"\027\242\207q|\0071,\0047\302\203\331<\017!\256\261"
 255      7C07312C 
 255      0437C283 
 255      D93C0F21 
 255      AEB1
 256 00b3 711DFBCD 		.ascii	"q\035\373\315#\274\331\310\274\210\345\010\354\271f"
 256      23BCD9C8 
 256      BC88E508 
 256      ECB966
 257 00c2 0E1CD1A6 		.ascii	"\016\034\321\246\326\020\0111\002\321\0131\012Q\315"
 257      D6100931 
 257      02D10B31 
 257      0A51CD
 258 00d1 3098E1AE 		.ascii	"0\230\341\2563\355\210\351\344\033\251\357\307\214\347"
 258      33ED88E9 
 258      E41BA9EF 
 258      C78CE7
 259 00e0 6BC6F584 		.ascii	"k\306\365\204\323;\006\341\203x\016\361\000b\\P\374"
 259      D33B06E1 
 259      83780EF1 
 259      00625C50 
 259      FC
 260 00f1 BA053101 		.ascii	"\272\0051\001\321\0121\0031\015\021\303j\273\0071\000"
 260      D10A3103 
 260      310D11C3 
 260      6ABB0731 
 260      00
 261 0102 6160FC5E 		.ascii	"a`\374^\346W;\253\031\315\341\225\233\315\315\353P5"
 261      E6573BAB 
 261      19CDE195 
 261      9BCDCDEB 
 261      5035
 262 0114 A873F3F3 		.ascii	"\250s\363\363\250\272x=~AY\307n\316\007U#\257\313\310"
 262      A8BA783D 
 262      7E4159C7 
 262      6ECE0755 
 262      23AFCBC8 
 263 0128 E65375F5 		.ascii	"\346Su\3650\237\332\347\321\366L\207Z\356N=7\015\353"
 263      309FDAE7 
 263      D1F64C87 
 263      5AEE4E3D 
 263      370DEB
 264 013b D0027111 		.ascii	"\320\002q\021\351\226u\015\216c\350\232D\035\351\036"
 264      E996750D 
 264      8E63E89A 
ARM GAS  C:\Users\Luggi\AppData\Local\Temp\ccLirwVy.s 			page 20


 264      441DE91E 
 265 014b 1E7B521B 		.ascii	"\036{R\033\206u\210<\037+\031\350\020\343N\311\262\\"
 265      8675883C 
 265      1F2B19E8 
 265      10E34EC9 
 265      B25C
 266 015d 20BB3D48 		.ascii	" \273=H\243\310=~\351\357!\220\023-\322\356\301\321"
 266      A3C83D7E 
 266      E9EF2190 
 266      132DD2EE 
 266      C1D1
 267 016f A9F3A1B4 		.ascii	"\251\363\241\264\033\010`\030\320\035o\177Q\266\000"
 267      1B086018 
 267      D01D6F7F 
 267      51B600
 268 017e C58A1590 		.ascii	"\305\212\025\220\352;\351\355\371\231,\353\221\003\211"
 268      EA3BE9ED 
 268      F9992CEB 
 268      910389
 269 018d E80B84D1 		.ascii	"\350\013\204\321)\024G\304\221\\\322\012d9O\226\363"
 269      291447C4 
 269      915CD20A 
 269      64394F96 
 269      F3
 270 019e 65C34A01 		.ascii	"e\303J\001\235@Q\350$\212\022\320\227(\026\000\024\212"
 270      9D4051E8 
 270      248A12D0 
 270      97281600 
 270      148A
 271 01b0 4EC3E019 		.ascii	"N\303\340\0312\010\0040\231\3131~#\234\312\217&s\327"
 271      32080430 
 271      99CB317E 
 271      239CCA8F 
 271      2673D7
 272 01c3 147B4A8C 		.ascii	"\024{J\214T\276\236t\007\272\273jC\360j\304\253\214"
 272      54BE9E74 
 272      07BABB6A 
 272      43F06AC4 
 272      AB8C
 273 01d5 5154F61D 		.ascii	"QT\366\035\232\256\010\243]rx\026\022\235\217\367\347"
 273      9AAE08A3 
 273      5D727816 
 273      129D8FF7 
 273      E7
 274 01e6 05C2994E 		.ascii	"\005\302\231N\373\231\010\204\252@\343W\232\306\030"
 274      FB990884 
 274      AA40E357 
 274      9AC618
 275 01f5 5E6351BE 		.ascii	"^cQ\276\034\366;\001\235\0059N\"\347<h\214a\032\377"
 275      1CF63B01 
 275      9D05394E 
 275      22E73C68 
 275      8C611AFF 
 276 0209 0B83E7C8 		.ascii	"\013\203\347\310`\025\325x\311\177\267C\277\364\000"
 276      6015D578 
 276      C97FB743 
 276      BFF400
ARM GAS  C:\Users\Luggi\AppData\Local\Temp\ccLirwVy.s 			page 21


 277 0218 B092AC45 		.ascii	"\260\222\254Ez\024\0379\233'\240j\264\024>7\352\025"
 277      7A141F39 
 277      9B27A06A 
 277      B4143E37 
 277      EA15
 278 022a 2FCBF7DA 		.ascii	"/\313\367\332\013\027\340\337R\305\347G\256\356\321"
 278      0B17E0DF 
 278      52C5E747 
 278      AEEED1
 279 0239 471F91ED 		.ascii	"G\037\221\355N_\331=\257\256T\266\347\311\257\002\001"
 279      4E5FD93D 
 279      AFAE54B6 
 279      E7C9AF02 
 279      01
 280 024a 4473D085 		.ascii	"Ds\320\205Ya\002y\246\312\320E\024\015\211\303\015\216"
 280      59610279 
 280      A6CAD045 
 280      140D89C3 
 280      0D8E
 281 025c 34FC57CA 		.ascii	"4\374W\312\361\370PC\217\0018\234\316\376\222+\222{"
 281      F1F85043 
 281      8F01389C 
 281      CEFE922B 
 281      927B
 282 026e BBFC0359 		.ascii	"\273\374\003Y\024J\340\342\010\\*A\015%h\362\324\270"
 282      144AE0E2 
 282      085C2A41 
 282      0D2568F2 
 282      D4B8
 283 0280 16E09D88 		.ascii	"\026\340\235\210R\354p]\277`\004\212~\247\375\3421\243"
 283      52EC705D 
 283      BF60048A 
 283      7EA7FDE2 
 283      31A3
 284 0292 47760702 		.ascii	"Gv\007\002\037P\202K\034\301%\225\240\226\022\224\272"
 284      1F50824B 
 284      1CC12595 
 284      A0961294 
 284      BA
 285 02a3 FB4E87E1 		.ascii	"\373N\207\341#\012\301\367\017r\373DZ\207\335\037DP"
 285      230AC1F7 
 285      0F72FB44 
 285      5A87DD1F 
 285      4450
 286 02b5 C711D4A9 		.ascii	"\307\021\324\251\004\227)\301\356\243C\362B\354T\010"
 286      049729C1 
 286      EEA343F2 
 286      42EC5408 
 287 02c5 C61BDBFF 		.ascii	"\306\033\333\377\215\025\202\226\023<A=GP\257\022\270"
 287      8D158296 
 287      133C413D 
 287      4750AF12 
 287      B8
 288 02d6 2981B77E 		.ascii	")\201\267~\327\256P\334\200\202\326>RY\373\275-e\015"
 288      D7AE50DC 
 288      8082D63E 
 288      5259FBBD 
ARM GAS  C:\Users\Luggi\AppData\Local\Temp\ccLirwVy.s 			page 22


 288      2D650D
 289 02e9 987603E4 		.ascii	"\230v\003\344g\335\235;\373\2471\022c\351\302\372\212"
 289      67DD9D3B 
 289      FBA73112 
 289      63E9C2FA 
 289      8A
 290 02fa 65FC8E80 		.ascii	"e\374\216\200\342\242\320/`\005\257\302\262F\262em\204"
 290      E2A2D02F 
 290      6005AFC2 
 290      B246B265 
 290      6D84
 291 030c 35BB026B 		.ascii	"5\273\002k\246\354\343\016e\037\177\015{\244A\333#\221"
 291      A6ECE30E 
 291      651F7F0D 
 291      7BA441DB 
 291      2391
 292 031e E2ECB1D8 		.ascii	"\342\354\261\330\275\335\211\371U'Hm\331\257\005-\273"
 292      BDDD89F9 
 292      5527486D 
 292      D9AF052D 
 292      BB
 293 032f 5CDA5417 		.ascii	"\\\332T\027\202\233\024\265\207kFr\303\210\341\262\257"
 293      829B14B5 
 293      876B4672 
 293      C388E1B2 
 293      AF
 294 0340 65C86B2A 		.ascii	"e\310k*\225\313\325u\207$\324\304\325\334\244\326\354"
 294      95CBD575 
 294      8724D4C4 
 294      D5DCA4D6 
 294      EC
 295 0351 A135DFB0 		.ascii	"\2415\337\260\177~P\304\205\312q\355\237)/\011UX<\273"
 295      7F7E50C4 
 295      85CA71ED 
 295      9F292F09 
 295      55583CBB 
 296 0365 EB57712C 		.ascii	"\353Wq,\304\271o8\226oT\226f\312\362\217\272\3521#\366"
 296      C4B96F38 
 296      966F5496 
 296      66CAF28F 
 296      BAEA3123 
 297 037a 282C3B3B 		.ascii	"(,;;\233\216c\312b\367W\356\214\346\274o\341\030ZT\206"
 297      9B8E63CA 
 297      62F757EE 
 297      8CE6BC6F 
 297      E1185A54 
 298 038f EB94A168 		.ascii	"\353\224\241hGC\221^\017\027\023\255y#=\212\023\201"
 298      4743915E 
 298      0F1713AD 
 298      79233D8A 
 298      1381
 299 03a1 814ADDBC 		.ascii	"\201J\335\274\207\240\225\272q\0031;\036}\371\2253\034"
 299      87A095BA 
 299      7103313B 
 299      1E7DF995 
 299      331C
 300 03b3 7FCBEE9D 		.ascii	"\177\313\356\235\242\332^\272\377d\347H\313g\\\035\220"
ARM GAS  C:\Users\Luggi\AppData\Local\Temp\ccLirwVy.s 			page 23


 300      A2DA5EBA 
 300      FF64E748 
 300      CB675C1D 
 300      90
 301 03c4 84DA3815 		.ascii	"\204\3328\025m\252\212v\252\342h\323\243\316\205T\205"
 301      6DAA8A76 
 301      AAE268D3 
 301      A3CE8554 
 301      85
 302 03d5 635685B3 		.ascii	"cV\205\263\336q5|^\025\267\250\212\233\252\212\177\015"
 302      DE71357C 
 302      5E15B7A8 
 302      8A9BAA8A 
 302      7F0D
 303 03e7 F4971970 		.ascii	"\364\227\031p1\246*~ht]5(F<=6k\004d\240\333\234\204"
 303      31A62A7E 
 303      68745D35 
 303      28463C3D 
 303      366B0464 
 304 03ff DBAA840E 		.ascii	"\333\252\204\016*\241md\262T\304\377Q\030\372NW\246"
 304      2AA16D64 
 304      B254C4FF 
 304      5118FA4E 
 304      57A6
 305 0411 5182FE97 		.ascii	"Q\202\376\227\367\244F\365$\222%\355\344\030:U\006/"
 305      F7A446F5 
 305      249225ED 
 305      E4183A55 
 305      062F
 306 0423 6528ACD8 		.ascii	"e(\254\330\356\020i\021U\263E\270}u\207C\346-\242\233"
 306      EE106911 
 306      55B345B8 
 306      7D758743 
 306      E62DA29B 
 307 0437 16D1A516 		.ascii	"\026\321\245\026\321\263w\346\206\210\317)\022\034;"
 307      D1B377E6 
 307      8688CF29 
 307      121C3B
 308 0446 DB764428 		.ascii	"\333vD(\032\246\257h\032 \005\335\3414\334Q5\364P\015"
 308      1AA6AF68 
 308      1A2005DD 
 308      E134DC51 
 308      35F4500D 
 309 045a 559385AE 		.ascii	"U\223\205\256\010\261\200\\\313o?\034\200\277_7q\323"
 309      08B1805C 
 309      CB6F3F1C 
 309      80BF5F37 
 309      71D3
 310 046c 841B9429 		.ascii	"\204\033\224)w\275(\356\014_Q.W\344\373\\\373F#\316"
 310      77BD28EE 
 310      0C5F512E 
 310      57E4FB5C 
 310      FB4623CE 
 311 0480 3AE4C6DC 		.ascii	":\344\306\334\355\362\253\017\002\030\365BE\337*\323"
 311      EDF2AB0F 
 311      0218F542 
 311      45DF2AD3 
ARM GAS  C:\Users\Luggi\AppData\Local\Temp\ccLirwVy.s 			page 24


 312 0490 324681F4 		.ascii	"2F\201\364\351\314\337\241\025\220\334]\334j\305/\025"
 312      E9CCDFA1 
 312      1590DC5D 
 312      DC6AC52F 
 312      15
 313 04a1 A27AC7ED 		.ascii	"\242z\307\355\222P|@O;C\323\017OD\340r\332\321\327\035"
 313      92507C40 
 313      4F3B43D3 
 313      0F4F44E0 
 313      72DAD1D7 
 314 04b6 2C1A10D1 		.ascii	",\032\020\321\362\305\313c\355p\200\373\375\203\327"
 314      F2C5CB63 
 314      ED7080FB 
 314      FD83D7
 315 04c5 C2E5925F 		.ascii	"\302\345\222_\321\275\327\017\364w\321bU\360J2E\034"
 315      D1BDD70F 
 315      F477D162 
 315      55F04A32 
 315      451C
 316 04d7 7C08FFA4 		.ascii	"|\010\377\244\356\331\345\017\221\366\236\021(\224\250"
 316      EED9E50F 
 316      91F69E11 
 316      2894A8
 317 04e6 B90F85DD 		.ascii	"\271\017\205\335C\313\321\000ZN\215 \274\366\231A\003"
 317      43CBD100 
 317      5A4E8D20 
 317      BCF69941 
 317      03
 318 04f7 63ED9B83 		.ascii	"c\355\233\203\365\227\204\225\334\014\375S\225F\031"
 318      F5978495 
 318      DC0CFD53 
 318      954619
 319 0506 91DF05D5 		.ascii	"\221\337\005\325P\365J\320=\233\350\362\030Q\354b\212"
 319      50F54AD0 
 319      3D9BE8F2 
 319      1851EC62 
 319      8A
 320 0517 0B48A1E8 		.ascii	"\013H\241\350\001\260|\257\335\036$\211\266\271\344"
 320      01B07CAF 
 320      DD1E2489 
 320      B6B9E4
 321 0526 A1415035 		.ascii	"\241AP5\237B\360d\262\242r#>\256\370S\346l\016\204\201"
 321      9F42F064 
 321      B2A27223 
 321      3EAEF853 
 321      E66C0E84 
 322 053b EBB2DD57 		.ascii	"\353\262\335W\226\177\353\335\\\362\352\220\311\206"
 322      967FEBDD 
 322      5CF2EA90 
 322      C986
 323 0549 A5330E31 		.ascii	"\2453\0161\323\265\302\207\230\355\303\324\366\303\237"
 323      D3B5C287 
 323      98EDC3D4 
 323      F6C39F
 324 0558 FB3CE1A6 		.ascii	"\373<\341\246\302\331\327\034\335\244\332\016{\210L"
 324      C2D9D71C 
 324      DDA4DA0E 
ARM GAS  C:\Users\Luggi\AppData\Local\Temp\ccLirwVy.s 			page 25


 324      7B884C
 325 0567 140CDF00 		.ascii	"\024\014\337\000\316\367_i\213\340\301\275A\367\334"
 325      CEF75F69 
 325      8BE0C1BD 
 325      41F7DC
 326 0576 08038F50 		.ascii	"\010\003\217P\360\331\311\366SA\314\325A\314\243\310"
 326      F0D9C9F6 
 326      5341CCD5 
 326      41CCA3C8 
 327 0586 A45A314A 		.ascii	"\244Z1J\360\330q\263\376\210\016EE\211%\360\247cj\031"
 327      F0D871B3 
 327      FE880E45 
 327      458925F0 
 327      A7636A19 
 328 059a 7A824481 		.ascii	"z\202D\201<\272\207\003\201\317\002J\333\027B\207\013"
 328      3CBA8703 
 328      81CF024A 
 328      DB174287 
 328      0B
 329 05ab 8865BE3C 		.ascii	"\210e\276<n\177\012t\\@\217\201\377\0211\360\011}\035"
 329      6E7F0A74 
 329      5C408F81 
 329      FF1131F0 
 329      097D1D
 330 05be CB07F754 		.ascii	"\313\007\367T\204\342\013\324(]Gk\2417L\271\372_\337"
 330      84E20BD4 
 330      285D476B 
 330      A1374CB9 
 330      FA5FDF
 331 05d1 DDCFE6B9 		.ascii	"\335\317\346\271\372\235'\247,\344\346\367A\235O\265"
 331      FA9D27A7 
 331      2CE4E6F7 
 331      419D4FB5 
 332 05e1 B5EB45DA 		.ascii	"\265\353E\332\325\337\321\222\327\213\3712}A\236\214"
 332      D5DFD192 
 332      D78BF932 
 332      7D419E8C 
 333 05f1 314FC6A8 		.ascii	"1O\306\250'\315{\355C\013y0Y\"\015\374\234\201\237S"
 333      27CD7BED 
 333      430B7930 
 333      59220DFC 
 333      9C819F53 
 334 0605 B0B779AC 		.ascii	"\260\267y\254-\204\007\337\0122p\234\201\307)\370\210"
 334      2D8407DF 
 334      0A32709C 
 334      81C729F8 
 334      88
 335 0616 B32786C7 		.ascii	"\263'\206\307\266\006a'\030v\202b\013\212\253G\015\270"
 335      B6066127 
 335      18768262 
 335      0B8AAB47 
 335      0DB8
 336 0628 56D93EAE 		.ascii	"V\331>\256\0037\233D\345\304\377?\377s\300G\367\271"
 336      03379B44 
 336      E5C4FF3F 
 336      FF73C047 
 336      F7B9
ARM GAS  C:\Users\Luggi\AppData\Local\Temp\ccLirwVy.s 			page 26


 337 063a 22BF49FD 		.ascii	"\"\277I\375\357\364jU(\232\206\212'5w^ \355\317\323"
 337      EFF46A55 
 337      289A868A 
 337      2735775E 
 337      20EDCFD3 
 338 064e 9BA45373 		.ascii	"\233\244Ss\222\242\301\373G\375F\276\200\351 \033gX"
 338      92A2C1FB 
 338      47FD46BE 
 338      80E9201B 
 338      6758
 339 0660 01338A8D 		.ascii	"\0013\212\215\373\273J\202<\357\016\252\326\317\300"
 339      FBBB4A82 
 339      3CEF0EAA 
 339      D6CFC0
 340 066f E4DB989D 		.ascii	"\344\333\230\235\232n[\365\033\343'\177L\2126\0131\237"
 340      9A6E5BF5 
 340      1BE3277F 
 340      4C8A360B 
 340      319F
 341 0681 48E95266 		.ascii	"H\351Rf\212M\332\222\234\230\221\235i\2216\305'f\230"
 341      8A4DDA92 
 341      9C98919D 
 341      699136C5 
 341      276698
 342 0694 7FBDC992 		.ascii	"\177\275\311\222c\313\261JY\357\375Y\301\257Y\275()"
 342      63CBB14A 
 342      59EFFD59 
 342      C1AF59BD 
 342      2829
 343 06a6 F1A3A4B5 		.ascii	"\361\243\244\265\011\033\222W%\257\213O^\237\230\020"
 343      091B9257 
 343      25AF8B4F 
 343      5E9F9810 
 344 06b6 3B4FA686 		.ascii	";O\246\206\263n{\317\"\374D\353'\246|*\2313\322\377"
 344      B36E7BCF 
 344      22FC44EB 
 344      27A67C2A 
 344      9933D2FF 
 345 06ca 94BA75A9 		.ascii	"\224\272u\2516\230 e\33122\331\370\2178pv\226UJ\337"
 345      36982065 
 345      D93232D9 
 345      F88F3870 
 345      7696554A 
 346 06df B2280899 		.ascii	"\262(\010\231\275M2\0209\357\377\224ScM6\247I)\231\353"
 346      BD4D3210 
 346      39EFFF94 
 346      53634D36 
 346      A7492999 
 347 06f4 D36D5266 		.ascii	"\323mRff\266\325\366va\353\254P\327\022\255\377\261"
 347      66B6D5F6 
 347      7661EBAC 
 347      50D712AD 
 347      FFB1
 348 0706 35D106F8 		.ascii	"5\321\006\370\365\351\251\266\237\277\275\252Om\220"
 348      F5E9A9B6 
 348      9FBFBDAA 
 348      4F6D90
ARM GAS  C:\Users\Luggi\AppData\Local\Temp\ccLirwVy.s 			page 27


 349 0715 BD581B50 		.ascii	"\275X\033P\244'H[\227\230s>\376[\252\315\234\231jK\265"
 349      A427485B 
 349      9798733E 
 349      FE5BAACD 
 349      9C996A4B 
 350 072a A4A4254A 		.ascii	"\244\244%J\026[jF\372\262y\030\3159\177H\335\014La\346"
 350      165B6A46 
 350      FAB27918 
 350      CD397F48 
 350      DD0C4C61 
 351 073f 9C75525A 		.ascii	"\234uRZJNRV$\344\223\"^#\210`\000s\216%M\312\342\254"
 351      4A4E5256 
 351      24E49322 
 351      5E238860 
 351      00738E25 
 352 0757 B3D089B3 		.ascii	"\263\320\211\263\201\033P+\336&\034\246\342r?Zk\376"
 352      811B502B 
 352      DE261CA6 
 352      E2723F5A 
 352      6BFE
 353 0769 7D527C72 		.ascii	"}R|r\342\206\204$\363\206p)=es\232DM\320o\313\330\""
 353      E2868424 
 353      F3867029 
 353      3D65739A 
 353      444DD06F 
 354 0780 71AE6F4E 		.ascii	"q\256oN\261\374%\333\252\317\224\266\276o\200\2175\253"
 354      B1FC25DB 
 354      AACF94B6 
 354      BE6F808F 
 354      35AB
 355 0792 FF0788E7 		.ascii	"\377\007\210\347h\265"
 355      68B5
 356              		.text
 357              		.section	.gnu.lto_.symtab.d237f54,"",%progbits
 358 0000 55534255 		.ascii	"USBUART_1_DP_ISR\000\000\000\000\000\000\000\000\000"
 358      4152545F 
 358      315F4450 
 358      5F495352 
 358      00000000 
 359 0019 000000B8 		.ascii	"\000\000\000\270\000\000\000USBUART_1_SaveConfig\000"
 359      00000055 
 359      53425541 
 359      52545F31 
 359      5F536176 
 360 0035 00000000 		.ascii	"\000\000\000\000\000\000\000\000\000\000\000\272\000"
 360      00000000 
 360      000000BA 
 360      00
 361 0042 00005553 		.ascii	"\000\000USBUART_1_RestoreConfig\000\000\000\000\000"
 361      42554152 
 361      545F315F 
 361      52657374 
 361      6F726543 
 362 0060 00000000 		.ascii	"\000\000\000\000\000\000\000\274\000\000\000USBUART"
 362      000000BC 
 362      00000055 
 362      53425541 
ARM GAS  C:\Users\Luggi\AppData\Local\Temp\ccLirwVy.s 			page 28


 362      5254
 363 0072 5F315F53 		.ascii	"_1_Suspend\000\000\000\000\000\000\000\000\000\000\000"
 363      75737065 
 363      6E640000 
 363      00000000 
 363      00000000 
 364 0087 00BE0000 		.ascii	"\000\276\000\000\000USBUART_1_Resume\000\000\000\000"
 364      00555342 
 364      55415254 
 364      5F315F52 
 364      6573756D 
 365 00a0 00000000 		.ascii	"\000\000\000\000\000\000\000\000\300\000\000\000USB"
 365      00000000 
 365      C0000000 
 365      555342
 366 00af 55415254 		.ascii	"UART_1_configuration\000\000\002\000\000\000\000\000"
 366      5F315F63 
 366      6F6E6669 
 366      67757261 
 366      74696F6E 
 367 00cb 00000000 		.ascii	"\000\000\000\000\335\000\000\000USBUART_1_Dp_ClearI"
 367      DD000000 
 367      55534255 
 367      4152545F 
 367      315F4470 
 368 00e6 6E746572 		.ascii	"nterrupt\000\000\002\000\000\000\000\000\000\000\000"
 368      72757074 
 368      00000200 
 368      00000000 
 368      000000
 369 00f9 00C80000 		.ascii	"\000\310\000\000\000USBUART_1_EpStateInit\000\000\002"
 369      00555342 
 369      55415254 
 369      5F315F45 
 369      70537461 
 370 0116 00000000 		.ascii	"\000\000\000\000\000\000\000\000\000\312\000\000\000"
 370      00000000 
 370      00CA0000 
 370      00
 371 0123 55534255 		.ascii	"USBUART_1_ConfigReg\000\000\002\000\000\000\000\000"
 371      4152545F 
 371      315F436F 
 371      6E666967 
 371      52656700 
 372 013e 00000000 		.ascii	"\000\000\000\000\314\000\000\000CyExitCriticalSecti"
 372      CC000000 
 372      43794578 
 372      69744372 
 372      69746963 
 373 0159 6F6E0000 		.ascii	"on\000\000\002\000\000\000\000\000\000\000\000\000\320"
 373      02000000 
 373      00000000 
 373      0000D0
 374 0168 00000043 		.ascii	"\000\000\000CyDelayUs\000\000\002\000\000\000\000\000"
 374      7944656C 
 374      61795573 
 374      00000200 
ARM GAS  C:\Users\Luggi\AppData\Local\Temp\ccLirwVy.s 			page 29


 374      00000000 
 375 017c 00000000 		.ascii	"\000\000\000\000\324\000\000\000CyEnterCriticalSect"
 375      D4000000 
 375      4379456E 
 375      74657243 
 375      72697469 
 376 0197 696F6E00 		.ascii	"ion\000\000\002\000\000\000\000\000\000\000\000\000"
 376      00020000 
 376      00000000 
 376      000000
 377 01a6 D6000000 		.ascii	"\326\000\000\000CyDelayCycles\000\000\002\000\000\000"
 377      43794465 
 377      6C617943 
 377      79636C65 
 377      73000002 
 378 01bd 00000000 		.ascii	"\000\000\000\000\000\000\332\000\000\000"
 378      0000DA00 
 378      0000
 379              		.text
 380              		.section	.gnu.lto_.opts,"",%progbits
 381 0000 272D666E 		.ascii	"'-fno-trapv' '-fno-strict-overflow' '-mcpu=cortex-m"
 381      6F2D7472 
 381      61707627 
 381      20272D66 
 381      6E6F2D73 
 382 0033 33272027 		.ascii	"3' '-mthumb' '-g' '-Og' '-ffunction-sections' '-flt"
 382      2D6D7468 
 382      756D6227 
 382      20272D67 
 382      2720272D 
 383 0066 6F272027 		.ascii	"o' '-ffat-lto-objects'\000"
 383      2D666661 
 383      742D6C74 
 383      6F2D6F62 
 383      6A656374 
 384              		.text
 385              		.cfi_sections	.debug_frame
 386              		.section	.text.USBUART_1_DP_ISR,"ax",%progbits
 387              		.align	2
 388              		.global	USBUART_1_DP_ISR
 389              		.thumb
 390              		.thumb_func
 391              		.type	USBUART_1_DP_ISR, %function
 392              	USBUART_1_DP_ISR:
 393              	.LFB0:
 394              		.file 1 "Generated_Source\\PSoC5\\USBUART_1_pm.c"
   1:Generated_Source\PSoC5/USBUART_1_pm.c **** /***************************************************************************//**
   2:Generated_Source\PSoC5/USBUART_1_pm.c **** * \file USBUART_1_pm.c
   3:Generated_Source\PSoC5/USBUART_1_pm.c **** * \version 3.10
   4:Generated_Source\PSoC5/USBUART_1_pm.c **** *
   5:Generated_Source\PSoC5/USBUART_1_pm.c **** * \brief
   6:Generated_Source\PSoC5/USBUART_1_pm.c **** *  This file provides Suspend/Resume APIs implementation.
   7:Generated_Source\PSoC5/USBUART_1_pm.c **** *
   8:Generated_Source\PSoC5/USBUART_1_pm.c **** ********************************************************************************
   9:Generated_Source\PSoC5/USBUART_1_pm.c **** * \copyright
  10:Generated_Source\PSoC5/USBUART_1_pm.c **** * Copyright 2008-2016, Cypress Semiconductor Corporation.  All rights reserved.
  11:Generated_Source\PSoC5/USBUART_1_pm.c **** * You may use this file only in accordance with the license, terms, conditions,
ARM GAS  C:\Users\Luggi\AppData\Local\Temp\ccLirwVy.s 			page 30


  12:Generated_Source\PSoC5/USBUART_1_pm.c **** * disclaimers, and limitations in the end user license agreement accompanying
  13:Generated_Source\PSoC5/USBUART_1_pm.c **** * the software package with which this file was provided.
  14:Generated_Source\PSoC5/USBUART_1_pm.c **** *******************************************************************************/
  15:Generated_Source\PSoC5/USBUART_1_pm.c **** 
  16:Generated_Source\PSoC5/USBUART_1_pm.c **** #include "USBUART_1_pvt.h"
  17:Generated_Source\PSoC5/USBUART_1_pm.c **** #include "USBUART_1_Dp.h"
  18:Generated_Source\PSoC5/USBUART_1_pm.c **** 
  19:Generated_Source\PSoC5/USBUART_1_pm.c **** 
  20:Generated_Source\PSoC5/USBUART_1_pm.c **** /***************************************
  21:Generated_Source\PSoC5/USBUART_1_pm.c **** * Custom Declarations
  22:Generated_Source\PSoC5/USBUART_1_pm.c **** ***************************************/
  23:Generated_Source\PSoC5/USBUART_1_pm.c **** /* `#START PM_CUSTOM_DECLARATIONS` Place your declaration here */
  24:Generated_Source\PSoC5/USBUART_1_pm.c **** 
  25:Generated_Source\PSoC5/USBUART_1_pm.c **** /* `#END` */
  26:Generated_Source\PSoC5/USBUART_1_pm.c **** 
  27:Generated_Source\PSoC5/USBUART_1_pm.c **** 
  28:Generated_Source\PSoC5/USBUART_1_pm.c **** /***************************************
  29:Generated_Source\PSoC5/USBUART_1_pm.c **** * Local data allocation
  30:Generated_Source\PSoC5/USBUART_1_pm.c **** ***************************************/
  31:Generated_Source\PSoC5/USBUART_1_pm.c **** 
  32:Generated_Source\PSoC5/USBUART_1_pm.c **** static USBUART_1_BACKUP_STRUCT  USBUART_1_backup;
  33:Generated_Source\PSoC5/USBUART_1_pm.c **** 
  34:Generated_Source\PSoC5/USBUART_1_pm.c **** #if (USBUART_1_DP_ISR_ACTIVE)
  35:Generated_Source\PSoC5/USBUART_1_pm.c ****     /*******************************************************************************
  36:Generated_Source\PSoC5/USBUART_1_pm.c ****     * Function Name: USBUART_1_DP_ISR
  37:Generated_Source\PSoC5/USBUART_1_pm.c ****     ****************************************************************************//**
  38:Generated_Source\PSoC5/USBUART_1_pm.c ****     *
  39:Generated_Source\PSoC5/USBUART_1_pm.c ****     *  This Interrupt Service Routine handles DP pin changes for wake-up from
  40:Generated_Source\PSoC5/USBUART_1_pm.c ****     *  the sleep mode.
  41:Generated_Source\PSoC5/USBUART_1_pm.c ****     *
  42:Generated_Source\PSoC5/USBUART_1_pm.c ****     *******************************************************************************/
  43:Generated_Source\PSoC5/USBUART_1_pm.c ****     CY_ISR(USBUART_1_DP_ISR)
  44:Generated_Source\PSoC5/USBUART_1_pm.c ****     {
 395              		.loc 1 44 0
 396              		.cfi_startproc
 397              		@ args = 0, pretend = 0, frame = 0
 398              		@ frame_needed = 0, uses_anonymous_args = 0
 399 0000 08B5     		push	{r3, lr}
 400              		.cfi_def_cfa_offset 8
 401              		.cfi_offset 3, -8
 402              		.cfi_offset 14, -4
  45:Generated_Source\PSoC5/USBUART_1_pm.c ****     #ifdef USBUART_1_DP_ISR_ENTRY_CALLBACK
  46:Generated_Source\PSoC5/USBUART_1_pm.c ****         USBUART_1_DP_ISR_EntryCallback();
  47:Generated_Source\PSoC5/USBUART_1_pm.c ****     #endif /* (USBUART_1_DP_ISR_ENTRY_CALLBACK) */
  48:Generated_Source\PSoC5/USBUART_1_pm.c **** 
  49:Generated_Source\PSoC5/USBUART_1_pm.c ****         /* `#START DP_USER_CODE` Place your code here */
  50:Generated_Source\PSoC5/USBUART_1_pm.c **** 
  51:Generated_Source\PSoC5/USBUART_1_pm.c ****         /* `#END` */
  52:Generated_Source\PSoC5/USBUART_1_pm.c **** 
  53:Generated_Source\PSoC5/USBUART_1_pm.c ****         (void) USBUART_1_Dp_ClearInterrupt();
 403              		.loc 1 53 0
 404 0002 FFF7FEFF 		bl	USBUART_1_Dp_ClearInterrupt
 405              	.LVL0:
 406 0006 08BD     		pop	{r3, pc}
 407              		.cfi_endproc
 408              	.LFE0:
 409              		.size	USBUART_1_DP_ISR, .-USBUART_1_DP_ISR
ARM GAS  C:\Users\Luggi\AppData\Local\Temp\ccLirwVy.s 			page 31


 410              		.section	.text.USBUART_1_SaveConfig,"ax",%progbits
 411              		.align	2
 412              		.global	USBUART_1_SaveConfig
 413              		.thumb
 414              		.thumb_func
 415              		.type	USBUART_1_SaveConfig, %function
 416              	USBUART_1_SaveConfig:
 417              	.LFB1:
  54:Generated_Source\PSoC5/USBUART_1_pm.c **** 		
  55:Generated_Source\PSoC5/USBUART_1_pm.c **** 	#ifdef USBUART_1_DP_ISR_EXIT_CALLBACK
  56:Generated_Source\PSoC5/USBUART_1_pm.c ****         USBUART_1_DP_ISR_ExitCallback();
  57:Generated_Source\PSoC5/USBUART_1_pm.c ****     #endif /* (USBUART_1_DP_ISR_EXIT_CALLBACK) */
  58:Generated_Source\PSoC5/USBUART_1_pm.c ****     }
  59:Generated_Source\PSoC5/USBUART_1_pm.c **** #endif /* (USBUART_1_DP_ISR_ACTIVE) */
  60:Generated_Source\PSoC5/USBUART_1_pm.c **** 
  61:Generated_Source\PSoC5/USBUART_1_pm.c **** 
  62:Generated_Source\PSoC5/USBUART_1_pm.c **** /*******************************************************************************
  63:Generated_Source\PSoC5/USBUART_1_pm.c **** * Function Name: USBUART_1_SaveConfig
  64:Generated_Source\PSoC5/USBUART_1_pm.c **** ****************************************************************************//**
  65:Generated_Source\PSoC5/USBUART_1_pm.c **** *
  66:Generated_Source\PSoC5/USBUART_1_pm.c **** *  Saves the current user configuration.
  67:Generated_Source\PSoC5/USBUART_1_pm.c **** *
  68:Generated_Source\PSoC5/USBUART_1_pm.c **** * \reentrant
  69:Generated_Source\PSoC5/USBUART_1_pm.c **** *  No.
  70:Generated_Source\PSoC5/USBUART_1_pm.c **** *
  71:Generated_Source\PSoC5/USBUART_1_pm.c **** *******************************************************************************/
  72:Generated_Source\PSoC5/USBUART_1_pm.c **** void USBUART_1_SaveConfig(void) 
  73:Generated_Source\PSoC5/USBUART_1_pm.c **** {
 418              		.loc 1 73 0
 419              		.cfi_startproc
 420              		@ args = 0, pretend = 0, frame = 0
 421              		@ frame_needed = 0, uses_anonymous_args = 0
 422              		@ link register save eliminated.
 423 0000 7047     		bx	lr
 424              		.cfi_endproc
 425              	.LFE1:
 426              		.size	USBUART_1_SaveConfig, .-USBUART_1_SaveConfig
 427 0002 00BF     		.section	.text.USBUART_1_RestoreConfig,"ax",%progbits
 428              		.align	2
 429              		.global	USBUART_1_RestoreConfig
 430              		.thumb
 431              		.thumb_func
 432              		.type	USBUART_1_RestoreConfig, %function
 433              	USBUART_1_RestoreConfig:
 434              	.LFB2:
  74:Generated_Source\PSoC5/USBUART_1_pm.c ****     /* Empty function added for the compatibility purpose. */
  75:Generated_Source\PSoC5/USBUART_1_pm.c **** }
  76:Generated_Source\PSoC5/USBUART_1_pm.c **** 
  77:Generated_Source\PSoC5/USBUART_1_pm.c **** 
  78:Generated_Source\PSoC5/USBUART_1_pm.c **** /*******************************************************************************
  79:Generated_Source\PSoC5/USBUART_1_pm.c **** * Function Name: USBUART_1_RestoreConfig
  80:Generated_Source\PSoC5/USBUART_1_pm.c **** ****************************************************************************//**
  81:Generated_Source\PSoC5/USBUART_1_pm.c **** *
  82:Generated_Source\PSoC5/USBUART_1_pm.c **** *  Restores the current user configuration.
  83:Generated_Source\PSoC5/USBUART_1_pm.c **** *
  84:Generated_Source\PSoC5/USBUART_1_pm.c **** * \reentrant
  85:Generated_Source\PSoC5/USBUART_1_pm.c **** *  No.
ARM GAS  C:\Users\Luggi\AppData\Local\Temp\ccLirwVy.s 			page 32


  86:Generated_Source\PSoC5/USBUART_1_pm.c **** *
  87:Generated_Source\PSoC5/USBUART_1_pm.c **** *******************************************************************************/
  88:Generated_Source\PSoC5/USBUART_1_pm.c **** void USBUART_1_RestoreConfig(void) 
  89:Generated_Source\PSoC5/USBUART_1_pm.c **** {
 435              		.loc 1 89 0
 436              		.cfi_startproc
 437              		@ args = 0, pretend = 0, frame = 0
 438              		@ frame_needed = 0, uses_anonymous_args = 0
 439              		.loc 1 89 0
 440 0000 08B5     		push	{r3, lr}
 441              		.cfi_def_cfa_offset 8
 442              		.cfi_offset 3, -8
 443              		.cfi_offset 14, -4
  90:Generated_Source\PSoC5/USBUART_1_pm.c ****     if (USBUART_1_configuration != 0u)
 444              		.loc 1 90 0
 445 0002 054B     		ldr	r3, .L7
 446 0004 1B78     		ldrb	r3, [r3]	@ zero_extendqisi2
 447 0006 13F0FF0F 		tst	r3, #255
 448 000a 03D0     		beq	.L4
  91:Generated_Source\PSoC5/USBUART_1_pm.c ****     {
  92:Generated_Source\PSoC5/USBUART_1_pm.c ****         USBUART_1_ConfigReg();
 449              		.loc 1 92 0
 450 000c FFF7FEFF 		bl	USBUART_1_ConfigReg
 451              	.LVL1:
  93:Generated_Source\PSoC5/USBUART_1_pm.c ****         USBUART_1_EpStateInit();
 452              		.loc 1 93 0
 453 0010 FFF7FEFF 		bl	USBUART_1_EpStateInit
 454              	.LVL2:
 455              	.L4:
 456 0014 08BD     		pop	{r3, pc}
 457              	.L8:
 458 0016 00BF     		.align	2
 459              	.L7:
 460 0018 00000000 		.word	USBUART_1_configuration
 461              		.cfi_endproc
 462              	.LFE2:
 463              		.size	USBUART_1_RestoreConfig, .-USBUART_1_RestoreConfig
 464              		.section	.text.USBUART_1_Suspend,"ax",%progbits
 465              		.align	2
 466              		.global	USBUART_1_Suspend
 467              		.thumb
 468              		.thumb_func
 469              		.type	USBUART_1_Suspend, %function
 470              	USBUART_1_Suspend:
 471              	.LFB3:
  94:Generated_Source\PSoC5/USBUART_1_pm.c ****     }
  95:Generated_Source\PSoC5/USBUART_1_pm.c **** }
  96:Generated_Source\PSoC5/USBUART_1_pm.c **** 
  97:Generated_Source\PSoC5/USBUART_1_pm.c **** 
  98:Generated_Source\PSoC5/USBUART_1_pm.c **** /*******************************************************************************
  99:Generated_Source\PSoC5/USBUART_1_pm.c **** * Function Name: USBUART_1_Suspend
 100:Generated_Source\PSoC5/USBUART_1_pm.c **** ****************************************************************************//**
 101:Generated_Source\PSoC5/USBUART_1_pm.c **** *
 102:Generated_Source\PSoC5/USBUART_1_pm.c **** *  This function prepares the USBFS component to enter low power mode. The 
 103:Generated_Source\PSoC5/USBUART_1_pm.c **** *  interrupt on falling edge on Dp pin is configured to wakeup device when the 
 104:Generated_Source\PSoC5/USBUART_1_pm.c **** *  host drives resume condition. The pull-up is enabled on the Dp line while 
 105:Generated_Source\PSoC5/USBUART_1_pm.c **** *  device is in low power mode. The supported low power modes are Deep Sleep 
ARM GAS  C:\Users\Luggi\AppData\Local\Temp\ccLirwVy.s 			page 33


 106:Generated_Source\PSoC5/USBUART_1_pm.c **** *  (PSoC 4200L) and Sleep (PSoC 3/ PSoC 5LP).
 107:Generated_Source\PSoC5/USBUART_1_pm.c **** *  
 108:Generated_Source\PSoC5/USBUART_1_pm.c **** *  *Note* For PSoC 4200L devices, this function should not be called before 
 109:Generated_Source\PSoC5/USBUART_1_pm.c **** *  entering Sleep.
 110:Generated_Source\PSoC5/USBUART_1_pm.c **** *  
 111:Generated_Source\PSoC5/USBUART_1_pm.c **** *  *Note* After enter low power mode, the data which is left in the IN or OUT 
 112:Generated_Source\PSoC5/USBUART_1_pm.c **** *  endpoint buffers is not restored after wakeup and lost. Therefore it should 
 113:Generated_Source\PSoC5/USBUART_1_pm.c **** *  be stored in the SRAM for OUT endpoint or read by the host for IN endpoint 
 114:Generated_Source\PSoC5/USBUART_1_pm.c **** *  before enter low power mode.
 115:Generated_Source\PSoC5/USBUART_1_pm.c **** *
 116:Generated_Source\PSoC5/USBUART_1_pm.c **** * \globalvars
 117:Generated_Source\PSoC5/USBUART_1_pm.c **** *  USBUART_1_backup.enable:  modified.
 118:Generated_Source\PSoC5/USBUART_1_pm.c **** *
 119:Generated_Source\PSoC5/USBUART_1_pm.c **** * \reentrant
 120:Generated_Source\PSoC5/USBUART_1_pm.c **** *  No.
 121:Generated_Source\PSoC5/USBUART_1_pm.c **** *
 122:Generated_Source\PSoC5/USBUART_1_pm.c **** *******************************************************************************/
 123:Generated_Source\PSoC5/USBUART_1_pm.c **** void USBUART_1_Suspend(void) 
 124:Generated_Source\PSoC5/USBUART_1_pm.c **** {
 472              		.loc 1 124 0
 473              		.cfi_startproc
 474              		@ args = 0, pretend = 0, frame = 0
 475              		@ frame_needed = 0, uses_anonymous_args = 0
 476 0000 F8B5     		push	{r3, r4, r5, r6, r7, lr}
 477              		.cfi_def_cfa_offset 24
 478              		.cfi_offset 3, -24
 479              		.cfi_offset 4, -20
 480              		.cfi_offset 5, -16
 481              		.cfi_offset 6, -12
 482              		.cfi_offset 7, -8
 483              		.cfi_offset 14, -4
 125:Generated_Source\PSoC5/USBUART_1_pm.c ****     uint8 enableInterrupts;
 126:Generated_Source\PSoC5/USBUART_1_pm.c **** 
 127:Generated_Source\PSoC5/USBUART_1_pm.c ****     enableInterrupts = CyEnterCriticalSection();
 484              		.loc 1 127 0
 485 0002 FFF7FEFF 		bl	CyEnterCriticalSection
 486              	.LVL3:
 487 0006 0446     		mov	r4, r0
 488              	.LVL4:
 128:Generated_Source\PSoC5/USBUART_1_pm.c **** 
 129:Generated_Source\PSoC5/USBUART_1_pm.c ****     if (0u != (USBUART_1_CR0_REG & USBUART_1_CR0_ENABLE))
 489              		.loc 1 129 0
 490 0008 284B     		ldr	r3, .L13
 491 000a 1B78     		ldrb	r3, [r3]	@ zero_extendqisi2
 492 000c 13F0800F 		tst	r3, #128
 493 0010 3BD0     		beq	.L10
 130:Generated_Source\PSoC5/USBUART_1_pm.c ****     {
 131:Generated_Source\PSoC5/USBUART_1_pm.c ****         /* USB block is enabled. */
 132:Generated_Source\PSoC5/USBUART_1_pm.c ****         USBUART_1_backup.enableState = 1u;
 494              		.loc 1 132 0
 495 0012 274F     		ldr	r7, .L13+4
 496 0014 0126     		movs	r6, #1
 497 0016 3E70     		strb	r6, [r7]
 133:Generated_Source\PSoC5/USBUART_1_pm.c **** 
 134:Generated_Source\PSoC5/USBUART_1_pm.c ****     #if (USBUART_1_EP_MANAGEMENT_DMA)
 135:Generated_Source\PSoC5/USBUART_1_pm.c ****         USBUART_1_Stop_DMA(USBUART_1_MAX_EP);
 136:Generated_Source\PSoC5/USBUART_1_pm.c ****     #endif /* (USBUART_1_EP_MANAGEMENT_DMA) */
ARM GAS  C:\Users\Luggi\AppData\Local\Temp\ccLirwVy.s 			page 34


 137:Generated_Source\PSoC5/USBUART_1_pm.c **** 
 138:Generated_Source\PSoC5/USBUART_1_pm.c ****     #if (CY_PSOC4)
 139:Generated_Source\PSoC5/USBUART_1_pm.c ****         /* Suspend enter sequence. */
 140:Generated_Source\PSoC5/USBUART_1_pm.c ****         USBUART_1_POWER_CTRL_REG |= (USBUART_1_POWER_CTRL_SUSPEND |
 141:Generated_Source\PSoC5/USBUART_1_pm.c ****                                             USBUART_1_POWER_CTRL_SUSPEND_DEL);
 142:Generated_Source\PSoC5/USBUART_1_pm.c **** 
 143:Generated_Source\PSoC5/USBUART_1_pm.c ****         /* Store state of USB regulator and disable it. */
 144:Generated_Source\PSoC5/USBUART_1_pm.c ****         USBUART_1_backup.mode = (uint8)  (USBUART_1_CR1_REG & USBUART_1_CR1_REG_ENABLE);
 145:Generated_Source\PSoC5/USBUART_1_pm.c ****         USBUART_1_CR1_REG    &= (uint32) ~USBUART_1_CR1_REG_ENABLE;
 146:Generated_Source\PSoC5/USBUART_1_pm.c ****         
 147:Generated_Source\PSoC5/USBUART_1_pm.c ****         /* Store SIE interrupt sources. Valid bits are 0 - 4. */
 148:Generated_Source\PSoC5/USBUART_1_pm.c ****         USBUART_1_backup.intrSeiMask = (uint8) USBUART_1_INTR_SIE_MASK_REG;
 149:Generated_Source\PSoC5/USBUART_1_pm.c **** 
 150:Generated_Source\PSoC5/USBUART_1_pm.c ****     #else
 151:Generated_Source\PSoC5/USBUART_1_pm.c ****         /* Ensure USB transmit enable is low (USB_USBIO_CR0.ten). - Manual Transmission - Disabled.
 152:Generated_Source\PSoC5/USBUART_1_pm.c ****         USBUART_1_USBIO_CR0_REG &= (uint8) ~USBUART_1_USBIO_CR0_TEN;
 498              		.loc 1 152 0
 499 0018 264A     		ldr	r2, .L13+8
 500 001a 1378     		ldrb	r3, [r2]	@ zero_extendqisi2
 501 001c 03F07F03 		and	r3, r3, #127
 502 0020 1370     		strb	r3, [r2]
 153:Generated_Source\PSoC5/USBUART_1_pm.c ****         CyDelayUs(USBUART_1_WAIT_REG_STABILITY_50NS);  /*~50ns delay. */
 503              		.loc 1 153 0
 504 0022 0020     		movs	r0, #0
 505 0024 FFF7FEFF 		bl	CyDelayUs
 506              	.LVL5:
 154:Generated_Source\PSoC5/USBUART_1_pm.c **** 
 155:Generated_Source\PSoC5/USBUART_1_pm.c ****         /* Disable the USBIO by asserting PM.USB_CR0.fsusbio_pd_n(Inverted) and pd_pullup_hv(Invert
 156:Generated_Source\PSoC5/USBUART_1_pm.c ****         USBUART_1_PM_USB_CR0_REG &= (uint8) ~(USBUART_1_PM_USB_CR0_PD_N |
 507              		.loc 1 156 0
 508 0028 234D     		ldr	r5, .L13+12
 509 002a 2B78     		ldrb	r3, [r5]	@ zero_extendqisi2
 510 002c 03F0F903 		and	r3, r3, #249
 511 0030 2B70     		strb	r3, [r5]
 157:Generated_Source\PSoC5/USBUART_1_pm.c ****                                                      USBUART_1_PM_USB_CR0_PD_PULLUP_N);
 158:Generated_Source\PSoC5/USBUART_1_pm.c **** 
 159:Generated_Source\PSoC5/USBUART_1_pm.c ****         /* Disable the SIE. */
 160:Generated_Source\PSoC5/USBUART_1_pm.c ****         USBUART_1_CR0_REG &= (uint8) ~USBUART_1_CR0_ENABLE;
 512              		.loc 1 160 0
 513 0032 1E4A     		ldr	r2, .L13
 514 0034 1378     		ldrb	r3, [r2]	@ zero_extendqisi2
 515 0036 03F07F03 		and	r3, r3, #127
 516 003a 1370     		strb	r3, [r2]
 161:Generated_Source\PSoC5/USBUART_1_pm.c **** 
 162:Generated_Source\PSoC5/USBUART_1_pm.c ****         CyDelayUs(USBUART_1_WAIT_REG_STABILITY_50NS);  /* ~50ns delay. */
 517              		.loc 1 162 0
 518 003c 0020     		movs	r0, #0
 519 003e FFF7FEFF 		bl	CyDelayUs
 520              	.LVL6:
 163:Generated_Source\PSoC5/USBUART_1_pm.c ****         /* Store mode and disable VRegulator. */
 164:Generated_Source\PSoC5/USBUART_1_pm.c ****         USBUART_1_backup.mode = (uint8) (USBUART_1_CR1_REG & USBUART_1_CR1_REG_ENABLE);
 521              		.loc 1 164 0
 522 0042 1E4B     		ldr	r3, .L13+16
 523 0044 1A78     		ldrb	r2, [r3]	@ zero_extendqisi2
 524 0046 3240     		ands	r2, r2, r6
 525 0048 7A70     		strb	r2, [r7, #1]
 165:Generated_Source\PSoC5/USBUART_1_pm.c ****         USBUART_1_CR1_REG    &= (uint8) ~USBUART_1_CR1_REG_ENABLE;
ARM GAS  C:\Users\Luggi\AppData\Local\Temp\ccLirwVy.s 			page 35


 526              		.loc 1 165 0
 527 004a 1A78     		ldrb	r2, [r3]	@ zero_extendqisi2
 528 004c 02F0FE02 		and	r2, r2, #254
 529 0050 1A70     		strb	r2, [r3]
 166:Generated_Source\PSoC5/USBUART_1_pm.c **** 
 167:Generated_Source\PSoC5/USBUART_1_pm.c ****         CyDelayUs(USBUART_1_WAIT_REG_STABILITY_1US); /* min 0.5us delay required. */
 530              		.loc 1 167 0
 531 0052 3046     		mov	r0, r6
 532 0054 FFF7FEFF 		bl	CyDelayUs
 533              	.LVL7:
 168:Generated_Source\PSoC5/USBUART_1_pm.c **** 
 169:Generated_Source\PSoC5/USBUART_1_pm.c ****         /* Disable the USBIO reference by setting PM.USB_CR0.fsusbio_ref_en.*/
 170:Generated_Source\PSoC5/USBUART_1_pm.c ****         USBUART_1_PM_USB_CR0_REG &= (uint8) ~USBUART_1_PM_USB_CR0_REF_EN;
 534              		.loc 1 170 0
 535 0058 2B78     		ldrb	r3, [r5]	@ zero_extendqisi2
 536 005a 03F0FE03 		and	r3, r3, #254
 537 005e 2B70     		strb	r3, [r5]
 171:Generated_Source\PSoC5/USBUART_1_pm.c **** 
 172:Generated_Source\PSoC5/USBUART_1_pm.c ****         /* Switch DP and DM terminals to GPIO mode and disconnect 1.5k pull-up. */
 173:Generated_Source\PSoC5/USBUART_1_pm.c ****         USBUART_1_USBIO_CR1_REG |= USBUART_1_USBIO_CR1_IOMODE;
 538              		.loc 1 173 0
 539 0060 174A     		ldr	r2, .L13+20
 540 0062 1378     		ldrb	r3, [r2]	@ zero_extendqisi2
 541 0064 43F02003 		orr	r3, r3, #32
 542 0068 1370     		strb	r3, [r2]
 174:Generated_Source\PSoC5/USBUART_1_pm.c **** 
 175:Generated_Source\PSoC5/USBUART_1_pm.c ****         /* Disable USBFS block. */
 176:Generated_Source\PSoC5/USBUART_1_pm.c ****         /* Clear power active and standby mode templates: disable USB block. */
 177:Generated_Source\PSoC5/USBUART_1_pm.c ****         USBUART_1_PM_ACT_CFG_REG  &= (uint8) ~USBUART_1_PM_ACT_EN_FSUSB;
 543              		.loc 1 177 0
 544 006a A2F5E352 		sub	r2, r2, #7264
 545 006e 0D3A     		subs	r2, r2, #13
 546 0070 1378     		ldrb	r3, [r2]	@ zero_extendqisi2
 547 0072 03F0FE03 		and	r3, r3, #254
 548 0076 1370     		strb	r3, [r2]
 178:Generated_Source\PSoC5/USBUART_1_pm.c ****         USBUART_1_PM_STBY_CFG_REG &= (uint8) ~USBUART_1_PM_STBY_EN_FSUSB;
 549              		.loc 1 178 0
 550 0078 1032     		adds	r2, r2, #16
 551 007a 1378     		ldrb	r3, [r2]	@ zero_extendqisi2
 552 007c 03F0FE03 		and	r3, r3, #254
 553 0080 1370     		strb	r3, [r2]
 179:Generated_Source\PSoC5/USBUART_1_pm.c **** 
 180:Generated_Source\PSoC5/USBUART_1_pm.c ****         CyDelayUs(USBUART_1_WAIT_REG_STABILITY_1US); /* min 0.5us delay required. */
 554              		.loc 1 180 0
 555 0082 3046     		mov	r0, r6
 556 0084 FFF7FEFF 		bl	CyDelayUs
 557              	.LVL8:
 558 0088 02E0     		b	.L11
 559              	.L10:
 181:Generated_Source\PSoC5/USBUART_1_pm.c ****     #endif /* (CY_PSOC4) */
 182:Generated_Source\PSoC5/USBUART_1_pm.c ****     }
 183:Generated_Source\PSoC5/USBUART_1_pm.c ****     else
 184:Generated_Source\PSoC5/USBUART_1_pm.c ****     {
 185:Generated_Source\PSoC5/USBUART_1_pm.c ****         USBUART_1_backup.enableState = 0u;
 560              		.loc 1 185 0
 561 008a 0022     		movs	r2, #0
 562 008c 084B     		ldr	r3, .L13+4
ARM GAS  C:\Users\Luggi\AppData\Local\Temp\ccLirwVy.s 			page 36


 563 008e 1A70     		strb	r2, [r3]
 564              	.L11:
 186:Generated_Source\PSoC5/USBUART_1_pm.c ****     }
 187:Generated_Source\PSoC5/USBUART_1_pm.c **** 
 188:Generated_Source\PSoC5/USBUART_1_pm.c ****     CyExitCriticalSection(enableInterrupts);
 565              		.loc 1 188 0
 566 0090 2046     		mov	r0, r4
 567 0092 FFF7FEFF 		bl	CyExitCriticalSection
 568              	.LVL9:
 189:Generated_Source\PSoC5/USBUART_1_pm.c **** 
 190:Generated_Source\PSoC5/USBUART_1_pm.c **** #if (USBUART_1_DP_ISR_ACTIVE)
 191:Generated_Source\PSoC5/USBUART_1_pm.c ****     /* Clear active mode Dp interrupt source history. */
 192:Generated_Source\PSoC5/USBUART_1_pm.c ****     (void) USBUART_1_Dp_ClearInterrupt();
 569              		.loc 1 192 0
 570 0096 FFF7FEFF 		bl	USBUART_1_Dp_ClearInterrupt
 571              	.LVL10:
 193:Generated_Source\PSoC5/USBUART_1_pm.c ****     CyIntClearPending(USBUART_1_DP_INTC_VECT_NUM);
 572              		.loc 1 193 0
 573 009a 4FF48053 		mov	r3, #4096
 574 009e 094A     		ldr	r2, .L13+24
 575 00a0 1360     		str	r3, [r2]
 194:Generated_Source\PSoC5/USBUART_1_pm.c **** 
 195:Generated_Source\PSoC5/USBUART_1_pm.c ****     CyIntEnable      (USBUART_1_DP_INTC_VECT_NUM);
 576              		.loc 1 195 0
 577 00a2 A2F5C072 		sub	r2, r2, #384
 578 00a6 1360     		str	r3, [r2]
 579 00a8 F8BD     		pop	{r3, r4, r5, r6, r7, pc}
 580              	.LVL11:
 581              	.L14:
 582 00aa 00BF     		.align	2
 583              	.L13:
 584 00ac 08600040 		.word	1073766408
 585 00b0 00000000 		.word	.LANCHOR0
 586 00b4 10600040 		.word	1073766416
 587 00b8 94430040 		.word	1073759124
 588 00bc 09600040 		.word	1073766409
 589 00c0 12600040 		.word	1073766418
 590 00c4 80E200E0 		.word	-536812928
 591              		.cfi_endproc
 592              	.LFE3:
 593              		.size	USBUART_1_Suspend, .-USBUART_1_Suspend
 594              		.section	.text.USBUART_1_Resume,"ax",%progbits
 595              		.align	2
 596              		.global	USBUART_1_Resume
 597              		.thumb
 598              		.thumb_func
 599              		.type	USBUART_1_Resume, %function
 600              	USBUART_1_Resume:
 601              	.LFB4:
 196:Generated_Source\PSoC5/USBUART_1_pm.c **** #endif /* (USBUART_1_DP_ISR_ACTIVE). */
 197:Generated_Source\PSoC5/USBUART_1_pm.c **** }
 198:Generated_Source\PSoC5/USBUART_1_pm.c **** 
 199:Generated_Source\PSoC5/USBUART_1_pm.c **** 
 200:Generated_Source\PSoC5/USBUART_1_pm.c **** /*******************************************************************************
 201:Generated_Source\PSoC5/USBUART_1_pm.c **** * Function Name: USBUART_1_Resume
 202:Generated_Source\PSoC5/USBUART_1_pm.c **** ****************************************************************************//**
 203:Generated_Source\PSoC5/USBUART_1_pm.c **** *
ARM GAS  C:\Users\Luggi\AppData\Local\Temp\ccLirwVy.s 			page 37


 204:Generated_Source\PSoC5/USBUART_1_pm.c **** *  This function prepares the USBFS component for active mode operation after 
 205:Generated_Source\PSoC5/USBUART_1_pm.c **** *  exit low power mode. It restores the component active mode configuration such 
 206:Generated_Source\PSoC5/USBUART_1_pm.c **** *  as device address assigned previously by the host, endpoints buffer and disables 
 207:Generated_Source\PSoC5/USBUART_1_pm.c **** *  interrupt on Dp pin.
 208:Generated_Source\PSoC5/USBUART_1_pm.c **** *  The supported low power modes are Deep Sleep (PSoC 4200L) and Sleep 
 209:Generated_Source\PSoC5/USBUART_1_pm.c **** *  (PSoC 3/ PSoC 5LP).
 210:Generated_Source\PSoC5/USBUART_1_pm.c **** *  
 211:Generated_Source\PSoC5/USBUART_1_pm.c **** *  *Note* For PSoC 4200L devices, this function should not be called after 
 212:Generated_Source\PSoC5/USBUART_1_pm.c **** *  exiting Sleep.
 213:Generated_Source\PSoC5/USBUART_1_pm.c **** *  
 214:Generated_Source\PSoC5/USBUART_1_pm.c **** *  *Note* To resume communication with the host, the data endpoints must be 
 215:Generated_Source\PSoC5/USBUART_1_pm.c **** *  managed: the OUT endpoints must be enabled and IN endpoints must be loaded 
 216:Generated_Source\PSoC5/USBUART_1_pm.c **** *  with data. For DMA with Automatic Buffer Management, all endpoints buffers 
 217:Generated_Source\PSoC5/USBUART_1_pm.c **** *  must be initialized again before making them available to the host.
 218:Generated_Source\PSoC5/USBUART_1_pm.c **** *
 219:Generated_Source\PSoC5/USBUART_1_pm.c **** *
 220:Generated_Source\PSoC5/USBUART_1_pm.c **** * \globalvars
 221:Generated_Source\PSoC5/USBUART_1_pm.c **** *  USBUART_1_backup - checked.
 222:Generated_Source\PSoC5/USBUART_1_pm.c **** *
 223:Generated_Source\PSoC5/USBUART_1_pm.c **** * \reentrant
 224:Generated_Source\PSoC5/USBUART_1_pm.c **** *  No.
 225:Generated_Source\PSoC5/USBUART_1_pm.c **** *
 226:Generated_Source\PSoC5/USBUART_1_pm.c **** *******************************************************************************/
 227:Generated_Source\PSoC5/USBUART_1_pm.c **** void USBUART_1_Resume(void) 
 228:Generated_Source\PSoC5/USBUART_1_pm.c **** {
 602              		.loc 1 228 0
 603              		.cfi_startproc
 604              		@ args = 0, pretend = 0, frame = 0
 605              		@ frame_needed = 0, uses_anonymous_args = 0
 606 0000 38B5     		push	{r3, r4, r5, lr}
 607              		.cfi_def_cfa_offset 16
 608              		.cfi_offset 3, -16
 609              		.cfi_offset 4, -12
 610              		.cfi_offset 5, -8
 611              		.cfi_offset 14, -4
 229:Generated_Source\PSoC5/USBUART_1_pm.c ****     uint8 enableInterrupts;
 230:Generated_Source\PSoC5/USBUART_1_pm.c **** 
 231:Generated_Source\PSoC5/USBUART_1_pm.c ****     enableInterrupts = CyEnterCriticalSection();
 612              		.loc 1 231 0
 613 0002 FFF7FEFF 		bl	CyEnterCriticalSection
 614              	.LVL12:
 615 0006 0546     		mov	r5, r0
 616              	.LVL13:
 232:Generated_Source\PSoC5/USBUART_1_pm.c **** 
 233:Generated_Source\PSoC5/USBUART_1_pm.c ****     if (0u != USBUART_1_backup.enableState)
 617              		.loc 1 233 0
 618 0008 244B     		ldr	r3, .L18
 619 000a 1B78     		ldrb	r3, [r3]	@ zero_extendqisi2
 620 000c 002B     		cmp	r3, #0
 621 000e 40D0     		beq	.L16
 234:Generated_Source\PSoC5/USBUART_1_pm.c ****     {
 235:Generated_Source\PSoC5/USBUART_1_pm.c ****     #if (USBUART_1_DP_ISR_ACTIVE)
 236:Generated_Source\PSoC5/USBUART_1_pm.c ****         CyIntDisable(USBUART_1_DP_INTC_VECT_NUM);
 622              		.loc 1 236 0
 623 0010 4FF48052 		mov	r2, #4096
 624 0014 224B     		ldr	r3, .L18+4
 625 0016 1A60     		str	r2, [r3]
ARM GAS  C:\Users\Luggi\AppData\Local\Temp\ccLirwVy.s 			page 38


 237:Generated_Source\PSoC5/USBUART_1_pm.c ****     #endif /* (USBUART_1_DP_ISR_ACTIVE) */
 238:Generated_Source\PSoC5/USBUART_1_pm.c **** 
 239:Generated_Source\PSoC5/USBUART_1_pm.c ****     #if (CY_PSOC4)
 240:Generated_Source\PSoC5/USBUART_1_pm.c ****         /* Enable clock to USB IP. */
 241:Generated_Source\PSoC5/USBUART_1_pm.c ****         USBUART_1_USB_CLK_EN_REG |= USBUART_1_USB_CLK_CSR_CLK_EN;
 242:Generated_Source\PSoC5/USBUART_1_pm.c **** 
 243:Generated_Source\PSoC5/USBUART_1_pm.c ****         /* Restore arbiter configuration for DMA transfers. */
 244:Generated_Source\PSoC5/USBUART_1_pm.c ****         #if (USBUART_1_EP_MANAGEMENT_DMA)
 245:Generated_Source\PSoC5/USBUART_1_pm.c ****             #if (USBUART_1_ARB_ISR_ACTIVE)
 246:Generated_Source\PSoC5/USBUART_1_pm.c ****                 /* Enable ARB EP interrupt sources. */
 247:Generated_Source\PSoC5/USBUART_1_pm.c ****                 USBUART_1_ARB_INT_EN_REG = USBUART_1_DEFAULT_ARB_INT_EN;
 248:Generated_Source\PSoC5/USBUART_1_pm.c ****             #endif /* (USBUART_1_EP_MANAGEMENT_DMA) */
 249:Generated_Source\PSoC5/USBUART_1_pm.c **** 
 250:Generated_Source\PSoC5/USBUART_1_pm.c ****             /* Configure arbiter for Manual or Auto DMA operation and clear 
 251:Generated_Source\PSoC5/USBUART_1_pm.c ****             * configuration completion. 
 252:Generated_Source\PSoC5/USBUART_1_pm.c ****             */
 253:Generated_Source\PSoC5/USBUART_1_pm.c ****             USBUART_1_ARB_CFG_REG = USBUART_1_DEFAULT_ARB_CFG;
 254:Generated_Source\PSoC5/USBUART_1_pm.c ****         #endif /* (USBUART_1_EP_MANAGEMENT_DMA) */
 255:Generated_Source\PSoC5/USBUART_1_pm.c **** 
 256:Generated_Source\PSoC5/USBUART_1_pm.c ****         /* Restore level (hi, lo, med) for each interrupt source. */
 257:Generated_Source\PSoC5/USBUART_1_pm.c ****         USBUART_1_INTR_LVL_SEL_REG = USBUART_1_DEFAULT_INTR_LVL_SEL;
 258:Generated_Source\PSoC5/USBUART_1_pm.c ****         
 259:Generated_Source\PSoC5/USBUART_1_pm.c ****         /* Store SIE interrupt sources. */
 260:Generated_Source\PSoC5/USBUART_1_pm.c ****         USBUART_1_INTR_SIE_MASK_REG = (uint32) USBUART_1_backup.intrSeiMask;
 261:Generated_Source\PSoC5/USBUART_1_pm.c **** 
 262:Generated_Source\PSoC5/USBUART_1_pm.c ****         /* Set EP0.CR: ACK Setup, NAK IN/OUT. */
 263:Generated_Source\PSoC5/USBUART_1_pm.c ****         USBUART_1_EP0_CR_REG = USBUART_1_MODE_NAK_IN_OUT;
 264:Generated_Source\PSoC5/USBUART_1_pm.c **** 
 265:Generated_Source\PSoC5/USBUART_1_pm.c ****         /* Restore data EP1-8 configuration. */
 266:Generated_Source\PSoC5/USBUART_1_pm.c ****         USBUART_1_RestoreConfig();
 267:Generated_Source\PSoC5/USBUART_1_pm.c **** 
 268:Generated_Source\PSoC5/USBUART_1_pm.c ****         /* Restore state of USB regulator and wait until it supples stable power. */
 269:Generated_Source\PSoC5/USBUART_1_pm.c ****         USBUART_1_CR1_REG |= USBUART_1_backup.mode;
 270:Generated_Source\PSoC5/USBUART_1_pm.c ****         CyDelayUs(USBUART_1_WAIT_VREF_STABILITY);
 271:Generated_Source\PSoC5/USBUART_1_pm.c **** 
 272:Generated_Source\PSoC5/USBUART_1_pm.c ****         /* Suspend exit sequence. */
 273:Generated_Source\PSoC5/USBUART_1_pm.c ****         USBUART_1_POWER_CTRL_REG &= (uint32) ~USBUART_1_POWER_CTRL_SUSPEND;
 274:Generated_Source\PSoC5/USBUART_1_pm.c ****         CyDelayUs(USBUART_1_WAIT_SUSPEND_DEL_DISABLE);
 275:Generated_Source\PSoC5/USBUART_1_pm.c ****         USBUART_1_POWER_CTRL_REG &= (uint32) ~USBUART_1_POWER_CTRL_SUSPEND_DEL;
 276:Generated_Source\PSoC5/USBUART_1_pm.c **** 
 277:Generated_Source\PSoC5/USBUART_1_pm.c ****     #else
 278:Generated_Source\PSoC5/USBUART_1_pm.c ****         /* Set power active and standby mode templates: enable USB block. */
 279:Generated_Source\PSoC5/USBUART_1_pm.c ****         USBUART_1_PM_ACT_CFG_REG  |= USBUART_1_PM_ACT_EN_FSUSB;
 626              		.loc 1 279 0
 627 0018 224A     		ldr	r2, .L18+8
 628 001a 1378     		ldrb	r3, [r2]	@ zero_extendqisi2
 629 001c 43F00103 		orr	r3, r3, #1
 630 0020 1370     		strb	r3, [r2]
 280:Generated_Source\PSoC5/USBUART_1_pm.c ****         USBUART_1_PM_STBY_CFG_REG |= USBUART_1_PM_STBY_EN_FSUSB;
 631              		.loc 1 280 0
 632 0022 1032     		adds	r2, r2, #16
 633 0024 1378     		ldrb	r3, [r2]	@ zero_extendqisi2
 634 0026 43F00103 		orr	r3, r3, #1
 635 002a 1370     		strb	r3, [r2]
 281:Generated_Source\PSoC5/USBUART_1_pm.c **** 
 282:Generated_Source\PSoC5/USBUART_1_pm.c ****         /* Enable core clock. */
 283:Generated_Source\PSoC5/USBUART_1_pm.c ****         USBUART_1_USB_CLK_EN_REG |= USBUART_1_USB_CLK_ENABLE;
ARM GAS  C:\Users\Luggi\AppData\Local\Temp\ccLirwVy.s 			page 39


 636              		.loc 1 283 0
 637 002c 02F5E752 		add	r2, r2, #7392
 638 0030 0832     		adds	r2, r2, #8
 639 0032 1378     		ldrb	r3, [r2]	@ zero_extendqisi2
 640 0034 43F00103 		orr	r3, r3, #1
 641 0038 1370     		strb	r3, [r2]
 284:Generated_Source\PSoC5/USBUART_1_pm.c **** 
 285:Generated_Source\PSoC5/USBUART_1_pm.c ****         /* Enable the USBIO reference by setting PM.USB_CR0.fsusbio_ref_en.*/
 286:Generated_Source\PSoC5/USBUART_1_pm.c ****         USBUART_1_PM_USB_CR0_REG |= USBUART_1_PM_USB_CR0_REF_EN;
 642              		.loc 1 286 0
 643 003a 1B4C     		ldr	r4, .L18+12
 644 003c 2378     		ldrb	r3, [r4]	@ zero_extendqisi2
 645 003e 43F00103 		orr	r3, r3, #1
 646 0042 2370     		strb	r3, [r4]
 287:Generated_Source\PSoC5/USBUART_1_pm.c **** 
 288:Generated_Source\PSoC5/USBUART_1_pm.c ****         /* The reference is available ~40us after power restored. */
 289:Generated_Source\PSoC5/USBUART_1_pm.c ****         CyDelayUs(USBUART_1_WAIT_VREF_RESTORE);
 647              		.loc 1 289 0
 648 0044 2820     		movs	r0, #40
 649 0046 FFF7FEFF 		bl	CyDelayUs
 650              	.LVL14:
 290:Generated_Source\PSoC5/USBUART_1_pm.c ****         /* Restore state of USB regulator and wait until it supples stable power. */
 291:Generated_Source\PSoC5/USBUART_1_pm.c ****         USBUART_1_CR1_REG |= USBUART_1_backup.mode;
 651              		.loc 1 291 0
 652 004a 184A     		ldr	r2, .L18+16
 653 004c 1178     		ldrb	r1, [r2]	@ zero_extendqisi2
 654 004e 134B     		ldr	r3, .L18
 655 0050 5B78     		ldrb	r3, [r3, #1]	@ zero_extendqisi2
 656 0052 0B43     		orrs	r3, r3, r1
 657 0054 1370     		strb	r3, [r2]
 292:Generated_Source\PSoC5/USBUART_1_pm.c ****         CyDelayUs(USBUART_1_WAIT_VREF_STABILITY);   /*~50ns delay. */
 658              		.loc 1 292 0
 659 0056 0020     		movs	r0, #0
 660 0058 FFF7FEFF 		bl	CyDelayUs
 661              	.LVL15:
 293:Generated_Source\PSoC5/USBUART_1_pm.c **** 
 294:Generated_Source\PSoC5/USBUART_1_pm.c ****         /* Enable USBIO. */
 295:Generated_Source\PSoC5/USBUART_1_pm.c ****         USBUART_1_PM_USB_CR0_REG |= USBUART_1_PM_USB_CR0_PD_N;
 662              		.loc 1 295 0
 663 005c 2378     		ldrb	r3, [r4]	@ zero_extendqisi2
 664 005e 43F00203 		orr	r3, r3, #2
 665 0062 2370     		strb	r3, [r4]
 296:Generated_Source\PSoC5/USBUART_1_pm.c ****         CyDelayUs(USBUART_1_WAIT_PD_PULLUP_N_ENABLE);
 666              		.loc 1 296 0
 667 0064 0220     		movs	r0, #2
 668 0066 FFF7FEFF 		bl	CyDelayUs
 669              	.LVL16:
 297:Generated_Source\PSoC5/USBUART_1_pm.c ****         /* Set the USBIO pull-up enable. */
 298:Generated_Source\PSoC5/USBUART_1_pm.c ****         USBUART_1_PM_USB_CR0_REG |= USBUART_1_PM_USB_CR0_PD_PULLUP_N;
 670              		.loc 1 298 0
 671 006a 2378     		ldrb	r3, [r4]	@ zero_extendqisi2
 672 006c 43F00403 		orr	r3, r3, #4
 673 0070 2370     		strb	r3, [r4]
 299:Generated_Source\PSoC5/USBUART_1_pm.c **** 
 300:Generated_Source\PSoC5/USBUART_1_pm.c ****         /* Restore arbiter configuration for DMA transfers. */
 301:Generated_Source\PSoC5/USBUART_1_pm.c ****         #if (USBUART_1_EP_MANAGEMENT_DMA)
 302:Generated_Source\PSoC5/USBUART_1_pm.c ****             #if (USBUART_1_ARB_ISR_ACTIVE)
ARM GAS  C:\Users\Luggi\AppData\Local\Temp\ccLirwVy.s 			page 40


 303:Generated_Source\PSoC5/USBUART_1_pm.c ****                 /* Enable ARB EP interrupt sources. */
 304:Generated_Source\PSoC5/USBUART_1_pm.c ****                 USBUART_1_ARB_INT_EN_REG = USBUART_1_DEFAULT_ARB_INT_EN;
 305:Generated_Source\PSoC5/USBUART_1_pm.c ****             #endif /* (USBUART_1_EP_MANAGEMENT_DMA) */
 306:Generated_Source\PSoC5/USBUART_1_pm.c **** 
 307:Generated_Source\PSoC5/USBUART_1_pm.c ****             /* Configure arbiter for Manual or Auto DMA operation and clear 
 308:Generated_Source\PSoC5/USBUART_1_pm.c ****             * configuration completion. 
 309:Generated_Source\PSoC5/USBUART_1_pm.c ****             */
 310:Generated_Source\PSoC5/USBUART_1_pm.c ****             USBUART_1_ARB_CFG_REG = USBUART_1_DEFAULT_ARB_CFG;
 311:Generated_Source\PSoC5/USBUART_1_pm.c ****         #endif /* (USBUART_1_EP_MANAGEMENT_DMA) */
 312:Generated_Source\PSoC5/USBUART_1_pm.c **** 
 313:Generated_Source\PSoC5/USBUART_1_pm.c ****         /* Set EP0.CR: ACK Setup, STALL IN/OUT. */
 314:Generated_Source\PSoC5/USBUART_1_pm.c ****         USBUART_1_EP0_CR_REG = USBUART_1_MODE_STALL_IN_OUT;
 674              		.loc 1 314 0
 675 0072 0322     		movs	r2, #3
 676 0074 0E4B     		ldr	r3, .L18+20
 677 0076 1A70     		strb	r2, [r3]
 315:Generated_Source\PSoC5/USBUART_1_pm.c **** 
 316:Generated_Source\PSoC5/USBUART_1_pm.c ****         /* Enable the USB IP to respond to USB traffic with the last address. */
 317:Generated_Source\PSoC5/USBUART_1_pm.c ****         USBUART_1_CR0_REG |= USBUART_1_CR0_ENABLE;
 678              		.loc 1 317 0
 679 0078 0E4A     		ldr	r2, .L18+24
 680 007a 1378     		ldrb	r3, [r2]	@ zero_extendqisi2
 681 007c 43F08003 		orr	r3, r3, #128
 682 0080 1370     		strb	r3, [r2]
 318:Generated_Source\PSoC5/USBUART_1_pm.c ****         CyDelayCycles(USBUART_1_WAIT_CR0_REG_STABILITY);
 683              		.loc 1 318 0
 684 0082 0120     		movs	r0, #1
 685 0084 FFF7FEFF 		bl	CyDelayCycles
 686              	.LVL17:
 319:Generated_Source\PSoC5/USBUART_1_pm.c **** 
 320:Generated_Source\PSoC5/USBUART_1_pm.c ****         /* Enable D+ pull-up and keep USB control on IO. */
 321:Generated_Source\PSoC5/USBUART_1_pm.c ****         USBUART_1_USBIO_CR1_REG = USBUART_1_USBIO_CR1_USBPUEN;
 687              		.loc 1 321 0
 688 0088 0422     		movs	r2, #4
 689 008a 0B4B     		ldr	r3, .L18+28
 690 008c 1A70     		strb	r2, [r3]
 322:Generated_Source\PSoC5/USBUART_1_pm.c **** 
 323:Generated_Source\PSoC5/USBUART_1_pm.c ****         /* Restore data EP1-8 configuration. */
 324:Generated_Source\PSoC5/USBUART_1_pm.c ****         USBUART_1_RestoreConfig();
 691              		.loc 1 324 0
 692 008e FFF7FEFF 		bl	USBUART_1_RestoreConfig
 693              	.LVL18:
 694              	.L16:
 325:Generated_Source\PSoC5/USBUART_1_pm.c ****     #endif /* (CY_PSOC4) */
 326:Generated_Source\PSoC5/USBUART_1_pm.c ****     }
 327:Generated_Source\PSoC5/USBUART_1_pm.c **** 
 328:Generated_Source\PSoC5/USBUART_1_pm.c ****     CyExitCriticalSection(enableInterrupts);
 695              		.loc 1 328 0
 696 0092 2846     		mov	r0, r5
 697 0094 FFF7FEFF 		bl	CyExitCriticalSection
 698              	.LVL19:
 699 0098 38BD     		pop	{r3, r4, r5, pc}
 700              	.LVL20:
 701              	.L19:
 702 009a 00BF     		.align	2
 703              	.L18:
 704 009c 00000000 		.word	.LANCHOR0
ARM GAS  C:\Users\Luggi\AppData\Local\Temp\ccLirwVy.s 			page 41


 705 00a0 80E100E0 		.word	-536813184
 706 00a4 A5430040 		.word	1073759141
 707 00a8 94430040 		.word	1073759124
 708 00ac 09600040 		.word	1073766409
 709 00b0 28600040 		.word	1073766440
 710 00b4 08600040 		.word	1073766408
 711 00b8 12600040 		.word	1073766418
 712              		.cfi_endproc
 713              	.LFE4:
 714              		.size	USBUART_1_Resume, .-USBUART_1_Resume
 715              		.bss
 716              		.align	2
 717              		.set	.LANCHOR0,. + 0
 718              		.type	USBUART_1_backup, %object
 719              		.size	USBUART_1_backup, 2
 720              	USBUART_1_backup:
 721 0000 0000     		.space	2
 722 0002 0000     		.text
 723              	.Letext0:
 724              		.file 2 "Generated_Source\\PSoC5\\cytypes.h"
 725              		.file 3 "Generated_Source\\PSoC5\\USBUART_1.h"
 726              		.file 4 "Generated_Source\\PSoC5\\USBUART_1_pvt.h"
 727              		.file 5 "Generated_Source\\PSoC5\\USBUART_1_Dp.h"
 728              		.file 6 "Generated_Source\\PSoC5\\CyLib.h"