ARM GAS  C:\Users\Luggi\AppData\Local\Temp\ccPhjCUM.s 			page 1


   1              		.syntax unified
   2              		.cpu cortex-m3
   3              		.fpu softvfp
   4              		.eabi_attribute 20, 1
   5              		.eabi_attribute 21, 1
   6              		.eabi_attribute 23, 3
   7              		.eabi_attribute 24, 1
   8              		.eabi_attribute 25, 1
   9              		.eabi_attribute 26, 1
  10              		.eabi_attribute 30, 1
  11              		.eabi_attribute 34, 1
  12              		.eabi_attribute 18, 4
  13              		.thumb
  14              		.file	"USBUART_1_episr.c"
  15              		.text
  16              	.Ltext0:
  17              		.section	.gnu.lto_.profile.304b5766,"",%progbits
  18 0000 789C6366 		.ascii	"x\234cf```a\200\000F\006#\025\000\000\374\000_"
  18      60606061 
  18      80004606 
  18      23150000 
  18      FC005F
  19              		.text
  20              		.section	.gnu.lto_.inline.304b5766,"",%progbits
  21 0000 789C6366 		.ascii	"x\234cf\300\016\322\2414+\003\003/7#\003\223\310\207"
  21      C00ED2A1 
  21      342B0303 
  21      2F372303 
  21      93C887
  22 0013 498C0C6C 		.ascii	"I\214\014l\013\344\231@\202LX\304\230\261\210\26100"
  22      0BE49940 
  22      824C58C4 
  22      98B188B1 
  22      3030
  23 0025 3301C580 		.ascii	"3\001\305\200,\230\010+\003\013\017\252\010#\027\210"
  23      2C98082B 
  23      030B0FAA 
  23      08231788 
  24 0035 0400716B 		.ascii	"\004\000qk\011\235"
  24      099D
  25              		.text
  26              		.section	.gnu.lto_.jmpfuncs.304b5766,"",%progbits
  27 0000 789C6366 		.ascii	"x\234cf\300\016\204\2404+\020310030\260@8\014\000\003"
  27      C00E84A0 
  27      342B1033 
  27      31303033 
  27      30B04038 
  28 0017 6C0029   		.ascii	"l\000)"
  29              		.text
  30              		.section	.gnu.lto_.pureconst.304b5766,"",%progbits
  31 0000 789C6366 		.ascii	"x\234cf``\340f\200\000V\006)&)f)\026\006V\011\000\003"
  31      6060E066 
  31      80005606 
  31      29262966 
  31      29160656 
  32 0017 DA0088   		.ascii	"\332\000\210"
  33              		.text
ARM GAS  C:\Users\Luggi\AppData\Local\Temp\ccPhjCUM.s 			page 2


  34              		.section	.gnu.lto_USBUART_1_EP_1_ISR.304b5766,"",%progbits
  35 0000 789C9593 		.ascii	"x\234\225\223\337K\024Q\024\307\3579w\366\267b\364\226"
  35      DF4B1451 
  35      14C7EF39 
  35      77F6B762 
  35      F496
  36 0012 FF8044AD 		.ascii	"\377\200D\255\022\321C\004B\365\020\364$\231P ,a\373"
  36      12D14304 
  36      42F510F4 
  36      24995020 
  36      2C61FB
  37 0025 D04B86D5 		.ascii	"\320K\206\325\243y\0077\020\"1E\220\312\036\"\177\265"
  37      A3790737 
  37      10223145 
  37      90CA1E22 
  37      7FB5
  38 0037 B9EA6A6E 		.ascii	"\271\352jn?4g-]\205(\264\242\037\017F\241`/\341\217"
  38      3F34672D 
  38      5D8528B4 
  38      A21F0F46 
  38      A1602FE1 
  39 004c A8C65CB6 		.ascii	"\250\306\\\266s\356,\"\246Q\003s\357\334\371~\347|?"
  39      73EE2C22 
  39      A6510373 
  39      EFDCF97E 
  39      E77C3F
  40 005f 73E68E14 		.ascii	"s\346\216\024\177\036{\351,4\204\330E3\270\004`\303"
  40      7F1E7BE9 
  40      2C3484D8 
  40      4533B804 
  40      60C3
  41 0071 0B214C2F 		.ascii	"\013!L/\242\234,\026\312o\244\362\204\312\221`8\267"
  41      A29C2C16 
  41      CA6FA4F2 
  41      84CA9160 
  41      38B7
  42 0083 0D00BE10 		.ascii	"\015\000\276\020 jP\032P\003_p\021\241\301\212\266\004"
  42      206A501A 
  42      50035F70 
  42      11A1C18A 
  42      B604
  43 0095 0ADA9452 		.ascii	"\012\332\224R\013\323]f\211\0056\012\261\214N\000t@"
  43      0BD35D66 
  43      8905360A 
  43      B18C4E00 
  43      7440
  44 00a7 8120D362 		.ascii	"\201 \323b$\3756\340\216\220i\233\243A'\270\201\346"
  44      24FD36E0 
  44      8E90699B 
  44      A34127B8 
  44      81E6
  45 00b9 9EED96CA 		.ascii	"\236\355\226\312d\232:\006\016\004P\330H\0204\270y\360"
  45      649A3A06 
  45      0E0450D8 
  45      481034B8 
  45      79F0
  46 00cb F0E0E541 		.ascii	"\360\340\345A\210Yz\204\243\347\020y\226\037`ta!\261"
ARM GAS  C:\Users\Luggi\AppData\Local\Temp\ccPhjCUM.s 			page 3


  46      88597A84 
  46      A3E71079 
  46      961F6074 
  46      6121B1
  47 00de 838B50F1 		.ascii	"\203\213P\361\272\211\266\250\234G\033\361\212e*\203"
  47      BA89B6A8 
  47      9C471BF1 
  47      8A652A83 
  48 00ee F33ECEBE 		.ascii	"\363>\316\276\234\362\352[\202\227\357\246W,_+\3340"
  48      9CF2EA5B 
  48      8297EFA6 
  48      572C5F2B 
  48      DC30
  49 0100 234427A1 		.ascii	"#D'\241\013\362\341.\344\023E\024Z\201\364T\353|\334"
  49      0BF2E12E 
  49      E4134514 
  49      5A81F454 
  49      EB7CDC
  50 0113 603B8080 		.ascii	"`;\200\200{\244P\300`\337\330\224\344\204\037\350\""
  50      7BA450C0 
  50      60DFD894 
  50      E4841FE8 
  50      22
  51 0124 CBD7E644 		.ascii	"\313\327\346D\022\331b\254\216l\0141t\310\312L\177\306"
  51      12D962AC 
  51      8E6C0C31 
  51      74C8CA4C 
  51      7FC6
  52 0136 AF434C6B 		.ascii	"\257CLk\267\215.\350\246\230\030\307\220\330\364\274"
  52      B78D2EE8 
  52      A69818C7 
  52      90D8F4BC 
  53 0146 73382F18 		.ascii	"s8/\030U\244\235\264\321\015=\024\274\244\233\264>\336"
  53      55A49DB4 
  53      D10D3D14 
  53      BCA49BB4 
  53      3EDE
  54 0158 03BC9CB0 		.ascii	"\003\274\234\260\222\031\177Q7{C6z\241\027\202\320\307"
  54      92197F51 
  54      377B4336 
  54      7AA11782 
  54      D0C7
  55 016a 75B4F972 		.ascii	"u\264\371r\262\345\233t*]\262\321\007q(Z\342\036\011"
  55      B2E59B74 
  55      2A5DB2D1 
  55      0771285A 
  55      E21E09
  56 017d E887A006 		.ascii	"\350\207\240\006_\034\277\346r\300\271;\267^\325\307"
  56      5F1CBFE6 
  56      72C0B93B 
  56      B75ED5C7 
  57 018d B0FA97AA 		.ascii	"\260\372\227\252S^\033\375it\252\254\261\373\365\362"
  57      535E1BFD 
  57      6974AAAC 
  57      B1FBF5F2 
  58 019d B36AB73D 		.ascii	"\263j\267=\314\256Lr\005`\000\252\341~\026\375j:n\003"
  58      CCAE4C72 
ARM GAS  C:\Users\Luggi\AppData\Local\Temp\ccPhjCUM.s 			page 4


  58      056000AA 
  58      E17E16FD 
  58      6A3A6E03 
  59 01b1 E350EF72 		.ascii	"\343P\357r`\220\300\327\321\304FV\2172\0140J\202Q\364"
  59      6090C0D7 
  59      D1C44656 
  59      8F320C30 
  59      4A8251F4 
  60 01c5 D77DA051 		.ascii	"\327}\240Qj\177\272\035\016tP\352cw\226\363t\233\245"
  60      6A7FBA1D 
  60      0E7450EA 
  60      637796F3 
  60      749BA5
  61 01d8 808754E3 		.ascii	"\200\207T\343\015D\336\327\336\206\254Iw\236\2179\224"
  61      0D44DED7 
  61      DE86AC49 
  61      779E8F39 
  61      94
  62 01e9 62B258EA 		.ascii	"b\262X\352wI}\312ud\317\226\357\262\021\376\321f\360"
  62      77497DCA 
  62      7564CF96 
  62      EFB211FE 
  62      D166F0
  63 01fc 2CE5C0E3 		.ascii	",\345\300\343\315\351Y\364\301\020\343K\306\037v\360"
  63      CDE959F4 
  63      C110E34B 
  63      C61F76F0 
  64 020c BF67F1BD 		.ascii	"\277g\361\275Nz\363\320\315F\237\306W\264M\2368\333"
  64      4E7AF3D0 
  64      CD469FC6 
  64      57B44D9E 
  64      38DB
  65 021e A411B2BB 		.ascii	"\244\021\262\273\360\337\330F\266f\263\376\306\226\\"
  65      F0DFD846 
  65      B666B3FE 
  65      C6965C
  66 022d 631B8520 		.ascii	"c\033\205 \021\351.\031k?C\357\353d\356\177q<\335\224"
  66      11E92E19 
  66      6B3F43EF 
  66      EB64EE7F 
  66      713CDD94 
  67 0241 C3DACF20 		.ascii	"\303\332\317 \317\266\000\261N0\311\030\223\030L2\016"
  67      CFB600B1 
  67      4E30C918 
  67      93184C32 
  67      0E
  68 0252 4192A7AE 		.ascii	"A\222\247\256\267\327\352\217\352\243\246\244\350\251"
  68      B7D7EA8F 
  68      EAA3A6A4 
  68      E8A9
  69 0260 1930AD44 		.ascii	"\0310\255D\012\031\207+\314\322\346$L\342\330y$|6\\"
  69      0A19872B 
  69      CCD2E624 
  69      4CE2D879 
  69      247C365C 
  70 0274 75EA42F8 		.ascii	"u\352B\370t\250\264\362bUE\270\274\244\264\362\360\276"
  70      74A8B4F2 
ARM GAS  C:\Users\Luggi\AppData\Local\Temp\ccPhjCUM.s 			page 5


  70      625545B8 
  70      BCA4B4F2 
  70      F0BE
  71 0286 F2B2D243 		.ascii	"\362\262\322Ce\007\217\035\017\355\011\205\317\2359"
  71      65078F1D 
  71      0FED0985 
  71      CF9D39
  72 0295 5F555821 		.ascii	"_UX!~\003\2033\214\250"
  72      7E038333 
  72      8CA8
  73              		.text
  74              		.section	.gnu.lto_USBUART_1_EP_2_ISR.304b5766,"",%progbits
  75 0000 789C9593 		.ascii	"x\234\225\223\337K\024Q\024\307\35793;\373S\214\350"
  75      DF4B1451 
  75      14C7EF39 
  75      333BFB53 
  75      8CE8
  76 0012 21FC0724 		.ascii	"!\374\007$j\223\210\036z\021\262\207^#\023\012\204%"
  76      6A93881E 
  76      7A11B287 
  76      5E23130A 
  76      8425
  77 0024 6C1F7AC9 		.ascii	"l\037z\311\260z4\357\346\006R!\262!\204e\320\017\315"
  77      B07A34EF 
  77      E6065221 
  77      B2218465 
  77      D00FCD
  78 0037 DAFC9D3F 		.ascii	"\332\374\235?*\315\321,\225\244P1+\302@\024\014\"\\"
  78      2ACDD12C 
  78      95A45031 
  78      2BC24014 
  78      0C225C
  79 004a 0D6BFC81 		.ascii	"\015k\374\201\235s\357\"Rn\324\300\334;w\316w\316\367"
  79      9D73EF22 
  79      526ED4C0 
  79      DC3B77CE 
  79      77CEF7
  80 005d 73CEBD63 		.ascii	"s\316\275c\210?\257\275t\347\230B\354\244\031\\\002"
  80      883FAFBD 
  80      74E79842 
  80      ECA4195C 
  80      02
  81 006e B0E28D10 		.ascii	"\260\342\215\020\021\017\2421\224-\244\317\034H\027"
  81      110FA231 
  81      942DA4CF 
  81      1C4817
  82 007d 326080A9 		.ascii	"2`\200\251_\233\000\374 @\224\240aB\011|\301\004B\205"
  82      5F9B00FC 
  82      204094A0 
  82      6142097C 
  82      C1044285 
  83 0091 1DBFEECF 		.ascii	"\035\277\356\317\254\221R\316]\354\331vi\273\203B,\240"
  83      AC9152CE 
  83      5DECD976 
  83      69BB8342 
  83      2CA0
  84 00a3 CE0FF721 		.ascii	"\316\017\367!S\220&\021]\235\360[Q\322l\3211\250\003"
ARM GAS  C:\Users\Luggi\AppData\Local\Temp\ccPhjCUM.s 			page 6


  84      53902611 
  84      5D9DF05B 
  84      51D26CD1 
  84      31A803
  85 00b6 0B686EDC 		.ascii	"\013hn\334j\313\265\265\261\225\336%\277\037\205\203"
  85      6ACBB5B5 
  85      B195DE25 
  85      BF1F8583 
  86 00c6 044183C5 		.ascii	"\004A\203\305\203\233\007\017\017BL\3237l=\203\310\263"
  86      839B070F 
  86      0F424CD3 
  86      376C3D83 
  86      C8B3
  87 00d8 F111FAE6 		.ascii	"\361\021\372\346\346\206c\006\247\241\364e\2035qc\026"
  87      E6866306 
  87      A7A1F465 
  87      83357163 
  87      16
  88 00e9 1DC42B76 		.ascii	"\035\304+vD\232\354\370y\372\355\210G\275\022\274|?"
  88      449AECF8 
  88      79FAED88 
  88      47BD12BC 
  88      7C3F
  89 00fb BA647BAB 		.ascii	"\272d{\253\341F$\012\016\032\360\0002\340!d\020G\034"
  89      E146240A 
  89      0E1AF000 
  89      32E02164 
  89      10471C
  90 010e AA81E255 		.ascii	"\252\201\342U\0233\337U\006@\001\217(B\016\355\315\357"
  90      1333DF55 
  90      0640018F 
  90      28420EED 
  90      CDEF
  91 0120 4695C30F 		.ascii	"F\225\303\017t\221\344[eG/\262\304\\\351\371\335\304"
  91      7491E45B 
  91      65472FB2 
  91      C45CE9F9 
  91      DDC4
  92 0132 54264B93 		.ascii	"T&K\223\255k>e\022\261w9\350\202z\262i`\033\012^\033"
  92      AD6B3E65 
  92      12B17739 
  92      E8827AB2 
  92      69601B0A 
  93 0148 AEEB4E0F 		.ascii	"\256\353N\017\306%\305\216;hA#\031\317\2536m\264w#/"
  93      C625C58E 
  93      3B684123 
  93      19CFAB36 
  93      6DB47723 
  94 015d 175BFAC7 		.ascii	"\027[\372\307\374Y\365\254\0159\350\201&\010B3\347Q"
  94      FC59F5AC 
  94      0D39E881 
  94      26084233 
  94      E751
  95 016f E2AF57C7 		.ascii	"\342\257W\307\333\002:\323\005\007\275\320\002Y\363"
  95      DB023AD3 
  95      0507BDD0 
  95      0259F3
ARM GAS  C:\Users\Luggi\AppData\Local\Temp\ccPhjCUM.s 			page 7


  96 017e DC2401AD 		.ascii	"\334$\001\255\020T\340\211\211\230K\203swn\215\2257"
  96      1054E089 
  96      89984B83 
  96      73776E8D 
  96      9537
  97 0190 60F1B22C 		.ascii	"`\361\262,\223\036\007}\253\250\263\254\263\373\324"
  97      931E077D 
  97      ABA8B3AC 
  97      B3FBD4
  98 019f 724AD63A 		.ascii	"rJ\326:nf\227\021R\371\3411\024C[\022\275\263\356v\215"
  98      6E669711 
  98      52F9E131 
  98      14435B12 
  98      BDB3EE76 
  99 01b4 C538D4BB 		.ascii	"\3058\324\273\000\264\023\370\006\232\304\335\313\355"
  99      00B413F8 
  99      069AC4DD 
  99      CBED
 100 01c2 16D300B3 		.ascii	"\026\323\000\263t0\213\332\340N\305R\372\323\322 \250"
 100      74308BDA 
 100      E04EC552 
 100      FAD3D220 
 100      A8
 101 01d3 59CA1BEE 		.ascii	"Y\312\033\356-\244\253>\033\002\236P\222q\210~(\275"
 101      2DA4AB3E 
 101      1B029E50 
 101      9271887E 
 101      28BD
 102 01e5 03491129 		.ascii	"\003I\021)\006\252g[L\245\000\001O\265\015\355\273!"
 102      06AA675B 
 102      4CA50001 
 102      4FB50DED 
 102      BB21
 103 01f7 86B20D55 		.ascii	"\206\262\015U\333\247\2514\255v\247\254\355\367b\236"
 103      DBA7A934 
 103      AD76A7AC 
 103      EDF7629E 
 104 0207 6D560C87 		.ascii	"mV\014\207\002\320\225\242\032\216z\241\233\3131\270"
 104      02D095A2 
 104      1A8E7AA1 
 104      9BCB31B8 
 105 0217 9CE7BA9C 		.ascii	"\234\347\272\234\305d9\036m_\331u3\346U\260\222h{\364"
 105      C564391E 
 105      6D5FD975 
 105      33E655B0 
 105      92687BF4 
 106 022b B98941F2 		.ascii	"\271\211A\362X\376\033\234\235\032\256\367\257p}\353"
 106      58FE1B9C 
 106      9D1AAEF7 
 106      AF707DEB 
 107 023b 702F2048 		.ascii	"p/ HH\252O\346\372\377\3214\323\227\366_ \375\233\202"
 107      48AA4FE6 
 107      FAFFD134 
 107      D397F65F 
 107      20FD9B82 
 108 024f D8FB99E4 		.ascii	"\330\373\231\344e*\022\373\030\243\274b\024\223Q\006"
 108      652A12FB 
ARM GAS  C:\Users\Luggi\AppData\Local\Temp\ccPhjCUM.s 			page 8


 108      18A3BC62 
 108      14935106 
 109 025f 2048F191 		.ascii	" H\361\221\252\332R\265\315^j\313 }6\011\021{\37152"
 109      AADA52B5 
 109      CD5E6ACB 
 109      207D3609 
 109      117BF935 
 110 0274 0FA798A6 		.ascii	"\017\247\230\246\363J\234\004\262\343P\370t\270\350"
 110      F34A9C04 
 110      B2E350F8 
 110      74B8E8
 111 0283 C4B9F0C9 		.ascii	"\304\271\360\311Pn\341\371\242\202p\376\341\334\302"
 111      506EE1F9 
 111      A28270FE 
 111      E1DCC2
 112 0292 83FBF2F3 		.ascii	"\203\373\362\363rs\362\016\0349\032\332\023\012\237"
 112      7273F20E 
 112      1C391ADA 
 112      130A9F
 113 02a1 3975B668 		.ascii	"9u\266hw\201\370\005\035\340\223h"
 113      7781F805 
 113      1DE09368 
 114              		.text
 115              		.section	.gnu.lto_USBUART_1_EP_3_ISR.304b5766,"",%progbits
 116 0000 789C9593 		.ascii	"x\234\225\223\337K\024Q\024\307\3579w\366\307\354*\206"
 116      DF4B1451 
 116      14C7EF39 
 116      77F6C7EC 
 116      2A86
 117 0012 F410FE03 		.ascii	"\364\020\376\003\022\265ID\017\275\010\331C\257\221"
 117      12B54944 
 117      0FBD08D9 
 117      43AF91
 118 0021 0905C212 		.ascii	"\011\005\302\022\266\017\275dX=\232\263\270\202\020"
 118      B60FBD64 
 118      583D9AB3 
 118      B88210
 119 0030 88ECA249 		.ascii	"\210\354\242Ie\017\221fm\256\277J\313\3741\376\250U"
 119      650F9166 
 119      6DAEBF4A 
 119      CBFC31FE 
 119      A855
 120 0042 E8072A51 		.ascii	"\350\007*Q\006\031\224\205A\311\256\322\217\261d;\347"
 120      06199485 
 120      41C9AED2 
 120      8FB1643B 
 120      E7
 121 0053 CEB284B9 		.ascii	"\316\262\204\271Q\003s\357\3349\3379\337\3179\367\216"
 121      510373EF 
 121      DC39DF39 
 121      DFCF39F7 
 121      8E
 122 0064 147F5E7B 		.ascii	"\024\177^{\350.\321\204\330A38\004`\343S!\202nD9],\014"
 122      E82ED184 
 122      D8413338 
 122      0460E353 
 122      21826E44 
ARM GAS  C:\Users\Luggi\AppData\Local\Temp\ccPhjCUM.s 			page 9


 123 007c 8F16CF13 		.ascii	"\217\026\317\023F\216\004\315~\255\001\360\203\000Q"
 123      468E04CD 
 123      7EAD01F0 
 123      830051
 124 008b 8352831A 		.ascii	"\203R\203\032\370\210I\204F3\332\342-l3\014#\021^\335"
 124      F8884984 
 124      4633DAE2 
 124      2D6C330C 
 124      23115EDD 
 125 009f 5AB7CD42 		.ascii	"Z\267\315B!V\321\316\0177\240P\220&\031Z\177\341u\206"
 125      2156D1CE 
 125      0F37A050 
 125      9026195A 
 125      7FE17586 
 126 00b3 48B3C58E 		.ascii	"H\263\305\216A\0078\201\346\256|\323H\245\"O&\206\362"
 126      41073881 
 126      E6AE7CD3 
 126      48A5224F 
 126      2686F2
 127 00c6 BD282C24 		.ascii	"\275(,$\010\032\234<\270xp\363 \304\"}\303\326\357\021"
 127      081A9C3C 
 127      B87870F3 
 127      20C4227D 
 127      C3D6EF11 
 128 00da 7996AF60 		.ascii	"y\226\257`<\321\375:\"9\015\245\257\237j\213\312%\264"
 128      3CD1FD3A 
 128      22390DA5 
 128      AF9F6A8B 
 128      CA25B4
 129 00ed 102F9841 		.ascii	"\020/\230ACc\3077\213\317f\334\352\225\340\345\313\331"
 129      4363C737 
 129      8BCF66DC 
 129      EA95E0E5 
 129      CBD9
 130 00ff 35536F85 		.ascii	"5So\205\313\301\020X(\341&\024\300-( \216(\264\002\305"
 130      CBC11058 
 130      28E12614 
 130      C02D2820 
 130      8E28B402 
 131 0114 07C3532D 		.ascii	"\007\303S-N\226\203&\3406E\310\241?\371aN9|C\007I\226"
 131      4E968326 
 131      E03645C8 
 131      A13FF961 
 131      4E397C43 
 132 012b 9B06C690 		.ascii	"\233\006\306\220%\332\317\321\215&\2322Y[\350Ky\224"
 132      25DACFD1 
 132      8D269A32 
 132      595BE84B 
 132      7994
 133 013d 49D0DC69 		.ascii	"I\320\334i\241\003:\311&\3066\024\214<\356\030\316\363"
 133      A1033AC9 
 133      26C63614 
 133      8C3CEE18 
 133      CEF3
 134 014f 450D8A1D 		.ascii	"E\015\212\035\263\320\011]d\274\242\332D\301\206\330"
 134      B3D0095D 
 134      64BCA2DA 
ARM GAS  C:\Users\Luggi\AppData\Local\Temp\ccPhjCUM.s 			page 10


 134      44C186D8 
 135 015f F5D53C4E 		.ascii	"\365\325<N\344\222\274\034\237_\230\324\213:Y\353\267"
 135      E492BC1C 
 135      9F5F98D4 
 135      8B3A59EB 
 135      B7
 136 0170 D00DDDE0 		.ascii	"\320\015\335\340\203\036\316\243\304#\027\023Iig:o\241"
 136      831ECEA3 
 136      C4231713 
 136      4969673A 
 136      6FA1
 137 0182 0EBD50B4 		.ascii	"\016\275P\264\302M\022\320\007>\005\336\363)\342\260"
 137      C24D12D0 
 137      073E05DE 
 137      F329E2B0 
 138 0192 C1B93B57 		.ascii	"\301\271;W\347\032bX\375\303\2507\334\026z\326\321\316"
 138      E71A6258 
 138      FDC3A837 
 138      DC167AD6 
 138      D1CE
 139 01a4 9261F7A8 		.ascii	"\222a\367\250\345[\243\335r1\273\021$\225\027\356@5"
 139      E55BA3DD 
 139      7231BB11 
 139      249517EE 
 139      4035
 140 01b6 DC4DA387 		.ascii	"\334M\243\207\343]\315\222q\250w9\320O\340\277\321\324"
 140      E35DCD92 
 140      71A87739 
 140      D04FE0BF 
 140      D1D4
 141 01c8 CD2E37EB 		.ascii	"\315.7\353L\003\3142\300,j\203\357)\226\332\357N\033"
 141      4C03CC32 
 141      C02C6A83 
 141      EF2996DA 
 141      EF4E1B
 142 01db 046D964C 		.ascii	"\004m\226L\241 \005\334\247$\317!4_{\015\322\"R\304"
 142      A12005DC 
 142      A724CF21 
 142      345F7B0D 
 142      D22252C4 
 143 01ef 5B977A35 		.ascii	"[\227z5\245\000\001\203\266\015\355\273\024\323\305"
 143      A5000183 
 143      B60DEDBB 
 143      14D3C5
 144 01fe 52D5F6F9 		.ascii	"R\325\366\371]\256\255ve\255mc1\0176+\206C90\224\245"
 144      5DAEAD76 
 144      65AD6D63 
 144      310F362B 
 144      86433930 
 145 0214 1A8EEA30 		.ascii	"\032\216\3520\314\345H.g\304.\347k\272\034\267m\337"
 145      CCE5482E 
 145      67C42EE7 
 145      6BBA1CB7 
 145      6DDF
 146 0226 347425AC 		.ascii	"4t%\254+X\203hG\355s\023\206\364\261\374783;\334\330"
 146      2B588368 
 146      47ED7313 
ARM GAS  C:\Users\Luggi\AppData\Local\Temp\ccPhjCUM.s 			page 11


 146      86F4B1FC 
 146      3738333B 
 147 023c 5FE1C633 		.ascii	"_\341\3063p\023\340#$\325'-\363\177$\276L\344\376\027"
 147      7013E023 
 147      24D5272D 
 147      F37F24BE 
 147      4CE4FE17 
 148 0250 C8E4A620 		.ascii	"\310\344\246 \346>&y\230\215\304<\312(\217\030Ec\224"
 148      E63E2679 
 148      988DC43C 
 148      CA288F18 
 148      456394
 149 0263 38F8283E 		.ascii	"8\370(>s\251\275Vm\263Nm\231\242\317\026 h\016\317\""
 149      73A9BD56 
 149      6DB34E6D 
 149      99A2CF16 
 149      20680ECF 
 150 0278 F3708A45 		.ascii	"\363p\212E:\257\304I \333\017\006N\005\252\216\237\015"
 150      3AAFC449 
 150      20DB0F06 
 150      4E05AA8E 
 150      9F0D
 151 028a 9CF09756 		.ascii	"\234\360\227V\236\253\252\010\224\037*\255<\260\267"
 151      9EABAA08 
 151      941F2AAD 
 151      3CB0B7
 152 0299 BCACB4A4 		.ascii	"\274\254\264\244l\377\341#\376\335\376\300\351\223g"
 152      6CFFE123 
 152      FEDDFEC0 
 152      E99367
 153 02a8 AA765588 		.ascii	"\252vU\210_Y\273\222\015"
 153      5F59BB92 
 153      0D
 154              		.text
 155              		.section	.gnu.lto_USBUART_1_SOF_ISR.304b5766,"",%progbits
 156 0000 789C6366 		.ascii	"x\234cf\300\004R@\\\016\304\332@\314\310\314\300\310"
 156      C0045240 
 156      5C0EC4DA 
 156      40CCC8CC 
 156      C0C8
 157 0012 34E11C03 		.ascii	"4\341\034\003C#\007\023##\210\301\300\310P\317\304X"
 157      43230713 
 157      232388C1 
 157      C0C850CF 
 157      C458
 158 0024 CFF892E9 		.ascii	"\317\370\222\351#\023\343\204\003\253gp\253/mhh\370"
 158      2313E384 
 158      03AB6770 
 158      AB2F6D68 
 158      68F8
 159 0036 70E9EE31 		.ascii	"p\351\3561\246\206)\011?\231\030\030>3A\014b\\\316\250"
 159      A6862909 
 159      3F991818 
 159      3E33410C 
 159      625CCEA8 
 160 004a CE0054F5 		.ascii	"\316\000T\365\261\345\357un\266\026\240*\001\210\034"
 160      B1E5EF75 
ARM GAS  C:\Users\Luggi\AppData\Local\Temp\ccPhjCUM.s 			page 12


 160      6EB616A0 
 160      2A01881C 
 161 005a E30A4636 		.ascii	"\343\012F6F \275^\350@\303\377\377\223\277\317\352P"
 161      4620BD5E 
 161      E840C3FF 
 161      FF93BFCF 
 161      EA50
 162 006c 96068A3F 		.ascii	"\226\006\212?\001b\220\025O\231\230@4\363=FF\220J\220"
 162      01629015 
 162      4F999840 
 162      34F33D46 
 162      46904A90 
 163 0080 514F9818 		.ascii	"QO\230\030AB@\005\232\356\251y\251E\211%\251)\361\301"
 163      41424005 
 163      9AEEA979 
 163      A9458925 
 163      A929F1C1 
 164 0094 F9A545C9 		.ascii	"\371\245E\311\2511\001\301\371\316\2461\241\301N\241"
 164      A93101C1 
 164      F9CEA631 
 164      A1C14EA1 
 165 00a4 8E4121F1 		.ascii	"\216A!\361\206\361\251\005\231\305Ez\311\014\000(s9"
 165      86F1A905 
 165      99C5457A 
 165      C90C0028 
 165      7339
 166 00b6 62       		.ascii	"b"
 167              		.text
 168              		.section	.gnu.lto_USBUART_1_BUS_RESET_ISR.304b5766,"",%progbits
 169 0000 789C6366 		.ascii	"x\234cf\300\004R@\274\024\210\265\201\230\221\231\201"
 169      C0045240 
 169      BC1488B5 
 169      81989199 
 169      81
 170 0011 9169C239 		.ascii	"\221i\3029\006\206F\016&FF\020\203\201\221\241\236\211"
 170      0686460E 
 170      26464610 
 170      838191A1 
 170      9E89
 171 0023 B19EF125 		.ascii	"\261\236\361%\323G&\306\011\007V\317\340V_\332\320\320"
 171      D34726C6 
 171      090756CF 
 171      E0565FDA 
 171      D0D0
 172 0035 F061D157 		.ascii	"\360a\321W\267\206)\011?\231\030\030>3A\314a\\\316\250"
 172      B7862909 
 172      3F991818 
 172      3E3341CC 
 172      615CCEA8 
 173 0049 CE0054F4 		.ascii	"\316\000T\364\261\345\357un\266\026\240\"\001\210\034"
 173      B1E5EF75 
 173      6EB616A0 
 173      2201881C 
 174 0059 E30A4636 		.ascii	"\343\012F6F \275^\350@\303\377\377\227\257\316~a$\315"
 174      4620BD5E 
 174      E840C3FF 
 174      FF97AFCE 
ARM GAS  C:\Users\Luggi\AppData\Local\Temp\ccPhjCUM.s 			page 13


 174      7E6124CD 
 175 006d CCC0F004 		.ascii	"\314\300\360\004(\007\262\341)\023\023\210f\276\303"
 175      2807B2E1 
 175      29131388 
 175      66BEC3
 176 007c D87CE0EF 		.ascii	"\330|\340\357;\015\220j\2201\363.\367\255c\252\375\335"
 176      3B0D906A 
 176      9031F32E 
 176      F7AD63AA 
 176      FDDD
 177 008e D0D1C0F1 		.ascii	"\320\321\300\361\223\211\3613\023\320\004\306\225\214"
 177      9389F133 
 177      13D004C6 
 177      958C
 178 009c B50C3F81 		.ascii	"\265\014?\201\312\35716\036\230\376\236\003\254\224"
 178      CAEF3136 
 178      1E98FE9E 
 178      03AC94
 179 00ab 01641223 		.ascii	"\001d\022#\310\004\240y\232\356\251y\251E\211%\251)"
 179      C804A079 
 179      9AEEA979 
 179      A9458925 
 179      A929
 180 00bd F1C1F9A5 		.ascii	"\361\301\371\245E\311\2511\001\301\371\316\2461\241"
 180      45C9A931 
 180      01C1F9CE 
 180      A631A1
 181 00cc C14EA18E 		.ascii	"\301N\241\216A!\361\206\361\251\005\231\305Ez\311\014"
 181      4121F186 
 181      F1A90599 
 181      C5457AC9 
 181      0C
 182 00dd 00A0764B 		.ascii	"\000\240vK\370"
 182      F8
 183              		.text
 184              		.section	.gnu.lto_.symbol_nodes.304b5766,"",%progbits
 185 0000 789C55C8 		.ascii	"x\234U\310\261\021\2000\014\305P\331\216s)\331\224\021"
 185      B1118030 
 185      0CC550D9 
 185      8E7329D9 
 185      9411
 186 0012 7E46A0A2 		.ascii	"~F\240\242\246`\036f`\022\216\002\212D\335S\000+\177"
 186      A6601E66 
 186      60128E02 
 186      8A44DD53 
 186      002B7F
 187 0025 8E60BB40 		.ascii	"\216`\273@b?\032\231,\302M6^w\371\344PL.*\243\255*?"
 187      623F1A99 
 187      2CC24D36 
 187      5E77F9E4 
 187      504C2E2A 
 188 003d D37B23B2 		.ascii	"\323{#\262r\336\217\361\002\351\343\033\250"
 188      72DE8FF1 
 188      02E9E31B 
 188      A8
 189              		.text
 190              		.section	.gnu.lto_.refs.304b5766,"",%progbits
ARM GAS  C:\Users\Luggi\AppData\Local\Temp\ccPhjCUM.s 			page 14


 191 0000 789C6366 		.ascii	"x\234cf``\320f\200\000\026\006\006Ff\006F6FF\016FFN"
 191      6060D066 
 191      80001606 
 191      06466606 
 191      46364646 
 192 0018 1626141E 		.ascii	"\026&\024\03632\217\001\000\022\207\000\240"
 192      33328F01 
 192      00128700 
 192      A0
 193              		.text
 194              		.section	.gnu.lto_.decls.304b5766,"",%progbits
 195 0000 789CB556 		.ascii	"x\234\265V{PT\327\031\277\337=\260,\227\005\023\230"
 195      7B5054D7 
 195      19BFDF3D 
 195      B02C9705 
 195      1398
 196 0012 51EA3FA5 		.ascii	"Q\352?\2458\2631\035'\203\351\264\223\376\225D\206<"
 196      38B3311D 
 196      2783E9B4 
 196      93FE9544 
 196      863C
 197 0024 26696504 		.ascii	"&ie\004\377\31043\224\300\005\231\261\260\263\254\355"
 197      FFC83433 
 197      94C00599 
 197      B1B0B3AC 
 197      ED
 198 0035 A47F742E 		.ascii	"\244\177t. \202<,E\021\260\306\242\202\274a\005\037"
 198      20823C2C 
 198      4511B0C6 
 198      A282BC61 
 198      051F
 199 0047 BC2AF802 		.ascii	"\274*\370\002\023\020\251A\221\220\224\005\005\301\347"
 199      1310A941 
 199      91909405 
 199      05C1E7
 200 0056 6A505490 		.ascii	"jPT\220\355w\316\275\273\367.\356\306Lgrg>\356\375\316"
 200      ED77CEBD 
 200      BBF72EEE 
 200      C64C6772 
 200      673EEEFD 
 201 006b F97DBFEF 		.ascii	"\371}\277\357u\316\267\020\216\343\356\000\3079\360"
 201      75CEB710 
 201      8EE3EE00 
 201      C739F0
 202 007a 5915C871 		.ascii	"Y\025\310q\217\360[\207k\321\234\372P\275\001\245\011"
 202      8FF05B87 
 202      6BD19CFA 
 202      50BD01A5 
 202      09
 203 008b C58AD282 		.ascii	"\305\212\322\202r\014\345\004\012\302\271\233\234\373"
 203      720CE504 
 203      0AC2B99B 
 203      9CFB
 204 0099 43B1810A 		.ascii	"C\261\201\012\307J\312\217r\013%\000\301\002J \312\007"
 204      C74ACA8F 
 204      720B2500 
 204      C1024A20 
ARM GAS  C:\Users\Luggi\AppData\Local\Temp\ccPhjCUM.s 			page 15


 204      CA07
 205 00ab A81BF03D 		.ascii	"\250\033\360=\213\357 |O\341\333\206\342K\005\365%|"
 205      8BEF207C 
 205      4FE1DB86 
 205      E24B05F5 
 205      257C
 206 00bd 8FA25C41 		.ascii	"\217\242\\A\371F\361\323\340\305_\323O\344\257\311\213"
 206      F946F1D3 
 206      E0C55FD3 
 206      4FE4AFC9 
 206      8B
 207 00ce 3FEB4FE4 		.ascii	"?\353O\344\317\352\305_\213\262\356\354\011(k\313\037"
 207      CFEAC55F 
 207      8BB2EEEC 
 207      09286BCB 
 207      1F
 208 00df DA13A2E0 		.ascii	"\332\023\242\340V \250VY\3479\265_\313\237\007<\264"
 208      5620A856 
 208      59E739B5 
 208      5FCB9F07 
 208      3CB4
 209 00f1 37CD5D0C 		.ascii	"7\315]\014\230\341!H\010\243jG\361\2052\035\252\006"
 209      98E12148 
 209      08A36A47 
 209      F185321D 
 209      AA06
 210 0103 C187AA9D 		.ascii	"\301\207\252\235\013\223\303>\253J$|\212\262\244W| "
 210      0B93C33E 
 210      AB4A247C 
 210      8AB2A457 
 210      7C20
 211 0115 7A2554C3 		.ascii	"z%T\303j\250\201\325\030I-\254\302\277\177\360\221\231"
 211      6AA881D5 
 211      18492DAC 
 211      C2BF7FF0 
 211      9199
 212 0127 6CB6430D 		.ascii	"l\266C\015\002\341\201~\037.\233\030\026\326\325\241"
 212      02E1817E 
 212      1F2E9B18 
 212      16D6D5A1 
 213 0137 59AED433 		.ascii	"Y\256\3243\303\253\356:2\006.\362a\007\244\012\253\275"
 213      C3ABEE3A 
 213      32062EF2 
 213      6107A40A 
 213      ABBD
 214 0149 6BDF1583 		.ascii	"k\337\025\203tA\352q8\336fTP\007\004\352a\035K\022\277"
 214      7441EA71 
 214      38DE6654 
 214      500704EA 
 214      611D4B12 
 215 015e E56C1B20 		.ascii	"\345l\033 \014\315F\016f\016\351\310{\214\373j\2064"
 215      0CCD460E 
 215      660EE9C8 
 215      7B8CFB6A 
 215      8634
 216 0170 1DC8282A 		.ascii	"\035\310(*\236\034\326\311\004\314\276Qc\337\350\264"
 216      9E1CD6C9 
ARM GAS  C:\Users\Luggi\AppData\Local\Temp\ccPhjCUM.s 			page 16


 216      04CCBE51 
 216      63DFE8B4 
 217 0180 6F62F6F7 		.ascii	"ob\366\367\257\347\316\350\310'\314\376\302\036\233"
 217      AFE7CEE8 
 217      C827CCFE 
 217      C21E9B
 218 018f 2D48B62F 		.ascii	"-H\266/\257\326\3327k\354\233\235\366Vf_p\262\254J "
 218      AFD6DA37 
 218      6BEC9B9D 
 218      F656665F 
 218      70B2AC4A 
 219 01a4 5B99FDF6 		.ascii	"[\231\375\366\326\253\271\004\355\255\326\212\273\307"
 219      D6ABB904 
 219      EDADD68A 
 219      BBC7
 220 01b2 137BB64B 		.ascii	"\023{\266K\213\016\007\22138\252a8\352dha\014\223\203"
 220      8B0E0791 
 220      3338AA61 
 220      38EA6468 
 220      610C9383 
 221 01c6 5D192BC8 		.ascii	"]\031+\310\337\030\303\267\326\347C\001,\002[\335\311"
 221      DF18C3B7 
 221      D6E74301 
 221      2C025BDD 
 221      C9
 222 01d7 73EE4568 		.ascii	"s\356Eh\325P\264:)\2161\212\306\326\355\217ud/\310\034"
 222      D550B43A 
 222      298E318A 
 222      C6D6ED8F 
 222      75642FC8 
 223 01ec 5FD5F51A 		.ascii	"_\325\365\032\220\303&\331g\262[\177[.\035\314\224\226"
 223      90C326D9 
 223      67B25B7F 
 223      5B2E1DCC 
 223      9496
 224 01fe 1C0E9059 		.ascii	"\034\016\220Y\216kX\216;YN0\026kw\375N\177\326\360?"
 224      8E6B588E 
 224      3B594E30 
 224      166B77FD 
 224      4E7FD6F0 
 225 0213 529EF96C 		.ascii	"R\236\371l\373N\2015\334\300\212\333\235\223\243'\327"
 225      FB4E8135 
 225      DCC08ADB 
 225      9D93A327 
 225      D7
 226 0224 641F1947 		.ascii	"d\037\031G:\013\374po\245\300z\267\253\177\337i\302"
 226      3A0BFC70 
 226      6FA5C07A 
 226      B7AB7FDF 
 226      69C2
 227 0236 5407DDE6 		.ascii	"T\007\335\346GG\367<% \030s%)S\262\027K$\224\203u\253"
 227      4747F73C 
 227      25201873 
 227      252953B2 
 227      174B2494 
 228 024d E1F5D51C 		.ascii	"\341\365\325\034\374\033\214\010c!@\007\236\227N</\225"
 228      FC1B8C08 
ARM GAS  C:\Users\Luggi\AppData\Local\Temp\ccPhjCUM.s 			page 17


 228      63214007 
 228      9E974E3C 
 228      2F95
 229 025f 781AECA7 		.ascii	"x\032\354\247\372\352>\312\222\336\201.\020\240\335"
 229      FAEA3ECA 
 229      92DE812E 
 229      10A0DD
 230 026e 1524F3A0 		.ascii	"\025$\363\240\234\220\334\221\316\223~D\222\317\321"
 230      9C90DC91 
 230      CE937E44 
 230      92CFD1
 231 027d D9F1CA7C 		.ascii	"\331\361\312|\201\344\310J\325@\341\224@\212e\245\177"
 231      81E4C84A 
 231      D540E194 
 231      408A65A5 
 231      7F
 232 028e F2C9F706 		.ascii	"\362\311\367\006\226\306+T\035/,>\"\220\375\362^\371"
 232      96C62B54 
 232      1D2F2C3E 
 232      2290FDF2 
 232      5EF9
 233 02a0 FC40EF0A 		.ascii	"\374@\357\012\266\027J\325\314\316\371\207\002\251R"
 233      B6174AD5 
 233      CCCEF987 
 233      02A952
 234 02af 488E0C3D 		.ascii	"H\216\014=\323\221:Y\251\231\034,\016d\300\265T\335"
 234      D3913A59 
 234      A9991C2C 
 234      0E64C0B5 
 234      54DD
 235 02c1 37323547 		.ascii	"725GX-x\252~\361\360^\227?9\312\273\325\"L\256E\351"
 235      582D78AA 
 235      7EF1F05E 
 235      973F39CA 
 235      BBD5224C 
 236 02d8 ED27C7F4 		.ascii	"\355'\307\364L\245\315\307b\034\031\232\337\027\004"
 236      4CA5CDC7 
 236      621C199A 
 236      DF1704
 237 02e7 46816659 		.ascii	"F\201fYQ\037\0100\200\031^P3\014S2d\305\222\262$\337"
 237      511F0830 
 237      80195E50 
 237      330C5332 
 237      64C592B2 
 238 02fd B51C9CC6 		.ascii	"\265\034\234\306\312\364ae\240\037\313\025\246\224\353"
 238      CAF46165 
 238      A01FCB15 
 238      A694EB
 239 030c 4B5CFC0A 		.ascii	"K\\\374\012\027\321\311\334\3633\263\204\264\311\001"
 239      17D1C9DC 
 239      F333B384 
 239      B4C901
 240 031b 8CCF8F9F 		.ascii	"\214\317\217\237\361c\261FPu\351\334b\215\216\234\225"
 240      F163B146 
 240      5075E9DC 
 240      628D8E9C 
 240      95
ARM GAS  C:\Users\Luggi\AppData\Local\Temp\ccPhjCUM.s 			page 18


 241 032c F72A4BF6 		.ascii	"\367*K\3666\370\262\300\365T\035\232\355\276\343K\006"
 241      36F8B2C0 
 241      F5541D9A 
 241      EDBEE34B 
 241      06
 242 033d D95E40EF 		.ascii	"\331^@\357\345\221r\036\302\331\023\022\036n\014\257"
 242      E591721E 
 242      C2D91312 
 242      1E6E0CAF 
 243 034d C008EC6D 		.ascii	"\300\010\354m\375u\361\0172\245\202P\326\211\036\214"
 243      FD75F10F 
 243      32A58250 
 243      D6891E8C 
 244 035d F31A8438 		.ascii	"\363\032\2048\273\267\226^\356\323\364\212s\024\\\321"
 244      BBB7965E 
 244      EED3F48A 
 244      73145CD1 
 245 036d 94ADAB89 		.ascii	"\224\255\253\211`\011]T\200\256\310\031tP\205\266M\371"
 245      60095D54 
 245      80AEC819 
 245      745085B6 
 245      4DF9
 246 037f 964530CE 		.ascii	"\226E0\316\377\270s\016\3012\322z\027\362\214\007\357"
 246      FFB8730E 
 246      C132D27A 
 246      17F28C07 
 246      EF
 247 0390 675560A3 		.ascii	"gU`\243\013x\336\003\260W\0056\270\200\347<\000\253"
 247      0B78DE03 
 247      B0570536 
 247      B880E73C 
 247      00AB
 248 03a2 19F01F6C 		.ascii	"\031\360\037l\224I\322;<\007'1\2116\026\026\305b\361"
 248      9449D23B 
 248      3C072731 
 248      89361616 
 248      C562F1
 249 03b5 610CFB30 		.ascii	"a\014\3730\012\341\360\015\312e\224+(#(WQ\276F\371\026"
 249      0AE1F00D 
 249      CA65942B 
 249      28232857 
 249      51BE46F9 
 250 03ca 6518C259 		.ascii	"e\030\302Y#\231\313\032\227\313S\036\\\376\322\025Z"
 250      2399CB1A 
 250      97CB531E 
 250      5CFED215 
 250      5A
 251 03db AD0BD7ED 		.ascii	"\255\013\327\355\001\267\216\342\350\301\261\035\250"
 251      01B78EE2 
 251      E8C1B11D 
 251      A8
 252 03e8 D24940F7 		.ascii	"\322I@\3679\347\365\345\\\316l\315\3319\006Ii\304\245"
 252      39E7F5E5 
 252      5CCE6CCD 
 252      D9390649 
 252      69C4A5
 253 03fb E58D90EB 		.ascii	"\345\215\220\353\313<\342\011\310\353s\274K\026\331"
ARM GAS  C:\Users\Luggi\AppData\Local\Temp\ccPhjCUM.s 			page 19


 253      CB3CE209 
 253      C8EB73BC 
 253      4B16D9
 254 040a 01E08F0D 		.ascii	"\001\340\217\015\265K\002\204\030=\245\016\343\230\361"
 254      B54B0284 
 254      183DA50E 
 254      E398F1
 255 0419 FF933D8B 		.ascii	"\377\223=\213\266]\324\303\177\321\370;\365\230\323"
 255      B65DD4C3 
 255      7FD1F83B 
 255      F598D3
 256 0428 D09D3779 		.ascii	"\320\2357y\361\\C\277\177\010\272\315\370!\267\334\217"
 256      F15C43BF 
 256      7F08BACD 
 256      F821B7DC 
 256      8F
 257 0439 F68994A3 		.ascii	"\366\211\224\243\207\012\317\007\261K`\323Q=\347i\315"
 257      870ACF07 
 257      B14B60D3 
 257      513DE769 
 257      CD
 258 044a 14B083BF 		.ascii	"\024\260\203\277\225\252\023y\035\245\006!W\371\271"
 258      95AA1379 
 258      1DA50621 
 258      57F9B9
 259 0459 F2FF00D7 		.ascii	"\362\377\000\3275?W\327\001\357 V\234\325\012\321\265"
 259      353F57D7 
 259      01EF2056 
 259      9CD50AD1 
 259      B5
 260 046a F50B6D10 		.ascii	"\365\013m\020\\\244\224%\214g\271L |\222\301o@\260\323"
 260      5CA49425 
 260      8C67B94C 
 260      207C92C1 
 260      6F40B0D3 
 261 047e 88A2777F 		.ascii	"\210\242w\177\221\273\333O\213\266\375\020\272\247t"
 261      91BBDB4F 
 261      8BB6FD10 
 261      BAA774
 262 048d FF151D29 		.ascii	"\377\025\035)!\354z\366\354(/%k\016J\225\031\366\231"
 262      21EC7AF6 
 262      EC282F25 
 262      6B0E4A95 
 262      19F699
 263 04a0 AAA5E812 		.ascii	"\252\245\350\022\251hO\205dw\274\375s\230\202`\230\226"
 263      A9684F85 
 263      6477BCFD 
 263      73988260 
 263      9896
 264 04b2 ABA7E19A 		.ascii	"\253\247\341\232\226'6\334\2045h-\225\346W\352\311!"
 264      962736DC 
 264      8435682D 
 264      95E657EA 
 264      C921
 265 04c4 99EAF8E3 		.ascii	"\231\352\370\343\274\366@\232a\326\217\230\270\330\374"
 265      BCF6409A 
 265      61D68F98 
ARM GAS  C:\Users\Luggi\AppData\Local\Temp\ccPhjCUM.s 			page 20


 265      B8D8FC
 266 04d3 E1C1BCAB 		.ascii	"\341\301\274\253\376\362\214^nq\333\353\214\316\351"
 266      FEF28C5E 
 266      6E71DBEB 
 266      8CCEE9
 267 04e2 367C2949 		.ascii	"6|)Iz\270\205\007mF\355\355,\250Sz\270?s\214\030\362"
 267      7AB88507 
 267      6D46EDED 
 267      2CA8537A 
 267      B83F738C 
 268 04f8 E830932B 		.ascii	"\3500\223+M\261j\251\357\200\201e\200o\004g\015d\335"
 268      4DB16AA9 
 268      EF808165 
 268      806F0467 
 268      0D64DD
 269 050b 1058D724 		.ascii	"\020X\327$\177j\334r\376\300}y\316\026\261\244J\272"
 269      7F6ADC72 
 269      FEC07D79 
 269      CE16B1A4 
 269      4ABA
 270 051d F617CB3F 		.ascii	"\366\027\313?I\222\333l7\310\263\275\357@k\313\012R"
 270      4992DB6C 
 270      37C8B3BD 
 270      EF406BCB 
 270      0A52
 271 052f 2D17E046 		.ascii	"-\027\340F\337\245\371@\322-+7\3576\216\371\221^Yy\364"
 271      DFA5F940 
 271      D22D2B37 
 271      EF368EF9 
 271      915E5979 
 272 0544 6CBA9390 		.ascii	"l\272\223\220\213\262\362\317\242\313\345\362\317\303"
 272      8BB2F2CF 
 272      A2CBE5F2 
 272      CFC3
 273 0552 16AADE69 		.ascii	"\026\252\336i\251\350\3253\306@\326\313\303\325\207"
 273      A9E8D533 
 273      C640D6CB 
 273      C3D587
 274 0561 04AFE764 		.ascii	"\004\257\347d\336yN\332\344s2{v`\227\217\332y`\367\370"
 274      DE794EDA 
 274      E473327B 
 274      7660978F 
 274      DA7960F7 
 275 0576 11C21F33 		.ascii	"\021\302\0373\370\023\326\371yg\347\347&\252\212\003"
 275      F813D6F9 
 275      7967E7E7 
 275      26AA8A03 
 276 0586 C8D72C0C 		.ascii	"\310\327,\014\335\216\375\363\247\000\350\334\0157\312"
 276      DD8EFDF3 
 276      A700E8DC 
 276      0D37CA
 277 0595 7337FFDE 		.ascii	"s7\377\336'\352\334\375\036\213\273\340i\030\270\356"
 277      27EADCFD 
 277      1E8BBBE0 
 277      6918B8EE 
 278 05a5 2AFE9EDF 		.ascii	"*\376\236\337GOv\346iA\271\250\016\354\334s\274\030"
 278      474F76E6 
ARM GAS  C:\Users\Luggi\AppData\Local\Temp\ccPhjCUM.s 			page 21


 278      6941B9A8 
 278      0EECDC73 
 278      BC18
 279 05b7 CF509650 		.ascii	"\317P\226P\026\325\221$Ut\274\206\223\006c\202\247\012"
 279      16D59124 
 279      5574BC86 
 279      93066382 
 279      A70A
 280 05c9 B933D217 		.ascii	"\2713\322\027\006k\363M\347Pz\350!\016ux\265\273ps\036"
 280      066BF34D 
 280      E7507AE8 
 280      210E7578 
 280      B5BB7073 
 281 05de 70F24867 		.ascii	"p\362Hg\363\240\261\232N\257\205\027\246\027\236\303"
 281      F3A0B19A 
 281      4EAF8517 
 281      A6179EC3 
 282 05ee B14BC373 		.ascii	"\261K\303s<\030C\030\2563Y\017\031|\010<P\317\326\202"
 282      3C184318 
 282      AE33590F 
 282      197C083C 
 282      50CFD682 
 283 0602 736E78CA 		.ascii	"snx\312\034$\336\370\322\344\351\300\271\261\364\252"
 283      1C24DEF8 
 283      D2E4E9C0 
 283      B9B1F4AA 
 284 0612 B64FD4C7 		.ascii	"\266O\324\307]\344\270\307\252\227\311\273\335\320Z"
 284      5DE4B8C7 
 284      AA97C9BB 
 284      DDD05A
 285 0621 EB60BD2F 		.ascii	"\353`\275/\031a}\"%'\256\357&\020\022n\324\272WM\267"
 285      19617D22 
 285      2527AEEF 
 285      2610126E 
 285      D4BA574D 
 286 0636 F3B2EF1D 		.ascii	"\363\262\357\035\030G6\257\026\333V[\273Q\302\332 5"
 286      184736AF 
 286      16DB565B 
 286      BB51C2DA 
 286      2035
 287 0648 64F184E1 		.ascii	"d\361\204\341\234V\232*\262\244\377UK\213\203\210\027"
 287      9C569A2A 
 287      B2A4FF55 
 287      4B8B8388 
 287      17
 288 0659 8A03470B 		.ascii	"\212\003G\013o\357$\344;\026\012\337\332\360\264\014"
 288      6FEF24E4 
 288      3B160ADF 
 288      DAF0B40C 
 289 0669 B4E35A13 		.ascii	"\264\343Z\023\011\354\304\000<\005\303<\324\245\350"
 289      09ECC400 
 289      3C05C33C 
 289      D4A5E8
 290 0678 21173773 		.ascii	"!\0277sxWY\251;\247\227\335-\023M\240\216c/\264\234"
 290      785759A9 
 290      3BA797DD 
 290      2D134DA0 
ARM GAS  C:\Users\Luggi\AppData\Local\Temp\ccPhjCUM.s 			page 22


 290      8E632FB4 
 291 068d 8B134DC6 		.ascii	"\213\023M\306\366\226^\327ioy\036\202\324\213\222\317"
 291      F6965ED7 
 291      696F791E 
 291      82D48B92 
 291      CF
 292 069e CBB71CDF 		.ascii	"\313\267\034\337\010\276\366l:\223\270\361{\352\037"
 292      08BEF66C 
 292      3A93B8F1 
 292      7BEA1F
 293 06ad E7AD7993 		.ascii	"\347\255y\223\267\236\027\200\266{\005^\273\007\205"
 293      B79E1780 
 293      B67B055E 
 293      BB0785
 294 06bc 7C305A5C 		.ascii	"|0Z\\\312\237yS\033\034\035\246jp\273\224\340v\261\340"
 294      CA9F7953 
 294      1B1C1DA6 
 294      6A70BB94 
 294      E076B1E0 
 295 06d0 9A1F0FD5 		.ascii	"\232\037\017\325\005h\301\364\277d\025\374w\336\340"
 295      0568C1F4 
 295      BF6415FC 
 295      77DEE0
 296 06df 2C197E72 		.ascii	",\031~r\301\233c6l~wSl\334\372\270\250h\374\363a\314"
 296      C19B6336 
 296      6C7E7753 
 296      6CDCFAB8 
 296      A868FCF3 
 297 06f5 26DDFBBF 		.ascii	"&\335\373\277\337\034\026\311\275\376\276\230*\232\343"
 297      DF1C16C9 
 297      BDFEBE98 
 297      2A9AE3
 298 0704 2D62625C 		.ascii	"-bb\\L\3326s\202\370itLZ\344\257?U\015DSJ\272\371\215"
 298      4CDA3673 
 298      82F86974 
 298      4C5AE4AF 
 298      3F550D44 
 299 071d 84651C6F 		.ascii	"\204e\034oR\016\367\245_\321\245W\325\245\230\215\357"
 299      520EF7A5 
 299      5FD1A557 
 299      D5A5988D 
 299      EF
 300 072e D19555EA 		.ascii	"\321\225U\352\312\206\3151q\233\242b\242b\351\372\317"
 300      CA86CD31 
 300      719BA262 
 300      A262E9FA 
 300      CF
 301 073f D4F54DE2 		.ascii	"\324\365M\342\207\251)\226\310\264?\231\322R\305T\313"
 301      87A92996 
 301      C8B43F99 
 301      D252C554 
 301      CB
 302 0750 6B2F8DC9 		.ascii	"k/\215\311\364g\313\033[8\337m)\251\226\267~\341\005"
 302      F467CB1B 
 302      5B38DF6D 
 302      29A996B7 
 302      7EE105
ARM GAS  C:\Users\Luggi\AppData\Local\Temp\ccPhjCUM.s 			page 23


 303 0763 9DF0B9E5 		.ascii	"\235\360\271\345s\223\230\2168]\274\305bN\371L\2107"
 303      7393988E 
 303      385DBCC5 
 303      624EF94C 
 303      8837
 304 0775 A5449962 		.ascii	"\245D\231b,\010\365\337\362\027\345K/\232b\323\222\223"
 304      2C08F5DF 
 304      F217E54B 
 304      2F9A62D3 
 304      9293
 305 0787 B78A3EF1 		.ascii	"\267\212>\361\211\211f\235h\372]Z\242\250\243\304\353"
 305      8989669D 
 305      68FA5D5A 
 305      A2A8A3C4 
 305      EB
 306 0798 7F237CB6 		.ascii	"\177#|\266-)icRR\272ha\237\2429&\345\257\242?\356\211"
 306      2D296963 
 306      5252BA68 
 306      619FA239 
 306      26E5AFA2 
 307 07af E6A4F804 		.ascii	"\346\244\370\004q\315\313\342D\337\241\261qnE\212\214"
 307      71CDCBE2 
 307      44DFA1B1 
 307      716E458A 
 307      8C
 308 07c0 FD386EC3 		.ascii	"\3758n\303\307\033#?2h\227}\314b\362["
 308      C71B233F 
 308      3268977D 
 308      CC62F25B 
 309 07d0 9A42A5A7 		.ascii	"\232B\245\247\210X\367\270t\213y[\202\005\203\212L\265"
 309      8858F7B8 
 309      748B795B 
 309      8205838A 
 309      4CB5
 310 07e2 44C8AFF5 		.ascii	"D\310\257\365\276\3702G\220\344x\223/\242\242L\241\313"
 310      BEF83247 
 310      90E47893 
 310      2FA2A24C 
 310      A1CB
 311 07f4 ADD215B3 		.ascii	"\255\322\025\263\377\001V'\222\220"
 311      FF015627 
 311      9290
 312              		.text
 313              		.section	.gnu.lto_.symtab.304b5766,"",%progbits
 314 0000 55534255 		.ascii	"USBUART_1_EP_1_ISR\000\000\000\000\000\000\000\000\000"
 314      4152545F 
 314      315F4550 
 314      5F315F49 
 314      53520000 
 315 001b 000000AC 		.ascii	"\000\000\000\254\000\000\000USBUART_1_EP_2_ISR\000\000"
 315      00000055 
 315      53425541 
 315      52545F31 
 315      5F45505F 
 316 0036 00000000 		.ascii	"\000\000\000\000\000\000\000\000\000\000\256\000\000"
 316      00000000 
 316      0000AE00 
ARM GAS  C:\Users\Luggi\AppData\Local\Temp\ccPhjCUM.s 			page 24


 316      00
 317 0043 00555342 		.ascii	"\000USBUART_1_EP_3_ISR\000\000\000\000\000\000\000\000"
 317      55415254 
 317      5F315F45 
 317      505F335F 
 317      49535200 
 318 005e 00000000 		.ascii	"\000\000\000\000\260\000\000\000USBUART_1_SOF_ISR\000"
 318      B0000000 
 318      55534255 
 318      4152545F 
 318      315F534F 
 319 0078 00000000 		.ascii	"\000\000\000\000\000\000\000\000\000\000\000\262\000"
 319      00000000 
 319      000000B2 
 319      00
 320 0085 00005553 		.ascii	"\000\000USBUART_1_BUS_RESET_ISR\000\000\000\000\000"
 320      42554152 
 320      545F315F 
 320      4255535F 
 320      52455345 
 321 00a3 00000000 		.ascii	"\000\000\000\000\000\000\000\264\000\000\000USBUART"
 321      000000B4 
 321      00000055 
 321      53425541 
 321      5254
 322 00b5 5F315F45 		.ascii	"_1_EP\000\000\002\000\000\000\000\000\000\000\000\000"
 322      50000002 
 322      00000000 
 322      00000000 
 322      00
 323 00c6 E7000000 		.ascii	"\347\000\000\000USBUART_1_ReInitComponent\000\000\002"
 323      55534255 
 323      4152545F 
 323      315F5265 
 323      496E6974 
 324 00e6 00000000 		.ascii	"\000\000\000\000\000\000\000\000\000\266\000\000\000"
 324      00000000 
 324      00B60000 
 324      00
 325              		.text
 326              		.section	.gnu.lto_.opts,"",%progbits
 327 0000 272D666E 		.ascii	"'-fno-trapv' '-fno-strict-overflow' '-mcpu=cortex-m"
 327      6F2D7472 
 327      61707627 
 327      20272D66 
 327      6E6F2D73 
 328 0033 33272027 		.ascii	"3' '-mthumb' '-g' '-Og' '-ffunction-sections' '-flt"
 328      2D6D7468 
 328      756D6227 
 328      20272D67 
 328      2720272D 
 329 0066 6F272027 		.ascii	"o' '-ffat-lto-objects'\000"
 329      2D666661 
 329      742D6C74 
 329      6F2D6F62 
 329      6A656374 
 330              		.text
ARM GAS  C:\Users\Luggi\AppData\Local\Temp\ccPhjCUM.s 			page 25


 331              		.cfi_sections	.debug_frame
 332              		.section	.text.USBUART_1_EP_1_ISR,"ax",%progbits
 333              		.align	2
 334              		.global	USBUART_1_EP_1_ISR
 335              		.thumb
 336              		.thumb_func
 337              		.type	USBUART_1_EP_1_ISR, %function
 338              	USBUART_1_EP_1_ISR:
 339              	.LFB0:
 340              		.file 1 "Generated_Source\\PSoC5\\USBUART_1_episr.c"
   1:Generated_Source\PSoC5/USBUART_1_episr.c **** /***************************************************************************//**
   2:Generated_Source\PSoC5/USBUART_1_episr.c **** * \file USBUART_1_episr.c
   3:Generated_Source\PSoC5/USBUART_1_episr.c **** * \version 3.10
   4:Generated_Source\PSoC5/USBUART_1_episr.c **** *
   5:Generated_Source\PSoC5/USBUART_1_episr.c **** * \brief
   6:Generated_Source\PSoC5/USBUART_1_episr.c **** *  This file contains the Data endpoint Interrupt Service Routines.
   7:Generated_Source\PSoC5/USBUART_1_episr.c **** *
   8:Generated_Source\PSoC5/USBUART_1_episr.c **** ********************************************************************************
   9:Generated_Source\PSoC5/USBUART_1_episr.c **** * \copyright
  10:Generated_Source\PSoC5/USBUART_1_episr.c **** * Copyright 2008-2016, Cypress Semiconductor Corporation.  All rights reserved.
  11:Generated_Source\PSoC5/USBUART_1_episr.c **** * You may use this file only in accordance with the license, terms, conditions,
  12:Generated_Source\PSoC5/USBUART_1_episr.c **** * disclaimers, and limitations in the end user license agreement accompanying
  13:Generated_Source\PSoC5/USBUART_1_episr.c **** * the software package with which this file was provided.
  14:Generated_Source\PSoC5/USBUART_1_episr.c **** *******************************************************************************/
  15:Generated_Source\PSoC5/USBUART_1_episr.c **** 
  16:Generated_Source\PSoC5/USBUART_1_episr.c **** #include "USBUART_1_pvt.h"
  17:Generated_Source\PSoC5/USBUART_1_episr.c **** #include "USBUART_1_cydmac.h"
  18:Generated_Source\PSoC5/USBUART_1_episr.c **** 
  19:Generated_Source\PSoC5/USBUART_1_episr.c **** 
  20:Generated_Source\PSoC5/USBUART_1_episr.c **** 
  21:Generated_Source\PSoC5/USBUART_1_episr.c **** /***************************************
  22:Generated_Source\PSoC5/USBUART_1_episr.c **** * Custom Declarations
  23:Generated_Source\PSoC5/USBUART_1_episr.c **** ***************************************/
  24:Generated_Source\PSoC5/USBUART_1_episr.c **** /* `#START CUSTOM_DECLARATIONS` Place your declaration here */
  25:Generated_Source\PSoC5/USBUART_1_episr.c **** 
  26:Generated_Source\PSoC5/USBUART_1_episr.c **** /* `#END` */
  27:Generated_Source\PSoC5/USBUART_1_episr.c **** 
  28:Generated_Source\PSoC5/USBUART_1_episr.c **** 
  29:Generated_Source\PSoC5/USBUART_1_episr.c **** #if (USBUART_1_EP1_ISR_ACTIVE)
  30:Generated_Source\PSoC5/USBUART_1_episr.c ****     /******************************************************************************
  31:Generated_Source\PSoC5/USBUART_1_episr.c ****     * Function Name: USBUART_1_EP_1_ISR
  32:Generated_Source\PSoC5/USBUART_1_episr.c ****     ***************************************************************************//**
  33:Generated_Source\PSoC5/USBUART_1_episr.c ****     *
  34:Generated_Source\PSoC5/USBUART_1_episr.c ****     *  Endpoint 1 Interrupt Service Routine
  35:Generated_Source\PSoC5/USBUART_1_episr.c ****     *
  36:Generated_Source\PSoC5/USBUART_1_episr.c ****     ******************************************************************************/
  37:Generated_Source\PSoC5/USBUART_1_episr.c ****     CY_ISR(USBUART_1_EP_1_ISR)
  38:Generated_Source\PSoC5/USBUART_1_episr.c ****     {
 341              		.loc 1 38 0
 342              		.cfi_startproc
 343              		@ args = 0, pretend = 0, frame = 0
 344              		@ frame_needed = 0, uses_anonymous_args = 0
 345              		@ link register save eliminated.
  39:Generated_Source\PSoC5/USBUART_1_episr.c **** 
  40:Generated_Source\PSoC5/USBUART_1_episr.c ****     #ifdef USBUART_1_EP_1_ISR_ENTRY_CALLBACK
  41:Generated_Source\PSoC5/USBUART_1_episr.c ****         USBUART_1_EP_1_ISR_EntryCallback();
  42:Generated_Source\PSoC5/USBUART_1_episr.c ****     #endif /* (USBUART_1_EP_1_ISR_ENTRY_CALLBACK) */
ARM GAS  C:\Users\Luggi\AppData\Local\Temp\ccPhjCUM.s 			page 26


  43:Generated_Source\PSoC5/USBUART_1_episr.c **** 
  44:Generated_Source\PSoC5/USBUART_1_episr.c ****         /* `#START EP1_USER_CODE` Place your code here */
  45:Generated_Source\PSoC5/USBUART_1_episr.c **** 
  46:Generated_Source\PSoC5/USBUART_1_episr.c ****         /* `#END` */
  47:Generated_Source\PSoC5/USBUART_1_episr.c **** 
  48:Generated_Source\PSoC5/USBUART_1_episr.c ****     #if (CY_PSOC3 && defined(USBUART_1_ENABLE_MIDI_STREAMING) && \
  49:Generated_Source\PSoC5/USBUART_1_episr.c ****         !defined(USBUART_1_MAIN_SERVICE_MIDI_OUT) && USBUART_1_ISR_SERVICE_MIDI_OUT)
  50:Generated_Source\PSoC5/USBUART_1_episr.c ****         {
  51:Generated_Source\PSoC5/USBUART_1_episr.c ****             uint8 intEn = EA;
  52:Generated_Source\PSoC5/USBUART_1_episr.c ****             CyGlobalIntEnable;  /* Enable nested interrupts. */
  53:Generated_Source\PSoC5/USBUART_1_episr.c ****     #endif /* (CY_PSOC3 && USBUART_1_ISR_SERVICE_MIDI_OUT) */
  54:Generated_Source\PSoC5/USBUART_1_episr.c ****     
  55:Generated_Source\PSoC5/USBUART_1_episr.c ****         USBUART_1_ClearSieEpInterruptSource(USBUART_1_SIE_INT_EP1_INTR);
 346              		.loc 1 55 0
 347 0000 0122     		movs	r2, #1
 348 0002 094B     		ldr	r3, .L3
 349 0004 1A70     		strb	r2, [r3]
  56:Generated_Source\PSoC5/USBUART_1_episr.c ****             
  57:Generated_Source\PSoC5/USBUART_1_episr.c ****         /* Notifies user that transfer IN or OUT transfer is completed.
  58:Generated_Source\PSoC5/USBUART_1_episr.c ****         * IN endpoint: endpoint buffer can be reloaded, Host is read data.
  59:Generated_Source\PSoC5/USBUART_1_episr.c ****         * OUT endpoint: data is ready to be read from endpoint buffer. 
  60:Generated_Source\PSoC5/USBUART_1_episr.c ****         */
  61:Generated_Source\PSoC5/USBUART_1_episr.c ****     #if (CY_PSOC4 && USBUART_1_EP_MANAGEMENT_DMA_AUTO)
  62:Generated_Source\PSoC5/USBUART_1_episr.c ****         if (0u != (USBUART_1_EP[USBUART_1_EP1].addr & USBUART_1_DIR_IN))
  63:Generated_Source\PSoC5/USBUART_1_episr.c ****     #endif /* (CY_PSOC4 && USBUART_1_EP_MANAGEMENT_DMA_AUTO) */
  64:Generated_Source\PSoC5/USBUART_1_episr.c ****         {
  65:Generated_Source\PSoC5/USBUART_1_episr.c ****             /* Read CR0 register to clear SIE lock. */
  66:Generated_Source\PSoC5/USBUART_1_episr.c ****             (void) USBUART_1_SIE_EP_BASE.sieEp[USBUART_1_EP1].epCr0;
 350              		.loc 1 66 0
 351 0006 0F3B     		subs	r3, r3, #15
 352 0008 9B7C     		ldrb	r3, [r3, #18]	@ zero_extendqisi2
  67:Generated_Source\PSoC5/USBUART_1_episr.c ****             
  68:Generated_Source\PSoC5/USBUART_1_episr.c ****             /* Toggle all endpoint types except ISOC. */
  69:Generated_Source\PSoC5/USBUART_1_episr.c ****             if (USBUART_1_GET_EP_TYPE(USBUART_1_EP1) != USBUART_1_EP_TYPE_ISOC)
 353              		.loc 1 69 0
 354 000a 084B     		ldr	r3, .L3+4
 355 000c 1B7B     		ldrb	r3, [r3, #12]	@ zero_extendqisi2
 356 000e 03F00303 		and	r3, r3, #3
 357 0012 9342     		cmp	r3, r2
 358 0014 04D0     		beq	.L2
  70:Generated_Source\PSoC5/USBUART_1_episr.c ****             {
  71:Generated_Source\PSoC5/USBUART_1_episr.c ****                 USBUART_1_EP[USBUART_1_EP1].epToggle ^= USBUART_1_EPX_CNT_DATA_TOGGLE;
 359              		.loc 1 71 0
 360 0016 054A     		ldr	r2, .L3+4
 361 0018 D37B     		ldrb	r3, [r2, #15]	@ zero_extendqisi2
 362 001a 83F08003 		eor	r3, r3, #128
 363 001e D373     		strb	r3, [r2, #15]
 364              	.L2:
  72:Generated_Source\PSoC5/USBUART_1_episr.c ****             }
  73:Generated_Source\PSoC5/USBUART_1_episr.c **** 
  74:Generated_Source\PSoC5/USBUART_1_episr.c ****             /* EP_MANAGEMENT_DMA_AUTO (Ticket ID# 214187): For OUT endpoint this event is used to n
  75:Generated_Source\PSoC5/USBUART_1_episr.c ****             * user that DMA has completed copying data from OUT endpoint which is not completely tr
  76:Generated_Source\PSoC5/USBUART_1_episr.c ****             * Because last chunk of data is being copied.
  77:Generated_Source\PSoC5/USBUART_1_episr.c ****             * For CY_PSOC 3/5LP: it is acceptable as DMA is really fast.
  78:Generated_Source\PSoC5/USBUART_1_episr.c ****             * For CY_PSOC4: this event is set in Arbiter interrupt (source is DMA_TERMIN).
  79:Generated_Source\PSoC5/USBUART_1_episr.c ****             */
  80:Generated_Source\PSoC5/USBUART_1_episr.c ****             USBUART_1_EP[USBUART_1_EP1].apiEpState = USBUART_1_EVENT_PENDING;
ARM GAS  C:\Users\Luggi\AppData\Local\Temp\ccPhjCUM.s 			page 27


 365              		.loc 1 80 0
 366 0020 0122     		movs	r2, #1
 367 0022 024B     		ldr	r3, .L3+4
 368 0024 5A73     		strb	r2, [r3, #13]
 369 0026 7047     		bx	lr
 370              	.L4:
 371              		.align	2
 372              	.L3:
 373 0028 0B600040 		.word	1073766411
 374 002c 00000000 		.word	USBUART_1_EP
 375              		.cfi_endproc
 376              	.LFE0:
 377              		.size	USBUART_1_EP_1_ISR, .-USBUART_1_EP_1_ISR
 378              		.section	.text.USBUART_1_EP_2_ISR,"ax",%progbits
 379              		.align	2
 380              		.global	USBUART_1_EP_2_ISR
 381              		.thumb
 382              		.thumb_func
 383              		.type	USBUART_1_EP_2_ISR, %function
 384              	USBUART_1_EP_2_ISR:
 385              	.LFB1:
  81:Generated_Source\PSoC5/USBUART_1_episr.c ****         }
  82:Generated_Source\PSoC5/USBUART_1_episr.c **** 
  83:Generated_Source\PSoC5/USBUART_1_episr.c ****     #if (!(CY_PSOC4 && USBUART_1_EP_MANAGEMENT_DMA_AUTO))
  84:Generated_Source\PSoC5/USBUART_1_episr.c ****         #if (defined(USBUART_1_ENABLE_MIDI_STREAMING) && \
  85:Generated_Source\PSoC5/USBUART_1_episr.c ****             !defined(USBUART_1_MAIN_SERVICE_MIDI_OUT) && USBUART_1_ISR_SERVICE_MIDI_OUT)
  86:Generated_Source\PSoC5/USBUART_1_episr.c ****             if (USBUART_1_midi_out_ep == USBUART_1_EP1)
  87:Generated_Source\PSoC5/USBUART_1_episr.c ****             {
  88:Generated_Source\PSoC5/USBUART_1_episr.c ****                 USBUART_1_MIDI_OUT_Service();
  89:Generated_Source\PSoC5/USBUART_1_episr.c ****             }
  90:Generated_Source\PSoC5/USBUART_1_episr.c ****         #endif /* (USBUART_1_ISR_SERVICE_MIDI_OUT) */
  91:Generated_Source\PSoC5/USBUART_1_episr.c ****     #endif /* (!(CY_PSOC4 && USBUART_1_EP_MANAGEMENT_DMA_AUTO)) */
  92:Generated_Source\PSoC5/USBUART_1_episr.c ****     
  93:Generated_Source\PSoC5/USBUART_1_episr.c ****         /* `#START EP1_END_USER_CODE` Place your code here */
  94:Generated_Source\PSoC5/USBUART_1_episr.c **** 
  95:Generated_Source\PSoC5/USBUART_1_episr.c ****         /* `#END` */
  96:Generated_Source\PSoC5/USBUART_1_episr.c **** 
  97:Generated_Source\PSoC5/USBUART_1_episr.c ****     #ifdef USBUART_1_EP_1_ISR_EXIT_CALLBACK
  98:Generated_Source\PSoC5/USBUART_1_episr.c ****         USBUART_1_EP_1_ISR_ExitCallback();
  99:Generated_Source\PSoC5/USBUART_1_episr.c ****     #endif /* (USBUART_1_EP_1_ISR_EXIT_CALLBACK) */
 100:Generated_Source\PSoC5/USBUART_1_episr.c **** 
 101:Generated_Source\PSoC5/USBUART_1_episr.c ****     #if (CY_PSOC3 && defined(USBUART_1_ENABLE_MIDI_STREAMING) && \
 102:Generated_Source\PSoC5/USBUART_1_episr.c ****         !defined(USBUART_1_MAIN_SERVICE_MIDI_OUT) && USBUART_1_ISR_SERVICE_MIDI_OUT)
 103:Generated_Source\PSoC5/USBUART_1_episr.c ****         
 104:Generated_Source\PSoC5/USBUART_1_episr.c ****             EA = intEn; /* Restore nested interrupt configuration. */
 105:Generated_Source\PSoC5/USBUART_1_episr.c ****         }
 106:Generated_Source\PSoC5/USBUART_1_episr.c ****     #endif /* (CY_PSOC3 && USBUART_1_ISR_SERVICE_MIDI_OUT) */
 107:Generated_Source\PSoC5/USBUART_1_episr.c ****     }
 108:Generated_Source\PSoC5/USBUART_1_episr.c **** 
 109:Generated_Source\PSoC5/USBUART_1_episr.c **** #endif /* (USBUART_1_EP1_ISR_ACTIVE) */
 110:Generated_Source\PSoC5/USBUART_1_episr.c **** 
 111:Generated_Source\PSoC5/USBUART_1_episr.c **** 
 112:Generated_Source\PSoC5/USBUART_1_episr.c **** #if (USBUART_1_EP2_ISR_ACTIVE)
 113:Generated_Source\PSoC5/USBUART_1_episr.c ****     /*******************************************************************************
 114:Generated_Source\PSoC5/USBUART_1_episr.c ****     * Function Name: USBUART_1_EP_2_ISR
 115:Generated_Source\PSoC5/USBUART_1_episr.c ****     ****************************************************************************//**
 116:Generated_Source\PSoC5/USBUART_1_episr.c ****     *
ARM GAS  C:\Users\Luggi\AppData\Local\Temp\ccPhjCUM.s 			page 28


 117:Generated_Source\PSoC5/USBUART_1_episr.c ****     *  Endpoint 2 Interrupt Service Routine.
 118:Generated_Source\PSoC5/USBUART_1_episr.c ****     *
 119:Generated_Source\PSoC5/USBUART_1_episr.c ****     *******************************************************************************/
 120:Generated_Source\PSoC5/USBUART_1_episr.c ****     CY_ISR(USBUART_1_EP_2_ISR)
 121:Generated_Source\PSoC5/USBUART_1_episr.c ****     {
 386              		.loc 1 121 0
 387              		.cfi_startproc
 388              		@ args = 0, pretend = 0, frame = 0
 389              		@ frame_needed = 0, uses_anonymous_args = 0
 390              		@ link register save eliminated.
 122:Generated_Source\PSoC5/USBUART_1_episr.c ****     #ifdef USBUART_1_EP_2_ISR_ENTRY_CALLBACK
 123:Generated_Source\PSoC5/USBUART_1_episr.c ****         USBUART_1_EP_2_ISR_EntryCallback();
 124:Generated_Source\PSoC5/USBUART_1_episr.c ****     #endif /* (USBUART_1_EP_2_ISR_ENTRY_CALLBACK) */
 125:Generated_Source\PSoC5/USBUART_1_episr.c **** 
 126:Generated_Source\PSoC5/USBUART_1_episr.c ****         /* `#START EP2_USER_CODE` Place your code here */
 127:Generated_Source\PSoC5/USBUART_1_episr.c **** 
 128:Generated_Source\PSoC5/USBUART_1_episr.c ****         /* `#END` */
 129:Generated_Source\PSoC5/USBUART_1_episr.c **** 
 130:Generated_Source\PSoC5/USBUART_1_episr.c ****     #if (CY_PSOC3 && defined(USBUART_1_ENABLE_MIDI_STREAMING) && \
 131:Generated_Source\PSoC5/USBUART_1_episr.c ****         !defined(USBUART_1_MAIN_SERVICE_MIDI_OUT) && USBUART_1_ISR_SERVICE_MIDI_OUT)
 132:Generated_Source\PSoC5/USBUART_1_episr.c ****         {
 133:Generated_Source\PSoC5/USBUART_1_episr.c ****             uint8 intEn = EA;
 134:Generated_Source\PSoC5/USBUART_1_episr.c ****             CyGlobalIntEnable;  /* Enable nested interrupts. */
 135:Generated_Source\PSoC5/USBUART_1_episr.c ****     #endif /* (CY_PSOC3 && USBUART_1_ISR_SERVICE_MIDI_OUT) */
 136:Generated_Source\PSoC5/USBUART_1_episr.c **** 
 137:Generated_Source\PSoC5/USBUART_1_episr.c ****         USBUART_1_ClearSieEpInterruptSource(USBUART_1_SIE_INT_EP2_INTR);
 391              		.loc 1 137 0
 392 0000 0222     		movs	r2, #2
 393 0002 0A4B     		ldr	r3, .L7
 394 0004 1A70     		strb	r2, [r3]
 138:Generated_Source\PSoC5/USBUART_1_episr.c **** 
 139:Generated_Source\PSoC5/USBUART_1_episr.c ****         /* Notifies user that transfer IN or OUT transfer is completed.
 140:Generated_Source\PSoC5/USBUART_1_episr.c ****         * IN endpoint: endpoint buffer can be reloaded, Host is read data.
 141:Generated_Source\PSoC5/USBUART_1_episr.c ****         * OUT endpoint: data is ready to be read from endpoint buffer. 
 142:Generated_Source\PSoC5/USBUART_1_episr.c ****         */
 143:Generated_Source\PSoC5/USBUART_1_episr.c ****     #if (CY_PSOC4 && USBUART_1_EP_MANAGEMENT_DMA_AUTO)
 144:Generated_Source\PSoC5/USBUART_1_episr.c ****         if (0u != (USBUART_1_EP[USBUART_1_EP2].addr & USBUART_1_DIR_IN))
 145:Generated_Source\PSoC5/USBUART_1_episr.c ****     #endif /* (CY_PSOC4 && USBUART_1_EP_MANAGEMENT_DMA_AUTO) */
 146:Generated_Source\PSoC5/USBUART_1_episr.c ****         {            
 147:Generated_Source\PSoC5/USBUART_1_episr.c ****             /* Read CR0 register to clear SIE lock. */
 148:Generated_Source\PSoC5/USBUART_1_episr.c ****             (void) USBUART_1_SIE_EP_BASE.sieEp[USBUART_1_EP2].epCr0;
 395              		.loc 1 148 0
 396 0006 0F3B     		subs	r3, r3, #15
 397 0008 93F82230 		ldrb	r3, [r3, #34]	@ zero_extendqisi2
 149:Generated_Source\PSoC5/USBUART_1_episr.c ****             
 150:Generated_Source\PSoC5/USBUART_1_episr.c ****             /* Toggle all endpoint types except ISOC. */
 151:Generated_Source\PSoC5/USBUART_1_episr.c ****             if (USBUART_1_GET_EP_TYPE(USBUART_1_EP2) != USBUART_1_EP_TYPE_ISOC)
 398              		.loc 1 151 0
 399 000c 084B     		ldr	r3, .L7+4
 400 000e 1B7E     		ldrb	r3, [r3, #24]	@ zero_extendqisi2
 401 0010 03F00303 		and	r3, r3, #3
 402 0014 012B     		cmp	r3, #1
 403 0016 04D0     		beq	.L6
 152:Generated_Source\PSoC5/USBUART_1_episr.c ****             {
 153:Generated_Source\PSoC5/USBUART_1_episr.c ****                 USBUART_1_EP[USBUART_1_EP2].epToggle ^= USBUART_1_EPX_CNT_DATA_TOGGLE;
 404              		.loc 1 153 0
 405 0018 054A     		ldr	r2, .L7+4
ARM GAS  C:\Users\Luggi\AppData\Local\Temp\ccPhjCUM.s 			page 29


 406 001a D37E     		ldrb	r3, [r2, #27]	@ zero_extendqisi2
 407 001c 83F08003 		eor	r3, r3, #128
 408 0020 D376     		strb	r3, [r2, #27]
 409              	.L6:
 154:Generated_Source\PSoC5/USBUART_1_episr.c ****             }
 155:Generated_Source\PSoC5/USBUART_1_episr.c **** 
 156:Generated_Source\PSoC5/USBUART_1_episr.c ****             /* EP_MANAGEMENT_DMA_AUTO (Ticket ID# 214187): For OUT endpoint this event is used to n
 157:Generated_Source\PSoC5/USBUART_1_episr.c ****             * user that DMA has completed copying data from OUT endpoint which is not completely tr
 158:Generated_Source\PSoC5/USBUART_1_episr.c ****             * Because last chunk of data is being copied.
 159:Generated_Source\PSoC5/USBUART_1_episr.c ****             * For CY_PSOC 3/5LP: it is acceptable as DMA is really fast.
 160:Generated_Source\PSoC5/USBUART_1_episr.c ****             * For CY_PSOC4: this event is set in Arbiter interrupt (source is DMA_TERMIN).
 161:Generated_Source\PSoC5/USBUART_1_episr.c ****             */
 162:Generated_Source\PSoC5/USBUART_1_episr.c ****             USBUART_1_EP[USBUART_1_EP2].apiEpState = USBUART_1_EVENT_PENDING;
 410              		.loc 1 162 0
 411 0022 0122     		movs	r2, #1
 412 0024 024B     		ldr	r3, .L7+4
 413 0026 5A76     		strb	r2, [r3, #25]
 414 0028 7047     		bx	lr
 415              	.L8:
 416 002a 00BF     		.align	2
 417              	.L7:
 418 002c 0B600040 		.word	1073766411
 419 0030 00000000 		.word	USBUART_1_EP
 420              		.cfi_endproc
 421              	.LFE1:
 422              		.size	USBUART_1_EP_2_ISR, .-USBUART_1_EP_2_ISR
 423              		.section	.text.USBUART_1_EP_3_ISR,"ax",%progbits
 424              		.align	2
 425              		.global	USBUART_1_EP_3_ISR
 426              		.thumb
 427              		.thumb_func
 428              		.type	USBUART_1_EP_3_ISR, %function
 429              	USBUART_1_EP_3_ISR:
 430              	.LFB2:
 163:Generated_Source\PSoC5/USBUART_1_episr.c ****         }
 164:Generated_Source\PSoC5/USBUART_1_episr.c **** 
 165:Generated_Source\PSoC5/USBUART_1_episr.c ****     #if (!(CY_PSOC4 && USBUART_1_EP_MANAGEMENT_DMA_AUTO))
 166:Generated_Source\PSoC5/USBUART_1_episr.c ****         #if (defined(USBUART_1_ENABLE_MIDI_STREAMING) && \
 167:Generated_Source\PSoC5/USBUART_1_episr.c ****             !defined(USBUART_1_MAIN_SERVICE_MIDI_OUT) && USBUART_1_ISR_SERVICE_MIDI_OUT)
 168:Generated_Source\PSoC5/USBUART_1_episr.c ****             if (USBUART_1_midi_out_ep == USBUART_1_EP2)
 169:Generated_Source\PSoC5/USBUART_1_episr.c ****             {
 170:Generated_Source\PSoC5/USBUART_1_episr.c ****                 USBUART_1_MIDI_OUT_Service();
 171:Generated_Source\PSoC5/USBUART_1_episr.c ****             }
 172:Generated_Source\PSoC5/USBUART_1_episr.c ****         #endif /* (USBUART_1_ISR_SERVICE_MIDI_OUT) */
 173:Generated_Source\PSoC5/USBUART_1_episr.c ****     #endif /* (!(CY_PSOC4 && USBUART_1_EP_MANAGEMENT_DMA_AUTO)) */        
 174:Generated_Source\PSoC5/USBUART_1_episr.c ****     
 175:Generated_Source\PSoC5/USBUART_1_episr.c ****         /* `#START EP2_END_USER_CODE` Place your code here */
 176:Generated_Source\PSoC5/USBUART_1_episr.c **** 
 177:Generated_Source\PSoC5/USBUART_1_episr.c ****         /* `#END` */
 178:Generated_Source\PSoC5/USBUART_1_episr.c **** 
 179:Generated_Source\PSoC5/USBUART_1_episr.c ****     #ifdef USBUART_1_EP_2_ISR_EXIT_CALLBACK
 180:Generated_Source\PSoC5/USBUART_1_episr.c ****         USBUART_1_EP_2_ISR_ExitCallback();
 181:Generated_Source\PSoC5/USBUART_1_episr.c ****     #endif /* (USBUART_1_EP_2_ISR_EXIT_CALLBACK) */
 182:Generated_Source\PSoC5/USBUART_1_episr.c **** 
 183:Generated_Source\PSoC5/USBUART_1_episr.c ****     #if (CY_PSOC3 && defined(USBUART_1_ENABLE_MIDI_STREAMING) && \
 184:Generated_Source\PSoC5/USBUART_1_episr.c ****         !defined(USBUART_1_MAIN_SERVICE_MIDI_OUT) && USBUART_1_ISR_SERVICE_MIDI_OUT)
 185:Generated_Source\PSoC5/USBUART_1_episr.c ****         
ARM GAS  C:\Users\Luggi\AppData\Local\Temp\ccPhjCUM.s 			page 30


 186:Generated_Source\PSoC5/USBUART_1_episr.c ****             EA = intEn; /* Restore nested interrupt configuration. */
 187:Generated_Source\PSoC5/USBUART_1_episr.c ****         }
 188:Generated_Source\PSoC5/USBUART_1_episr.c ****     #endif /* (CY_PSOC3 && USBUART_1_ISR_SERVICE_MIDI_OUT) */
 189:Generated_Source\PSoC5/USBUART_1_episr.c ****     }
 190:Generated_Source\PSoC5/USBUART_1_episr.c **** #endif /* (USBUART_1_EP2_ISR_ACTIVE) */
 191:Generated_Source\PSoC5/USBUART_1_episr.c **** 
 192:Generated_Source\PSoC5/USBUART_1_episr.c **** 
 193:Generated_Source\PSoC5/USBUART_1_episr.c **** #if (USBUART_1_EP3_ISR_ACTIVE)
 194:Generated_Source\PSoC5/USBUART_1_episr.c ****     /*******************************************************************************
 195:Generated_Source\PSoC5/USBUART_1_episr.c ****     * Function Name: USBUART_1_EP_3_ISR
 196:Generated_Source\PSoC5/USBUART_1_episr.c ****     ****************************************************************************//**
 197:Generated_Source\PSoC5/USBUART_1_episr.c ****     *
 198:Generated_Source\PSoC5/USBUART_1_episr.c ****     *  Endpoint 3 Interrupt Service Routine.
 199:Generated_Source\PSoC5/USBUART_1_episr.c ****     *
 200:Generated_Source\PSoC5/USBUART_1_episr.c ****     *******************************************************************************/
 201:Generated_Source\PSoC5/USBUART_1_episr.c ****     CY_ISR(USBUART_1_EP_3_ISR)
 202:Generated_Source\PSoC5/USBUART_1_episr.c ****     {
 431              		.loc 1 202 0
 432              		.cfi_startproc
 433              		@ args = 0, pretend = 0, frame = 0
 434              		@ frame_needed = 0, uses_anonymous_args = 0
 435              		@ link register save eliminated.
 203:Generated_Source\PSoC5/USBUART_1_episr.c ****     #ifdef USBUART_1_EP_3_ISR_ENTRY_CALLBACK
 204:Generated_Source\PSoC5/USBUART_1_episr.c ****         USBUART_1_EP_3_ISR_EntryCallback();
 205:Generated_Source\PSoC5/USBUART_1_episr.c ****     #endif /* (USBUART_1_EP_3_ISR_ENTRY_CALLBACK) */
 206:Generated_Source\PSoC5/USBUART_1_episr.c **** 
 207:Generated_Source\PSoC5/USBUART_1_episr.c ****         /* `#START EP3_USER_CODE` Place your code here */
 208:Generated_Source\PSoC5/USBUART_1_episr.c **** 
 209:Generated_Source\PSoC5/USBUART_1_episr.c ****         /* `#END` */
 210:Generated_Source\PSoC5/USBUART_1_episr.c **** 
 211:Generated_Source\PSoC5/USBUART_1_episr.c ****     #if (CY_PSOC3 && defined(USBUART_1_ENABLE_MIDI_STREAMING) && \
 212:Generated_Source\PSoC5/USBUART_1_episr.c ****         !defined(USBUART_1_MAIN_SERVICE_MIDI_OUT) && USBUART_1_ISR_SERVICE_MIDI_OUT)
 213:Generated_Source\PSoC5/USBUART_1_episr.c ****         {
 214:Generated_Source\PSoC5/USBUART_1_episr.c ****             uint8 intEn = EA;
 215:Generated_Source\PSoC5/USBUART_1_episr.c ****             CyGlobalIntEnable;  /* Enable nested interrupts. */
 216:Generated_Source\PSoC5/USBUART_1_episr.c ****     #endif /* (CY_PSOC3 && USBUART_1_ISR_SERVICE_MIDI_OUT) */
 217:Generated_Source\PSoC5/USBUART_1_episr.c **** 
 218:Generated_Source\PSoC5/USBUART_1_episr.c ****         USBUART_1_ClearSieEpInterruptSource(USBUART_1_SIE_INT_EP3_INTR);    
 436              		.loc 1 218 0
 437 0000 0422     		movs	r2, #4
 438 0002 0C4B     		ldr	r3, .L11
 439 0004 1A70     		strb	r2, [r3]
 219:Generated_Source\PSoC5/USBUART_1_episr.c **** 
 220:Generated_Source\PSoC5/USBUART_1_episr.c ****         /* Notifies user that transfer IN or OUT transfer is completed.
 221:Generated_Source\PSoC5/USBUART_1_episr.c ****         * IN endpoint: endpoint buffer can be reloaded, Host is read data.
 222:Generated_Source\PSoC5/USBUART_1_episr.c ****         * OUT endpoint: data is ready to be read from endpoint buffer. 
 223:Generated_Source\PSoC5/USBUART_1_episr.c ****         */
 224:Generated_Source\PSoC5/USBUART_1_episr.c ****     #if (CY_PSOC4 && USBUART_1_EP_MANAGEMENT_DMA_AUTO)
 225:Generated_Source\PSoC5/USBUART_1_episr.c ****         if (0u != (USBUART_1_EP[USBUART_1_EP3].addr & USBUART_1_DIR_IN))
 226:Generated_Source\PSoC5/USBUART_1_episr.c ****     #endif /* (USBUART_1_EP_MANAGEMENT_DMA_AUTO) */
 227:Generated_Source\PSoC5/USBUART_1_episr.c ****         {            
 228:Generated_Source\PSoC5/USBUART_1_episr.c ****             /* Read CR0 register to clear SIE lock. */
 229:Generated_Source\PSoC5/USBUART_1_episr.c ****             (void) USBUART_1_SIE_EP_BASE.sieEp[USBUART_1_EP3].epCr0;
 440              		.loc 1 229 0
 441 0006 0F3B     		subs	r3, r3, #15
 442 0008 93F83230 		ldrb	r3, [r3, #50]	@ zero_extendqisi2
 230:Generated_Source\PSoC5/USBUART_1_episr.c **** 
ARM GAS  C:\Users\Luggi\AppData\Local\Temp\ccPhjCUM.s 			page 31


 231:Generated_Source\PSoC5/USBUART_1_episr.c ****             /* Toggle all endpoint types except ISOC. */
 232:Generated_Source\PSoC5/USBUART_1_episr.c ****             if (USBUART_1_GET_EP_TYPE(USBUART_1_EP3) != USBUART_1_EP_TYPE_ISOC)
 443              		.loc 1 232 0
 444 000c 0A4B     		ldr	r3, .L11+4
 445 000e 93F82430 		ldrb	r3, [r3, #36]	@ zero_extendqisi2
 446 0012 03F00303 		and	r3, r3, #3
 447 0016 012B     		cmp	r3, #1
 448 0018 06D0     		beq	.L10
 233:Generated_Source\PSoC5/USBUART_1_episr.c ****             {
 234:Generated_Source\PSoC5/USBUART_1_episr.c ****                 USBUART_1_EP[USBUART_1_EP3].epToggle ^= USBUART_1_EPX_CNT_DATA_TOGGLE;
 449              		.loc 1 234 0
 450 001a 074A     		ldr	r2, .L11+4
 451 001c 92F82730 		ldrb	r3, [r2, #39]	@ zero_extendqisi2
 452 0020 83F08003 		eor	r3, r3, #128
 453 0024 82F82730 		strb	r3, [r2, #39]
 454              	.L10:
 235:Generated_Source\PSoC5/USBUART_1_episr.c ****             }
 236:Generated_Source\PSoC5/USBUART_1_episr.c **** 
 237:Generated_Source\PSoC5/USBUART_1_episr.c ****             /* EP_MANAGEMENT_DMA_AUTO (Ticket ID# 214187): For OUT endpoint this event is used to n
 238:Generated_Source\PSoC5/USBUART_1_episr.c ****             * user that DMA has completed copying data from OUT endpoint which is not completely tr
 239:Generated_Source\PSoC5/USBUART_1_episr.c ****             * Because last chunk of data is being copied.
 240:Generated_Source\PSoC5/USBUART_1_episr.c ****             * For CY_PSOC 3/5LP: it is acceptable as DMA is really fast.
 241:Generated_Source\PSoC5/USBUART_1_episr.c ****             * For CY_PSOC4: this event is set in Arbiter interrupt (source is DMA_TERMIN).
 242:Generated_Source\PSoC5/USBUART_1_episr.c ****             */
 243:Generated_Source\PSoC5/USBUART_1_episr.c ****             USBUART_1_EP[USBUART_1_EP3].apiEpState = USBUART_1_EVENT_PENDING;
 455              		.loc 1 243 0
 456 0028 0122     		movs	r2, #1
 457 002a 034B     		ldr	r3, .L11+4
 458 002c 83F82520 		strb	r2, [r3, #37]
 459 0030 7047     		bx	lr
 460              	.L12:
 461 0032 00BF     		.align	2
 462              	.L11:
 463 0034 0B600040 		.word	1073766411
 464 0038 00000000 		.word	USBUART_1_EP
 465              		.cfi_endproc
 466              	.LFE2:
 467              		.size	USBUART_1_EP_3_ISR, .-USBUART_1_EP_3_ISR
 468              		.section	.text.USBUART_1_SOF_ISR,"ax",%progbits
 469              		.align	2
 470              		.global	USBUART_1_SOF_ISR
 471              		.thumb
 472              		.thumb_func
 473              		.type	USBUART_1_SOF_ISR, %function
 474              	USBUART_1_SOF_ISR:
 475              	.LFB3:
 244:Generated_Source\PSoC5/USBUART_1_episr.c ****         }
 245:Generated_Source\PSoC5/USBUART_1_episr.c **** 
 246:Generated_Source\PSoC5/USBUART_1_episr.c ****     #if (!(CY_PSOC4 && USBUART_1_EP_MANAGEMENT_DMA_AUTO))
 247:Generated_Source\PSoC5/USBUART_1_episr.c ****         #if (defined(USBUART_1_ENABLE_MIDI_STREAMING) && \
 248:Generated_Source\PSoC5/USBUART_1_episr.c ****             !defined(USBUART_1_MAIN_SERVICE_MIDI_OUT) && USBUART_1_ISR_SERVICE_MIDI_OUT)
 249:Generated_Source\PSoC5/USBUART_1_episr.c ****             if (USBUART_1_midi_out_ep == USBUART_1_EP3)
 250:Generated_Source\PSoC5/USBUART_1_episr.c ****             {
 251:Generated_Source\PSoC5/USBUART_1_episr.c ****                 USBUART_1_MIDI_OUT_Service();
 252:Generated_Source\PSoC5/USBUART_1_episr.c ****             }
 253:Generated_Source\PSoC5/USBUART_1_episr.c ****         #endif /* (USBUART_1_ISR_SERVICE_MIDI_OUT) */
 254:Generated_Source\PSoC5/USBUART_1_episr.c ****     #endif /* (!(CY_PSOC4 && USBUART_1_EP_MANAGEMENT_DMA_AUTO)) */        
ARM GAS  C:\Users\Luggi\AppData\Local\Temp\ccPhjCUM.s 			page 32


 255:Generated_Source\PSoC5/USBUART_1_episr.c **** 
 256:Generated_Source\PSoC5/USBUART_1_episr.c ****         /* `#START EP3_END_USER_CODE` Place your code here */
 257:Generated_Source\PSoC5/USBUART_1_episr.c **** 
 258:Generated_Source\PSoC5/USBUART_1_episr.c ****         /* `#END` */
 259:Generated_Source\PSoC5/USBUART_1_episr.c **** 
 260:Generated_Source\PSoC5/USBUART_1_episr.c ****     #ifdef USBUART_1_EP_3_ISR_EXIT_CALLBACK
 261:Generated_Source\PSoC5/USBUART_1_episr.c ****         USBUART_1_EP_3_ISR_ExitCallback();
 262:Generated_Source\PSoC5/USBUART_1_episr.c ****     #endif /* (USBUART_1_EP_3_ISR_EXIT_CALLBACK) */
 263:Generated_Source\PSoC5/USBUART_1_episr.c **** 
 264:Generated_Source\PSoC5/USBUART_1_episr.c ****     #if (CY_PSOC3 && defined(USBUART_1_ENABLE_MIDI_STREAMING) && \
 265:Generated_Source\PSoC5/USBUART_1_episr.c ****         !defined(USBUART_1_MAIN_SERVICE_MIDI_OUT) && USBUART_1_ISR_SERVICE_MIDI_OUT)
 266:Generated_Source\PSoC5/USBUART_1_episr.c ****         
 267:Generated_Source\PSoC5/USBUART_1_episr.c ****             EA = intEn; /* Restore nested interrupt configuration. */
 268:Generated_Source\PSoC5/USBUART_1_episr.c ****         }
 269:Generated_Source\PSoC5/USBUART_1_episr.c ****     #endif /* (CY_PSOC3 && USBUART_1_ISR_SERVICE_MIDI_OUT) */
 270:Generated_Source\PSoC5/USBUART_1_episr.c ****     }
 271:Generated_Source\PSoC5/USBUART_1_episr.c **** #endif /* (USBUART_1_EP3_ISR_ACTIVE) */
 272:Generated_Source\PSoC5/USBUART_1_episr.c **** 
 273:Generated_Source\PSoC5/USBUART_1_episr.c **** 
 274:Generated_Source\PSoC5/USBUART_1_episr.c **** #if (USBUART_1_EP4_ISR_ACTIVE)
 275:Generated_Source\PSoC5/USBUART_1_episr.c ****     /*******************************************************************************
 276:Generated_Source\PSoC5/USBUART_1_episr.c ****     * Function Name: USBUART_1_EP_4_ISR
 277:Generated_Source\PSoC5/USBUART_1_episr.c ****     ****************************************************************************//**
 278:Generated_Source\PSoC5/USBUART_1_episr.c ****     *
 279:Generated_Source\PSoC5/USBUART_1_episr.c ****     *  Endpoint 4 Interrupt Service Routine.
 280:Generated_Source\PSoC5/USBUART_1_episr.c ****     *
 281:Generated_Source\PSoC5/USBUART_1_episr.c ****     *******************************************************************************/
 282:Generated_Source\PSoC5/USBUART_1_episr.c ****     CY_ISR(USBUART_1_EP_4_ISR)
 283:Generated_Source\PSoC5/USBUART_1_episr.c ****     {
 284:Generated_Source\PSoC5/USBUART_1_episr.c ****     #ifdef USBUART_1_EP_4_ISR_ENTRY_CALLBACK
 285:Generated_Source\PSoC5/USBUART_1_episr.c ****         USBUART_1_EP_4_ISR_EntryCallback();
 286:Generated_Source\PSoC5/USBUART_1_episr.c ****     #endif /* (USBUART_1_EP_4_ISR_ENTRY_CALLBACK) */
 287:Generated_Source\PSoC5/USBUART_1_episr.c **** 
 288:Generated_Source\PSoC5/USBUART_1_episr.c ****         /* `#START EP4_USER_CODE` Place your code here */
 289:Generated_Source\PSoC5/USBUART_1_episr.c **** 
 290:Generated_Source\PSoC5/USBUART_1_episr.c ****         /* `#END` */
 291:Generated_Source\PSoC5/USBUART_1_episr.c **** 
 292:Generated_Source\PSoC5/USBUART_1_episr.c ****     #if (CY_PSOC3 && defined(USBUART_1_ENABLE_MIDI_STREAMING) && \
 293:Generated_Source\PSoC5/USBUART_1_episr.c ****         !defined(USBUART_1_MAIN_SERVICE_MIDI_OUT) && USBUART_1_ISR_SERVICE_MIDI_OUT)
 294:Generated_Source\PSoC5/USBUART_1_episr.c ****         {
 295:Generated_Source\PSoC5/USBUART_1_episr.c ****             uint8 intEn = EA;
 296:Generated_Source\PSoC5/USBUART_1_episr.c ****             CyGlobalIntEnable;  /* Enable nested interrupts. */
 297:Generated_Source\PSoC5/USBUART_1_episr.c ****     #endif /* (CY_PSOC3 && USBUART_1_ISR_SERVICE_MIDI_OUT) */
 298:Generated_Source\PSoC5/USBUART_1_episr.c **** 
 299:Generated_Source\PSoC5/USBUART_1_episr.c ****         USBUART_1_ClearSieEpInterruptSource(USBUART_1_SIE_INT_EP4_INTR);
 300:Generated_Source\PSoC5/USBUART_1_episr.c ****         
 301:Generated_Source\PSoC5/USBUART_1_episr.c ****         /* Notifies user that transfer IN or OUT transfer is completed.
 302:Generated_Source\PSoC5/USBUART_1_episr.c ****         * IN endpoint: endpoint buffer can be reloaded, Host is read data.
 303:Generated_Source\PSoC5/USBUART_1_episr.c ****         * OUT endpoint: data is ready to read from endpoint buffer. 
 304:Generated_Source\PSoC5/USBUART_1_episr.c ****         */
 305:Generated_Source\PSoC5/USBUART_1_episr.c ****     #if (CY_PSOC4 && USBUART_1_EP_MANAGEMENT_DMA_AUTO)
 306:Generated_Source\PSoC5/USBUART_1_episr.c ****         if (0u != (USBUART_1_EP[USBUART_1_EP4].addr & USBUART_1_DIR_IN))
 307:Generated_Source\PSoC5/USBUART_1_episr.c ****     #endif /* (USBUART_1_EP_MANAGEMENT_DMA_AUTO) */
 308:Generated_Source\PSoC5/USBUART_1_episr.c ****         {
 309:Generated_Source\PSoC5/USBUART_1_episr.c ****             /* Read CR0 register to clear SIE lock. */
 310:Generated_Source\PSoC5/USBUART_1_episr.c ****             (void) USBUART_1_SIE_EP_BASE.sieEp[USBUART_1_EP4].epCr0;
 311:Generated_Source\PSoC5/USBUART_1_episr.c **** 
ARM GAS  C:\Users\Luggi\AppData\Local\Temp\ccPhjCUM.s 			page 33


 312:Generated_Source\PSoC5/USBUART_1_episr.c ****             /* Toggle all endpoint types except ISOC. */
 313:Generated_Source\PSoC5/USBUART_1_episr.c ****             if (USBUART_1_GET_EP_TYPE(USBUART_1_EP4) != USBUART_1_EP_TYPE_ISOC)
 314:Generated_Source\PSoC5/USBUART_1_episr.c ****             {
 315:Generated_Source\PSoC5/USBUART_1_episr.c ****                 USBUART_1_EP[USBUART_1_EP4].epToggle ^= USBUART_1_EPX_CNT_DATA_TOGGLE;
 316:Generated_Source\PSoC5/USBUART_1_episr.c ****             }
 317:Generated_Source\PSoC5/USBUART_1_episr.c **** 
 318:Generated_Source\PSoC5/USBUART_1_episr.c ****             /* EP_MANAGEMENT_DMA_AUTO (Ticket ID# 214187): For OUT endpoint this event is used to n
 319:Generated_Source\PSoC5/USBUART_1_episr.c ****             * user that DMA has completed copying data from OUT endpoint which is not completely tr
 320:Generated_Source\PSoC5/USBUART_1_episr.c ****             * Because last chunk of data is being copied.
 321:Generated_Source\PSoC5/USBUART_1_episr.c ****             * For CY_PSOC 3/5LP: it is acceptable as DMA is really fast.
 322:Generated_Source\PSoC5/USBUART_1_episr.c ****             * For CY_PSOC4: this event is set in Arbiter interrupt (source is DMA_TERMIN).
 323:Generated_Source\PSoC5/USBUART_1_episr.c ****             */
 324:Generated_Source\PSoC5/USBUART_1_episr.c ****             USBUART_1_EP[USBUART_1_EP4].apiEpState = USBUART_1_EVENT_PENDING;
 325:Generated_Source\PSoC5/USBUART_1_episr.c ****         }
 326:Generated_Source\PSoC5/USBUART_1_episr.c **** 
 327:Generated_Source\PSoC5/USBUART_1_episr.c ****     #if (!(CY_PSOC4 && USBUART_1_EP_MANAGEMENT_DMA_AUTO))
 328:Generated_Source\PSoC5/USBUART_1_episr.c ****         #if (defined(USBUART_1_ENABLE_MIDI_STREAMING) && \
 329:Generated_Source\PSoC5/USBUART_1_episr.c ****             !defined(USBUART_1_MAIN_SERVICE_MIDI_OUT) && USBUART_1_ISR_SERVICE_MIDI_OUT)
 330:Generated_Source\PSoC5/USBUART_1_episr.c ****             if(USBUART_1_midi_out_ep == USBUART_1_EP4)
 331:Generated_Source\PSoC5/USBUART_1_episr.c ****             {
 332:Generated_Source\PSoC5/USBUART_1_episr.c ****                 USBUART_1_MIDI_OUT_Service();
 333:Generated_Source\PSoC5/USBUART_1_episr.c ****             }
 334:Generated_Source\PSoC5/USBUART_1_episr.c ****         #endif /* (USBUART_1_ISR_SERVICE_MIDI_OUT) */
 335:Generated_Source\PSoC5/USBUART_1_episr.c ****     #endif /* (!(CY_PSOC4 && USBUART_1_EP_MANAGEMENT_DMA_AUTO)) */        
 336:Generated_Source\PSoC5/USBUART_1_episr.c **** 
 337:Generated_Source\PSoC5/USBUART_1_episr.c ****         /* `#START EP4_END_USER_CODE` Place your code here */
 338:Generated_Source\PSoC5/USBUART_1_episr.c **** 
 339:Generated_Source\PSoC5/USBUART_1_episr.c ****         /* `#END` */
 340:Generated_Source\PSoC5/USBUART_1_episr.c **** 
 341:Generated_Source\PSoC5/USBUART_1_episr.c ****     #ifdef USBUART_1_EP_4_ISR_EXIT_CALLBACK
 342:Generated_Source\PSoC5/USBUART_1_episr.c ****         USBUART_1_EP_4_ISR_ExitCallback();
 343:Generated_Source\PSoC5/USBUART_1_episr.c ****     #endif /* (USBUART_1_EP_4_ISR_EXIT_CALLBACK) */
 344:Generated_Source\PSoC5/USBUART_1_episr.c **** 
 345:Generated_Source\PSoC5/USBUART_1_episr.c ****     #if (CY_PSOC3 && defined(USBUART_1_ENABLE_MIDI_STREAMING) && \
 346:Generated_Source\PSoC5/USBUART_1_episr.c ****         !defined(USBUART_1_MAIN_SERVICE_MIDI_OUT) && USBUART_1_ISR_SERVICE_MIDI_OUT)
 347:Generated_Source\PSoC5/USBUART_1_episr.c ****         
 348:Generated_Source\PSoC5/USBUART_1_episr.c ****             EA = intEn; /* Restore nested interrupt configuration. */
 349:Generated_Source\PSoC5/USBUART_1_episr.c ****         }
 350:Generated_Source\PSoC5/USBUART_1_episr.c ****     #endif /* (CY_PSOC3 && USBUART_1_ISR_SERVICE_MIDI_OUT) */
 351:Generated_Source\PSoC5/USBUART_1_episr.c ****     }
 352:Generated_Source\PSoC5/USBUART_1_episr.c **** #endif /* (USBUART_1_EP4_ISR_ACTIVE) */
 353:Generated_Source\PSoC5/USBUART_1_episr.c **** 
 354:Generated_Source\PSoC5/USBUART_1_episr.c **** 
 355:Generated_Source\PSoC5/USBUART_1_episr.c **** #if (USBUART_1_EP5_ISR_ACTIVE)
 356:Generated_Source\PSoC5/USBUART_1_episr.c ****     /*******************************************************************************
 357:Generated_Source\PSoC5/USBUART_1_episr.c ****     * Function Name: USBUART_1_EP_5_ISR
 358:Generated_Source\PSoC5/USBUART_1_episr.c ****     ****************************************************************************//**
 359:Generated_Source\PSoC5/USBUART_1_episr.c ****     *
 360:Generated_Source\PSoC5/USBUART_1_episr.c ****     *  Endpoint 5 Interrupt Service Routine
 361:Generated_Source\PSoC5/USBUART_1_episr.c ****     *
 362:Generated_Source\PSoC5/USBUART_1_episr.c ****     *
 363:Generated_Source\PSoC5/USBUART_1_episr.c ****     *******************************************************************************/
 364:Generated_Source\PSoC5/USBUART_1_episr.c ****     CY_ISR(USBUART_1_EP_5_ISR)
 365:Generated_Source\PSoC5/USBUART_1_episr.c ****     {
 366:Generated_Source\PSoC5/USBUART_1_episr.c ****     #ifdef USBUART_1_EP_5_ISR_ENTRY_CALLBACK
 367:Generated_Source\PSoC5/USBUART_1_episr.c ****         USBUART_1_EP_5_ISR_EntryCallback();
 368:Generated_Source\PSoC5/USBUART_1_episr.c ****     #endif /* (USBUART_1_EP_5_ISR_ENTRY_CALLBACK) */
ARM GAS  C:\Users\Luggi\AppData\Local\Temp\ccPhjCUM.s 			page 34


 369:Generated_Source\PSoC5/USBUART_1_episr.c **** 
 370:Generated_Source\PSoC5/USBUART_1_episr.c ****         /* `#START EP5_USER_CODE` Place your code here */
 371:Generated_Source\PSoC5/USBUART_1_episr.c **** 
 372:Generated_Source\PSoC5/USBUART_1_episr.c ****         /* `#END` */
 373:Generated_Source\PSoC5/USBUART_1_episr.c **** 
 374:Generated_Source\PSoC5/USBUART_1_episr.c ****     #if (defined(USBUART_1_ENABLE_MIDI_STREAMING) && !defined(USBUART_1_MAIN_SERVICE_MIDI_OUT) && \
 375:Generated_Source\PSoC5/USBUART_1_episr.c ****                  USBUART_1_ISR_SERVICE_MIDI_OUT && CY_PSOC3)
 376:Generated_Source\PSoC5/USBUART_1_episr.c ****         {
 377:Generated_Source\PSoC5/USBUART_1_episr.c ****             uint8 intEn = EA;
 378:Generated_Source\PSoC5/USBUART_1_episr.c ****             CyGlobalIntEnable;  /* Enable nested interrupts. */
 379:Generated_Source\PSoC5/USBUART_1_episr.c ****     #endif /* (CY_PSOC3 && USBUART_1_ISR_SERVICE_MIDI_OUT) */
 380:Generated_Source\PSoC5/USBUART_1_episr.c **** 
 381:Generated_Source\PSoC5/USBUART_1_episr.c ****         USBUART_1_ClearSieEpInterruptSource(USBUART_1_SIE_INT_EP5_INTR);
 382:Generated_Source\PSoC5/USBUART_1_episr.c ****     
 383:Generated_Source\PSoC5/USBUART_1_episr.c ****         /* Notifies user that transfer IN or OUT transfer is completed.
 384:Generated_Source\PSoC5/USBUART_1_episr.c ****         * IN endpoint: endpoint buffer can be reloaded, Host is read data.
 385:Generated_Source\PSoC5/USBUART_1_episr.c ****         * OUT endpoint: data is ready to read from endpoint buffer. 
 386:Generated_Source\PSoC5/USBUART_1_episr.c ****         */
 387:Generated_Source\PSoC5/USBUART_1_episr.c ****     #if (CY_PSOC4 && USBUART_1_EP_MANAGEMENT_DMA_AUTO)
 388:Generated_Source\PSoC5/USBUART_1_episr.c ****         if (0u != (USBUART_1_EP[USBUART_1_EP5].addr & USBUART_1_DIR_IN))
 389:Generated_Source\PSoC5/USBUART_1_episr.c ****     #endif /* (USBUART_1_EP_MANAGEMENT_DMA_AUTO) */
 390:Generated_Source\PSoC5/USBUART_1_episr.c ****         {            
 391:Generated_Source\PSoC5/USBUART_1_episr.c ****             /* Read CR0 register to clear SIE lock. */
 392:Generated_Source\PSoC5/USBUART_1_episr.c ****             (void) USBUART_1_SIE_EP_BASE.sieEp[USBUART_1_EP5].epCr0;
 393:Generated_Source\PSoC5/USBUART_1_episr.c **** 
 394:Generated_Source\PSoC5/USBUART_1_episr.c ****             /* Toggle all endpoint types except ISOC. */
 395:Generated_Source\PSoC5/USBUART_1_episr.c ****             if (USBUART_1_GET_EP_TYPE(USBUART_1_EP5) != USBUART_1_EP_TYPE_ISOC)
 396:Generated_Source\PSoC5/USBUART_1_episr.c ****             {
 397:Generated_Source\PSoC5/USBUART_1_episr.c ****                 USBUART_1_EP[USBUART_1_EP5].epToggle ^= USBUART_1_EPX_CNT_DATA_TOGGLE;
 398:Generated_Source\PSoC5/USBUART_1_episr.c ****             }
 399:Generated_Source\PSoC5/USBUART_1_episr.c **** 
 400:Generated_Source\PSoC5/USBUART_1_episr.c ****             /* EP_MANAGEMENT_DMA_AUTO (Ticket ID# 214187): For OUT endpoint this event is used to n
 401:Generated_Source\PSoC5/USBUART_1_episr.c ****             * user that DMA has completed copying data from OUT endpoint which is not completely tr
 402:Generated_Source\PSoC5/USBUART_1_episr.c ****             * Because last chunk of data is being copied.
 403:Generated_Source\PSoC5/USBUART_1_episr.c ****             * For CY_PSOC 3/5LP: it is acceptable as DMA is really fast.
 404:Generated_Source\PSoC5/USBUART_1_episr.c ****             * For CY_PSOC4: this event is set in Arbiter interrupt (source is DMA_TERMIN).
 405:Generated_Source\PSoC5/USBUART_1_episr.c ****             */
 406:Generated_Source\PSoC5/USBUART_1_episr.c ****             USBUART_1_EP[USBUART_1_EP5].apiEpState = USBUART_1_EVENT_PENDING;
 407:Generated_Source\PSoC5/USBUART_1_episr.c ****         }
 408:Generated_Source\PSoC5/USBUART_1_episr.c **** 
 409:Generated_Source\PSoC5/USBUART_1_episr.c ****     #if (!(CY_PSOC4 && USBUART_1_EP_MANAGEMENT_DMA_AUTO))        
 410:Generated_Source\PSoC5/USBUART_1_episr.c ****         #if (defined(USBUART_1_ENABLE_MIDI_STREAMING) && \
 411:Generated_Source\PSoC5/USBUART_1_episr.c ****             !defined(USBUART_1_MAIN_SERVICE_MIDI_OUT) && USBUART_1_ISR_SERVICE_MIDI_OUT)
 412:Generated_Source\PSoC5/USBUART_1_episr.c ****             if (USBUART_1_midi_out_ep == USBUART_1_EP5)
 413:Generated_Source\PSoC5/USBUART_1_episr.c ****             {
 414:Generated_Source\PSoC5/USBUART_1_episr.c ****                 USBUART_1_MIDI_OUT_Service();
 415:Generated_Source\PSoC5/USBUART_1_episr.c ****             }
 416:Generated_Source\PSoC5/USBUART_1_episr.c ****         #endif /* (USBUART_1_ISR_SERVICE_MIDI_OUT) */
 417:Generated_Source\PSoC5/USBUART_1_episr.c ****     #endif /* (!(CY_PSOC4 && USBUART_1_EP_MANAGEMENT_DMA_AUTO)) */
 418:Generated_Source\PSoC5/USBUART_1_episr.c **** 
 419:Generated_Source\PSoC5/USBUART_1_episr.c ****         /* `#START EP5_END_USER_CODE` Place your code here */
 420:Generated_Source\PSoC5/USBUART_1_episr.c **** 
 421:Generated_Source\PSoC5/USBUART_1_episr.c ****         /* `#END` */
 422:Generated_Source\PSoC5/USBUART_1_episr.c **** 
 423:Generated_Source\PSoC5/USBUART_1_episr.c ****     #ifdef USBUART_1_EP_5_ISR_EXIT_CALLBACK
 424:Generated_Source\PSoC5/USBUART_1_episr.c ****         USBUART_1_EP_5_ISR_ExitCallback();
 425:Generated_Source\PSoC5/USBUART_1_episr.c ****     #endif /* (USBUART_1_EP_5_ISR_EXIT_CALLBACK) */
ARM GAS  C:\Users\Luggi\AppData\Local\Temp\ccPhjCUM.s 			page 35


 426:Generated_Source\PSoC5/USBUART_1_episr.c **** 
 427:Generated_Source\PSoC5/USBUART_1_episr.c ****     #if (CY_PSOC3 && defined(USBUART_1_ENABLE_MIDI_STREAMING) && \
 428:Generated_Source\PSoC5/USBUART_1_episr.c ****         !defined(USBUART_1_MAIN_SERVICE_MIDI_OUT) && USBUART_1_ISR_SERVICE_MIDI_OUT)
 429:Generated_Source\PSoC5/USBUART_1_episr.c ****         
 430:Generated_Source\PSoC5/USBUART_1_episr.c ****             EA = intEn; /* Restore nested interrupt configuration. */
 431:Generated_Source\PSoC5/USBUART_1_episr.c ****         }
 432:Generated_Source\PSoC5/USBUART_1_episr.c ****     #endif /* (CY_PSOC3 && USBUART_1_ISR_SERVICE_MIDI_OUT) */
 433:Generated_Source\PSoC5/USBUART_1_episr.c ****     }
 434:Generated_Source\PSoC5/USBUART_1_episr.c **** #endif /* (USBUART_1_EP5_ISR_ACTIVE) */
 435:Generated_Source\PSoC5/USBUART_1_episr.c **** 
 436:Generated_Source\PSoC5/USBUART_1_episr.c **** 
 437:Generated_Source\PSoC5/USBUART_1_episr.c **** #if (USBUART_1_EP6_ISR_ACTIVE)
 438:Generated_Source\PSoC5/USBUART_1_episr.c ****     /*******************************************************************************
 439:Generated_Source\PSoC5/USBUART_1_episr.c ****     * Function Name: USBUART_1_EP_6_ISR
 440:Generated_Source\PSoC5/USBUART_1_episr.c ****     ****************************************************************************//**
 441:Generated_Source\PSoC5/USBUART_1_episr.c ****     *
 442:Generated_Source\PSoC5/USBUART_1_episr.c ****     *  Endpoint 6 Interrupt Service Routine.
 443:Generated_Source\PSoC5/USBUART_1_episr.c ****     *
 444:Generated_Source\PSoC5/USBUART_1_episr.c ****     *
 445:Generated_Source\PSoC5/USBUART_1_episr.c ****     *******************************************************************************/
 446:Generated_Source\PSoC5/USBUART_1_episr.c ****     CY_ISR(USBUART_1_EP_6_ISR)
 447:Generated_Source\PSoC5/USBUART_1_episr.c ****     {
 448:Generated_Source\PSoC5/USBUART_1_episr.c ****     #ifdef USBUART_1_EP_6_ISR_ENTRY_CALLBACK
 449:Generated_Source\PSoC5/USBUART_1_episr.c ****         USBUART_1_EP_6_ISR_EntryCallback();
 450:Generated_Source\PSoC5/USBUART_1_episr.c ****     #endif /* (USBUART_1_EP_6_ISR_ENTRY_CALLBACK) */
 451:Generated_Source\PSoC5/USBUART_1_episr.c **** 
 452:Generated_Source\PSoC5/USBUART_1_episr.c ****         /* `#START EP6_USER_CODE` Place your code here */
 453:Generated_Source\PSoC5/USBUART_1_episr.c **** 
 454:Generated_Source\PSoC5/USBUART_1_episr.c ****         /* `#END` */
 455:Generated_Source\PSoC5/USBUART_1_episr.c **** 
 456:Generated_Source\PSoC5/USBUART_1_episr.c ****     #if (CY_PSOC3 && defined(USBUART_1_ENABLE_MIDI_STREAMING) && \
 457:Generated_Source\PSoC5/USBUART_1_episr.c ****         !defined(USBUART_1_MAIN_SERVICE_MIDI_OUT) && USBUART_1_ISR_SERVICE_MIDI_OUT)
 458:Generated_Source\PSoC5/USBUART_1_episr.c ****         {
 459:Generated_Source\PSoC5/USBUART_1_episr.c ****             uint8 intEn = EA;
 460:Generated_Source\PSoC5/USBUART_1_episr.c ****             CyGlobalIntEnable;  /* Enable nested interrupts. */
 461:Generated_Source\PSoC5/USBUART_1_episr.c ****     #endif /* (CY_PSOC3 && USBUART_1_ISR_SERVICE_MIDI_OUT) */
 462:Generated_Source\PSoC5/USBUART_1_episr.c **** 
 463:Generated_Source\PSoC5/USBUART_1_episr.c ****         USBUART_1_ClearSieEpInterruptSource(USBUART_1_SIE_INT_EP6_INTR);
 464:Generated_Source\PSoC5/USBUART_1_episr.c ****         
 465:Generated_Source\PSoC5/USBUART_1_episr.c ****         /* Notifies user that transfer IN or OUT transfer is completed.
 466:Generated_Source\PSoC5/USBUART_1_episr.c ****         * IN endpoint: endpoint buffer can be reloaded, Host is read data.
 467:Generated_Source\PSoC5/USBUART_1_episr.c ****         * OUT endpoint: data is ready to read from endpoint buffer. 
 468:Generated_Source\PSoC5/USBUART_1_episr.c ****         */
 469:Generated_Source\PSoC5/USBUART_1_episr.c ****     #if (CY_PSOC4 && USBUART_1_EP_MANAGEMENT_DMA_AUTO)
 470:Generated_Source\PSoC5/USBUART_1_episr.c ****         if (0u != (USBUART_1_EP[USBUART_1_EP6].addr & USBUART_1_DIR_IN))
 471:Generated_Source\PSoC5/USBUART_1_episr.c ****     #endif /* (USBUART_1_EP_MANAGEMENT_DMA_AUTO) */
 472:Generated_Source\PSoC5/USBUART_1_episr.c ****         {
 473:Generated_Source\PSoC5/USBUART_1_episr.c ****             /* Read CR0 register to clear SIE lock. */
 474:Generated_Source\PSoC5/USBUART_1_episr.c ****             (void) USBUART_1_SIE_EP_BASE.sieEp[USBUART_1_EP6].epCr0;
 475:Generated_Source\PSoC5/USBUART_1_episr.c **** 
 476:Generated_Source\PSoC5/USBUART_1_episr.c ****             /* Toggle all endpoint types except ISOC. */
 477:Generated_Source\PSoC5/USBUART_1_episr.c ****             if (USBUART_1_GET_EP_TYPE(USBUART_1_EP6) != USBUART_1_EP_TYPE_ISOC)
 478:Generated_Source\PSoC5/USBUART_1_episr.c ****             {
 479:Generated_Source\PSoC5/USBUART_1_episr.c ****                 USBUART_1_EP[USBUART_1_EP6].epToggle ^= USBUART_1_EPX_CNT_DATA_TOGGLE;
 480:Generated_Source\PSoC5/USBUART_1_episr.c ****             }
 481:Generated_Source\PSoC5/USBUART_1_episr.c ****             
 482:Generated_Source\PSoC5/USBUART_1_episr.c ****             /* EP_MANAGEMENT_DMA_AUTO (Ticket ID# 214187): For OUT endpoint this event is used to n
ARM GAS  C:\Users\Luggi\AppData\Local\Temp\ccPhjCUM.s 			page 36


 483:Generated_Source\PSoC5/USBUART_1_episr.c ****             * user that DMA has completed copying data from OUT endpoint which is not completely tr
 484:Generated_Source\PSoC5/USBUART_1_episr.c ****             * Because last chunk of data is being copied.
 485:Generated_Source\PSoC5/USBUART_1_episr.c ****             * For CY_PSOC 3/5LP: it is acceptable as DMA is really fast.
 486:Generated_Source\PSoC5/USBUART_1_episr.c ****             * For CY_PSOC4: this event is set in Arbiter interrupt (source is DMA_TERMIN).
 487:Generated_Source\PSoC5/USBUART_1_episr.c ****             */
 488:Generated_Source\PSoC5/USBUART_1_episr.c ****             USBUART_1_EP[USBUART_1_EP6].apiEpState = USBUART_1_EVENT_PENDING;
 489:Generated_Source\PSoC5/USBUART_1_episr.c ****         }
 490:Generated_Source\PSoC5/USBUART_1_episr.c **** 
 491:Generated_Source\PSoC5/USBUART_1_episr.c ****     #if (!(CY_PSOC4 && USBUART_1_EP_MANAGEMENT_DMA_AUTO))
 492:Generated_Source\PSoC5/USBUART_1_episr.c ****         #if (defined(USBUART_1_ENABLE_MIDI_STREAMING) && \
 493:Generated_Source\PSoC5/USBUART_1_episr.c ****             !defined(USBUART_1_MAIN_SERVICE_MIDI_OUT) && USBUART_1_ISR_SERVICE_MIDI_OUT)
 494:Generated_Source\PSoC5/USBUART_1_episr.c ****             if (USBUART_1_midi_out_ep == USBUART_1_EP6)
 495:Generated_Source\PSoC5/USBUART_1_episr.c ****             {
 496:Generated_Source\PSoC5/USBUART_1_episr.c ****                 USBUART_1_MIDI_OUT_Service();
 497:Generated_Source\PSoC5/USBUART_1_episr.c ****             }
 498:Generated_Source\PSoC5/USBUART_1_episr.c ****         #endif /* (USBUART_1_ISR_SERVICE_MIDI_OUT) */
 499:Generated_Source\PSoC5/USBUART_1_episr.c ****     #endif /* (!(CY_PSOC4 && USBUART_1_EP_MANAGEMENT_DMA_AUTO)) */
 500:Generated_Source\PSoC5/USBUART_1_episr.c **** 
 501:Generated_Source\PSoC5/USBUART_1_episr.c ****         /* `#START EP6_END_USER_CODE` Place your code here */
 502:Generated_Source\PSoC5/USBUART_1_episr.c **** 
 503:Generated_Source\PSoC5/USBUART_1_episr.c ****         /* `#END` */
 504:Generated_Source\PSoC5/USBUART_1_episr.c **** 
 505:Generated_Source\PSoC5/USBUART_1_episr.c ****     #ifdef USBUART_1_EP_6_ISR_EXIT_CALLBACK
 506:Generated_Source\PSoC5/USBUART_1_episr.c ****         USBUART_1_EP_6_ISR_ExitCallback();
 507:Generated_Source\PSoC5/USBUART_1_episr.c ****     #endif /* (USBUART_1_EP_6_ISR_EXIT_CALLBACK) */
 508:Generated_Source\PSoC5/USBUART_1_episr.c **** 
 509:Generated_Source\PSoC5/USBUART_1_episr.c ****     #if (CY_PSOC3 && defined(USBUART_1_ENABLE_MIDI_STREAMING) && \
 510:Generated_Source\PSoC5/USBUART_1_episr.c ****         !defined(USBUART_1_MAIN_SERVICE_MIDI_OUT) && USBUART_1_ISR_SERVICE_MIDI_OUT)
 511:Generated_Source\PSoC5/USBUART_1_episr.c ****         
 512:Generated_Source\PSoC5/USBUART_1_episr.c ****             EA = intEn; /* Restore nested interrupt configuration. */
 513:Generated_Source\PSoC5/USBUART_1_episr.c ****         }
 514:Generated_Source\PSoC5/USBUART_1_episr.c ****     #endif /* (CY_PSOC3 && USBUART_1_ISR_SERVICE_MIDI_OUT) */
 515:Generated_Source\PSoC5/USBUART_1_episr.c ****     }
 516:Generated_Source\PSoC5/USBUART_1_episr.c **** #endif /* (USBUART_1_EP6_ISR_ACTIVE) */
 517:Generated_Source\PSoC5/USBUART_1_episr.c **** 
 518:Generated_Source\PSoC5/USBUART_1_episr.c **** 
 519:Generated_Source\PSoC5/USBUART_1_episr.c **** #if (USBUART_1_EP7_ISR_ACTIVE)
 520:Generated_Source\PSoC5/USBUART_1_episr.c ****     /*******************************************************************************
 521:Generated_Source\PSoC5/USBUART_1_episr.c ****     * Function Name: USBUART_1_EP_7_ISR
 522:Generated_Source\PSoC5/USBUART_1_episr.c ****     ****************************************************************************//**
 523:Generated_Source\PSoC5/USBUART_1_episr.c ****     *
 524:Generated_Source\PSoC5/USBUART_1_episr.c ****     *  Endpoint 7 Interrupt Service Routine.
 525:Generated_Source\PSoC5/USBUART_1_episr.c ****     *
 526:Generated_Source\PSoC5/USBUART_1_episr.c ****     *
 527:Generated_Source\PSoC5/USBUART_1_episr.c ****     *******************************************************************************/
 528:Generated_Source\PSoC5/USBUART_1_episr.c ****     CY_ISR(USBUART_1_EP_7_ISR)
 529:Generated_Source\PSoC5/USBUART_1_episr.c ****     {
 530:Generated_Source\PSoC5/USBUART_1_episr.c ****     #ifdef USBUART_1_EP_7_ISR_ENTRY_CALLBACK
 531:Generated_Source\PSoC5/USBUART_1_episr.c ****         USBUART_1_EP_7_ISR_EntryCallback();
 532:Generated_Source\PSoC5/USBUART_1_episr.c ****     #endif /* (USBUART_1_EP_7_ISR_ENTRY_CALLBACK) */
 533:Generated_Source\PSoC5/USBUART_1_episr.c **** 
 534:Generated_Source\PSoC5/USBUART_1_episr.c ****         /* `#START EP7_USER_CODE` Place your code here */
 535:Generated_Source\PSoC5/USBUART_1_episr.c **** 
 536:Generated_Source\PSoC5/USBUART_1_episr.c ****         /* `#END` */
 537:Generated_Source\PSoC5/USBUART_1_episr.c **** 
 538:Generated_Source\PSoC5/USBUART_1_episr.c ****     #if (CY_PSOC3 && defined(USBUART_1_ENABLE_MIDI_STREAMING) && \
 539:Generated_Source\PSoC5/USBUART_1_episr.c ****         !defined(USBUART_1_MAIN_SERVICE_MIDI_OUT) && USBUART_1_ISR_SERVICE_MIDI_OUT)
ARM GAS  C:\Users\Luggi\AppData\Local\Temp\ccPhjCUM.s 			page 37


 540:Generated_Source\PSoC5/USBUART_1_episr.c ****         {
 541:Generated_Source\PSoC5/USBUART_1_episr.c ****             uint8 intEn = EA;
 542:Generated_Source\PSoC5/USBUART_1_episr.c ****             CyGlobalIntEnable;  /* Enable nested interrupts. */
 543:Generated_Source\PSoC5/USBUART_1_episr.c ****     #endif /* (CY_PSOC3 && USBUART_1_ISR_SERVICE_MIDI_OUT) */
 544:Generated_Source\PSoC5/USBUART_1_episr.c ****     
 545:Generated_Source\PSoC5/USBUART_1_episr.c ****         USBUART_1_ClearSieEpInterruptSource(USBUART_1_SIE_INT_EP7_INTR);
 546:Generated_Source\PSoC5/USBUART_1_episr.c ****         
 547:Generated_Source\PSoC5/USBUART_1_episr.c ****         /* Notifies user that transfer IN or OUT transfer is completed.
 548:Generated_Source\PSoC5/USBUART_1_episr.c ****         * IN endpoint: endpoint buffer can be reloaded, Host is read data.
 549:Generated_Source\PSoC5/USBUART_1_episr.c ****         * OUT endpoint: data is ready to read from endpoint buffer. 
 550:Generated_Source\PSoC5/USBUART_1_episr.c ****         */
 551:Generated_Source\PSoC5/USBUART_1_episr.c ****     #if (CY_PSOC4 && USBUART_1_EP_MANAGEMENT_DMA_AUTO)
 552:Generated_Source\PSoC5/USBUART_1_episr.c ****         if (0u != (USBUART_1_EP[USBUART_1_EP7].addr & USBUART_1_DIR_IN))
 553:Generated_Source\PSoC5/USBUART_1_episr.c ****     #endif /* (USBUART_1_EP_MANAGEMENT_DMA_AUTO) */
 554:Generated_Source\PSoC5/USBUART_1_episr.c ****         {           
 555:Generated_Source\PSoC5/USBUART_1_episr.c ****             /* Read CR0 register to clear SIE lock. */
 556:Generated_Source\PSoC5/USBUART_1_episr.c ****             (void) USBUART_1_SIE_EP_BASE.sieEp[USBUART_1_EP7].epCr0;
 557:Generated_Source\PSoC5/USBUART_1_episr.c **** 
 558:Generated_Source\PSoC5/USBUART_1_episr.c ****             /* Toggle all endpoint types except ISOC. */
 559:Generated_Source\PSoC5/USBUART_1_episr.c ****             if (USBUART_1_GET_EP_TYPE(USBUART_1_EP7) != USBUART_1_EP_TYPE_ISOC)
 560:Generated_Source\PSoC5/USBUART_1_episr.c ****             {
 561:Generated_Source\PSoC5/USBUART_1_episr.c ****                 USBUART_1_EP[USBUART_1_EP7].epToggle ^= USBUART_1_EPX_CNT_DATA_TOGGLE;
 562:Generated_Source\PSoC5/USBUART_1_episr.c ****             }
 563:Generated_Source\PSoC5/USBUART_1_episr.c ****             
 564:Generated_Source\PSoC5/USBUART_1_episr.c ****             /* EP_MANAGEMENT_DMA_AUTO (Ticket ID# 214187): For OUT endpoint this event is used to n
 565:Generated_Source\PSoC5/USBUART_1_episr.c ****             * user that DMA has completed copying data from OUT endpoint which is not completely tr
 566:Generated_Source\PSoC5/USBUART_1_episr.c ****             * Because last chunk of data is being copied.
 567:Generated_Source\PSoC5/USBUART_1_episr.c ****             * For CY_PSOC 3/5LP: it is acceptable as DMA is really fast.
 568:Generated_Source\PSoC5/USBUART_1_episr.c ****             * For CY_PSOC4: this event is set in Arbiter interrupt (source is DMA_TERMIN).
 569:Generated_Source\PSoC5/USBUART_1_episr.c ****             */
 570:Generated_Source\PSoC5/USBUART_1_episr.c ****             USBUART_1_EP[USBUART_1_EP7].apiEpState = USBUART_1_EVENT_PENDING;
 571:Generated_Source\PSoC5/USBUART_1_episr.c ****         }
 572:Generated_Source\PSoC5/USBUART_1_episr.c **** 
 573:Generated_Source\PSoC5/USBUART_1_episr.c **** 
 574:Generated_Source\PSoC5/USBUART_1_episr.c ****     #if (!(CY_PSOC4 && USBUART_1_EP_MANAGEMENT_DMA_AUTO))
 575:Generated_Source\PSoC5/USBUART_1_episr.c ****         #if (defined(USBUART_1_ENABLE_MIDI_STREAMING) && \
 576:Generated_Source\PSoC5/USBUART_1_episr.c ****             !defined(USBUART_1_MAIN_SERVICE_MIDI_OUT) && USBUART_1_ISR_SERVICE_MIDI_OUT)
 577:Generated_Source\PSoC5/USBUART_1_episr.c ****             if(USBUART_1_midi_out_ep == USBUART_1_EP7)
 578:Generated_Source\PSoC5/USBUART_1_episr.c ****             {
 579:Generated_Source\PSoC5/USBUART_1_episr.c ****                 USBUART_1_MIDI_OUT_Service();
 580:Generated_Source\PSoC5/USBUART_1_episr.c ****             }
 581:Generated_Source\PSoC5/USBUART_1_episr.c ****         #endif /* (USBUART_1_ISR_SERVICE_MIDI_OUT) */
 582:Generated_Source\PSoC5/USBUART_1_episr.c ****     #endif /* (!(CY_PSOC4 && USBUART_1_EP_MANAGEMENT_DMA_AUTO)) */
 583:Generated_Source\PSoC5/USBUART_1_episr.c **** 
 584:Generated_Source\PSoC5/USBUART_1_episr.c ****         /* `#START EP7_END_USER_CODE` Place your code here */
 585:Generated_Source\PSoC5/USBUART_1_episr.c **** 
 586:Generated_Source\PSoC5/USBUART_1_episr.c ****         /* `#END` */
 587:Generated_Source\PSoC5/USBUART_1_episr.c **** 
 588:Generated_Source\PSoC5/USBUART_1_episr.c ****     #ifdef USBUART_1_EP_7_ISR_EXIT_CALLBACK
 589:Generated_Source\PSoC5/USBUART_1_episr.c ****         USBUART_1_EP_7_ISR_ExitCallback();
 590:Generated_Source\PSoC5/USBUART_1_episr.c ****     #endif /* (USBUART_1_EP_7_ISR_EXIT_CALLBACK) */
 591:Generated_Source\PSoC5/USBUART_1_episr.c **** 
 592:Generated_Source\PSoC5/USBUART_1_episr.c ****     #if (CY_PSOC3 && defined(USBUART_1_ENABLE_MIDI_STREAMING) && \
 593:Generated_Source\PSoC5/USBUART_1_episr.c ****         !defined(USBUART_1_MAIN_SERVICE_MIDI_OUT) && USBUART_1_ISR_SERVICE_MIDI_OUT)
 594:Generated_Source\PSoC5/USBUART_1_episr.c ****         
 595:Generated_Source\PSoC5/USBUART_1_episr.c ****             EA = intEn; /* Restore nested interrupt configuration. */
 596:Generated_Source\PSoC5/USBUART_1_episr.c ****         }
ARM GAS  C:\Users\Luggi\AppData\Local\Temp\ccPhjCUM.s 			page 38


 597:Generated_Source\PSoC5/USBUART_1_episr.c ****     #endif /* (CY_PSOC3 && USBUART_1_ISR_SERVICE_MIDI_OUT) */
 598:Generated_Source\PSoC5/USBUART_1_episr.c ****     }
 599:Generated_Source\PSoC5/USBUART_1_episr.c **** #endif /* (USBUART_1_EP7_ISR_ACTIVE) */
 600:Generated_Source\PSoC5/USBUART_1_episr.c **** 
 601:Generated_Source\PSoC5/USBUART_1_episr.c **** 
 602:Generated_Source\PSoC5/USBUART_1_episr.c **** #if (USBUART_1_EP8_ISR_ACTIVE)
 603:Generated_Source\PSoC5/USBUART_1_episr.c ****     /*******************************************************************************
 604:Generated_Source\PSoC5/USBUART_1_episr.c ****     * Function Name: USBUART_1_EP_8_ISR
 605:Generated_Source\PSoC5/USBUART_1_episr.c ****     ****************************************************************************//**
 606:Generated_Source\PSoC5/USBUART_1_episr.c ****     *
 607:Generated_Source\PSoC5/USBUART_1_episr.c ****     *  Endpoint 8 Interrupt Service Routine
 608:Generated_Source\PSoC5/USBUART_1_episr.c ****     *
 609:Generated_Source\PSoC5/USBUART_1_episr.c ****     *
 610:Generated_Source\PSoC5/USBUART_1_episr.c ****     *******************************************************************************/
 611:Generated_Source\PSoC5/USBUART_1_episr.c ****     CY_ISR(USBUART_1_EP_8_ISR)
 612:Generated_Source\PSoC5/USBUART_1_episr.c ****     {
 613:Generated_Source\PSoC5/USBUART_1_episr.c ****     #ifdef USBUART_1_EP_8_ISR_ENTRY_CALLBACK
 614:Generated_Source\PSoC5/USBUART_1_episr.c ****         USBUART_1_EP_8_ISR_EntryCallback();
 615:Generated_Source\PSoC5/USBUART_1_episr.c ****     #endif /* (USBUART_1_EP_8_ISR_ENTRY_CALLBACK) */
 616:Generated_Source\PSoC5/USBUART_1_episr.c **** 
 617:Generated_Source\PSoC5/USBUART_1_episr.c ****         /* `#START EP8_USER_CODE` Place your code here */
 618:Generated_Source\PSoC5/USBUART_1_episr.c **** 
 619:Generated_Source\PSoC5/USBUART_1_episr.c ****         /* `#END` */
 620:Generated_Source\PSoC5/USBUART_1_episr.c **** 
 621:Generated_Source\PSoC5/USBUART_1_episr.c ****     #if (CY_PSOC3 && defined(USBUART_1_ENABLE_MIDI_STREAMING) && \
 622:Generated_Source\PSoC5/USBUART_1_episr.c ****         !defined(USBUART_1_MAIN_SERVICE_MIDI_OUT) && USBUART_1_ISR_SERVICE_MIDI_OUT)
 623:Generated_Source\PSoC5/USBUART_1_episr.c ****         {
 624:Generated_Source\PSoC5/USBUART_1_episr.c ****             uint8 intEn = EA;
 625:Generated_Source\PSoC5/USBUART_1_episr.c ****             CyGlobalIntEnable;  /* Enable nested interrupts. */
 626:Generated_Source\PSoC5/USBUART_1_episr.c ****     #endif /* (CY_PSOC3 && USBUART_1_ISR_SERVICE_MIDI_OUT) */
 627:Generated_Source\PSoC5/USBUART_1_episr.c **** 
 628:Generated_Source\PSoC5/USBUART_1_episr.c ****         USBUART_1_ClearSieEpInterruptSource(USBUART_1_SIE_INT_EP8_INTR);
 629:Generated_Source\PSoC5/USBUART_1_episr.c ****         
 630:Generated_Source\PSoC5/USBUART_1_episr.c ****         /* Notifies user that transfer IN or OUT transfer is completed.
 631:Generated_Source\PSoC5/USBUART_1_episr.c ****         * IN endpoint: endpoint buffer can be reloaded, Host is read data.
 632:Generated_Source\PSoC5/USBUART_1_episr.c ****         * OUT endpoint: data is ready to read from endpoint buffer. 
 633:Generated_Source\PSoC5/USBUART_1_episr.c ****         */
 634:Generated_Source\PSoC5/USBUART_1_episr.c ****     #if (CY_PSOC4 && USBUART_1_EP_MANAGEMENT_DMA_AUTO)
 635:Generated_Source\PSoC5/USBUART_1_episr.c ****         if (0u != (USBUART_1_EP[USBUART_1_EP8].addr & USBUART_1_DIR_IN))
 636:Generated_Source\PSoC5/USBUART_1_episr.c ****     #endif /* (USBUART_1_EP_MANAGEMENT_DMA_AUTO) */
 637:Generated_Source\PSoC5/USBUART_1_episr.c ****         {
 638:Generated_Source\PSoC5/USBUART_1_episr.c ****             /* Read CR0 register to clear SIE lock. */
 639:Generated_Source\PSoC5/USBUART_1_episr.c ****             (void) USBUART_1_SIE_EP_BASE.sieEp[USBUART_1_EP8].epCr0;
 640:Generated_Source\PSoC5/USBUART_1_episr.c **** 
 641:Generated_Source\PSoC5/USBUART_1_episr.c ****             /* Toggle all endpoint types except ISOC. */
 642:Generated_Source\PSoC5/USBUART_1_episr.c ****             if (USBUART_1_GET_EP_TYPE(USBUART_1_EP8) != USBUART_1_EP_TYPE_ISOC)
 643:Generated_Source\PSoC5/USBUART_1_episr.c ****             {
 644:Generated_Source\PSoC5/USBUART_1_episr.c ****                 USBUART_1_EP[USBUART_1_EP8].epToggle ^= USBUART_1_EPX_CNT_DATA_TOGGLE;
 645:Generated_Source\PSoC5/USBUART_1_episr.c ****             }
 646:Generated_Source\PSoC5/USBUART_1_episr.c **** 
 647:Generated_Source\PSoC5/USBUART_1_episr.c ****             /* EP_MANAGEMENT_DMA_AUTO (Ticket ID# 214187): For OUT endpoint this event is used to n
 648:Generated_Source\PSoC5/USBUART_1_episr.c ****             * user that DMA has completed copying data from OUT endpoint which is not completely tr
 649:Generated_Source\PSoC5/USBUART_1_episr.c ****             * Because last chunk of data is being copied.
 650:Generated_Source\PSoC5/USBUART_1_episr.c ****             * For CY_PSOC 3/5LP: it is acceptable as DMA is really fast.
 651:Generated_Source\PSoC5/USBUART_1_episr.c ****             * For CY_PSOC4: this event is set in Arbiter interrupt (source is DMA_TERMIN).
 652:Generated_Source\PSoC5/USBUART_1_episr.c ****             */
 653:Generated_Source\PSoC5/USBUART_1_episr.c ****             USBUART_1_EP[USBUART_1_EP8].apiEpState = USBUART_1_EVENT_PENDING;
ARM GAS  C:\Users\Luggi\AppData\Local\Temp\ccPhjCUM.s 			page 39


 654:Generated_Source\PSoC5/USBUART_1_episr.c ****         }
 655:Generated_Source\PSoC5/USBUART_1_episr.c **** 
 656:Generated_Source\PSoC5/USBUART_1_episr.c ****     #if (!(CY_PSOC4 && USBUART_1_EP_MANAGEMENT_DMA_AUTO))
 657:Generated_Source\PSoC5/USBUART_1_episr.c ****         #if (defined(USBUART_1_ENABLE_MIDI_STREAMING) && \
 658:Generated_Source\PSoC5/USBUART_1_episr.c ****             !defined(USBUART_1_MAIN_SERVICE_MIDI_OUT) && USBUART_1_ISR_SERVICE_MIDI_OUT)
 659:Generated_Source\PSoC5/USBUART_1_episr.c ****             if (USBUART_1_midi_out_ep == USBUART_1_EP8)
 660:Generated_Source\PSoC5/USBUART_1_episr.c ****             {
 661:Generated_Source\PSoC5/USBUART_1_episr.c ****                 USBUART_1_MIDI_OUT_Service();
 662:Generated_Source\PSoC5/USBUART_1_episr.c ****             }
 663:Generated_Source\PSoC5/USBUART_1_episr.c ****         #endif /* (USBUART_1_ISR_SERVICE_MIDI_OUT) */
 664:Generated_Source\PSoC5/USBUART_1_episr.c ****     #endif /* (!(CY_PSOC4 && USBUART_1_EP_MANAGEMENT_DMA_AUTO)) */
 665:Generated_Source\PSoC5/USBUART_1_episr.c **** 
 666:Generated_Source\PSoC5/USBUART_1_episr.c ****         /* `#START EP8_END_USER_CODE` Place your code here */
 667:Generated_Source\PSoC5/USBUART_1_episr.c **** 
 668:Generated_Source\PSoC5/USBUART_1_episr.c ****         /* `#END` */
 669:Generated_Source\PSoC5/USBUART_1_episr.c **** 
 670:Generated_Source\PSoC5/USBUART_1_episr.c ****     #ifdef USBUART_1_EP_8_ISR_EXIT_CALLBACK
 671:Generated_Source\PSoC5/USBUART_1_episr.c ****         USBUART_1_EP_8_ISR_ExitCallback();
 672:Generated_Source\PSoC5/USBUART_1_episr.c ****     #endif /* (USBUART_1_EP_8_ISR_EXIT_CALLBACK) */
 673:Generated_Source\PSoC5/USBUART_1_episr.c **** 
 674:Generated_Source\PSoC5/USBUART_1_episr.c ****     #if (CY_PSOC3 && defined(USBUART_1_ENABLE_MIDI_STREAMING) && \
 675:Generated_Source\PSoC5/USBUART_1_episr.c ****         !defined(USBUART_1_MAIN_SERVICE_MIDI_OUT) && USBUART_1_ISR_SERVICE_MIDI_OUT)
 676:Generated_Source\PSoC5/USBUART_1_episr.c ****         
 677:Generated_Source\PSoC5/USBUART_1_episr.c ****             EA = intEn; /* Restore nested interrupt configuration. */
 678:Generated_Source\PSoC5/USBUART_1_episr.c ****         }
 679:Generated_Source\PSoC5/USBUART_1_episr.c ****     #endif /* (CY_PSOC3 && USBUART_1_ISR_SERVICE_MIDI_OUT) */
 680:Generated_Source\PSoC5/USBUART_1_episr.c ****     }
 681:Generated_Source\PSoC5/USBUART_1_episr.c **** #endif /* (USBUART_1_EP8_ISR_ACTIVE) */
 682:Generated_Source\PSoC5/USBUART_1_episr.c **** 
 683:Generated_Source\PSoC5/USBUART_1_episr.c **** 
 684:Generated_Source\PSoC5/USBUART_1_episr.c **** #if (USBUART_1_SOF_ISR_ACTIVE)
 685:Generated_Source\PSoC5/USBUART_1_episr.c ****     /*******************************************************************************
 686:Generated_Source\PSoC5/USBUART_1_episr.c ****     * Function Name: USBUART_1_SOF_ISR
 687:Generated_Source\PSoC5/USBUART_1_episr.c ****     ****************************************************************************//**
 688:Generated_Source\PSoC5/USBUART_1_episr.c ****     *
 689:Generated_Source\PSoC5/USBUART_1_episr.c ****     *  Start of Frame Interrupt Service Routine.
 690:Generated_Source\PSoC5/USBUART_1_episr.c ****     *
 691:Generated_Source\PSoC5/USBUART_1_episr.c ****     *
 692:Generated_Source\PSoC5/USBUART_1_episr.c ****     *******************************************************************************/
 693:Generated_Source\PSoC5/USBUART_1_episr.c ****     CY_ISR(USBUART_1_SOF_ISR)
 694:Generated_Source\PSoC5/USBUART_1_episr.c ****     {
 476              		.loc 1 694 0
 477              		.cfi_startproc
 478              		@ args = 0, pretend = 0, frame = 0
 479              		@ frame_needed = 0, uses_anonymous_args = 0
 480              		@ link register save eliminated.
 481 0000 7047     		bx	lr
 482              		.cfi_endproc
 483              	.LFE3:
 484              		.size	USBUART_1_SOF_ISR, .-USBUART_1_SOF_ISR
 485 0002 00BF     		.section	.text.USBUART_1_BUS_RESET_ISR,"ax",%progbits
 486              		.align	2
 487              		.global	USBUART_1_BUS_RESET_ISR
 488              		.thumb
 489              		.thumb_func
 490              		.type	USBUART_1_BUS_RESET_ISR, %function
 491              	USBUART_1_BUS_RESET_ISR:
ARM GAS  C:\Users\Luggi\AppData\Local\Temp\ccPhjCUM.s 			page 40


 492              	.LFB4:
 695:Generated_Source\PSoC5/USBUART_1_episr.c ****     #ifdef USBUART_1_SOF_ISR_ENTRY_CALLBACK
 696:Generated_Source\PSoC5/USBUART_1_episr.c ****         USBUART_1_SOF_ISR_EntryCallback();
 697:Generated_Source\PSoC5/USBUART_1_episr.c ****     #endif /* (USBUART_1_SOF_ISR_ENTRY_CALLBACK) */
 698:Generated_Source\PSoC5/USBUART_1_episr.c **** 
 699:Generated_Source\PSoC5/USBUART_1_episr.c ****         /* `#START SOF_USER_CODE` Place your code here */
 700:Generated_Source\PSoC5/USBUART_1_episr.c **** 
 701:Generated_Source\PSoC5/USBUART_1_episr.c ****         /* `#END` */
 702:Generated_Source\PSoC5/USBUART_1_episr.c **** 
 703:Generated_Source\PSoC5/USBUART_1_episr.c ****         USBUART_1_ClearSieInterruptSource(USBUART_1_INTR_SIE_SOF_INTR);
 704:Generated_Source\PSoC5/USBUART_1_episr.c **** 
 705:Generated_Source\PSoC5/USBUART_1_episr.c ****     #ifdef USBUART_1_SOF_ISR_EXIT_CALLBACK
 706:Generated_Source\PSoC5/USBUART_1_episr.c ****         USBUART_1_SOF_ISR_ExitCallback();
 707:Generated_Source\PSoC5/USBUART_1_episr.c ****     #endif /* (USBUART_1_SOF_ISR_EXIT_CALLBACK) */
 708:Generated_Source\PSoC5/USBUART_1_episr.c ****     }
 709:Generated_Source\PSoC5/USBUART_1_episr.c **** #endif /* (USBUART_1_SOF_ISR_ACTIVE) */
 710:Generated_Source\PSoC5/USBUART_1_episr.c **** 
 711:Generated_Source\PSoC5/USBUART_1_episr.c **** 
 712:Generated_Source\PSoC5/USBUART_1_episr.c **** #if (USBUART_1_BUS_RESET_ISR_ACTIVE)
 713:Generated_Source\PSoC5/USBUART_1_episr.c **** /*******************************************************************************
 714:Generated_Source\PSoC5/USBUART_1_episr.c **** * Function Name: USBUART_1_BUS_RESET_ISR
 715:Generated_Source\PSoC5/USBUART_1_episr.c **** ****************************************************************************//**
 716:Generated_Source\PSoC5/USBUART_1_episr.c **** *
 717:Generated_Source\PSoC5/USBUART_1_episr.c **** *  USB Bus Reset Interrupt Service Routine.  Calls _Start with the same
 718:Generated_Source\PSoC5/USBUART_1_episr.c **** *  parameters as the last USER call to _Start
 719:Generated_Source\PSoC5/USBUART_1_episr.c **** *
 720:Generated_Source\PSoC5/USBUART_1_episr.c **** *
 721:Generated_Source\PSoC5/USBUART_1_episr.c **** *******************************************************************************/
 722:Generated_Source\PSoC5/USBUART_1_episr.c **** CY_ISR(USBUART_1_BUS_RESET_ISR)
 723:Generated_Source\PSoC5/USBUART_1_episr.c **** {
 493              		.loc 1 723 0
 494              		.cfi_startproc
 495              		@ args = 0, pretend = 0, frame = 0
 496              		@ frame_needed = 0, uses_anonymous_args = 0
 497              		.loc 1 723 0
 498 0000 08B5     		push	{r3, lr}
 499              		.cfi_def_cfa_offset 8
 500              		.cfi_offset 3, -8
 501              		.cfi_offset 14, -4
 724:Generated_Source\PSoC5/USBUART_1_episr.c **** #ifdef USBUART_1_BUS_RESET_ISR_ENTRY_CALLBACK
 725:Generated_Source\PSoC5/USBUART_1_episr.c ****     USBUART_1_BUS_RESET_ISR_EntryCallback();
 726:Generated_Source\PSoC5/USBUART_1_episr.c **** #endif /* (USBUART_1_BUS_RESET_ISR_ENTRY_CALLBACK) */
 727:Generated_Source\PSoC5/USBUART_1_episr.c **** 
 728:Generated_Source\PSoC5/USBUART_1_episr.c ****     /* `#START BUS_RESET_USER_CODE` Place your code here */
 729:Generated_Source\PSoC5/USBUART_1_episr.c **** 
 730:Generated_Source\PSoC5/USBUART_1_episr.c ****     /* `#END` */
 731:Generated_Source\PSoC5/USBUART_1_episr.c **** 
 732:Generated_Source\PSoC5/USBUART_1_episr.c ****     USBUART_1_ClearSieInterruptSource(USBUART_1_INTR_SIE_BUS_RESET_INTR);
 733:Generated_Source\PSoC5/USBUART_1_episr.c **** 
 734:Generated_Source\PSoC5/USBUART_1_episr.c ****     USBUART_1_ReInitComponent();
 502              		.loc 1 734 0
 503 0002 FFF7FEFF 		bl	USBUART_1_ReInitComponent
 504              	.LVL0:
 505 0006 08BD     		pop	{r3, pc}
 506              		.cfi_endproc
 507              	.LFE4:
 508              		.size	USBUART_1_BUS_RESET_ISR, .-USBUART_1_BUS_RESET_ISR
ARM GAS  C:\Users\Luggi\AppData\Local\Temp\ccPhjCUM.s 			page 41


 509              		.text
 510              	.Letext0:
 511              		.file 2 "Generated_Source\\PSoC5\\cytypes.h"
 512              		.file 3 "Generated_Source\\PSoC5\\USBUART_1.h"
 513              		.file 4 "Generated_Source\\PSoC5\\USBUART_1_pvt.h"