ARM GAS  C:\Users\Luggi\AppData\Local\Temp\ccMFx9MZ.s 			page 1


   1              		.syntax unified
   2              		.cpu cortex-m3
   3              		.fpu softvfp
   4              		.eabi_attribute 20, 1
   5              		.eabi_attribute 21, 1
   6              		.eabi_attribute 23, 3
   7              		.eabi_attribute 24, 1
   8              		.eabi_attribute 25, 1
   9              		.eabi_attribute 26, 1
  10              		.eabi_attribute 30, 1
  11              		.eabi_attribute 34, 1
  12              		.eabi_attribute 18, 4
  13              		.thumb
  14              		.file	"VDAC8_1.c"
  15              		.text
  16              	.Ltext0:
  17              		.section	.gnu.lto_.profile.53c7ca9b,"",%progbits
  18 0000 789C6366 		.ascii	"x\234cf```a\200\000F\206rK\000\001\233\000\271"
  18      60606061 
  18      80004686 
  18      724B0001 
  18      9B00B9
  19              		.text
  20              		.section	.gnu.lto_.inline.53c7ca9b,"",%progbits
  21 0000 789C6366 		.ascii	"x\234cf\300\016\316Bi\016\006\006N\016F\006&\236\007"
  21      C00ECE42 
  21      690E0606 
  21      4E0E4606 
  21      269E07
  22 0013 B10C6C0B 		.ascii	"\261\014l\013\344\231@b\214\230BL\014\\\234\214\214"
  22      E4994062 
  22      8C98424C 
  22      0C5C9C8C 
  22      8C
  23 0024 40190666 		.ascii	"@\031\006f\2700\323\005~\026\220\0343\003\0133P9\220"
  23      B830D305 
  23      7E16901C 
  23      33030B33 
  23      503990
  24 0037 0B57CE02 		.ascii	"\013W\316\002R\316\300\304\267!\027.\304\312\300-\214"
  24      52CEC0C4 
  24      B721172E 
  24      C4CAC02D 
  24      8C
  25 0048 CB04462E 		.ascii	"\313\004F. \301\306\300)\005\324\303\262@\036a+7\310"
  25      20C1C6C0 
  25      2905D4C3 
  25      B2401E61 
  25      2B37C8
  26 005b 3110929D 		.ascii	"1\020\222\235\201[\016\310\346\370e\202&\015\326\014"
  26      815B0EC8 
  26      E6F86582 
  26      260DD60C 
  27 006b 26180005 		.ascii	"&\030\000\005\002\023B"
  27      021342
  28              		.text
  29              		.section	.gnu.lto_.jmpfuncs.53c7ca9b,"",%progbits
ARM GAS  C:\Users\Luggi\AppData\Local\Temp\ccMFx9MZ.s 			page 2


  30 0000 789C6366 		.ascii	"x\234cf\300\016R\2414\007\0203200122\3263\203\010\026"
  30      C00E52A1 
  30      34071033 
  30      32303031 
  30      3232D633 
  31 0017 06065610 		.ascii	"\006\006V\020\315\300\006\224`\372\310\304x\377\311"
  31      CDC00694 
  31      60FAC8C4 
  31      78FFC9
  32 0026 F98B1C2F 		.ascii	"\371\213\034/\230~2\201T.g\224\202\210.\271x\377\"3"
  32      987E3281 
  32      542E6794 
  32      82882EB9 
  32      78FF2233 
  33 003a 58948581 		.ascii	"X\224\205\201q\005P\224\035\252|\376\277\226\015\214"
  33      71055094 
  33      1DAA7CFE 
  33      BF960D8C 
  34 004a 60891406 		.ascii	"`\211\024\006\306\225@\011 \000\000\377\336\026\300"
  34      C6954009 
  34      200000FF 
  34      DE16C0
  35              		.text
  36              		.section	.gnu.lto_.pureconst.53c7ca9b,"",%progbits
  37 0000 789C6366 		.ascii	"x\234cf``\020d\200\000\016\006)F)&)f)\026)V)6)v\011"
  37      60601064 
  37      80000E06 
  37      29462926 
  37      29662916 
  38 001b 0009CB01 		.ascii	"\000\011\313\001\007"
  38      07
  39              		.text
  40              		.section	.gnu.lto_VDAC8_1_Enable.53c7ca9b,"",%progbits
  41 0000 789C6366 		.ascii	"x\234cf\300\004R@\274\211\221\201A\031H32302M8\307\300"
  41      C0045240 
  41      BC899181 
  41      41194833 
  41      32333032 
  42 0018 D0C8C1C4 		.ascii	"\320\310\301\304\310\010b002\32431\3263\276d\372\310"
  42      C8086230 
  42      3032D433 
  42      31D633BE 
  42      64FAC8
  43 002b C438E1C0 		.ascii	"\3048\341\300\352\031\334\352K\033\032\032>4\355\224"
  43      EA19DCEA 
  43      4B1B1A1A 
  43      3E34ED94 
  44 003b 6895F8C9 		.ascii	"h\225\370\311\304\300\360\231\011b\014\343rFu\006\240"
  44      C4C0F099 
  44      09620CE3 
  44      72467506 
  44      A0
  45 004c 9A8F2D7F 		.ascii	"\232\217-\177\257s\263\265\000\325\010@\344\030W0\262"
  45      AF73B3B5 
  45      00D50840 
  45      E4185730 
  45      B2
ARM GAS  C:\Users\Luggi\AppData\Local\Temp\ccMFx9MZ.s 			page 3


  46 005d 018D6758 		.ascii	"\001\215gX/t\240\341\377\377\317O&\2360g\344`b\370\311"
  46      2F74A0E1 
  46      FFFFCF4F 
  46      269E3067 
  46      E46062F8 
  47 0072 04B40C48 		.ascii	"\004\264\014H\260\202\0106\020\301\300\360\004\250\036"
  47      B0820836 
  47      10C1C0F0 
  47      04A81E
  48 0081 64E95326 		.ascii	"d\351S&&\020\315|\213\361\320\267\256ks\"@F|g\002\271"
  48      2610CD7C 
  48      8BF1D0B7 
  48      AE6B7322 
  48      40467C67 
  49 0097 60F2EDCD 		.ascii	"`\362\355\315\377\231_0\375dbZ\321\336\330\300\002\262"
  49      FF995F30 
  49      FD64625A 
  49      D1DED8C0 
  49      02B2
  50 00a9 F0FE93F3 		.ascii	"\360\376\223\363\0279\300B\014 \356\333\245\337\036"
  50      1739C042 
  50      0C20EEDB 
  50      A5DF1E
  51 00b8 F0CE659C 		.ascii	"\360\316e\234\335\330\302\370\223\211\231q%\243\024"
  51      DDD8C2F8 
  51      93899971 
  51      25A314
  52 00c7 E32A46A0 		.ascii	"\343*F\240\037\031W3\316ed\270\305\330\374\205\015b"
  52      1F195733 
  52      CE6564B8 
  52      C5D8FC85 
  52      0D62
  53 00d9 1C33C4C4 		.ascii	"\0343\304\304%S\247\255a\005ig\344``\\\003T\011\264"
  53      2553A7AD 
  53      61056967 
  53      E460605C 
  53      035409B4 
  54 00ed 74122348 		.ascii	"t\022#H\011>\303\326\002\015\003\032\301\000v\341\275"
  54      093EC3D6 
  54      020D031A 
  54      C10076E1 
  54      BD
  55 00fe 39451023 		.ascii	"9E\020#Y\201Z\246/z\360\234\035\354\234\0350\027v\354"
  55      59815AA6 
  55      2F7AF09C 
  55      1DEC9C1D 
  55      301776EC 
  56 0112 FC749919 		.ascii	"\374t\231\031a\312:\270)\353\321\234\0042\002\303\015"
  56      61CA3AB8 
  56      29EBD19C 
  56      043202C3 
  56      0D
  57 0123 38756F00 		.ascii	"8uo\000\273\201\215\341\036c\343\201\275\356 \325\240"
  57      BB818DE1 
  57      1E63E381 
  57      BDEE20D5 
  57      A0
ARM GAS  C:\Users\Luggi\AppData\Local\Temp\ccMFx9MZ.s 			page 4


  58 0134 7878020C 		.ascii	"xx\002\014H`\330\001\003C\321=5/\265(\261$5%>8\277\264"
  58      4860D801 
  58      0343D13D 
  58      352FB528 
  58      B1243525 
  59 014c 28393526 		.ascii	"(95& 8\337\3314&\314\305\321\331\"\336P/\231\001\000"
  59      2038DFD9 
  59      3426CCC5 
  59      D1D922DE 
  59      502F9901 
  60 0161 BBB5A0CE 		.ascii	"\273\265\240\316"
  61              		.text
  62              		.section	.gnu.lto_VDAC8_1_Stop.53c7ca9b,"",%progbits
  63 0000 789C7D91 		.ascii	"x\234}\221=HBQ\024\307\31797_\202\004\321$m\321\340"
  63      3D484251 
  63      14C7CF39 
  63      375F8204 
  63      D1246DD1 
  64 0015 16340441 		.ascii	"\0264\004AS\0304\264\004B4\010\022\366\326\004\251\331"
  64      531834B4 
  64      04423408 
  64      12F6D604 
  64      A9D9
  65 0027 F7CA289A 		.ascii	"\367\312(\232\304\206\202p\011$K\315\300\2456\211\346"
  65      C4868270 
  65      09244BCD 
  65      C0A53689 
  65      E6
  66 0038 221A0205 		.ascii	"\"\032\002\005s\260/(H\005\315!\354\234\367\250 \251"
  66      73B02F28 
  66      4805CD21 
  66      EC9CF7A8 
  66      20A9
  67 004a 0BF7DC8F 		.ascii	"\013\367\334\217\367?\277\363\277\347)\350\036\203<"
  67      F73FBFF3 
  67      BFE729E8 
  67      1E833C
  68 0059 F30830CC 		.ascii	"\363\0100\314+*@\212]\002\230NB\224\015 D\010#\370L"
  68      2B2A408A 
  68      5D02984E 
  68      42940D20 
  68      440823F8 
  69 006e 35C25821 		.ascii	"5\302X!\275\353\362$\015\303x[-\271\327\335m\002h\220"
  69      BDEBF224 
  69      0DC3785B 
  69      2DB9D7DD 
  69      6D026890 
  70 0082 8DC103F4 		.ascii	"\215\301\003\364\000kj\321\217[\227\026eM\277\375\015"
  70      006B6AD1 
  70      8F5B9716 
  70      654DBFFD 
  70      0D
  71 0093 53A8311E 		.ascii	"S\2501\036r\003\005\243\323i\274\304S\023\344$h\023"
  71      720305A3 
  71      D369BCC4 
  71      5313E424 
  71      6813
ARM GAS  C:\Users\Luggi\AppData\Local\Temp\ccMFx9MZ.s 			page 5


  72 00a5 17E3E090 		.ascii	"\027\343\340\220\240I\000\250\262^\212\336\023\311\252"
  72      A04900A8 
  72      B25E8ADE 
  72      13C9AA
  73 00b4 8A78DEDC 		.ascii	"\212x\336\334*g\347\005\321\"q\260]\312w\324\023\265"
  73      2A67E705 
  73      D12271B0 
  73      5DCA77D4 
  73      13B5
  74 00c6 89521BA6 		.ascii	"\211R\033\246\321#\005\357\252W\327N\353\012\344\370"
  74      D12305EF 
  74      AA57D74E 
  74      EB0AE4F8 
  75 00d6 9A6C56FA 		.ascii	"\232lV\372\022\270gF\261M\012\017q\020\217\220\337\210"
  75      12B86746 
  75      B14D0A0F 
  75      71108F90 
  75      DF88
  76 00e8 694C2014 		.ascii	"iL \024q\355]\263q\312&\346\352\231\013M\322U\013\001"
  76      71ED5DB3 
  76      71CA26E6 
  76      EA990B4D 
  76      D2550B01 
  77 00fc 332CE5AA 		.ascii	"3,\345\252q\024\315\177\264,\323\230\001\226\305\207"
  77      7114CD7F 
  77      B42CD398 
  77      0196C587 
  78 010c 6CD8663A 		.ascii	"l\330f:8eg\277\362\330k\3719\375\262\270yV\277Q?\224"
  78      386567BF 
  78      F2D86BF9 
  78      39FDB2B8 
  78      7956BF51 
  79 0122 E36F4AEE 		.ascii	"\343oJ\356\227'Aty\3703\373\304\362\240A\031\315BiF"
  79      97274174 
  79      79F833FB 
  79      C4F2A041 
  79      19CD4269 
  80 0137 D4F223AA 		.ascii	"\324\362#\252\334In\036wchZ_\322\303\013\313\372b\300"
  80      DC496E1E 
  80      7763685A 
  80      5FD2C30B 
  80      CBFA62C0 
  81 014b 175A0907 		.ascii	"\027Z\011\007u\377\254/\344\035\363\317MMz\307\003\243"
  81      75FFAC2F 
  81      E41DF3CF 
  81      4D4D7AC7 
  81      03A3
  82 015d 2341F804 		.ascii	"#A\370\004\355\026\242\304"
  82      ED16A2C4 
  83              		.text
  84              		.section	.gnu.lto_VDAC8_1_SetSpeed.53c7ca9b,"",%progbits
  85 0000 789C8D51 		.ascii	"x\234\215Q_(\203Q\024?\347\336m\276L\221'}o\312ZJ\312"
  85      5F288351 
  85      143FE7DE 
  85      6DBE4C91 
  85      277D6FCA 
  86 0017 83E28DA6 		.ascii	"\203\342\215\246\274I\224'\2654\337\253ix\366\315\246"
ARM GAS  C:\Users\Luggi\AppData\Local\Temp\ccMFx9MZ.s 			page 6


  86      BC499427 
  86      B534DFAB 
  86      6978F6CD 
  86      A6
  87 0028 50F2AFA4 		.ascii	"P\362\257\244\244\374I\376l\266\361\246\254}\341\021"
  87      A4FC49FE 
  87      6CB6F1A6 
  87      AC7DE111 
  88 0038 E389F680 		.ascii	"\343\211\366\2004\305\2130a\017\232s\366y\242\226[\367"
  88      34C58B30 
  88      610F9A73 
  88      F679A296 
  88      5BF7
  89 004a 9E734FBF 		.ascii	"\236sO\277?\347\236+\341\357Ri[\004@5E\224\200b\372"
  89      3FE79E2B 
  89      E1EF5269 
  89      5B044035 
  89      45948062 
  90 005f 0CC0AF08 		.ascii	"\014\300\257\010DN\000aX\3400>\212\027\201\323Fh\301"
  90      444E0061 
  90      58E0303E 
  90      8A1781D3 
  90      4668C1
  91 0072 EE5CD775 		.ascii	"\356\\\327u\375y5S1Z\221%ZF\2302\270\201N\202\004\214"
  91      FD793553 
  91      315A9125 
  91      5A469832 
  91      B8814E82 
  92 0088 BB8422AB 		.ascii	"\273\204\"\253\020(\237_\037\217\227:\326t}\304\210"
  92      10289F5F 
  92      1F8F973A 
  92      D6747DC4 
  92      88
  93 0099 47F426CC 		.ascii	"G\364&\314\222\346&Jb`\215\212\325*P\001p\013\035\014"
  93      92E6264A 
  93      62608D8A 
  93      D52A5001 
  93      700B1D0C 
  94 00ad 7E097E5D 		.ascii	"~\011~]\332mA\322.35q\033mH1Zn\350\271\\\346t\356\301"
  94      DA6D41D2 
  94      2E333571 
  94      1B6D4831 
  94      5A6EE8B9 
  95 00c6 298B0571 		.ascii	")\213\005q\204\344\303\312\207\015\231^\304\251\302"
  95      84E4C3CA 
  95      870D995E 
  95      C4A9C2
  96 00d5 07409A36 		.ascii	"\007@\2326\367}O\027\2122\205\207\357\023O\373\035\254"
  96      F77D4F17 
  96      8A328587 
  96      EF134FFB 
  96      1DAC
  97 00e7 F621F811 		.ascii	"\366!\370\021'Wc\267\245\017\"+d8\346\327-\354}\223"
  97      275763B7 
  97      A50F222B 
  97      6438E6D7 
  97      2DEC7D93 
ARM GAS  C:\Users\Luggi\AppData\Local\Temp\ccMFx9MZ.s 			page 7


  98 00fb 4E5E28F9 		.ascii	"N^(\371\022\360\365xe\346\034\227p\321\037\244\226-"
  98      12F0F578 
  98      65E61C97 
  98      70D11FA4 
  98      962D
  99 010d 184215C3 		.ascii	"\030B\025\303Hc\302\035\252B\012\003\2376SN\232\212"
  99      4863C21D 
  99      AA420A03 
  99      9F36534E 
  99      9A8A
 100 011f CB07D793 		.ascii	"\313\007\327\223%L\267|\321{\"\004%\327YdL!\265(UI\003"
 100      254CB77C 
 100      D17B2204 
 100      25D75964 
 100      4C21B528 
 101 0136 F22DBE36 		.ascii	"\362-\2766\232\222\326B\214\330/\377\242\017\301\016"
 101      9A92D642 
 101      8CD82FFF 
 101      A20FC10E 
 102 0146 C9DBA329 		.ascii	"\311\333\243)\323\237&\273\233\267\017\274\375@\024"
 102      D39F26BB 
 102      9BB70FBC 
 102      FD4014
 103 0155 9224E0FF 		.ascii	"\222$\340\377:\332\313w\244\3005\372\215D\033\243\371"
 103      3ADACB77 
 103      A4C035FA 
 103      8D441BA3 
 103      F9
 104 0166 67D3F44B 		.ascii	"g\323\364K4J\032le\253\326\247\371z\006\265^w\247w\310"
 104      344A1A6C 
 104      65ABD6A7 
 104      F97A06B5 
 104      5E77A777 
 105 017b E7D1BADB 		.ascii	"\347\321\272\333;\275\256\372\356\256\226fW\203\273"
 105      3BBDAEFA 
 105      EEAE9666 
 105      5783BB
 106 018a AED603D6 		.ascii	"\256\326\003\326\201~M\353\375\006\367G\271;"
 106      817E4DEB 
 106      FD06F747 
 106      B93B
 107              		.text
 108              		.section	.gnu.lto_VDAC8_1_SetValue.53c7ca9b,"",%progbits
 109 0000 789C6366 		.ascii	"x\234cf\300\004R@\314\305\310\300\240\011\244\031\231"
 109      C0045240 
 109      CCC5C8C0 
 109      A009A419 
 109      99
 110 0011 19189926 		.ascii	"\031\030\231&\234c`h\344`bd\0041\030\030\031\352\231"
 110      9C636068 
 110      E4606264 
 110      04311818 
 110      19EA99
 111 0024 18EB195F 		.ascii	"\030\353\031_2}db\234p`\365\014n\365\245\015\015\015"
 111      327D6462 
 111      9C7060F5 
 111      0C6EF5A5 
ARM GAS  C:\Users\Luggi\AppData\Local\Temp\ccMFx9MZ.s 			page 8


 111      0D0D0D
 112 0037 1F1EFD97 		.ascii	"\037\036\375\227h\225\370\311\304\300\360\231\011b\014"
 112      6895F8C9 
 112      C4C0F099 
 112      09620C
 113 0046 E3724675 		.ascii	"\343rFu\240\222\317\253\033\24603\25302\000\331\033"
 113      A092CFAB 
 113      1BA63033 
 113      AB303200 
 113      D91B
 114 0058 2E9EFDC7 		.ascii	".\236\375\307\256\272\270\241\241\351\300\336u\015\016"
 114      AEBAB8A1 
 114      A1E9C0DE 
 114      750D0E
 115 0067 8C3F8166 		.ascii	"\214?\201f\256`d\006\352`\324\221b\324\224b\000\012"
 115      AE606406 
 115      EA60D491 
 115      62D49462 
 115      000A
 116 0079 3030AE64 		.ascii	"00\256dT\005)\376\330\362\367:7[\013\320l\001\210\231"
 116      540529FE 
 116      D8F2F73A 
 116      375B0BD0 
 116      6C018899 
 117 008d 8CAB18D9 		.ascii	"\214\253\030\331\200\316bX/t\240\341\377\377\317\377"
 117      80CE6258 
 117      2F74A0E1 
 117      FFFFCFFF 
 118 009d 2777A8B3 		.ascii	"'w\250\263\260\000M\000\251gx\002T\001r\336S&&\020\315"
 118      B0004D00 
 118      A9677802 
 118      540172DE 
 118      53262610 
 119 00b2 7C8BF1D0 		.ascii	"|\213\361\320\264\215\307\226\260\2024\001\015\353}"
 119      B48DC796 
 119      B0823401 
 119      0DEB7D
 120 00c1 71EB31CF 		.ascii	"q\3531\317\013\246\237LL\315\333\033\033X@\346\337\177"
 120      0BA69F4C 
 120      4CCDDB1B 
 120      1B5840E6 
 120      DF7F
 121 00d3 72FE2207 		.ascii	"r\376\"\007X\210\001\304\335\273d}\027\337\\\306\331"
 121      588801C4 
 121      DDBB647D 
 121      17DF5CC6 
 121      D9
 122 00e4 8D2D8D07 		.ascii	"\215-\215\007X\177213\256f\224b\\\303\010\014\014\306"
 122      587F3231 
 122      33AE6694 
 122      625CC308 
 122      0C0CC6
 123 00f7 B58C7319 		.ascii	"\265\214s\031\277\003\225\335cl<\2603\010d\"\310\177"
 123      BF0395DD 
 123      636C3CB0 
 123      33086422 
 123      C87F
ARM GAS  C:\Users\Luggi\AppData\Local\Temp\ccMFx9MZ.s 			page 9


 124 0109 4F806E05 		.ascii	"O\200n\005\332\004\324\255\350\236\232\227Z\224X\222"
 124      DA04D4AD 
 124      E89E9A97 
 124      5A945892 
 125 0119 9A121F9C 		.ascii	"\232\022\037\234_Z\224\234\032\023\020\234\357l\032"
 125      5F5A949C 
 125      1A13109C 
 125      EF6C1A
 126 0128 13E6E2E8 		.ascii	"\023\346\342\350l\021o\250\227\314\300Z\226\230S\232"
 126      6C116FA8 
 126      97CCC05A 
 126      9698539A 
 127 0138 0A0096AE 		.ascii	"\012\000\226\256k\264"
 127      6BB4
 128              		.text
 129              		.section	.gnu.lto_VDAC8_1_DacTrim.53c7ca9b,"",%progbits
 130 0000 789C6552 		.ascii	"x\234eRMh\023A\024~of\263\331\354Z\025\361\240\271\210"
 130      4D681341 
 130      147E6F66 
 130      B3D9EC5A 
 130      15F1A0B9 
 131 0015 54A88208 		.ascii	"T\250\202\010\"\202W\251\340U\210x\220B\221v\217\032"
 131      228257A9 
 131      E0558878 
 131      90429176 
 131      8F1A
 132 0027 287AEE6C 		.ascii	"(z\356l\232\306\337C\033<\324\252H\016\245\332V[\255"
 132      9AC6DF43 
 132      1B3CD4AA 
 132      480EA5DA 
 132      565BAD
 133 003a 42A1084B 		.ascii	"B\241\010K\321\"\030\264\005i$H\014\222`\323\203\244"
 133      D12218B4 
 133      05692448 
 133      0C9260D3 
 133      83A4
 134 004c 445A17D4 		.ascii	"DZ\027\324\370\336N\024\305\205}\263\363\355\367}\357"
 134      F8DE4E14 
 134      C5857DB3 
 134      F3EDF77D 
 134      EF
 135 005d ED372BE1 		.ascii	"\3557+\341\377+N\367\204\000\330O+J@1\364\006\300\263"
 135      FF2B4EF7 
 135      8400D84F 
 135      2B4A4031 
 135      F406C0B3 
 136 0071 04223F00 		.ascii	"\004\"?\000B\277\300~\254\211u\201C\376\344\210\323"
 136      42BFC07E 
 136      AC897581 
 136      43FEE488 
 136      D3
 137 0082 31A694AA 		.ascii	"1\246\224\252go\355\036\334\025\220\254!\264\015\216"
 137      676FED1E 
 137      DC1590AC 
 137      21B40D8E 
 138 0092 630710E7 		.ascii	"c\007\020\347sP\033o\223\373\220\237\327\306^\326c\355"
 138      73501B6F 
ARM GAS  C:\Users\Luggi\AppData\Local\Temp\ccMFx9MZ.s 			page 10


 138      93FB909F 
 138      D7C65ED6 
 138      63ED
 139 00a4 39A552E5 		.ascii	"9\245R\345\327\265EG\215\250t\271\331\334\023\220\367"
 139      D7B54547 
 139      8DA874B9 
 139      D9DC1390 
 139      F7
 140 00b5 7D94A4C4 		.ascii	"}\224\244\304\203q<\020o\015B\202\365\364\217\202c\246"
 140      83713C10 
 140      6F0D4282 
 140      F5F48F82 
 140      63A6
 141 00c7 A9C1767C 		.ascii	"\251\301v|\200\355\332\034'\320DZ\030\231\336\341\253"
 141      80EDDA1C 
 141      27D0445A 
 141      1899DEE1 
 141      AB
 142 00d8 6673B67A 		.ascii	"fs\266zs\365\210\321\206\020\010!\271\030Td\204\213"
 142      73F588D1 
 142      86100821 
 142      B9185464 
 142      848B
 143 00ea C9DB2830 		.ascii	"\311\333(0\327\342}\214\213M\305p\370\015@\205n\376"
 143      D7E27D8C 
 143      8B4DC570 
 143      F80D4085 
 143      6EFE
 144 00fc B02A6D68 		.ascii	"\260*mh\225E\\\330\270\366%\177\226\273l\012IC\344\337"
 144      95455CD8 
 144      B8F6257F 
 144      96BB6C0A 
 144      4943E4DF 
 145 0110 5F296F5B 		.ascii	"_)o[\025\201\210L\315x\312\340\271>V\336.[!\024\216"
 145      1581884C 
 145      CD78CAE0 
 145      B93E56DE 
 145      2E5B2114 
 146 0125 F92237BC 		.ascii	"\371\"7\274\204w\361\266\227\306@\2308\211q\234B\372"
 146      8477F1B6 
 146      97C64098 
 146      3889719C 
 146      42FA
 147 0137 0C7C4828 		.ascii	"\014|H(\024q\340[&ohC\324\236\233\203\365\2536\033\210"
 147      1471E05B 
 147      266F6843 
 147      D49E9B83 
 147      F5AB361B 
 148 014c 2D808F88 		.ascii	"-\200\217\210[\304T)\252)\006\261XT\312|75\022!\220"
 148      5BC45429 
 148      AA2906B1 
 148      5854CA7C 
 148      37351221 
 149 0161 44A385EA 		.ascii	"D\243\205\352W\311\242(%5\335\022]\256\240&1\217e\331"
 149      57C9A228 
 149      2535DD12 
 149      5DAEA026 
ARM GAS  C:\Users\Luggi\AppData\Local\Temp\ccMFx9MZ.s 			page 11


 149      318F65D9 
 150 0175 CCBB1612 		.ascii	"\314\273\026\022%\220d\215\237\215\347\202eh\002\316"
 150      2590648D 
 150      9F8DE782 
 150      656802CE 
 151 0185 906C0545 		.ascii	"\220l\005E\230!eB$\355\262\221?\255E\226\206\006\262"
 151      98216542 
 151      24EDB291 
 151      3FAD4596 
 151      8606B2
 152 0198 ADDE3182 		.ascii	"\255\3361\202\310d\361Cn~+\233\310\271\224ze\000>\376"
 152      C864F143 
 152      6E7E2B9B 
 152      C8B9947A 
 152      65003EFE 
 153 01ac 77689B98 		.ascii	"wh\233\230\300\331\331z\357\374\235\222\021\2464:<\267"
 153      C0D9D97A 
 153      EFFC9D92 
 153      11A6343A 
 153      3CB7
 154 01be 12FB9D12 		.ascii	"\022\373\235\022\265\261\361I\030\322\254\016i!\233"
 154      B5B1F149 
 154      18D2AC0E 
 154      69219B
 155 01cd DBC95A62 		.ascii	"\333\311Zb~*\025\3568a\274\327o\264\022\237_\362\227"
 155      7E2A15EE 
 155      3861BCD7 
 155      6FB4129F 
 155      5FF297
 156 01e0 AD50ECF9 		.ascii	"\255P\354\371\021\016\371\351\237\220\237\221\236\032"
 156      110EF9E9 
 156      9F909F91 
 156      9E1A
 157 01ee 42093DFF 		.ascii	"B\011=\377^\202-\370\357\251P\210t\236t\272{O\272\027"
 157      5E822DF8 
 157      EFA95088 
 157      749E74BA 
 157      7B4FBA17 
 158 0202 DCBE7317 		.ascii	"\334\276s\027\335\336\356D\362R_\217\333u*\221\354<"
 158      DDDEEE44 
 158      F2525F8F 
 158      DB752A91 
 158      EC3C
 159 0214 DA75E6C4 		.ascii	"\332u\346\304\361\316c\335\207\017\365\200q>\331\353"
 159      F1CE63DD 
 159      870FF580 
 159      713ED9EB 
 160 0224 FE02E4BA 		.ascii	"\376\002\344\272\370\002"
 160      F802
 161              		.text
 162              		.section	.gnu.lto_VDAC8_1_SetRange.53c7ca9b,"",%progbits
 163 0000 789C8D51 		.ascii	"x\234\215Q=H\\A\020\236o\367\356\371\344\002\206Tr]"
 163      3D485C41 
 163      109E6FF7 
 163      EEF9E402 
 163      8654725D 
 164 0014 40114112 		.ascii	"@\021A\022R\030RXD\014X*\021\254\004\021}\330)\034Z"
ARM GAS  C:\Users\Luggi\AppData\Local\Temp\ccMFx9MZ.s 			page 12


 164      52185258 
 164      440C582A 
 164      11AC0411 
 164      7DD8291C 
 165 0029 8A7BB913 		.ascii	"\212{\271\023$\210\230K\012A\024DB\316\277\363\017\261"
 165      2488984B 
 165      0A411444 
 165      42CEBFF3 
 165      0FB1
 166 003b 51788828 		.ascii	"Qx\210(H8\015)\014\242\306\302\204\330)'\232\247\210"
 166      48380D29 
 166      0CA2C6C2 
 166      84D82927 
 166      9AA788
 167 004e CEBC6795 		.ascii	"\316\274g\225\200\270\260;\263\303\367}\363\355\254"
 167      80B8B03B 
 167      B3C3F77D 
 167      F3EDAC
 168 005d A6FF5794 		.ascii	"\246\377W\224\367sET\312\021\232\240\006\262Dq[\001"
 168      F7734554 
 168      CA119AA0 
 168      06B24471 
 168      5B01
 169 006f 9210A85B 		.ascii	"\222\020\250[\241\033\307\352Ta\300\235\034\214\224"
 169      A11BC7EA 
 169      5461C09D 
 169      1C8C94
 170 007e 7C36C69C 		.ascii	"|6\306\234\254z\205=\205\036\323r*\220\301\027\2240"
 170      AC7A853D 
 170      851ED372 
 170      2A90C117 
 170      9430
 171 0090 6425B5B1 		.ascii	"d%\265\261T\240\213@\234\177:\314.\243x\314\230w\356"
 171      54A08B40 
 171      9C7F3ACC 
 171      2EA378CC 
 171      9877EE
 172 00a3 4AC6BC86 		.ascii	"J\306\274\206\307\232ihf\240,\212\322(q\2010\216b\001"
 172      C79A6968 
 172      66A02C8A 
 172      D2287181 
 172      308E6201 
 173 00b7 9F26AF77 		.ascii	"\237&\257w\"V\222\265\037\007\232\230\200\005\2163O"
 173      225692B5 
 173      1F079A98 
 173      80058E33 
 173      4F
 174 00c8 5C737393 		.ascii	"\\ss\223\373\3751\375RG\024s\224\226#,\207\005\241\347"
 174      FBFD31FD 
 174      52471473 
 174      9496232C 
 174      8705A1E7 
 175 00dc 496ACB41 		.ascii	"Ij\313At\304[|\377\342\013G\275\213\325\363\367\347"
 175      74C45B7C 
 175      FFE20B47 
 175      BD8BD5F3 
 175      F7E7
ARM GAS  C:\Users\Luggi\AppData\Local\Temp\ccMFx9MZ.s 			page 13


 176 00ee CB6F45ED 		.ascii	"\313oE\355B\311#\276\376\350=,\370\243<\245\247f\343"
 176      42C923BE 
 176      FEE83D2C 
 176      F8A33CA5 
 176      A766E3
 177 0101 2624BD7F 		.ascii	"&$\275\177\036m}\263\375\022\311um\364\3036\2061\024"
 177      1E6D7DB3 
 177      FD12C975 
 177      6DF4C336 
 177      863114
 178 0114 4FB2E510 		.ascii	"O\262\345\020&\021\305\024xL\230\346*\355\"\361\327"
 178      2611C514 
 178      784C98E6 
 178      2AED22F1 
 178      D7
 179 0125 0AE474A0 		.ascii	"\012\344t\240\230\352\333\\\314\027z(\307\357\3110\224"
 179      98EADB5C 
 179      CC177A28 
 179      C7EFC930 
 179      94
 180 0136 BBA62098 		.ascii	"\273\246 \230\373\324f\270\312\032\344[\274\254\010"
 180      FBD466B8 
 180      CA1AE45B 
 180      BCAC08
 181 0145 24C3F731 		.ascii	"$\303\3671f\377\351\237w\241\244Cz?\273\356\333\017"
 181      66FFE99F 
 181      77A1A443 
 181      7A3FBBEE 
 181      DB0F
 182 0157 3D22CCF9 		.ascii	"=\"\314\371\355\023gw\020\233%\031\3700G\363\276#\233"
 182      ED136777 
 182      109B2519 
 182      F83047F3 
 182      BE239B
 183 016a F69070E7 		.ascii	"\366\220p\347\266\224\300e\036#\337\3733\252\353\312"
 183      B694C065 
 183      1E23DFFB 
 183      33AAEBCA 
 184 017a F41ADB53 		.ascii	"\364\032\333S\341\034\177\032a\001]<p\213\016\020w\027"
 184      E11C7F1A 
 184      61015D3C 
 184      708B0E10 
 184      7717
 185 018c 6A7C24C9 		.ascii	"j|$\311\364!S\347?xZ\355\2649\261\246\016\247\245\261"
 185      F42153E7 
 185      3F785AED 
 185      B439B1A6 
 185      0EA7A5B1 
 186 01a0 AEBD33D6 		.ascii	"\256\2753\326\3544\324\326\265W\2257\324\277\251\254"
 186      EC34D4D6 
 186      B5579537 
 186      D4BFA9AC 
 187 01b0 7AD5F8E2 		.ascii	"z\325\370\342Y3\205cMm\255\316-b \310\352"
 187      59338563 
 187      4D6DADCE 
 187      2D6220C8 
 187      EA
ARM GAS  C:\Users\Luggi\AppData\Local\Temp\ccMFx9MZ.s 			page 14


 188              		.text
 189              		.section	.gnu.lto_VDAC8_1_Init.53c7ca9b,"",%progbits
 190 0000 789C7590 		.ascii	"x\234u\220;H\003A\020\206g\346.G \202bg:\261\010\026"
 190      3B480341 
 190      108667E6 
 190      2E472082 
 190      62673AB1 
 191 0016 0A1682AD 		.ascii	"\012\026\202\255D\264\015\004\254\002A\342\265\006\202"
 191      44B40D04 
 191      AC0241E2 
 191      B50682
 192 0025 96217B70 		.ascii	"\226!{pH*\211`!D\005\301\340#o\005Q\010x\212X\371\212"
 192      482A8960 
 192      214405C1 
 192      E0236F05 
 192      5108788A 
 193 003c 16111163 		.ascii	"\026\021\021c\021A\273\304T\207H\334\275\213A\020\027"
 193      1141BBC4 
 193      548748DC 
 193      BD8B4110 
 193      17
 194 004d 96D99D99 		.ascii	"\226\331\235\231\377\373gW\202\277\313\315w\022\001"
 194      FFFB6757 
 194      82BFCBCD 
 194      771201
 195 005c 06784409 		.ascii	"\006xD\011\220\022\327\000\232\223\020\305\001\020b"
 195      9012D700 
 195      9A9310C5 
 195      011062
 196 006b 84317CA7 		.ascii	"\2041|\247\006a\302H\257\272<)\306X\375\343J\363\031"
 196      0661C248 
 196      AFBA3C29 
 196      C658FDE3 
 196      4AF319
 197 007e 68124093 		.ascii	"h\022@\223l\016n\243\007xSC\377\252\270\024\2357\365"
 197      6C0E6EA3 
 197      07785343 
 197      FFAAB814 
 197      9D37F5
 198 0091 D835DC41 		.ascii	"\3305\334A\205\363!\337k\260V\353\240tz\244(\0005^\022"
 198      85F321DF 
 198      6BB056EB 
 198      A0747AA4 
 198      2800355E 
 199 00a6 06AF4422 		.ascii	"\006\257D\"J\217xV\257\227\006E3\207\\>\304_\272\337"
 199      4A8F7856 
 199      AF970645 
 199      33875C3E 
 199      C45FBADF 
 200 00ba C824CC14 		.ascii	"\310$\314\0244&\013n\265vSvZ)\020\327\363\315\345[\\"
 200      34260B6E 
 200      B5765376 
 200      5A2910D7 
 200      F3CDE55B 
 201 00cf C7A4A66B 		.ascii	"\307\244\246k\206\303$\302]t\343\036\362\327`\232\347"
 201      86C324C2 
 201      5D74E31E 
ARM GAS  C:\Users\Luggi\AppData\Local\Temp\ccMFx9MZ.s 			page 15


 201      F2D7609A 
 201      E7
 202 00e0 7F0BB813 		.ascii	"\177\013\270\023fx\305\2628\031j[\350\213w+\262\305"
 202      6678C5B2 
 202      38196A5B 
 202      E88B772B 
 202      B2C5
 203 00f2 CBFE5854 		.ascii	"\313\376XTRk\215\2566\263O0\263\035f\2163-\310\023\352"
 203      526B8DAE 
 203      36B34F30 
 203      B31D668E 
 203      332DC813 
 204 0107 46F18204 		.ascii	"F\361\202\004DH6\356\227r\024\375dq\3464Ij\212\3410"
 204      444836EE 
 204      977214FD 
 204      6471E634 
 204      496A8AE1 
 205 011c 8F5151DA 		.ascii	"\217QQ\332*W\313\2220\220e\300\002\272MrX\352C\345?"
 205      2A57CB92 
 205      309065C0 
 205      02BA4D72 
 205      58EA43E5 
 206 0131 B118B468 		.ascii	"\261\030\264h\213;\303\313<\267o\213\237Q3\216'-1\210"
 206      8B3BC3CB 
 206      3CB76F8B 
 206      9F51338E 
 206      272D3188 
 207 0145 0F44F171 		.ascii	"\017D\361q\\\323?\245\316\251\221\231yu6\350\017/DB"
 207      5CD33FA5 
 207      CEA99199 
 207      797536E8 
 207      0F2F4442 
 208 0159 6AC0E70F 		.ascii	"j\300\347\017{G\003\323\023\343\336\261\340\310p\010"
 208      7B4703D3 
 208      13E3DEB1 
 208      E0C87008 
 209 0169 BE0158B7 		.ascii	"\276\001X\267\242\012"
 209      A20A
 210              		.text
 211              		.section	.gnu.lto_VDAC8_1_Start.53c7ca9b,"",%progbits
 212 0000 789C7591 		.ascii	"x\234u\221K(DQ\034\306\377\337\377\\3\023\212\254&\213"
 212      4B284451 
 212      1CC6FFDF 
 212      FF5C3313 
 212      8AAC268B 
 213 0014 2959280B 		.ascii	")Y(\013\222\224\255(e\245\224\225\222\230-%\226\223"
 213      9294AD28 
 213      65A59495 
 213      92982D25 
 213      9693
 214 0026 73CD5516 		.ascii	"s\315U\026\222f%\317\225\367\233lX\270;%\217\306;\211"
 214      926625CF 
 214      95F79B6C 
 214      58B83B25 
 214      8FC63B89 
 215 003a 0DC56E34 		.ascii	"\015\305n4\013M\362\370\237;\242<n\335\316\271\337\371"
 215      0B4DF2F8 
ARM GAS  C:\Users\Luggi\AppData\Local\Temp\ccMFx9MZ.s 			page 16


 215      9F3BA23C 
 215      6EDDCEB9 
 215      DFF9
 216 004c FEDFF7BB 		.ascii	"\376\337\367\273\367*\372}\225\313\235\004Q\241\254"
 216      F72AFA7D 
 216      95CB9D04 
 216      51A1AC
 217 005b C820F0D0 		.ascii	"\310 \360\320!\221\035`V[!\322\231\326y)\351l\005+-"
 217      21911D60 
 217      565B21D2 
 217      99D67929 
 217      E96C052B 
 218 0070 5B80D910 		.ascii	"[\200\331\020\250\207\225\205\036<\362\023c\310]\030"
 218      A8879585 
 218      1E3CF213 
 218      63C85D18 
 219 0080 CE2A9AD2 		.ascii	"\316*\232\322Z'\216\343\301\276`\212%\223\323\371\230"
 219      5A278EE3 
 219      C1BE608A 
 219      2593D3F9 
 219      98
 220 0091 411189E7 		.ascii	"A\021\211\347\311y\275\310\3629\342\311M\237a\026>\351"
 220      C979BDC8 
 220      F239E2C9 
 220      4D9F6116 
 220      3EE9
 221 00a3 A5953C57 		.ascii	"\245\225<W\277\277o\354\306\036\2129\240(\305\"\336"
 221      BFBF6FEC 
 221      C61E8A39 
 221      A028C522 
 221      DE
 222 00b4 89C1F4DC 		.ascii	"\211\301\364\3343\233U]\2417\266\266\337\35373\317\254"
 222      339B555D 
 222      A137B6B6 
 222      DFEB3733 
 222      CFAC
 223 00c6 246EE264 		.ascii	"$n\342dp\231#/\272_\007R\314\257&P\324\333\273\243x"
 223      7099232F 
 223      BA5F0752 
 223      CCAF2650 
 223      D4DBBBA3 
 224 00db E08145F1 		.ascii	"\340\201E\361\036gmg\014\343\030\265\265q)\314!\202"
 224      1E676D67 
 224      0CE318B5 
 224      B57129CC 
 224      2182
 225 00ed 79E44BF7 		.ascii	"y\344K\367\202\310t\006\3472\032\372\316\264\247\267"
 225      82C87406 
 225      E7321AFA 
 225      CEB4A7B7 
 226 00fd 07FC665A 		.ascii	"\007\374fZ\010\260h|d\020\024m\205\3245\242\356\346"
 226      08B0687C 
 226      6410146D 
 226      85D435A2 
 226      EEE6
 227 010f 5EB631D3 		.ascii	"^\2661\323\317z+\351M,!\"\364\031$\260\211\304A\314"
 227      CF7A2BE9 
ARM GAS  C:\Users\Luggi\AppData\Local\Temp\ccMFx9MZ.s 			page 17


 227      4D2C2122 
 227      F41924B0 
 227      89C441CC 
 228 0123 83FD97F4 		.ascii	"\203\375\227\364'\332\362\027\332\212\310b\210\217L"
 228      27DAF217 
 228      DA8AC862 
 228      888F4C
 229 0132 47730C8C 		.ascii	"Gs\014\214\002a\325\203\271g\313\373\032\206eg\217\377"
 229      0261D583 
 229      B967CBFB 
 229      1A866567 
 229      8FFF
 230 0144 639106AC 		.ascii	"c\221\006\254}\262\\\303qO3\377t\372\222\362f\204uq"
 230      7DB25CC3 
 230      714F33FF 
 230      74FA92F2 
 230      66847571 
 231 0158 CAD1E49B 		.ascii	"\312\321\344\233\263\012\257\256\215\260\201\374\024"
 231      B30AAFAE 
 231      8DB081FC 
 231      14
 232 0165 FBE906B6 		.ascii	"\373\351\006\266{Q\347\015\223\371'0\355\222^P\033n"
 232      7B51E70D 
 232      93F92730 
 232      ED925E50 
 232      1B6E
 233 0177 0F77B674 		.ascii	"\017w\266t\205\333\232\033:\272;[\303M\365\015\035\325"
 233      85DB9A1B 
 233      3ABA3B5B 
 233      C34DF50D 
 233      1DD5
 234 0189 154D8D35 		.ascii	"\025M\2155U\325\225\315e%\255\364\001\207L\275C"
 234      55D595CD 
 234      6525ADF4 
 234      01874CBD 
 234      43
 235              		.text
 236              		.section	.gnu.lto_.symbol_nodes.53c7ca9b,"",%progbits
 237 0000 789C55CE 		.ascii	"x\234U\316\261\015\0021\020D\321\357]\257}]\320\004"
 237      B10D0231 
 237      1044D1EF 
 237      5DAF7D5D 
 237      D004
 238 0012 FD8D7401 		.ascii	"\375\215t\0011\0211P\303\005\027S\0005\300\305\324\200"
 238      31113150 
 238      C3051753 
 238      0035C0C5 
 238      D480
 239 0024 B010013B 		.ascii	"\260\020\001;\311\327\313\306\201\225\337\314\004\307"
 239      C9D7CBC6 
 239      8195DFCC 
 239      04C7
 240 0032 3B489CCE 		.ascii	";H\234\316\023VU\222C\226\334\345\311\223jrS$\027\265"
 240      13565592 
 240      4396DCE5 
 240      C9936A72 
 240      532417B5 
ARM GAS  C:\Users\Luggi\AppData\Local\Temp\ccMFx9MZ.s 			page 18


 241 0046 6457FF77 		.ascii	"dW\377w\300e\\\360\250\314\207\327\316[\260=\336\305"
 241      C0655CF0 
 241      A8CC87D7 
 241      CE5BB03D 
 241      DEC5
 242 0058 9B313F47 		.ascii	"\2331?G{c[\366\336\341\372\245s\033\345\003o91k"
 242      7B635BF6 
 242      DEE1FAA5 
 242      731BE503 
 242      6F39316B 
 243              		.text
 244              		.section	.gnu.lto_.refs.53c7ca9b,"",%progbits
 245 0000 789C6366 		.ascii	"x\234cf``\340d\200\000&v\006\016FF\016\026\006\000\001"
 245      6060E064 
 245      80002676 
 245      060E4646 
 245      0E160600 
 246 0015 90002C   		.ascii	"\220\000,"
 247              		.text
 248              		.section	.gnu.lto_.decls.53c7ca9b,"",%progbits
 249 0000 789C8D93 		.ascii	"x\234\215\223QlSU\030\307\317\271\347\256k\273n\360"
 249      516C5355 
 249      18C7CFB9 
 249      E7AE6BBB 
 249      6EF0
 250 0012 34CC62E2 		.ascii	"4\314b\342\010\011\211\311B\334\203\311\336\304l\206"
 250      080989C9 
 250      42DC83C9 
 250      DEC46C86 
 251 0022 A989599C 		.ascii	"\251\211Y\234\356E\342R\306\015.\301n)\335\003og\033"
 251      EE45E252 
 251      C60D2EC1 
 251      6E29DD03 
 251      6F671B
 252 0035 4833A794 		.ascii	"H3\247\224E]%\212\035\202\270Uh\351\030\243\353F[`c"
 252      455D258A 
 252      1D82B855 
 252      68E918A3 
 252      EB465B60 
 253 004a A3ED9CB1 		.ascii	"\243\355\234\261 \014\226\254\372\200\211F\253\270\005"
 253      200C96AC 
 253      FA808946 
 253      ABB805
 254 0059 A2EEFA9D 		.ascii	"\242\356\372\235s\317moI\033\274\311\327\333s\357\377"
 254      73CF6D6F 
 254      491BBCC9 
 254      D7DB73EF 
 254      FF
 255 006a FF3BFF73 		.ascii	"\377;\377s\276{\010B\250IBH\205\253\276\014\241\014"
 255      BE7B0842 
 255      A8494248 
 255      85ABBE0C 
 255      A10C
 256 007c 8C2D502D 		.ascii	"\214-P-P\030\312\217\264\313\014u\036j\034j\022*\014"
 256      5018CA8F 
 256      B4CB0C75 
 256      1E6A1C6A 
ARM GAS  C:\Users\Luggi\AppData\Local\Temp\ccMFx9MZ.s 			page 19


 256      122A0C
 257 008f 15819A81 		.ascii	"\025\201\232\201\212B\305\205\376\032*\274\230G\026"
 257      8A42C585 
 257      FE1A2ABC 
 257      984716
 258 009e BC6AA805 		.ascii	"\274j\250\005\250\353\342\035\026\357\037\277\306\237"
 258      A8EBE21D 
 258      16EF1FBF 
 258      C69F
 259 00ac E0192FE2 		.ascii	"\340\031/\342a\231\312\204\307_\3027Y\304\0276\314\345"
 259      6199CA84 
 259      C75FC237 
 259      59C41736 
 259      CCE5
 260 00be 2FE20917 		.ascii	"/\342\011\027\361\260u[P\341\\\315P\011\203\377\025"
 260      F1B0755B 
 260      50E15CCD 
 260      500983FF 
 260      15
 261 00cf A81B064E 		.ascii	"\250\033\006N\244\010\207\355]y\211\314I\250\200\320"
 261      A40887ED 
 261      5D7989CC 
 261      49A880D0 
 262 00df 49425B8C 		.ascii	"IB[\214\301\366\336$\030\2727%x\023BC\204n\246\304\036"
 262      C1F6DE24 
 262      18BA3725 
 262      78134243 
 262      846EA6C4 
 263 00f4 B0DE9951 		.ascii	"\260\336\231Q~\277\027\205_\317\2202\260d\241g<\326"
 263      7EBF1785 
 263      5FCF9032 
 263      B064A167 
 263      3CD6
 264 0106 BB302ADE 		.ascii	"\2730*\336\367?$|+z\344\210\231H\230\375\377\322\233"
 264      F73F247C 
 264      2B7AE488 
 264      994898FD 
 264      FFD29B
 265 0119 495BEBC6 		.ascii	"I[\353\306(\245n\032\213\341\274\250\367\253\310`\371"
 265      28A56E1A 
 265      8BE1BCA8 
 265      F7ABC860 
 265      F9
 266 012a CF12AEB6 		.ascii	"\317\022\256\266\362\341\207\211\343q\302\207*\363I"
 266      F2E18789 
 266      E371C287 
 266      2AF349
 267 0139 77EE7CF4 		.ascii	"w\356|\364\210`\353v7\245}4;D\311S\010\327\325\340g"
 267      8860EB76 
 267      37A57D34 
 267      3B44C953 
 267      08D7D5E0 
 268 014e 6B10FE06 		.ascii	"k\020\376\006o\007\031\376\032\327!<\212k\360\030\256"
 268      6F0719FE 
 268      1AD7213C 
 268      8A6BF018 
 268      AE
ARM GAS  C:\Users\Luggi\AppData\Local\Temp\ccMFx9MZ.s 			page 20


 269 015f 41A76082 		.ascii	"A\247`\202\354\027\351\345\247)\225\261\037[\361\031"
 269      EC17E9E5 
 269      A72995B1 
 269      1F5BF119 
 270 016f 4CB80242 		.ascii	"L\270\002B\262\031x7\3409\314\024>\367W\252\002f\252"
 270      B2197837 
 270      E039CC14 
 270      3EF757AA 
 270      0266AA
 271 0182 B2D6B289 		.ascii	"\262\326\262\211\247\206\346\275&\030\332\2542\033F"
 271      A786E6BD 
 271      2618DAAC 
 271      321B46
 272 0191 FEFE312D 		.ascii	"\376\3761-o\371\030p\324\323O7\313\270\245\032\237\205"
 272      6FF91870 
 272      D4D34F37 
 272      CBB8A51A 
 272      9F85
 273 01a3 49CEC124 		.ascii	"I\316\301$\010\007\360\026\370}K\326\226\220|\350\315"
 273      0807F016 
 273      F87D4BD6 
 273      96907CE8 
 273      CD
 274 01b4 9A483D5F 		.ascii	"\232H=_\347\320\350\355\250T{\202\256\006\263\356\376"
 274      E7D0E8ED 
 274      A8547B82 
 274      AE06B3EE 
 274      FE
 275 01c5 3F9FFB94 		.ascii	"?\237\373\224\372\372\350\206\012ka\036\034\314\245"
 275      FAFAE886 
 275      0A6B611E 
 275      1CCCA5
 276 01d4 41ECBF16 		.ascii	"A\354\277\026\347<\256\005\243\273\367\201*\221=\034"
 276      E73CAE05 
 276      A3BBF781 
 276      2A913D1C 
 277 01e4 3232B8FC 		.ascii	"22\270\374\271\031 \276\240\357\366i\323<\215\251\352"
 277      B91920BE 
 277      A0EFF669 
 277      D33C8DA9 
 277      EA
 278 01f5 0BDC1F32 		.ascii	"\013\334\0372\370C\272\177\234\373=\207\343\036Y\226"
 278      F843BA7F 
 278      9CFB3D87 
 278      E31E5996 
 279 0205 B4E5B168 		.ascii	"\264\345\261h\360lM\315\234\226J.b\202/\342\002\026"
 279      F06C4DCD 
 279      9C964A2E 
 279      62822FE2 
 279      0216
 280 0217 AB880642 		.ascii	"\253\210\006B\0013\351\342\001\246\326~\031\266\360"
 280      0133E9E2 
 280      01A6D67E 
 280      19B6F0
 281 0226 55F88E9F 		.ascii	"U\370\216\237\321\003\200\036_4\004\270\250\007\230"
 281      D103801E 
 281      5F3404B8 
ARM GAS  C:\Users\Luggi\AppData\Local\Temp\ccMFx9MZ.s 			page 21


 281      A80798
 282 0235 E4019652 		.ascii	"\344\001\226R\275KU\204b\016\270\271\376\311\234\254"
 282      BD4B5584 
 282      620EB8B9 
 282      FEC99CAC 
 283 0245 01360A00 		.ascii	"\0016\012\000\227\014\200K: \314\001GG\356\377`!\307"
 283      970C804B 
 283      3A20CC01 
 283      4747EEFF 
 283      6021C7
 284 0258 34C0AFFF 		.ascii	"4\300\257\377\256\3347k\200\205Q\343\026L\031\000S:"
 284      AEDC376B 
 284      808551E3 
 284      164C1900 
 284      533A
 285 026a 20C201A1 		.ascii	" \302\001\241\314YO9\031\321\000\211G\337/Th\200dA\202"
 285      CC594F39 
 285      19D10089 
 285      47DF2F54 
 285      68806441 
 286 027f 6903605A 		.ascii	"i\003`Z\007\314p\300\311\265\233\257\222\220\346\277"
 286      07CC70C0 
 286      C9B59BAF 
 286      9290E6BF 
 287 028f F060F6AA 		.ascii	"\360`\366\252M\363\377\036\242;\017\321\177T\225\360"
 287      4DF3FF1E 
 287      A23B0FD1 
 287      7F5495F0 
 288 029f 04970D80 		.ascii	"\004\227\015\200\313: \312\001\203\367\276=ZI\242\032"
 288      CB3A20CA 
 288      0183F7BE 
 288      3D5A49A2 
 288      1A
 289 02b0 E1D8F04A 		.ascii	"\341\330\360J\266J\353\342\007\005]\214\031\0001\035"
 289      B64AEBE2 
 289      07055D8C 
 289      1900311D 
 290 02c0 10E780E9 		.ascii	"\020\347\200\351\324\322\354&\222\322\000\033w\203\223"
 290      D4D2EC26 
 290      92D2001B 
 290      778393
 291 02cf EC938486 		.ascii	"\354\223\204\206\362\016\365\373\343^\353\266\021\352"
 291      F20EF5FB 
 291      E35EEBB6 
 291      11EA
 292 02dd 3BB91AF9 		.ascii	";\271\032\371\255\314K\351\252\252>\303\333}E#\212\223"
 292      ADCC4BE9 
 292      AAAA3EC3 
 292      DB7D4523 
 292      8A93
 293 02ef 81D8187E 		.ascii	"\201\330\030~\257B\233\3615\274\015\254t\370\375Sf\262"
 293      AF429BF1 
 293      35BC0DAC 
 293      74F8FD53 
 293      66B2
 294 0301 A27127D6 		.ascii	"\242q'\326\007\302\225V8Q\375\377\343D\301\031L/\016"
 294      07C29556 
ARM GAS  C:\Users\Luggi\AppData\Local\Temp\ccMFx9MZ.s 			page 22


 294      3851FDFF 
 294      E344C119 
 294      4C2F0E
 295 0314 DCB26867 		.ascii	"\334\262hg\360q\307|\3113\370\360\247\346Ct'\276\016"
 295      F071C77C 
 295      C933F8F0 
 295      A7E64374 
 295      27BE0E
 296 0327 E966F367 		.ascii	"\351f\363gp\016[s'?\235\350\273Kl\003\354`\303\327i"
 296      700E5B73 
 296      273F9DE8 
 296      BB4B6C03 
 296      EC60C3D7 
 297 033c 69E6DAFC 		.ascii	"i\346\332\374\347\271\200m|c\340\016\342\214gn\332\242"
 297      E7B9806D 
 297      7C63E00E 
 297      E28C676E 
 297      DAA2
 298 034e 67763F21 		.ascii	"gv?!\001\333\253\367>\2333\033\3417\012\340\011\001"
 298      01DBABF7 
 298      3E9B331B 
 298      E1370AE0 
 298      0901
 299 0360 4F707860 		.ascii	"Opx`}i\254\302(f]\312\213\223\330\246\347Or\375\211"
 299      7D69ACC2 
 299      28665DCA 
 299      8B93D8A6 
 299      E74F72FD 
 300 0375 E0F256A3 		.ascii	"\340\362V\243|\242@\236\022\354\024\327~\227U\3376j"
 300      7CA2409E 
 300      12EC14D7 
 300      7E9755DF 
 300      366A
 301 0387 FD053916 		.ascii	"\375\0059\026\205\226\335\313z:\035\256\006\323\256"
 301      8596DDCB 
 301      7A3A1DAE 
 301      06D3AE
 302 0396 D7DEAC6D 		.ascii	"\327\336\254mD[w)\016\305iw){\333[\273z\234\035\312"
 302      445B7729 
 302      0EC56977 
 302      297BDB5B 
 302      BB7A9C1D 
 303 03ab EE96D6AE 		.ascii	"\356\226\326\256\306\347ww\034t\035\354V\016\354x\007"
 303      C6E77777 
 303      1C741DEC 
 303      560EEC78 
 303      07
 304 03bc 55B535BD 		.ascii	"U\2655\275\330\330\320^\337\376\222\303\276g\277R\312"
 304      D8D8D05E 
 304      DFFE92C3 
 304      BE67BF52 
 304      CA
 305 03cd 20543B3A 		.ascii	" T;:\220M7\264\272\272\2727\347\006\212\253\265[Q\366"
 305      904D37B4 
 305      BABABA37 
 305      E7068AAB 
 305      B55B51F6 
ARM GAS  C:\Users\Luggi\AppData\Local\Temp\ccMFx9MZ.s 			page 23


 306 03e1 1A1FB4D9 		.ascii	"\032\037\264\331\367\367(\233\364\007M\366\2167\234"
 306      F7F7289B 
 306      F4074DF6 
 306      8E379C
 307 03f0 9DEF1A05 		.ascii	"\235\357\032\005\257\333\035\373\224\034\357eG\247\253"
 307      AFDB1DFB 
 307      941CEF65 
 307      47A7AB
 308 03ff 320FB73B 		.ascii	"2\017\267;]9o'\274j\263;e\247\262\257\341?UU\024q"
 308      5D396F27 
 308      BC6AB33B 
 308      65A7B2AF 
 308      E13F5555 
 309              		.text
 310              		.section	.gnu.lto_.symtab.53c7ca9b,"",%progbits
 311 0000 56444143 		.ascii	"VDAC8_1_Enable\000\000\000\000\000\000\000\000\000\000"
 311      385F315F 
 311      456E6162 
 311      6C650000 
 311      00000000 
 312 0018 0000B100 		.ascii	"\000\000\261\000\000\000VDAC8_1_Stop\000\000\000\000"
 312      00005644 
 312      4143385F 
 312      315F5374 
 312      6F700000 
 313 002e 00000000 		.ascii	"\000\000\000\000\000\000\000\000\263\000\000\000VDA"
 313      00000000 
 313      B3000000 
 313      564441
 314 003d 43385F31 		.ascii	"C8_1_SetSpeed\000\000\000\000\000\000\000\000\000\000"
 314      5F536574 
 314      53706565 
 314      64000000 
 314      00000000 
 315 0054 0000B700 		.ascii	"\000\000\267\000\000\000VDAC8_1_SetValue\000\000\000"
 315      00005644 
 315      4143385F 
 315      315F5365 
 315      7456616C 
 316 006d 00000000 		.ascii	"\000\000\000\000\000\000\000\000\000\271\000\000\000"
 316      00000000 
 316      00B90000 
 316      00
 317 007a 56444143 		.ascii	"VDAC8_1_DacTrim\000\000\000\000\000\000\000\000\000"
 317      385F315F 
 317      44616354 
 317      72696D00 
 317      00000000 
 318 0092 000000BB 		.ascii	"\000\000\000\273\000\000\000VDAC8_1_SetRange\000\000"
 318      00000056 
 318      44414338 
 318      5F315F53 
 318      65745261 
 319 00ab 00000000 		.ascii	"\000\000\000\000\000\000\000\000\000\000\275\000\000"
 319      00000000 
 319      0000BD00 
 319      00
ARM GAS  C:\Users\Luggi\AppData\Local\Temp\ccMFx9MZ.s 			page 24


 320 00b8 00564441 		.ascii	"\000VDAC8_1_Init\000\000\000\000\000\000\000\000\000"
 320      43385F31 
 320      5F496E69 
 320      74000000 
 320      00000000 
 321 00ce 000000BF 		.ascii	"\000\000\000\277\000\000\000VDAC8_1_Start\000\000\000"
 321      00000056 
 321      44414338 
 321      5F315F53 
 321      74617274 
 322 00e5 00000000 		.ascii	"\000\000\000\000\000\000\000\000\000\301\000\000\000"
 322      00000000 
 322      00C10000 
 322      00
 323 00f2 56444143 		.ascii	"VDAC8_1_initVar\000\000\000\000\000\000\000\000\000"
 323      385F315F 
 323      696E6974 
 323      56617200 
 323      00000000 
 324 010a 000000C4 		.ascii	"\000\000\000\304\000\000\000"
 324      000000
 325              		.text
 326              		.section	.gnu.lto_.opts,"",%progbits
 327 0000 272D666E 		.ascii	"'-fno-trapv' '-fno-strict-overflow' '-mcpu=cortex-m"
 327      6F2D7472 
 327      61707627 
 327      20272D66 
 327      6E6F2D73 
 328 0033 33272027 		.ascii	"3' '-mthumb' '-g' '-Og' '-ffunction-sections' '-flt"
 328      2D6D7468 
 328      756D6227 
 328      20272D67 
 328      2720272D 
 329 0066 6F272027 		.ascii	"o' '-ffat-lto-objects'\000"
 329      2D666661 
 329      742D6C74 
 329      6F2D6F62 
 329      6A656374 
 330              		.text
 331              		.cfi_sections	.debug_frame
 332              		.section	.text.VDAC8_1_Enable,"ax",%progbits
 333              		.align	2
 334              		.global	VDAC8_1_Enable
 335              		.thumb
 336              		.thumb_func
 337              		.type	VDAC8_1_Enable, %function
 338              	VDAC8_1_Enable:
 339              	.LFB1:
 340              		.file 1 "Generated_Source\\PSoC5\\VDAC8_1.c"
   1:Generated_Source\PSoC5/VDAC8_1.c **** /*******************************************************************************
   2:Generated_Source\PSoC5/VDAC8_1.c **** * File Name: VDAC8_1.c  
   3:Generated_Source\PSoC5/VDAC8_1.c **** * Version 1.90
   4:Generated_Source\PSoC5/VDAC8_1.c **** *
   5:Generated_Source\PSoC5/VDAC8_1.c **** * Description:
   6:Generated_Source\PSoC5/VDAC8_1.c **** *  This file provides the source code to the API for the 8-bit Voltage DAC 
   7:Generated_Source\PSoC5/VDAC8_1.c **** *  (VDAC8) User Module.
   8:Generated_Source\PSoC5/VDAC8_1.c **** *
ARM GAS  C:\Users\Luggi\AppData\Local\Temp\ccMFx9MZ.s 			page 25


   9:Generated_Source\PSoC5/VDAC8_1.c **** * Note:
  10:Generated_Source\PSoC5/VDAC8_1.c **** *  Any unusual or non-standard behavior should be noted here. Other-
  11:Generated_Source\PSoC5/VDAC8_1.c **** *  wise, this section should remain blank.
  12:Generated_Source\PSoC5/VDAC8_1.c **** *
  13:Generated_Source\PSoC5/VDAC8_1.c **** ********************************************************************************
  14:Generated_Source\PSoC5/VDAC8_1.c **** * Copyright 2008-2012, Cypress Semiconductor Corporation.  All rights reserved.
  15:Generated_Source\PSoC5/VDAC8_1.c **** * You may use this file only in accordance with the license, terms, conditions, 
  16:Generated_Source\PSoC5/VDAC8_1.c **** * disclaimers, and limitations in the end user license agreement accompanying 
  17:Generated_Source\PSoC5/VDAC8_1.c **** * the software package with which this file was provided.
  18:Generated_Source\PSoC5/VDAC8_1.c **** *******************************************************************************/
  19:Generated_Source\PSoC5/VDAC8_1.c **** 
  20:Generated_Source\PSoC5/VDAC8_1.c **** #include "cytypes.h"
  21:Generated_Source\PSoC5/VDAC8_1.c **** #include "VDAC8_1.h"
  22:Generated_Source\PSoC5/VDAC8_1.c **** 
  23:Generated_Source\PSoC5/VDAC8_1.c **** #if (CY_PSOC5A)
  24:Generated_Source\PSoC5/VDAC8_1.c **** #include <CyLib.h>
  25:Generated_Source\PSoC5/VDAC8_1.c **** #endif /* CY_PSOC5A */
  26:Generated_Source\PSoC5/VDAC8_1.c **** 
  27:Generated_Source\PSoC5/VDAC8_1.c **** uint8 VDAC8_1_initVar = 0u;
  28:Generated_Source\PSoC5/VDAC8_1.c **** 
  29:Generated_Source\PSoC5/VDAC8_1.c **** #if (CY_PSOC5A)
  30:Generated_Source\PSoC5/VDAC8_1.c ****     static uint8 VDAC8_1_restoreVal = 0u;
  31:Generated_Source\PSoC5/VDAC8_1.c **** #endif /* CY_PSOC5A */
  32:Generated_Source\PSoC5/VDAC8_1.c **** 
  33:Generated_Source\PSoC5/VDAC8_1.c **** #if (CY_PSOC5A)
  34:Generated_Source\PSoC5/VDAC8_1.c ****     static VDAC8_1_backupStruct VDAC8_1_backup;
  35:Generated_Source\PSoC5/VDAC8_1.c **** #endif /* CY_PSOC5A */
  36:Generated_Source\PSoC5/VDAC8_1.c **** 
  37:Generated_Source\PSoC5/VDAC8_1.c **** 
  38:Generated_Source\PSoC5/VDAC8_1.c **** /*******************************************************************************
  39:Generated_Source\PSoC5/VDAC8_1.c **** * Function Name: VDAC8_1_Init
  40:Generated_Source\PSoC5/VDAC8_1.c **** ********************************************************************************
  41:Generated_Source\PSoC5/VDAC8_1.c **** * Summary:
  42:Generated_Source\PSoC5/VDAC8_1.c **** *  Initialize to the schematic state.
  43:Generated_Source\PSoC5/VDAC8_1.c **** * 
  44:Generated_Source\PSoC5/VDAC8_1.c **** * Parameters:
  45:Generated_Source\PSoC5/VDAC8_1.c **** *  void:
  46:Generated_Source\PSoC5/VDAC8_1.c **** *
  47:Generated_Source\PSoC5/VDAC8_1.c **** * Return:
  48:Generated_Source\PSoC5/VDAC8_1.c **** *  void
  49:Generated_Source\PSoC5/VDAC8_1.c **** *
  50:Generated_Source\PSoC5/VDAC8_1.c **** * Theory:
  51:Generated_Source\PSoC5/VDAC8_1.c **** *
  52:Generated_Source\PSoC5/VDAC8_1.c **** * Side Effects:
  53:Generated_Source\PSoC5/VDAC8_1.c **** *
  54:Generated_Source\PSoC5/VDAC8_1.c **** *******************************************************************************/
  55:Generated_Source\PSoC5/VDAC8_1.c **** void VDAC8_1_Init(void) 
  56:Generated_Source\PSoC5/VDAC8_1.c **** {
  57:Generated_Source\PSoC5/VDAC8_1.c ****     VDAC8_1_CR0 = (VDAC8_1_MODE_V );
  58:Generated_Source\PSoC5/VDAC8_1.c **** 
  59:Generated_Source\PSoC5/VDAC8_1.c ****     /* Set default data source */
  60:Generated_Source\PSoC5/VDAC8_1.c ****     #if(VDAC8_1_DEFAULT_DATA_SRC != 0 )
  61:Generated_Source\PSoC5/VDAC8_1.c ****         VDAC8_1_CR1 = (VDAC8_1_DEFAULT_CNTL | VDAC8_1_DACBUS_ENABLE) ;
  62:Generated_Source\PSoC5/VDAC8_1.c ****     #else
  63:Generated_Source\PSoC5/VDAC8_1.c ****         VDAC8_1_CR1 = (VDAC8_1_DEFAULT_CNTL | VDAC8_1_DACBUS_DISABLE) ;
  64:Generated_Source\PSoC5/VDAC8_1.c ****     #endif /* (VDAC8_1_DEFAULT_DATA_SRC != 0 ) */
  65:Generated_Source\PSoC5/VDAC8_1.c **** 
ARM GAS  C:\Users\Luggi\AppData\Local\Temp\ccMFx9MZ.s 			page 26


  66:Generated_Source\PSoC5/VDAC8_1.c ****     /* Set default strobe mode */
  67:Generated_Source\PSoC5/VDAC8_1.c ****     #if(VDAC8_1_DEFAULT_STRB != 0)
  68:Generated_Source\PSoC5/VDAC8_1.c ****         VDAC8_1_Strobe |= VDAC8_1_STRB_EN ;
  69:Generated_Source\PSoC5/VDAC8_1.c ****     #endif/* (VDAC8_1_DEFAULT_STRB != 0) */
  70:Generated_Source\PSoC5/VDAC8_1.c **** 
  71:Generated_Source\PSoC5/VDAC8_1.c ****     /* Set default range */
  72:Generated_Source\PSoC5/VDAC8_1.c ****     VDAC8_1_SetRange(VDAC8_1_DEFAULT_RANGE); 
  73:Generated_Source\PSoC5/VDAC8_1.c **** 
  74:Generated_Source\PSoC5/VDAC8_1.c ****     /* Set default speed */
  75:Generated_Source\PSoC5/VDAC8_1.c ****     VDAC8_1_SetSpeed(VDAC8_1_DEFAULT_SPEED);
  76:Generated_Source\PSoC5/VDAC8_1.c **** }
  77:Generated_Source\PSoC5/VDAC8_1.c **** 
  78:Generated_Source\PSoC5/VDAC8_1.c **** 
  79:Generated_Source\PSoC5/VDAC8_1.c **** /*******************************************************************************
  80:Generated_Source\PSoC5/VDAC8_1.c **** * Function Name: VDAC8_1_Enable
  81:Generated_Source\PSoC5/VDAC8_1.c **** ********************************************************************************
  82:Generated_Source\PSoC5/VDAC8_1.c **** * Summary:
  83:Generated_Source\PSoC5/VDAC8_1.c **** *  Enable the VDAC8
  84:Generated_Source\PSoC5/VDAC8_1.c **** * 
  85:Generated_Source\PSoC5/VDAC8_1.c **** * Parameters:
  86:Generated_Source\PSoC5/VDAC8_1.c **** *  void
  87:Generated_Source\PSoC5/VDAC8_1.c **** *
  88:Generated_Source\PSoC5/VDAC8_1.c **** * Return:
  89:Generated_Source\PSoC5/VDAC8_1.c **** *  void
  90:Generated_Source\PSoC5/VDAC8_1.c **** *
  91:Generated_Source\PSoC5/VDAC8_1.c **** * Theory:
  92:Generated_Source\PSoC5/VDAC8_1.c **** *
  93:Generated_Source\PSoC5/VDAC8_1.c **** * Side Effects:
  94:Generated_Source\PSoC5/VDAC8_1.c **** *
  95:Generated_Source\PSoC5/VDAC8_1.c **** *******************************************************************************/
  96:Generated_Source\PSoC5/VDAC8_1.c **** void VDAC8_1_Enable(void) 
  97:Generated_Source\PSoC5/VDAC8_1.c **** {
 341              		.loc 1 97 0
 342              		.cfi_startproc
 343              		@ args = 0, pretend = 0, frame = 0
 344              		@ frame_needed = 0, uses_anonymous_args = 0
 345              		@ link register save eliminated.
  98:Generated_Source\PSoC5/VDAC8_1.c ****     VDAC8_1_PWRMGR |= VDAC8_1_ACT_PWR_EN;
 346              		.loc 1 98 0
 347 0000 054A     		ldr	r2, .L2
 348 0002 1378     		ldrb	r3, [r2]	@ zero_extendqisi2
 349 0004 43F00803 		orr	r3, r3, #8
 350 0008 1370     		strb	r3, [r2]
  99:Generated_Source\PSoC5/VDAC8_1.c ****     VDAC8_1_STBY_PWRMGR |= VDAC8_1_STBY_PWR_EN;
 351              		.loc 1 99 0
 352 000a 1032     		adds	r2, r2, #16
 353 000c 1378     		ldrb	r3, [r2]	@ zero_extendqisi2
 354 000e 43F00803 		orr	r3, r3, #8
 355 0012 1370     		strb	r3, [r2]
 356 0014 7047     		bx	lr
 357              	.L3:
 358 0016 00BF     		.align	2
 359              	.L2:
 360 0018 A8430040 		.word	1073759144
 361              		.cfi_endproc
 362              	.LFE1:
 363              		.size	VDAC8_1_Enable, .-VDAC8_1_Enable
ARM GAS  C:\Users\Luggi\AppData\Local\Temp\ccMFx9MZ.s 			page 27


 364              		.section	.text.VDAC8_1_Stop,"ax",%progbits
 365              		.align	2
 366              		.global	VDAC8_1_Stop
 367              		.thumb
 368              		.thumb_func
 369              		.type	VDAC8_1_Stop, %function
 370              	VDAC8_1_Stop:
 371              	.LFB3:
 100:Generated_Source\PSoC5/VDAC8_1.c **** 
 101:Generated_Source\PSoC5/VDAC8_1.c ****     /*This is to restore the value of register CR0 ,
 102:Generated_Source\PSoC5/VDAC8_1.c ****     which is modified  in Stop API , this prevents misbehaviour of VDAC */
 103:Generated_Source\PSoC5/VDAC8_1.c ****     #if (CY_PSOC5A)
 104:Generated_Source\PSoC5/VDAC8_1.c ****         if(VDAC8_1_restoreVal == 1u) 
 105:Generated_Source\PSoC5/VDAC8_1.c ****         {
 106:Generated_Source\PSoC5/VDAC8_1.c ****              VDAC8_1_CR0 = VDAC8_1_backup.data_value;
 107:Generated_Source\PSoC5/VDAC8_1.c ****              VDAC8_1_restoreVal = 0u;
 108:Generated_Source\PSoC5/VDAC8_1.c ****         }
 109:Generated_Source\PSoC5/VDAC8_1.c ****     #endif /* CY_PSOC5A */
 110:Generated_Source\PSoC5/VDAC8_1.c **** }
 111:Generated_Source\PSoC5/VDAC8_1.c **** 
 112:Generated_Source\PSoC5/VDAC8_1.c **** 
 113:Generated_Source\PSoC5/VDAC8_1.c **** /*******************************************************************************
 114:Generated_Source\PSoC5/VDAC8_1.c **** * Function Name: VDAC8_1_Start
 115:Generated_Source\PSoC5/VDAC8_1.c **** ********************************************************************************
 116:Generated_Source\PSoC5/VDAC8_1.c **** *
 117:Generated_Source\PSoC5/VDAC8_1.c **** * Summary:
 118:Generated_Source\PSoC5/VDAC8_1.c **** *  The start function initializes the voltage DAC with the default values, 
 119:Generated_Source\PSoC5/VDAC8_1.c **** *  and sets the power to the given level.  A power level of 0, is the same as
 120:Generated_Source\PSoC5/VDAC8_1.c **** *  executing the stop function.
 121:Generated_Source\PSoC5/VDAC8_1.c **** *
 122:Generated_Source\PSoC5/VDAC8_1.c **** * Parameters:
 123:Generated_Source\PSoC5/VDAC8_1.c **** *  Power: Sets power level between off (0) and (3) high power
 124:Generated_Source\PSoC5/VDAC8_1.c **** *
 125:Generated_Source\PSoC5/VDAC8_1.c **** * Return:
 126:Generated_Source\PSoC5/VDAC8_1.c **** *  void 
 127:Generated_Source\PSoC5/VDAC8_1.c **** *
 128:Generated_Source\PSoC5/VDAC8_1.c **** * Global variables:
 129:Generated_Source\PSoC5/VDAC8_1.c **** *  VDAC8_1_initVar: Is modified when this function is called for the 
 130:Generated_Source\PSoC5/VDAC8_1.c **** *  first time. Is used to ensure that initialization happens only once.
 131:Generated_Source\PSoC5/VDAC8_1.c **** *
 132:Generated_Source\PSoC5/VDAC8_1.c **** *******************************************************************************/
 133:Generated_Source\PSoC5/VDAC8_1.c **** void VDAC8_1_Start(void)  
 134:Generated_Source\PSoC5/VDAC8_1.c **** {
 135:Generated_Source\PSoC5/VDAC8_1.c ****     /* Hardware initiazation only needs to occure the first time */
 136:Generated_Source\PSoC5/VDAC8_1.c ****     if(VDAC8_1_initVar == 0u)
 137:Generated_Source\PSoC5/VDAC8_1.c ****     { 
 138:Generated_Source\PSoC5/VDAC8_1.c ****         VDAC8_1_Init();
 139:Generated_Source\PSoC5/VDAC8_1.c ****         VDAC8_1_initVar = 1u;
 140:Generated_Source\PSoC5/VDAC8_1.c ****     }
 141:Generated_Source\PSoC5/VDAC8_1.c **** 
 142:Generated_Source\PSoC5/VDAC8_1.c ****     /* Enable power to DAC */
 143:Generated_Source\PSoC5/VDAC8_1.c ****     VDAC8_1_Enable();
 144:Generated_Source\PSoC5/VDAC8_1.c **** 
 145:Generated_Source\PSoC5/VDAC8_1.c ****     /* Set default value */
 146:Generated_Source\PSoC5/VDAC8_1.c ****     VDAC8_1_SetValue(VDAC8_1_DEFAULT_DATA); 
 147:Generated_Source\PSoC5/VDAC8_1.c **** }
 148:Generated_Source\PSoC5/VDAC8_1.c **** 
ARM GAS  C:\Users\Luggi\AppData\Local\Temp\ccMFx9MZ.s 			page 28


 149:Generated_Source\PSoC5/VDAC8_1.c **** 
 150:Generated_Source\PSoC5/VDAC8_1.c **** /*******************************************************************************
 151:Generated_Source\PSoC5/VDAC8_1.c **** * Function Name: VDAC8_1_Stop
 152:Generated_Source\PSoC5/VDAC8_1.c **** ********************************************************************************
 153:Generated_Source\PSoC5/VDAC8_1.c **** *
 154:Generated_Source\PSoC5/VDAC8_1.c **** * Summary:
 155:Generated_Source\PSoC5/VDAC8_1.c **** *  Powers down DAC to lowest power state.
 156:Generated_Source\PSoC5/VDAC8_1.c **** *
 157:Generated_Source\PSoC5/VDAC8_1.c **** * Parameters:
 158:Generated_Source\PSoC5/VDAC8_1.c **** *  void
 159:Generated_Source\PSoC5/VDAC8_1.c **** *
 160:Generated_Source\PSoC5/VDAC8_1.c **** * Return:
 161:Generated_Source\PSoC5/VDAC8_1.c **** *  void
 162:Generated_Source\PSoC5/VDAC8_1.c **** *
 163:Generated_Source\PSoC5/VDAC8_1.c **** * Theory:
 164:Generated_Source\PSoC5/VDAC8_1.c **** *
 165:Generated_Source\PSoC5/VDAC8_1.c **** * Side Effects:
 166:Generated_Source\PSoC5/VDAC8_1.c **** *
 167:Generated_Source\PSoC5/VDAC8_1.c **** *******************************************************************************/
 168:Generated_Source\PSoC5/VDAC8_1.c **** void VDAC8_1_Stop(void) 
 169:Generated_Source\PSoC5/VDAC8_1.c **** {
 372              		.loc 1 169 0
 373              		.cfi_startproc
 374              		@ args = 0, pretend = 0, frame = 0
 375              		@ frame_needed = 0, uses_anonymous_args = 0
 376              		@ link register save eliminated.
 170:Generated_Source\PSoC5/VDAC8_1.c ****     /* Disble power to DAC */
 171:Generated_Source\PSoC5/VDAC8_1.c ****     VDAC8_1_PWRMGR &= (uint8)(~VDAC8_1_ACT_PWR_EN);
 377              		.loc 1 171 0
 378 0000 054A     		ldr	r2, .L5
 379 0002 1378     		ldrb	r3, [r2]	@ zero_extendqisi2
 380 0004 03F0F703 		and	r3, r3, #247
 381 0008 1370     		strb	r3, [r2]
 172:Generated_Source\PSoC5/VDAC8_1.c ****     VDAC8_1_STBY_PWRMGR &= (uint8)(~VDAC8_1_STBY_PWR_EN);
 382              		.loc 1 172 0
 383 000a 1032     		adds	r2, r2, #16
 384 000c 1378     		ldrb	r3, [r2]	@ zero_extendqisi2
 385 000e 03F0F703 		and	r3, r3, #247
 386 0012 1370     		strb	r3, [r2]
 387 0014 7047     		bx	lr
 388              	.L6:
 389 0016 00BF     		.align	2
 390              	.L5:
 391 0018 A8430040 		.word	1073759144
 392              		.cfi_endproc
 393              	.LFE3:
 394              		.size	VDAC8_1_Stop, .-VDAC8_1_Stop
 395              		.section	.text.VDAC8_1_SetSpeed,"ax",%progbits
 396              		.align	2
 397              		.global	VDAC8_1_SetSpeed
 398              		.thumb
 399              		.thumb_func
 400              		.type	VDAC8_1_SetSpeed, %function
 401              	VDAC8_1_SetSpeed:
 402              	.LFB4:
 173:Generated_Source\PSoC5/VDAC8_1.c **** 
 174:Generated_Source\PSoC5/VDAC8_1.c ****     /* This is a work around for PSoC5A  ,
ARM GAS  C:\Users\Luggi\AppData\Local\Temp\ccMFx9MZ.s 			page 29


 175:Generated_Source\PSoC5/VDAC8_1.c ****     this sets VDAC to current mode with output off */
 176:Generated_Source\PSoC5/VDAC8_1.c ****     #if (CY_PSOC5A)
 177:Generated_Source\PSoC5/VDAC8_1.c ****         VDAC8_1_backup.data_value = VDAC8_1_CR0;
 178:Generated_Source\PSoC5/VDAC8_1.c ****         VDAC8_1_CR0 = VDAC8_1_CUR_MODE_OUT_OFF;
 179:Generated_Source\PSoC5/VDAC8_1.c ****         VDAC8_1_restoreVal = 1u;
 180:Generated_Source\PSoC5/VDAC8_1.c ****     #endif /* CY_PSOC5A */
 181:Generated_Source\PSoC5/VDAC8_1.c **** }
 182:Generated_Source\PSoC5/VDAC8_1.c **** 
 183:Generated_Source\PSoC5/VDAC8_1.c **** 
 184:Generated_Source\PSoC5/VDAC8_1.c **** /*******************************************************************************
 185:Generated_Source\PSoC5/VDAC8_1.c **** * Function Name: VDAC8_1_SetSpeed
 186:Generated_Source\PSoC5/VDAC8_1.c **** ********************************************************************************
 187:Generated_Source\PSoC5/VDAC8_1.c **** *
 188:Generated_Source\PSoC5/VDAC8_1.c **** * Summary:
 189:Generated_Source\PSoC5/VDAC8_1.c **** *  Set DAC speed
 190:Generated_Source\PSoC5/VDAC8_1.c **** *
 191:Generated_Source\PSoC5/VDAC8_1.c **** * Parameters:
 192:Generated_Source\PSoC5/VDAC8_1.c **** *  power: Sets speed value
 193:Generated_Source\PSoC5/VDAC8_1.c **** *
 194:Generated_Source\PSoC5/VDAC8_1.c **** * Return:
 195:Generated_Source\PSoC5/VDAC8_1.c **** *  void
 196:Generated_Source\PSoC5/VDAC8_1.c **** *
 197:Generated_Source\PSoC5/VDAC8_1.c **** * Theory:
 198:Generated_Source\PSoC5/VDAC8_1.c **** *
 199:Generated_Source\PSoC5/VDAC8_1.c **** * Side Effects:
 200:Generated_Source\PSoC5/VDAC8_1.c **** *
 201:Generated_Source\PSoC5/VDAC8_1.c **** *******************************************************************************/
 202:Generated_Source\PSoC5/VDAC8_1.c **** void VDAC8_1_SetSpeed(uint8 speed) 
 203:Generated_Source\PSoC5/VDAC8_1.c **** {
 403              		.loc 1 203 0
 404              		.cfi_startproc
 405              		@ args = 0, pretend = 0, frame = 0
 406              		@ frame_needed = 0, uses_anonymous_args = 0
 407              		@ link register save eliminated.
 408              	.LVL0:
 204:Generated_Source\PSoC5/VDAC8_1.c ****     /* Clear power mask then write in new value */
 205:Generated_Source\PSoC5/VDAC8_1.c ****     VDAC8_1_CR0 &= (uint8)(~VDAC8_1_HS_MASK);
 409              		.loc 1 205 0
 410 0000 054B     		ldr	r3, .L8
 411 0002 1A78     		ldrb	r2, [r3]	@ zero_extendqisi2
 412 0004 02F0FD02 		and	r2, r2, #253
 413 0008 1A70     		strb	r2, [r3]
 206:Generated_Source\PSoC5/VDAC8_1.c ****     VDAC8_1_CR0 |=  (speed & VDAC8_1_HS_MASK);
 414              		.loc 1 206 0
 415 000a 1A78     		ldrb	r2, [r3]	@ zero_extendqisi2
 416 000c 00F00200 		and	r0, r0, #2
 417              	.LVL1:
 418 0010 1043     		orrs	r0, r0, r2
 419 0012 1870     		strb	r0, [r3]
 420 0014 7047     		bx	lr
 421              	.L9:
 422 0016 00BF     		.align	2
 423              	.L8:
 424 0018 2C580040 		.word	1073764396
 425              		.cfi_endproc
 426              	.LFE4:
 427              		.size	VDAC8_1_SetSpeed, .-VDAC8_1_SetSpeed
ARM GAS  C:\Users\Luggi\AppData\Local\Temp\ccMFx9MZ.s 			page 30


 428              		.section	.text.VDAC8_1_SetValue,"ax",%progbits
 429              		.align	2
 430              		.global	VDAC8_1_SetValue
 431              		.thumb
 432              		.thumb_func
 433              		.type	VDAC8_1_SetValue, %function
 434              	VDAC8_1_SetValue:
 435              	.LFB6:
 207:Generated_Source\PSoC5/VDAC8_1.c **** }
 208:Generated_Source\PSoC5/VDAC8_1.c **** 
 209:Generated_Source\PSoC5/VDAC8_1.c **** 
 210:Generated_Source\PSoC5/VDAC8_1.c **** /*******************************************************************************
 211:Generated_Source\PSoC5/VDAC8_1.c **** * Function Name: VDAC8_1_SetRange
 212:Generated_Source\PSoC5/VDAC8_1.c **** ********************************************************************************
 213:Generated_Source\PSoC5/VDAC8_1.c **** *
 214:Generated_Source\PSoC5/VDAC8_1.c **** * Summary:
 215:Generated_Source\PSoC5/VDAC8_1.c **** *  Set one of three current ranges.
 216:Generated_Source\PSoC5/VDAC8_1.c **** *
 217:Generated_Source\PSoC5/VDAC8_1.c **** * Parameters:
 218:Generated_Source\PSoC5/VDAC8_1.c **** *  Range: Sets one of Three valid ranges.
 219:Generated_Source\PSoC5/VDAC8_1.c **** *
 220:Generated_Source\PSoC5/VDAC8_1.c **** * Return:
 221:Generated_Source\PSoC5/VDAC8_1.c **** *  void 
 222:Generated_Source\PSoC5/VDAC8_1.c **** *
 223:Generated_Source\PSoC5/VDAC8_1.c **** * Theory:
 224:Generated_Source\PSoC5/VDAC8_1.c **** *
 225:Generated_Source\PSoC5/VDAC8_1.c **** * Side Effects:
 226:Generated_Source\PSoC5/VDAC8_1.c **** *
 227:Generated_Source\PSoC5/VDAC8_1.c **** *******************************************************************************/
 228:Generated_Source\PSoC5/VDAC8_1.c **** void VDAC8_1_SetRange(uint8 range) 
 229:Generated_Source\PSoC5/VDAC8_1.c **** {
 230:Generated_Source\PSoC5/VDAC8_1.c ****     VDAC8_1_CR0 &= (uint8)(~VDAC8_1_RANGE_MASK);      /* Clear existing mode */
 231:Generated_Source\PSoC5/VDAC8_1.c ****     VDAC8_1_CR0 |= (range & VDAC8_1_RANGE_MASK);      /*  Set Range  */
 232:Generated_Source\PSoC5/VDAC8_1.c ****     VDAC8_1_DacTrim();
 233:Generated_Source\PSoC5/VDAC8_1.c **** }
 234:Generated_Source\PSoC5/VDAC8_1.c **** 
 235:Generated_Source\PSoC5/VDAC8_1.c **** 
 236:Generated_Source\PSoC5/VDAC8_1.c **** /*******************************************************************************
 237:Generated_Source\PSoC5/VDAC8_1.c **** * Function Name: VDAC8_1_SetValue
 238:Generated_Source\PSoC5/VDAC8_1.c **** ********************************************************************************
 239:Generated_Source\PSoC5/VDAC8_1.c **** *
 240:Generated_Source\PSoC5/VDAC8_1.c **** * Summary:
 241:Generated_Source\PSoC5/VDAC8_1.c **** *  Set 8-bit DAC value
 242:Generated_Source\PSoC5/VDAC8_1.c **** *
 243:Generated_Source\PSoC5/VDAC8_1.c **** * Parameters:  
 244:Generated_Source\PSoC5/VDAC8_1.c **** *  value:  Sets DAC value between 0 and 255.
 245:Generated_Source\PSoC5/VDAC8_1.c **** *
 246:Generated_Source\PSoC5/VDAC8_1.c **** * Return: 
 247:Generated_Source\PSoC5/VDAC8_1.c **** *  void 
 248:Generated_Source\PSoC5/VDAC8_1.c **** *
 249:Generated_Source\PSoC5/VDAC8_1.c **** * Theory: 
 250:Generated_Source\PSoC5/VDAC8_1.c **** *
 251:Generated_Source\PSoC5/VDAC8_1.c **** * Side Effects:
 252:Generated_Source\PSoC5/VDAC8_1.c **** *
 253:Generated_Source\PSoC5/VDAC8_1.c **** *******************************************************************************/
 254:Generated_Source\PSoC5/VDAC8_1.c **** void VDAC8_1_SetValue(uint8 value) 
 255:Generated_Source\PSoC5/VDAC8_1.c **** {
ARM GAS  C:\Users\Luggi\AppData\Local\Temp\ccMFx9MZ.s 			page 31


 436              		.loc 1 255 0
 437              		.cfi_startproc
 438              		@ args = 0, pretend = 0, frame = 0
 439              		@ frame_needed = 0, uses_anonymous_args = 0
 440              		@ link register save eliminated.
 441              	.LVL2:
 256:Generated_Source\PSoC5/VDAC8_1.c ****     #if (CY_PSOC5A)
 257:Generated_Source\PSoC5/VDAC8_1.c ****         uint8 VDAC8_1_intrStatus = CyEnterCriticalSection();
 258:Generated_Source\PSoC5/VDAC8_1.c ****     #endif /* CY_PSOC5A */
 259:Generated_Source\PSoC5/VDAC8_1.c **** 
 260:Generated_Source\PSoC5/VDAC8_1.c ****     VDAC8_1_Data = value;                /*  Set Value  */
 442              		.loc 1 260 0
 443 0000 014B     		ldr	r3, .L11
 444 0002 1870     		strb	r0, [r3]
 445 0004 7047     		bx	lr
 446              	.L12:
 447 0006 00BF     		.align	2
 448              	.L11:
 449 0008 835B0040 		.word	1073765251
 450              		.cfi_endproc
 451              	.LFE6:
 452              		.size	VDAC8_1_SetValue, .-VDAC8_1_SetValue
 453              		.section	.text.VDAC8_1_DacTrim,"ax",%progbits
 454              		.align	2
 455              		.global	VDAC8_1_DacTrim
 456              		.thumb
 457              		.thumb_func
 458              		.type	VDAC8_1_DacTrim, %function
 459              	VDAC8_1_DacTrim:
 460              	.LFB7:
 261:Generated_Source\PSoC5/VDAC8_1.c **** 
 262:Generated_Source\PSoC5/VDAC8_1.c ****     /* PSOC5A requires a double write */
 263:Generated_Source\PSoC5/VDAC8_1.c ****     /* Exit Critical Section */
 264:Generated_Source\PSoC5/VDAC8_1.c ****     #if (CY_PSOC5A)
 265:Generated_Source\PSoC5/VDAC8_1.c ****         VDAC8_1_Data = value;
 266:Generated_Source\PSoC5/VDAC8_1.c ****         CyExitCriticalSection(VDAC8_1_intrStatus);
 267:Generated_Source\PSoC5/VDAC8_1.c ****     #endif /* CY_PSOC5A */
 268:Generated_Source\PSoC5/VDAC8_1.c **** }
 269:Generated_Source\PSoC5/VDAC8_1.c **** 
 270:Generated_Source\PSoC5/VDAC8_1.c **** 
 271:Generated_Source\PSoC5/VDAC8_1.c **** /*******************************************************************************
 272:Generated_Source\PSoC5/VDAC8_1.c **** * Function Name: VDAC8_1_DacTrim
 273:Generated_Source\PSoC5/VDAC8_1.c **** ********************************************************************************
 274:Generated_Source\PSoC5/VDAC8_1.c **** *
 275:Generated_Source\PSoC5/VDAC8_1.c **** * Summary:
 276:Generated_Source\PSoC5/VDAC8_1.c **** *  Set the trim value for the given range.
 277:Generated_Source\PSoC5/VDAC8_1.c **** *
 278:Generated_Source\PSoC5/VDAC8_1.c **** * Parameters:
 279:Generated_Source\PSoC5/VDAC8_1.c **** *  range:  1V or 4V range.  See constants.
 280:Generated_Source\PSoC5/VDAC8_1.c **** *
 281:Generated_Source\PSoC5/VDAC8_1.c **** * Return:
 282:Generated_Source\PSoC5/VDAC8_1.c **** *  void
 283:Generated_Source\PSoC5/VDAC8_1.c **** *
 284:Generated_Source\PSoC5/VDAC8_1.c **** * Theory: 
 285:Generated_Source\PSoC5/VDAC8_1.c **** *
 286:Generated_Source\PSoC5/VDAC8_1.c **** * Side Effects:
 287:Generated_Source\PSoC5/VDAC8_1.c **** *
ARM GAS  C:\Users\Luggi\AppData\Local\Temp\ccMFx9MZ.s 			page 32


 288:Generated_Source\PSoC5/VDAC8_1.c **** *******************************************************************************/
 289:Generated_Source\PSoC5/VDAC8_1.c **** void VDAC8_1_DacTrim(void) 
 290:Generated_Source\PSoC5/VDAC8_1.c **** {
 461              		.loc 1 290 0
 462              		.cfi_startproc
 463              		@ args = 0, pretend = 0, frame = 0
 464              		@ frame_needed = 0, uses_anonymous_args = 0
 465              		@ link register save eliminated.
 291:Generated_Source\PSoC5/VDAC8_1.c ****     uint8 mode;
 292:Generated_Source\PSoC5/VDAC8_1.c **** 
 293:Generated_Source\PSoC5/VDAC8_1.c ****     mode = (uint8)((VDAC8_1_CR0 & VDAC8_1_RANGE_MASK) >> 2) + VDAC8_1_TRIM_M7_1V_RNG_OFFSET;
 466              		.loc 1 293 0
 467 0000 064B     		ldr	r3, .L14
 468 0002 1B78     		ldrb	r3, [r3]	@ zero_extendqisi2
 469 0004 C3F38103 		ubfx	r3, r3, #2, #2
 470              	.LVL3:
 294:Generated_Source\PSoC5/VDAC8_1.c ****     VDAC8_1_TR = CY_GET_XTND_REG8((uint8 *)(VDAC8_1_DAC_TRIM_BASE + mode));
 471              		.loc 1 294 0
 472 0008 03F19243 		add	r3, r3, #1224736768
 473              	.LVL4:
 474 000c 0633     		adds	r3, r3, #6
 475              	.LVL5:
 476 000e 93F83831 		ldrb	r3, [r3, #312]	@ zero_extendqisi2
 477              	.LVL6:
 478 0012 DBB2     		uxtb	r3, r3
 479 0014 024A     		ldr	r2, .L14+4
 480 0016 1370     		strb	r3, [r2]
 481 0018 7047     		bx	lr
 482              	.L15:
 483 001a 00BF     		.align	2
 484              	.L14:
 485 001c 2C580040 		.word	1073764396
 486 0020 0B460040 		.word	1073759755
 487              		.cfi_endproc
 488              	.LFE7:
 489              		.size	VDAC8_1_DacTrim, .-VDAC8_1_DacTrim
 490              		.section	.text.VDAC8_1_SetRange,"ax",%progbits
 491              		.align	2
 492              		.global	VDAC8_1_SetRange
 493              		.thumb
 494              		.thumb_func
 495              		.type	VDAC8_1_SetRange, %function
 496              	VDAC8_1_SetRange:
 497              	.LFB5:
 229:Generated_Source\PSoC5/VDAC8_1.c ****     VDAC8_1_CR0 &= (uint8)(~VDAC8_1_RANGE_MASK);      /* Clear existing mode */
 498              		.loc 1 229 0
 499              		.cfi_startproc
 500              		@ args = 0, pretend = 0, frame = 0
 501              		@ frame_needed = 0, uses_anonymous_args = 0
 502              	.LVL7:
 503 0000 08B5     		push	{r3, lr}
 504              		.cfi_def_cfa_offset 8
 505              		.cfi_offset 3, -8
 506              		.cfi_offset 14, -4
 230:Generated_Source\PSoC5/VDAC8_1.c ****     VDAC8_1_CR0 |= (range & VDAC8_1_RANGE_MASK);      /*  Set Range  */
 507              		.loc 1 230 0
 508 0002 064B     		ldr	r3, .L18
ARM GAS  C:\Users\Luggi\AppData\Local\Temp\ccMFx9MZ.s 			page 33


 509 0004 1A78     		ldrb	r2, [r3]	@ zero_extendqisi2
 510 0006 02F0F302 		and	r2, r2, #243
 511 000a 1A70     		strb	r2, [r3]
 231:Generated_Source\PSoC5/VDAC8_1.c ****     VDAC8_1_DacTrim();
 512              		.loc 1 231 0
 513 000c 1A78     		ldrb	r2, [r3]	@ zero_extendqisi2
 514 000e 00F00C00 		and	r0, r0, #12
 515              	.LVL8:
 516 0012 1043     		orrs	r0, r0, r2
 517 0014 1870     		strb	r0, [r3]
 232:Generated_Source\PSoC5/VDAC8_1.c **** }
 518              		.loc 1 232 0
 519 0016 FFF7FEFF 		bl	VDAC8_1_DacTrim
 520              	.LVL9:
 521 001a 08BD     		pop	{r3, pc}
 522              	.L19:
 523              		.align	2
 524              	.L18:
 525 001c 2C580040 		.word	1073764396
 526              		.cfi_endproc
 527              	.LFE5:
 528              		.size	VDAC8_1_SetRange, .-VDAC8_1_SetRange
 529              		.section	.text.VDAC8_1_Init,"ax",%progbits
 530              		.align	2
 531              		.global	VDAC8_1_Init
 532              		.thumb
 533              		.thumb_func
 534              		.type	VDAC8_1_Init, %function
 535              	VDAC8_1_Init:
 536              	.LFB0:
  56:Generated_Source\PSoC5/VDAC8_1.c ****     VDAC8_1_CR0 = (VDAC8_1_MODE_V );
 537              		.loc 1 56 0
 538              		.cfi_startproc
 539              		@ args = 0, pretend = 0, frame = 0
 540              		@ frame_needed = 0, uses_anonymous_args = 0
 541 0000 10B5     		push	{r4, lr}
 542              		.cfi_def_cfa_offset 8
 543              		.cfi_offset 4, -8
 544              		.cfi_offset 14, -4
  57:Generated_Source\PSoC5/VDAC8_1.c **** 
 545              		.loc 1 57 0
 546 0002 0024     		movs	r4, #0
 547 0004 054B     		ldr	r3, .L22
 548 0006 1C70     		strb	r4, [r3]
  63:Generated_Source\PSoC5/VDAC8_1.c ****     #endif /* (VDAC8_1_DEFAULT_DATA_SRC != 0 ) */
 549              		.loc 1 63 0
 550 0008 0133     		adds	r3, r3, #1
 551 000a 1C70     		strb	r4, [r3]
  72:Generated_Source\PSoC5/VDAC8_1.c **** 
 552              		.loc 1 72 0
 553 000c 0420     		movs	r0, #4
 554 000e FFF7FEFF 		bl	VDAC8_1_SetRange
 555              	.LVL10:
  75:Generated_Source\PSoC5/VDAC8_1.c **** }
 556              		.loc 1 75 0
 557 0012 2046     		mov	r0, r4
 558 0014 FFF7FEFF 		bl	VDAC8_1_SetSpeed
ARM GAS  C:\Users\Luggi\AppData\Local\Temp\ccMFx9MZ.s 			page 34


 559              	.LVL11:
 560 0018 10BD     		pop	{r4, pc}
 561              	.L23:
 562 001a 00BF     		.align	2
 563              	.L22:
 564 001c 2C580040 		.word	1073764396
 565              		.cfi_endproc
 566              	.LFE0:
 567              		.size	VDAC8_1_Init, .-VDAC8_1_Init
 568              		.section	.text.VDAC8_1_Start,"ax",%progbits
 569              		.align	2
 570              		.global	VDAC8_1_Start
 571              		.thumb
 572              		.thumb_func
 573              		.type	VDAC8_1_Start, %function
 574              	VDAC8_1_Start:
 575              	.LFB2:
 134:Generated_Source\PSoC5/VDAC8_1.c ****     /* Hardware initiazation only needs to occure the first time */
 576              		.loc 1 134 0
 577              		.cfi_startproc
 578              		@ args = 0, pretend = 0, frame = 0
 579              		@ frame_needed = 0, uses_anonymous_args = 0
 580 0000 08B5     		push	{r3, lr}
 581              		.cfi_def_cfa_offset 8
 582              		.cfi_offset 3, -8
 583              		.cfi_offset 14, -4
 136:Generated_Source\PSoC5/VDAC8_1.c ****     { 
 584              		.loc 1 136 0
 585 0002 074B     		ldr	r3, .L27
 586 0004 1B78     		ldrb	r3, [r3]	@ zero_extendqisi2
 587 0006 23B9     		cbnz	r3, .L25
 138:Generated_Source\PSoC5/VDAC8_1.c ****         VDAC8_1_initVar = 1u;
 588              		.loc 1 138 0
 589 0008 FFF7FEFF 		bl	VDAC8_1_Init
 590              	.LVL12:
 139:Generated_Source\PSoC5/VDAC8_1.c ****     }
 591              		.loc 1 139 0
 592 000c 0122     		movs	r2, #1
 593 000e 044B     		ldr	r3, .L27
 594 0010 1A70     		strb	r2, [r3]
 595              	.L25:
 143:Generated_Source\PSoC5/VDAC8_1.c **** 
 596              		.loc 1 143 0
 597 0012 FFF7FEFF 		bl	VDAC8_1_Enable
 598              	.LVL13:
 146:Generated_Source\PSoC5/VDAC8_1.c **** }
 599              		.loc 1 146 0
 600 0016 6420     		movs	r0, #100
 601 0018 FFF7FEFF 		bl	VDAC8_1_SetValue
 602              	.LVL14:
 603 001c 08BD     		pop	{r3, pc}
 604              	.L28:
 605 001e 00BF     		.align	2
 606              	.L27:
 607 0020 00000000 		.word	.LANCHOR0
 608              		.cfi_endproc
 609              	.LFE2:
ARM GAS  C:\Users\Luggi\AppData\Local\Temp\ccMFx9MZ.s 			page 35


 610              		.size	VDAC8_1_Start, .-VDAC8_1_Start
 611              		.global	VDAC8_1_initVar
 612              		.bss
 613              		.set	.LANCHOR0,. + 0
 614              		.type	VDAC8_1_initVar, %object
 615              		.size	VDAC8_1_initVar, 1
 616              	VDAC8_1_initVar:
 617 0000 00       		.space	1
 618              		.text
 619              	.Letext0:
 620              		.file 2 "Generated_Source\\PSoC5\\cytypes.h"