ARM GAS  C:\Users\Luggi\AppData\Local\Temp\ccVA5Luv.s 			page 1


   1              		.syntax unified
   2              		.cpu cortex-m3
   3              		.fpu softvfp
   4              		.eabi_attribute 20, 1
   5              		.eabi_attribute 21, 1
   6              		.eabi_attribute 23, 3
   7              		.eabi_attribute 24, 1
   8              		.eabi_attribute 25, 1
   9              		.eabi_attribute 26, 1
  10              		.eabi_attribute 30, 1
  11              		.eabi_attribute 34, 1
  12              		.eabi_attribute 18, 4
  13              		.thumb
  14              		.file	"VDAC8.c"
  15              		.text
  16              	.Ltext0:
  17              		.section	.gnu.lto_.profile.d234694,"",%progbits
  18 0000 789C6366 		.ascii	"x\234cf```a\200\000F\206rK\000\001\233\000\271"
  18      60606061 
  18      80004686 
  18      724B0001 
  18      9B00B9
  19              		.text
  20              		.section	.gnu.lto_.inline.d234694,"",%progbits
  21 0000 789C6366 		.ascii	"x\234cf\300\016\316Bi\016\006\006N\016F\006&\236\007"
  21      C00ECE42 
  21      690E0606 
  21      4E0E4606 
  21      269E07
  22 0013 B10C6C0B 		.ascii	"\261\014l\013\344\231@b\214\230BL\014\\\234\214\214"
  22      E4994062 
  22      8C98424C 
  22      0C5C9C8C 
  22      8C
  23 0024 40190666 		.ascii	"@\031\006f\2700\323\005~\026\220\0343\003\0133P9\220"
  23      B830D305 
  23      7E16901C 
  23      33030B33 
  23      503990
  24 0037 0B57CE02 		.ascii	"\013W\316\002R\316\300\304\267!\027.\304\312\300-\214"
  24      52CEC0C4 
  24      B721172E 
  24      C4CAC02D 
  24      8C
  25 0048 CB04462E 		.ascii	"\313\004F. \301\306\300)\005\324\303\262@\036a+7\310"
  25      20C1C6C0 
  25      2905D4C3 
  25      B2401E61 
  25      2B37C8
  26 005b 3110929D 		.ascii	"1\020\222\235\201[\016\310\346\370e\202&\015\326\014"
  26      815B0EC8 
  26      E6F86582 
  26      260DD60C 
  27 006b 26180005 		.ascii	"&\030\000\005\002\023B"
  27      021342
  28              		.text
  29              		.section	.gnu.lto_.jmpfuncs.d234694,"",%progbits
ARM GAS  C:\Users\Luggi\AppData\Local\Temp\ccVA5Luv.s 			page 2


  30 0000 789C6366 		.ascii	"x\234cf\300\016R\2414\007\0203200122\3263\203\010\026"
  30      C00E52A1 
  30      34071033 
  30      32303031 
  30      3232D633 
  31 0017 06065610 		.ascii	"\006\006V\020\315\300\006\224`\372\310\304x\376\301"
  31      CDC00694 
  31      60FAC8C4 
  31      78FEC1
  32 0026 E17E9E17 		.ascii	"\341~\236\027L?\231\030\230\030\030\2273JAD\227\\\274"
  32      4C3F9918 
  32      98181897 
  32      334A4144 
  32      975CBC
  33 0039 7F91192C 		.ascii	"\177\221\031,\312\302\300\270\002(\312\016U>\377_\313"
  33      CAC2C0B8 
  33      0228CA0E 
  33      553EFF5F 
  33      CB
  34 004a 0646B044 		.ascii	"\006F\260D\012\003\343J\240\004\020\000\000\350\210"
  34      0A03E34A 
  34      A0041000 
  34      00E888
  35 0059 1664     		.ascii	"\026d"
  36              		.text
  37              		.section	.gnu.lto_.pureconst.d234694,"",%progbits
  38 0000 789C6366 		.ascii	"x\234cf``\020d\200\000\016\006)F)&)f)\026)V)6)v\011"
  38      60601064 
  38      80000E06 
  38      29462926 
  38      29662916 
  39 001b 0009CB01 		.ascii	"\000\011\313\001\007"
  39      07
  40              		.text
  41              		.section	.gnu.lto_VDAC8_Enable.d234694,"",%progbits
  42 0000 789C7D91 		.ascii	"x\234}\221?HBQ\024\306\3179W_\202\004\321$.\321\344"
  42      3F484251 
  42      14C6CF39 
  42      575F8204 
  42      D1242ED1 
  43 0015 D616B586 		.ascii	"\326\026\265\206\201k`4I\021\366\326\004\251\331\367"
  43      816B6034 
  43      4911F6D6 
  43      04A9D9F7 
  44 0025 CA289ACC 		.ascii	"\312(\232\314\206\204t\011D\313\312\250%\203@\232\234"
  44      86847409 
  44      44CBCAA8 
  44      2583409A 
  44      9C
  45 0036 8A080A0C 		.ascii	"\212\010\012\014\314\341E5\004\231a\274!\354\334\367"
  45      CCE14535 
  45      049961BC 
  45      21ECDCF7 
  46 0046 A820A90B 		.ascii	"\250 \251\013\367\334?\357;\277\363\335\363\004t\016"
  46      F7DC3FEF 
  46      3BBFF3DD 
  46      F304740E 
ARM GAS  C:\Users\Luggi\AppData\Local\Temp\ccVA5Luv.s 			page 3


  47 0056 2FCF4304 		.ascii	"/\317C\004\350\347\025\005 %\316\001t\027!\312\015 "
  47      E8E71505 
  47      2025CE01 
  47      741721CA 
  47      0D20
  48 0068 C40863F8 		.ascii	"\304\010c\370D\015\302D\271\220r\373\262\232\246\275"
  48      440DC244 
  48      B99072FB 
  48      B29AA6BD 
  49 0078 2C943C4B 		.ascii	",\224<K\036\223\000\232dc0\207>`M#\376q\343V\342\254"
  49      1E93009A 
  49      64633087 
  49      3E604D23 
  49      FE71E356 
  50 008e E9B1BF61 		.ascii	"\351\261\277a\036\025\306C\261\267\254\265\333Mc\255"
  50      1E15C643 
  50      B1B7ACB5 
  50      DB4D63AD 
  51 009e 32842E02 		.ascii	"2\204.\002\223\270\030\007\247\014\212\014\000\006\353"
  51      93B81807 
  51      A70C8A0C 
  51      0006EB
  52 00ad 65D17B22 		.ascii	"e\321{\"\271\212*\236\265V\257\323\343\022\361N\322"
  52      B98A2A9E 
  52      B556AFD3 
  52      E312F14E 
  52      D2
  53 00be C1FAED51 		.ascii	"\301\372\355Q[<\222I\224_\3265\207,xg\\\\\272\254+\220"
  53      5B3C9249 
  53      945FD635 
  53      872C7867 
  53      5C5CBAAC 
  54 00d4 C7E76CAB 		.ascii	"\307\347l\253\336\235\301M=\216&\011\334F/\356 \277"
  54      DE9DC14D 
  54      3D8E2609 
  54      DC462FEE 
  54      20BF
  55 00e6 110B9841 		.ascii	"\021\013\230A\250\342\342\233b\343\204M<IVR\212LG\007"
  55      A8E2E29B 
  55      62E3844D 
  55      3C495652 
  55      8A4C4707 
  56 00fa E02E2BB9 		.ascii	"\340.+\271h\022\245\344?\330\036\303\030\001\226\303"
  56      6812A5E4 
  56      3FD81EC3 
  56      180196C3 
  57 010a 5A7AD246 		.ascii	"Zz\322F:9ec\253\376\320e\3319\376r\270Rz\275\022?\224"
  57      3A396563 
  57      ABFED065 
  57      D939FE72 
  57      B8527ABD 
  58 0121 FD6F4AF1 		.ascii	"\375oJ\361\227%\211\350\360\360g\366\201\345A\201\032"
  58      972589E8 
  58      F0F067F6 
  58      81E54181 
  58      1A
  59 0132 EAE5D380 		.ascii	"\352\345\323\200T\313\377`p#\271w\334\214\276\200:\253"
ARM GAS  C:\Users\Luggi\AppData\Local\Temp\ccVA5Luv.s 			page 4


  59      54CBFF60 
  59      7023B977 
  59      DC8CBE80 
  59      3AAB
  60 0144 46A7E7D4 		.ascii	"F\247\347\324\231\251`d>\032VCc\301\210\177041:\342"
  60      99A96064 
  60      3E1A5643 
  60      63C1887F 
  60      3034313A 
  61 0159 1F1E08C3 		.ascii	"\037\036\010\303'\216\366\240P"
  61      278EF6A0 
  61      50
  62              		.text
  63              		.section	.gnu.lto_VDAC8_Stop.d234694,"",%progbits
  64 0000 789C6366 		.ascii	"x\234cf\300\004R@\274\231\221\201A\021H32302M8\307\300"
  64      C0045240 
  64      BC999181 
  64      41114833 
  64      32333032 
  65 0018 D0C8C1C4 		.ascii	"\320\310\301\304\310\010b002\32431\3263\276d\372\310"
  65      C8086230 
  65      3032D433 
  65      31D633BE 
  65      64FAC8
  66 002b C438E1C0 		.ascii	"\3048\341\300\352\031\334\352K\033\032\032>4\335\226"
  66      EA19DCEA 
  66      4B1B1A1A 
  66      3E34DD96 
  67 003b 6895F8C9 		.ascii	"h\225\370\311\304\300\360\231\011b\014\343rFu\006\240"
  67      C4C0F099 
  67      09620CE3 
  67      72467506 
  67      A0
  68 004c 9A8F2D7F 		.ascii	"\232\217-\177\257s\263\265\000\325\010@\344\030W0\262"
  68      AF73B3B5 
  68      00D50840 
  68      E4185730 
  68      B2
  69 005d 018D6758 		.ascii	"\001\215gX/t\240\341\377\377\317o&\255\260f\342`b\370"
  69      2F74A0E1 
  69      FFFFCF6F 
  69      26ADB066 
  69      E26062F8 
  70 0071 C904B40C 		.ascii	"\311\004\264\014H\260\202\0106\020\301\300\360\004\250"
  70      48B08208 
  70      3610C1C0 
  70      F004A8
  71 0080 1E64E953 		.ascii	"\036d\351S&&\020\315|\213\361\320\267\256{kC@F|g\002"
  71      262610CD 
  71      7C8BF1D0 
  71      B7AE7B6B 
  71      4340467C 
  72 0096 B960F2ED 		.ascii	"\271`\362\355\315\377\231_0\375dbZ\321\336\330\300\002"
  72      CDFF995F 
  72      30FD6462 
  72      5AD1DED8 
  72      C002
ARM GAS  C:\Users\Luggi\AppData\Local\Temp\ccVA5Luv.s 			page 5


  73 00a8 B2F0FE93 		.ascii	"\262\360\376\223\363\0279\300B\014 \356\333\245\337"
  73      F31739C0 
  73      420C20EE 
  73      DBA5DF
  74 00b7 1EF0CE65 		.ascii	"\036\360\316e\234\335\330\302\370\223\211\231q%\243"
  74      9CDDD8C2 
  74      F8938999 
  74      7125A3
  75 00c6 14E32A46 		.ascii	"\024\343*F\240\037\031W3\316ed\270\305\330\374\203\015"
  75      A01F1957 
  75      33CE6564 
  75      B8C5D8FC 
  75      830D
  76 00d8 621C33C4 		.ascii	"b\0343\304\304\345G\237\037\344\005ig\376\315\310\300"
  76      C4E5479F 
  76      1FE40569 
  76      67FECDC8 
  76      C0
  77 00e9 B806A814 		.ascii	"\270\006\250\024h\353$F\220\032|\246\255\005\232\006"
  77      68EB2446 
  77      901A7CA6 
  77      AD059A06 
  78 00f9 348301EC 		.ascii	"4\203\001\354\304gk\343 f\262\002\265L_\364\3409;\330"
  78      C4676BE3 
  78      2066B202 
  78      B54C5FF4 
  78      E0393BD8 
  79 010d 3D3B604E 		.ascii	"=;`N\354\330\371\35123\302\224upS\326\243\271\011d\004"
  79      ECD8F9E9 
  79      3233C294 
  79      757053D6 
  79      A3B90964 
  80 0122 861B70EA 		.ascii	"\206\033p\352\336\000v\003\033\303=\306\306\003\267"
  80      DE007603 
  80      1BC33DC6 
  80      C603B7
  81 0131 BD41AA41 		.ascii	"\275A\252A\021\361\004\030\222\300\300\003\206\206\274"
  81      11F10418 
  81      92C0C003 
  81      8686BC
  82 0140 7B6A5E6A 		.ascii	"{j^jQbIjJ|p~iQrjL@p\276\263iL\230\213\243\263\205^2"
  82      5162496A 
  82      4A7C707E 
  82      6951726A 
  82      4C4070BE 
  83 015e 03009CB0 		.ascii	"\003\000\234\260\242&"
  83      A226
  84              		.text
  85              		.section	.gnu.lto_VDAC8_SetSpeed.d234694,"",%progbits
  86 0000 789C8D51 		.ascii	"x\234\215QK(\204Q\024>\337\275\363\370\275\"\253i6J"
  86      4B288451 
  86      143EDFBD 
  86      F3F8BD22 
  86      AB69364A 
  87 0014 6952B253 		.ascii	"iR\262SlD\224\235\224\262R\022\377\026y\254\375c\206"
  87      6C44949D 
  87      94B25212 
ARM GAS  C:\Users\Luggi\AppData\Local\Temp\ccVA5Luv.s 			page 6


  87      FF1679AC 
  87      FD6386
  88 0027 A2449448 		.ascii	"\242D\224HJ4y?wB\376\260e\262R\026\210Qc#\2140\013q"
  88      4A34793F 
  88      7742FEB0 
  88      65B25216 
  88      88516323 
  89 003f CEFC5694 		.ascii	"\316\374V\224\334\272\347\234{\373\036\347\236\253\351"
  89      DCBAE79C 
  89      7BFB1EE7 
  89      9EABE9
  90 004e F7F2F376 		.ascii	"\367\362\363v)\242\000gh\202\032=%\012\032\012\220\202"
  90      29A20067 
  90      68821A3D 
  90      250A1A0A 
  90      9082
  91 0060 40BD0ABD 		.ascii	"@\275\012\275\270WO\012\243\366\312dF bY\326\343\\\302"
  91      B8574F0A 
  91      A3F6CA64 
  91      46206259 
  91      D6E35CC2 
  92 0074 D7EF4B32 		.ascii	"\327\357K2-\241\034\031, \300\220\220}s`\350|\020\327"
  92      2DA11C19 
  92      2C20C090 
  92      907D7360 
  92      E87C10D7 
  93 0088 1391C1FD 		.ascii	"\023\221\301\375\354\202y\313\352\263w\327\255\012$"
  93      EC8279CB 
  93      EAB377D7 
  93      AD0A24
  94 0097 5973119A 		.ascii	"Ys\021\232\031(\362\243\320O|AXB\201\200\237\302\037"
  94      1928F2A3 
  94      D04F7C41 
  94      58428180 
  94      9FC21F
  95 00aa E7199E30 		.ascii	"\347\031\2360k\3478\232X\206\007\2347rm\353\3633q2\036"
  95      6BE7389A 
  95      5886079C 
  95      37726DEB 
  95      F3337132 
  96 00bf 0FE874C5 		.ascii	"\017\350t\305\034\245%\270%x t\257\224\206\004\242\030"
  96      1CA525B8 
  96      25782074 
  96      AF948604 
  96      A218
  97 00d1 6FE9FB8E 		.ascii	"o\351\373\216\017\234\365\005\016_\207\036v\312E\355"
  97      0F9CF505 
  97      0E5F871E 
  97      76CA45ED 
  98 00e1 4DC9236E 		.ascii	"M\311#n\247\216\007\262\342*\251\364\342f\320r\211\367"
  98      A78E07B2 
  98      E22AA9F4 
  98      E266D072 
  98      89F7
  99 00f3 552C7A66 		.ascii	"U,zf\244\256H\216\211h|:m\006\323\3010\267\354\302\012"
  99      A4AE488E 
  99      89687C3A 
ARM GAS  C:\Users\Luggi\AppData\Local\Temp\ccVA5Luv.s 			page 7


  99      6D06D3C1 
  99      30B7ECC2 
 100 0108 FC58058F 		.ascii	"\374X\005\217\011k\230\001] \364\356q\344\264\2438\273"
 100      096B9801 
 100      5D20F4EE 
 100      71E4B4A3 
 100      38BB
 101 011a 77399C29 		.ascii	"w9\234)t\327\007\277g\235\241\354:\006\301\374\245\266"
 101      74D707BF 
 101      679DA1EC 
 101      3A06C1FC 
 101      A5B6
 102 012c C16AAC41 		.ascii	"\301j\254A\251\026\237\313\034I\367_\214\315\037\376"
 102      A9169FCB 
 102      1C49F75F 
 102      8CCD1FFE 
 103 013c DE37250E 		.ascii	"\3367%\016\321\353\243\021\307\237'\273\225\262\017"
 103      D1EBA311 
 103      C79F27BB 
 103      95B20F
 104 014b BD7C430C 		.ascii	"\275|C\014\226d\340\377:\332Nud\320%\202\366A\255\240"
 104      9664E0FF 
 104      3ADA4E75 
 104      64D02582 
 104      F641ADA0 
 105 015f E56763FC 		.ascii	"\345gc\374K<J\036l^\215\331fv6w\233\255M\365\355=\235"
 105      4B3C4A1E 
 105      6C5E8DD9 
 105      66763677 
 105      9BAD4DF5 
 106 0176 2D66635D 		.ascii	"-fc]}{UIcCueUiq\013\271\273:L\263\365\013\261\007\272"
 106      7D7B5549 
 106      63437565 
 106      5569710B 
 106      B9BB3A4C 
 107 0190 5F       		.ascii	"_"
 108              		.text
 109              		.section	.gnu.lto_VDAC8_SetValue.d234694,"",%progbits
 110 0000 789C6366 		.ascii	"x\234cf\300\004R@\314\311\310\300\240\016\244\031\231"
 110      C0045240 
 110      CCC9C8C0 
 110      A00EA419 
 110      99
 111 0011 19189926 		.ascii	"\031\030\231&\234c`h\344`bd\0041\030\030\031\352\231"
 111      9C636068 
 111      E4606264 
 111      04311818 
 111      19EA99
 112 0024 18EB195F 		.ascii	"\030\353\031_2}db\234p`\365\014n\365\245\015\015\015"
 112      327D6462 
 112      9C7060F5 
 112      0C6EF5A5 
 112      0D0D0D
 113 0037 1F1EFD97 		.ascii	"\037\036\375\227h\225\370\311\304\300\360\231\011b\014"
 113      6895F8C9 
 113      C4C0F099 
 113      09620C
ARM GAS  C:\Users\Luggi\AppData\Local\Temp\ccVA5Luv.s 			page 8


 114 0046 E3724675 		.ascii	"\343rFu\240\222\317\253\033\24603+12\000\331\033.\236"
 114      A092CFAB 
 114      1BA63033 
 114      2B313200 
 114      D91B2E9E 
 115 005a FDC7AEBA 		.ascii	"\375\307\256\272\270\241\241\351\300\356u\015\016\214"
 115      B8A1A1E9 
 115      C0EE750D 
 115      0E8C
 116 0068 3F8166AE 		.ascii	"?\201f\256`d\006\352`\324\221b\324\224b\000\01200\256"
 116      606406EA 
 116      60D49162 
 116      D4946200 
 116      0A3030AE 
 117 007c 64540529 		.ascii	"dT\005)\376\330\362\367:7[\013\320l\001\210\231\214"
 117      FED8F2F7 
 117      3A375B0B 
 117      D06C0188 
 117      998C
 118 008e AB18D980 		.ascii	"\253\030\331\200\316bX/t\240\341\377\377\317\377'w\250"
 118      CE62582F 
 118      74A0E1FF 
 118      FFCFFF27 
 118      77A8
 119 00a0 B3B0004D 		.ascii	"\263\260\000M\000\251gx\002T\001r\336S&&\020\315|\213"
 119      00A96778 
 119      02540172 
 119      DE532626 
 119      10CD7C8B 
 120 00b4 F1D0B48D 		.ascii	"\361\320\264\215\307ZXA\232\200\206m\337\276`#\373\013"
 120      C75A5841 
 120      9A80866D 
 120      DFBE6023 
 120      FB0B
 121 00c6 A69F4C4C 		.ascii	"\246\237LLM\333\033\033X@\346\337\177r\376\"\007X\210"
 121      4DDB1B1B 
 121      5840E6DF 
 121      7F72FE22 
 121      075888
 122 00d9 01C4DDF9 		.ascii	"\001\304\335\371\364\253\307\\\306\331\215-\215\007"
 122      F4ABC75C 
 122      C6D98D2D 
 122      8D07
 123 00e7 587F3231 		.ascii	"X\177213\256f\224b\\\303\010\014\013\306\265\214s\031"
 123      33AE6694 
 123      625CC308 
 123      0C0BC6B5 
 123      8C7319
 124 00fa BF0355DD 		.ascii	"\277\003U\335cl<\2603\010d \310{O\200N\005Z\004\324"
 124      636C3CB0 
 124      33086420 
 124      C87B4F80 
 124      4E055A04 
 125 010f 2CEF9E9A 		.ascii	",\357\236\232\227Z\224X\222\232\022\037\234_Z\224\234"
 125      975A9458 
 125      929A121F 
 125      9C5F5A94 
ARM GAS  C:\Users\Luggi\AppData\Local\Temp\ccVA5Luv.s 			page 9


 125      9C
 126 0120 1A13109C 		.ascii	"\032\023\020\234\357l\032\023\346\342\350l\241\227\314"
 126      EF6C1A13 
 126      E6E2E86C 
 126      A197CC
 127 012f C05A9698 		.ascii	"\300Z\226\230S\232\012\000-\232j\265"
 127      539A0A00 
 127      2D9A6AB5 
 128              		.text
 129              		.section	.gnu.lto_VDAC8_DacTrim.d234694,"",%progbits
 130 0000 789C6552 		.ascii	"x\234eRMh\023A\024\236of\263Iv\015\026O\232K\301\202"
 130      4D681341 
 130      149E6F66 
 130      B349760D 
 130      164F9A4B 
 131 0016 45102F22 		.ascii	"E\020/\"x\225\012^\013\001\017R\020is\324@\321s7i\032"
 131      78950A5E 
 131      0B010F52 
 131      106973D4 
 131      40D17337 
 132 002c B108ADA1 		.ascii	"\261\010\255\241\207\376P\244\224\320\330\250\255VQ"
 132      87FE50A4 
 132      94D0D8A8 
 132      AD5651
 133 003b 04210615 		.ascii	"\004!\006\025\241\305\"H\013Ab\301\204&\0364%\322\272"
 133      A1C52248 
 133      0B4162C1 
 133      84261E34 
 133      25D2BA
 134 004e A0C6F776 		.ascii	"\240\306\367v\226\242\2700o\366\275\375\276\357\275"
 134      96A2B830 
 134      6FF6BDFD 
 134      BEEFBD
 135 005d F96695F8 		.ascii	"\371f\225\370\377\211\322Z\224B\034\243\035J@\216\277"
 135      FF89D25A 
 135      94421CA3 
 135      1D4A408E 
 135      BF
 136 006e 13221992 		.ascii	"\023\"\031\222\000\277\010\210!\211!4\344\216\304x\261"
 136      00BF0888 
 136      21892134 
 136      E48EC478 
 136      B1
 137 007f 306977E7 		.ascii	"0iw\347\034\307if\247\216\214\034v\211\326\222Z\006"
 137      1CC76966 
 137      A78E8C1C 
 137      7689D692 
 137      5A06
 138 0091 0BE81684 		.ascii	"\013\350\026\204\331v\033\013\021u\024\374\376%\367"
 138      D9761B0B 
 138      117514FC 
 138      FE25F7
 139 00a0 BA19EE9A 		.ascii	"\272\031\356\232s\234\324\326j\343\215\355L:\351\255"
 139      739CD4D6 
 139      6AE38DED 
 139      4C3AE9AD 
 140 00b0 76BBD325 		.ascii	"v\273\323%\355<\0241q\"\212\343Q\177\020\"\354\244\177"
ARM GAS  C:\Users\Luggi\AppData\Local\Temp\ccVA5Luv.s 			page 10


 140      ED3C1431 
 140      71228AE3 
 140      517F1022 
 140      ECA47F
 141 00c3 6DDA669A 		.ascii	"m\332f\232\032t\340.\272\2648\026a\2026\256,\035*:\355"
 141      1A74E02E 
 141      BAB43816 
 141      618236AE 
 141      2C1D2A3A 
 142 00d8 F64A6DA2 		.ascii	"\366Jm\242~\312\210@\270R*\016\006\005\025\340`r\032"
 142      7ECA8840 
 142      B8522A0E 
 142      060515E0 
 142      60721A
 143 00eb 148C0D71 		.ascii	"\024\214\015q\036\346`Q0l\376\"D\225\026\037\254F\011"
 143      1EE66051 
 143      306CFE22 
 143      4495161F 
 143      AC4609
 144 00fe EDAA8CD2 		.ascii	"\355\252\214\322\356\350\327\265\213\334eO*\032\342"
 144      EEE8D7B5 
 144      8BDC654F 
 144      2A1AE2
 145 010d F3D4AB4C 		.ascii	"\363\324\253L\244.]\031\310/'\035\203\347\372T]\177"
 145      A42E5D19 
 145      C82F271D 
 145      83E7FA54 
 145      5D7F
 146 011f 1FF24ADE 		.ascii	"\037\362J\336\230\255\365\372Lx\0263\3114\\i\242\200"
 146      98ADF5FA 
 146      4C781633 
 146      C9345C69 
 146      A280
 147 0131 28EE818E 		.ascii	"(\356\201\216\201\373\230\205(c\370G\346\247\322\202"
 147      81FB9885 
 147      2863F847 
 147      E6A7D282 
 148 0141 D09A7B23 		.ascii	"\320\232{#\315\233\026\013\310\003\002\017\010[F\252"
 148      CD9B160B 
 148      C803020F 
 148      085B46AA 
 149 0151 12D41083 		.ascii	"\022\324\020\203PL\252d>\232\272\022\240\"\221\2467"
 149      504CAA64 
 149      3E9ABA12 
 149      A02291A6 
 149      37
 150 0162 6BDF1593 		.ascii	"k\337\025\223\202\344\324\222O\272Q\205\0061\216i\331"
 150      82E4D492 
 150      4FBA5185 
 150      06318E69 
 150      D9
 151 0173 CC07BF12 		.ascii	"\314\007\277\022\244\"O\367\273\365B2\015\246\3002\321"
 151      A4224FF7 
 151      BBF54232 
 151      0DA6C032 
 151      D1
 152 0184 36203D0F 		.ascii	"6 =\017\311\023\002i\225\335\265^M\012\351\322p\326"
ARM GAS  C:\Users\Luggi\AppData\Local\Temp\ccVA5Luv.s 			page 11


 152      C9130269 
 152      95DDB55E 
 152      4D0AE9D2 
 152      70D6
 153 0196 EF1DA612 		.ascii	"\357\035\246\022\211\344\236\177{\352\235X\345S\316"
 153      89E49E7F 
 153      7BEA9D58 
 153      E553CE
 154 01a5 5B43E0E1 		.ascii	"[C\340\341\277C[\204\024\354\235\245s\373o\227\014\317"
 154      BF435B84 
 154      14EC9DA5 
 154      73FB6F97 
 154      0CCF
 155 01b7 A5E9DBCF 		.ascii	"\245\351\333\3176\366]\2426\026\036y&\255h\223J\331"
 155      36F65DA2 
 155      36161E79 
 155      26AD6893 
 155      4AD9
 156 01c9 B983CC25 		.ascii	"\271\203\314%\344\352\313\355\202\355\331;z\313w|l\276"
 156      E4EACBED 
 156      82EDD93B 
 156      7ACB777C 
 156      6CBE
 157 01db 346F78E4 		.ascii	"4ox\344d1\300&?\3367\371\011\361\251\241\250 Y\274\023"
 157      6431C026 
 157      3FDE37F9 
 157      09F1A9A1 
 157      A82059BC 
 158 01f0 6309FE7B 		.ascii	"c\011\376{\252d\"\335'\335n\347\371\370\325\370\340"
 158      AA6422DD 
 158      27DD6EE7 
 158      F9F8D5F8 
 158      E0
 159 0201 E56BF181 		.ascii	"\345k\361\201K\261\304\365\301\376x_o,\321s\272\357"
 159      4BB1C4F5 
 159      C1FE785F 
 159      6F2CD173 
 159      BAEF
 160 0213 C2B9B33D 		.ascii	"\302\271\263=gN\366\013\343Jb \376\007\027\014\366\377"
 160      674EF60B 
 160      E34A6220 
 160      FE07170C 
 160      F6FF
 161              		.text
 162              		.section	.gnu.lto_VDAC8_SetRange.d234694,"",%progbits
 163 0000 789C8D51 		.ascii	"x\234\215QMh\023A\024~\337L\262\335\220\212\342)\344"
 163      4D681341 
 163      147EDF4C 
 163      B2DD908A 
 163      E229E4
 164 0013 22144A10 		.ascii	"\"\024J\020\244\236\024\017E\224\010\036+\004z*\224"
 164      A49E140F 
 164      4594081E 
 164      2B047A2A 
 164      94
 165 0024 D02EDE5A 		.ascii	"\320.\336Z\010\355\261tb\322\"\245H\211\036\224\020"
 165      08EDB174 
ARM GAS  C:\Users\Luggi\AppData\Local\Temp\ccVA5Luv.s 			page 12


 165      62D222A5 
 165      48891E94 
 165      10
 166 0035 2F528CAD 		.ascii	"/R\214\255\246\177\224\036\254\260\024Q\360\220 =\024"
 166      A67F941E 
 166      ACB01451 
 166      F090203D 
 166      14
 167 0046 8A7F6095 		.ascii	"\212\177`\225x3\254\264]\213\324\367v=)\004\007\346"
 167      7833ACB4 
 167      5D8BD4F7 
 167      763D2904 
 167      07E6
 168 0058 BD37C3F7 		.ascii	"\2757\303\367}\357\2337\232\376]I\336\347\025Q\2123"
 168      7DEF9B37 
 168      9AFE5D49 
 168      DEE71551 
 168      8A33
 169 006a 3441CDD5 		.ascii	"4A\315\325\211\362\266\002\244 \320\244\302$\276\251"
 169      89F2B602 
 169      A420D0A4 
 169      C224BEA9 
 170 007a 96C29CBB 		.ascii	"\226\302\234\273x?\236\2327\306|\337\362\023S\011\237"
 170      783F9E9A 
 170      37C67CDF 
 170      F2135309 
 170      9F
 171 008b 699E0A65 		.ascii	"i\236\012e\360\030)\206\274(\275\3368\251\273@\\\337"
 171      F0182986 
 171      BC28BDDE 
 171      38A9BB40 
 171      5CDF
 172 009d FB54DF44 		.ascii	"\373T\337D\367#cn\271\317k\346\012|\326\254B3\003\347"
 172      F723636E 
 172      B9CF6BE6 
 172      0A7CD6AC 
 172      423303E7 
 173 00b1 92389B24 		.ascii	"\2228\233$\276 <A\267\200[\305_;q\253\310\332\247BM"
 173      BE203C41 
 173      B7805BC5 
 173      5F3B71AB 
 173      C8DAA742 
 174 00c6 2CC002E7 		.ascii	",\300\002\347\245\323\2569>\366\276\336\255^\324q\305"
 174      A5D3AE39 
 174      3EF6BEDE 
 174      AD5ED471 
 174      C5
 175 00d7 1CA52544 		.ascii	"\034\245%D%X\020z\207\224\266\004\242=\336\342\373\013"
 175      2558107A 
 175      8794B604 
 175      A23DDEE2 
 175      FB0B
 176 00e9 1F38EB5D 		.ascii	"\0378\353]l\355\317\354o^\026\265\003%\217\370\374\340"
 176      6CEDCFEC 
 176      6F5E16B5 
 176      03258FF8 
 176      FCE0
ARM GAS  C:\Users\Luggi\AppData\Local\Temp\ccVA5Luv.s 			page 13


 177 00fb E5F489A6 		.ascii	"\345\364\211\246\362\225\256.\347MDz\177\334k\274\265"
 177      F295AE2E 
 177      E74D447A 
 177      7FDC6BBC 
 177      B5
 178 010c 832B92A3 		.ascii	"\203+\222\243\327h\226c\025\224\363E\266\034\301\"\222"
 178      D7689663 
 178      1594F345 
 178      B61CC122 
 178      92
 179 011d 780A1E13 		.ascii	"x\012\036\023\236\241\002\332E\341\320\012\345t\250"
 179      9EA102DA 
 179      45E1D00A 
 179      E574A8
 180 012c 589A7DB3 		.ascii	"X\232}\263\036\023z\304\343\367\324\030\312]K\020L;"
 180      1E137AC4 
 180      E3F7D418 
 180      CA5D4B10 
 180      4C3B
 181 013e B5255663 		.ascii	"\265%Vc\015\012,\376\354\015%\243\355\030\313\177\365"
 181      0D0A2CFE 
 181      EC0D25A3 
 181      ED18CB7F 
 181      F5
 182 014f EF3850D2 		.ascii	"\3578P\322\241\372\276\376*\260\037\351$\254\004\355"
 182      A1FABEFE 
 182      2AB01FE9 
 182      24AC04ED 
 183 015f 0B3FFE40 		.ascii	"\013?\376@l\226d\340\3779Z\015\034\331\364\016\005w"
 183      6C9664E0 
 183      FF395A0D 
 183      1CD9F40E 
 183      0577
 184 0171 A5A1042E 		.ascii	"\245\241\004.\363x\270}\247\246&\216\314mc\373*\352"
 184      F378B87D 
 184      A7A6268E 
 184      CC6D63FB 
 184      2AEA
 185 0183 F1A711D6 		.ascii	"\361\247\021\3260\301\003\267\350\003\362\356Z_\200"
 185      30C103B7 
 185      E803F2EE 
 185      5A5F80
 186 0192 24993E64 		.ascii	"$\231>d\352\374\007g\256;#N.;\346\014\017fF\307sC\316"
 186      EAFC0767 
 186      AE3B234E 
 186      2E3BE60C 
 186      0F6646C7 
 187 01a9 C08DCC68 		.ascii	"\300\215\314h\372\302@\377\265\253\351K=C\024\315eG"
 187      FAC240FF 
 187      B5ABE94B 
 187      3D4314CD 
 187      6547
 188 01bb 6E3ABF01 		.ascii	"n:\277\001F\014\312\016"
 188      460CCA0E 
 189              		.text
 190              		.section	.gnu.lto_VDAC8_Init.d234694,"",%progbits
 191 0000 789C7590 		.ascii	"x\234u\220?HBQ\024\306\317w\236>\014\023\242-\027ir"
ARM GAS  C:\Users\Luggi\AppData\Local\Temp\ccVA5Luv.s 			page 14


 191      3F484251 
 191      14C6CF77 
 191      9E3E0C13 
 191      A22D1769 
 192 0015 08DA82D6 		.ascii	"\010\332\202\3260j\025\204&!\302\\\013\244F\361=\220"
 192      306A1584 
 192      2621C25C 
 192      0BA446F1 
 192      3D90
 193 0027 68AAC642 		.ascii	"h\252\306B\214\206$\313\362_\020\025A\257?\264\225H"
 193      8C8624CB 
 193      F25F1015 
 193      41AF3FB4 
 193      9548
 194 0039 43109141 		.ascii	"C\020\221AF\266iN\217\010\273\367i\021D\027.\347\336"
 194      46B6694E 
 194      8F08BBF7 
 194      69114417 
 194      2EE7DE
 195 004c 7BCEF7FB 		.ascii	"{\316\367\373\316=\012\375]n\261\023 \352\027\021\012"
 195      CE3D0AFD 
 195      5D6EB113 
 195      20EA1711 
 195      0A
 196 005d 81576E88 		.ascii	"\201Wn\210t\007\003\362@\240\030#\2067n0V\214\314\252"
 196      740703F2 
 196      40A01823 
 196      86376E30 
 196      568CCCAA 
 197 0071 D39BD234 		.ascii	"\323\233\3224\255\376~\255\373\015\230L\324\3446\007"
 197      ADFE7EAD 
 197      FB0D984C 
 197      D4E43607 
 198 0081 5BF09228 		.ascii	"[\360\222(j\304?\357\234j\\\024\365\264sHC\025|\312"
 198      6AC43FEF 
 198      9C6A5C14 
 198      F5B47348 
 198      43157CCA 
 199 0095 F51A5AAB 		.ascii	"\365\032Z\253\265\177rv\250\252DU\221\222\006/\3142"
 199      B57F7276 
 199      A8AA4455 
 199      9192062F 
 199      CC32
 200 00a7 2AF738AF 		.ascii	"*\3678\257\327O<\262X@\236\327.\027\\56\031\351\274"
 200      D74F3CB2 
 200      58409ED7 
 200      2E175C35 
 200      3619E9BC 
 201 00bb AED924B7 		.ascii	"\256\331$\267R-\225\035\326\023\311k\263TKt%\221\320"
 201      522D951D 
 201      D613C96B 
 201      B3544B74 
 201      2591D0
 202 00ce E3BA6137 		.ascii	"\343\272a7\231\261\0157v ~\203\014\222\370-\020N\330"
 202      99B10D37 
 202      76207E83 
 202      0C92F82D 
ARM GAS  C:\Users\Luggi\AppData\Local\Temp\ccVA5Luv.s 			page 15


 202      104ED8
 203 00e1 1519CBE2 		.ascii	"\025\031\313\342t\240cQ+\326?\272-\336\366\267E\352"
 203      74A06351 
 203      2BD63FBA 
 203      2DDEF6B7 
 203      45EA
 204 00f3 F578C3D5 		.ascii	"\365x\303\325a\366I\346\336\0173+\230\026\344\001q\243"
 204      61F649E6 
 204      DE0F332B 
 204      9816E401 
 204      71A3
 205 0105 70C51222 		.ascii	"p\305\022\"%\353\267KY\216~h\213\232\303d\245)\233C"
 205      25EBB74B 
 205      598E7E68 
 205      8B9AC364 
 205      A5299B43 
 206 0119 0E5199DA 		.ascii	"\016Q\231\332,W\312\2124\260\331\010y\270M\266[\352"
 206      2C57CA8A 
 206      34B0D908 
 206      79B84DB6 
 206      5BEA
 207 012b 03F53FB1 		.ascii	"\003\365?\261l\264\320\026\227\236.\226\255\356lL(\266"
 207      6CB4D016 
 207      979E2E96 
 207      ADEE6C4C 
 207      28B6
 208 013d C58FD08D 		.ascii	"\305\217\320\215\2431KLr\200\220\203\023\032\317xx&"
 208      A3314B4C 
 208      72809083 
 208      131ACF78 
 208      7826
 209 014f 1C999A0B 		.ascii	"\034\231\232\013OO\006f\347#\241p\320\037\230\365\015"
 209      4F4F0666 
 209      E723A170 
 209      D01F98F5 
 209      0D
 210 0160 05274647 		.ascii	"\005'FG|\303\203!\372\002\005+\242@"
 210      7CC38321 
 210      FA02052B 
 210      A240
 211              		.text
 212              		.section	.gnu.lto_VDAC8_Start.d234694,"",%progbits
 213 0000 789C7591 		.ascii	"x\234u\221K(DQ\034\306\377\337\377\334\031\023\212\254"
 213      4B284451 
 213      1CC6FFDF 
 213      FFDC1913 
 213      8AAC
 214 0012 268B9195 		.ascii	"&\213\221\225\262`!e+JY)e\245$fK\211\345\344\\s\225"
 214      B2602165 
 214      2B4A5929 
 214      65A52466 
 214      4B89E5E4 
 215 0029 85242B79 		.ascii	"\205$+y\256\274\337d\303\302\335)y4\336I\224(v\303,"
 215      AEBCDF64 
 215      C3C2DD29 
 215      7934DE49 
 215      942876C3 
ARM GAS  C:\Users\Luggi\AppData\Local\Temp\ccVA5Luv.s 			page 16


 216 003e 34C9E37F 		.ascii	"4\311\343\177\356\210\362\270u;\347~\347\373\177\337"
 216      EE88F2B8 
 216      753BE77E 
 216      E7FB7FDF 
 217 004e EFDEABE8 		.ascii	"\357\336\253\350\367U\"w\002D\371\262\302G\340\376}"
 217      F7552277 
 217      0244F9B2 
 217      C247E0FE 
 217      7D
 218 005f 223BC0AC 		.ascii	"\";\300\2546B\244\323\255\323b\322\231\012VJ\266\000"
 218      3642A4D3 
 218      ADD362D2 
 218      990A564A 
 218      B600
 219 0071 B3215027 		.ascii	"\263!P'+\013\235x\340GF\277;7\230Q0\241\265\216\037"
 219      2B0B9D78 
 219      E04746BF 
 219      3B379851 
 219      30A1B58E 
 220 0086 C682DDC1 		.ascii	"\306\202\335\301$K&\247\3621\205\002\022\317\243\363"
 220      244B26A7 
 220      F2318502 
 220      12CFA3F3 
 221 0096 7A96E177 		.ascii	"z\226\341w\304\223\235:\3034\374\322KK9\256~\177_\333"
 221      C4939D3A 
 221      C334FCD2 
 221      4B4B39AE 
 221      7E7F5FDB 
 222 00aa 1EB82FE4 		.ascii	"\036\270/\344\200\242$\213x+\006\323s\307lVu\201\256"
 222      80A2248B 
 222      782B06D3 
 222      73C76C56 
 222      7581AE
 223 00bd 8195DD1B 		.ascii	"\201\225\335\033\237\231yf%qcG}\213\034y\321=:\220d"
 223      9F997966 
 223      25716347 
 223      7D8B1C79 
 223      D13D3A90 
 224 00d2 7E3581A2 		.ascii	"~5\201\242^\337\036\304\002\367,\212\3678m;#\030\305"
 224      5EDF1EC4 
 224      02F72C8A 
 224      F7386D3B 
 224      2318C5
 225 00e5 B0AD8D4B 		.ascii	"\260\255\215Ka\006\021\314\"W\272\347D\246\0238\347"
 225      610611CC 
 225      2257BAE7 
 225      44A61338 
 225      E7
 226 00f6 D1D077A6 		.ascii	"\321\320w\246=\271\331\233f\246\205\000\363\306G\006"
 226      3DB9D99B 
 226      66A68500 
 226      F3C64706 
 227 0106 41D14648 		.ascii	"A\321FH]\"\352\256\357d\0323\375\254\267\022\336\304"
 227      5D22EAAE 
 227      EF641A33 
 227      FDACB712 
 227      DEC4
ARM GAS  C:\Users\Luggi\AppData\Local\Temp\ccVA5Luv.s 			page 17


 228 0118 022242EF 		.ascii	"\002\"B\357#\201\215\307\367\236<\330\177I\177\242-"
 228      23818DC7 
 228      F79E3CD8 
 228      7F497FA2 
 228      2D
 229 0129 7EA12D89 		.ascii	"~\241-\211,\206\330\320d4\313\300(\020\226=\230;\266"
 229      2C86D8D0 
 229      6434CBC0 
 229      2810963D 
 229      983BB6
 230 013c BCAF6158 		.ascii	"\274\257aX\266v\370?\026i\300\312'\313%\034\3678\375"
 230      B676F83F 
 230      1669C0CA 
 230      27CB251C 
 230      F738FD
 231 014f 4FA73F21 		.ascii	"O\247?!oFX\025\247\034\215\2779\313\360\352\232\011"
 231      6F465815 
 231      A71C8DBF 
 231      39CBF0EA 
 231      9A09
 232 0161 6BC84D72 		.ascii	"k\310Mr\032]\301v\317\252\275a2\377\004\246]\322\363"
 232      1A5DC176 
 232      CFAABD61 
 232      32FF04A6 
 232      5DD2F3
 233 0174 AAC22DE1 		.ascii	"\252\302-\341\266\306\366psCmkG[S\270\276\246\266\265"
 233      B6C6F670 
 233      73436D6B 
 233      475B53B8 
 233      BEA6B6B5 
 234 0188 A2B4BEAE 		.ascii	"\242\264\276\256\262\274\242\254\250\211>\000\377b\275"
 234      B2BCA2AC 
 234      A8893E00 
 234      FF62BD
 235 0197 6B       		.ascii	"k"
 236              		.text
 237              		.section	.gnu.lto_.symbol_nodes.d234694,"",%progbits
 238 0000 789C55CE 		.ascii	"x\234U\316\261\015\0021\020D\321\357]\257}]\320\004"
 238      B10D0231 
 238      1044D1EF 
 238      5DAF7D5D 
 238      D004
 239 0012 FD8D7401 		.ascii	"\375\215t\0011\0211P\303\005\027S\0005\300\305\324\200"
 239      31113150 
 239      C3051753 
 239      0035C0C5 
 239      D480
 240 0024 B010013B 		.ascii	"\260\020\001;\311\327\313\306\201\225\337\314\004\307"
 240      C9D7CBC6 
 240      8195DFCC 
 240      04C7
 241 0032 3B489CCE 		.ascii	";H\234\316\023VU\222C\226\334\345\311\223jrS$\027\265"
 241      13565592 
 241      4396DCE5 
 241      C9936A72 
 241      532417B5 
 242 0046 6457FF77 		.ascii	"dW\377w\300e\\\360\250\314\207\327\316[\260=\336\305"
ARM GAS  C:\Users\Luggi\AppData\Local\Temp\ccVA5Luv.s 			page 18


 242      C0655CF0 
 242      A8CC87D7 
 242      CE5BB03D 
 242      DEC5
 243 0058 9B313F47 		.ascii	"\2331?G{c[\366\336\341\372\245s\033\345\003o91k"
 243      7B635BF6 
 243      DEE1FAA5 
 243      731BE503 
 243      6F39316B 
 244              		.text
 245              		.section	.gnu.lto_.refs.d234694,"",%progbits
 246 0000 789C6366 		.ascii	"x\234cf``\340d\200\000&v\006\016FF\016\026\006\000\001"
 246      6060E064 
 246      80002676 
 246      060E4646 
 246      0E160600 
 247 0015 90002C   		.ascii	"\220\000,"
 248              		.text
 249              		.section	.gnu.lto_.decls.d234694,"",%progbits
 250 0000 789C8D53 		.ascii	"x\234\215S_L[U\030?_\317\245\264\245#{b\206\230\214"
 250      5F4C5B55 
 250      183F5FCF 
 250      A5B4A523 
 250      7B628698 
 251 0015 65C91213 		.ascii	"e\311\022\023\262\350\203\011o\316\3002\364\301\020"
 251      B2E88309 
 251      6FCEC032 
 251      F4C110
 252 0024 515E5CB6 		.ascii	"Q^\\\266Tv3\233\314BjI\334\333\031\340\250\250K\235"
 252      5476339B 
 252      CC426A49 
 252      DCDB19E0 
 252      A8A84B9D 
 253 0038 228C9859 		.ascii	"\"\214\230Y\2259Fq\355@(\2450\332\375a\224RtK\335d\313"
 253      95394671 
 253      ED4028A5 
 253      30DAFD61 
 253      9452744B 
 254 004f 149C0FBE 		.ascii	"\024\234\017\276\350\230\301eF\355\365;\347\236\273"
 254      E898C165 
 254      46EDF53B 
 254      E79EBB
 255 005e DE2E6DE6 		.ascii	"\336.m\346I\276{\357\271\367\367\373}\277\357|\367\243"
 255      49BE7BEF 
 255      B9F7F7FB 
 255      7DBFEF7C 
 255      F7A3
 256 0070 8490060B 		.ascii	"\204\220\006\013!\032\256\247\313\010\311\340\336\216"
 256      211AAEA7 
 256      CB08C9E0 
 256      DE8E
 257 007e D1840118 		.ascii	"\321\204\001\030!\242/\033\3069\214q\214(F\014#\216"
 257      21A22F1B 
 257      C6398C71 
 257      8C28460C 
 257      238E
 258 0090 318B3187 		.ascii	"1\2131\207\221\224\370K\244pq\216\"\365\2520R\030W\344"
ARM GAS  C:\Users\Luggi\AppData\Local\Temp\ccVA5Luv.s 			page 19


 258      9194F84B 
 258      A470718E 
 258      22F5AA30 
 258      521857E4 
 259 00a4 3790DF1F 		.ascii	"7\220\337\037]\343\217\341\214\027\341pOe\222\023*\301"
 259      5DE38FE1 
 259      8C17E170 
 259      4F659213 
 259      2AC1
 260 00b6 8B16E1C5 		.ascii	"\213\026\341\305L\271BE8\261\"\034^\267\235\024\346"
 260      4CB94245 
 260      38B1221C 
 260      5EB79D14 
 260      E6
 261 00c7 6AC4489B 		.ascii	"j\304H\233\370/b,\232t\342Et\370\331\225\227\360\274"
 261      F82F622C 
 261      9A74E245 
 261      74F8D995 
 261      97F0BC
 262 00da 84119638 		.ascii	"\204\021\2268\213\304\026\323\340go\225\032\0067#\365"
 262      8BC416D3 
 262      E0676F95 
 262      1A063723 
 262      F5
 263 00eb 2624864A 		.ascii	"&$\206J\334l\2113\340\275\263\221\374y/K\276\341!c\322"
 263      DC6C8933 
 263      E0BDB391 
 263      FC792F4B 
 263      BEE12163 
 264 0100 52249EEB 		.ascii	"R$\236\353\361\336\305H\361\276\337\263\300\365\271"
 264      F1DEC548 
 264      F1BEDFB3 
 264      C0F5B9
 265 010f 9E1E1BB5 		.ascii	"\236\036\033\265\000\177\376r`-\353\250\035a\214\371"
 265      007FFE72 
 265      602DEBA8 
 265      1D618CF9 
 266 011f 59220179 		.ascii	"Y\"\001y\320\221\257\342\357\227\377j\201*\207\330\036"
 266      D091AFE2 
 266      EF97FF6A 
 266      812A87D8 
 266      1E
 267 0130 4B0F26A9 		.ascii	"K\017&\251\330j\234gYY\371\370/\012\216\035~\306:\331"
 267      D86A9C67 
 267      5959F9F8 
 267      2F0A8E1D 
 267      7EC63AD9 
 268 0144 FA71469F 		.ascii	"\372qF\237 P[\015OU\023\030\205\035\010\203a\250%p\006"
 268      20505B0D 
 268      4F551318 
 268      851D0883 
 268      61A82570 
 269 0159 AA6104AA 		.ascii	"\252a\004\252\311\020&X\377,{\363I\306\024\010\201\003"
 269      C9102658 
 269      FF2C7BF3 
 269      49C61408 
 269      8103
ARM GAS  C:\Users\Luggi\AppData\Local\Temp\ccVA5Luv.s 			page 20


 270 016b 4E031508 		.ascii	"N\003\025\0104\3113\210n\340{\314\024;\273\221\251\300"
 270      34C93388 
 270      6EE07BCC 
 270      143BBB91 
 270      A9C0
 271 017d 4C958E1A 		.ascii	"L\225\216\032\236x\372\370\302\200\025\267N\207\302"
 271      9E78FAF8 
 271      C28015B7 
 271      4E87C2
 272 018c B7F1BF7F 		.ascii	"\267\361\277\177\316*[\372P\216\005\272\330f\005\232"
 272      CE2A5BFA 
 272      508E05BA 
 272      D866059A 
 273 019c AAE06B4C 		.ascii	"\252\340kLr\026\223\020\010\303\026\274\276\246\350"
 273      72169310 
 273      08C316BC 
 273      BEA6E8
 274 01ab 2544FCA9 		.ascii	"%D\374\251\017\355\364\031Qg\367\355\215\305\362\232"
 274      0FEDF419 
 274      5167F7ED 
 274      8DC5F29A 
 275 01bb 936C35B2 		.ascii	"\223l5\262\236\013\364\320\023,\330\311r\032\326\302"
 275      9E0BF4D0 
 275      132CD8C9 
 275      721AD6C2 
 276 01cb 391079E8 		.ascii	"9\020y\350\206\360g\335\3169\250AbrtrT\241\373\204\310"
 276      86F067DD 
 276      CE39A841 
 276      62727472 
 276      54A1FB84 
 277 01e0 BBD7A68E 		.ascii	"\273\327\246\216XQ$\030\011\376p\312\272\300\022\232"
 277      58512418 
 277      09FE70CA 
 277      BAC0129A 
 278 01f0 F69CE08F 		.ascii	"\366\234\340\217\231\370c\006\177\\\360\003\357$\003"
 278      99F86306 
 278      7F5CF003 
 278      EF2403
 279 01ff 8A62D1CB 		.ascii	"\212b\321\313\343\326\360\335\237\332\332)K\311\"&D"
 279      E3D6F0DD 
 279      9FDADA29 
 279      4BC92226 
 279      44
 280 0210 11DF80AC 		.ascii	"\021\337\200\254bc\245/`\245na\340\227\341\033'\354"
 280      6263A52F 
 280      60A56E61 
 280      E097E11B 
 280      27EC
 281 0222 A28AE0E0 		.ascii	"\242\212\340\340i\303\000\342a\322d`\3220\020\025\006"
 281      69C300E2 
 281      61D26460 
 281      D2301015 
 281      06
 282 0233 323FAE7C 		.ascii	"2?\256|\253\320\267\005?\332\177\343A\245\316\317\025"
 282      ABD0B705 
 282      3FDA7FE3 
 282      41A5CECF 
ARM GAS  C:\Users\Luggi\AppData\Local\Temp\ccVA5Luv.s 			page 21


 282      15
 283 0244 F0A74CFC 		.ascii	"\360\247L\374)\203\037\023\374\311\253\003\273i\017"
 283      29831F13 
 283      FCC9AB03 
 283      BB690F
 284 0253 08FE2777 		.ascii	"\010\376'w3!\231?u\306|\000\323&\376\264\301\217\013"
 284      3321993F 
 284      75C67C00 
 284      D326FEB4 
 284      C18F0B
 285 0266 3EFB6981 		.ascii	">\373i\201Yi\237.\020\276\367\321\367z\033\202K\005"
 285      59699F2E 
 285      10BEF7D1 
 285      F77A1B82 
 285      4B05
 286 0278 06664C02 		.ascii	"\006fL\0023\206\300\254\020\360\317]\356w\322!]`plx"
 286      3386C0AC 
 286      10F0CF5D 
 286      EE77D221 
 286      5D60706C 
 287 028d 593AB83B 		.ascii	"Y:\270;\306vu\263\1774\215\012\013\347M\012\347\015"
 287      C67675B3 
 287      7F348D0A 
 287      0BE74D0A 
 287      E70D
 288 029f 8539A170 		.ascii	"\2059\241p\255+\021\266\321\260\2560\225\232\037\244"
 288      AD2B11B6 
 288      D1B0AE30 
 288      959A1FA4 
 289 02af 7A133F28 		.ascii	"z\023?(hb\302$\2200\004\222B\340X\356\337E\205\306u"
 289      6862C224 
 289      90300492 
 289      42E058EE 
 289      DF4585C6 
 290 02c4 81DCAD48 		.ascii	"\201\334\255H\224\377\221\330O\321\240\337\356\\\370"
 290      94FF91D8 
 290      4FD1A0DF 
 290      EE5CF8
 291 02d3 03B67FCE 		.ascii	"\003\266\177\316\202_\254\306\177/\033`lU\323\266\212"
 291      825FACC6 
 291      7F2F1B60 
 291      6C55D3B6 
 291      8A
 292 02e4 6E5FD015 		.ascii	"n_\320\025\345`\020\276\307\353E\3542\\\202\355\374"
 292      E56010BE 
 292      C7EB45EC 
 292      325C82ED 
 292      FC
 293 02f5 6CFADF1B 		.ascii	"l\372\337\033\262\321\224\256;q\2777\266\311\201\003"
 293      B2D194AE 
 293      3B71BF37 
 293      B6C98103 
 294 0305 D5F53F06 		.ascii	"\325\365?\006\012G0\273\334{\335\256\217\340\243\214"
 294      0A4730BB 
 294      DC7BDDAE 
 294      8FE0A38C 
 295 0315 859223F8 		.ascii	"\205\222#\370\340Nc7\333\005W\320\335\345\374\010\316"
ARM GAS  C:\Users\Luggi\AppData\Local\Temp\ccVA5Luv.s 			page 22


 295      E04E6337 
 295      DB0557D0 
 295      DDE5FC08 
 295      CE
 296 0326 83E3E1E0 		.ascii	"\203\343\341\340g\323\235\267\250\263\227\3175\376\234"
 296      67D39DB7 
 296      A8B397CF 
 296      35FE9C
 297 0335 F64681CD 		.ascii	"\366F\201\315\377\235)p\212\203\301;\202\327\002\363"
 297      FF9D2970 
 297      8A83C13B 
 297      82D702F3 
 298 0345 3376C3B3 		.ascii	"3v\303\263\3771\016\020\337u\364\323y\233Y|\261@<-\305"
 298      FF310E10 
 298      DF75F4D3 
 298      799B597C 
 298      B1403C2D 
 299 035a D3423C7C 		.ascii	"\323B<|\377\273\221\0123\230w)\017^\002\247\341\177"
 299      FFBB910A 
 299      33987729 
 299      0F5E02A7 
 299      E17F
 300 036c 49E04F46 		.ascii	"I\340OFnn3\303'\012\340\031\251\235\021\330\253\353"
 300      6E6E33C3 
 300      270AE019 
 300      A99D11D8 
 300      ABEB
 301 037e DA3E3336 		.ascii	"\332>36T\340cYb\371\275\254\303\355\361\325Y\367\274"
 301      54E06359 
 301      62F9BDAC 
 301      C3EDF1D5 
 301      59F7BC
 302 0391 F46A4D3D 		.ascii	"\364jM=\331\266G\365\250^\227O=\260\277\271\255\303"
 302      D9B647F5 
 302      A85E974F 
 302      3DB0BFB9 
 302      ADC3
 303 03a3 DBAAEE6D 		.ascii	"\333\252\356mjn\253\177vo\353a\337\341v\365\255\235"
 303      6A6EAB7F 
 303      766FEB61 
 303      DFE176F5 
 303      AD9D
 304 03b5 6F10674B 		.ascii	"o\020gK\303\363\365u\373w{\\\257\037R\267\226\200\013"
 304      C3F3F575 
 304      FB777B5C 
 304      AF1F52B7 
 304      96800B
 305 03c8 CCCE56E2 		.ascii	"\314\316V\342\320\301\315\276\266\366J\371\250\372\232"
 305      D0C1CDBE 
 305      B6F64AF9 
 305      A8FA9A
 306 03d7 DB55F540 		.ascii	"\333U\365@~\333\342:\324\241n\322\267\015\256\326W\274"
 306      7EDBE23A 
 306      D4A16ED2 
 306      B70DAED6 
 306      57BC
 307 03e9 EE37F31F 		.ascii	"\3567\363\037_vy\016\252R\345\005\217\333Wa\010\272"
ARM GAS  C:\Users\Luggi\AppData\Local\Temp\ccVA5Luv.s 			page 23


 307      5F76790E 
 307      AA52E505 
 307      8FDB5761 
 307      08BA
 308 03fb BC3EC971 		.ascii	"\274>\311q\343\353\026\227W\361\252\007\353\376\003"
 308      E3EB1697 
 308      57F1AA07 
 308      EBFE03
 309 040a 7FD00C84 		.ascii	"\177\320\014\204"
 310              		.text
 311              		.section	.gnu.lto_.symtab.d234694,"",%progbits
 312 0000 56444143 		.ascii	"VDAC8_Enable\000\000\000\000\000\000\000\000\000\000"
 312      385F456E 
 312      61626C65 
 312      00000000 
 312      00000000 
 313 0016 0000B100 		.ascii	"\000\000\261\000\000\000VDAC8_Stop\000\000\000\000\000"
 313      00005644 
 313      4143385F 
 313      53746F70 
 313      00000000 
 314 002b 00000000 		.ascii	"\000\000\000\000\000\000\000\263\000\000\000VDAC8_S"
 314      000000B3 
 314      00000056 
 314      44414338 
 314      5F53
 315 003d 65745370 		.ascii	"etSpeed\000\000\000\000\000\000\000\000\000\000\000"
 315      65656400 
 315      00000000 
 315      00000000 
 315      0000
 316 004f 00B70000 		.ascii	"\000\267\000\000\000VDAC8_SetValue\000\000\000\000\000"
 316      00564441 
 316      43385F53 
 316      65745661 
 316      6C756500 
 317 0067 00000000 		.ascii	"\000\000\000\000\000\000\000\271\000\000\000VDAC8_D"
 317      000000B9 
 317      00000056 
 317      44414338 
 317      5F44
 318 0079 61635472 		.ascii	"acTrim\000\000\000\000\000\000\000\000\000\000\000\000"
 318      696D0000 
 318      00000000 
 318      00000000 
 318      0000
 319 008b BB000000 		.ascii	"\273\000\000\000VDAC8_SetRange\000\000\000\000\000\000"
 319      56444143 
 319      385F5365 
 319      7452616E 
 319      67650000 
 320 00a3 00000000 		.ascii	"\000\000\000\000\000\000\275\000\000\000VDAC8_Init\000"
 320      0000BD00 
 320      00005644 
 320      4143385F 
 320      496E6974 
 321 00b8 00000000 		.ascii	"\000\000\000\000\000\000\000\000\000\000\000\277\000"
ARM GAS  C:\Users\Luggi\AppData\Local\Temp\ccVA5Luv.s 			page 24


 321      00000000 
 321      000000BF 
 321      00
 322 00c5 00005644 		.ascii	"\000\000VDAC8_Start\000\000\000\000\000\000\000\000"
 322      4143385F 
 322      53746172 
 322      74000000 
 322      00000000 
 323 00da 00000000 		.ascii	"\000\000\000\000\301\000\000\000VDAC8_initVar\000\000"
 323      C1000000 
 323      56444143 
 323      385F696E 
 323      69745661 
 324 00f1 00000000 		.ascii	"\000\000\000\000\000\000\000\000\000\000\304\000\000"
 324      00000000 
 324      0000C400 
 324      00
 325 00fe 00       		.ascii	"\000"
 326              		.text
 327              		.section	.gnu.lto_.opts,"",%progbits
 328 0000 272D666E 		.ascii	"'-fno-trapv' '-fno-strict-overflow' '-mcpu=cortex-m"
 328      6F2D7472 
 328      61707627 
 328      20272D66 
 328      6E6F2D73 
 329 0033 33272027 		.ascii	"3' '-mthumb' '-g' '-Og' '-ffunction-sections' '-flt"
 329      2D6D7468 
 329      756D6227 
 329      20272D67 
 329      2720272D 
 330 0066 6F272027 		.ascii	"o' '-ffat-lto-objects'\000"
 330      2D666661 
 330      742D6C74 
 330      6F2D6F62 
 330      6A656374 
 331              		.text
 332              		.cfi_sections	.debug_frame
 333              		.section	.text.VDAC8_Enable,"ax",%progbits
 334              		.align	2
 335              		.global	VDAC8_Enable
 336              		.thumb
 337              		.thumb_func
 338              		.type	VDAC8_Enable, %function
 339              	VDAC8_Enable:
 340              	.LFB1:
 341              		.file 1 "Generated_Source\\PSoC5\\VDAC8.c"
   1:Generated_Source\PSoC5/VDAC8.c **** /*******************************************************************************
   2:Generated_Source\PSoC5/VDAC8.c **** * File Name: VDAC8.c  
   3:Generated_Source\PSoC5/VDAC8.c **** * Version 1.90
   4:Generated_Source\PSoC5/VDAC8.c **** *
   5:Generated_Source\PSoC5/VDAC8.c **** * Description:
   6:Generated_Source\PSoC5/VDAC8.c **** *  This file provides the source code to the API for the 8-bit Voltage DAC 
   7:Generated_Source\PSoC5/VDAC8.c **** *  (VDAC8) User Module.
   8:Generated_Source\PSoC5/VDAC8.c **** *
   9:Generated_Source\PSoC5/VDAC8.c **** * Note:
  10:Generated_Source\PSoC5/VDAC8.c **** *  Any unusual or non-standard behavior should be noted here. Other-
  11:Generated_Source\PSoC5/VDAC8.c **** *  wise, this section should remain blank.
ARM GAS  C:\Users\Luggi\AppData\Local\Temp\ccVA5Luv.s 			page 25


  12:Generated_Source\PSoC5/VDAC8.c **** *
  13:Generated_Source\PSoC5/VDAC8.c **** ********************************************************************************
  14:Generated_Source\PSoC5/VDAC8.c **** * Copyright 2008-2012, Cypress Semiconductor Corporation.  All rights reserved.
  15:Generated_Source\PSoC5/VDAC8.c **** * You may use this file only in accordance with the license, terms, conditions, 
  16:Generated_Source\PSoC5/VDAC8.c **** * disclaimers, and limitations in the end user license agreement accompanying 
  17:Generated_Source\PSoC5/VDAC8.c **** * the software package with which this file was provided.
  18:Generated_Source\PSoC5/VDAC8.c **** *******************************************************************************/
  19:Generated_Source\PSoC5/VDAC8.c **** 
  20:Generated_Source\PSoC5/VDAC8.c **** #include "cytypes.h"
  21:Generated_Source\PSoC5/VDAC8.c **** #include "VDAC8.h"
  22:Generated_Source\PSoC5/VDAC8.c **** 
  23:Generated_Source\PSoC5/VDAC8.c **** #if (CY_PSOC5A)
  24:Generated_Source\PSoC5/VDAC8.c **** #include <CyLib.h>
  25:Generated_Source\PSoC5/VDAC8.c **** #endif /* CY_PSOC5A */
  26:Generated_Source\PSoC5/VDAC8.c **** 
  27:Generated_Source\PSoC5/VDAC8.c **** uint8 VDAC8_initVar = 0u;
  28:Generated_Source\PSoC5/VDAC8.c **** 
  29:Generated_Source\PSoC5/VDAC8.c **** #if (CY_PSOC5A)
  30:Generated_Source\PSoC5/VDAC8.c ****     static uint8 VDAC8_restoreVal = 0u;
  31:Generated_Source\PSoC5/VDAC8.c **** #endif /* CY_PSOC5A */
  32:Generated_Source\PSoC5/VDAC8.c **** 
  33:Generated_Source\PSoC5/VDAC8.c **** #if (CY_PSOC5A)
  34:Generated_Source\PSoC5/VDAC8.c ****     static VDAC8_backupStruct VDAC8_backup;
  35:Generated_Source\PSoC5/VDAC8.c **** #endif /* CY_PSOC5A */
  36:Generated_Source\PSoC5/VDAC8.c **** 
  37:Generated_Source\PSoC5/VDAC8.c **** 
  38:Generated_Source\PSoC5/VDAC8.c **** /*******************************************************************************
  39:Generated_Source\PSoC5/VDAC8.c **** * Function Name: VDAC8_Init
  40:Generated_Source\PSoC5/VDAC8.c **** ********************************************************************************
  41:Generated_Source\PSoC5/VDAC8.c **** * Summary:
  42:Generated_Source\PSoC5/VDAC8.c **** *  Initialize to the schematic state.
  43:Generated_Source\PSoC5/VDAC8.c **** * 
  44:Generated_Source\PSoC5/VDAC8.c **** * Parameters:
  45:Generated_Source\PSoC5/VDAC8.c **** *  void:
  46:Generated_Source\PSoC5/VDAC8.c **** *
  47:Generated_Source\PSoC5/VDAC8.c **** * Return:
  48:Generated_Source\PSoC5/VDAC8.c **** *  void
  49:Generated_Source\PSoC5/VDAC8.c **** *
  50:Generated_Source\PSoC5/VDAC8.c **** * Theory:
  51:Generated_Source\PSoC5/VDAC8.c **** *
  52:Generated_Source\PSoC5/VDAC8.c **** * Side Effects:
  53:Generated_Source\PSoC5/VDAC8.c **** *
  54:Generated_Source\PSoC5/VDAC8.c **** *******************************************************************************/
  55:Generated_Source\PSoC5/VDAC8.c **** void VDAC8_Init(void) 
  56:Generated_Source\PSoC5/VDAC8.c **** {
  57:Generated_Source\PSoC5/VDAC8.c ****     VDAC8_CR0 = (VDAC8_MODE_V );
  58:Generated_Source\PSoC5/VDAC8.c **** 
  59:Generated_Source\PSoC5/VDAC8.c ****     /* Set default data source */
  60:Generated_Source\PSoC5/VDAC8.c ****     #if(VDAC8_DEFAULT_DATA_SRC != 0 )
  61:Generated_Source\PSoC5/VDAC8.c ****         VDAC8_CR1 = (VDAC8_DEFAULT_CNTL | VDAC8_DACBUS_ENABLE) ;
  62:Generated_Source\PSoC5/VDAC8.c ****     #else
  63:Generated_Source\PSoC5/VDAC8.c ****         VDAC8_CR1 = (VDAC8_DEFAULT_CNTL | VDAC8_DACBUS_DISABLE) ;
  64:Generated_Source\PSoC5/VDAC8.c ****     #endif /* (VDAC8_DEFAULT_DATA_SRC != 0 ) */
  65:Generated_Source\PSoC5/VDAC8.c **** 
  66:Generated_Source\PSoC5/VDAC8.c ****     /* Set default strobe mode */
  67:Generated_Source\PSoC5/VDAC8.c ****     #if(VDAC8_DEFAULT_STRB != 0)
  68:Generated_Source\PSoC5/VDAC8.c ****         VDAC8_Strobe |= VDAC8_STRB_EN ;
ARM GAS  C:\Users\Luggi\AppData\Local\Temp\ccVA5Luv.s 			page 26


  69:Generated_Source\PSoC5/VDAC8.c ****     #endif/* (VDAC8_DEFAULT_STRB != 0) */
  70:Generated_Source\PSoC5/VDAC8.c **** 
  71:Generated_Source\PSoC5/VDAC8.c ****     /* Set default range */
  72:Generated_Source\PSoC5/VDAC8.c ****     VDAC8_SetRange(VDAC8_DEFAULT_RANGE); 
  73:Generated_Source\PSoC5/VDAC8.c **** 
  74:Generated_Source\PSoC5/VDAC8.c ****     /* Set default speed */
  75:Generated_Source\PSoC5/VDAC8.c ****     VDAC8_SetSpeed(VDAC8_DEFAULT_SPEED);
  76:Generated_Source\PSoC5/VDAC8.c **** }
  77:Generated_Source\PSoC5/VDAC8.c **** 
  78:Generated_Source\PSoC5/VDAC8.c **** 
  79:Generated_Source\PSoC5/VDAC8.c **** /*******************************************************************************
  80:Generated_Source\PSoC5/VDAC8.c **** * Function Name: VDAC8_Enable
  81:Generated_Source\PSoC5/VDAC8.c **** ********************************************************************************
  82:Generated_Source\PSoC5/VDAC8.c **** * Summary:
  83:Generated_Source\PSoC5/VDAC8.c **** *  Enable the VDAC8
  84:Generated_Source\PSoC5/VDAC8.c **** * 
  85:Generated_Source\PSoC5/VDAC8.c **** * Parameters:
  86:Generated_Source\PSoC5/VDAC8.c **** *  void
  87:Generated_Source\PSoC5/VDAC8.c **** *
  88:Generated_Source\PSoC5/VDAC8.c **** * Return:
  89:Generated_Source\PSoC5/VDAC8.c **** *  void
  90:Generated_Source\PSoC5/VDAC8.c **** *
  91:Generated_Source\PSoC5/VDAC8.c **** * Theory:
  92:Generated_Source\PSoC5/VDAC8.c **** *
  93:Generated_Source\PSoC5/VDAC8.c **** * Side Effects:
  94:Generated_Source\PSoC5/VDAC8.c **** *
  95:Generated_Source\PSoC5/VDAC8.c **** *******************************************************************************/
  96:Generated_Source\PSoC5/VDAC8.c **** void VDAC8_Enable(void) 
  97:Generated_Source\PSoC5/VDAC8.c **** {
 342              		.loc 1 97 0
 343              		.cfi_startproc
 344              		@ args = 0, pretend = 0, frame = 0
 345              		@ frame_needed = 0, uses_anonymous_args = 0
 346              		@ link register save eliminated.
  98:Generated_Source\PSoC5/VDAC8.c ****     VDAC8_PWRMGR |= VDAC8_ACT_PWR_EN;
 347              		.loc 1 98 0
 348 0000 054A     		ldr	r2, .L2
 349 0002 1378     		ldrb	r3, [r2]	@ zero_extendqisi2
 350 0004 43F00403 		orr	r3, r3, #4
 351 0008 1370     		strb	r3, [r2]
  99:Generated_Source\PSoC5/VDAC8.c ****     VDAC8_STBY_PWRMGR |= VDAC8_STBY_PWR_EN;
 352              		.loc 1 99 0
 353 000a 1032     		adds	r2, r2, #16
 354 000c 1378     		ldrb	r3, [r2]	@ zero_extendqisi2
 355 000e 43F00403 		orr	r3, r3, #4
 356 0012 1370     		strb	r3, [r2]
 357 0014 7047     		bx	lr
 358              	.L3:
 359 0016 00BF     		.align	2
 360              	.L2:
 361 0018 A8430040 		.word	1073759144
 362              		.cfi_endproc
 363              	.LFE1:
 364              		.size	VDAC8_Enable, .-VDAC8_Enable
 365              		.section	.text.VDAC8_Stop,"ax",%progbits
 366              		.align	2
 367              		.global	VDAC8_Stop
ARM GAS  C:\Users\Luggi\AppData\Local\Temp\ccVA5Luv.s 			page 27


 368              		.thumb
 369              		.thumb_func
 370              		.type	VDAC8_Stop, %function
 371              	VDAC8_Stop:
 372              	.LFB3:
 100:Generated_Source\PSoC5/VDAC8.c **** 
 101:Generated_Source\PSoC5/VDAC8.c ****     /*This is to restore the value of register CR0 ,
 102:Generated_Source\PSoC5/VDAC8.c ****     which is modified  in Stop API , this prevents misbehaviour of VDAC */
 103:Generated_Source\PSoC5/VDAC8.c ****     #if (CY_PSOC5A)
 104:Generated_Source\PSoC5/VDAC8.c ****         if(VDAC8_restoreVal == 1u) 
 105:Generated_Source\PSoC5/VDAC8.c ****         {
 106:Generated_Source\PSoC5/VDAC8.c ****              VDAC8_CR0 = VDAC8_backup.data_value;
 107:Generated_Source\PSoC5/VDAC8.c ****              VDAC8_restoreVal = 0u;
 108:Generated_Source\PSoC5/VDAC8.c ****         }
 109:Generated_Source\PSoC5/VDAC8.c ****     #endif /* CY_PSOC5A */
 110:Generated_Source\PSoC5/VDAC8.c **** }
 111:Generated_Source\PSoC5/VDAC8.c **** 
 112:Generated_Source\PSoC5/VDAC8.c **** 
 113:Generated_Source\PSoC5/VDAC8.c **** /*******************************************************************************
 114:Generated_Source\PSoC5/VDAC8.c **** * Function Name: VDAC8_Start
 115:Generated_Source\PSoC5/VDAC8.c **** ********************************************************************************
 116:Generated_Source\PSoC5/VDAC8.c **** *
 117:Generated_Source\PSoC5/VDAC8.c **** * Summary:
 118:Generated_Source\PSoC5/VDAC8.c **** *  The start function initializes the voltage DAC with the default values, 
 119:Generated_Source\PSoC5/VDAC8.c **** *  and sets the power to the given level.  A power level of 0, is the same as
 120:Generated_Source\PSoC5/VDAC8.c **** *  executing the stop function.
 121:Generated_Source\PSoC5/VDAC8.c **** *
 122:Generated_Source\PSoC5/VDAC8.c **** * Parameters:
 123:Generated_Source\PSoC5/VDAC8.c **** *  Power: Sets power level between off (0) and (3) high power
 124:Generated_Source\PSoC5/VDAC8.c **** *
 125:Generated_Source\PSoC5/VDAC8.c **** * Return:
 126:Generated_Source\PSoC5/VDAC8.c **** *  void 
 127:Generated_Source\PSoC5/VDAC8.c **** *
 128:Generated_Source\PSoC5/VDAC8.c **** * Global variables:
 129:Generated_Source\PSoC5/VDAC8.c **** *  VDAC8_initVar: Is modified when this function is called for the 
 130:Generated_Source\PSoC5/VDAC8.c **** *  first time. Is used to ensure that initialization happens only once.
 131:Generated_Source\PSoC5/VDAC8.c **** *
 132:Generated_Source\PSoC5/VDAC8.c **** *******************************************************************************/
 133:Generated_Source\PSoC5/VDAC8.c **** void VDAC8_Start(void)  
 134:Generated_Source\PSoC5/VDAC8.c **** {
 135:Generated_Source\PSoC5/VDAC8.c ****     /* Hardware initiazation only needs to occure the first time */
 136:Generated_Source\PSoC5/VDAC8.c ****     if(VDAC8_initVar == 0u)
 137:Generated_Source\PSoC5/VDAC8.c ****     { 
 138:Generated_Source\PSoC5/VDAC8.c ****         VDAC8_Init();
 139:Generated_Source\PSoC5/VDAC8.c ****         VDAC8_initVar = 1u;
 140:Generated_Source\PSoC5/VDAC8.c ****     }
 141:Generated_Source\PSoC5/VDAC8.c **** 
 142:Generated_Source\PSoC5/VDAC8.c ****     /* Enable power to DAC */
 143:Generated_Source\PSoC5/VDAC8.c ****     VDAC8_Enable();
 144:Generated_Source\PSoC5/VDAC8.c **** 
 145:Generated_Source\PSoC5/VDAC8.c ****     /* Set default value */
 146:Generated_Source\PSoC5/VDAC8.c ****     VDAC8_SetValue(VDAC8_DEFAULT_DATA); 
 147:Generated_Source\PSoC5/VDAC8.c **** }
 148:Generated_Source\PSoC5/VDAC8.c **** 
 149:Generated_Source\PSoC5/VDAC8.c **** 
 150:Generated_Source\PSoC5/VDAC8.c **** /*******************************************************************************
 151:Generated_Source\PSoC5/VDAC8.c **** * Function Name: VDAC8_Stop
ARM GAS  C:\Users\Luggi\AppData\Local\Temp\ccVA5Luv.s 			page 28


 152:Generated_Source\PSoC5/VDAC8.c **** ********************************************************************************
 153:Generated_Source\PSoC5/VDAC8.c **** *
 154:Generated_Source\PSoC5/VDAC8.c **** * Summary:
 155:Generated_Source\PSoC5/VDAC8.c **** *  Powers down DAC to lowest power state.
 156:Generated_Source\PSoC5/VDAC8.c **** *
 157:Generated_Source\PSoC5/VDAC8.c **** * Parameters:
 158:Generated_Source\PSoC5/VDAC8.c **** *  void
 159:Generated_Source\PSoC5/VDAC8.c **** *
 160:Generated_Source\PSoC5/VDAC8.c **** * Return:
 161:Generated_Source\PSoC5/VDAC8.c **** *  void
 162:Generated_Source\PSoC5/VDAC8.c **** *
 163:Generated_Source\PSoC5/VDAC8.c **** * Theory:
 164:Generated_Source\PSoC5/VDAC8.c **** *
 165:Generated_Source\PSoC5/VDAC8.c **** * Side Effects:
 166:Generated_Source\PSoC5/VDAC8.c **** *
 167:Generated_Source\PSoC5/VDAC8.c **** *******************************************************************************/
 168:Generated_Source\PSoC5/VDAC8.c **** void VDAC8_Stop(void) 
 169:Generated_Source\PSoC5/VDAC8.c **** {
 373              		.loc 1 169 0
 374              		.cfi_startproc
 375              		@ args = 0, pretend = 0, frame = 0
 376              		@ frame_needed = 0, uses_anonymous_args = 0
 377              		@ link register save eliminated.
 170:Generated_Source\PSoC5/VDAC8.c ****     /* Disble power to DAC */
 171:Generated_Source\PSoC5/VDAC8.c ****     VDAC8_PWRMGR &= (uint8)(~VDAC8_ACT_PWR_EN);
 378              		.loc 1 171 0
 379 0000 054A     		ldr	r2, .L5
 380 0002 1378     		ldrb	r3, [r2]	@ zero_extendqisi2
 381 0004 03F0FB03 		and	r3, r3, #251
 382 0008 1370     		strb	r3, [r2]
 172:Generated_Source\PSoC5/VDAC8.c ****     VDAC8_STBY_PWRMGR &= (uint8)(~VDAC8_STBY_PWR_EN);
 383              		.loc 1 172 0
 384 000a 1032     		adds	r2, r2, #16
 385 000c 1378     		ldrb	r3, [r2]	@ zero_extendqisi2
 386 000e 03F0FB03 		and	r3, r3, #251
 387 0012 1370     		strb	r3, [r2]
 388 0014 7047     		bx	lr
 389              	.L6:
 390 0016 00BF     		.align	2
 391              	.L5:
 392 0018 A8430040 		.word	1073759144
 393              		.cfi_endproc
 394              	.LFE3:
 395              		.size	VDAC8_Stop, .-VDAC8_Stop
 396              		.section	.text.VDAC8_SetSpeed,"ax",%progbits
 397              		.align	2
 398              		.global	VDAC8_SetSpeed
 399              		.thumb
 400              		.thumb_func
 401              		.type	VDAC8_SetSpeed, %function
 402              	VDAC8_SetSpeed:
 403              	.LFB4:
 173:Generated_Source\PSoC5/VDAC8.c **** 
 174:Generated_Source\PSoC5/VDAC8.c ****     /* This is a work around for PSoC5A  ,
 175:Generated_Source\PSoC5/VDAC8.c ****     this sets VDAC to current mode with output off */
 176:Generated_Source\PSoC5/VDAC8.c ****     #if (CY_PSOC5A)
 177:Generated_Source\PSoC5/VDAC8.c ****         VDAC8_backup.data_value = VDAC8_CR0;
ARM GAS  C:\Users\Luggi\AppData\Local\Temp\ccVA5Luv.s 			page 29


 178:Generated_Source\PSoC5/VDAC8.c ****         VDAC8_CR0 = VDAC8_CUR_MODE_OUT_OFF;
 179:Generated_Source\PSoC5/VDAC8.c ****         VDAC8_restoreVal = 1u;
 180:Generated_Source\PSoC5/VDAC8.c ****     #endif /* CY_PSOC5A */
 181:Generated_Source\PSoC5/VDAC8.c **** }
 182:Generated_Source\PSoC5/VDAC8.c **** 
 183:Generated_Source\PSoC5/VDAC8.c **** 
 184:Generated_Source\PSoC5/VDAC8.c **** /*******************************************************************************
 185:Generated_Source\PSoC5/VDAC8.c **** * Function Name: VDAC8_SetSpeed
 186:Generated_Source\PSoC5/VDAC8.c **** ********************************************************************************
 187:Generated_Source\PSoC5/VDAC8.c **** *
 188:Generated_Source\PSoC5/VDAC8.c **** * Summary:
 189:Generated_Source\PSoC5/VDAC8.c **** *  Set DAC speed
 190:Generated_Source\PSoC5/VDAC8.c **** *
 191:Generated_Source\PSoC5/VDAC8.c **** * Parameters:
 192:Generated_Source\PSoC5/VDAC8.c **** *  power: Sets speed value
 193:Generated_Source\PSoC5/VDAC8.c **** *
 194:Generated_Source\PSoC5/VDAC8.c **** * Return:
 195:Generated_Source\PSoC5/VDAC8.c **** *  void
 196:Generated_Source\PSoC5/VDAC8.c **** *
 197:Generated_Source\PSoC5/VDAC8.c **** * Theory:
 198:Generated_Source\PSoC5/VDAC8.c **** *
 199:Generated_Source\PSoC5/VDAC8.c **** * Side Effects:
 200:Generated_Source\PSoC5/VDAC8.c **** *
 201:Generated_Source\PSoC5/VDAC8.c **** *******************************************************************************/
 202:Generated_Source\PSoC5/VDAC8.c **** void VDAC8_SetSpeed(uint8 speed) 
 203:Generated_Source\PSoC5/VDAC8.c **** {
 404              		.loc 1 203 0
 405              		.cfi_startproc
 406              		@ args = 0, pretend = 0, frame = 0
 407              		@ frame_needed = 0, uses_anonymous_args = 0
 408              		@ link register save eliminated.
 409              	.LVL0:
 204:Generated_Source\PSoC5/VDAC8.c ****     /* Clear power mask then write in new value */
 205:Generated_Source\PSoC5/VDAC8.c ****     VDAC8_CR0 &= (uint8)(~VDAC8_HS_MASK);
 410              		.loc 1 205 0
 411 0000 054B     		ldr	r3, .L8
 412 0002 1A78     		ldrb	r2, [r3]	@ zero_extendqisi2
 413 0004 02F0FD02 		and	r2, r2, #253
 414 0008 1A70     		strb	r2, [r3]
 206:Generated_Source\PSoC5/VDAC8.c ****     VDAC8_CR0 |=  (speed & VDAC8_HS_MASK);
 415              		.loc 1 206 0
 416 000a 1A78     		ldrb	r2, [r3]	@ zero_extendqisi2
 417 000c 00F00200 		and	r0, r0, #2
 418              	.LVL1:
 419 0010 1043     		orrs	r0, r0, r2
 420 0012 1870     		strb	r0, [r3]
 421 0014 7047     		bx	lr
 422              	.L9:
 423 0016 00BF     		.align	2
 424              	.L8:
 425 0018 28580040 		.word	1073764392
 426              		.cfi_endproc
 427              	.LFE4:
 428              		.size	VDAC8_SetSpeed, .-VDAC8_SetSpeed
 429              		.section	.text.VDAC8_SetValue,"ax",%progbits
 430              		.align	2
 431              		.global	VDAC8_SetValue
ARM GAS  C:\Users\Luggi\AppData\Local\Temp\ccVA5Luv.s 			page 30


 432              		.thumb
 433              		.thumb_func
 434              		.type	VDAC8_SetValue, %function
 435              	VDAC8_SetValue:
 436              	.LFB6:
 207:Generated_Source\PSoC5/VDAC8.c **** }
 208:Generated_Source\PSoC5/VDAC8.c **** 
 209:Generated_Source\PSoC5/VDAC8.c **** 
 210:Generated_Source\PSoC5/VDAC8.c **** /*******************************************************************************
 211:Generated_Source\PSoC5/VDAC8.c **** * Function Name: VDAC8_SetRange
 212:Generated_Source\PSoC5/VDAC8.c **** ********************************************************************************
 213:Generated_Source\PSoC5/VDAC8.c **** *
 214:Generated_Source\PSoC5/VDAC8.c **** * Summary:
 215:Generated_Source\PSoC5/VDAC8.c **** *  Set one of three current ranges.
 216:Generated_Source\PSoC5/VDAC8.c **** *
 217:Generated_Source\PSoC5/VDAC8.c **** * Parameters:
 218:Generated_Source\PSoC5/VDAC8.c **** *  Range: Sets one of Three valid ranges.
 219:Generated_Source\PSoC5/VDAC8.c **** *
 220:Generated_Source\PSoC5/VDAC8.c **** * Return:
 221:Generated_Source\PSoC5/VDAC8.c **** *  void 
 222:Generated_Source\PSoC5/VDAC8.c **** *
 223:Generated_Source\PSoC5/VDAC8.c **** * Theory:
 224:Generated_Source\PSoC5/VDAC8.c **** *
 225:Generated_Source\PSoC5/VDAC8.c **** * Side Effects:
 226:Generated_Source\PSoC5/VDAC8.c **** *
 227:Generated_Source\PSoC5/VDAC8.c **** *******************************************************************************/
 228:Generated_Source\PSoC5/VDAC8.c **** void VDAC8_SetRange(uint8 range) 
 229:Generated_Source\PSoC5/VDAC8.c **** {
 230:Generated_Source\PSoC5/VDAC8.c ****     VDAC8_CR0 &= (uint8)(~VDAC8_RANGE_MASK);      /* Clear existing mode */
 231:Generated_Source\PSoC5/VDAC8.c ****     VDAC8_CR0 |= (range & VDAC8_RANGE_MASK);      /*  Set Range  */
 232:Generated_Source\PSoC5/VDAC8.c ****     VDAC8_DacTrim();
 233:Generated_Source\PSoC5/VDAC8.c **** }
 234:Generated_Source\PSoC5/VDAC8.c **** 
 235:Generated_Source\PSoC5/VDAC8.c **** 
 236:Generated_Source\PSoC5/VDAC8.c **** /*******************************************************************************
 237:Generated_Source\PSoC5/VDAC8.c **** * Function Name: VDAC8_SetValue
 238:Generated_Source\PSoC5/VDAC8.c **** ********************************************************************************
 239:Generated_Source\PSoC5/VDAC8.c **** *
 240:Generated_Source\PSoC5/VDAC8.c **** * Summary:
 241:Generated_Source\PSoC5/VDAC8.c **** *  Set 8-bit DAC value
 242:Generated_Source\PSoC5/VDAC8.c **** *
 243:Generated_Source\PSoC5/VDAC8.c **** * Parameters:  
 244:Generated_Source\PSoC5/VDAC8.c **** *  value:  Sets DAC value between 0 and 255.
 245:Generated_Source\PSoC5/VDAC8.c **** *
 246:Generated_Source\PSoC5/VDAC8.c **** * Return: 
 247:Generated_Source\PSoC5/VDAC8.c **** *  void 
 248:Generated_Source\PSoC5/VDAC8.c **** *
 249:Generated_Source\PSoC5/VDAC8.c **** * Theory: 
 250:Generated_Source\PSoC5/VDAC8.c **** *
 251:Generated_Source\PSoC5/VDAC8.c **** * Side Effects:
 252:Generated_Source\PSoC5/VDAC8.c **** *
 253:Generated_Source\PSoC5/VDAC8.c **** *******************************************************************************/
 254:Generated_Source\PSoC5/VDAC8.c **** void VDAC8_SetValue(uint8 value) 
 255:Generated_Source\PSoC5/VDAC8.c **** {
 437              		.loc 1 255 0
 438              		.cfi_startproc
 439              		@ args = 0, pretend = 0, frame = 0
ARM GAS  C:\Users\Luggi\AppData\Local\Temp\ccVA5Luv.s 			page 31


 440              		@ frame_needed = 0, uses_anonymous_args = 0
 441              		@ link register save eliminated.
 442              	.LVL2:
 256:Generated_Source\PSoC5/VDAC8.c ****     #if (CY_PSOC5A)
 257:Generated_Source\PSoC5/VDAC8.c ****         uint8 VDAC8_intrStatus = CyEnterCriticalSection();
 258:Generated_Source\PSoC5/VDAC8.c ****     #endif /* CY_PSOC5A */
 259:Generated_Source\PSoC5/VDAC8.c **** 
 260:Generated_Source\PSoC5/VDAC8.c ****     VDAC8_Data = value;                /*  Set Value  */
 443              		.loc 1 260 0
 444 0000 014B     		ldr	r3, .L11
 445 0002 1870     		strb	r0, [r3]
 446 0004 7047     		bx	lr
 447              	.L12:
 448 0006 00BF     		.align	2
 449              	.L11:
 450 0008 825B0040 		.word	1073765250
 451              		.cfi_endproc
 452              	.LFE6:
 453              		.size	VDAC8_SetValue, .-VDAC8_SetValue
 454              		.section	.text.VDAC8_DacTrim,"ax",%progbits
 455              		.align	2
 456              		.global	VDAC8_DacTrim
 457              		.thumb
 458              		.thumb_func
 459              		.type	VDAC8_DacTrim, %function
 460              	VDAC8_DacTrim:
 461              	.LFB7:
 261:Generated_Source\PSoC5/VDAC8.c **** 
 262:Generated_Source\PSoC5/VDAC8.c ****     /* PSOC5A requires a double write */
 263:Generated_Source\PSoC5/VDAC8.c ****     /* Exit Critical Section */
 264:Generated_Source\PSoC5/VDAC8.c ****     #if (CY_PSOC5A)
 265:Generated_Source\PSoC5/VDAC8.c ****         VDAC8_Data = value;
 266:Generated_Source\PSoC5/VDAC8.c ****         CyExitCriticalSection(VDAC8_intrStatus);
 267:Generated_Source\PSoC5/VDAC8.c ****     #endif /* CY_PSOC5A */
 268:Generated_Source\PSoC5/VDAC8.c **** }
 269:Generated_Source\PSoC5/VDAC8.c **** 
 270:Generated_Source\PSoC5/VDAC8.c **** 
 271:Generated_Source\PSoC5/VDAC8.c **** /*******************************************************************************
 272:Generated_Source\PSoC5/VDAC8.c **** * Function Name: VDAC8_DacTrim
 273:Generated_Source\PSoC5/VDAC8.c **** ********************************************************************************
 274:Generated_Source\PSoC5/VDAC8.c **** *
 275:Generated_Source\PSoC5/VDAC8.c **** * Summary:
 276:Generated_Source\PSoC5/VDAC8.c **** *  Set the trim value for the given range.
 277:Generated_Source\PSoC5/VDAC8.c **** *
 278:Generated_Source\PSoC5/VDAC8.c **** * Parameters:
 279:Generated_Source\PSoC5/VDAC8.c **** *  range:  1V or 4V range.  See constants.
 280:Generated_Source\PSoC5/VDAC8.c **** *
 281:Generated_Source\PSoC5/VDAC8.c **** * Return:
 282:Generated_Source\PSoC5/VDAC8.c **** *  void
 283:Generated_Source\PSoC5/VDAC8.c **** *
 284:Generated_Source\PSoC5/VDAC8.c **** * Theory: 
 285:Generated_Source\PSoC5/VDAC8.c **** *
 286:Generated_Source\PSoC5/VDAC8.c **** * Side Effects:
 287:Generated_Source\PSoC5/VDAC8.c **** *
 288:Generated_Source\PSoC5/VDAC8.c **** *******************************************************************************/
 289:Generated_Source\PSoC5/VDAC8.c **** void VDAC8_DacTrim(void) 
 290:Generated_Source\PSoC5/VDAC8.c **** {
ARM GAS  C:\Users\Luggi\AppData\Local\Temp\ccVA5Luv.s 			page 32


 462              		.loc 1 290 0
 463              		.cfi_startproc
 464              		@ args = 0, pretend = 0, frame = 0
 465              		@ frame_needed = 0, uses_anonymous_args = 0
 466              		@ link register save eliminated.
 291:Generated_Source\PSoC5/VDAC8.c ****     uint8 mode;
 292:Generated_Source\PSoC5/VDAC8.c **** 
 293:Generated_Source\PSoC5/VDAC8.c ****     mode = (uint8)((VDAC8_CR0 & VDAC8_RANGE_MASK) >> 2) + VDAC8_TRIM_M7_1V_RNG_OFFSET;
 467              		.loc 1 293 0
 468 0000 064B     		ldr	r3, .L14
 469 0002 1B78     		ldrb	r3, [r3]	@ zero_extendqisi2
 470 0004 C3F38103 		ubfx	r3, r3, #2, #2
 471              	.LVL3:
 294:Generated_Source\PSoC5/VDAC8.c ****     VDAC8_TR = CY_GET_XTND_REG8((uint8 *)(VDAC8_DAC_TRIM_BASE + mode));
 472              		.loc 1 294 0
 473 0008 03F19243 		add	r3, r3, #1224736768
 474              	.LVL4:
 475 000c 0633     		adds	r3, r3, #6
 476              	.LVL5:
 477 000e 93F82831 		ldrb	r3, [r3, #296]	@ zero_extendqisi2
 478              	.LVL6:
 479 0012 DBB2     		uxtb	r3, r3
 480 0014 024A     		ldr	r2, .L14+4
 481 0016 1370     		strb	r3, [r2]
 482 0018 7047     		bx	lr
 483              	.L15:
 484 001a 00BF     		.align	2
 485              	.L14:
 486 001c 28580040 		.word	1073764392
 487 0020 0A460040 		.word	1073759754
 488              		.cfi_endproc
 489              	.LFE7:
 490              		.size	VDAC8_DacTrim, .-VDAC8_DacTrim
 491              		.section	.text.VDAC8_SetRange,"ax",%progbits
 492              		.align	2
 493              		.global	VDAC8_SetRange
 494              		.thumb
 495              		.thumb_func
 496              		.type	VDAC8_SetRange, %function
 497              	VDAC8_SetRange:
 498              	.LFB5:
 229:Generated_Source\PSoC5/VDAC8.c ****     VDAC8_CR0 &= (uint8)(~VDAC8_RANGE_MASK);      /* Clear existing mode */
 499              		.loc 1 229 0
 500              		.cfi_startproc
 501              		@ args = 0, pretend = 0, frame = 0
 502              		@ frame_needed = 0, uses_anonymous_args = 0
 503              	.LVL7:
 504 0000 08B5     		push	{r3, lr}
 505              		.cfi_def_cfa_offset 8
 506              		.cfi_offset 3, -8
 507              		.cfi_offset 14, -4
 230:Generated_Source\PSoC5/VDAC8.c ****     VDAC8_CR0 |= (range & VDAC8_RANGE_MASK);      /*  Set Range  */
 508              		.loc 1 230 0
 509 0002 064B     		ldr	r3, .L18
 510 0004 1A78     		ldrb	r2, [r3]	@ zero_extendqisi2
 511 0006 02F0F302 		and	r2, r2, #243
 512 000a 1A70     		strb	r2, [r3]
ARM GAS  C:\Users\Luggi\AppData\Local\Temp\ccVA5Luv.s 			page 33


 231:Generated_Source\PSoC5/VDAC8.c ****     VDAC8_DacTrim();
 513              		.loc 1 231 0
 514 000c 1A78     		ldrb	r2, [r3]	@ zero_extendqisi2
 515 000e 00F00C00 		and	r0, r0, #12
 516              	.LVL8:
 517 0012 1043     		orrs	r0, r0, r2
 518 0014 1870     		strb	r0, [r3]
 232:Generated_Source\PSoC5/VDAC8.c **** }
 519              		.loc 1 232 0
 520 0016 FFF7FEFF 		bl	VDAC8_DacTrim
 521              	.LVL9:
 522 001a 08BD     		pop	{r3, pc}
 523              	.L19:
 524              		.align	2
 525              	.L18:
 526 001c 28580040 		.word	1073764392
 527              		.cfi_endproc
 528              	.LFE5:
 529              		.size	VDAC8_SetRange, .-VDAC8_SetRange
 530              		.section	.text.VDAC8_Init,"ax",%progbits
 531              		.align	2
 532              		.global	VDAC8_Init
 533              		.thumb
 534              		.thumb_func
 535              		.type	VDAC8_Init, %function
 536              	VDAC8_Init:
 537              	.LFB0:
  56:Generated_Source\PSoC5/VDAC8.c ****     VDAC8_CR0 = (VDAC8_MODE_V );
 538              		.loc 1 56 0
 539              		.cfi_startproc
 540              		@ args = 0, pretend = 0, frame = 0
 541              		@ frame_needed = 0, uses_anonymous_args = 0
 542 0000 08B5     		push	{r3, lr}
 543              		.cfi_def_cfa_offset 8
 544              		.cfi_offset 3, -8
 545              		.cfi_offset 14, -4
  57:Generated_Source\PSoC5/VDAC8.c **** 
 546              		.loc 1 57 0
 547 0002 0023     		movs	r3, #0
 548 0004 054A     		ldr	r2, .L22
 549 0006 1370     		strb	r3, [r2]
  63:Generated_Source\PSoC5/VDAC8.c ****     #endif /* (VDAC8_DEFAULT_DATA_SRC != 0 ) */
 550              		.loc 1 63 0
 551 0008 0132     		adds	r2, r2, #1
 552 000a 1370     		strb	r3, [r2]
  72:Generated_Source\PSoC5/VDAC8.c **** 
 553              		.loc 1 72 0
 554 000c 0420     		movs	r0, #4
 555 000e FFF7FEFF 		bl	VDAC8_SetRange
 556              	.LVL10:
  75:Generated_Source\PSoC5/VDAC8.c **** }
 557              		.loc 1 75 0
 558 0012 0220     		movs	r0, #2
 559 0014 FFF7FEFF 		bl	VDAC8_SetSpeed
 560              	.LVL11:
 561 0018 08BD     		pop	{r3, pc}
 562              	.L23:
ARM GAS  C:\Users\Luggi\AppData\Local\Temp\ccVA5Luv.s 			page 34


 563 001a 00BF     		.align	2
 564              	.L22:
 565 001c 28580040 		.word	1073764392
 566              		.cfi_endproc
 567              	.LFE0:
 568              		.size	VDAC8_Init, .-VDAC8_Init
 569              		.section	.text.VDAC8_Start,"ax",%progbits
 570              		.align	2
 571              		.global	VDAC8_Start
 572              		.thumb
 573              		.thumb_func
 574              		.type	VDAC8_Start, %function
 575              	VDAC8_Start:
 576              	.LFB2:
 134:Generated_Source\PSoC5/VDAC8.c ****     /* Hardware initiazation only needs to occure the first time */
 577              		.loc 1 134 0
 578              		.cfi_startproc
 579              		@ args = 0, pretend = 0, frame = 0
 580              		@ frame_needed = 0, uses_anonymous_args = 0
 581 0000 08B5     		push	{r3, lr}
 582              		.cfi_def_cfa_offset 8
 583              		.cfi_offset 3, -8
 584              		.cfi_offset 14, -4
 136:Generated_Source\PSoC5/VDAC8.c ****     { 
 585              		.loc 1 136 0
 586 0002 074B     		ldr	r3, .L27
 587 0004 1B78     		ldrb	r3, [r3]	@ zero_extendqisi2
 588 0006 23B9     		cbnz	r3, .L25
 138:Generated_Source\PSoC5/VDAC8.c ****         VDAC8_initVar = 1u;
 589              		.loc 1 138 0
 590 0008 FFF7FEFF 		bl	VDAC8_Init
 591              	.LVL12:
 139:Generated_Source\PSoC5/VDAC8.c ****     }
 592              		.loc 1 139 0
 593 000c 0122     		movs	r2, #1
 594 000e 044B     		ldr	r3, .L27
 595 0010 1A70     		strb	r2, [r3]
 596              	.L25:
 143:Generated_Source\PSoC5/VDAC8.c **** 
 597              		.loc 1 143 0
 598 0012 FFF7FEFF 		bl	VDAC8_Enable
 599              	.LVL13:
 146:Generated_Source\PSoC5/VDAC8.c **** }
 600              		.loc 1 146 0
 601 0016 6420     		movs	r0, #100
 602 0018 FFF7FEFF 		bl	VDAC8_SetValue
 603              	.LVL14:
 604 001c 08BD     		pop	{r3, pc}
 605              	.L28:
 606 001e 00BF     		.align	2
 607              	.L27:
 608 0020 00000000 		.word	.LANCHOR0
 609              		.cfi_endproc
 610              	.LFE2:
 611              		.size	VDAC8_Start, .-VDAC8_Start
 612              		.global	VDAC8_initVar
 613              		.bss
ARM GAS  C:\Users\Luggi\AppData\Local\Temp\ccVA5Luv.s 			page 35


 614              		.set	.LANCHOR0,. + 0
 615              		.type	VDAC8_initVar, %object
 616              		.size	VDAC8_initVar, 1
 617              	VDAC8_initVar:
 618 0000 00       		.space	1
 619              		.text
 620              	.Letext0:
 621              		.file 2 "Generated_Source\\PSoC5\\cytypes.h"